ARM GAS  /tmp/ccSSBNRb.s 			page 1


   1              		.cpu cortex-m33
   2              		.eabi_attribute 27, 1
   3              		.eabi_attribute 28, 1
   4              		.eabi_attribute 20, 1
   5              		.eabi_attribute 21, 1
   6              		.eabi_attribute 23, 3
   7              		.eabi_attribute 24, 1
   8              		.eabi_attribute 25, 1
   9              		.eabi_attribute 26, 1
  10              		.eabi_attribute 30, 4
  11              		.eabi_attribute 34, 1
  12              		.eabi_attribute 18, 4
  13              		.file	"ux_device_stack_interface_set.c"
  14              		.text
  15              		.section	.text._ux_device_stack_interface_set,"ax",%progbits
  16              		.align	1
  17              		.global	_ux_device_stack_interface_set
  18              		.arch armv8-m.main
  19              		.arch_extension dsp
  20              		.syntax unified
  21              		.thumb
  22              		.thumb_func
  23              		.fpu fpv4-sp-d16
  25              	_ux_device_stack_interface_set:
  26              		@ args = 0, pretend = 0, frame = 8
  27              		@ frame_needed = 0, uses_anonymous_args = 0
  28 0000 2DE9F74F 		push	{r0, r1, r2, r4, r5, r6, r7, r8, r9, r10, fp, lr}
  29 0004 0646     		mov	r6, r0
  30 0006 8846     		mov	r8, r1
  31 0008 DFF80891 		ldr	r9, .L38+4
  32 000c D9F80070 		ldr	r7, [r9]
  33 0010 D7E92E53 		ldrd	r5, r3, [r7, #184]
  34              	.L2:
  35 0014 1BB9     		cbnz	r3, .L4
  36              	.L17:
  37 0016 1220     		movs	r0, #18
  38              	.L1:
  39 0018 03B0     		add	sp, sp, #12
  40              		@ sp needed
  41 001a BDE8F08F 		pop	{r4, r5, r6, r7, r8, r9, r10, fp, pc}
  42              	.L4:
  43 001e 2A68     		ldr	r2, [r5]
  44 0020 002A     		cmp	r2, #0
  45 0022 4AD0     		beq	.L3
  46 0024 2035     		adds	r5, r5, #32
  47 0026 013B     		subs	r3, r3, #1
  48 0028 F4E7     		b	.L2
  49              	.L7:
  50 002a 1A46     		mov	r2, r3
  51 002c 9B69     		ldr	r3, [r3, #24]
  52 002e 002B     		cmp	r3, #0
  53 0030 FBD1     		bne	.L7
  54 0032 9561     		str	r5, [r2, #24]
  55 0034 50E0     		b	.L6
  56              	.L10:
  57 0036 D7E93043 		ldrd	r4, r3, [r7, #192]
  58              	.L12:
ARM GAS  /tmp/ccSSBNRb.s 			page 2


  59 003a 002B     		cmp	r3, #0
  60 003c EBD0     		beq	.L17
  61 003e 2268     		ldr	r2, [r4]
  62 0040 5ABB     		cbnz	r2, .L13
  63 0042 2346     		mov	r3, r4
  64 0044 0122     		movs	r2, #1
  65 0046 5946     		mov	r1, fp
  66 0048 43F80C2B 		str	r2, [r3], #12
  67 004c 3046     		mov	r0, r6
  68 004e 0622     		movs	r2, #6
  69 0050 FFF7FEFF 		bl	_ux_utility_descriptor_parse
  70 0054 D9F80010 		ldr	r1, [r9]
  71 0058 238A     		ldrh	r3, [r4, #16]
  72 005a D1F84011 		ldr	r1, [r1, #320]
  73 005e C3F30A02 		ubfx	r2, r3, #0, #11
  74 0062 0229     		cmp	r1, #2
  75 0064 08D1     		bne	.L15
  76 0066 E17B     		ldrb	r1, [r4, #15]	@ zero_extendqisi2
  77 0068 C907     		lsls	r1, r1, #31
  78 006a 05D5     		bpl	.L15
  79 006c 13F4C053 		ands	r3, r3, #6144
  80 0070 1CBF     		itt	ne
  81 0072 DB0A     		lsrne	r3, r3, #11
  82 0074 03FB0222 		mlane	r2, r3, r2, r2
  83              	.L15:
  84 0078 4FF0FF33 		mov	r3, #-1
  85 007c 6365     		str	r3, [r4, #84]
  86 007e 019B     		ldr	r3, [sp, #4]
  87 0080 2264     		str	r2, [r4, #64]
  88 0082 E361     		str	r3, [r4, #28]
  89 0084 2246     		mov	r2, r4
  90 0086 0E21     		movs	r1, #14
  91 0088 3846     		mov	r0, r7
  92 008a BB69     		ldr	r3, [r7, #24]
  93 008c A462     		str	r4, [r4, #40]
  94 008e A561     		str	r5, [r4, #24]
  95 0090 9847     		blx	r3
  96 0092 28B1     		cbz	r0, .L18
  97 0094 0023     		movs	r3, #0
  98 0096 2360     		str	r3, [r4]
  99 0098 BEE7     		b	.L1
 100              	.L13:
 101 009a 6834     		adds	r4, r4, #104
 102 009c 013B     		subs	r3, r3, #1
 103 009e CCE7     		b	.L12
 104              	.L18:
 105 00a0 EB69     		ldr	r3, [r5, #28]
 106 00a2 23B9     		cbnz	r3, .L19
 107 00a4 EC61     		str	r4, [r5, #28]
 108              	.L11:
 109 00a6 A8EB0A08 		sub	r8, r8, r10
 110 00aa 5644     		add	r6, r6, r10
 111 00ac 1DE0     		b	.L8
 112              	.L19:
 113 00ae 1A46     		mov	r2, r3
 114 00b0 5B69     		ldr	r3, [r3, #20]
 115 00b2 002B     		cmp	r3, #0
ARM GAS  /tmp/ccSSBNRb.s 			page 3


 116 00b4 FBD1     		bne	.L19
 117 00b6 5461     		str	r4, [r2, #20]
 118 00b8 F5E7     		b	.L11
 119              	.L3:
 120 00ba 2B46     		mov	r3, r5
 121 00bc 0122     		movs	r2, #1
 122 00be 3046     		mov	r0, r6
 123 00c0 43F80C2B 		str	r2, [r3], #12
 124 00c4 1249     		ldr	r1, .L38
 125 00c6 0922     		movs	r2, #9
 126 00c8 FFF7FEFF 		bl	_ux_utility_descriptor_parse
 127 00cc D7F8B430 		ldr	r3, [r7, #180]
 128 00d0 002B     		cmp	r3, #0
 129 00d2 AAD1     		bne	.L7
 130 00d4 C7F8B450 		str	r5, [r7, #180]
 131              	.L6:
 132 00d8 3078     		ldrb	r0, [r6]	@ zero_extendqisi2
 133 00da 07F12403 		add	r3, r7, #36
 134 00de DFF838B0 		ldr	fp, .L38+8
 135 00e2 0193     		str	r3, [sp, #4]
 136 00e4 A8EB0008 		sub	r8, r8, r0
 137 00e8 0644     		add	r6, r6, r0
 138              	.L8:
 139 00ea B8F1000F 		cmp	r8, #0
 140 00ee 08D0     		beq	.L37
 141 00f0 7378     		ldrb	r3, [r6, #1]	@ zero_extendqisi2
 142 00f2 96F800A0 		ldrb	r10, [r6]	@ zero_extendqisi2
 143 00f6 042B     		cmp	r3, #4
 144 00f8 03D0     		beq	.L37
 145 00fa 052B     		cmp	r3, #5
 146 00fc 9BD0     		beq	.L10
 147 00fe 022B     		cmp	r3, #2
 148 0100 D1D1     		bne	.L11
 149              	.L37:
 150 0102 2846     		mov	r0, r5
 151 0104 03B0     		add	sp, sp, #12
 152              		@ sp needed
 153 0106 BDE8F04F 		pop	{r4, r5, r6, r7, r8, r9, r10, fp, lr}
 154 010a FFF7FEBF 		b	_ux_device_stack_interface_start
 155              	.L39:
 156 010e 00BF     		.align	2
 157              	.L38:
 158 0110 00000000 		.word	_ux_system_interface_descriptor_structure
 159 0114 00000000 		.word	_ux_system_slave
 160 0118 00000000 		.word	_ux_system_endpoint_descriptor_structure
 162              		.ident	"GCC: (15:10.3-2021.07-4) 10.3.1 20210621 (release)"
ARM GAS  /tmp/ccSSBNRb.s 			page 4


DEFINED SYMBOLS
                            *ABS*:0000000000000000 ux_device_stack_interface_set.c
     /tmp/ccSSBNRb.s:16     .text._ux_device_stack_interface_set:0000000000000000 $t
     /tmp/ccSSBNRb.s:25     .text._ux_device_stack_interface_set:0000000000000000 _ux_device_stack_interface_set
     /tmp/ccSSBNRb.s:158    .text._ux_device_stack_interface_set:0000000000000110 $d

UNDEFINED SYMBOLS
_ux_utility_descriptor_parse
_ux_device_stack_interface_start
_ux_system_interface_descriptor_structure
_ux_system_slave
_ux_system_endpoint_descriptor_structure
