ARM GAS  /tmp/ccVUwbrj.s 			page 1


   1              		.cpu cortex-m33
   2              		.eabi_attribute 27, 1
   3              		.eabi_attribute 28, 1
   4              		.eabi_attribute 20, 1
   5              		.eabi_attribute 21, 1
   6              		.eabi_attribute 23, 3
   7              		.eabi_attribute 24, 1
   8              		.eabi_attribute 25, 1
   9              		.eabi_attribute 26, 1
  10              		.eabi_attribute 30, 4
  11              		.eabi_attribute 34, 1
  12              		.eabi_attribute 18, 4
  13              		.file	"aes.c"
  14              		.text
  15              		.section	.text.ByteReverseWord32,"ax",%progbits
  16              		.align	1
  17              		.arch armv8-m.main
  18              		.arch_extension dsp
  19              		.syntax unified
  20              		.thumb
  21              		.thumb_func
  22              		.fpu fpv4-sp-d16
  24              	ByteReverseWord32:
  25              		@ args = 0, pretend = 0, frame = 0
  26              		@ frame_needed = 0, uses_anonymous_args = 0
  27              		@ link register save eliminated.
  28 0000 00BA     		rev	r0, r0
  29 0002 7047     		bx	lr
  31              		.section	.text.ByteReverseWords,"ax",%progbits
  32              		.align	1
  33              		.syntax unified
  34              		.thumb
  35              		.thumb_func
  36              		.fpu fpv4-sp-d16
  38              	ByteReverseWords:
  39              		@ args = 0, pretend = 0, frame = 0
  40              		@ frame_needed = 0, uses_anonymous_args = 0
  41 0000 10B5     		push	{r4, lr}
  42 0002 0023     		movs	r3, #0
  43 0004 0446     		mov	r4, r0
  44 0006 9208     		lsrs	r2, r2, #2
  45              	.L3:
  46 0008 9342     		cmp	r3, r2
  47 000a 00D1     		bne	.L4
  48 000c 10BD     		pop	{r4, pc}
  49              	.L4:
  50 000e 51F82300 		ldr	r0, [r1, r3, lsl #2]
  51 0012 FFF7FEFF 		bl	ByteReverseWord32
  52 0016 44F82300 		str	r0, [r4, r3, lsl #2]
  53 001a 0133     		adds	r3, r3, #1
  54 001c F4E7     		b	.L3
  56              		.section	.text.ForceZero,"ax",%progbits
  57              		.align	1
  58              		.syntax unified
  59              		.thumb
  60              		.thumb_func
  61              		.fpu fpv4-sp-d16
ARM GAS  /tmp/ccVUwbrj.s 			page 2


  63              	ForceZero:
  64              		@ args = 0, pretend = 0, frame = 8
  65              		@ frame_needed = 0, uses_anonymous_args = 0
  66 0000 73B5     		push	{r0, r1, r4, r5, r6, lr}
  67 0002 0346     		mov	r3, r0
  68 0004 0C46     		mov	r4, r1
  69 0006 BFF35B8F 		dmb	ish
  70 000a 0022     		movs	r2, #0
  71              	.L6:
  72 000c 13F00301 		ands	r1, r3, #3
  73 0010 13D1     		bne	.L8
  74 0012 24F00305 		bic	r5, r4, #3
  75 0016 2A46     		mov	r2, r5
  76 0018 1846     		mov	r0, r3
  77 001a 0191     		str	r1, [sp, #4]
  78 001c FFF7FEFF 		bl	memset
  79 0020 6FF00302 		mvn	r2, #3
  80 0024 A608     		lsrs	r6, r4, #2
  81 0026 02FB0642 		mla	r2, r2, r6, r4
  82 002a 0199     		ldr	r1, [sp, #4]
  83 002c 2844     		add	r0, r0, r5
  84 002e FFF7FEFF 		bl	memset
  85 0032 BFF35B8F 		dmb	ish
  86              	.L5:
  87 0036 02B0     		add	sp, sp, #8
  88              		@ sp needed
  89 0038 70BD     		pop	{r4, r5, r6, pc}
  90              	.L8:
  91 003a 002C     		cmp	r4, #0
  92 003c FBD0     		beq	.L5
  93 003e 03F8012B 		strb	r2, [r3], #1
  94 0042 013C     		subs	r4, r4, #1
  95 0044 E2E7     		b	.L6
  97              		.section	.text.xorbuf.constprop.0,"ax",%progbits
  98              		.align	1
  99              		.syntax unified
 100              		.thumb
 101              		.thumb_func
 102              		.fpu fpv4-sp-d16
 104              	xorbuf.constprop.0:
 105              		@ args = 0, pretend = 0, frame = 0
 106              		@ frame_needed = 0, uses_anonymous_args = 0
 107 0000 40EA0103 		orr	r3, r0, r1
 108 0004 F0B5     		push	{r4, r5, r6, r7, lr}
 109 0006 9C07     		lsls	r4, r3, #30
 110 0008 0CD1     		bne	.L14
 111 000a 01F11002 		add	r2, r1, #16
 112              	.L15:
 113 000e 8A42     		cmp	r2, r1
 114 0010 00D1     		bne	.L16
 115              	.L13:
 116 0012 F0BD     		pop	{r4, r5, r6, r7, pc}
 117              	.L16:
 118 0014 50F8043B 		ldr	r3, [r0], #4
 119 0018 51F8044B 		ldr	r4, [r1], #4
 120 001c 6340     		eors	r3, r3, r4
 121 001e 40F8043C 		str	r3, [r0, #-4]
ARM GAS  /tmp/ccVUwbrj.s 			page 3


 122 0022 F4E7     		b	.L15
 123              	.L14:
 124 0024 80EA0103 		eor	r3, r0, r1
 125 0028 13F0030F 		tst	r3, #3
 126 002c 4FF01003 		mov	r3, #16
 127 0030 12D0     		beq	.L17
 128              	.L18:
 129 0032 0B44     		add	r3, r3, r1
 130              	.L23:
 131 0034 9942     		cmp	r1, r3
 132 0036 ECD0     		beq	.L13
 133 0038 11F8012B 		ldrb	r2, [r1], #1	@ zero_extendqisi2
 134 003c 10F8014B 		ldrb	r4, [r0], #1	@ zero_extendqisi2
 135 0040 6240     		eors	r2, r2, r4
 136 0042 00F8012C 		strb	r2, [r0, #-1]
 137 0046 F5E7     		b	.L23
 138              	.L20:
 139 0048 11F8012B 		ldrb	r2, [r1], #1	@ zero_extendqisi2
 140 004c 10F8014B 		ldrb	r4, [r0], #1	@ zero_extendqisi2
 141 0050 013B     		subs	r3, r3, #1
 142 0052 6240     		eors	r2, r2, r4
 143 0054 00F8012C 		strb	r2, [r0, #-1]
 144              	.L17:
 145 0058 8207     		lsls	r2, r0, #30
 146 005a 01D0     		beq	.L19
 147 005c 002B     		cmp	r3, #0
 148 005e F3D1     		bne	.L20
 149              	.L19:
 150 0060 0A46     		mov	r2, r1
 151 0062 0546     		mov	r5, r0
 152 0064 23F00304 		bic	r4, r3, #3
 153 0068 0C44     		add	r4, r4, r1
 154              	.L21:
 155 006a 9442     		cmp	r4, r2
 156 006c 0DD8     		bhi	.L22
 157 006e C1F10302 		rsb	r2, r1, #3
 158 0072 2244     		add	r2, r2, r4
 159 0074 CD1E     		subs	r5, r1, #3
 160 0076 22F00302 		bic	r2, r2, #3
 161 007a A542     		cmp	r5, r4
 162 007c 88BF     		it	hi
 163 007e 0022     		movhi	r2, #0
 164 0080 03F00303 		and	r3, r3, #3
 165 0084 1044     		add	r0, r0, r2
 166 0086 1144     		add	r1, r1, r2
 167 0088 D3E7     		b	.L18
 168              	.L22:
 169 008a 55F8046B 		ldr	r6, [r5], #4
 170 008e 52F8047B 		ldr	r7, [r2], #4
 171 0092 7E40     		eors	r6, r6, r7
 172 0094 45F8046C 		str	r6, [r5, #-4]
 173 0098 E7E7     		b	.L21
 175              		.section	.text.wc_AesSetIV,"ax",%progbits
 176              		.align	1
 177              		.global	wc_AesSetIV
 178              		.syntax unified
 179              		.thumb
ARM GAS  /tmp/ccVUwbrj.s 			page 4


 180              		.thumb_func
 181              		.fpu fpv4-sp-d16
 183              	wc_AesSetIV:
 184              		@ args = 0, pretend = 0, frame = 0
 185              		@ frame_needed = 0, uses_anonymous_args = 0
 186 0000 10B5     		push	{r4, lr}
 187 0002 78B1     		cbz	r0, .L34
 188 0004 F830     		adds	r0, r0, #248
 189 0006 49B1     		cbz	r1, .L32
 190 0008 01F11003 		add	r3, r1, #16
 191              	.L33:
 192 000c 51F8042B 		ldr	r2, [r1], #4	@ unaligned
 193 0010 9942     		cmp	r1, r3
 194 0012 40F8042B 		str	r2, [r0], #4	@ unaligned
 195 0016 F9D1     		bne	.L33
 196              	.L36:
 197 0018 0020     		movs	r0, #0
 198              	.L30:
 199 001a 10BD     		pop	{r4, pc}
 200              	.L32:
 201 001c 1022     		movs	r2, #16
 202 001e FFF7FEFF 		bl	memset
 203 0022 F9E7     		b	.L36
 204              	.L34:
 205 0024 6FF0AC00 		mvn	r0, #172
 206 0028 F7E7     		b	.L30
 208              		.section	.text.wc_AesSetKey,"ax",%progbits
 209              		.align	1
 210              		.global	wc_AesSetKey
 211              		.syntax unified
 212              		.thumb
 213              		.thumb_func
 214              		.fpu fpv4-sp-d16
 216              	wc_AesSetKey:
 217              		@ args = 4, pretend = 0, frame = 8
 218              		@ frame_needed = 0, uses_anonymous_args = 0
 219 0000 2DE9F341 		push	{r0, r1, r4, r5, r6, r7, r8, lr}
 220 0004 8846     		mov	r8, r1
 221 0006 1746     		mov	r7, r2
 222 0008 1946     		mov	r1, r3
 223 000a 0546     		mov	r5, r0
 224 000c 0028     		cmp	r0, #0
 225 000e 00F02682 		beq	.L59
 226 0012 F02A     		cmp	r2, #240
 227 0014 00F22382 		bhi	.L59
 228 0018 A2F11003 		sub	r3, r2, #16
 229 001c 102B     		cmp	r3, #16
 230 001e 00F21E82 		bhi	.L59
 231 0022 0122     		movs	r2, #1
 232 0024 9A40     		lsls	r2, r2, r3
 233 0026 02F00132 		and	r2, r2, #16843009
 234 002a 22F08072 		bic	r2, r2, #16777216
 235 002e 002A     		cmp	r2, #0
 236 0030 00F01582 		beq	.L59
 237 0034 BB08     		lsrs	r3, r7, #2
 238 0036 0633     		adds	r3, r3, #6
 239 0038 C0F8F470 		str	r7, [r0, #244]
ARM GAS  /tmp/ccVUwbrj.s 			page 5


 240 003c C0F8F030 		str	r3, [r0, #240]
 241 0040 FFF7FEFF 		bl	wc_AesSetIV
 242 0044 0646     		mov	r6, r0
 243 0046 0028     		cmp	r0, #0
 244 0048 40F02D81 		bne	.L37
 245 004c 3A46     		mov	r2, r7
 246 004e 4146     		mov	r1, r8
 247 0050 2846     		mov	r0, r5
 248 0052 FFF7FEFF 		bl	memcpy
 249 0056 3A46     		mov	r2, r7
 250 0058 2946     		mov	r1, r5
 251 005a 2846     		mov	r0, r5
 252 005c FFF7FEFF 		bl	ByteReverseWords
 253 0060 3A46     		mov	r2, r7
 254 0062 4146     		mov	r1, r8
 255 0064 2846     		mov	r0, r5
 256 0066 FFF7FEFF 		bl	memcpy
 257 006a 3A46     		mov	r2, r7
 258 006c 2946     		mov	r1, r5
 259 006e 2846     		mov	r0, r5
 260 0070 FFF7FEFF 		bl	ByteReverseWords
 261 0074 182F     		cmp	r7, #24
 262 0076 2C46     		mov	r4, r5
 263 0078 00F0AF80 		beq	.L39
 264 007c 202F     		cmp	r7, #32
 265 007e 40D0     		beq	.L40
 266 0080 102F     		cmp	r7, #16
 267 0082 40F0E780 		bne	.L42
 268 0086 9B48     		ldr	r0, .L64
 269 0088 9B49     		ldr	r1, .L64+4
 270 008a 05F1900C 		add	ip, r5, #144
 271              	.L46:
 272 008e E268     		ldr	r2, [r4, #12]
 273 0090 50F8047B 		ldr	r7, [r0], #4
 274 0094 D3B2     		uxtb	r3, r2
 275 0096 51F82330 		ldr	r3, [r1, r3, lsl #2]
 276 009a 6445     		cmp	r4, ip
 277 009c 03F47F4E 		and	lr, r3, #65280
 278 00a0 2368     		ldr	r3, [r4]
 279 00a2 87EA0307 		eor	r7, r7, r3
 280 00a6 8EEA0703 		eor	r3, lr, r7
 281 00aa 4FEA1267 		lsr	r7, r2, #24
 282 00ae 07F58077 		add	r7, r7, #256
 283 00b2 11F82770 		ldrb	r7, [r1, r7, lsl #2]	@ zero_extendqisi2
 284 00b6 83EA0703 		eor	r3, r3, r7
 285 00ba C2F30747 		ubfx	r7, r2, #16, #8
 286 00be 07F50077 		add	r7, r7, #512
 287 00c2 51F82770 		ldr	r7, [r1, r7, lsl #2]
 288 00c6 07F07F47 		and	r7, r7, #-16777216
 289 00ca 83EA0703 		eor	r3, r3, r7
 290 00ce C2F30727 		ubfx	r7, r2, #8, #8
 291 00d2 07F54077 		add	r7, r7, #768
 292 00d6 51F82770 		ldr	r7, [r1, r7, lsl #2]
 293 00da 07F47F07 		and	r7, r7, #16711680
 294 00de 83EA0703 		eor	r3, r3, r7
 295 00e2 6768     		ldr	r7, [r4, #4]
 296 00e4 2361     		str	r3, [r4, #16]
ARM GAS  /tmp/ccVUwbrj.s 			page 6


 297 00e6 83EA0703 		eor	r3, r3, r7
 298 00ea A768     		ldr	r7, [r4, #8]
 299 00ec 6361     		str	r3, [r4, #20]
 300 00ee 83EA0703 		eor	r3, r3, r7
 301 00f2 A361     		str	r3, [r4, #24]
 302 00f4 83EA0203 		eor	r3, r3, r2
 303 00f8 E361     		str	r3, [r4, #28]
 304 00fa 00F0AA80 		beq	.L45
 305 00fe 1034     		adds	r4, r4, #16
 306 0100 C5E7     		b	.L46
 307              	.L40:
 308 0102 7C48     		ldr	r0, .L64
 309 0104 7C49     		ldr	r1, .L64+4
 310 0106 05F1C00C 		add	ip, r5, #192
 311              	.L43:
 312 010a E269     		ldr	r2, [r4, #28]
 313 010c 50F8047B 		ldr	r7, [r0], #4
 314 0110 D3B2     		uxtb	r3, r2
 315 0112 51F82330 		ldr	r3, [r1, r3, lsl #2]
 316 0116 6445     		cmp	r4, ip
 317 0118 03F47F4E 		and	lr, r3, #65280
 318 011c 2368     		ldr	r3, [r4]
 319 011e 87EA0307 		eor	r7, r7, r3
 320 0122 8EEA0703 		eor	r3, lr, r7
 321 0126 4FEA1267 		lsr	r7, r2, #24
 322 012a 07F58077 		add	r7, r7, #256
 323 012e 11F82770 		ldrb	r7, [r1, r7, lsl #2]	@ zero_extendqisi2
 324 0132 83EA0703 		eor	r3, r3, r7
 325 0136 C2F30747 		ubfx	r7, r2, #16, #8
 326 013a 07F50077 		add	r7, r7, #512
 327 013e 51F82770 		ldr	r7, [r1, r7, lsl #2]
 328 0142 07F07F47 		and	r7, r7, #-16777216
 329 0146 83EA0703 		eor	r3, r3, r7
 330 014a C2F30727 		ubfx	r7, r2, #8, #8
 331 014e 07F54077 		add	r7, r7, #768
 332 0152 51F82770 		ldr	r7, [r1, r7, lsl #2]
 333 0156 07F47F07 		and	r7, r7, #16711680
 334 015a 83EA0703 		eor	r3, r3, r7
 335 015e 6768     		ldr	r7, [r4, #4]
 336 0160 2362     		str	r3, [r4, #32]
 337 0162 83EA0703 		eor	r3, r3, r7
 338 0166 A768     		ldr	r7, [r4, #8]
 339 0168 6362     		str	r3, [r4, #36]
 340 016a 83EA0703 		eor	r3, r3, r7
 341 016e E768     		ldr	r7, [r4, #12]
 342 0170 A362     		str	r3, [r4, #40]
 343 0172 83EA0703 		eor	r3, r3, r7
 344 0176 E362     		str	r3, [r4, #44]
 345 0178 6BD0     		beq	.L45
 346 017a C3F30747 		ubfx	r7, r3, #16, #8
 347 017e C3F3072E 		ubfx	lr, r3, #8, #8
 348 0182 07F54077 		add	r7, r7, #768
 349 0186 51F82770 		ldr	r7, [r1, r7, lsl #2]
 350 018a 51F82EE0 		ldr	lr, [r1, lr, lsl #2]
 351 018e 07F47F07 		and	r7, r7, #16711680
 352 0192 0EF47F4E 		and	lr, lr, #65280
 353 0196 47EA0E0E 		orr	lr, r7, lr
ARM GAS  /tmp/ccVUwbrj.s 			page 7


 354 019a 2769     		ldr	r7, [r4, #16]
 355 019c 2034     		adds	r4, r4, #32
 356 019e 8EEA0707 		eor	r7, lr, r7
 357 01a2 4FEA136E 		lsr	lr, r3, #24
 358 01a6 0EF5007E 		add	lr, lr, #512
 359 01aa DBB2     		uxtb	r3, r3
 360 01ac 51F82EE0 		ldr	lr, [r1, lr, lsl #2]
 361 01b0 03F58073 		add	r3, r3, #256
 362 01b4 11F82330 		ldrb	r3, [r1, r3, lsl #2]	@ zero_extendqisi2
 363 01b8 0EF07F4E 		and	lr, lr, #-16777216
 364 01bc 4EEA0303 		orr	r3, lr, r3
 365 01c0 5F40     		eors	r7, r7, r3
 366 01c2 54F80C3C 		ldr	r3, [r4, #-12]
 367 01c6 2761     		str	r7, [r4, #16]
 368 01c8 5F40     		eors	r7, r7, r3
 369 01ca 54F8083C 		ldr	r3, [r4, #-8]
 370 01ce 6761     		str	r7, [r4, #20]
 371 01d0 5F40     		eors	r7, r7, r3
 372 01d2 A761     		str	r7, [r4, #24]
 373 01d4 5740     		eors	r7, r7, r2
 374 01d6 E761     		str	r7, [r4, #28]
 375 01d8 97E7     		b	.L43
 376              	.L39:
 377 01da 4648     		ldr	r0, .L64
 378 01dc 4649     		ldr	r1, .L64+4
 379 01de 05F1A80C 		add	ip, r5, #168
 380              	.L44:
 381 01e2 6269     		ldr	r2, [r4, #20]
 382 01e4 50F8047B 		ldr	r7, [r0], #4
 383 01e8 D3B2     		uxtb	r3, r2
 384 01ea 51F82330 		ldr	r3, [r1, r3, lsl #2]
 385 01ee 6445     		cmp	r4, ip
 386 01f0 03F47F4E 		and	lr, r3, #65280
 387 01f4 2368     		ldr	r3, [r4]
 388 01f6 87EA0307 		eor	r7, r7, r3
 389 01fa 8EEA0703 		eor	r3, lr, r7
 390 01fe 4FEA1267 		lsr	r7, r2, #24
 391 0202 07F58077 		add	r7, r7, #256
 392 0206 11F82770 		ldrb	r7, [r1, r7, lsl #2]	@ zero_extendqisi2
 393 020a 83EA0703 		eor	r3, r3, r7
 394 020e C2F30747 		ubfx	r7, r2, #16, #8
 395 0212 07F50077 		add	r7, r7, #512
 396 0216 51F82770 		ldr	r7, [r1, r7, lsl #2]
 397 021a 07F07F47 		and	r7, r7, #-16777216
 398 021e 83EA0703 		eor	r3, r3, r7
 399 0222 C2F30727 		ubfx	r7, r2, #8, #8
 400 0226 07F54077 		add	r7, r7, #768
 401 022a 51F82770 		ldr	r7, [r1, r7, lsl #2]
 402 022e 07F47F07 		and	r7, r7, #16711680
 403 0232 83EA0703 		eor	r3, r3, r7
 404 0236 6768     		ldr	r7, [r4, #4]
 405 0238 A361     		str	r3, [r4, #24]
 406 023a 83EA0703 		eor	r3, r3, r7
 407 023e A768     		ldr	r7, [r4, #8]
 408 0240 E361     		str	r3, [r4, #28]
 409 0242 83EA0703 		eor	r3, r3, r7
 410 0246 E768     		ldr	r7, [r4, #12]
ARM GAS  /tmp/ccVUwbrj.s 			page 8


 411 0248 2362     		str	r3, [r4, #32]
 412 024a 83EA0703 		eor	r3, r3, r7
 413 024e 6362     		str	r3, [r4, #36]
 414 0250 2DD1     		bne	.L47
 415              	.L45:
 416 0252 0192     		str	r2, [sp, #4]
 417              	.L42:
 418 0254 0421     		movs	r1, #4
 419 0256 0DEB0100 		add	r0, sp, r1
 420 025a FFF7FEFF 		bl	ForceZero
 421 025e 089B     		ldr	r3, [sp, #32]
 422 0260 012B     		cmp	r3, #1
 423 0262 20D1     		bne	.L37
 424 0264 0020     		movs	r0, #0
 425 0266 2C46     		mov	r4, r5
 426 0268 2F46     		mov	r7, r5
 427 026a 0246     		mov	r2, r0
 428 026c D5F8F030 		ldr	r3, [r5, #240]
 429 0270 0199     		ldr	r1, [sp, #4]
 430 0272 4FEA830E 		lsl	lr, r3, #2
 431 0276 05EB0313 		add	r3, r5, r3, lsl #4
 432              	.L50:
 433 027a AEEB020C 		sub	ip, lr, r2
 434 027e 6245     		cmp	r2, ip
 435 0280 07F11007 		add	r7, r7, #16
 436 0284 A3F11003 		sub	r3, r3, #16
 437 0288 18D3     		bcc	.L51
 438 028a 00B1     		cbz	r0, .L52
 439 028c 0191     		str	r1, [sp, #4]
 440              	.L52:
 441 028e 0421     		movs	r1, #4
 442 0290 0DEB0100 		add	r0, sp, r1
 443 0294 FFF7FEFF 		bl	ForceZero
 444 0298 0120     		movs	r0, #1
 445 029a 184B     		ldr	r3, .L64+8
 446 029c 164A     		ldr	r2, .L64+4
 447              	.L53:
 448 029e D5F8F010 		ldr	r1, [r5, #240]
 449 02a2 8842     		cmp	r0, r1
 450 02a4 2CD3     		bcc	.L54
 451              	.L37:
 452 02a6 3046     		mov	r0, r6
 453 02a8 02B0     		add	sp, sp, #8
 454              		@ sp needed
 455 02aa BDE8F081 		pop	{r4, r5, r6, r7, r8, pc}
 456              	.L47:
 457 02ae 2769     		ldr	r7, [r4, #16]
 458 02b0 1834     		adds	r4, r4, #24
 459 02b2 7B40     		eors	r3, r3, r7
 460 02b4 2361     		str	r3, [r4, #16]
 461 02b6 5340     		eors	r3, r3, r2
 462 02b8 6361     		str	r3, [r4, #20]
 463 02ba 92E7     		b	.L44
 464              	.L51:
 465 02bc 57F8100C 		ldr	r0, [r7, #-16]
 466 02c0 1969     		ldr	r1, [r3, #16]
 467 02c2 0432     		adds	r2, r2, #4
ARM GAS  /tmp/ccVUwbrj.s 			page 9


 468 02c4 47F8101C 		str	r1, [r7, #-16]
 469 02c8 1861     		str	r0, [r3, #16]
 470 02ca 57F80C0C 		ldr	r0, [r7, #-12]
 471 02ce 5969     		ldr	r1, [r3, #20]
 472 02d0 47F80C1C 		str	r1, [r7, #-12]
 473 02d4 5861     		str	r0, [r3, #20]
 474 02d6 57F8080C 		ldr	r0, [r7, #-8]
 475 02da 9969     		ldr	r1, [r3, #24]
 476 02dc 47F8081C 		str	r1, [r7, #-8]
 477 02e0 9861     		str	r0, [r3, #24]
 478 02e2 57F8041C 		ldr	r1, [r7, #-4]
 479 02e6 D869     		ldr	r0, [r3, #28]
 480 02e8 47F8040C 		str	r0, [r7, #-4]
 481 02ec 0120     		movs	r0, #1
 482 02ee D961     		str	r1, [r3, #28]
 483 02f0 C3E7     		b	.L50
 484              	.L65:
 485 02f2 00BF     		.align	2
 486              	.L64:
 487 02f4 00000000 		.word	.LANCHOR0
 488 02f8 00000000 		.word	Te
 489 02fc 00000000 		.word	Td
 490              	.L54:
 491 0300 2169     		ldr	r1, [r4, #16]
 492 0302 0130     		adds	r0, r0, #1
 493 0304 0F0E     		lsrs	r7, r1, #24
 494 0306 07F58077 		add	r7, r7, #256
 495 030a 12F827E0 		ldrb	lr, [r2, r7, lsl #2]	@ zero_extendqisi2
 496 030e CFB2     		uxtb	r7, r1
 497 0310 07F58077 		add	r7, r7, #256
 498 0314 12F827C0 		ldrb	ip, [r2, r7, lsl #2]	@ zero_extendqisi2
 499 0318 53F82E70 		ldr	r7, [r3, lr, lsl #2]
 500 031c 0CF5407C 		add	ip, ip, #768
 501 0320 53F82CC0 		ldr	ip, [r3, ip, lsl #2]
 502 0324 1034     		adds	r4, r4, #16
 503 0326 87EA0C07 		eor	r7, r7, ip
 504 032a C1F3074C 		ubfx	ip, r1, #16, #8
 505 032e 0CF5807C 		add	ip, ip, #256
 506 0332 C1F30721 		ubfx	r1, r1, #8, #8
 507 0336 12F82CC0 		ldrb	ip, [r2, ip, lsl #2]	@ zero_extendqisi2
 508 033a 01F58071 		add	r1, r1, #256
 509 033e 12F82110 		ldrb	r1, [r2, r1, lsl #2]	@ zero_extendqisi2
 510 0342 0CF5807C 		add	ip, ip, #256
 511 0346 53F82CC0 		ldr	ip, [r3, ip, lsl #2]
 512 034a 01F50071 		add	r1, r1, #512
 513 034e 53F82110 		ldr	r1, [r3, r1, lsl #2]
 514 0352 87EA0C07 		eor	r7, r7, ip
 515 0356 7940     		eors	r1, r1, r7
 516 0358 2160     		str	r1, [r4]
 517 035a 6168     		ldr	r1, [r4, #4]
 518 035c 0F0E     		lsrs	r7, r1, #24
 519 035e 07F58077 		add	r7, r7, #256
 520 0362 12F827E0 		ldrb	lr, [r2, r7, lsl #2]	@ zero_extendqisi2
 521 0366 CFB2     		uxtb	r7, r1
 522 0368 07F58077 		add	r7, r7, #256
 523 036c 12F827C0 		ldrb	ip, [r2, r7, lsl #2]	@ zero_extendqisi2
 524 0370 53F82E70 		ldr	r7, [r3, lr, lsl #2]
ARM GAS  /tmp/ccVUwbrj.s 			page 10


 525 0374 0CF5407C 		add	ip, ip, #768
 526 0378 53F82CC0 		ldr	ip, [r3, ip, lsl #2]
 527 037c 87EA0C07 		eor	r7, r7, ip
 528 0380 C1F3074C 		ubfx	ip, r1, #16, #8
 529 0384 0CF5807C 		add	ip, ip, #256
 530 0388 C1F30721 		ubfx	r1, r1, #8, #8
 531 038c 12F82CC0 		ldrb	ip, [r2, ip, lsl #2]	@ zero_extendqisi2
 532 0390 01F58071 		add	r1, r1, #256
 533 0394 12F82110 		ldrb	r1, [r2, r1, lsl #2]	@ zero_extendqisi2
 534 0398 0CF5807C 		add	ip, ip, #256
 535 039c 53F82CC0 		ldr	ip, [r3, ip, lsl #2]
 536 03a0 01F50071 		add	r1, r1, #512
 537 03a4 53F82110 		ldr	r1, [r3, r1, lsl #2]
 538 03a8 87EA0C07 		eor	r7, r7, ip
 539 03ac 7940     		eors	r1, r1, r7
 540 03ae 6160     		str	r1, [r4, #4]
 541 03b0 A168     		ldr	r1, [r4, #8]
 542 03b2 0F0E     		lsrs	r7, r1, #24
 543 03b4 07F58077 		add	r7, r7, #256
 544 03b8 12F827E0 		ldrb	lr, [r2, r7, lsl #2]	@ zero_extendqisi2
 545 03bc CFB2     		uxtb	r7, r1
 546 03be 07F58077 		add	r7, r7, #256
 547 03c2 12F827C0 		ldrb	ip, [r2, r7, lsl #2]	@ zero_extendqisi2
 548 03c6 53F82E70 		ldr	r7, [r3, lr, lsl #2]
 549 03ca 0CF5407C 		add	ip, ip, #768
 550 03ce 53F82CC0 		ldr	ip, [r3, ip, lsl #2]
 551 03d2 87EA0C07 		eor	r7, r7, ip
 552 03d6 C1F3074C 		ubfx	ip, r1, #16, #8
 553 03da 0CF5807C 		add	ip, ip, #256
 554 03de C1F30721 		ubfx	r1, r1, #8, #8
 555 03e2 12F82CC0 		ldrb	ip, [r2, ip, lsl #2]	@ zero_extendqisi2
 556 03e6 01F58071 		add	r1, r1, #256
 557 03ea 12F82110 		ldrb	r1, [r2, r1, lsl #2]	@ zero_extendqisi2
 558 03ee 0CF5807C 		add	ip, ip, #256
 559 03f2 53F82CC0 		ldr	ip, [r3, ip, lsl #2]
 560 03f6 01F50071 		add	r1, r1, #512
 561 03fa 53F82110 		ldr	r1, [r3, r1, lsl #2]
 562 03fe 87EA0C07 		eor	r7, r7, ip
 563 0402 7940     		eors	r1, r1, r7
 564 0404 A160     		str	r1, [r4, #8]
 565 0406 E168     		ldr	r1, [r4, #12]
 566 0408 0F0E     		lsrs	r7, r1, #24
 567 040a 07F58077 		add	r7, r7, #256
 568 040e 12F827E0 		ldrb	lr, [r2, r7, lsl #2]	@ zero_extendqisi2
 569 0412 CFB2     		uxtb	r7, r1
 570 0414 07F58077 		add	r7, r7, #256
 571 0418 12F827C0 		ldrb	ip, [r2, r7, lsl #2]	@ zero_extendqisi2
 572 041c 53F82E70 		ldr	r7, [r3, lr, lsl #2]
 573 0420 0CF5407C 		add	ip, ip, #768
 574 0424 53F82CC0 		ldr	ip, [r3, ip, lsl #2]
 575 0428 87EA0C07 		eor	r7, r7, ip
 576 042c C1F3074C 		ubfx	ip, r1, #16, #8
 577 0430 0CF5807C 		add	ip, ip, #256
 578 0434 C1F30721 		ubfx	r1, r1, #8, #8
 579 0438 12F82CC0 		ldrb	ip, [r2, ip, lsl #2]	@ zero_extendqisi2
 580 043c 01F58071 		add	r1, r1, #256
 581 0440 12F82110 		ldrb	r1, [r2, r1, lsl #2]	@ zero_extendqisi2
ARM GAS  /tmp/ccVUwbrj.s 			page 11


 582 0444 0CF5807C 		add	ip, ip, #256
 583 0448 53F82CC0 		ldr	ip, [r3, ip, lsl #2]
 584 044c 01F50071 		add	r1, r1, #512
 585 0450 53F82110 		ldr	r1, [r3, r1, lsl #2]
 586 0454 87EA0C07 		eor	r7, r7, ip
 587 0458 7940     		eors	r1, r1, r7
 588 045a E160     		str	r1, [r4, #12]
 589 045c 1FE7     		b	.L53
 590              	.L59:
 591 045e 6FF0AC06 		mvn	r6, #172
 592 0462 20E7     		b	.L37
 594              		.section	.text.wc_AesCbcEncrypt,"ax",%progbits
 595              		.align	1
 596              		.global	wc_AesCbcEncrypt
 597              		.syntax unified
 598              		.thumb
 599              		.thumb_func
 600              		.fpu fpv4-sp-d16
 602              	wc_AesCbcEncrypt:
 603              		@ args = 0, pretend = 0, frame = 8
 604              		@ frame_needed = 0, uses_anonymous_args = 0
 605 0000 2DE9F74F 		push	{r0, r1, r2, r4, r5, r6, r7, r8, r9, r10, fp, lr}
 606 0004 8846     		mov	r8, r1
 607 0006 9346     		mov	fp, r2
 608 0008 0546     		mov	r5, r0
 609 000a 0028     		cmp	r0, #0
 610 000c 00F02F87 		beq	.L76
 611 0010 0029     		cmp	r1, #0
 612 0012 00F02C87 		beq	.L76
 613 0016 002A     		cmp	r2, #0
 614 0018 00F02987 		beq	.L76
 615 001c 1BB9     		cbnz	r3, .L68
 616              	.L73:
 617 001e 0020     		movs	r0, #0
 618              	.L66:
 619 0020 03B0     		add	sp, sp, #12
 620              		@ sp needed
 621 0022 BDE8F08F 		pop	{r4, r5, r6, r7, r8, r9, r10, fp, pc}
 622              	.L68:
 623 0026 23F00F03 		bic	r3, r3, #15
 624 002a CB18     		adds	r3, r1, r3
 625 002c 0193     		str	r3, [sp, #4]
 626 002e 024C     		ldr	r4, .L82
 627 0030 00F1F803 		add	r3, r0, #248
 628 0034 0093     		str	r3, [sp]
 629 0036 01E0     		b	.L83
 630              	.L84:
 631              		.align	2
 632              	.L82:
 633 0038 00000000 		.word	Te
 634              	.L83:
 635              	.L69:
 636 003c 019B     		ldr	r3, [sp, #4]
 637 003e 9845     		cmp	r8, r3
 638 0040 EDD0     		beq	.L73
 639 0042 5946     		mov	r1, fp
 640 0044 0098     		ldr	r0, [sp]
ARM GAS  /tmp/ccVUwbrj.s 			page 12


 641 0046 FFF7FEFF 		bl	xorbuf.constprop.0
 642 004a D5F8F070 		ldr	r7, [r5, #240]
 643 004e 7F08     		lsrs	r7, r7, #1
 644 0050 7B1E     		subs	r3, r7, #1
 645 0052 062B     		cmp	r3, #6
 646 0054 00F20F87 		bhi	.L77
 647 0058 D5F8F800 		ldr	r0, [r5, #248]	@ unaligned
 648 005c FFF7FEFF 		bl	ByteReverseWord32
 649 0060 0146     		mov	r1, r0
 650 0062 D5F8FC00 		ldr	r0, [r5, #252]	@ unaligned
 651 0066 FFF7FEFF 		bl	ByteReverseWord32
 652 006a 0246     		mov	r2, r0
 653 006c D5F80001 		ldr	r0, [r5, #256]	@ unaligned
 654 0070 FFF7FEFF 		bl	ByteReverseWord32
 655 0074 8146     		mov	r9, r0
 656 0076 D5F80401 		ldr	r0, [r5, #260]	@ unaligned
 657 007a FFF7FEFF 		bl	ByteReverseWord32
 658 007e 2B68     		ldr	r3, [r5]
 659 0080 052F     		cmp	r7, #5
 660 0082 81EA030E 		eor	lr, r1, r3
 661 0086 6B68     		ldr	r3, [r5, #4]
 662 0088 82EA030C 		eor	ip, r2, r3
 663 008c AB68     		ldr	r3, [r5, #8]
 664 008e 4FEA1E62 		lsr	r2, lr, #24
 665 0092 89EA0309 		eor	r9, r9, r3
 666 0096 EB68     		ldr	r3, [r5, #12]
 667 0098 54F82210 		ldr	r1, [r4, r2, lsl #2]
 668 009c 80EA0300 		eor	r0, r0, r3
 669 00a0 C3B2     		uxtb	r3, r0
 670 00a2 03F54073 		add	r3, r3, #768
 671 00a6 54F82330 		ldr	r3, [r4, r3, lsl #2]
 672 00aa 4FEA1C62 		lsr	r2, ip, #24
 673 00ae 81EA0301 		eor	r1, r1, r3
 674 00b2 2B69     		ldr	r3, [r5, #16]
 675 00b4 54F82220 		ldr	r2, [r4, r2, lsl #2]
 676 00b8 81EA0301 		eor	r1, r1, r3
 677 00bc CCF30743 		ubfx	r3, ip, #16, #8
 678 00c0 03F58073 		add	r3, r3, #256
 679 00c4 54F82330 		ldr	r3, [r4, r3, lsl #2]
 680 00c8 5FFA8CF6 		uxtb	r6, ip
 681 00cc 81EA0301 		eor	r1, r1, r3
 682 00d0 C9F30723 		ubfx	r3, r9, #8, #8
 683 00d4 03F50073 		add	r3, r3, #512
 684 00d8 54F82330 		ldr	r3, [r4, r3, lsl #2]
 685 00dc 06F54076 		add	r6, r6, #768
 686 00e0 81EA0301 		eor	r1, r1, r3
 687 00e4 5FFA8EF3 		uxtb	r3, lr
 688 00e8 03F54073 		add	r3, r3, #768
 689 00ec 54F82330 		ldr	r3, [r4, r3, lsl #2]
 690 00f0 54F82660 		ldr	r6, [r4, r6, lsl #2]
 691 00f4 82EA0302 		eor	r2, r2, r3
 692 00f8 6B69     		ldr	r3, [r5, #20]
 693 00fa CCF3072C 		ubfx	ip, ip, #8, #8
 694 00fe 82EA0302 		eor	r2, r2, r3
 695 0102 C9F30743 		ubfx	r3, r9, #16, #8
 696 0106 03F58073 		add	r3, r3, #256
 697 010a 54F82330 		ldr	r3, [r4, r3, lsl #2]
ARM GAS  /tmp/ccVUwbrj.s 			page 13


 698 010e 0CF5007C 		add	ip, ip, #512
 699 0112 82EA0302 		eor	r2, r2, r3
 700 0116 C0F30723 		ubfx	r3, r0, #8, #8
 701 011a 03F50073 		add	r3, r3, #512
 702 011e 54F82330 		ldr	r3, [r4, r3, lsl #2]
 703 0122 82EA0302 		eor	r2, r2, r3
 704 0126 4FEA1963 		lsr	r3, r9, #24
 705 012a 54F82330 		ldr	r3, [r4, r3, lsl #2]
 706 012e 5FFA89F9 		uxtb	r9, r9
 707 0132 86EA0306 		eor	r6, r6, r3
 708 0136 AB69     		ldr	r3, [r5, #24]
 709 0138 09F54079 		add	r9, r9, #768
 710 013c 86EA0306 		eor	r6, r6, r3
 711 0140 C0F30743 		ubfx	r3, r0, #16, #8
 712 0144 03F58073 		add	r3, r3, #256
 713 0148 54F82330 		ldr	r3, [r4, r3, lsl #2]
 714 014c 4FEA1060 		lsr	r0, r0, #24
 715 0150 86EA0306 		eor	r6, r6, r3
 716 0154 CEF30723 		ubfx	r3, lr, #8, #8
 717 0158 03F50073 		add	r3, r3, #512
 718 015c 54F82330 		ldr	r3, [r4, r3, lsl #2]
 719 0160 CEF3074E 		ubfx	lr, lr, #16, #8
 720 0164 86EA0306 		eor	r6, r6, r3
 721 0168 54F82030 		ldr	r3, [r4, r0, lsl #2]
 722 016c 54F82900 		ldr	r0, [r4, r9, lsl #2]
 723 0170 0EF5807E 		add	lr, lr, #256
 724 0174 83EA0009 		eor	r9, r3, r0
 725 0178 EB69     		ldr	r3, [r5, #28]
 726 017a 54F82E00 		ldr	r0, [r4, lr, lsl #2]
 727 017e 89EA0303 		eor	r3, r9, r3
 728 0182 83EA0003 		eor	r3, r3, r0
 729 0186 54F82C00 		ldr	r0, [r4, ip, lsl #2]
 730 018a 4FEA166E 		lsr	lr, r6, #24
 731 018e 83EA0009 		eor	r9, r3, r0
 732 0192 5FFA89F3 		uxtb	r3, r9
 733 0196 4FEA1160 		lsr	r0, r1, #24
 734 019a 03F54073 		add	r3, r3, #768
 735 019e 54F82000 		ldr	r0, [r4, r0, lsl #2]
 736 01a2 54F82330 		ldr	r3, [r4, r3, lsl #2]
 737 01a6 54F82EE0 		ldr	lr, [r4, lr, lsl #2]
 738 01aa 80EA030C 		eor	ip, r0, r3
 739 01ae 286A     		ldr	r0, [r5, #32]
 740 01b0 C2F30743 		ubfx	r3, r2, #16, #8
 741 01b4 03F58073 		add	r3, r3, #256
 742 01b8 8CEA000C 		eor	ip, ip, r0
 743 01bc 54F82300 		ldr	r0, [r4, r3, lsl #2]
 744 01c0 C6F30723 		ubfx	r3, r6, #8, #8
 745 01c4 03F50073 		add	r3, r3, #512
 746 01c8 54F82330 		ldr	r3, [r4, r3, lsl #2]
 747 01cc 8CEA000C 		eor	ip, ip, r0
 748 01d0 8CEA030C 		eor	ip, ip, r3
 749 01d4 CBB2     		uxtb	r3, r1
 750 01d6 4FEA1260 		lsr	r0, r2, #24
 751 01da 03F54073 		add	r3, r3, #768
 752 01de 54F82330 		ldr	r3, [r4, r3, lsl #2]
 753 01e2 54F82000 		ldr	r0, [r4, r0, lsl #2]
 754 01e6 80EA0300 		eor	r0, r0, r3
ARM GAS  /tmp/ccVUwbrj.s 			page 14


 755 01ea 6B6A     		ldr	r3, [r5, #36]
 756 01ec 80EA0300 		eor	r0, r0, r3
 757 01f0 C6F30743 		ubfx	r3, r6, #16, #8
 758 01f4 03F58073 		add	r3, r3, #256
 759 01f8 54F82330 		ldr	r3, [r4, r3, lsl #2]
 760 01fc F6B2     		uxtb	r6, r6
 761 01fe 80EA0300 		eor	r0, r0, r3
 762 0202 C9F30723 		ubfx	r3, r9, #8, #8
 763 0206 03F50073 		add	r3, r3, #512
 764 020a 54F82330 		ldr	r3, [r4, r3, lsl #2]
 765 020e 06F54076 		add	r6, r6, #768
 766 0212 80EA0300 		eor	r0, r0, r3
 767 0216 D3B2     		uxtb	r3, r2
 768 0218 03F54073 		add	r3, r3, #768
 769 021c 54F82330 		ldr	r3, [r4, r3, lsl #2]
 770 0220 54F82660 		ldr	r6, [r4, r6, lsl #2]
 771 0224 8EEA030E 		eor	lr, lr, r3
 772 0228 AB6A     		ldr	r3, [r5, #40]
 773 022a C2F30722 		ubfx	r2, r2, #8, #8
 774 022e 8EEA030E 		eor	lr, lr, r3
 775 0232 C9F30743 		ubfx	r3, r9, #16, #8
 776 0236 03F58073 		add	r3, r3, #256
 777 023a 54F82330 		ldr	r3, [r4, r3, lsl #2]
 778 023e 4FEA1969 		lsr	r9, r9, #24
 779 0242 8EEA030E 		eor	lr, lr, r3
 780 0246 C1F30723 		ubfx	r3, r1, #8, #8
 781 024a 03F50073 		add	r3, r3, #512
 782 024e 54F82330 		ldr	r3, [r4, r3, lsl #2]
 783 0252 C1F30741 		ubfx	r1, r1, #16, #8
 784 0256 8EEA030E 		eor	lr, lr, r3
 785 025a 54F82930 		ldr	r3, [r4, r9, lsl #2]
 786 025e 01F58071 		add	r1, r1, #256
 787 0262 83EA0609 		eor	r9, r3, r6
 788 0266 EB6A     		ldr	r3, [r5, #44]
 789 0268 54F82110 		ldr	r1, [r4, r1, lsl #2]
 790 026c 02F50072 		add	r2, r2, #512
 791 0270 54F82220 		ldr	r2, [r4, r2, lsl #2]
 792 0274 89EA0303 		eor	r3, r9, r3
 793 0278 83EA0103 		eor	r3, r3, r1
 794 027c 83EA0209 		eor	r9, r3, r2
 795 0280 5FFA89F3 		uxtb	r3, r9
 796 0284 4FEA1C62 		lsr	r2, ip, #24
 797 0288 03F54073 		add	r3, r3, #768
 798 028c 54F82210 		ldr	r1, [r4, r2, lsl #2]
 799 0290 54F82320 		ldr	r2, [r4, r3, lsl #2]
 800 0294 C0F30743 		ubfx	r3, r0, #16, #8
 801 0298 81EA0201 		eor	r1, r1, r2
 802 029c 2A6B     		ldr	r2, [r5, #48]
 803 029e 03F58073 		add	r3, r3, #256
 804 02a2 81EA0201 		eor	r1, r1, r2
 805 02a6 54F82320 		ldr	r2, [r4, r3, lsl #2]
 806 02aa CEF30723 		ubfx	r3, lr, #8, #8
 807 02ae 03F50073 		add	r3, r3, #512
 808 02b2 54F82330 		ldr	r3, [r4, r3, lsl #2]
 809 02b6 81EA0201 		eor	r1, r1, r2
 810 02ba 81EA0301 		eor	r1, r1, r3
 811 02be 5FFA8CF3 		uxtb	r3, ip
ARM GAS  /tmp/ccVUwbrj.s 			page 15


 812 02c2 4FEA1062 		lsr	r2, r0, #24
 813 02c6 03F54073 		add	r3, r3, #768
 814 02ca 54F82330 		ldr	r3, [r4, r3, lsl #2]
 815 02ce 54F82220 		ldr	r2, [r4, r2, lsl #2]
 816 02d2 C6B2     		uxtb	r6, r0
 817 02d4 82EA0302 		eor	r2, r2, r3
 818 02d8 6B6B     		ldr	r3, [r5, #52]
 819 02da 06F54076 		add	r6, r6, #768
 820 02de 82EA0302 		eor	r2, r2, r3
 821 02e2 CEF30743 		ubfx	r3, lr, #16, #8
 822 02e6 03F58073 		add	r3, r3, #256
 823 02ea 54F82330 		ldr	r3, [r4, r3, lsl #2]
 824 02ee 54F82660 		ldr	r6, [r4, r6, lsl #2]
 825 02f2 82EA0302 		eor	r2, r2, r3
 826 02f6 C9F30723 		ubfx	r3, r9, #8, #8
 827 02fa 03F50073 		add	r3, r3, #512
 828 02fe 54F82330 		ldr	r3, [r4, r3, lsl #2]
 829 0302 C0F30720 		ubfx	r0, r0, #8, #8
 830 0306 82EA0302 		eor	r2, r2, r3
 831 030a 4FEA1E63 		lsr	r3, lr, #24
 832 030e 54F82330 		ldr	r3, [r4, r3, lsl #2]
 833 0312 5FFA8EFE 		uxtb	lr, lr
 834 0316 86EA0306 		eor	r6, r6, r3
 835 031a AB6B     		ldr	r3, [r5, #56]
 836 031c 0EF5407E 		add	lr, lr, #768
 837 0320 86EA0306 		eor	r6, r6, r3
 838 0324 C9F30743 		ubfx	r3, r9, #16, #8
 839 0328 03F58073 		add	r3, r3, #256
 840 032c 54F82330 		ldr	r3, [r4, r3, lsl #2]
 841 0330 4FEA1969 		lsr	r9, r9, #24
 842 0334 86EA0306 		eor	r6, r6, r3
 843 0338 CCF30723 		ubfx	r3, ip, #8, #8
 844 033c 03F50073 		add	r3, r3, #512
 845 0340 54F82330 		ldr	r3, [r4, r3, lsl #2]
 846 0344 CCF3074C 		ubfx	ip, ip, #16, #8
 847 0348 86EA0306 		eor	r6, r6, r3
 848 034c 54F82930 		ldr	r3, [r4, r9, lsl #2]
 849 0350 54F82E90 		ldr	r9, [r4, lr, lsl #2]
 850 0354 0CF5807C 		add	ip, ip, #256
 851 0358 83EA0909 		eor	r9, r3, r9
 852 035c EB6B     		ldr	r3, [r5, #60]
 853 035e 00F50070 		add	r0, r0, #512
 854 0362 89EA0303 		eor	r3, r9, r3
 855 0366 54F82C90 		ldr	r9, [r4, ip, lsl #2]
 856 036a 54F82000 		ldr	r0, [r4, r0, lsl #2]
 857 036e 83EA0903 		eor	r3, r3, r9
 858 0372 83EA0009 		eor	r9, r3, r0
 859 0376 5FFA89F3 		uxtb	r3, r9
 860 037a 4FEA1160 		lsr	r0, r1, #24
 861 037e 03F54073 		add	r3, r3, #768
 862 0382 54F82000 		ldr	r0, [r4, r0, lsl #2]
 863 0386 54F82330 		ldr	r3, [r4, r3, lsl #2]
 864 038a 4FEA166E 		lsr	lr, r6, #24
 865 038e 80EA030C 		eor	ip, r0, r3
 866 0392 286C     		ldr	r0, [r5, #64]
 867 0394 C2F30743 		ubfx	r3, r2, #16, #8
 868 0398 03F58073 		add	r3, r3, #256
ARM GAS  /tmp/ccVUwbrj.s 			page 16


 869 039c 8CEA000C 		eor	ip, ip, r0
 870 03a0 54F82300 		ldr	r0, [r4, r3, lsl #2]
 871 03a4 C6F30723 		ubfx	r3, r6, #8, #8
 872 03a8 03F50073 		add	r3, r3, #512
 873 03ac 54F82330 		ldr	r3, [r4, r3, lsl #2]
 874 03b0 8CEA000C 		eor	ip, ip, r0
 875 03b4 8CEA030C 		eor	ip, ip, r3
 876 03b8 CBB2     		uxtb	r3, r1
 877 03ba 4FEA1260 		lsr	r0, r2, #24
 878 03be 03F54073 		add	r3, r3, #768
 879 03c2 54F82330 		ldr	r3, [r4, r3, lsl #2]
 880 03c6 54F82000 		ldr	r0, [r4, r0, lsl #2]
 881 03ca 54F82EE0 		ldr	lr, [r4, lr, lsl #2]
 882 03ce 80EA0300 		eor	r0, r0, r3
 883 03d2 6B6C     		ldr	r3, [r5, #68]
 884 03d4 80EA0300 		eor	r0, r0, r3
 885 03d8 C6F30743 		ubfx	r3, r6, #16, #8
 886 03dc 03F58073 		add	r3, r3, #256
 887 03e0 54F82330 		ldr	r3, [r4, r3, lsl #2]
 888 03e4 F6B2     		uxtb	r6, r6
 889 03e6 80EA0300 		eor	r0, r0, r3
 890 03ea C9F30723 		ubfx	r3, r9, #8, #8
 891 03ee 03F50073 		add	r3, r3, #512
 892 03f2 54F82330 		ldr	r3, [r4, r3, lsl #2]
 893 03f6 06F54076 		add	r6, r6, #768
 894 03fa 80EA0300 		eor	r0, r0, r3
 895 03fe D3B2     		uxtb	r3, r2
 896 0400 03F54073 		add	r3, r3, #768
 897 0404 54F82330 		ldr	r3, [r4, r3, lsl #2]
 898 0408 54F82660 		ldr	r6, [r4, r6, lsl #2]
 899 040c 8EEA030E 		eor	lr, lr, r3
 900 0410 AB6C     		ldr	r3, [r5, #72]
 901 0412 C2F30722 		ubfx	r2, r2, #8, #8
 902 0416 8EEA030E 		eor	lr, lr, r3
 903 041a C9F30743 		ubfx	r3, r9, #16, #8
 904 041e 03F58073 		add	r3, r3, #256
 905 0422 54F82330 		ldr	r3, [r4, r3, lsl #2]
 906 0426 4FEA1969 		lsr	r9, r9, #24
 907 042a 8EEA030E 		eor	lr, lr, r3
 908 042e C1F30723 		ubfx	r3, r1, #8, #8
 909 0432 03F50073 		add	r3, r3, #512
 910 0436 54F82330 		ldr	r3, [r4, r3, lsl #2]
 911 043a C1F30741 		ubfx	r1, r1, #16, #8
 912 043e 8EEA030E 		eor	lr, lr, r3
 913 0442 54F82930 		ldr	r3, [r4, r9, lsl #2]
 914 0446 01F58071 		add	r1, r1, #256
 915 044a 83EA0609 		eor	r9, r3, r6
 916 044e EB6C     		ldr	r3, [r5, #76]
 917 0450 54F82110 		ldr	r1, [r4, r1, lsl #2]
 918 0454 02F50072 		add	r2, r2, #512
 919 0458 54F82220 		ldr	r2, [r4, r2, lsl #2]
 920 045c 89EA0303 		eor	r3, r9, r3
 921 0460 83EA0103 		eor	r3, r3, r1
 922 0464 83EA0209 		eor	r9, r3, r2
 923 0468 5FFA89F3 		uxtb	r3, r9
 924 046c 4FEA1C62 		lsr	r2, ip, #24
 925 0470 03F54073 		add	r3, r3, #768
ARM GAS  /tmp/ccVUwbrj.s 			page 17


 926 0474 54F82210 		ldr	r1, [r4, r2, lsl #2]
 927 0478 54F82320 		ldr	r2, [r4, r3, lsl #2]
 928 047c C0F30743 		ubfx	r3, r0, #16, #8
 929 0480 81EA0201 		eor	r1, r1, r2
 930 0484 2A6D     		ldr	r2, [r5, #80]
 931 0486 03F58073 		add	r3, r3, #256
 932 048a 81EA0201 		eor	r1, r1, r2
 933 048e 54F82320 		ldr	r2, [r4, r3, lsl #2]
 934 0492 CEF30723 		ubfx	r3, lr, #8, #8
 935 0496 03F50073 		add	r3, r3, #512
 936 049a 54F82330 		ldr	r3, [r4, r3, lsl #2]
 937 049e 81EA0201 		eor	r1, r1, r2
 938 04a2 81EA0301 		eor	r1, r1, r3
 939 04a6 5FFA8CF3 		uxtb	r3, ip
 940 04aa 4FEA1062 		lsr	r2, r0, #24
 941 04ae 03F54073 		add	r3, r3, #768
 942 04b2 54F82330 		ldr	r3, [r4, r3, lsl #2]
 943 04b6 54F82220 		ldr	r2, [r4, r2, lsl #2]
 944 04ba C6B2     		uxtb	r6, r0
 945 04bc 82EA0302 		eor	r2, r2, r3
 946 04c0 6B6D     		ldr	r3, [r5, #84]
 947 04c2 06F54076 		add	r6, r6, #768
 948 04c6 82EA0302 		eor	r2, r2, r3
 949 04ca CEF30743 		ubfx	r3, lr, #16, #8
 950 04ce 03F58073 		add	r3, r3, #256
 951 04d2 54F82330 		ldr	r3, [r4, r3, lsl #2]
 952 04d6 54F82660 		ldr	r6, [r4, r6, lsl #2]
 953 04da 82EA0302 		eor	r2, r2, r3
 954 04de C9F30723 		ubfx	r3, r9, #8, #8
 955 04e2 03F50073 		add	r3, r3, #512
 956 04e6 54F82330 		ldr	r3, [r4, r3, lsl #2]
 957 04ea C0F30720 		ubfx	r0, r0, #8, #8
 958 04ee 82EA0302 		eor	r2, r2, r3
 959 04f2 4FEA1E63 		lsr	r3, lr, #24
 960 04f6 54F82330 		ldr	r3, [r4, r3, lsl #2]
 961 04fa 5FFA8EFE 		uxtb	lr, lr
 962 04fe 86EA0306 		eor	r6, r6, r3
 963 0502 AB6D     		ldr	r3, [r5, #88]
 964 0504 0EF5407E 		add	lr, lr, #768
 965 0508 86EA0306 		eor	r6, r6, r3
 966 050c C9F30743 		ubfx	r3, r9, #16, #8
 967 0510 03F58073 		add	r3, r3, #256
 968 0514 54F82330 		ldr	r3, [r4, r3, lsl #2]
 969 0518 4FEA1969 		lsr	r9, r9, #24
 970 051c 86EA0306 		eor	r6, r6, r3
 971 0520 CCF30723 		ubfx	r3, ip, #8, #8
 972 0524 03F50073 		add	r3, r3, #512
 973 0528 54F82330 		ldr	r3, [r4, r3, lsl #2]
 974 052c CCF3074C 		ubfx	ip, ip, #16, #8
 975 0530 86EA0306 		eor	r6, r6, r3
 976 0534 54F82930 		ldr	r3, [r4, r9, lsl #2]
 977 0538 54F82E90 		ldr	r9, [r4, lr, lsl #2]
 978 053c 0CF5807C 		add	ip, ip, #256
 979 0540 83EA0909 		eor	r9, r3, r9
 980 0544 EB6D     		ldr	r3, [r5, #92]
 981 0546 00F50070 		add	r0, r0, #512
 982 054a 89EA0303 		eor	r3, r9, r3
ARM GAS  /tmp/ccVUwbrj.s 			page 18


 983 054e 54F82C90 		ldr	r9, [r4, ip, lsl #2]
 984 0552 54F82000 		ldr	r0, [r4, r0, lsl #2]
 985 0556 83EA0903 		eor	r3, r3, r9
 986 055a 83EA0009 		eor	r9, r3, r0
 987 055e 5FFA89F3 		uxtb	r3, r9
 988 0562 4FEA1160 		lsr	r0, r1, #24
 989 0566 03F54073 		add	r3, r3, #768
 990 056a 54F82000 		ldr	r0, [r4, r0, lsl #2]
 991 056e 54F82330 		ldr	r3, [r4, r3, lsl #2]
 992 0572 4FEA166E 		lsr	lr, r6, #24
 993 0576 80EA030C 		eor	ip, r0, r3
 994 057a 286E     		ldr	r0, [r5, #96]
 995 057c C2F30743 		ubfx	r3, r2, #16, #8
 996 0580 03F58073 		add	r3, r3, #256
 997 0584 8CEA000C 		eor	ip, ip, r0
 998 0588 54F82300 		ldr	r0, [r4, r3, lsl #2]
 999 058c C6F30723 		ubfx	r3, r6, #8, #8
 1000 0590 03F50073 		add	r3, r3, #512
 1001 0594 54F82330 		ldr	r3, [r4, r3, lsl #2]
 1002 0598 8CEA000C 		eor	ip, ip, r0
 1003 059c 8CEA030C 		eor	ip, ip, r3
 1004 05a0 CBB2     		uxtb	r3, r1
 1005 05a2 4FEA1260 		lsr	r0, r2, #24
 1006 05a6 03F54073 		add	r3, r3, #768
 1007 05aa 54F82330 		ldr	r3, [r4, r3, lsl #2]
 1008 05ae 54F82000 		ldr	r0, [r4, r0, lsl #2]
 1009 05b2 54F82EE0 		ldr	lr, [r4, lr, lsl #2]
 1010 05b6 80EA0300 		eor	r0, r0, r3
 1011 05ba 6B6E     		ldr	r3, [r5, #100]
 1012 05bc 80EA0300 		eor	r0, r0, r3
 1013 05c0 C6F30743 		ubfx	r3, r6, #16, #8
 1014 05c4 03F58073 		add	r3, r3, #256
 1015 05c8 54F82330 		ldr	r3, [r4, r3, lsl #2]
 1016 05cc F6B2     		uxtb	r6, r6
 1017 05ce 80EA0300 		eor	r0, r0, r3
 1018 05d2 C9F30723 		ubfx	r3, r9, #8, #8
 1019 05d6 03F50073 		add	r3, r3, #512
 1020 05da 54F82330 		ldr	r3, [r4, r3, lsl #2]
 1021 05de 06F54076 		add	r6, r6, #768
 1022 05e2 80EA0300 		eor	r0, r0, r3
 1023 05e6 D3B2     		uxtb	r3, r2
 1024 05e8 03F54073 		add	r3, r3, #768
 1025 05ec 54F82330 		ldr	r3, [r4, r3, lsl #2]
 1026 05f0 C2F30722 		ubfx	r2, r2, #8, #8
 1027 05f4 8EEA030E 		eor	lr, lr, r3
 1028 05f8 AB6E     		ldr	r3, [r5, #104]
 1029 05fa 02F50072 		add	r2, r2, #512
 1030 05fe 8EEA030E 		eor	lr, lr, r3
 1031 0602 C9F30743 		ubfx	r3, r9, #16, #8
 1032 0606 03F58073 		add	r3, r3, #256
 1033 060a 54F82330 		ldr	r3, [r4, r3, lsl #2]
 1034 060e 4FEA1969 		lsr	r9, r9, #24
 1035 0612 8EEA030E 		eor	lr, lr, r3
 1036 0616 C1F30723 		ubfx	r3, r1, #8, #8
 1037 061a 03F50073 		add	r3, r3, #512
 1038 061e 54F82330 		ldr	r3, [r4, r3, lsl #2]
 1039 0622 C1F30741 		ubfx	r1, r1, #16, #8
ARM GAS  /tmp/ccVUwbrj.s 			page 19


 1040 0626 8EEA030E 		eor	lr, lr, r3
 1041 062a 54F82930 		ldr	r3, [r4, r9, lsl #2]
 1042 062e 54F82660 		ldr	r6, [r4, r6, lsl #2]
 1043 0632 01F58071 		add	r1, r1, #256
 1044 0636 83EA0609 		eor	r9, r3, r6
 1045 063a EB6E     		ldr	r3, [r5, #108]
 1046 063c 54F82110 		ldr	r1, [r4, r1, lsl #2]
 1047 0640 54F82220 		ldr	r2, [r4, r2, lsl #2]
 1048 0644 89EA0303 		eor	r3, r9, r3
 1049 0648 83EA0103 		eor	r3, r3, r1
 1050 064c 83EA0209 		eor	r9, r3, r2
 1051 0650 5FFA89F3 		uxtb	r3, r9
 1052 0654 4FEA1C62 		lsr	r2, ip, #24
 1053 0658 03F54073 		add	r3, r3, #768
 1054 065c 54F82210 		ldr	r1, [r4, r2, lsl #2]
 1055 0660 54F82320 		ldr	r2, [r4, r3, lsl #2]
 1056 0664 C0F30743 		ubfx	r3, r0, #16, #8
 1057 0668 81EA0201 		eor	r1, r1, r2
 1058 066c 2A6F     		ldr	r2, [r5, #112]
 1059 066e 03F58073 		add	r3, r3, #256
 1060 0672 81EA0201 		eor	r1, r1, r2
 1061 0676 54F82320 		ldr	r2, [r4, r3, lsl #2]
 1062 067a CEF30723 		ubfx	r3, lr, #8, #8
 1063 067e 03F50073 		add	r3, r3, #512
 1064 0682 54F82330 		ldr	r3, [r4, r3, lsl #2]
 1065 0686 81EA0201 		eor	r1, r1, r2
 1066 068a 81EA0301 		eor	r1, r1, r3
 1067 068e 5FFA8CF3 		uxtb	r3, ip
 1068 0692 4FEA1062 		lsr	r2, r0, #24
 1069 0696 03F54073 		add	r3, r3, #768
 1070 069a 54F82330 		ldr	r3, [r4, r3, lsl #2]
 1071 069e 54F82220 		ldr	r2, [r4, r2, lsl #2]
 1072 06a2 C6B2     		uxtb	r6, r0
 1073 06a4 82EA0302 		eor	r2, r2, r3
 1074 06a8 6B6F     		ldr	r3, [r5, #116]
 1075 06aa 06F54076 		add	r6, r6, #768
 1076 06ae 82EA0302 		eor	r2, r2, r3
 1077 06b2 CEF30743 		ubfx	r3, lr, #16, #8
 1078 06b6 03F58073 		add	r3, r3, #256
 1079 06ba 54F82330 		ldr	r3, [r4, r3, lsl #2]
 1080 06be 54F82660 		ldr	r6, [r4, r6, lsl #2]
 1081 06c2 82EA0302 		eor	r2, r2, r3
 1082 06c6 C9F30723 		ubfx	r3, r9, #8, #8
 1083 06ca 03F50073 		add	r3, r3, #512
 1084 06ce 54F82330 		ldr	r3, [r4, r3, lsl #2]
 1085 06d2 C0F30720 		ubfx	r0, r0, #8, #8
 1086 06d6 82EA0302 		eor	r2, r2, r3
 1087 06da 4FEA1E63 		lsr	r3, lr, #24
 1088 06de 54F82330 		ldr	r3, [r4, r3, lsl #2]
 1089 06e2 5FFA8EFE 		uxtb	lr, lr
 1090 06e6 86EA0306 		eor	r6, r6, r3
 1091 06ea AB6F     		ldr	r3, [r5, #120]
 1092 06ec 0EF5407E 		add	lr, lr, #768
 1093 06f0 86EA0306 		eor	r6, r6, r3
 1094 06f4 C9F30743 		ubfx	r3, r9, #16, #8
 1095 06f8 03F58073 		add	r3, r3, #256
 1096 06fc 54F82330 		ldr	r3, [r4, r3, lsl #2]
ARM GAS  /tmp/ccVUwbrj.s 			page 20


 1097 0700 4FEA1969 		lsr	r9, r9, #24
 1098 0704 86EA0306 		eor	r6, r6, r3
 1099 0708 CCF30723 		ubfx	r3, ip, #8, #8
 1100 070c 03F50073 		add	r3, r3, #512
 1101 0710 54F82330 		ldr	r3, [r4, r3, lsl #2]
 1102 0714 CCF3074C 		ubfx	ip, ip, #16, #8
 1103 0718 86EA0306 		eor	r6, r6, r3
 1104 071c 54F82930 		ldr	r3, [r4, r9, lsl #2]
 1105 0720 54F82E90 		ldr	r9, [r4, lr, lsl #2]
 1106 0724 0CF5807C 		add	ip, ip, #256
 1107 0728 83EA0909 		eor	r9, r3, r9
 1108 072c EB6F     		ldr	r3, [r5, #124]
 1109 072e 00F50070 		add	r0, r0, #512
 1110 0732 89EA0303 		eor	r3, r9, r3
 1111 0736 54F82C90 		ldr	r9, [r4, ip, lsl #2]
 1112 073a 54F82000 		ldr	r0, [r4, r0, lsl #2]
 1113 073e 83EA0903 		eor	r3, r3, r9
 1114 0742 83EA0009 		eor	r9, r3, r0
 1115 0746 5FFA89F3 		uxtb	r3, r9
 1116 074a 4FEA1160 		lsr	r0, r1, #24
 1117 074e 03F54073 		add	r3, r3, #768
 1118 0752 54F82000 		ldr	r0, [r4, r0, lsl #2]
 1119 0756 54F82330 		ldr	r3, [r4, r3, lsl #2]
 1120 075a 4FEA166C 		lsr	ip, r6, #24
 1121 075e 80EA030E 		eor	lr, r0, r3
 1122 0762 D5F88000 		ldr	r0, [r5, #128]
 1123 0766 C2F30743 		ubfx	r3, r2, #16, #8
 1124 076a 03F58073 		add	r3, r3, #256
 1125 076e 8EEA000E 		eor	lr, lr, r0
 1126 0772 54F82300 		ldr	r0, [r4, r3, lsl #2]
 1127 0776 C6F30723 		ubfx	r3, r6, #8, #8
 1128 077a 03F50073 		add	r3, r3, #512
 1129 077e 54F82330 		ldr	r3, [r4, r3, lsl #2]
 1130 0782 8EEA000E 		eor	lr, lr, r0
 1131 0786 8EEA030E 		eor	lr, lr, r3
 1132 078a CBB2     		uxtb	r3, r1
 1133 078c 4FEA1260 		lsr	r0, r2, #24
 1134 0790 03F54073 		add	r3, r3, #768
 1135 0794 54F82330 		ldr	r3, [r4, r3, lsl #2]
 1136 0798 54F82000 		ldr	r0, [r4, r0, lsl #2]
 1137 079c 80EA0300 		eor	r0, r0, r3
 1138 07a0 D5F88430 		ldr	r3, [r5, #132]
 1139 07a4 80EA0300 		eor	r0, r0, r3
 1140 07a8 C6F30743 		ubfx	r3, r6, #16, #8
 1141 07ac 03F58073 		add	r3, r3, #256
 1142 07b0 54F82330 		ldr	r3, [r4, r3, lsl #2]
 1143 07b4 54F82CC0 		ldr	ip, [r4, ip, lsl #2]
 1144 07b8 80EA0300 		eor	r0, r0, r3
 1145 07bc C9F30723 		ubfx	r3, r9, #8, #8
 1146 07c0 03F50073 		add	r3, r3, #512
 1147 07c4 54F82330 		ldr	r3, [r4, r3, lsl #2]
 1148 07c8 F6B2     		uxtb	r6, r6
 1149 07ca 80EA0300 		eor	r0, r0, r3
 1150 07ce D3B2     		uxtb	r3, r2
 1151 07d0 03F54073 		add	r3, r3, #768
 1152 07d4 54F82330 		ldr	r3, [r4, r3, lsl #2]
 1153 07d8 06F54076 		add	r6, r6, #768
ARM GAS  /tmp/ccVUwbrj.s 			page 21


 1154 07dc 8CEA030C 		eor	ip, ip, r3
 1155 07e0 D5F88830 		ldr	r3, [r5, #136]
 1156 07e4 54F82660 		ldr	r6, [r4, r6, lsl #2]
 1157 07e8 8CEA030C 		eor	ip, ip, r3
 1158 07ec C9F30743 		ubfx	r3, r9, #16, #8
 1159 07f0 03F58073 		add	r3, r3, #256
 1160 07f4 54F82330 		ldr	r3, [r4, r3, lsl #2]
 1161 07f8 4FEA1969 		lsr	r9, r9, #24
 1162 07fc 8CEA030C 		eor	ip, ip, r3
 1163 0800 C1F30723 		ubfx	r3, r1, #8, #8
 1164 0804 03F50073 		add	r3, r3, #512
 1165 0808 54F82330 		ldr	r3, [r4, r3, lsl #2]
 1166 080c C1F30741 		ubfx	r1, r1, #16, #8
 1167 0810 8CEA030C 		eor	ip, ip, r3
 1168 0814 54F82930 		ldr	r3, [r4, r9, lsl #2]
 1169 0818 01F58071 		add	r1, r1, #256
 1170 081c 83EA0609 		eor	r9, r3, r6
 1171 0820 C2F30722 		ubfx	r2, r2, #8, #8
 1172 0824 D5F88C30 		ldr	r3, [r5, #140]
 1173 0828 54F82110 		ldr	r1, [r4, r1, lsl #2]
 1174 082c 02F50072 		add	r2, r2, #512
 1175 0830 54F82220 		ldr	r2, [r4, r2, lsl #2]
 1176 0834 89EA0303 		eor	r3, r9, r3
 1177 0838 83EA0103 		eor	r3, r3, r1
 1178 083c 83EA0209 		eor	r9, r3, r2
 1179 0840 5FFA89F2 		uxtb	r2, r9
 1180 0844 4FEA1E63 		lsr	r3, lr, #24
 1181 0848 02F54072 		add	r2, r2, #768
 1182 084c 54F82220 		ldr	r2, [r4, r2, lsl #2]
 1183 0850 54F82330 		ldr	r3, [r4, r3, lsl #2]
 1184 0854 C0F30741 		ubfx	r1, r0, #16, #8
 1185 0858 83EA0203 		eor	r3, r3, r2
 1186 085c D5F89020 		ldr	r2, [r5, #144]
 1187 0860 01F58071 		add	r1, r1, #256
 1188 0864 83EA0203 		eor	r3, r3, r2
 1189 0868 54F82120 		ldr	r2, [r4, r1, lsl #2]
 1190 086c 5FFA8EF1 		uxtb	r1, lr
 1191 0870 83EA0203 		eor	r3, r3, r2
 1192 0874 CCF30722 		ubfx	r2, ip, #8, #8
 1193 0878 02F50072 		add	r2, r2, #512
 1194 087c 54F82220 		ldr	r2, [r4, r2, lsl #2]
 1195 0880 01F54071 		add	r1, r1, #768
 1196 0884 83EA0203 		eor	r3, r3, r2
 1197 0888 4FEA1062 		lsr	r2, r0, #24
 1198 088c 54F82220 		ldr	r2, [r4, r2, lsl #2]
 1199 0890 54F82110 		ldr	r1, [r4, r1, lsl #2]
 1200 0894 C6B2     		uxtb	r6, r0
 1201 0896 81EA0201 		eor	r1, r1, r2
 1202 089a D5F89420 		ldr	r2, [r5, #148]
 1203 089e 06F54076 		add	r6, r6, #768
 1204 08a2 82EA0102 		eor	r2, r2, r1
 1205 08a6 CCF30741 		ubfx	r1, ip, #16, #8
 1206 08aa 01F58071 		add	r1, r1, #256
 1207 08ae 54F82110 		ldr	r1, [r4, r1, lsl #2]
 1208 08b2 54F82660 		ldr	r6, [r4, r6, lsl #2]
 1209 08b6 82EA0102 		eor	r2, r2, r1
 1210 08ba C9F30721 		ubfx	r1, r9, #8, #8
ARM GAS  /tmp/ccVUwbrj.s 			page 22


 1211 08be 01F50071 		add	r1, r1, #512
 1212 08c2 54F82110 		ldr	r1, [r4, r1, lsl #2]
 1213 08c6 C0F30720 		ubfx	r0, r0, #8, #8
 1214 08ca 82EA0102 		eor	r2, r2, r1
 1215 08ce 4FEA1C61 		lsr	r1, ip, #24
 1216 08d2 54F82110 		ldr	r1, [r4, r1, lsl #2]
 1217 08d6 5FFA8CFC 		uxtb	ip, ip
 1218 08da 86EA0106 		eor	r6, r6, r1
 1219 08de D5F89810 		ldr	r1, [r5, #152]
 1220 08e2 0CF5407C 		add	ip, ip, #768
 1221 08e6 86EA0106 		eor	r6, r6, r1
 1222 08ea C9F30741 		ubfx	r1, r9, #16, #8
 1223 08ee 01F58071 		add	r1, r1, #256
 1224 08f2 54F82110 		ldr	r1, [r4, r1, lsl #2]
 1225 08f6 4FEA1969 		lsr	r9, r9, #24
 1226 08fa 86EA0106 		eor	r6, r6, r1
 1227 08fe CEF30721 		ubfx	r1, lr, #8, #8
 1228 0902 01F50071 		add	r1, r1, #512
 1229 0906 54F82110 		ldr	r1, [r4, r1, lsl #2]
 1230 090a 54F82CC0 		ldr	ip, [r4, ip, lsl #2]
 1231 090e 86EA0106 		eor	r6, r6, r1
 1232 0912 54F82910 		ldr	r1, [r4, r9, lsl #2]
 1233 0916 CEF3074E 		ubfx	lr, lr, #16, #8
 1234 091a 81EA0C0C 		eor	ip, r1, ip
 1235 091e D5F89C10 		ldr	r1, [r5, #156]
 1236 0922 0EF5807E 		add	lr, lr, #256
 1237 0926 8CEA0101 		eor	r1, ip, r1
 1238 092a 00F50070 		add	r0, r0, #512
 1239 092e 54F82EC0 		ldr	ip, [r4, lr, lsl #2]
 1240 0932 54F82000 		ldr	r0, [r4, r0, lsl #2]
 1241 0936 81EA0C01 		eor	r1, r1, ip
 1242 093a 81EA000C 		eor	ip, r1, r0
 1243 093e 40F2E481 		bls	.L70
 1244 0942 5FFA8CF0 		uxtb	r0, ip
 1245 0946 190E     		lsrs	r1, r3, #24
 1246 0948 00F54070 		add	r0, r0, #768
 1247 094c 54F82110 		ldr	r1, [r4, r1, lsl #2]
 1248 0950 54F82000 		ldr	r0, [r4, r0, lsl #2]
 1249 0954 062F     		cmp	r7, #6
 1250 0956 81EA000E 		eor	lr, r1, r0
 1251 095a D5F8A010 		ldr	r1, [r5, #160]
 1252 095e C2F30740 		ubfx	r0, r2, #16, #8
 1253 0962 00F58070 		add	r0, r0, #256
 1254 0966 8EEA010E 		eor	lr, lr, r1
 1255 096a 54F82010 		ldr	r1, [r4, r0, lsl #2]
 1256 096e D8B2     		uxtb	r0, r3
 1257 0970 8EEA010E 		eor	lr, lr, r1
 1258 0974 C6F30721 		ubfx	r1, r6, #8, #8
 1259 0978 01F50071 		add	r1, r1, #512
 1260 097c 54F82110 		ldr	r1, [r4, r1, lsl #2]
 1261 0980 00F54070 		add	r0, r0, #768
 1262 0984 8EEA010E 		eor	lr, lr, r1
 1263 0988 4FEA1261 		lsr	r1, r2, #24
 1264 098c 54F82110 		ldr	r1, [r4, r1, lsl #2]
 1265 0990 54F82000 		ldr	r0, [r4, r0, lsl #2]
 1266 0994 81EA0009 		eor	r9, r1, r0
 1267 0998 D5F8A410 		ldr	r1, [r5, #164]
ARM GAS  /tmp/ccVUwbrj.s 			page 23


 1268 099c 4FEA1660 		lsr	r0, r6, #24
 1269 09a0 89EA0109 		eor	r9, r9, r1
 1270 09a4 C6F30741 		ubfx	r1, r6, #16, #8
 1271 09a8 01F58071 		add	r1, r1, #256
 1272 09ac 54F82110 		ldr	r1, [r4, r1, lsl #2]
 1273 09b0 54F82000 		ldr	r0, [r4, r0, lsl #2]
 1274 09b4 89EA0109 		eor	r9, r9, r1
 1275 09b8 CCF30721 		ubfx	r1, ip, #8, #8
 1276 09bc 01F50071 		add	r1, r1, #512
 1277 09c0 54F82110 		ldr	r1, [r4, r1, lsl #2]
 1278 09c4 F6B2     		uxtb	r6, r6
 1279 09c6 89EA0109 		eor	r9, r9, r1
 1280 09ca D1B2     		uxtb	r1, r2
 1281 09cc 01F54071 		add	r1, r1, #768
 1282 09d0 54F82110 		ldr	r1, [r4, r1, lsl #2]
 1283 09d4 06F54076 		add	r6, r6, #768
 1284 09d8 80EA0100 		eor	r0, r0, r1
 1285 09dc D5F8A810 		ldr	r1, [r5, #168]
 1286 09e0 54F82660 		ldr	r6, [r4, r6, lsl #2]
 1287 09e4 81EA0001 		eor	r1, r1, r0
 1288 09e8 CCF30740 		ubfx	r0, ip, #16, #8
 1289 09ec 00F58070 		add	r0, r0, #256
 1290 09f0 54F82000 		ldr	r0, [r4, r0, lsl #2]
 1291 09f4 4FEA1C6C 		lsr	ip, ip, #24
 1292 09f8 81EA0001 		eor	r1, r1, r0
 1293 09fc C3F30720 		ubfx	r0, r3, #8, #8
 1294 0a00 00F50070 		add	r0, r0, #512
 1295 0a04 54F82000 		ldr	r0, [r4, r0, lsl #2]
 1296 0a08 C3F30743 		ubfx	r3, r3, #16, #8
 1297 0a0c 81EA0001 		eor	r1, r1, r0
 1298 0a10 54F82C00 		ldr	r0, [r4, ip, lsl #2]
 1299 0a14 03F58073 		add	r3, r3, #256
 1300 0a18 80EA060C 		eor	ip, r0, r6
 1301 0a1c D5F8AC00 		ldr	r0, [r5, #172]
 1302 0a20 54F82330 		ldr	r3, [r4, r3, lsl #2]
 1303 0a24 C2F30722 		ubfx	r2, r2, #8, #8
 1304 0a28 8CEA0000 		eor	r0, ip, r0
 1305 0a2c 02F50072 		add	r2, r2, #512
 1306 0a30 80EA0300 		eor	r0, r0, r3
 1307 0a34 54F82230 		ldr	r3, [r4, r2, lsl #2]
 1308 0a38 4FEA1E62 		lsr	r2, lr, #24
 1309 0a3c 80EA030C 		eor	ip, r0, r3
 1310 0a40 5FFA8CF3 		uxtb	r3, ip
 1311 0a44 03F54073 		add	r3, r3, #768
 1312 0a48 54F82330 		ldr	r3, [r4, r3, lsl #2]
 1313 0a4c 54F82220 		ldr	r2, [r4, r2, lsl #2]
 1314 0a50 5FFA8EF0 		uxtb	r0, lr
 1315 0a54 82EA0302 		eor	r2, r2, r3
 1316 0a58 D5F8B030 		ldr	r3, [r5, #176]
 1317 0a5c 00F54070 		add	r0, r0, #768
 1318 0a60 83EA0203 		eor	r3, r3, r2
 1319 0a64 C9F30742 		ubfx	r2, r9, #16, #8
 1320 0a68 02F58072 		add	r2, r2, #256
 1321 0a6c 54F82220 		ldr	r2, [r4, r2, lsl #2]
 1322 0a70 54F82000 		ldr	r0, [r4, r0, lsl #2]
 1323 0a74 83EA0203 		eor	r3, r3, r2
 1324 0a78 C1F30722 		ubfx	r2, r1, #8, #8
ARM GAS  /tmp/ccVUwbrj.s 			page 24


 1325 0a7c 02F50072 		add	r2, r2, #512
 1326 0a80 54F82220 		ldr	r2, [r4, r2, lsl #2]
 1327 0a84 5FFA89F6 		uxtb	r6, r9
 1328 0a88 83EA0203 		eor	r3, r3, r2
 1329 0a8c 4FEA1962 		lsr	r2, r9, #24
 1330 0a90 54F82220 		ldr	r2, [r4, r2, lsl #2]
 1331 0a94 06F54076 		add	r6, r6, #768
 1332 0a98 80EA0200 		eor	r0, r0, r2
 1333 0a9c D5F8B420 		ldr	r2, [r5, #180]
 1334 0aa0 54F82660 		ldr	r6, [r4, r6, lsl #2]
 1335 0aa4 82EA0002 		eor	r2, r2, r0
 1336 0aa8 C1F30740 		ubfx	r0, r1, #16, #8
 1337 0aac 00F58070 		add	r0, r0, #256
 1338 0ab0 54F82000 		ldr	r0, [r4, r0, lsl #2]
 1339 0ab4 C9F30729 		ubfx	r9, r9, #8, #8
 1340 0ab8 82EA0002 		eor	r2, r2, r0
 1341 0abc CCF30720 		ubfx	r0, ip, #8, #8
 1342 0ac0 00F50070 		add	r0, r0, #512
 1343 0ac4 54F82000 		ldr	r0, [r4, r0, lsl #2]
 1344 0ac8 09F50079 		add	r9, r9, #512
 1345 0acc 82EA0002 		eor	r2, r2, r0
 1346 0ad0 4FEA1160 		lsr	r0, r1, #24
 1347 0ad4 54F82000 		ldr	r0, [r4, r0, lsl #2]
 1348 0ad8 C9B2     		uxtb	r1, r1
 1349 0ada 86EA0006 		eor	r6, r6, r0
 1350 0ade D5F8B800 		ldr	r0, [r5, #184]
 1351 0ae2 01F54071 		add	r1, r1, #768
 1352 0ae6 86EA0006 		eor	r6, r6, r0
 1353 0aea CCF30740 		ubfx	r0, ip, #16, #8
 1354 0aee 00F58070 		add	r0, r0, #256
 1355 0af2 54F82000 		ldr	r0, [r4, r0, lsl #2]
 1356 0af6 4FEA1C6C 		lsr	ip, ip, #24
 1357 0afa 86EA0006 		eor	r6, r6, r0
 1358 0afe CEF30720 		ubfx	r0, lr, #8, #8
 1359 0b02 00F50070 		add	r0, r0, #512
 1360 0b06 54F82000 		ldr	r0, [r4, r0, lsl #2]
 1361 0b0a 54F82110 		ldr	r1, [r4, r1, lsl #2]
 1362 0b0e 86EA0006 		eor	r6, r6, r0
 1363 0b12 54F82C00 		ldr	r0, [r4, ip, lsl #2]
 1364 0b16 CEF3074E 		ubfx	lr, lr, #16, #8
 1365 0b1a 80EA010C 		eor	ip, r0, r1
 1366 0b1e 0EF5807E 		add	lr, lr, #256
 1367 0b22 D5F8BC00 		ldr	r0, [r5, #188]
 1368 0b26 54F82E10 		ldr	r1, [r4, lr, lsl #2]
 1369 0b2a 8CEA0000 		eor	r0, ip, r0
 1370 0b2e 80EA0100 		eor	r0, r0, r1
 1371 0b32 54F82910 		ldr	r1, [r4, r9, lsl #2]
 1372 0b36 80EA010C 		eor	ip, r0, r1
 1373 0b3a 00F0E680 		beq	.L70
 1374 0b3e 5FFA8CF0 		uxtb	r0, ip
 1375 0b42 190E     		lsrs	r1, r3, #24
 1376 0b44 00F54070 		add	r0, r0, #768
 1377 0b48 54F82110 		ldr	r1, [r4, r1, lsl #2]
 1378 0b4c 54F82000 		ldr	r0, [r4, r0, lsl #2]
 1379 0b50 81EA000E 		eor	lr, r1, r0
 1380 0b54 D5F8C010 		ldr	r1, [r5, #192]
 1381 0b58 C2F30740 		ubfx	r0, r2, #16, #8
ARM GAS  /tmp/ccVUwbrj.s 			page 25


 1382 0b5c 00F58070 		add	r0, r0, #256
 1383 0b60 8EEA010E 		eor	lr, lr, r1
 1384 0b64 54F82010 		ldr	r1, [r4, r0, lsl #2]
 1385 0b68 D8B2     		uxtb	r0, r3
 1386 0b6a 8EEA010E 		eor	lr, lr, r1
 1387 0b6e C6F30721 		ubfx	r1, r6, #8, #8
 1388 0b72 01F50071 		add	r1, r1, #512
 1389 0b76 54F82110 		ldr	r1, [r4, r1, lsl #2]
 1390 0b7a 00F54070 		add	r0, r0, #768
 1391 0b7e 8EEA010E 		eor	lr, lr, r1
 1392 0b82 110E     		lsrs	r1, r2, #24
 1393 0b84 54F82110 		ldr	r1, [r4, r1, lsl #2]
 1394 0b88 54F82000 		ldr	r0, [r4, r0, lsl #2]
 1395 0b8c 81EA0009 		eor	r9, r1, r0
 1396 0b90 D5F8C410 		ldr	r1, [r5, #196]
 1397 0b94 300E     		lsrs	r0, r6, #24
 1398 0b96 89EA0109 		eor	r9, r9, r1
 1399 0b9a C6F30741 		ubfx	r1, r6, #16, #8
 1400 0b9e 01F58071 		add	r1, r1, #256
 1401 0ba2 54F82110 		ldr	r1, [r4, r1, lsl #2]
 1402 0ba6 54F82000 		ldr	r0, [r4, r0, lsl #2]
 1403 0baa 89EA0109 		eor	r9, r9, r1
 1404 0bae CCF30721 		ubfx	r1, ip, #8, #8
 1405 0bb2 01F50071 		add	r1, r1, #512
 1406 0bb6 54F82110 		ldr	r1, [r4, r1, lsl #2]
 1407 0bba F6B2     		uxtb	r6, r6
 1408 0bbc 89EA0109 		eor	r9, r9, r1
 1409 0bc0 D1B2     		uxtb	r1, r2
 1410 0bc2 01F54071 		add	r1, r1, #768
 1411 0bc6 54F82110 		ldr	r1, [r4, r1, lsl #2]
 1412 0bca 06F54076 		add	r6, r6, #768
 1413 0bce 4840     		eors	r0, r0, r1
 1414 0bd0 D5F8C810 		ldr	r1, [r5, #200]
 1415 0bd4 54F82660 		ldr	r6, [r4, r6, lsl #2]
 1416 0bd8 4140     		eors	r1, r1, r0
 1417 0bda CCF30740 		ubfx	r0, ip, #16, #8
 1418 0bde 00F58070 		add	r0, r0, #256
 1419 0be2 54F82000 		ldr	r0, [r4, r0, lsl #2]
 1420 0be6 4FEA1C6C 		lsr	ip, ip, #24
 1421 0bea 4140     		eors	r1, r1, r0
 1422 0bec C3F30720 		ubfx	r0, r3, #8, #8
 1423 0bf0 00F50070 		add	r0, r0, #512
 1424 0bf4 54F82000 		ldr	r0, [r4, r0, lsl #2]
 1425 0bf8 C3F30743 		ubfx	r3, r3, #16, #8
 1426 0bfc 4140     		eors	r1, r1, r0
 1427 0bfe 54F82C00 		ldr	r0, [r4, ip, lsl #2]
 1428 0c02 03F58073 		add	r3, r3, #256
 1429 0c06 80EA060C 		eor	ip, r0, r6
 1430 0c0a D5F8CC00 		ldr	r0, [r5, #204]
 1431 0c0e 54F82330 		ldr	r3, [r4, r3, lsl #2]
 1432 0c12 C2F30722 		ubfx	r2, r2, #8, #8
 1433 0c16 8CEA0000 		eor	r0, ip, r0
 1434 0c1a 02F50072 		add	r2, r2, #512
 1435 0c1e 5840     		eors	r0, r0, r3
 1436 0c20 54F82230 		ldr	r3, [r4, r2, lsl #2]
 1437 0c24 4FEA1E62 		lsr	r2, lr, #24
 1438 0c28 80EA030C 		eor	ip, r0, r3
ARM GAS  /tmp/ccVUwbrj.s 			page 26


 1439 0c2c 5FFA8CF3 		uxtb	r3, ip
 1440 0c30 03F54073 		add	r3, r3, #768
 1441 0c34 54F82330 		ldr	r3, [r4, r3, lsl #2]
 1442 0c38 54F82220 		ldr	r2, [r4, r2, lsl #2]
 1443 0c3c 5FFA8EF0 		uxtb	r0, lr
 1444 0c40 5A40     		eors	r2, r2, r3
 1445 0c42 D5F8D030 		ldr	r3, [r5, #208]
 1446 0c46 00F54070 		add	r0, r0, #768
 1447 0c4a 5340     		eors	r3, r3, r2
 1448 0c4c C9F30742 		ubfx	r2, r9, #16, #8
 1449 0c50 02F58072 		add	r2, r2, #256
 1450 0c54 54F82220 		ldr	r2, [r4, r2, lsl #2]
 1451 0c58 54F82000 		ldr	r0, [r4, r0, lsl #2]
 1452 0c5c 5340     		eors	r3, r3, r2
 1453 0c5e C1F30722 		ubfx	r2, r1, #8, #8
 1454 0c62 02F50072 		add	r2, r2, #512
 1455 0c66 54F82220 		ldr	r2, [r4, r2, lsl #2]
 1456 0c6a 5FFA89F6 		uxtb	r6, r9
 1457 0c6e 5340     		eors	r3, r3, r2
 1458 0c70 4FEA1962 		lsr	r2, r9, #24
 1459 0c74 54F82220 		ldr	r2, [r4, r2, lsl #2]
 1460 0c78 06F54076 		add	r6, r6, #768
 1461 0c7c 5040     		eors	r0, r0, r2
 1462 0c7e D5F8D420 		ldr	r2, [r5, #212]
 1463 0c82 54F82660 		ldr	r6, [r4, r6, lsl #2]
 1464 0c86 4240     		eors	r2, r2, r0
 1465 0c88 C1F30740 		ubfx	r0, r1, #16, #8
 1466 0c8c 00F58070 		add	r0, r0, #256
 1467 0c90 54F82000 		ldr	r0, [r4, r0, lsl #2]
 1468 0c94 C9F30729 		ubfx	r9, r9, #8, #8
 1469 0c98 4240     		eors	r2, r2, r0
 1470 0c9a CCF30720 		ubfx	r0, ip, #8, #8
 1471 0c9e 00F50070 		add	r0, r0, #512
 1472 0ca2 54F82000 		ldr	r0, [r4, r0, lsl #2]
 1473 0ca6 09F50079 		add	r9, r9, #512
 1474 0caa 4240     		eors	r2, r2, r0
 1475 0cac 080E     		lsrs	r0, r1, #24
 1476 0cae 54F82000 		ldr	r0, [r4, r0, lsl #2]
 1477 0cb2 C9B2     		uxtb	r1, r1
 1478 0cb4 4640     		eors	r6, r6, r0
 1479 0cb6 D5F8D800 		ldr	r0, [r5, #216]
 1480 0cba 01F54071 		add	r1, r1, #768
 1481 0cbe 4640     		eors	r6, r6, r0
 1482 0cc0 CCF30740 		ubfx	r0, ip, #16, #8
 1483 0cc4 00F58070 		add	r0, r0, #256
 1484 0cc8 54F82000 		ldr	r0, [r4, r0, lsl #2]
 1485 0ccc 4FEA1C6C 		lsr	ip, ip, #24
 1486 0cd0 4640     		eors	r6, r6, r0
 1487 0cd2 CEF30720 		ubfx	r0, lr, #8, #8
 1488 0cd6 00F50070 		add	r0, r0, #512
 1489 0cda 54F82000 		ldr	r0, [r4, r0, lsl #2]
 1490 0cde 54F82110 		ldr	r1, [r4, r1, lsl #2]
 1491 0ce2 4640     		eors	r6, r6, r0
 1492 0ce4 54F82C00 		ldr	r0, [r4, ip, lsl #2]
 1493 0ce8 CEF3074E 		ubfx	lr, lr, #16, #8
 1494 0cec 80EA010C 		eor	ip, r0, r1
 1495 0cf0 0EF5807E 		add	lr, lr, #256
ARM GAS  /tmp/ccVUwbrj.s 			page 27


 1496 0cf4 D5F8DC00 		ldr	r0, [r5, #220]
 1497 0cf8 54F82E10 		ldr	r1, [r4, lr, lsl #2]
 1498 0cfc 8CEA0000 		eor	r0, ip, r0
 1499 0d00 4840     		eors	r0, r0, r1
 1500 0d02 54F82910 		ldr	r1, [r4, r9, lsl #2]
 1501 0d06 80EA010C 		eor	ip, r0, r1
 1502              	.L70:
 1503 0d0a D9B2     		uxtb	r1, r3
 1504 0d0c 7801     		lsls	r0, r7, #5
 1505 0d0e 01F58071 		add	r1, r1, #256
 1506 0d12 05EB4717 		add	r7, r5, r7, lsl #5
 1507 0d16 14F821A0 		ldrb	r10, [r4, r1, lsl #2]	@ zero_extendqisi2
 1508 0d1a 7968     		ldr	r1, [r7, #4]
 1509 0d1c 4FEA1269 		lsr	r9, r2, #24
 1510 0d20 8AEA010A 		eor	r10, r10, r1
 1511 0d24 CCF30721 		ubfx	r1, ip, #8, #8
 1512 0d28 54F82110 		ldr	r1, [r4, r1, lsl #2]
 1513 0d2c 09F50079 		add	r9, r9, #512
 1514 0d30 01F47F4E 		and	lr, r1, #65280
 1515 0d34 8AEA0E01 		eor	r1, r10, lr
 1516 0d38 C6F3074E 		ubfx	lr, r6, #16, #8
 1517 0d3c 0EF5407E 		add	lr, lr, #768
 1518 0d40 54F829A0 		ldr	r10, [r4, r9, lsl #2]
 1519 0d44 54F82EE0 		ldr	lr, [r4, lr, lsl #2]
 1520 0d48 0AF07F4A 		and	r10, r10, #-16777216
 1521 0d4c 0EF47F0E 		and	lr, lr, #16711680
 1522 0d50 4EEA0A0A 		orr	r10, lr, r10
 1523 0d54 81EA0A0A 		eor	r10, r1, r10
 1524 0d58 D1B2     		uxtb	r1, r2
 1525 0d5a 01F58071 		add	r1, r1, #256
 1526 0d5e 14F82190 		ldrb	r9, [r4, r1, lsl #2]	@ zero_extendqisi2
 1527 0d62 B968     		ldr	r1, [r7, #8]
 1528 0d64 FF68     		ldr	r7, [r7, #12]
 1529 0d66 89EA0109 		eor	r9, r9, r1
 1530 0d6a C3F30721 		ubfx	r1, r3, #8, #8
 1531 0d6e 54F82110 		ldr	r1, [r4, r1, lsl #2]
 1532 0d72 2858     		ldr	r0, [r5, r0]
 1533 0d74 01F47F4E 		and	lr, r1, #65280
 1534 0d78 89EA0E01 		eor	r1, r9, lr
 1535 0d7c CCF3074E 		ubfx	lr, ip, #16, #8
 1536 0d80 4FEA1669 		lsr	r9, r6, #24
 1537 0d84 0EF5407E 		add	lr, lr, #768
 1538 0d88 09F50079 		add	r9, r9, #512
 1539 0d8c 54F82EE0 		ldr	lr, [r4, lr, lsl #2]
 1540 0d90 54F82990 		ldr	r9, [r4, r9, lsl #2]
 1541 0d94 0EF47F0E 		and	lr, lr, #16711680
 1542 0d98 09F07F49 		and	r9, r9, #-16777216
 1543 0d9c 4EEA0909 		orr	r9, lr, r9
 1544 0da0 81EA0909 		eor	r9, r1, r9
 1545 0da4 F1B2     		uxtb	r1, r6
 1546 0da6 01F58071 		add	r1, r1, #256
 1547 0daa 14F82110 		ldrb	r1, [r4, r1, lsl #2]	@ zero_extendqisi2
 1548 0dae 4FEA1C6E 		lsr	lr, ip, #24
 1549 0db2 7940     		eors	r1, r1, r7
 1550 0db4 C2F30727 		ubfx	r7, r2, #8, #8
 1551 0db8 54F82770 		ldr	r7, [r4, r7, lsl #2]
 1552 0dbc 0EF5007E 		add	lr, lr, #512
ARM GAS  /tmp/ccVUwbrj.s 			page 28


 1553 0dc0 07F47F47 		and	r7, r7, #65280
 1554 0dc4 7940     		eors	r1, r1, r7
 1555 0dc6 C3F30747 		ubfx	r7, r3, #16, #8
 1556 0dca 07F54077 		add	r7, r7, #768
 1557 0dce 54F82770 		ldr	r7, [r4, r7, lsl #2]
 1558 0dd2 54F82EE0 		ldr	lr, [r4, lr, lsl #2]
 1559 0dd6 07F47F07 		and	r7, r7, #16711680
 1560 0dda 0EF07F4E 		and	lr, lr, #-16777216
 1561 0dde 5FFA8CFC 		uxtb	ip, ip
 1562 0de2 47EA0E07 		orr	r7, r7, lr
 1563 0de6 0CF5807C 		add	ip, ip, #256
 1564 0dea 7940     		eors	r1, r1, r7
 1565 0dec 14F82C70 		ldrb	r7, [r4, ip, lsl #2]	@ zero_extendqisi2
 1566 0df0 C2F30742 		ubfx	r2, r2, #16, #8
 1567 0df4 1B0E     		lsrs	r3, r3, #24
 1568 0df6 4740     		eors	r7, r7, r0
 1569 0df8 02F54072 		add	r2, r2, #768
 1570 0dfc C6F30720 		ubfx	r0, r6, #8, #8
 1571 0e00 03F50073 		add	r3, r3, #512
 1572 0e04 54F82060 		ldr	r6, [r4, r0, lsl #2]
 1573 0e08 54F82330 		ldr	r3, [r4, r3, lsl #2]
 1574 0e0c 54F82200 		ldr	r0, [r4, r2, lsl #2]
 1575 0e10 03F07F43 		and	r3, r3, #-16777216
 1576 0e14 06F47F46 		and	r6, r6, #65280
 1577 0e18 00F47F00 		and	r0, r0, #16711680
 1578 0e1c 7E40     		eors	r6, r6, r7
 1579 0e1e 1843     		orrs	r0, r0, r3
 1580 0e20 7040     		eors	r0, r0, r6
 1581 0e22 FFF7FEFF 		bl	ByteReverseWord32
 1582 0e26 0246     		mov	r2, r0
 1583 0e28 5046     		mov	r0, r10
 1584 0e2a FFF7FEFF 		bl	ByteReverseWord32
 1585 0e2e 0646     		mov	r6, r0
 1586 0e30 4846     		mov	r0, r9
 1587 0e32 FFF7FEFF 		bl	ByteReverseWord32
 1588 0e36 0346     		mov	r3, r0
 1589 0e38 0846     		mov	r0, r1
 1590 0e3a FFF7FEFF 		bl	ByteReverseWord32
 1591 0e3e C5F80031 		str	r3, [r5, #256]	@ unaligned
 1592 0e42 009B     		ldr	r3, [sp]
 1593 0e44 C5F8F820 		str	r2, [r5, #248]	@ unaligned
 1594 0e48 1946     		mov	r1, r3
 1595 0e4a 4246     		mov	r2, r8
 1596 0e4c C5F8FC60 		str	r6, [r5, #252]	@ unaligned
 1597 0e50 C5F80401 		str	r0, [r5, #260]	@ unaligned
 1598 0e54 1031     		adds	r1, r1, #16
 1599              	.L71:
 1600 0e56 53F8040B 		ldr	r0, [r3], #4	@ unaligned
 1601 0e5a 8B42     		cmp	r3, r1
 1602 0e5c 42F8040B 		str	r0, [r2], #4	@ unaligned
 1603 0e60 F9D1     		bne	.L71
 1604 0e62 08F11008 		add	r8, r8, #16
 1605 0e66 0BF1100B 		add	fp, fp, #16
 1606 0e6a FFF7E7B8 		b	.L69
 1607              	.L76:
 1608 0e6e 6FF0AC00 		mvn	r0, #172
 1609 0e72 FFF7D5B8 		b	.L66
ARM GAS  /tmp/ccVUwbrj.s 			page 29


 1610              	.L77:
 1611 0e76 6FF0E100 		mvn	r0, #225
 1612 0e7a FFF7D1B8 		b	.L66
 1614 0e7e 00BF     		.section	.text.wc_AesCbcDecrypt,"ax",%progbits
 1615              		.align	1
 1616              		.global	wc_AesCbcDecrypt
 1617              		.syntax unified
 1618              		.thumb
 1619              		.thumb_func
 1620              		.fpu fpv4-sp-d16
 1622              	wc_AesCbcDecrypt:
 1623              		@ args = 0, pretend = 0, frame = 16
 1624              		@ frame_needed = 0, uses_anonymous_args = 0
 1625 0000 2DE9F04F 		push	{r4, r5, r6, r7, r8, r9, r10, fp, lr}
 1626 0004 85B0     		sub	sp, sp, #20
 1627 0006 8846     		mov	r8, r1
 1628 0008 0546     		mov	r5, r0
 1629 000a 0192     		str	r2, [sp, #4]
 1630 000c 0028     		cmp	r0, #0
 1631 000e 00F01487 		beq	.L97
 1632 0012 0029     		cmp	r1, #0
 1633 0014 00F01187 		beq	.L97
 1634 0018 002A     		cmp	r2, #0
 1635 001a 00F00E87 		beq	.L97
 1636 001e 1BB9     		cbnz	r3, .L87
 1637              	.L93:
 1638 0020 0020     		movs	r0, #0
 1639              	.L85:
 1640 0022 05B0     		add	sp, sp, #20
 1641              		@ sp needed
 1642 0024 BDE8F08F 		pop	{r4, r5, r6, r7, r8, r9, r10, fp, pc}
 1643              	.L87:
 1644 0028 1A09     		lsrs	r2, r3, #4
 1645 002a 1B07     		lsls	r3, r3, #28
 1646 002c 40F00587 		bne	.L97
 1647 0030 01EB0213 		add	r3, r1, r2, lsl #4
 1648 0034 0393     		str	r3, [sp, #12]
 1649 0036 064C     		ldr	r4, .L104
 1650 0038 00F58473 		add	r3, r0, #264
 1651 003c 054F     		ldr	r7, .L104+4
 1652 003e 0293     		str	r3, [sp, #8]
 1653              	.L88:
 1654 0040 039B     		ldr	r3, [sp, #12]
 1655 0042 9845     		cmp	r8, r3
 1656 0044 ECD0     		beq	.L93
 1657 0046 DDE90132 		ldrd	r3, r2, [sp, #4]
 1658 004a 1946     		mov	r1, r3
 1659 004c 1031     		adds	r1, r1, #16
 1660 004e 03E0     		b	.L105
 1661              	.L106:
 1662              		.align	2
 1663              	.L104:
 1664 0050 00000000 		.word	Td
 1665 0054 00000000 		.word	.LANCHOR1
 1666              	.L105:
 1667              	.L89:
 1668 0058 53F8040B 		ldr	r0, [r3], #4	@ unaligned
ARM GAS  /tmp/ccVUwbrj.s 			page 30


 1669 005c 8B42     		cmp	r3, r1
 1670 005e 42F8040B 		str	r0, [r2], #4	@ unaligned
 1671 0062 F9D1     		bne	.L89
 1672 0064 D5F8F030 		ldr	r3, [r5, #240]
 1673 0068 4FEA530A 		lsr	r10, r3, #1
 1674 006c 0AF1FF33 		add	r3, r10, #-1
 1675 0070 062B     		cmp	r3, #6
 1676 0072 00F2E686 		bhi	.L98
 1677 0076 019B     		ldr	r3, [sp, #4]
 1678 0078 1868     		ldr	r0, [r3]	@ unaligned
 1679 007a FFF7FEFF 		bl	ByteReverseWord32
 1680 007e 8146     		mov	r9, r0
 1681 0080 5868     		ldr	r0, [r3, #4]	@ unaligned
 1682 0082 FFF7FEFF 		bl	ByteReverseWord32
 1683 0086 0146     		mov	r1, r0
 1684 0088 9868     		ldr	r0, [r3, #8]	@ unaligned
 1685 008a FFF7FEFF 		bl	ByteReverseWord32
 1686 008e 0246     		mov	r2, r0
 1687 0090 D868     		ldr	r0, [r3, #12]	@ unaligned
 1688 0092 FFF7FEFF 		bl	ByteReverseWord32
 1689 0096 2B68     		ldr	r3, [r5]
 1690 0098 BAF1050F 		cmp	r10, #5
 1691 009c 89EA0309 		eor	r9, r9, r3
 1692 00a0 6B68     		ldr	r3, [r5, #4]
 1693 00a2 81EA030C 		eor	ip, r1, r3
 1694 00a6 AB68     		ldr	r3, [r5, #8]
 1695 00a8 82EA030E 		eor	lr, r2, r3
 1696 00ac EB68     		ldr	r3, [r5, #12]
 1697 00ae 4FEA1962 		lsr	r2, r9, #24
 1698 00b2 80EA0300 		eor	r0, r0, r3
 1699 00b6 5FFA8CF3 		uxtb	r3, ip
 1700 00ba 03F54073 		add	r3, r3, #768
 1701 00be 54F82260 		ldr	r6, [r4, r2, lsl #2]
 1702 00c2 54F82330 		ldr	r3, [r4, r3, lsl #2]
 1703 00c6 5FFA8EF2 		uxtb	r2, lr
 1704 00ca 86EA0306 		eor	r6, r6, r3
 1705 00ce 2B69     		ldr	r3, [r5, #16]
 1706 00d0 02F54072 		add	r2, r2, #768
 1707 00d4 86EA0306 		eor	r6, r6, r3
 1708 00d8 C0F30743 		ubfx	r3, r0, #16, #8
 1709 00dc 03F58073 		add	r3, r3, #256
 1710 00e0 54F82330 		ldr	r3, [r4, r3, lsl #2]
 1711 00e4 54F82220 		ldr	r2, [r4, r2, lsl #2]
 1712 00e8 86EA0306 		eor	r6, r6, r3
 1713 00ec CEF30723 		ubfx	r3, lr, #8, #8
 1714 00f0 03F50073 		add	r3, r3, #512
 1715 00f4 54F82330 		ldr	r3, [r4, r3, lsl #2]
 1716 00f8 C1B2     		uxtb	r1, r0
 1717 00fa 86EA0306 		eor	r6, r6, r3
 1718 00fe 4FEA1C63 		lsr	r3, ip, #24
 1719 0102 54F82330 		ldr	r3, [r4, r3, lsl #2]
 1720 0106 01F54071 		add	r1, r1, #768
 1721 010a 82EA0302 		eor	r2, r2, r3
 1722 010e 6B69     		ldr	r3, [r5, #20]
 1723 0110 54F82110 		ldr	r1, [r4, r1, lsl #2]
 1724 0114 82EA0302 		eor	r2, r2, r3
 1725 0118 C9F30743 		ubfx	r3, r9, #16, #8
ARM GAS  /tmp/ccVUwbrj.s 			page 31


 1726 011c 03F58073 		add	r3, r3, #256
 1727 0120 54F82330 		ldr	r3, [r4, r3, lsl #2]
 1728 0124 82EA0302 		eor	r2, r2, r3
 1729 0128 C0F30723 		ubfx	r3, r0, #8, #8
 1730 012c 03F50073 		add	r3, r3, #512
 1731 0130 54F82330 		ldr	r3, [r4, r3, lsl #2]
 1732 0134 4FEA1060 		lsr	r0, r0, #24
 1733 0138 82EA0302 		eor	r2, r2, r3
 1734 013c 4FEA1E63 		lsr	r3, lr, #24
 1735 0140 54F82330 		ldr	r3, [r4, r3, lsl #2]
 1736 0144 CEF3074E 		ubfx	lr, lr, #16, #8
 1737 0148 81EA0301 		eor	r1, r1, r3
 1738 014c AB69     		ldr	r3, [r5, #24]
 1739 014e 0EF5807E 		add	lr, lr, #256
 1740 0152 81EA0301 		eor	r1, r1, r3
 1741 0156 CCF30743 		ubfx	r3, ip, #16, #8
 1742 015a 03F58073 		add	r3, r3, #256
 1743 015e 54F82330 		ldr	r3, [r4, r3, lsl #2]
 1744 0162 CCF3072C 		ubfx	ip, ip, #8, #8
 1745 0166 81EA0301 		eor	r1, r1, r3
 1746 016a C9F30723 		ubfx	r3, r9, #8, #8
 1747 016e 03F50073 		add	r3, r3, #512
 1748 0172 54F82330 		ldr	r3, [r4, r3, lsl #2]
 1749 0176 5FFA89F9 		uxtb	r9, r9
 1750 017a 09F54079 		add	r9, r9, #768
 1751 017e 81EA0301 		eor	r1, r1, r3
 1752 0182 54F82030 		ldr	r3, [r4, r0, lsl #2]
 1753 0186 54F82900 		ldr	r0, [r4, r9, lsl #2]
 1754 018a 0CF5007C 		add	ip, ip, #512
 1755 018e 83EA0009 		eor	r9, r3, r0
 1756 0192 EB69     		ldr	r3, [r5, #28]
 1757 0194 D0B2     		uxtb	r0, r2
 1758 0196 89EA0309 		eor	r9, r9, r3
 1759 019a 54F82E30 		ldr	r3, [r4, lr, lsl #2]
 1760 019e 00F54070 		add	r0, r0, #768
 1761 01a2 89EA0309 		eor	r9, r9, r3
 1762 01a6 54F82C30 		ldr	r3, [r4, ip, lsl #2]
 1763 01aa 54F82000 		ldr	r0, [r4, r0, lsl #2]
 1764 01ae 89EA0309 		eor	r9, r9, r3
 1765 01b2 4FEA1663 		lsr	r3, r6, #24
 1766 01b6 54F82330 		ldr	r3, [r4, r3, lsl #2]
 1767 01ba 4FEA116C 		lsr	ip, r1, #24
 1768 01be 83EA000E 		eor	lr, r3, r0
 1769 01c2 2B6A     		ldr	r3, [r5, #32]
 1770 01c4 C8B2     		uxtb	r0, r1
 1771 01c6 8EEA030E 		eor	lr, lr, r3
 1772 01ca C9F30743 		ubfx	r3, r9, #16, #8
 1773 01ce 03F58073 		add	r3, r3, #256
 1774 01d2 54F82330 		ldr	r3, [r4, r3, lsl #2]
 1775 01d6 00F54070 		add	r0, r0, #768
 1776 01da 8EEA030E 		eor	lr, lr, r3
 1777 01de C1F30723 		ubfx	r3, r1, #8, #8
 1778 01e2 03F50073 		add	r3, r3, #512
 1779 01e6 54F82330 		ldr	r3, [r4, r3, lsl #2]
 1780 01ea 54F82000 		ldr	r0, [r4, r0, lsl #2]
 1781 01ee 8EEA030E 		eor	lr, lr, r3
 1782 01f2 4FEA1263 		lsr	r3, r2, #24
ARM GAS  /tmp/ccVUwbrj.s 			page 32


 1783 01f6 54F82330 		ldr	r3, [r4, r3, lsl #2]
 1784 01fa 54F82CC0 		ldr	ip, [r4, ip, lsl #2]
 1785 01fe 80EA0300 		eor	r0, r0, r3
 1786 0202 6B6A     		ldr	r3, [r5, #36]
 1787 0204 C1F30741 		ubfx	r1, r1, #16, #8
 1788 0208 80EA0300 		eor	r0, r0, r3
 1789 020c C6F30743 		ubfx	r3, r6, #16, #8
 1790 0210 03F58073 		add	r3, r3, #256
 1791 0214 54F82330 		ldr	r3, [r4, r3, lsl #2]
 1792 0218 01F58071 		add	r1, r1, #256
 1793 021c 80EA0300 		eor	r0, r0, r3
 1794 0220 C9F30723 		ubfx	r3, r9, #8, #8
 1795 0224 03F50073 		add	r3, r3, #512
 1796 0228 54F82330 		ldr	r3, [r4, r3, lsl #2]
 1797 022c 80EA0300 		eor	r0, r0, r3
 1798 0230 5FFA89F3 		uxtb	r3, r9
 1799 0234 03F54073 		add	r3, r3, #768
 1800 0238 54F82330 		ldr	r3, [r4, r3, lsl #2]
 1801 023c 4FEA1969 		lsr	r9, r9, #24
 1802 0240 8CEA030C 		eor	ip, ip, r3
 1803 0244 AB6A     		ldr	r3, [r5, #40]
 1804 0246 8CEA030C 		eor	ip, ip, r3
 1805 024a C2F30743 		ubfx	r3, r2, #16, #8
 1806 024e 03F58073 		add	r3, r3, #256
 1807 0252 54F82330 		ldr	r3, [r4, r3, lsl #2]
 1808 0256 C2F30722 		ubfx	r2, r2, #8, #8
 1809 025a 8CEA030C 		eor	ip, ip, r3
 1810 025e C6F30723 		ubfx	r3, r6, #8, #8
 1811 0262 03F50073 		add	r3, r3, #512
 1812 0266 54F82330 		ldr	r3, [r4, r3, lsl #2]
 1813 026a F6B2     		uxtb	r6, r6
 1814 026c 06F54076 		add	r6, r6, #768
 1815 0270 8CEA030C 		eor	ip, ip, r3
 1816 0274 54F82660 		ldr	r6, [r4, r6, lsl #2]
 1817 0278 54F82930 		ldr	r3, [r4, r9, lsl #2]
 1818 027c 02F50072 		add	r2, r2, #512
 1819 0280 83EA0609 		eor	r9, r3, r6
 1820 0284 EB6A     		ldr	r3, [r5, #44]
 1821 0286 89EA0309 		eor	r9, r9, r3
 1822 028a 54F82130 		ldr	r3, [r4, r1, lsl #2]
 1823 028e 89EA0309 		eor	r9, r9, r3
 1824 0292 54F82230 		ldr	r3, [r4, r2, lsl #2]
 1825 0296 4FEA1E62 		lsr	r2, lr, #24
 1826 029a 89EA0309 		eor	r9, r9, r3
 1827 029e C3B2     		uxtb	r3, r0
 1828 02a0 03F54073 		add	r3, r3, #768
 1829 02a4 54F82260 		ldr	r6, [r4, r2, lsl #2]
 1830 02a8 54F82320 		ldr	r2, [r4, r3, lsl #2]
 1831 02ac C9F30743 		ubfx	r3, r9, #16, #8
 1832 02b0 86EA0206 		eor	r6, r6, r2
 1833 02b4 2A6B     		ldr	r2, [r5, #48]
 1834 02b6 03F58073 		add	r3, r3, #256
 1835 02ba 86EA0206 		eor	r6, r6, r2
 1836 02be 54F82320 		ldr	r2, [r4, r3, lsl #2]
 1837 02c2 CCF30723 		ubfx	r3, ip, #8, #8
 1838 02c6 03F50073 		add	r3, r3, #512
 1839 02ca 54F82330 		ldr	r3, [r4, r3, lsl #2]
ARM GAS  /tmp/ccVUwbrj.s 			page 33


 1840 02ce 86EA0206 		eor	r6, r6, r2
 1841 02d2 5FFA8CF2 		uxtb	r2, ip
 1842 02d6 86EA0306 		eor	r6, r6, r3
 1843 02da 02F54072 		add	r2, r2, #768
 1844 02de 4FEA1063 		lsr	r3, r0, #24
 1845 02e2 54F82330 		ldr	r3, [r4, r3, lsl #2]
 1846 02e6 54F82220 		ldr	r2, [r4, r2, lsl #2]
 1847 02ea 5FFA89F1 		uxtb	r1, r9
 1848 02ee 82EA0302 		eor	r2, r2, r3
 1849 02f2 6B6B     		ldr	r3, [r5, #52]
 1850 02f4 01F54071 		add	r1, r1, #768
 1851 02f8 82EA0302 		eor	r2, r2, r3
 1852 02fc CEF30743 		ubfx	r3, lr, #16, #8
 1853 0300 03F58073 		add	r3, r3, #256
 1854 0304 54F82330 		ldr	r3, [r4, r3, lsl #2]
 1855 0308 82EA0302 		eor	r2, r2, r3
 1856 030c C9F30723 		ubfx	r3, r9, #8, #8
 1857 0310 03F50073 		add	r3, r3, #512
 1858 0314 54F82330 		ldr	r3, [r4, r3, lsl #2]
 1859 0318 4FEA1969 		lsr	r9, r9, #24
 1860 031c 82EA0302 		eor	r2, r2, r3
 1861 0320 4FEA1C63 		lsr	r3, ip, #24
 1862 0324 54F82330 		ldr	r3, [r4, r3, lsl #2]
 1863 0328 54F82110 		ldr	r1, [r4, r1, lsl #2]
 1864 032c CCF3074C 		ubfx	ip, ip, #16, #8
 1865 0330 81EA0301 		eor	r1, r1, r3
 1866 0334 AB6B     		ldr	r3, [r5, #56]
 1867 0336 0CF5807C 		add	ip, ip, #256
 1868 033a 81EA0301 		eor	r1, r1, r3
 1869 033e C0F30743 		ubfx	r3, r0, #16, #8
 1870 0342 03F58073 		add	r3, r3, #256
 1871 0346 54F82330 		ldr	r3, [r4, r3, lsl #2]
 1872 034a C0F30720 		ubfx	r0, r0, #8, #8
 1873 034e 81EA0301 		eor	r1, r1, r3
 1874 0352 CEF30723 		ubfx	r3, lr, #8, #8
 1875 0356 03F50073 		add	r3, r3, #512
 1876 035a 54F82330 		ldr	r3, [r4, r3, lsl #2]
 1877 035e 5FFA8EFE 		uxtb	lr, lr
 1878 0362 0EF5407E 		add	lr, lr, #768
 1879 0366 81EA0301 		eor	r1, r1, r3
 1880 036a 54F82930 		ldr	r3, [r4, r9, lsl #2]
 1881 036e 54F82E90 		ldr	r9, [r4, lr, lsl #2]
 1882 0372 00F50070 		add	r0, r0, #512
 1883 0376 83EA0909 		eor	r9, r3, r9
 1884 037a EB6B     		ldr	r3, [r5, #60]
 1885 037c 89EA0309 		eor	r9, r9, r3
 1886 0380 54F82C30 		ldr	r3, [r4, ip, lsl #2]
 1887 0384 4FEA116C 		lsr	ip, r1, #24
 1888 0388 89EA0309 		eor	r9, r9, r3
 1889 038c 54F82030 		ldr	r3, [r4, r0, lsl #2]
 1890 0390 4FEA1660 		lsr	r0, r6, #24
 1891 0394 89EA0309 		eor	r9, r9, r3
 1892 0398 D3B2     		uxtb	r3, r2
 1893 039a 03F54073 		add	r3, r3, #768
 1894 039e 54F82000 		ldr	r0, [r4, r0, lsl #2]
 1895 03a2 54F82330 		ldr	r3, [r4, r3, lsl #2]
 1896 03a6 54F82CC0 		ldr	ip, [r4, ip, lsl #2]
ARM GAS  /tmp/ccVUwbrj.s 			page 34


 1897 03aa 80EA030E 		eor	lr, r0, r3
 1898 03ae 286C     		ldr	r0, [r5, #64]
 1899 03b0 C9F30743 		ubfx	r3, r9, #16, #8
 1900 03b4 03F58073 		add	r3, r3, #256
 1901 03b8 8EEA000E 		eor	lr, lr, r0
 1902 03bc 54F82300 		ldr	r0, [r4, r3, lsl #2]
 1903 03c0 C1F30723 		ubfx	r3, r1, #8, #8
 1904 03c4 03F50073 		add	r3, r3, #512
 1905 03c8 54F82330 		ldr	r3, [r4, r3, lsl #2]
 1906 03cc 8EEA000E 		eor	lr, lr, r0
 1907 03d0 C8B2     		uxtb	r0, r1
 1908 03d2 8EEA030E 		eor	lr, lr, r3
 1909 03d6 00F54070 		add	r0, r0, #768
 1910 03da 4FEA1263 		lsr	r3, r2, #24
 1911 03de 54F82330 		ldr	r3, [r4, r3, lsl #2]
 1912 03e2 54F82000 		ldr	r0, [r4, r0, lsl #2]
 1913 03e6 C1F30741 		ubfx	r1, r1, #16, #8
 1914 03ea 80EA0300 		eor	r0, r0, r3
 1915 03ee 6B6C     		ldr	r3, [r5, #68]
 1916 03f0 01F58071 		add	r1, r1, #256
 1917 03f4 80EA0300 		eor	r0, r0, r3
 1918 03f8 C6F30743 		ubfx	r3, r6, #16, #8
 1919 03fc 03F58073 		add	r3, r3, #256
 1920 0400 54F82330 		ldr	r3, [r4, r3, lsl #2]
 1921 0404 80EA0300 		eor	r0, r0, r3
 1922 0408 C9F30723 		ubfx	r3, r9, #8, #8
 1923 040c 03F50073 		add	r3, r3, #512
 1924 0410 54F82330 		ldr	r3, [r4, r3, lsl #2]
 1925 0414 80EA0300 		eor	r0, r0, r3
 1926 0418 5FFA89F3 		uxtb	r3, r9
 1927 041c 03F54073 		add	r3, r3, #768
 1928 0420 54F82330 		ldr	r3, [r4, r3, lsl #2]
 1929 0424 4FEA1969 		lsr	r9, r9, #24
 1930 0428 8CEA030C 		eor	ip, ip, r3
 1931 042c AB6C     		ldr	r3, [r5, #72]
 1932 042e 8CEA030C 		eor	ip, ip, r3
 1933 0432 C2F30743 		ubfx	r3, r2, #16, #8
 1934 0436 03F58073 		add	r3, r3, #256
 1935 043a 54F82330 		ldr	r3, [r4, r3, lsl #2]
 1936 043e C2F30722 		ubfx	r2, r2, #8, #8
 1937 0442 8CEA030C 		eor	ip, ip, r3
 1938 0446 C6F30723 		ubfx	r3, r6, #8, #8
 1939 044a 03F50073 		add	r3, r3, #512
 1940 044e 54F82330 		ldr	r3, [r4, r3, lsl #2]
 1941 0452 F6B2     		uxtb	r6, r6
 1942 0454 06F54076 		add	r6, r6, #768
 1943 0458 8CEA030C 		eor	ip, ip, r3
 1944 045c 54F82660 		ldr	r6, [r4, r6, lsl #2]
 1945 0460 54F82930 		ldr	r3, [r4, r9, lsl #2]
 1946 0464 02F50072 		add	r2, r2, #512
 1947 0468 83EA0609 		eor	r9, r3, r6
 1948 046c EB6C     		ldr	r3, [r5, #76]
 1949 046e 89EA0309 		eor	r9, r9, r3
 1950 0472 54F82130 		ldr	r3, [r4, r1, lsl #2]
 1951 0476 89EA0309 		eor	r9, r9, r3
 1952 047a 54F82230 		ldr	r3, [r4, r2, lsl #2]
 1953 047e 4FEA1E62 		lsr	r2, lr, #24
ARM GAS  /tmp/ccVUwbrj.s 			page 35


 1954 0482 89EA0309 		eor	r9, r9, r3
 1955 0486 C3B2     		uxtb	r3, r0
 1956 0488 03F54073 		add	r3, r3, #768
 1957 048c 54F82260 		ldr	r6, [r4, r2, lsl #2]
 1958 0490 54F82320 		ldr	r2, [r4, r3, lsl #2]
 1959 0494 C9F30743 		ubfx	r3, r9, #16, #8
 1960 0498 86EA0206 		eor	r6, r6, r2
 1961 049c 2A6D     		ldr	r2, [r5, #80]
 1962 049e 03F58073 		add	r3, r3, #256
 1963 04a2 86EA0206 		eor	r6, r6, r2
 1964 04a6 54F82320 		ldr	r2, [r4, r3, lsl #2]
 1965 04aa CCF30723 		ubfx	r3, ip, #8, #8
 1966 04ae 03F50073 		add	r3, r3, #512
 1967 04b2 54F82330 		ldr	r3, [r4, r3, lsl #2]
 1968 04b6 86EA0206 		eor	r6, r6, r2
 1969 04ba 5FFA8CF2 		uxtb	r2, ip
 1970 04be 86EA0306 		eor	r6, r6, r3
 1971 04c2 02F54072 		add	r2, r2, #768
 1972 04c6 4FEA1063 		lsr	r3, r0, #24
 1973 04ca 54F82330 		ldr	r3, [r4, r3, lsl #2]
 1974 04ce 54F82220 		ldr	r2, [r4, r2, lsl #2]
 1975 04d2 5FFA89F1 		uxtb	r1, r9
 1976 04d6 82EA0302 		eor	r2, r2, r3
 1977 04da 6B6D     		ldr	r3, [r5, #84]
 1978 04dc 01F54071 		add	r1, r1, #768
 1979 04e0 82EA0302 		eor	r2, r2, r3
 1980 04e4 CEF30743 		ubfx	r3, lr, #16, #8
 1981 04e8 03F58073 		add	r3, r3, #256
 1982 04ec 54F82330 		ldr	r3, [r4, r3, lsl #2]
 1983 04f0 54F82110 		ldr	r1, [r4, r1, lsl #2]
 1984 04f4 82EA0302 		eor	r2, r2, r3
 1985 04f8 C9F30723 		ubfx	r3, r9, #8, #8
 1986 04fc 03F50073 		add	r3, r3, #512
 1987 0500 54F82330 		ldr	r3, [r4, r3, lsl #2]
 1988 0504 4FEA1969 		lsr	r9, r9, #24
 1989 0508 82EA0302 		eor	r2, r2, r3
 1990 050c 4FEA1C63 		lsr	r3, ip, #24
 1991 0510 54F82330 		ldr	r3, [r4, r3, lsl #2]
 1992 0514 CCF3074C 		ubfx	ip, ip, #16, #8
 1993 0518 81EA0301 		eor	r1, r1, r3
 1994 051c AB6D     		ldr	r3, [r5, #88]
 1995 051e 0CF5807C 		add	ip, ip, #256
 1996 0522 81EA0301 		eor	r1, r1, r3
 1997 0526 C0F30743 		ubfx	r3, r0, #16, #8
 1998 052a 03F58073 		add	r3, r3, #256
 1999 052e 54F82330 		ldr	r3, [r4, r3, lsl #2]
 2000 0532 C0F30720 		ubfx	r0, r0, #8, #8
 2001 0536 81EA0301 		eor	r1, r1, r3
 2002 053a CEF30723 		ubfx	r3, lr, #8, #8
 2003 053e 03F50073 		add	r3, r3, #512
 2004 0542 54F82330 		ldr	r3, [r4, r3, lsl #2]
 2005 0546 5FFA8EFE 		uxtb	lr, lr
 2006 054a 0EF5407E 		add	lr, lr, #768
 2007 054e 81EA0301 		eor	r1, r1, r3
 2008 0552 54F82930 		ldr	r3, [r4, r9, lsl #2]
 2009 0556 54F82E90 		ldr	r9, [r4, lr, lsl #2]
 2010 055a 00F50070 		add	r0, r0, #512
ARM GAS  /tmp/ccVUwbrj.s 			page 36


 2011 055e 83EA0909 		eor	r9, r3, r9
 2012 0562 EB6D     		ldr	r3, [r5, #92]
 2013 0564 89EA0309 		eor	r9, r9, r3
 2014 0568 54F82C30 		ldr	r3, [r4, ip, lsl #2]
 2015 056c 4FEA116C 		lsr	ip, r1, #24
 2016 0570 89EA0309 		eor	r9, r9, r3
 2017 0574 54F82030 		ldr	r3, [r4, r0, lsl #2]
 2018 0578 4FEA1660 		lsr	r0, r6, #24
 2019 057c 89EA0309 		eor	r9, r9, r3
 2020 0580 D3B2     		uxtb	r3, r2
 2021 0582 03F54073 		add	r3, r3, #768
 2022 0586 54F82000 		ldr	r0, [r4, r0, lsl #2]
 2023 058a 54F82330 		ldr	r3, [r4, r3, lsl #2]
 2024 058e 54F82CC0 		ldr	ip, [r4, ip, lsl #2]
 2025 0592 80EA030E 		eor	lr, r0, r3
 2026 0596 286E     		ldr	r0, [r5, #96]
 2027 0598 C9F30743 		ubfx	r3, r9, #16, #8
 2028 059c 03F58073 		add	r3, r3, #256
 2029 05a0 8EEA000E 		eor	lr, lr, r0
 2030 05a4 54F82300 		ldr	r0, [r4, r3, lsl #2]
 2031 05a8 C1F30723 		ubfx	r3, r1, #8, #8
 2032 05ac 03F50073 		add	r3, r3, #512
 2033 05b0 54F82330 		ldr	r3, [r4, r3, lsl #2]
 2034 05b4 8EEA000E 		eor	lr, lr, r0
 2035 05b8 C8B2     		uxtb	r0, r1
 2036 05ba 8EEA030E 		eor	lr, lr, r3
 2037 05be 00F54070 		add	r0, r0, #768
 2038 05c2 4FEA1263 		lsr	r3, r2, #24
 2039 05c6 54F82330 		ldr	r3, [r4, r3, lsl #2]
 2040 05ca 54F82000 		ldr	r0, [r4, r0, lsl #2]
 2041 05ce C1F30741 		ubfx	r1, r1, #16, #8
 2042 05d2 80EA0300 		eor	r0, r0, r3
 2043 05d6 6B6E     		ldr	r3, [r5, #100]
 2044 05d8 01F58071 		add	r1, r1, #256
 2045 05dc 80EA0300 		eor	r0, r0, r3
 2046 05e0 C6F30743 		ubfx	r3, r6, #16, #8
 2047 05e4 03F58073 		add	r3, r3, #256
 2048 05e8 54F82330 		ldr	r3, [r4, r3, lsl #2]
 2049 05ec 80EA0300 		eor	r0, r0, r3
 2050 05f0 C9F30723 		ubfx	r3, r9, #8, #8
 2051 05f4 03F50073 		add	r3, r3, #512
 2052 05f8 54F82330 		ldr	r3, [r4, r3, lsl #2]
 2053 05fc 80EA0300 		eor	r0, r0, r3
 2054 0600 5FFA89F3 		uxtb	r3, r9
 2055 0604 03F54073 		add	r3, r3, #768
 2056 0608 54F82330 		ldr	r3, [r4, r3, lsl #2]
 2057 060c 4FEA1969 		lsr	r9, r9, #24
 2058 0610 8CEA030C 		eor	ip, ip, r3
 2059 0614 AB6E     		ldr	r3, [r5, #104]
 2060 0616 8CEA030C 		eor	ip, ip, r3
 2061 061a C2F30743 		ubfx	r3, r2, #16, #8
 2062 061e 03F58073 		add	r3, r3, #256
 2063 0622 54F82330 		ldr	r3, [r4, r3, lsl #2]
 2064 0626 C2F30722 		ubfx	r2, r2, #8, #8
 2065 062a 8CEA030C 		eor	ip, ip, r3
 2066 062e C6F30723 		ubfx	r3, r6, #8, #8
 2067 0632 03F50073 		add	r3, r3, #512
ARM GAS  /tmp/ccVUwbrj.s 			page 37


 2068 0636 54F82330 		ldr	r3, [r4, r3, lsl #2]
 2069 063a F6B2     		uxtb	r6, r6
 2070 063c 06F54076 		add	r6, r6, #768
 2071 0640 8CEA030C 		eor	ip, ip, r3
 2072 0644 54F82930 		ldr	r3, [r4, r9, lsl #2]
 2073 0648 54F82660 		ldr	r6, [r4, r6, lsl #2]
 2074 064c 02F50072 		add	r2, r2, #512
 2075 0650 83EA0609 		eor	r9, r3, r6
 2076 0654 EB6E     		ldr	r3, [r5, #108]
 2077 0656 89EA0309 		eor	r9, r9, r3
 2078 065a 54F82130 		ldr	r3, [r4, r1, lsl #2]
 2079 065e 89EA0309 		eor	r9, r9, r3
 2080 0662 54F82230 		ldr	r3, [r4, r2, lsl #2]
 2081 0666 4FEA1E62 		lsr	r2, lr, #24
 2082 066a 89EA0309 		eor	r9, r9, r3
 2083 066e C3B2     		uxtb	r3, r0
 2084 0670 03F54073 		add	r3, r3, #768
 2085 0674 54F82260 		ldr	r6, [r4, r2, lsl #2]
 2086 0678 54F82320 		ldr	r2, [r4, r3, lsl #2]
 2087 067c C9F30743 		ubfx	r3, r9, #16, #8
 2088 0680 86EA0206 		eor	r6, r6, r2
 2089 0684 2A6F     		ldr	r2, [r5, #112]
 2090 0686 03F58073 		add	r3, r3, #256
 2091 068a 86EA0206 		eor	r6, r6, r2
 2092 068e 54F82320 		ldr	r2, [r4, r3, lsl #2]
 2093 0692 CCF30723 		ubfx	r3, ip, #8, #8
 2094 0696 03F50073 		add	r3, r3, #512
 2095 069a 54F82330 		ldr	r3, [r4, r3, lsl #2]
 2096 069e 86EA0206 		eor	r6, r6, r2
 2097 06a2 5FFA8CF2 		uxtb	r2, ip
 2098 06a6 86EA0306 		eor	r6, r6, r3
 2099 06aa 02F54072 		add	r2, r2, #768
 2100 06ae 4FEA1063 		lsr	r3, r0, #24
 2101 06b2 54F82330 		ldr	r3, [r4, r3, lsl #2]
 2102 06b6 54F82220 		ldr	r2, [r4, r2, lsl #2]
 2103 06ba 5FFA89F1 		uxtb	r1, r9
 2104 06be 82EA0302 		eor	r2, r2, r3
 2105 06c2 6B6F     		ldr	r3, [r5, #116]
 2106 06c4 01F54071 		add	r1, r1, #768
 2107 06c8 82EA0302 		eor	r2, r2, r3
 2108 06cc CEF30743 		ubfx	r3, lr, #16, #8
 2109 06d0 03F58073 		add	r3, r3, #256
 2110 06d4 54F82330 		ldr	r3, [r4, r3, lsl #2]
 2111 06d8 54F82110 		ldr	r1, [r4, r1, lsl #2]
 2112 06dc 82EA0302 		eor	r2, r2, r3
 2113 06e0 C9F30723 		ubfx	r3, r9, #8, #8
 2114 06e4 03F50073 		add	r3, r3, #512
 2115 06e8 54F82330 		ldr	r3, [r4, r3, lsl #2]
 2116 06ec 4FEA1969 		lsr	r9, r9, #24
 2117 06f0 82EA0302 		eor	r2, r2, r3
 2118 06f4 4FEA1C63 		lsr	r3, ip, #24
 2119 06f8 54F82330 		ldr	r3, [r4, r3, lsl #2]
 2120 06fc CCF3074C 		ubfx	ip, ip, #16, #8
 2121 0700 81EA0301 		eor	r1, r1, r3
 2122 0704 AB6F     		ldr	r3, [r5, #120]
 2123 0706 0CF5807C 		add	ip, ip, #256
 2124 070a 81EA0301 		eor	r1, r1, r3
ARM GAS  /tmp/ccVUwbrj.s 			page 38


 2125 070e C0F30743 		ubfx	r3, r0, #16, #8
 2126 0712 03F58073 		add	r3, r3, #256
 2127 0716 54F82330 		ldr	r3, [r4, r3, lsl #2]
 2128 071a C0F30720 		ubfx	r0, r0, #8, #8
 2129 071e 81EA0301 		eor	r1, r1, r3
 2130 0722 CEF30723 		ubfx	r3, lr, #8, #8
 2131 0726 03F50073 		add	r3, r3, #512
 2132 072a 54F82330 		ldr	r3, [r4, r3, lsl #2]
 2133 072e 5FFA8EFE 		uxtb	lr, lr
 2134 0732 0EF5407E 		add	lr, lr, #768
 2135 0736 81EA0301 		eor	r1, r1, r3
 2136 073a 54F82930 		ldr	r3, [r4, r9, lsl #2]
 2137 073e 54F82E90 		ldr	r9, [r4, lr, lsl #2]
 2138 0742 00F50070 		add	r0, r0, #512
 2139 0746 83EA0909 		eor	r9, r3, r9
 2140 074a EB6F     		ldr	r3, [r5, #124]
 2141 074c 4FEA116E 		lsr	lr, r1, #24
 2142 0750 89EA0309 		eor	r9, r9, r3
 2143 0754 54F82C30 		ldr	r3, [r4, ip, lsl #2]
 2144 0758 4FEA126C 		lsr	ip, r2, #24
 2145 075c 89EA0309 		eor	r9, r9, r3
 2146 0760 54F82030 		ldr	r3, [r4, r0, lsl #2]
 2147 0764 4FEA1660 		lsr	r0, r6, #24
 2148 0768 89EA0309 		eor	r9, r9, r3
 2149 076c D3B2     		uxtb	r3, r2
 2150 076e 03F54073 		add	r3, r3, #768
 2151 0772 54F82000 		ldr	r0, [r4, r0, lsl #2]
 2152 0776 54F82330 		ldr	r3, [r4, r3, lsl #2]
 2153 077a 54F82CC0 		ldr	ip, [r4, ip, lsl #2]
 2154 077e 83EA0003 		eor	r3, r3, r0
 2155 0782 D5F88000 		ldr	r0, [r5, #128]
 2156 0786 80EA0300 		eor	r0, r0, r3
 2157 078a C9F30743 		ubfx	r3, r9, #16, #8
 2158 078e 03F58073 		add	r3, r3, #256
 2159 0792 54F82330 		ldr	r3, [r4, r3, lsl #2]
 2160 0796 80EA0300 		eor	r0, r0, r3
 2161 079a C1F30723 		ubfx	r3, r1, #8, #8
 2162 079e 03F50073 		add	r3, r3, #512
 2163 07a2 54F82330 		ldr	r3, [r4, r3, lsl #2]
 2164 07a6 80EA0300 		eor	r0, r0, r3
 2165 07aa CBB2     		uxtb	r3, r1
 2166 07ac 03F54073 		add	r3, r3, #768
 2167 07b0 54F82330 		ldr	r3, [r4, r3, lsl #2]
 2168 07b4 C1F30741 		ubfx	r1, r1, #16, #8
 2169 07b8 8CEA030C 		eor	ip, ip, r3
 2170 07bc D5F88430 		ldr	r3, [r5, #132]
 2171 07c0 54F82EE0 		ldr	lr, [r4, lr, lsl #2]
 2172 07c4 8CEA030C 		eor	ip, ip, r3
 2173 07c8 C6F30743 		ubfx	r3, r6, #16, #8
 2174 07cc 03F58073 		add	r3, r3, #256
 2175 07d0 54F82330 		ldr	r3, [r4, r3, lsl #2]
 2176 07d4 01F58071 		add	r1, r1, #256
 2177 07d8 8CEA030C 		eor	ip, ip, r3
 2178 07dc C9F30723 		ubfx	r3, r9, #8, #8
 2179 07e0 03F50073 		add	r3, r3, #512
 2180 07e4 54F82330 		ldr	r3, [r4, r3, lsl #2]
 2181 07e8 8CEA030C 		eor	ip, ip, r3
ARM GAS  /tmp/ccVUwbrj.s 			page 39


 2182 07ec 5FFA89F3 		uxtb	r3, r9
 2183 07f0 03F54073 		add	r3, r3, #768
 2184 07f4 54F82330 		ldr	r3, [r4, r3, lsl #2]
 2185 07f8 4FEA1969 		lsr	r9, r9, #24
 2186 07fc 8EEA030E 		eor	lr, lr, r3
 2187 0800 D5F88830 		ldr	r3, [r5, #136]
 2188 0804 8EEA030E 		eor	lr, lr, r3
 2189 0808 C2F30743 		ubfx	r3, r2, #16, #8
 2190 080c 03F58073 		add	r3, r3, #256
 2191 0810 54F82330 		ldr	r3, [r4, r3, lsl #2]
 2192 0814 C2F30722 		ubfx	r2, r2, #8, #8
 2193 0818 8EEA030E 		eor	lr, lr, r3
 2194 081c C6F30723 		ubfx	r3, r6, #8, #8
 2195 0820 03F50073 		add	r3, r3, #512
 2196 0824 54F82330 		ldr	r3, [r4, r3, lsl #2]
 2197 0828 F6B2     		uxtb	r6, r6
 2198 082a 06F54076 		add	r6, r6, #768
 2199 082e 8EEA030E 		eor	lr, lr, r3
 2200 0832 54F82660 		ldr	r6, [r4, r6, lsl #2]
 2201 0836 54F82930 		ldr	r3, [r4, r9, lsl #2]
 2202 083a 02F50072 		add	r2, r2, #512
 2203 083e 86EA0306 		eor	r6, r6, r3
 2204 0842 D5F88C30 		ldr	r3, [r5, #140]
 2205 0846 4FEA1E69 		lsr	r9, lr, #24
 2206 084a 86EA0306 		eor	r6, r6, r3
 2207 084e 54F82130 		ldr	r3, [r4, r1, lsl #2]
 2208 0852 54F82990 		ldr	r9, [r4, r9, lsl #2]
 2209 0856 86EA0306 		eor	r6, r6, r3
 2210 085a 54F82230 		ldr	r3, [r4, r2, lsl #2]
 2211 085e 4FEA1062 		lsr	r2, r0, #24
 2212 0862 86EA0306 		eor	r6, r6, r3
 2213 0866 5FFA8CF3 		uxtb	r3, ip
 2214 086a 03F54073 		add	r3, r3, #768
 2215 086e 54F82210 		ldr	r1, [r4, r2, lsl #2]
 2216 0872 54F82320 		ldr	r2, [r4, r3, lsl #2]
 2217 0876 C6F30743 		ubfx	r3, r6, #16, #8
 2218 087a 81EA0201 		eor	r1, r1, r2
 2219 087e D5F89020 		ldr	r2, [r5, #144]
 2220 0882 03F58073 		add	r3, r3, #256
 2221 0886 81EA0201 		eor	r1, r1, r2
 2222 088a 54F82320 		ldr	r2, [r4, r3, lsl #2]
 2223 088e CEF30723 		ubfx	r3, lr, #8, #8
 2224 0892 03F50073 		add	r3, r3, #512
 2225 0896 54F82330 		ldr	r3, [r4, r3, lsl #2]
 2226 089a 81EA0201 		eor	r1, r1, r2
 2227 089e 5FFA8EF2 		uxtb	r2, lr
 2228 08a2 81EA0301 		eor	r1, r1, r3
 2229 08a6 02F54072 		add	r2, r2, #768
 2230 08aa 4FEA1C63 		lsr	r3, ip, #24
 2231 08ae 54F82330 		ldr	r3, [r4, r3, lsl #2]
 2232 08b2 54F82220 		ldr	r2, [r4, r2, lsl #2]
 2233 08b6 CEF3074E 		ubfx	lr, lr, #16, #8
 2234 08ba 82EA0302 		eor	r2, r2, r3
 2235 08be D5F89430 		ldr	r3, [r5, #148]
 2236 08c2 0EF5807E 		add	lr, lr, #256
 2237 08c6 82EA0302 		eor	r2, r2, r3
 2238 08ca C0F30743 		ubfx	r3, r0, #16, #8
ARM GAS  /tmp/ccVUwbrj.s 			page 40


 2239 08ce 03F58073 		add	r3, r3, #256
 2240 08d2 54F82330 		ldr	r3, [r4, r3, lsl #2]
 2241 08d6 82EA0302 		eor	r2, r2, r3
 2242 08da C6F30723 		ubfx	r3, r6, #8, #8
 2243 08de 03F50073 		add	r3, r3, #512
 2244 08e2 54F82330 		ldr	r3, [r4, r3, lsl #2]
 2245 08e6 82EA0302 		eor	r2, r2, r3
 2246 08ea F3B2     		uxtb	r3, r6
 2247 08ec 03F54073 		add	r3, r3, #768
 2248 08f0 54F82330 		ldr	r3, [r4, r3, lsl #2]
 2249 08f4 4FEA1666 		lsr	r6, r6, #24
 2250 08f8 89EA0309 		eor	r9, r9, r3
 2251 08fc D5F89830 		ldr	r3, [r5, #152]
 2252 0900 54F82660 		ldr	r6, [r4, r6, lsl #2]
 2253 0904 89EA0303 		eor	r3, r9, r3
 2254 0908 CCF30749 		ubfx	r9, ip, #16, #8
 2255 090c 09F58079 		add	r9, r9, #256
 2256 0910 54F82990 		ldr	r9, [r4, r9, lsl #2]
 2257 0914 CCF3072C 		ubfx	ip, ip, #8, #8
 2258 0918 83EA0903 		eor	r3, r3, r9
 2259 091c C0F30729 		ubfx	r9, r0, #8, #8
 2260 0920 C0B2     		uxtb	r0, r0
 2261 0922 00F54070 		add	r0, r0, #768
 2262 0926 54F82000 		ldr	r0, [r4, r0, lsl #2]
 2263 092a 09F50079 		add	r9, r9, #512
 2264 092e 86EA0006 		eor	r6, r6, r0
 2265 0932 D5F89C00 		ldr	r0, [r5, #156]
 2266 0936 0CF5007C 		add	ip, ip, #512
 2267 093a 86EA0006 		eor	r6, r6, r0
 2268 093e 54F82E00 		ldr	r0, [r4, lr, lsl #2]
 2269 0942 54F82990 		ldr	r9, [r4, r9, lsl #2]
 2270 0946 86EA0006 		eor	r6, r6, r0
 2271 094a 54F82C00 		ldr	r0, [r4, ip, lsl #2]
 2272 094e 83EA0903 		eor	r3, r3, r9
 2273 0952 86EA0006 		eor	r6, r6, r0
 2274 0956 40F2E881 		bls	.L90
 2275 095a 5FFA82FC 		uxtb	ip, r2
 2276 095e 080E     		lsrs	r0, r1, #24
 2277 0960 0CF5407C 		add	ip, ip, #768
 2278 0964 54F82000 		ldr	r0, [r4, r0, lsl #2]
 2279 0968 54F82CE0 		ldr	lr, [r4, ip, lsl #2]
 2280 096c 4FEA126C 		lsr	ip, r2, #24
 2281 0970 80EA0E0E 		eor	lr, r0, lr
 2282 0974 D5F8A000 		ldr	r0, [r5, #160]
 2283 0978 54F82CC0 		ldr	ip, [r4, ip, lsl #2]
 2284 097c 8EEA000E 		eor	lr, lr, r0
 2285 0980 C6F30740 		ubfx	r0, r6, #16, #8
 2286 0984 00F58070 		add	r0, r0, #256
 2287 0988 54F82000 		ldr	r0, [r4, r0, lsl #2]
 2288 098c 4FEA1369 		lsr	r9, r3, #24
 2289 0990 8EEA000E 		eor	lr, lr, r0
 2290 0994 C3F30720 		ubfx	r0, r3, #8, #8
 2291 0998 00F50070 		add	r0, r0, #512
 2292 099c 54F82000 		ldr	r0, [r4, r0, lsl #2]
 2293 09a0 54F82990 		ldr	r9, [r4, r9, lsl #2]
 2294 09a4 8EEA000E 		eor	lr, lr, r0
 2295 09a8 D8B2     		uxtb	r0, r3
ARM GAS  /tmp/ccVUwbrj.s 			page 41


 2296 09aa 00F54070 		add	r0, r0, #768
 2297 09ae 54F82000 		ldr	r0, [r4, r0, lsl #2]
 2298 09b2 C3F30743 		ubfx	r3, r3, #16, #8
 2299 09b6 8CEA000C 		eor	ip, ip, r0
 2300 09ba D5F8A400 		ldr	r0, [r5, #164]
 2301 09be 03F58073 		add	r3, r3, #256
 2302 09c2 8CEA000C 		eor	ip, ip, r0
 2303 09c6 C1F30740 		ubfx	r0, r1, #16, #8
 2304 09ca 00F58070 		add	r0, r0, #256
 2305 09ce 54F82000 		ldr	r0, [r4, r0, lsl #2]
 2306 09d2 BAF1060F 		cmp	r10, #6
 2307 09d6 8CEA000C 		eor	ip, ip, r0
 2308 09da C6F30720 		ubfx	r0, r6, #8, #8
 2309 09de 00F50070 		add	r0, r0, #512
 2310 09e2 54F82000 		ldr	r0, [r4, r0, lsl #2]
 2311 09e6 8CEA000C 		eor	ip, ip, r0
 2312 09ea F0B2     		uxtb	r0, r6
 2313 09ec 00F54070 		add	r0, r0, #768
 2314 09f0 54F82000 		ldr	r0, [r4, r0, lsl #2]
 2315 09f4 4FEA1666 		lsr	r6, r6, #24
 2316 09f8 89EA0009 		eor	r9, r9, r0
 2317 09fc D5F8A800 		ldr	r0, [r5, #168]
 2318 0a00 54F82660 		ldr	r6, [r4, r6, lsl #2]
 2319 0a04 89EA0000 		eor	r0, r9, r0
 2320 0a08 C2F30749 		ubfx	r9, r2, #16, #8
 2321 0a0c 09F58079 		add	r9, r9, #256
 2322 0a10 54F82990 		ldr	r9, [r4, r9, lsl #2]
 2323 0a14 C2F30722 		ubfx	r2, r2, #8, #8
 2324 0a18 80EA0900 		eor	r0, r0, r9
 2325 0a1c C1F30729 		ubfx	r9, r1, #8, #8
 2326 0a20 C9B2     		uxtb	r1, r1
 2327 0a22 01F54071 		add	r1, r1, #768
 2328 0a26 54F82110 		ldr	r1, [r4, r1, lsl #2]
 2329 0a2a 02F50072 		add	r2, r2, #512
 2330 0a2e 86EA0106 		eor	r6, r6, r1
 2331 0a32 D5F8AC10 		ldr	r1, [r5, #172]
 2332 0a36 09F50079 		add	r9, r9, #512
 2333 0a3a 86EA0106 		eor	r6, r6, r1
 2334 0a3e 54F82310 		ldr	r1, [r4, r3, lsl #2]
 2335 0a42 5FFA8CF3 		uxtb	r3, ip
 2336 0a46 86EA0106 		eor	r6, r6, r1
 2337 0a4a 54F82210 		ldr	r1, [r4, r2, lsl #2]
 2338 0a4e 03F54073 		add	r3, r3, #768
 2339 0a52 4FEA1E62 		lsr	r2, lr, #24
 2340 0a56 86EA0106 		eor	r6, r6, r1
 2341 0a5a 54F82330 		ldr	r3, [r4, r3, lsl #2]
 2342 0a5e 54F82210 		ldr	r1, [r4, r2, lsl #2]
 2343 0a62 54F82990 		ldr	r9, [r4, r9, lsl #2]
 2344 0a66 81EA0301 		eor	r1, r1, r3
 2345 0a6a D5F8B030 		ldr	r3, [r5, #176]
 2346 0a6e 80EA0900 		eor	r0, r0, r9
 2347 0a72 81EA0301 		eor	r1, r1, r3
 2348 0a76 C6F30743 		ubfx	r3, r6, #16, #8
 2349 0a7a 03F58073 		add	r3, r3, #256
 2350 0a7e 54F82330 		ldr	r3, [r4, r3, lsl #2]
 2351 0a82 C2B2     		uxtb	r2, r0
 2352 0a84 81EA0301 		eor	r1, r1, r3
ARM GAS  /tmp/ccVUwbrj.s 			page 42


 2353 0a88 C0F30723 		ubfx	r3, r0, #8, #8
 2354 0a8c 03F50073 		add	r3, r3, #512
 2355 0a90 54F82330 		ldr	r3, [r4, r3, lsl #2]
 2356 0a94 02F54072 		add	r2, r2, #768
 2357 0a98 81EA0301 		eor	r1, r1, r3
 2358 0a9c 4FEA1C63 		lsr	r3, ip, #24
 2359 0aa0 54F82330 		ldr	r3, [r4, r3, lsl #2]
 2360 0aa4 54F82220 		ldr	r2, [r4, r2, lsl #2]
 2361 0aa8 4FEA1069 		lsr	r9, r0, #24
 2362 0aac 82EA0302 		eor	r2, r2, r3
 2363 0ab0 D5F8B430 		ldr	r3, [r5, #180]
 2364 0ab4 54F82990 		ldr	r9, [r4, r9, lsl #2]
 2365 0ab8 82EA0302 		eor	r2, r2, r3
 2366 0abc CEF30743 		ubfx	r3, lr, #16, #8
 2367 0ac0 03F58073 		add	r3, r3, #256
 2368 0ac4 54F82330 		ldr	r3, [r4, r3, lsl #2]
 2369 0ac8 C0F30740 		ubfx	r0, r0, #16, #8
 2370 0acc 82EA0302 		eor	r2, r2, r3
 2371 0ad0 C6F30723 		ubfx	r3, r6, #8, #8
 2372 0ad4 03F50073 		add	r3, r3, #512
 2373 0ad8 54F82330 		ldr	r3, [r4, r3, lsl #2]
 2374 0adc 00F58070 		add	r0, r0, #256
 2375 0ae0 82EA0302 		eor	r2, r2, r3
 2376 0ae4 F3B2     		uxtb	r3, r6
 2377 0ae6 03F54073 		add	r3, r3, #768
 2378 0aea 54F82330 		ldr	r3, [r4, r3, lsl #2]
 2379 0aee 4FEA1666 		lsr	r6, r6, #24
 2380 0af2 89EA0309 		eor	r9, r9, r3
 2381 0af6 D5F8B830 		ldr	r3, [r5, #184]
 2382 0afa 54F82660 		ldr	r6, [r4, r6, lsl #2]
 2383 0afe 89EA0303 		eor	r3, r9, r3
 2384 0b02 CCF30749 		ubfx	r9, ip, #16, #8
 2385 0b06 09F58079 		add	r9, r9, #256
 2386 0b0a 54F82990 		ldr	r9, [r4, r9, lsl #2]
 2387 0b0e 54F82000 		ldr	r0, [r4, r0, lsl #2]
 2388 0b12 83EA0903 		eor	r3, r3, r9
 2389 0b16 CEF30729 		ubfx	r9, lr, #8, #8
 2390 0b1a 5FFA8EFE 		uxtb	lr, lr
 2391 0b1e 0EF5407E 		add	lr, lr, #768
 2392 0b22 54F82EE0 		ldr	lr, [r4, lr, lsl #2]
 2393 0b26 CCF3072C 		ubfx	ip, ip, #8, #8
 2394 0b2a 86EA0E0E 		eor	lr, r6, lr
 2395 0b2e D5F8BC60 		ldr	r6, [r5, #188]
 2396 0b32 09F50079 		add	r9, r9, #512
 2397 0b36 8EEA0606 		eor	r6, lr, r6
 2398 0b3a 0CF5007C 		add	ip, ip, #512
 2399 0b3e 86EA0006 		eor	r6, r6, r0
 2400 0b42 54F82990 		ldr	r9, [r4, r9, lsl #2]
 2401 0b46 54F82C00 		ldr	r0, [r4, ip, lsl #2]
 2402 0b4a 83EA0903 		eor	r3, r3, r9
 2403 0b4e 86EA0006 		eor	r6, r6, r0
 2404 0b52 00F0EA80 		beq	.L90
 2405 0b56 5FFA82FC 		uxtb	ip, r2
 2406 0b5a 080E     		lsrs	r0, r1, #24
 2407 0b5c 0CF5407C 		add	ip, ip, #768
 2408 0b60 54F82000 		ldr	r0, [r4, r0, lsl #2]
 2409 0b64 54F82CE0 		ldr	lr, [r4, ip, lsl #2]
ARM GAS  /tmp/ccVUwbrj.s 			page 43


 2410 0b68 4FEA126C 		lsr	ip, r2, #24
 2411 0b6c 80EA0E0E 		eor	lr, r0, lr
 2412 0b70 D5F8C000 		ldr	r0, [r5, #192]
 2413 0b74 54F82CC0 		ldr	ip, [r4, ip, lsl #2]
 2414 0b78 8EEA000E 		eor	lr, lr, r0
 2415 0b7c C6F30740 		ubfx	r0, r6, #16, #8
 2416 0b80 00F58070 		add	r0, r0, #256
 2417 0b84 54F82000 		ldr	r0, [r4, r0, lsl #2]
 2418 0b88 4FEA1369 		lsr	r9, r3, #24
 2419 0b8c 8EEA000E 		eor	lr, lr, r0
 2420 0b90 C3F30720 		ubfx	r0, r3, #8, #8
 2421 0b94 00F50070 		add	r0, r0, #512
 2422 0b98 54F82000 		ldr	r0, [r4, r0, lsl #2]
 2423 0b9c 54F82990 		ldr	r9, [r4, r9, lsl #2]
 2424 0ba0 8EEA000E 		eor	lr, lr, r0
 2425 0ba4 D8B2     		uxtb	r0, r3
 2426 0ba6 00F54070 		add	r0, r0, #768
 2427 0baa 54F82000 		ldr	r0, [r4, r0, lsl #2]
 2428 0bae C3F30743 		ubfx	r3, r3, #16, #8
 2429 0bb2 8CEA000C 		eor	ip, ip, r0
 2430 0bb6 D5F8C400 		ldr	r0, [r5, #196]
 2431 0bba 03F58073 		add	r3, r3, #256
 2432 0bbe 8CEA000C 		eor	ip, ip, r0
 2433 0bc2 C1F30740 		ubfx	r0, r1, #16, #8
 2434 0bc6 00F58070 		add	r0, r0, #256
 2435 0bca 54F82000 		ldr	r0, [r4, r0, lsl #2]
 2436 0bce 8CEA000C 		eor	ip, ip, r0
 2437 0bd2 C6F30720 		ubfx	r0, r6, #8, #8
 2438 0bd6 00F50070 		add	r0, r0, #512
 2439 0bda 54F82000 		ldr	r0, [r4, r0, lsl #2]
 2440 0bde 8CEA000C 		eor	ip, ip, r0
 2441 0be2 F0B2     		uxtb	r0, r6
 2442 0be4 00F54070 		add	r0, r0, #768
 2443 0be8 54F82000 		ldr	r0, [r4, r0, lsl #2]
 2444 0bec 360E     		lsrs	r6, r6, #24
 2445 0bee 89EA0009 		eor	r9, r9, r0
 2446 0bf2 D5F8C800 		ldr	r0, [r5, #200]
 2447 0bf6 54F82660 		ldr	r6, [r4, r6, lsl #2]
 2448 0bfa 89EA0000 		eor	r0, r9, r0
 2449 0bfe C2F30749 		ubfx	r9, r2, #16, #8
 2450 0c02 09F58079 		add	r9, r9, #256
 2451 0c06 54F82990 		ldr	r9, [r4, r9, lsl #2]
 2452 0c0a C2F30722 		ubfx	r2, r2, #8, #8
 2453 0c0e 80EA0900 		eor	r0, r0, r9
 2454 0c12 C1F30729 		ubfx	r9, r1, #8, #8
 2455 0c16 C9B2     		uxtb	r1, r1
 2456 0c18 01F54071 		add	r1, r1, #768
 2457 0c1c 54F82110 		ldr	r1, [r4, r1, lsl #2]
 2458 0c20 02F50072 		add	r2, r2, #512
 2459 0c24 4E40     		eors	r6, r6, r1
 2460 0c26 D5F8CC10 		ldr	r1, [r5, #204]
 2461 0c2a 09F50079 		add	r9, r9, #512
 2462 0c2e 4E40     		eors	r6, r6, r1
 2463 0c30 54F82310 		ldr	r1, [r4, r3, lsl #2]
 2464 0c34 5FFA8CF3 		uxtb	r3, ip
 2465 0c38 4E40     		eors	r6, r6, r1
 2466 0c3a 54F82210 		ldr	r1, [r4, r2, lsl #2]
ARM GAS  /tmp/ccVUwbrj.s 			page 44


 2467 0c3e 03F54073 		add	r3, r3, #768
 2468 0c42 4FEA1E62 		lsr	r2, lr, #24
 2469 0c46 4E40     		eors	r6, r6, r1
 2470 0c48 54F82330 		ldr	r3, [r4, r3, lsl #2]
 2471 0c4c 54F82210 		ldr	r1, [r4, r2, lsl #2]
 2472 0c50 54F82990 		ldr	r9, [r4, r9, lsl #2]
 2473 0c54 5940     		eors	r1, r1, r3
 2474 0c56 D5F8D030 		ldr	r3, [r5, #208]
 2475 0c5a 80EA0900 		eor	r0, r0, r9
 2476 0c5e 5940     		eors	r1, r1, r3
 2477 0c60 C6F30743 		ubfx	r3, r6, #16, #8
 2478 0c64 03F58073 		add	r3, r3, #256
 2479 0c68 54F82330 		ldr	r3, [r4, r3, lsl #2]
 2480 0c6c C2B2     		uxtb	r2, r0
 2481 0c6e 5940     		eors	r1, r1, r3
 2482 0c70 C0F30723 		ubfx	r3, r0, #8, #8
 2483 0c74 03F50073 		add	r3, r3, #512
 2484 0c78 54F82330 		ldr	r3, [r4, r3, lsl #2]
 2485 0c7c 02F54072 		add	r2, r2, #768
 2486 0c80 5940     		eors	r1, r1, r3
 2487 0c82 4FEA1C63 		lsr	r3, ip, #24
 2488 0c86 54F82330 		ldr	r3, [r4, r3, lsl #2]
 2489 0c8a 54F82220 		ldr	r2, [r4, r2, lsl #2]
 2490 0c8e 4FEA1069 		lsr	r9, r0, #24
 2491 0c92 5A40     		eors	r2, r2, r3
 2492 0c94 D5F8D430 		ldr	r3, [r5, #212]
 2493 0c98 54F82990 		ldr	r9, [r4, r9, lsl #2]
 2494 0c9c 5A40     		eors	r2, r2, r3
 2495 0c9e CEF30743 		ubfx	r3, lr, #16, #8
 2496 0ca2 03F58073 		add	r3, r3, #256
 2497 0ca6 54F82330 		ldr	r3, [r4, r3, lsl #2]
 2498 0caa C0F30740 		ubfx	r0, r0, #16, #8
 2499 0cae 5A40     		eors	r2, r2, r3
 2500 0cb0 C6F30723 		ubfx	r3, r6, #8, #8
 2501 0cb4 03F50073 		add	r3, r3, #512
 2502 0cb8 54F82330 		ldr	r3, [r4, r3, lsl #2]
 2503 0cbc 00F58070 		add	r0, r0, #256
 2504 0cc0 5A40     		eors	r2, r2, r3
 2505 0cc2 F3B2     		uxtb	r3, r6
 2506 0cc4 03F54073 		add	r3, r3, #768
 2507 0cc8 54F82330 		ldr	r3, [r4, r3, lsl #2]
 2508 0ccc 360E     		lsrs	r6, r6, #24
 2509 0cce 89EA0309 		eor	r9, r9, r3
 2510 0cd2 D5F8D830 		ldr	r3, [r5, #216]
 2511 0cd6 54F82660 		ldr	r6, [r4, r6, lsl #2]
 2512 0cda 89EA0303 		eor	r3, r9, r3
 2513 0cde CCF30749 		ubfx	r9, ip, #16, #8
 2514 0ce2 09F58079 		add	r9, r9, #256
 2515 0ce6 54F82990 		ldr	r9, [r4, r9, lsl #2]
 2516 0cea 54F82000 		ldr	r0, [r4, r0, lsl #2]
 2517 0cee 83EA0903 		eor	r3, r3, r9
 2518 0cf2 CEF30729 		ubfx	r9, lr, #8, #8
 2519 0cf6 5FFA8EFE 		uxtb	lr, lr
 2520 0cfa 0EF5407E 		add	lr, lr, #768
 2521 0cfe 54F82EE0 		ldr	lr, [r4, lr, lsl #2]
 2522 0d02 CCF3072C 		ubfx	ip, ip, #8, #8
 2523 0d06 86EA0E0E 		eor	lr, r6, lr
ARM GAS  /tmp/ccVUwbrj.s 			page 45


 2524 0d0a D5F8DC60 		ldr	r6, [r5, #220]
 2525 0d0e 09F50079 		add	r9, r9, #512
 2526 0d12 8EEA0606 		eor	r6, lr, r6
 2527 0d16 0CF5007C 		add	ip, ip, #512
 2528 0d1a 4640     		eors	r6, r6, r0
 2529 0d1c 54F82990 		ldr	r9, [r4, r9, lsl #2]
 2530 0d20 54F82C00 		ldr	r0, [r4, ip, lsl #2]
 2531 0d24 83EA0903 		eor	r3, r3, r9
 2532 0d28 4640     		eors	r6, r6, r0
 2533              	.L90:
 2534 0d2a 100E     		lsrs	r0, r2, #24
 2535 0d2c 05EB4A1E 		add	lr, r5, r10, lsl #5
 2536 0d30 4FEA4A1C 		lsl	ip, r10, #5
 2537 0d34 17F800A0 		ldrb	r10, [r7, r0]	@ zero_extendqisi2
 2538 0d38 D8B2     		uxtb	r0, r3
 2539 0d3a 385C     		ldrb	r0, [r7, r0]	@ zero_extendqisi2
 2540 0d3c C1F30749 		ubfx	r9, r1, #16, #8
 2541 0d40 40EA0A60 		orr	r0, r0, r10, lsl #24
 2542 0d44 17F809A0 		ldrb	r10, [r7, r9]	@ zero_extendqisi2
 2543 0d48 C6F30729 		ubfx	r9, r6, #8, #8
 2544 0d4c 40EA0A40 		orr	r0, r0, r10, lsl #16
 2545 0d50 17F809A0 		ldrb	r10, [r7, r9]	@ zero_extendqisi2
 2546 0d54 C2F30749 		ubfx	r9, r2, #16, #8
 2547 0d58 40EA0A2A 		orr	r10, r0, r10, lsl #8
 2548 0d5c DEF80400 		ldr	r0, [lr, #4]
 2549 0d60 8AEA000A 		eor	r10, r10, r0
 2550 0d64 180E     		lsrs	r0, r3, #24
 2551 0d66 17F800B0 		ldrb	fp, [r7, r0]	@ zero_extendqisi2
 2552 0d6a F0B2     		uxtb	r0, r6
 2553 0d6c 385C     		ldrb	r0, [r7, r0]	@ zero_extendqisi2
 2554 0d6e 40EA0B60 		orr	r0, r0, fp, lsl #24
 2555 0d72 17F809B0 		ldrb	fp, [r7, r9]	@ zero_extendqisi2
 2556 0d76 C1F30729 		ubfx	r9, r1, #8, #8
 2557 0d7a 40EA0B40 		orr	r0, r0, fp, lsl #16
 2558 0d7e 17F809B0 		ldrb	fp, [r7, r9]	@ zero_extendqisi2
 2559 0d82 40EA0B2B 		orr	fp, r0, fp, lsl #8
 2560 0d86 DEF80800 		ldr	r0, [lr, #8]
 2561 0d8a 8BEA000B 		eor	fp, fp, r0
 2562 0d8e 300E     		lsrs	r0, r6, #24
 2563 0d90 17F80090 		ldrb	r9, [r7, r0]	@ zero_extendqisi2
 2564 0d94 C8B2     		uxtb	r0, r1
 2565 0d96 385C     		ldrb	r0, [r7, r0]	@ zero_extendqisi2
 2566 0d98 090E     		lsrs	r1, r1, #24
 2567 0d9a 40EA0960 		orr	r0, r0, r9, lsl #24
 2568 0d9e C3F30749 		ubfx	r9, r3, #16, #8
 2569 0da2 17F80990 		ldrb	r9, [r7, r9]	@ zero_extendqisi2
 2570 0da6 C6F30746 		ubfx	r6, r6, #16, #8
 2571 0daa 40EA0940 		orr	r0, r0, r9, lsl #16
 2572 0dae C2F30729 		ubfx	r9, r2, #8, #8
 2573 0db2 17F80990 		ldrb	r9, [r7, r9]	@ zero_extendqisi2
 2574 0db6 D2B2     		uxtb	r2, r2
 2575 0db8 40EA0929 		orr	r9, r0, r9, lsl #8
 2576 0dbc DEF80C00 		ldr	r0, [lr, #12]
 2577 0dc0 BA5C     		ldrb	r2, [r7, r2]	@ zero_extendqisi2
 2578 0dc2 89EA0009 		eor	r9, r9, r0
 2579 0dc6 785C     		ldrb	r0, [r7, r1]	@ zero_extendqisi2
 2580 0dc8 C3F30723 		ubfx	r3, r3, #8, #8
ARM GAS  /tmp/ccVUwbrj.s 			page 46


 2581 0dcc 42EA0060 		orr	r0, r2, r0, lsl #24
 2582 0dd0 BA5D     		ldrb	r2, [r7, r6]	@ zero_extendqisi2
 2583 0dd2 05F1F806 		add	r6, r5, #248
 2584 0dd6 40EA0240 		orr	r0, r0, r2, lsl #16
 2585 0dda FA5C     		ldrb	r2, [r7, r3]	@ zero_extendqisi2
 2586 0ddc 55F80C30 		ldr	r3, [r5, ip]
 2587 0de0 40EA0220 		orr	r0, r0, r2, lsl #8
 2588 0de4 5840     		eors	r0, r0, r3
 2589 0de6 FFF7FEFF 		bl	ByteReverseWord32
 2590 0dea 0346     		mov	r3, r0
 2591 0dec 5046     		mov	r0, r10
 2592 0dee FFF7FEFF 		bl	ByteReverseWord32
 2593 0df2 0246     		mov	r2, r0
 2594 0df4 5846     		mov	r0, fp
 2595 0df6 FFF7FEFF 		bl	ByteReverseWord32
 2596 0dfa 0146     		mov	r1, r0
 2597 0dfc 4846     		mov	r0, r9
 2598 0dfe FFF7FEFF 		bl	ByteReverseWord32
 2599 0e02 C8F80030 		str	r3, [r8]	@ unaligned
 2600 0e06 C8F80420 		str	r2, [r8, #4]	@ unaligned
 2601 0e0a C8F80810 		str	r1, [r8, #8]	@ unaligned
 2602 0e0e C8F80C00 		str	r0, [r8, #12]	@ unaligned
 2603 0e12 3146     		mov	r1, r6
 2604 0e14 4046     		mov	r0, r8
 2605 0e16 FFF7FEFF 		bl	xorbuf.constprop.0
 2606 0e1a 029B     		ldr	r3, [sp, #8]
 2607 0e1c 1A46     		mov	r2, r3
 2608 0e1e 1032     		adds	r2, r2, #16
 2609              	.L91:
 2610 0e20 53F8041B 		ldr	r1, [r3], #4	@ unaligned
 2611 0e24 9342     		cmp	r3, r2
 2612 0e26 46F8041B 		str	r1, [r6], #4	@ unaligned
 2613 0e2a F9D1     		bne	.L91
 2614 0e2c 019B     		ldr	r3, [sp, #4]
 2615 0e2e 08F11008 		add	r8, r8, #16
 2616 0e32 1033     		adds	r3, r3, #16
 2617 0e34 0193     		str	r3, [sp, #4]
 2618 0e36 FFF703B9 		b	.L88
 2619              	.L97:
 2620 0e3a 6FF0AC00 		mvn	r0, #172
 2621 0e3e FFF7F0B8 		b	.L85
 2622              	.L98:
 2623 0e42 6FF0E100 		mvn	r0, #225
 2624 0e46 FFF7ECB8 		b	.L85
 2626 0e4a 00BF     		.section	.text.wc_AesInit,"ax",%progbits
 2627              		.align	1
 2628              		.global	wc_AesInit
 2629              		.syntax unified
 2630              		.thumb
 2631              		.thumb_func
 2632              		.fpu fpv4-sp-d16
 2634              	wc_AesInit:
 2635              		@ args = 0, pretend = 0, frame = 0
 2636              		@ frame_needed = 0, uses_anonymous_args = 0
 2637 0000 38B5     		push	{r3, r4, r5, lr}
 2638 0002 0D46     		mov	r5, r1
 2639 0004 0446     		mov	r4, r0
ARM GAS  /tmp/ccVUwbrj.s 			page 47


 2640 0006 40B1     		cbz	r0, .L109
 2641 0008 4FF48E72 		mov	r2, #284
 2642 000c 0021     		movs	r1, #0
 2643 000e FFF7FEFF 		bl	memset
 2644 0012 0020     		movs	r0, #0
 2645 0014 C4F81851 		str	r5, [r4, #280]
 2646              	.L107:
 2647 0018 38BD     		pop	{r3, r4, r5, pc}
 2648              	.L109:
 2649 001a 6FF0AC00 		mvn	r0, #172
 2650 001e FBE7     		b	.L107
 2652              		.section	.text.wc_AesNew,"ax",%progbits
 2653              		.align	1
 2654              		.global	wc_AesNew
 2655              		.syntax unified
 2656              		.thumb
 2657              		.thumb_func
 2658              		.fpu fpv4-sp-d16
 2660              	wc_AesNew:
 2661              		@ args = 0, pretend = 0, frame = 0
 2662              		@ frame_needed = 0, uses_anonymous_args = 0
 2663 0000 F8B5     		push	{r3, r4, r5, r6, r7, lr}
 2664 0002 0546     		mov	r5, r0
 2665 0004 4FF48E70 		mov	r0, #284
 2666 0008 0F46     		mov	r7, r1
 2667 000a 1646     		mov	r6, r2
 2668 000c FFF7FEFF 		bl	wolfSSL_Malloc
 2669 0010 0446     		mov	r4, r0
 2670 0012 68B1     		cbz	r0, .L113
 2671 0014 2946     		mov	r1, r5
 2672 0016 3A46     		mov	r2, r7
 2673 0018 FFF7FEFF 		bl	wc_AesInit
 2674 001c 0546     		mov	r5, r0
 2675 001e 18B1     		cbz	r0, .L111
 2676 0020 2046     		mov	r0, r4
 2677 0022 FFF7FEFF 		bl	wolfSSL_Free
 2678 0026 0024     		movs	r4, #0
 2679              	.L111:
 2680 0028 06B1     		cbz	r6, .L110
 2681 002a 3560     		str	r5, [r6]
 2682              	.L110:
 2683 002c 2046     		mov	r0, r4
 2684 002e F8BD     		pop	{r3, r4, r5, r6, r7, pc}
 2685              	.L113:
 2686 0030 6FF07C05 		mvn	r5, #124
 2687 0034 F8E7     		b	.L111
 2689              		.section	.text.wc_AesFree,"ax",%progbits
 2690              		.align	1
 2691              		.global	wc_AesFree
 2692              		.syntax unified
 2693              		.thumb
 2694              		.thumb_func
 2695              		.fpu fpv4-sp-d16
 2697              	wc_AesFree:
 2698              		@ args = 0, pretend = 0, frame = 0
 2699              		@ frame_needed = 0, uses_anonymous_args = 0
 2700              		@ link register save eliminated.
ARM GAS  /tmp/ccVUwbrj.s 			page 48


 2701 0000 18B1     		cbz	r0, .L120
 2702 0002 4FF48E71 		mov	r1, #284
 2703 0006 FFF7FEBF 		b	ForceZero
 2704              	.L120:
 2705 000a 7047     		bx	lr
 2707              		.section	.text.wc_AesDelete,"ax",%progbits
 2708              		.align	1
 2709              		.global	wc_AesDelete
 2710              		.syntax unified
 2711              		.thumb
 2712              		.thumb_func
 2713              		.fpu fpv4-sp-d16
 2715              	wc_AesDelete:
 2716              		@ args = 0, pretend = 0, frame = 0
 2717              		@ frame_needed = 0, uses_anonymous_args = 0
 2718 0000 38B5     		push	{r3, r4, r5, lr}
 2719 0002 0C46     		mov	r4, r1
 2720 0004 0546     		mov	r5, r0
 2721 0006 40B1     		cbz	r0, .L124
 2722 0008 FFF7FEFF 		bl	wc_AesFree
 2723 000c 2846     		mov	r0, r5
 2724 000e FFF7FEFF 		bl	wolfSSL_Free
 2725 0012 0020     		movs	r0, #0
 2726 0014 24B1     		cbz	r4, .L125
 2727 0016 2060     		str	r0, [r4]
 2728              	.L122:
 2729 0018 38BD     		pop	{r3, r4, r5, pc}
 2730              	.L124:
 2731 001a 6FF0AC00 		mvn	r0, #172
 2732 001e FBE7     		b	.L122
 2733              	.L125:
 2734 0020 2046     		mov	r0, r4
 2735 0022 F9E7     		b	.L122
 2737              		.section	.text.wc_AesGetKeySize,"ax",%progbits
 2738              		.align	1
 2739              		.global	wc_AesGetKeySize
 2740              		.syntax unified
 2741              		.thumb
 2742              		.thumb_func
 2743              		.fpu fpv4-sp-d16
 2745              	wc_AesGetKeySize:
 2746              		@ args = 0, pretend = 0, frame = 0
 2747              		@ frame_needed = 0, uses_anonymous_args = 0
 2748              		@ link register save eliminated.
 2749 0000 A0B1     		cbz	r0, .L132
 2750 0002 99B1     		cbz	r1, .L132
 2751 0004 D0F8F030 		ldr	r3, [r0, #240]
 2752 0008 0C2B     		cmp	r3, #12
 2753 000a 08D0     		beq	.L128
 2754 000c 0E2B     		cmp	r3, #14
 2755 000e 4FF00000 		mov	r0, #0
 2756 0012 08D0     		beq	.L129
 2757 0014 0A2B     		cmp	r3, #10
 2758 0016 08D1     		bne	.L130
 2759 0018 1023     		movs	r3, #16
 2760              	.L133:
 2761 001a 0B60     		str	r3, [r1]
ARM GAS  /tmp/ccVUwbrj.s 			page 49


 2762 001c 7047     		bx	lr
 2763              	.L128:
 2764 001e 1823     		movs	r3, #24
 2765 0020 0020     		movs	r0, #0
 2766 0022 0B60     		str	r3, [r1]
 2767 0024 7047     		bx	lr
 2768              	.L129:
 2769 0026 2023     		movs	r3, #32
 2770 0028 F7E7     		b	.L133
 2771              	.L130:
 2772 002a 0860     		str	r0, [r1]
 2773              	.L132:
 2774 002c 6FF0AC00 		mvn	r0, #172
 2775 0030 7047     		bx	lr
 2777              		.section	.rodata.Td,"a"
 2778              		.align	2
 2781              	Td:
 2782 0000 50A7F451 		.word	1374988112
 2783 0004 5365417E 		.word	2118214995
 2784 0008 C3A4171A 		.word	437757123
 2785 000c 965E273A 		.word	975658646
 2786 0010 CB6BAB3B 		.word	1001089995
 2787 0014 F1459D1F 		.word	530400753
 2788 0018 AB58FAAC 		.word	-1392879445
 2789 001c 9303E34B 		.word	1273168787
 2790 0020 55FA3020 		.word	540080725
 2791 0024 F66D76AD 		.word	-1384747530
 2792 0028 9176CC88 		.word	-1999866223
 2793 002c 254C02F5 		.word	-184398811
 2794 0030 FCD7E54F 		.word	1340463100
 2795 0034 D7CB2AC5 		.word	-987051049
 2796 0038 80443526 		.word	641025152
 2797 003c 8FA362B5 		.word	-1251826801
 2798 0040 495AB1DE 		.word	-558802359
 2799 0044 671BBA25 		.word	632953703
 2800 0048 980EEA45 		.word	1172967064
 2801 004c E1C0FE5D 		.word	1576976609
 2802 0050 02752FC3 		.word	-1020300030
 2803 0054 12F04C81 		.word	-2125664238
 2804 0058 A397468D 		.word	-1924753501
 2805 005c C6F9D36B 		.word	1809054150
 2806 0060 E75F8F03 		.word	59727847
 2807 0064 959C9215 		.word	361929877
 2808 0068 EB7A6DBF 		.word	-1083344149
 2809 006c DA595295 		.word	-1789765158
 2810 0070 2D83BED4 		.word	-725712083
 2811 0074 D3217458 		.word	1484005843
 2812 0078 2969E049 		.word	1239443753
 2813 007c 44C8C98E 		.word	-1899378620
 2814 0080 6A89C275 		.word	1975683434
 2815 0084 78798EF4 		.word	-191989384
 2816 0088 6B3E5899 		.word	-1722270101
 2817 008c DD71B927 		.word	666464733
 2818 0090 B64FE1BE 		.word	-1092530250
 2819 0094 17AD88F0 		.word	-259478249
 2820 0098 66AC20C9 		.word	-920605594
 2821 009c B43ACE7D 		.word	2110667444
ARM GAS  /tmp/ccVUwbrj.s 			page 50


 2822 00a0 184ADF63 		.word	1675577880
 2823 00a4 82311AE5 		.word	-451268222
 2824 00a8 60335197 		.word	-1756286112
 2825 00ac 457F5362 		.word	1649639237
 2826 00b0 E07764B1 		.word	-1318815776
 2827 00b4 84AE6BBB 		.word	-1150570876
 2828 00b8 1CA081FE 		.word	-25059300
 2829 00bc 942B08F9 		.word	-116905068
 2830 00c0 58684870 		.word	1883793496
 2831 00c4 19FD458F 		.word	-1891238631
 2832 00c8 876CDE94 		.word	-1797362553
 2833 00cc B7F87B52 		.word	1383856311
 2834 00d0 23D373AB 		.word	-1418472669
 2835 00d4 E2024B72 		.word	1917518562
 2836 00d8 578F1FE3 		.word	-484470953
 2837 00dc 2AAB5566 		.word	1716890410
 2838 00e0 0728EBB2 		.word	-1293211641
 2839 00e4 03C2B52F 		.word	800440835
 2840 00e8 9A7BC586 		.word	-2033878118
 2841 00ec A50837D3 		.word	-751368027
 2842 00f0 F2872830 		.word	807962610
 2843 00f4 B2A5BF23 		.word	599762354
 2844 00f8 BA6A0302 		.word	33778362
 2845 00fc 5C8216ED 		.word	-317291940
 2846 0100 2B1CCF8A 		.word	-1966138325
 2847 0104 92B479A7 		.word	-1485196142
 2848 0108 F0F207F3 		.word	-217582864
 2849 010c A1E2694E 		.word	1315562145
 2850 0110 CDF4DA65 		.word	1708848333
 2851 0114 D5BE0506 		.word	101039829
 2852 0118 1F6234D1 		.word	-785096161
 2853 011c 8AFEA6C4 		.word	-995688822
 2854 0120 9D532E34 		.word	875451293
 2855 0124 A055F3A2 		.word	-1561111136
 2856 0128 32E18A05 		.word	92987698
 2857 012c 75EBF6A4 		.word	-1527321739
 2858 0130 39EC830B 		.word	193195065
 2859 0134 AAEF6040 		.word	1080094634
 2860 0138 069F715E 		.word	1584504582
 2861 013c 51106EBD 		.word	-1116860335
 2862 0140 F98A213E 		.word	1042385657
 2863 0144 3D06DD96 		.word	-1763899843
 2864 0148 AE053EDD 		.word	-583137874
 2865 014c 46BDE64D 		.word	1306967366
 2866 0150 B58D5491 		.word	-1856729675
 2867 0154 055DC471 		.word	1908694277
 2868 0158 6FD40604 		.word	67556463
 2869 015c FF155060 		.word	1615861247
 2870 0160 24FB9819 		.word	429456164
 2871 0164 97E9BDD6 		.word	-692196969
 2872 0168 CC434089 		.word	-1992277044
 2873 016c 779ED967 		.word	1742315127
 2874 0170 BD42E8B0 		.word	-1326955843
 2875 0174 888B8907 		.word	126454664
 2876 0178 385B19E7 		.word	-417768648
 2877 017c DBEEC879 		.word	2043211483
 2878 0180 470A7CA1 		.word	-1585706425
ARM GAS  /tmp/ccVUwbrj.s 			page 51


 2879 0184 E90F427C 		.word	2084704233
 2880 0188 C91E84F8 		.word	-125559095
 2881 018c 00000000 		.word	0
 2882 0190 83868009 		.word	159417987
 2883 0194 48ED2B32 		.word	841739592
 2884 0198 AC70111E 		.word	504459436
 2885 019c 4E725A6C 		.word	1817866830
 2886 01a0 FBFF0EFD 		.word	-49348613
 2887 01a4 5638850F 		.word	260388950
 2888 01a8 1ED5AE3D 		.word	1034867998
 2889 01ac 27392D36 		.word	908933415
 2890 01b0 64D90F0A 		.word	168810852
 2891 01b4 21A65C68 		.word	1750902305
 2892 01b8 D1545B9B 		.word	-1688513327
 2893 01bc 3A2E3624 		.word	607530554
 2894 01c0 B1670A0C 		.word	202008497
 2895 01c4 0FE75793 		.word	-1822955761
 2896 01c8 D296EEB4 		.word	-1259432238
 2897 01cc 9E919B1B 		.word	463180190
 2898 01d0 4FC5C080 		.word	-2134850225
 2899 01d4 A220DC61 		.word	1641816226
 2900 01d8 694B775A 		.word	1517767529
 2901 01dc 161A121C 		.word	470948374
 2902 01e0 0ABA93E2 		.word	-493635062
 2903 01e4 E52AA0C0 		.word	-1063245083
 2904 01e8 43E0223C 		.word	1008918595
 2905 01ec 1D171B12 		.word	303765277
 2906 01f0 0B0D090E 		.word	235474187
 2907 01f4 ADC78BF2 		.word	-225720403
 2908 01f8 B9A8B62D 		.word	766945465
 2909 01fc C8A91E14 		.word	337553864
 2910 0200 8519F157 		.word	1475418501
 2911 0204 4C0775AF 		.word	-1351284916
 2912 0208 BBDD99EE 		.word	-291906117
 2913 020c FD607FA3 		.word	-1551933187
 2914 0210 9F2601F7 		.word	-150919521
 2915 0214 BCF5725C 		.word	1551037884
 2916 0218 C53B6644 		.word	1147550661
 2917 021c 347EFB5B 		.word	1543208500
 2918 0220 7629438B 		.word	-1958532746
 2919 0224 DCC623CB 		.word	-886847780
 2920 0228 68FCEDB6 		.word	-1225917336
 2921 022c 63F1E4B8 		.word	-1192955549
 2922 0230 CADC31D7 		.word	-684598070
 2923 0234 10856342 		.word	1113818384
 2924 0238 40229713 		.word	328671808
 2925 023c 2011C684 		.word	-2067394272
 2926 0240 7D244A85 		.word	-2058738563
 2927 0244 F83DBBD2 		.word	-759480840
 2928 0248 1132F9AE 		.word	-1359400431
 2929 024c 6DA129C7 		.word	-953573011
 2930 0250 4B2F9E1D 		.word	496906059
 2931 0254 F330B2DC 		.word	-592301837
 2932 0258 EC52860D 		.word	226906860
 2933 025c D0E3C177 		.word	2009195472
 2934 0260 6C16B32B 		.word	733156972
 2935 0264 99B970A9 		.word	-1452230247
ARM GAS  /tmp/ccVUwbrj.s 			page 52


 2936 0268 FA489411 		.word	294930682
 2937 026c 2264E947 		.word	1206477858
 2938 0270 C48CFCA8 		.word	-1459843900
 2939 0274 1A3FF0A0 		.word	-1594867942
 2940 0278 D82C7D56 		.word	1451044056
 2941 027c EF903322 		.word	573804783
 2942 0280 C74E4987 		.word	-2025238841
 2943 0284 C1D138D9 		.word	-650587711
 2944 0288 FEA2CA8C 		.word	-1932877058
 2945 028c 360BD498 		.word	-1730933962
 2946 0290 CF81F5A6 		.word	-1493859889
 2947 0294 28DE7AA5 		.word	-1518674392
 2948 0298 268EB7DA 		.word	-625504730
 2949 029c A4BFAD3F 		.word	1068351396
 2950 02a0 E49D3A2C 		.word	742039012
 2951 02a4 0D927850 		.word	1350078989
 2952 02a8 9BCC5F6A 		.word	1784663195
 2953 02ac 62467E54 		.word	1417561698
 2954 02b0 C2138DF6 		.word	-158526526
 2955 02b4 E8B8D890 		.word	-1864845080
 2956 02b8 5EF7392E 		.word	775550814
 2957 02bc F5AFC382 		.word	-2101104651
 2958 02c0 BE805D9F 		.word	-1621262146
 2959 02c4 7C93D069 		.word	1775276924
 2960 02c8 A92DD56F 		.word	1876241833
 2961 02cc B31225CF 		.word	-819653965
 2962 02d0 3B99ACC8 		.word	-928212677
 2963 02d4 A77D1810 		.word	270040487
 2964 02d8 6E639CE8 		.word	-392404114
 2965 02dc 7BBB3BDB 		.word	-616842373
 2966 02e0 097826CD 		.word	-853116919
 2967 02e4 F418596E 		.word	1851332852
 2968 02e8 01B79AEC 		.word	-325404927
 2969 02ec A89A4F83 		.word	-2091935064
 2970 02f0 656E95E6 		.word	-426414491
 2971 02f4 7EE6FFAA 		.word	-1426069890
 2972 02f8 08CFBC21 		.word	566021896
 2973 02fc E6E815EF 		.word	-283776794
 2974 0300 D99BE7BA 		.word	-1159226407
 2975 0304 CE366F4A 		.word	1248802510
 2976 0308 D4099FEA 		.word	-358676012
 2977 030c D67CB029 		.word	699432150
 2978 0310 AFB2A431 		.word	832877231
 2979 0314 31233F2A 		.word	708780849
 2980 0318 3094A5C6 		.word	-962227152
 2981 031c C066A235 		.word	899835584
 2982 0320 37BC4E74 		.word	1951317047
 2983 0324 A6CA82FC 		.word	-58537306
 2984 0328 B0D090E0 		.word	-527380304
 2985 032c 15D8A733 		.word	866637845
 2986 0330 4A9804F1 		.word	-251357110
 2987 0334 F7DAEC41 		.word	1106041591
 2988 0338 0E50CD7F 		.word	2144161806
 2989 033c 2FF69117 		.word	395441711
 2990 0340 8DD64D76 		.word	1984812685
 2991 0344 4DB0EF43 		.word	1139781709
 2992 0348 544DAACC 		.word	-861254316
ARM GAS  /tmp/ccVUwbrj.s 			page 53


 2993 034c DF0496E4 		.word	-459930401
 2994 0350 E3B5D19E 		.word	-1630423581
 2995 0354 1B886A4C 		.word	1282050075
 2996 0358 B81F2CC1 		.word	-1054072904
 2997 035c 7F516546 		.word	1181045119
 2998 0360 04EA5E9D 		.word	-1654724092
 2999 0364 5D358C01 		.word	25965917
 3000 0368 737487FA 		.word	-91786125
 3001 036c 2E410BFB 		.word	-83148498
 3002 0370 5A1D67B3 		.word	-1285087910
 3003 0374 52D2DB92 		.word	-1831087534
 3004 0378 335610E9 		.word	-384805325
 3005 037c 1347D66D 		.word	1842759443
 3006 0380 8C61D79A 		.word	-1697160820
 3007 0384 7A0CA137 		.word	933301370
 3008 0388 8E14F859 		.word	1509430414
 3009 038c 893C13EB 		.word	-351060855
 3010 0390 EE27A9CE 		.word	-827774994
 3011 0394 35C961B7 		.word	-1218328267
 3012 0398 EDE51CE1 		.word	-518199827
 3013 039c 3CB1477A 		.word	2051518780
 3014 03a0 59DFD29C 		.word	-1663901863
 3015 03a4 3F73F255 		.word	1441952575
 3016 03a8 79CE1418 		.word	404016761
 3017 03ac BF37C773 		.word	1942435775
 3018 03b0 EACDF753 		.word	1408749034
 3019 03b4 5BAAFD5F 		.word	1610459739
 3020 03b8 146F3DDF 		.word	-549621996
 3021 03bc 86DB4478 		.word	2017778566
 3022 03c0 81F3AFCA 		.word	-894438527
 3023 03c4 3EC468B9 		.word	-1184316354
 3024 03c8 2C342438 		.word	941896748
 3025 03cc 5F40A3C2 		.word	-1029488545
 3026 03d0 72C31D16 		.word	371049330
 3027 03d4 0C25E2BC 		.word	-1126030068
 3028 03d8 8B493C28 		.word	675039627
 3029 03dc 41950DFF 		.word	-15887039
 3030 03e0 7101A839 		.word	967311729
 3031 03e4 DEB30C08 		.word	135050206
 3032 03e8 9CE4B4D8 		.word	-659233636
 3033 03ec 90C15664 		.word	1683407248
 3034 03f0 6184CB7B 		.word	2076935265
 3035 03f4 70B632D5 		.word	-718096784
 3036 03f8 745C6C48 		.word	1215061108
 3037 03fc 4257B8D0 		.word	-793225406
 3038 0400 A7F45150 		.word	1347548327
 3039 0404 65417E53 		.word	1400783205
 3040 0408 A4171AC3 		.word	-1021700188
 3041 040c 5E273A96 		.word	-1774573730
 3042 0410 6BAB3BCB 		.word	-885281941
 3043 0414 459D1FF1 		.word	-249586363
 3044 0418 58FAACAB 		.word	-1414727080
 3045 041c 03E34B93 		.word	-1823743229
 3046 0420 FA302055 		.word	1428173050
 3047 0424 6D76ADF6 		.word	-156404115
 3048 0428 76CC8891 		.word	-1853305738
 3049 042c 4C02F525 		.word	636813900
ARM GAS  /tmp/ccVUwbrj.s 			page 54


 3050 0430 D7E54FFC 		.word	-61872681
 3051 0434 CB2AC5D7 		.word	-674944309
 3052 0438 44352680 		.word	-2144979644
 3053 043c A362B58F 		.word	-1883938141
 3054 0440 5AB1DE49 		.word	1239331162
 3055 0444 1BBA2567 		.word	1730525723
 3056 0448 0EEA4598 		.word	-1740248562
 3057 044c C0FE5DE1 		.word	-513933632
 3058 0450 752FC302 		.word	46346101
 3059 0454 F04C8112 		.word	310463728
 3060 0458 97468DA3 		.word	-1551022441
 3061 045c F9D36BC6 		.word	-966011911
 3062 0460 5F8F03E7 		.word	-419197089
 3063 0464 9C921595 		.word	-1793748324
 3064 0468 7A6DBFEB 		.word	-339776134
 3065 046c 595295DA 		.word	-627748263
 3066 0470 83BED42D 		.word	768917123
 3067 0474 217458D3 		.word	-749177823
 3068 0478 69E04929 		.word	692707433
 3069 047c C8C98E44 		.word	1150208456
 3070 0480 89C2756A 		.word	1786102409
 3071 0484 798EF478 		.word	2029293177
 3072 0488 3E58996B 		.word	1805211710
 3073 048c 71B927DD 		.word	-584599183
 3074 0490 4FE1BEB6 		.word	-1229004465
 3075 0494 AD88F017 		.word	401639597
 3076 0498 AC20C966 		.word	1724457132
 3077 049c 3ACE7DB4 		.word	-1266823622
 3078 04a0 4ADF6318 		.word	409198410
 3079 04a4 311AE582 		.word	-2098914767
 3080 04a8 33519760 		.word	1620529459
 3081 04ac 7F536245 		.word	1164071807
 3082 04b0 7764B1E0 		.word	-525245321
 3083 04b4 AE6BBB84 		.word	-2068091986
 3084 04b8 A081FE1C 		.word	486441376
 3085 04bc 2B08F994 		.word	-1795618773
 3086 04c0 68487058 		.word	1483753576
 3087 04c4 FD458F19 		.word	428819965
 3088 04c8 6CDE9487 		.word	-2020286868
 3089 04cc F87B52B7 		.word	-1219331080
 3090 04d0 D373AB23 		.word	598438867
 3091 04d4 024B72E2 		.word	-495826174
 3092 04d8 8F1FE357 		.word	1474502543
 3093 04dc AB55662A 		.word	711349675
 3094 04e0 28EBB207 		.word	129166120
 3095 04e4 C2B52F03 		.word	53458370
 3096 04e8 7BC5869A 		.word	-1702443653
 3097 04ec 0837D3A5 		.word	-1512884472
 3098 04f0 872830F2 		.word	-231724921
 3099 04f4 A5BF23B2 		.word	-1306280027
 3100 04f8 6A0302BA 		.word	-1174273174
 3101 04fc 8216ED5C 		.word	1559041666
 3102 0500 1CCF8A2B 		.word	730517276
 3103 0504 B479A792 		.word	-1834518092
 3104 0508 F207F3F0 		.word	-252508174
 3105 050c E2694EA1 		.word	-1588696606
 3106 0510 F4DA65CD 		.word	-848962828
ARM GAS  /tmp/ccVUwbrj.s 			page 55


 3107 0514 BE0506D5 		.word	-721025602
 3108 0518 6234D11F 		.word	533804130
 3109 051c FEA6C48A 		.word	-1966823682
 3110 0520 532E349D 		.word	-1657524653
 3111 0524 55F3A2A0 		.word	-1599933611
 3112 0528 E18A0532 		.word	839224033
 3113 052c EBF6A475 		.word	1973745387
 3114 0530 EC830B39 		.word	957055980
 3115 0534 EF6040AA 		.word	-1438621457
 3116 0538 9F715E06 		.word	106852767
 3117 053c 106EBD51 		.word	1371368976
 3118 0540 8A213EF9 		.word	-113368694
 3119 0544 06DD963D 		.word	1033297158
 3120 0548 053EDDAE 		.word	-1361232379
 3121 054c BDE64D46 		.word	1179510461
 3122 0550 8D5491B5 		.word	-1248766835
 3123 0554 5DC47105 		.word	91341917
 3124 0558 D406046F 		.word	1862534868
 3125 055c 155060FF 		.word	-10465259
 3126 0560 FB981924 		.word	605657339
 3127 0564 E9BDD697 		.word	-1747534359
 3128 0568 434089CC 		.word	-863420349
 3129 056c 9ED96777 		.word	2003294622
 3130 0570 42E8B0BD 		.word	-1112479678
 3131 0574 8B890788 		.word	-2012771957
 3132 0578 5B19E738 		.word	954669403
 3133 057c EEC879DB 		.word	-612775698
 3134 0580 0A7CA147 		.word	1201765386
 3135 0584 0F427CE9 		.word	-377732593
 3136 0588 1E84F8C9 		.word	-906460130
 3137 058c 00000000 		.word	0
 3138 0590 86800983 		.word	-2096529274
 3139 0594 ED2B3248 		.word	1211247597
 3140 0598 70111EAC 		.word	-1407315600
 3141 059c 725A6C4E 		.word	1315723890
 3142 05a0 FF0EFDFB 		.word	-67301633
 3143 05a4 38850F56 		.word	1443857720
 3144 05a8 D5AE3D1E 		.word	507358933
 3145 05ac 392D3627 		.word	657861945
 3146 05b0 D90F0A64 		.word	1678381017
 3147 05b4 A65C6821 		.word	560487590
 3148 05b8 545B9BD1 		.word	-778347692
 3149 05bc 2E36243A 		.word	975451694
 3150 05c0 670A0CB1 		.word	-1324610969
 3151 05c4 E757930F 		.word	261314535
 3152 05c8 96EEB4D2 		.word	-759894378
 3153 05cc 919B1B9E 		.word	-1642357871
 3154 05d0 C5C0804F 		.word	1333838021
 3155 05d4 20DC61A2 		.word	-1570644960
 3156 05d8 4B775A69 		.word	1767536459
 3157 05dc 1A121C16 		.word	370938394
 3158 05e0 BA93E20A 		.word	182621114
 3159 05e4 2AA0C0E5 		.word	-440360918
 3160 05e8 E0223C43 		.word	1128014560
 3161 05ec 171B121D 		.word	487725847
 3162 05f0 0D090E0B 		.word	185469197
 3163 05f4 C78BF2AD 		.word	-1376613433
ARM GAS  /tmp/ccVUwbrj.s 			page 56


 3164 05f8 A8B62DB9 		.word	-1188186456
 3165 05fc A91E14C8 		.word	-938205527
 3166 0600 19F15785 		.word	-2057834215
 3167 0604 0775AF4C 		.word	1286567175
 3168 0608 DD99EEBB 		.word	-1141990947
 3169 060c 607FA3FD 		.word	-39616672
 3170 0610 2601F79F 		.word	-1611202266
 3171 0614 F5725CBC 		.word	-1134791947
 3172 0618 3B6644C5 		.word	-985373125
 3173 061c 7EFB5B34 		.word	878443390
 3174 0620 29438B76 		.word	1988838185
 3175 0624 C623CBDC 		.word	-590666810
 3176 0628 FCEDB668 		.word	1756818940
 3177 062c F1E4B863 		.word	1673061617
 3178 0630 DC31D7CA 		.word	-891866660
 3179 0634 85634210 		.word	272786309
 3180 0638 22971340 		.word	1075025698
 3181 063c 11C68420 		.word	545572369
 3182 0640 244A857D 		.word	2105887268
 3183 0644 3DBBD2F8 		.word	-120407235
 3184 0648 32F9AE11 		.word	296679730
 3185 064c A129C76D 		.word	1841768865
 3186 0650 2F9E1D4B 		.word	1260232239
 3187 0654 30B2DCF3 		.word	-203640272
 3188 0658 52860DEC 		.word	-334657966
 3189 065c E3C177D0 		.word	-797457949
 3190 0660 16B32B6C 		.word	1814803222
 3191 0664 B970A999 		.word	-1716948807
 3192 0668 489411FA 		.word	-99511224
 3193 066c 64E94722 		.word	575138148
 3194 0670 8CFCA8C4 		.word	-995558260
 3195 0674 3FF0A01A 		.word	446754879
 3196 0678 2C7D56D8 		.word	-665420500
 3197 067c 903322EF 		.word	-282971248
 3198 0680 4E4987C7 		.word	-947435186
 3199 0684 D138D9C1 		.word	-1042728751
 3200 0688 A2CA8CFE 		.word	-24327518
 3201 068c 0BD49836 		.word	915985419
 3202 0690 81F5A6CF 		.word	-811141759
 3203 0694 DE7AA528 		.word	681933534
 3204 0698 8EB7DA26 		.word	651868046
 3205 069c BFAD3FA4 		.word	-1539330625
 3206 06a0 9D3A2CE4 		.word	-466863459
 3207 06a4 9278500D 		.word	223377554
 3208 06a8 CC5F6A9B 		.word	-1687527476
 3209 06ac 467E5462 		.word	1649704518
 3210 06b0 138DF6C2 		.word	-1024029421
 3211 06b4 B8D890E8 		.word	-393160520
 3212 06b8 F7392E5E 		.word	1580087799
 3213 06bc AFC382F5 		.word	-175979601
 3214 06c0 805D9FBE 		.word	-1096852096
 3215 06c4 93D0697C 		.word	2087309459
 3216 06c8 2DD56FA9 		.word	-1452288723
 3217 06cc 1225CFB3 		.word	-1278270190
 3218 06d0 99ACC83B 		.word	1003007129
 3219 06d4 7D1810A7 		.word	-1492117379
 3220 06d8 639CE86E 		.word	1860738147
ARM GAS  /tmp/ccVUwbrj.s 			page 57


 3221 06dc BB3BDB7B 		.word	2077965243
 3222 06e0 7826CD09 		.word	164439672
 3223 06e4 18596EF4 		.word	-194094824
 3224 06e8 B79AEC01 		.word	32283319
 3225 06ec 9A4F83A8 		.word	-1467789414
 3226 06f0 6E95E665 		.word	1709610350
 3227 06f4 E6FFAA7E 		.word	2125135846
 3228 06f8 CFBC2108 		.word	136428751
 3229 06fc E815EFE6 		.word	-420538904
 3230 0700 9BE7BAD9 		.word	-642062437
 3231 0704 366F4ACE 		.word	-833982666
 3232 0708 099FEAD4 		.word	-722821367
 3233 070c 7CB029D6 		.word	-701910916
 3234 0710 B2A431AF 		.word	-1355701070
 3235 0714 233F2A31 		.word	824852259
 3236 0718 94A5C630 		.word	818324884
 3237 071c 66A235C0 		.word	-1070226842
 3238 0720 BC4E7437 		.word	930369212
 3239 0724 CA82FCA6 		.word	-1493400886
 3240 0728 D090E0B0 		.word	-1327460144
 3241 072c D8A73315 		.word	355706840
 3242 0730 9804F14A 		.word	1257309336
 3243 0734 DAEC41F7 		.word	-146674470
 3244 0738 50CD7F0E 		.word	243256656
 3245 073c F691172F 		.word	790073846
 3246 0740 D64D768D 		.word	-1921626666
 3247 0744 B0EF434D 		.word	1296297904
 3248 0748 4DAACC54 		.word	1422699085
 3249 074c 0496E4DF 		.word	-538667516
 3250 0750 B5D19EE3 		.word	-476130891
 3251 0754 886A4C1B 		.word	457992840
 3252 0758 1F2CC1B8 		.word	-1195299809
 3253 075c 5165467F 		.word	2135319889
 3254 0760 EA5E9D04 		.word	77422314
 3255 0764 358C015D 		.word	1560382517
 3256 0768 7487FA73 		.word	1945798516
 3257 076c 410BFB2E 		.word	788204353
 3258 0770 1D67B35A 		.word	1521706781
 3259 0774 D2DB9252 		.word	1385356242
 3260 0778 5610E933 		.word	870912086
 3261 077c 47D66D13 		.word	325965383
 3262 0780 61D79A8C 		.word	-1936009375
 3263 0784 0CA1377A 		.word	2050466060
 3264 0788 14F8598E 		.word	-1906706412
 3265 078c 3C13EB89 		.word	-1981082820
 3266 0790 27A9CEEE 		.word	-288446169
 3267 0794 C961B735 		.word	901210569
 3268 0798 E51CE1ED 		.word	-304014107
 3269 079c B1477A3C 		.word	1014646705
 3270 07a0 DFD29C59 		.word	1503449823
 3271 07a4 73F2553F 		.word	1062597235
 3272 07a8 CE141879 		.word	2031621326
 3273 07ac 37C773BF 		.word	-1082931401
 3274 07b0 CDF753EA 		.word	-363595827
 3275 07b4 AAFD5F5B 		.word	1533017514
 3276 07b8 6F3DDF14 		.word	350174575
 3277 07bc DB447886 		.word	-2038938405
ARM GAS  /tmp/ccVUwbrj.s 			page 58


 3278 07c0 F3AFCA81 		.word	-2117423117
 3279 07c4 C468B93E 		.word	1052338372
 3280 07c8 3424382C 		.word	741876788
 3281 07cc 40A3C25F 		.word	1606591296
 3282 07d0 C31D1672 		.word	1914052035
 3283 07d4 25E2BC0C 		.word	213705253
 3284 07d8 493C288B 		.word	-1960297399
 3285 07dc 950DFF41 		.word	1107234197
 3286 07e0 01A83971 		.word	1899603969
 3287 07e4 B30C08DE 		.word	-569897805
 3288 07e8 E4B4D89C 		.word	-1663519516
 3289 07ec C1566490 		.word	-1872472383
 3290 07f0 84CB7B61 		.word	1635502980
 3291 07f4 B632D570 		.word	1893020342
 3292 07f8 5C6C4874 		.word	1950903388
 3293 07fc 57B8D042 		.word	1120974935
 3294 0800 F45150A7 		.word	-1487908364
 3295 0804 417E5365 		.word	1699970625
 3296 0808 171AC3A4 		.word	-1530717673
 3297 080c 273A965E 		.word	1586903591
 3298 0810 AB3BCB6B 		.word	1808481195
 3299 0814 9D1FF145 		.word	1173430173
 3300 0818 FAACAB58 		.word	1487645946
 3301 081c E34B9303 		.word	59984867
 3302 0820 302055FA 		.word	-95084496
 3303 0824 76ADF66D 		.word	1844882806
 3304 0828 CC889176 		.word	1989249228
 3305 082c 02F5254C 		.word	1277555970
 3306 0830 E54FFCD7 		.word	-671330331
 3307 0834 2AC5D7CB 		.word	-875051734
 3308 0838 35268044 		.word	1149249077
 3309 083c 62B58FA3 		.word	-1550863006
 3310 0840 B1DE495A 		.word	1514790577
 3311 0844 BA25671B 		.word	459744698
 3312 0848 EA45980E 		.word	244860394
 3313 084c FE5DE1C0 		.word	-1058972162
 3314 0850 2FC30275 		.word	1963115311
 3315 0854 4C8112F0 		.word	-267222708
 3316 0858 468DA397 		.word	-1750889146
 3317 085c D36BC6F9 		.word	-104436781
 3318 0860 8F03E75F 		.word	1608975247
 3319 0864 9215959C 		.word	-1667951214
 3320 0868 6DBFEB7A 		.word	2062270317
 3321 086c 5295DA59 		.word	1507497298
 3322 0870 BED42D83 		.word	-2094148418
 3323 0874 7458D321 		.word	567498868
 3324 0878 E0492969 		.word	1764313568
 3325 087c C98E44C8 		.word	-935031095
 3326 0880 C2756A89 		.word	-1989511742
 3327 0884 8EF47879 		.word	2037970062
 3328 0888 58996B3E 		.word	1047239000
 3329 088c B927DD71 		.word	1910319033
 3330 0890 E1BEB64F 		.word	1337376481
 3331 0894 88F017AD 		.word	-1390940024
 3332 0898 20C966AC 		.word	-1402549984
 3333 089c CE7DB43A 		.word	984907214
 3334 08a0 DF63184A 		.word	1243112415
ARM GAS  /tmp/ccVUwbrj.s 			page 59


 3335 08a4 1AE58231 		.word	830661914
 3336 08a8 51976033 		.word	861968209
 3337 08ac 5362457F 		.word	2135253587
 3338 08b0 64B1E077 		.word	2011214180
 3339 08b4 6BBB84AE 		.word	-1367032981
 3340 08b8 81FE1CA0 		.word	-1608712575
 3341 08bc 08F9942B 		.word	731183368
 3342 08c0 48705868 		.word	1750626376
 3343 08c4 458F19FD 		.word	-48656571
 3344 08c8 DE94876C 		.word	1820824798
 3345 08cc 7B52B7F8 		.word	-122203525
 3346 08d0 73AB23D3 		.word	-752637069
 3347 08d4 4B72E202 		.word	48394827
 3348 08d8 1FE3578F 		.word	-1890065633
 3349 08dc 55662AAB 		.word	-1423284651
 3350 08e0 EBB20728 		.word	671593195
 3351 08e4 B52F03C2 		.word	-1039978571
 3352 08e8 C5869A7B 		.word	2073724613
 3353 08ec 37D3A508 		.word	145085239
 3354 08f0 2830F287 		.word	-2014171096
 3355 08f4 BF23B2A5 		.word	-1515052097
 3356 08f8 0302BA6A 		.word	1790575107
 3357 08fc 16ED5C82 		.word	-2107839210
 3358 0900 CF8A2B1C 		.word	472615631
 3359 0904 79A792B4 		.word	-1265457287
 3360 0908 07F3F0F2 		.word	-219090169
 3361 090c 694EA1E2 		.word	-492745111
 3362 0910 DA65CDF4 		.word	-187865638
 3363 0914 0506D5BE 		.word	-1093335547
 3364 0918 34D11F62 		.word	1646252340
 3365 091c A6C48AFE 		.word	-24460122
 3366 0920 2E349D53 		.word	1402811438
 3367 0924 F3A2A055 		.word	1436590835
 3368 0928 8A0532E1 		.word	-516815478
 3369 092c F6A475EB 		.word	-344611594
 3370 0930 830B39EC 		.word	-331805821
 3371 0934 6040AAEF 		.word	-274055072
 3372 0938 715E069F 		.word	-1626972559
 3373 093c 6EBD5110 		.word	273792366
 3374 0940 213EF98A 		.word	-1963377119
 3375 0944 DD963D06 		.word	104699613
 3376 0948 3EDDAE05 		.word	95345982
 3377 094c E64D46BD 		.word	-1119466010
 3378 0950 5491B58D 		.word	-1917480620
 3379 0954 C471055D 		.word	1560637892
 3380 0958 06046FD4 		.word	-730921978
 3381 095c 5060FF15 		.word	369057872
 3382 0960 981924FB 		.word	-81520232
 3383 0964 BDD697E9 		.word	-375925059
 3384 0968 4089CC43 		.word	1137477952
 3385 096c D967779E 		.word	-1636341799
 3386 0970 E8B0BD42 		.word	1119727848
 3387 0974 8907888B 		.word	-1954019447
 3388 0978 19E7385B 		.word	1530455833
 3389 097c C879DBEE 		.word	-287606328
 3390 0980 7CA1470A 		.word	172466556
 3391 0984 427CE90F 		.word	266959938
ARM GAS  /tmp/ccVUwbrj.s 			page 60


 3392 0988 84F8C91E 		.word	516552836
 3393 098c 00000000 		.word	0
 3394 0990 80098386 		.word	-2038232704
 3395 0994 2B3248ED 		.word	-314035669
 3396 0998 111EAC70 		.word	1890328081
 3397 099c 5A6C4E72 		.word	1917742170
 3398 09a0 0EFDFBFF 		.word	-262898
 3399 09a4 850F5638 		.word	945164165
 3400 09a8 AE3D1ED5 		.word	-719438418
 3401 09ac 2D362739 		.word	958871085
 3402 09b0 0F0A64D9 		.word	-647755249
 3403 09b4 5C6821A6 		.word	-1507760036
 3404 09b8 5B9BD154 		.word	1423022939
 3405 09bc 36243A2E 		.word	775562294
 3406 09c0 0A0CB167 		.word	1739656202
 3407 09c4 57930FE7 		.word	-418409641
 3408 09c8 EEB4D296 		.word	-1764576018
 3409 09cc 9B1B9E91 		.word	-1851909221
 3410 09d0 C0804FC5 		.word	-984645440
 3411 09d4 DC61A220 		.word	547512796
 3412 09d8 775A694B 		.word	1265195639
 3413 09dc 121C161A 		.word	437656594
 3414 09e0 93E20ABA 		.word	-1173691757
 3415 09e4 A0C0E52A 		.word	719700128
 3416 09e8 223C43E0 		.word	-532464606
 3417 09ec 1B121D17 		.word	387781147
 3418 09f0 090E0B0D 		.word	218828297
 3419 09f4 8BF2ADC7 		.word	-944901493
 3420 09f8 B62DB9A8 		.word	-1464259146
 3421 09fc 1E14C8A9 		.word	-1446505442
 3422 0a00 F1578519 		.word	428169201
 3423 0a04 75AF4C07 		.word	122466165
 3424 0a08 99EEBBDD 		.word	-574886247
 3425 0a0c 7FA3FD60 		.word	1627235199
 3426 0a10 01F79F26 		.word	648017665
 3427 0a14 725CBCF5 		.word	-172204942
 3428 0a18 6644C53B 		.word	1002783846
 3429 0a1c FB5B347E 		.word	2117360635
 3430 0a20 438B7629 		.word	695634755
 3431 0a24 23CBDCC6 		.word	-958608605
 3432 0a28 EDB668FC 		.word	-60246291
 3433 0a2c E4B863F1 		.word	-245122844
 3434 0a30 31D7CADC 		.word	-590686415
 3435 0a34 63421085 		.word	-2062531997
 3436 0a38 97134022 		.word	574624663
 3437 0a3c C6842011 		.word	287343814
 3438 0a40 4A857D24 		.word	612205898
 3439 0a44 BBD2F83D 		.word	1039717051
 3440 0a48 F9AE1132 		.word	840019705
 3441 0a4c 29C76DA1 		.word	-1586641111
 3442 0a50 9E1D4B2F 		.word	793451934
 3443 0a54 B2DCF330 		.word	821288114
 3444 0a58 860DEC52 		.word	1391201670
 3445 0a5c C177D0E3 		.word	-472877119
 3446 0a60 B32B6C16 		.word	376187827
 3447 0a64 70A999B9 		.word	-1181111952
 3448 0a68 9411FA48 		.word	1224348052
ARM GAS  /tmp/ccVUwbrj.s 			page 61


 3449 0a6c E9472264 		.word	1679968233
 3450 0a70 FCA8C48C 		.word	-1933268740
 3451 0a74 F0A01A3F 		.word	1058709744
 3452 0a78 7D56D82C 		.word	752375421
 3453 0a7c 3322EF90 		.word	-1863376333
 3454 0a80 4987C74E 		.word	1321699145
 3455 0a84 38D9C1D1 		.word	-775825096
 3456 0a88 CA8CFEA2 		.word	-1560376118
 3457 0a8c D498360B 		.word	188127444
 3458 0a90 F5A6CF81 		.word	-2117097739
 3459 0a94 7AA528DE 		.word	-567761542
 3460 0a98 B7DA268E 		.word	-1910056265
 3461 0a9c AD3FA4BF 		.word	-1079754835
 3462 0aa0 3A2CE49D 		.word	-1645990854
 3463 0aa4 78500D92 		.word	-1844621192
 3464 0aa8 5F6A9BCC 		.word	-862229921
 3465 0aac 7E546246 		.word	1180849278
 3466 0ab0 8DF6C213 		.word	331544205
 3467 0ab4 D890E8B8 		.word	-1192718120
 3468 0ab8 392E5EF7 		.word	-144822727
 3469 0abc C382F5AF 		.word	-1342864701
 3470 0ac0 5D9FBE80 		.word	-2134991011
 3471 0ac4 D0697C93 		.word	-1820562992
 3472 0ac8 D56FA92D 		.word	766078933
 3473 0acc 25CFB312 		.word	313773861
 3474 0ad0 ACC83B99 		.word	-1724135252
 3475 0ad4 1810A77D 		.word	2108100632
 3476 0ad8 9CE86E63 		.word	1668212892
 3477 0adc 3BDB7BBB 		.word	-1149510853
 3478 0ae0 26CD0978 		.word	2013908262
 3479 0ae4 596EF418 		.word	418672217
 3480 0ae8 9AEC01B7 		.word	-1224610662
 3481 0aec 4F83A89A 		.word	-1700232369
 3482 0af0 95E6656E 		.word	1852171925
 3483 0af4 FFAA7EE6 		.word	-427906305
 3484 0af8 BC2108CF 		.word	-821550660
 3485 0afc 15EFE6E8 		.word	-387518699
 3486 0b00 E7BAD99B 		.word	-1680229657
 3487 0b04 6F4ACE36 		.word	919489135
 3488 0b08 9FEAD409 		.word	164948639
 3489 0b0c B029D67C 		.word	2094410160
 3490 0b10 A431AFB2 		.word	-1297141340
 3491 0b14 3F2A3123 		.word	590424639
 3492 0b18 A5C63094 		.word	-1808742747
 3493 0b1c A235C066 		.word	1723872674
 3494 0b20 4E7437BC 		.word	-1137216434
 3495 0b24 82FCA6CA 		.word	-895026046
 3496 0b28 90E0B0D0 		.word	-793714544
 3497 0b2c A73315D8 		.word	-669699161
 3498 0b30 04F14A98 		.word	-1739919100
 3499 0b34 EC41F7DA 		.word	-621329940
 3500 0b38 CD7F0E50 		.word	1343127501
 3501 0b3c 91172FF6 		.word	-164685935
 3502 0b40 4D768DD6 		.word	-695372211
 3503 0b44 EF434DB0 		.word	-1337113617
 3504 0b48 AACC544D 		.word	1297403050
 3505 0b4c 96E4DF04 		.word	81781910
ARM GAS  /tmp/ccVUwbrj.s 			page 62


 3506 0b50 D19EE3B5 		.word	-1243373871
 3507 0b54 6A4C1B88 		.word	-2011476886
 3508 0b58 2CC1B81F 		.word	532201772
 3509 0b5c 65467F51 		.word	1367295589
 3510 0b60 5E9D04EA 		.word	-368796322
 3511 0b64 8C015D35 		.word	895287692
 3512 0b68 87FA7374 		.word	1953757831
 3513 0b6c 0BFB2E41 		.word	1093597963
 3514 0b70 67B35A1D 		.word	492483431
 3515 0b74 DB9252D2 		.word	-766340389
 3516 0b78 10E93356 		.word	1446242576
 3517 0b7c D66D1347 		.word	1192455638
 3518 0b80 D79A8C61 		.word	1636604631
 3519 0b84 A1377A0C 		.word	209336225
 3520 0b88 F8598E14 		.word	344873464
 3521 0b8c 13EB893C 		.word	1015671571
 3522 0b90 A9CEEE27 		.word	669961897
 3523 0b94 61B735C9 		.word	-919226527
 3524 0b98 1CE1EDE5 		.word	-437395172
 3525 0b9c 477A3CB1 		.word	-1321436601
 3526 0ba0 D29C59DF 		.word	-547775278
 3527 0ba4 F2553F73 		.word	1933530610
 3528 0ba8 141879CE 		.word	-830924780
 3529 0bac C773BF37 		.word	935293895
 3530 0bb0 F753EACD 		.word	-840281097
 3531 0bb4 FD5F5BAA 		.word	-1436852227
 3532 0bb8 3DDF146F 		.word	1863638845
 3533 0bbc 447886DB 		.word	-611944380
 3534 0bc0 AFCA81F3 		.word	-209597777
 3535 0bc4 68B93EC4 		.word	-1002522264
 3536 0bc8 24382C34 		.word	875313188
 3537 0bcc A3C25F40 		.word	1080017571
 3538 0bd0 1D1672C3 		.word	-1015933411
 3539 0bd4 E2BC0C25 		.word	621591778
 3540 0bd8 3C288B49 		.word	1233856572
 3541 0bdc 0DFF4195 		.word	-1790836979
 3542 0be0 A8397101 		.word	24197544
 3543 0be4 0C08DEB3 		.word	-1277294580
 3544 0be8 B4D89CE4 		.word	-459482956
 3545 0bec 566490C1 		.word	-1047501738
 3546 0bf0 CB7B6184 		.word	-2073986101
 3547 0bf4 32D570B6 		.word	-1234119374
 3548 0bf8 6C48745C 		.word	1551124588
 3549 0bfc B8D04257 		.word	1463996600
 3550 0c00 5150A7F4 		.word	-190361519
 3551 0c04 7E536541 		.word	1097159550
 3552 0c08 1AC3A417 		.word	396673818
 3553 0c0c 3A965E27 		.word	660510266
 3554 0c10 3BCB6BAB 		.word	-1418998981
 3555 0c14 1FF1459D 		.word	-1656360673
 3556 0c18 ACAB58FA 		.word	-94852180
 3557 0c1c 4B9303E3 		.word	-486304949
 3558 0c20 2055FA30 		.word	821712160
 3559 0c24 ADF66D76 		.word	1986918061
 3560 0c28 889176CC 		.word	-864644728
 3561 0c2c F5254C02 		.word	38544885
 3562 0c30 4FFCD7E5 		.word	-438830001
ARM GAS  /tmp/ccVUwbrj.s 			page 63


 3563 0c34 C5D7CB2A 		.word	718002117
 3564 0c38 26804435 		.word	893681702
 3565 0c3c B58FA362 		.word	1654886325
 3566 0c40 DE495AB1 		.word	-1319482914
 3567 0c44 25671BBA 		.word	-1172609243
 3568 0c48 45980EEA 		.word	-368142267
 3569 0c4c 5DE1C0FE 		.word	-20913827
 3570 0c50 C302752F 		.word	796197571
 3571 0c54 8112F04C 		.word	1290801793
 3572 0c58 8DA39746 		.word	1184342925
 3573 0c5c 6BC6F9D3 		.word	-738605461
 3574 0c60 03E75F8F 		.word	-1889540349
 3575 0c64 15959C92 		.word	-1835231979
 3576 0c68 BFEB7A6D 		.word	1836772287
 3577 0c6c 95DA5952 		.word	1381620373
 3578 0c70 D42D83BE 		.word	-1098699308
 3579 0c74 58D32174 		.word	1948373848
 3580 0c78 492969E0 		.word	-529979063
 3581 0c7c 8E44C8C9 		.word	-909622130
 3582 0c80 756A89C2 		.word	-1031181707
 3583 0c84 F478798E 		.word	-1904641804
 3584 0c88 996B3E58 		.word	1480485785
 3585 0c8c 27DD71B9 		.word	-1183720153
 3586 0c90 BEB64FE1 		.word	-514869570
 3587 0c94 F017AD88 		.word	-2001922064
 3588 0c98 C966AC20 		.word	548169417
 3589 0c9c 7DB43ACE 		.word	-835013507
 3590 0ca0 63184ADF 		.word	-548792221
 3591 0ca4 E582311A 		.word	439452389
 3592 0ca8 97603351 		.word	1362321559
 3593 0cac 62457F53 		.word	1400849762
 3594 0cb0 B1E07764 		.word	1685577905
 3595 0cb4 BB84AE6B 		.word	1806599355
 3596 0cb8 FE1CA081 		.word	-2120213250
 3597 0cbc F9942B08 		.word	137073913
 3598 0cc0 70586848 		.word	1214797936
 3599 0cc4 8F19FD45 		.word	1174215055
 3600 0cc8 94876CDE 		.word	-563312748
 3601 0ccc 52B7F87B 		.word	2079897426
 3602 0cd0 AB23D373 		.word	1943217067
 3603 0cd4 72E2024B 		.word	1258480242
 3604 0cd8 E3578F1F 		.word	529487843
 3605 0cdc 662AAB55 		.word	1437280870
 3606 0ce0 B20728EB 		.word	-349698126
 3607 0ce4 2F03C2B5 		.word	-1245576401
 3608 0ce8 869A7BC5 		.word	-981755258
 3609 0cec D3A50837 		.word	923313619
 3610 0cf0 30F28728 		.word	679998000
 3611 0cf4 23B2A5BF 		.word	-1079659997
 3612 0cf8 02BA6A03 		.word	57326082
 3613 0cfc ED5C8216 		.word	377642221
 3614 0d00 8A2B1CCF 		.word	-820237430
 3615 0d04 A792B479 		.word	2041877159
 3616 0d08 F3F0F207 		.word	133361907
 3617 0d0c 4EA1E269 		.word	1776460110
 3618 0d10 65CDF4DA 		.word	-621490843
 3619 0d14 06D5BE05 		.word	96392454
ARM GAS  /tmp/ccVUwbrj.s 			page 64


 3620 0d18 D11F6234 		.word	878845905
 3621 0d1c C48AFEA6 		.word	-1493267772
 3622 0d20 349D532E 		.word	777231668
 3623 0d24 A2A055F3 		.word	-212492126
 3624 0d28 0532E18A 		.word	-1964953083
 3625 0d2c A475EBF6 		.word	-152341084
 3626 0d30 0B39EC83 		.word	-2081670901
 3627 0d34 40AAEF60 		.word	1626319424
 3628 0d38 5E069F71 		.word	1906247262
 3629 0d3c BD51106E 		.word	1846563261
 3630 0d40 3EF98A21 		.word	562755902
 3631 0d44 963D06DD 		.word	-586793578
 3632 0d48 DDAE053E 		.word	1040559837
 3633 0d4c 4D46BDE6 		.word	-423803315
 3634 0d50 91B58D54 		.word	1418573201
 3635 0d54 71055DC4 		.word	-1000536719
 3636 0d58 046FD406 		.word	114585348
 3637 0d5c 60FF1550 		.word	1343618912
 3638 0d60 1924FB98 		.word	-1728371687
 3639 0d64 D697E9BD 		.word	-1108764714
 3640 0d68 89CC4340 		.word	1078185097
 3641 0d6c 67779ED9 		.word	-643926169
 3642 0d70 B0BD42E8 		.word	-398279248
 3643 0d74 07888B89 		.word	-1987344377
 3644 0d78 E7385B19 		.word	425408743
 3645 0d7c 79DBEEC8 		.word	-923870343
 3646 0d80 A1470A7C 		.word	2081048481
 3647 0d84 7CE90F42 		.word	1108339068
 3648 0d88 F8C91E84 		.word	-2078357000
 3649 0d8c 00000000 		.word	0
 3650 0d90 09838680 		.word	-2138668279
 3651 0d94 3248ED2B 		.word	736970802
 3652 0d98 1EAC7011 		.word	292596766
 3653 0d9c 6C4E725A 		.word	1517440620
 3654 0da0 FDFBFF0E 		.word	251657213
 3655 0da4 0F563885 		.word	-2059905521
 3656 0da8 3D1ED5AE 		.word	-1361764803
 3657 0dac 3627392D 		.word	758720310
 3658 0db0 0A64D90F 		.word	265905162
 3659 0db4 6821A65C 		.word	1554391400
 3660 0db8 9BD1545B 		.word	1532285339
 3661 0dbc 243A2E36 		.word	908999204
 3662 0dc0 0CB1670A 		.word	174567692
 3663 0dc4 930FE757 		.word	1474760595
 3664 0dc8 B4D296EE 		.word	-292105548
 3665 0dcc 1B9E919B 		.word	-1684955621
 3666 0dd0 804FC5C0 		.word	-1060810880
 3667 0dd4 61A220DC 		.word	-601841055
 3668 0dd8 5A694B77 		.word	2001430874
 3669 0ddc 1C161A12 		.word	303699484
 3670 0de0 E20ABA93 		.word	-1816524062
 3671 0de4 C0E52AA0 		.word	-1607801408
 3672 0de8 3C43E022 		.word	585122620
 3673 0dec 121D171B 		.word	454499602
 3674 0df0 0E0B0D09 		.word	151849742
 3675 0df4 F2ADC78B 		.word	-1949848078
 3676 0df8 2DB9A8B6 		.word	-1230456531
ARM GAS  /tmp/ccVUwbrj.s 			page 65


 3677 0dfc 14C8A91E 		.word	514443284
 3678 0e00 578519F1 		.word	-249985705
 3679 0e04 AF4C0775 		.word	1963412655
 3680 0e08 EEBBDD99 		.word	-1713521682
 3681 0e0c A3FD607F 		.word	2137062819
 3682 0e10 F79F2601 		.word	19308535
 3683 0e14 5CBCF572 		.word	1928707164
 3684 0e18 44C53B66 		.word	1715193156
 3685 0e1c 5B347EFB 		.word	-75615141
 3686 0e20 8B762943 		.word	1126790795
 3687 0e24 CBDCC623 		.word	600235211
 3688 0e28 B668FCED 		.word	-302225226
 3689 0e2c B863F1E4 		.word	-453942344
 3690 0e30 D7CADC31 		.word	836553431
 3691 0e34 42108563 		.word	1669664834
 3692 0e38 13402297 		.word	-1759363053
 3693 0e3c 842011C6 		.word	-971956092
 3694 0e40 857D244A 		.word	1243905413
 3695 0e44 D2F83DBB 		.word	-1153566510
 3696 0e48 AE1132F9 		.word	-114159186
 3697 0e4c C76DA129 		.word	698445255
 3698 0e50 1D4B2F9E 		.word	-1641067747
 3699 0e54 DCF330B2 		.word	-1305414692
 3700 0e58 0DEC5286 		.word	-2041385971
 3701 0e5c 77D0E3C1 		.word	-1042034569
 3702 0e60 2B6C16B3 		.word	-1290376149
 3703 0e64 A999B970 		.word	1891211689
 3704 0e68 11FA4894 		.word	-1807156719
 3705 0e6c 472264E9 		.word	-379313593
 3706 0e70 A8C48CFC 		.word	-57883480
 3707 0e74 A01A3FF0 		.word	-264299872
 3708 0e78 56D82C7D 		.word	2100090966
 3709 0e7c 22EF9033 		.word	865136418
 3710 0e80 87C74E49 		.word	1229899655
 3711 0e84 D9C1D138 		.word	953270745
 3712 0e88 8CFEA2CA 		.word	-895287668
 3713 0e8c 98360BD4 		.word	-737462632
 3714 0e90 A6CF81F5 		.word	-176042074
 3715 0e94 A528DE7A 		.word	2061379749
 3716 0e98 DA268EB7 		.word	-1215420710
 3717 0e9c 3FA4BFAD 		.word	-1379949505
 3718 0ea0 2CE49D3A 		.word	983426092
 3719 0ea4 500D9278 		.word	2022837584
 3720 0ea8 6A9BCC5F 		.word	1607244650
 3721 0eac 5462467E 		.word	2118541908
 3722 0eb0 F6C2138D 		.word	-1928084746
 3723 0eb4 90E8B8D8 		.word	-658970480
 3724 0eb8 2E5EF739 		.word	972512814
 3725 0ebc 82F5AFC3 		.word	-1011878526
 3726 0ec0 9FBE805D 		.word	1568718495
 3727 0ec4 697C93D0 		.word	-795640727
 3728 0ec8 6FA92DD5 		.word	-718427793
 3729 0ecc CFB31225 		.word	621982671
 3730 0ed0 C83B99AC 		.word	-1399243832
 3731 0ed4 10A77D18 		.word	410887952
 3732 0ed8 E86E639C 		.word	-1671205144
 3733 0edc DB7BBB3B 		.word	1002142683
ARM GAS  /tmp/ccVUwbrj.s 			page 66


 3734 0ee0 CD097826 		.word	645401037
 3735 0ee4 6EF41859 		.word	1494807662
 3736 0ee8 EC01B79A 		.word	-1699282452
 3737 0eec 83A89A4F 		.word	1335535747
 3738 0ef0 E6656E95 		.word	-1787927066
 3739 0ef4 AA7EE6FF 		.word	-1671510
 3740 0ef8 2108CFBC 		.word	-1127282655
 3741 0efc EFE6E815 		.word	367585007
 3742 0f00 BAD99BE7 		.word	-409216582
 3743 0f04 4ACE366F 		.word	1865862730
 3744 0f08 EAD4099F 		.word	-1626745622
 3745 0f0c 29D67CB0 		.word	-1333995991
 3746 0f10 31AFB2A4 		.word	-1531793615
 3747 0f14 2A31233F 		.word	1059270954
 3748 0f18 C63094A5 		.word	-1517014842
 3749 0f1c 35C066A2 		.word	-1570324427
 3750 0f20 7437BC4E 		.word	1320957812
 3751 0f24 FCA6CA82 		.word	-2100648196
 3752 0f28 E0B0D090 		.word	-1865371424
 3753 0f2c 3315D8A7 		.word	-1479011021
 3754 0f30 F14A9804 		.word	77089521
 3755 0f34 41F7DAEC 		.word	-321194175
 3756 0f38 7F0E50CD 		.word	-850391425
 3757 0f3c 172FF691 		.word	-1846137065
 3758 0f40 768DD64D 		.word	1305906550
 3759 0f44 434DB0EF 		.word	-273658557
 3760 0f48 CC544DAA 		.word	-1437772596
 3761 0f4c E4DF0496 		.word	-1778065436
 3762 0f50 9EE3B5D1 		.word	-776608866
 3763 0f54 4C1B886A 		.word	1787304780
 3764 0f58 C1B81F2C 		.word	740276417
 3765 0f5c 467F5165 		.word	1699839814
 3766 0f60 9D04EA5E 		.word	1592394909
 3767 0f64 015D358C 		.word	-1942659839
 3768 0f68 FA737487 		.word	-2022411270
 3769 0f6c FB2E410B 		.word	188821243
 3770 0f70 B35A1D67 		.word	1729977011
 3771 0f74 9252D2DB 		.word	-606973294
 3772 0f78 E9335610 		.word	274084841
 3773 0f7c 6D1347D6 		.word	-699985043
 3774 0f80 9A8C61D7 		.word	-681472870
 3775 0f84 377A0CA1 		.word	-1593017801
 3776 0f88 598E14F8 		.word	-132870567
 3777 0f8c EB893C13 		.word	322734571
 3778 0f90 CEEE27A9 		.word	-1457000754
 3779 0f94 B735C961 		.word	1640576439
 3780 0f98 E1EDE51C 		.word	484830689
 3781 0f9c 7A3CB147 		.word	1202797690
 3782 0fa0 9C59DFD2 		.word	-757114468
 3783 0fa4 553F73F2 		.word	-227328171
 3784 0fa8 1879CE14 		.word	349075736
 3785 0fac 73BF37C7 		.word	-952647821
 3786 0fb0 53EACDF7 		.word	-137500077
 3787 0fb4 5F5BAAFD 		.word	-39167137
 3788 0fb8 DF146F3D 		.word	1030690015
 3789 0fbc 7886DB44 		.word	1155237496
 3790 0fc0 CA81F3AF 		.word	-1342996022
ARM GAS  /tmp/ccVUwbrj.s 			page 67


 3791 0fc4 B93EC468 		.word	1757691577
 3792 0fc8 382C3424 		.word	607398968
 3793 0fcc C25F40A3 		.word	-1556062270
 3794 0fd0 1672C31D 		.word	499347990
 3795 0fd4 BC0C25E2 		.word	-500888388
 3796 0fd8 288B493C 		.word	1011452712
 3797 0fdc FF41950D 		.word	227885567
 3798 0fe0 397101A8 		.word	-1476300487
 3799 0fe4 08DEB30C 		.word	213114376
 3800 0fe8 D89CE4B4 		.word	-1260086056
 3801 0fec 6490C156 		.word	1455525988
 3802 0ff0 7B6184CB 		.word	-880516741
 3803 0ff4 D570B632 		.word	850817237
 3804 0ff8 48745C6C 		.word	1817998408
 3805 0ffc D04257B8 		.word	-1202240816
 3806              		.section	.rodata.Td4,"a"
 3807              		.set	.LANCHOR1,. + 0
 3810              	Td4:
 3811 0000 52096AD5 		.ascii	"R\011j\32506\2458\277@\243\236\201\363\327\373|\343"
 3811      3036A538 
 3811      BF40A39E 
 3811      81F3D7FB 
 3811      7CE3
 3812 0012 39829B2F 		.ascii	"9\202\233/\377\2074\216CD\304\336\351\313T{\2242\246"
 3812      FF87348E 
 3812      4344C4DE 
 3812      E9CB547B 
 3812      9432A6
 3813 0025 C2233DEE 		.ascii	"\302#=\356L\225\013B\372\303N\010.\241f(\331$\262v["
 3813      4C950B42 
 3813      FAC34E08 
 3813      2EA16628 
 3813      D924B276 
 3814 003a A2496D8B 		.ascii	"\242Im\213\321%r\370\366d\206h\230\026\324\244\\\314"
 3814      D12572F8 
 3814      F6648668 
 3814      9816D4A4 
 3814      5CCC
 3815 004c 5D65B692 		.ascii	"]e\266\222lpHP\375\355\271\332^\025FW\247\215\235\204"
 3815      6C704850 
 3815      FDEDB9DA 
 3815      5E154657 
 3815      A78D9D84 
 3816 0060 90D8AB00 		.ascii	"\220\330\253\000\214\274\323\012\367\344X\005\270\263"
 3816      8CBCD30A 
 3816      F7E45805 
 3816      B8B3
 3817 006e 4506D02C 		.ascii	"E\006\320,\036\217\312?\017\002\301\257\275\003\001"
 3817      1E8FCA3F 
 3817      0F02C1AF 
 3817      BD0301
 3818 007d 138A6B3A 		.ascii	"\023\212k:\221\021AOg\334\352\227\362\317\316\360\264"
 3818      9111414F 
 3818      67DCEA97 
 3818      F2CFCEF0 
 3818      B4
 3819 008e E67396AC 		.ascii	"\346s\226\254t\"\347\2555\205\342\3717\350\034u\337"
ARM GAS  /tmp/ccVUwbrj.s 			page 68


 3819      7422E7AD 
 3819      3585E2F9 
 3819      37E81C75 
 3819      DF
 3820 009f 6E47F11A 		.ascii	"nG\361\032q\035)\305\211o\267b\016\252\030\276\033\374"
 3820      711D29C5 
 3820      896FB762 
 3820      0EAA18BE 
 3820      1BFC
 3821 00b1 563E4BC6 		.ascii	"V>K\306\322y \232\333\300\376x\315Z\364\037\335\250"
 3821      D279209A 
 3821      DBC0FE78 
 3821      CD5AF41F 
 3821      DDA8
 3822 00c3 338807C7 		.ascii	"3\210\007\3071\261\022\020Y'\200\354_`Q\177\251\031"
 3822      31B11210 
 3822      592780EC 
 3822      5F60517F 
 3822      A919
 3823 00d5 B54A0D2D 		.ascii	"\265J\015-\345z\237\223\311\234\357\240\340;M\256*\365"
 3823      E57A9F93 
 3823      C99CEFA0 
 3823      E03B4DAE 
 3823      2AF5
 3824 00e7 B0C8EBBB 		.ascii	"\260\310\353\273<\203S\231a\027+\004~\272w\326&\341"
 3824      3C835399 
 3824      61172B04 
 3824      7EBA77D6 
 3824      26E1
 3825 00f9 69146355 		.ascii	"i\024cU!\014}"
 3825      210C7D
 3826              		.section	.rodata.Te,"a"
 3827              		.align	2
 3830              	Te:
 3831 0000 A56363C6 		.word	-966564955
 3832 0004 847C7CF8 		.word	-126059388
 3833 0008 997777EE 		.word	-294160487
 3834 000c 8D7B7BF6 		.word	-159679603
 3835 0010 0DF2F2FF 		.word	-855539
 3836 0014 BD6B6BD6 		.word	-697603139
 3837 0018 B16F6FDE 		.word	-563122255
 3838 001c 54C5C591 		.word	-1849309868
 3839 0020 50303060 		.word	1613770832
 3840 0024 03010102 		.word	33620227
 3841 0028 A96767CE 		.word	-832084055
 3842 002c 7D2B2B56 		.word	1445669757
 3843 0030 19FEFEE7 		.word	-402719207
 3844 0034 62D7D7B5 		.word	-1244145822
 3845 0038 E6ABAB4D 		.word	1303096294
 3846 003c 9A7676EC 		.word	-327780710
 3847 0040 45CACA8F 		.word	-1882535355
 3848 0044 9D82821F 		.word	528646813
 3849 0048 40C9C989 		.word	-1983264448
 3850 004c 877D7DFA 		.word	-92439161
 3851 0050 15FAFAEF 		.word	-268764651
 3852 0054 EB5959B2 		.word	-1302767125
 3853 0058 C947478E 		.word	-1907931191
ARM GAS  /tmp/ccVUwbrj.s 			page 69


 3854 005c 0BF0F0FB 		.word	-68095989
 3855 0060 ECADAD41 		.word	1101901292
 3856 0064 67D4D4B3 		.word	-1277897625
 3857 0068 FDA2A25F 		.word	1604494077
 3858 006c EAAFAF45 		.word	1169141738
 3859 0070 BF9C9C23 		.word	597466303
 3860 0074 F7A4A453 		.word	1403299063
 3861 0078 967272E4 		.word	-462261610
 3862 007c 5BC0C09B 		.word	-1681866661
 3863 0080 C2B7B775 		.word	1974974402
 3864 0084 1CFDFDE1 		.word	-503448292
 3865 0088 AE93933D 		.word	1033081774
 3866 008c 6A26264C 		.word	1277568618
 3867 0090 5A36366C 		.word	1815492186
 3868 0094 413F3F7E 		.word	2118074177
 3869 0098 02F7F7F5 		.word	-168298750
 3870 009c 4FCCCC83 		.word	-2083730353
 3871 00a0 5C343468 		.word	1748251740
 3872 00a4 F4A5A551 		.word	1369810420
 3873 00a8 34E5E5D1 		.word	-773462732
 3874 00ac 08F1F1F9 		.word	-101584632
 3875 00b0 937171E2 		.word	-495881837
 3876 00b4 73D8D8AB 		.word	-1411852173
 3877 00b8 53313162 		.word	1647391059
 3878 00bc 3F15152A 		.word	706024767
 3879 00c0 0C040408 		.word	134480908
 3880 00c4 52C7C795 		.word	-1782069422
 3881 00c8 65232346 		.word	1176707941
 3882 00cc 5EC3C39D 		.word	-1648114850
 3883 00d0 28181830 		.word	806885416
 3884 00d4 A1969637 		.word	932615841
 3885 00d8 0F05050A 		.word	168101135
 3886 00dc B59A9A2F 		.word	798661301
 3887 00e0 0907070E 		.word	235341577
 3888 00e4 36121224 		.word	605164086
 3889 00e8 9B80801B 		.word	461406363
 3890 00ec 3DE2E2DF 		.word	-538779075
 3891 00f0 26EBEBCD 		.word	-840176858
 3892 00f4 6927274E 		.word	1311188841
 3893 00f8 CDB2B27F 		.word	2142417613
 3894 00fc 9F7575EA 		.word	-361400929
 3895 0100 1B090912 		.word	302582043
 3896 0104 9E83831D 		.word	495158174
 3897 0108 742C2C58 		.word	1479289972
 3898 010c 2E1A1A34 		.word	874125870
 3899 0110 2D1B1B36 		.word	907746093
 3900 0114 B26E6EDC 		.word	-596742478
 3901 0118 EE5A5AB4 		.word	-1269146898
 3902 011c FBA0A05B 		.word	1537253627
 3903 0120 F65252A4 		.word	-1538108682
 3904 0124 4D3B3B76 		.word	1983593293
 3905 0128 61D6D6B7 		.word	-1210657183
 3906 012c CEB3B37D 		.word	2108928974
 3907 0130 7B292952 		.word	1378429307
 3908 0134 3EE3E3DD 		.word	-572267714
 3909 0138 712F2F5E 		.word	1580150641
 3910 013c 97848413 		.word	327451799
ARM GAS  /tmp/ccVUwbrj.s 			page 70


 3911 0140 F55353A6 		.word	-1504488459
 3912 0144 68D1D1B9 		.word	-1177431704
 3913 0148 00000000 		.word	0
 3914 014c 2CEDEDC1 		.word	-1041371860
 3915 0150 60202040 		.word	1075847264
 3916 0154 1FFCFCE3 		.word	-469959649
 3917 0158 C8B1B179 		.word	2041688520
 3918 015c ED5B5BB6 		.word	-1235526675
 3919 0160 BE6A6AD4 		.word	-731223362
 3920 0164 46CBCB8D 		.word	-1916023994
 3921 0168 D9BEBE67 		.word	1740553945
 3922 016c 4B393972 		.word	1916352843
 3923 0170 DE4A4A94 		.word	-1807070498
 3924 0174 D44C4C98 		.word	-1739830060
 3925 0178 E85858B0 		.word	-1336387352
 3926 017c 4ACFCF85 		.word	-2049978550
 3927 0180 6BD0D0BB 		.word	-1143943061
 3928 0184 2AEFEFC5 		.word	-974131414
 3929 0188 E5AAAA4F 		.word	1336584933
 3930 018c 16FBFBED 		.word	-302253290
 3931 0190 C5434386 		.word	-2042412091
 3932 0194 D74D4D9A 		.word	-1706209833
 3933 0198 55333366 		.word	1714631509
 3934 019c 94858511 		.word	293963156
 3935 01a0 CF45458A 		.word	-1975171633
 3936 01a4 10F9F9E9 		.word	-369493744
 3937 01a8 06020204 		.word	67240454
 3938 01ac 817F7FFE 		.word	-25198719
 3939 01b0 F05050A0 		.word	-1605349136
 3940 01b4 443C3C78 		.word	2017213508
 3941 01b8 BA9F9F25 		.word	631218106
 3942 01bc E3A8A84B 		.word	1269344483
 3943 01c0 F35151A2 		.word	-1571728909
 3944 01c4 FEA3A35D 		.word	1571005438
 3945 01c8 C0404080 		.word	-2143272768
 3946 01cc 8A8F8F05 		.word	93294474
 3947 01d0 AD92923F 		.word	1066570413
 3948 01d4 BC9D9D21 		.word	563977660
 3949 01d8 48383870 		.word	1882732616
 3950 01dc 04F5F5F1 		.word	-235539196
 3951 01e0 DFBCBC63 		.word	1673313503
 3952 01e4 C1B6B677 		.word	2008463041
 3953 01e8 75DADAAF 		.word	-1344611723
 3954 01ec 63212142 		.word	1109467491
 3955 01f0 30101020 		.word	537923632
 3956 01f4 1AFFFFE5 		.word	-436207846
 3957 01f8 0EF3F3FD 		.word	-34344178
 3958 01fc 6DD2D2BF 		.word	-1076702611
 3959 0200 4CCDCD81 		.word	-2117218996
 3960 0204 140C0C18 		.word	403442708
 3961 0208 35131326 		.word	638784309
 3962 020c 2FECECC3 		.word	-1007883217
 3963 0210 E15F5FBE 		.word	-1101045791
 3964 0214 A2979735 		.word	899127202
 3965 0218 CC444488 		.word	-2008791860
 3966 021c 3917172E 		.word	773265209
 3967 0220 57C4C493 		.word	-1815821225
ARM GAS  /tmp/ccVUwbrj.s 			page 71


 3968 0224 F2A7A755 		.word	1437050866
 3969 0228 827E7EFC 		.word	-58818942
 3970 022c 473D3D7A 		.word	2050833735
 3971 0230 AC6464C8 		.word	-932944724
 3972 0234 E75D5DBA 		.word	-1168286233
 3973 0238 2B191932 		.word	840505643
 3974 023c 957373E6 		.word	-428641387
 3975 0240 A06060C0 		.word	-1067425632
 3976 0244 98818119 		.word	427917720
 3977 0248 D14F4F9E 		.word	-1638969391
 3978 024c 7FDCDCA3 		.word	-1545806721
 3979 0250 66222244 		.word	1143087718
 3980 0254 7E2A2A54 		.word	1412049534
 3981 0258 AB90903B 		.word	999329963
 3982 025c 8388880B 		.word	193497219
 3983 0260 CA46468C 		.word	-1941551414
 3984 0264 29EEEEC7 		.word	-940642775
 3985 0268 D3B8B86B 		.word	1807268051
 3986 026c 3C141428 		.word	672404540
 3987 0270 79DEDEA7 		.word	-1478566279
 3988 0274 E25E5EBC 		.word	-1134666014
 3989 0278 1D0B0B16 		.word	369822493
 3990 027c 76DBDBAD 		.word	-1378100362
 3991 0280 3BE0E0DB 		.word	-606019525
 3992 0284 56323264 		.word	1681011286
 3993 0288 4E3A3A74 		.word	1949973070
 3994 028c 1E0A0A14 		.word	336202270
 3995 0290 DB494992 		.word	-1840690725
 3996 0294 0A06060C 		.word	201721354
 3997 0298 6C242448 		.word	1210328172
 3998 029c E45C5CB8 		.word	-1201906460
 3999 02a0 5DC2C29F 		.word	-1614626211
 4000 02a4 6ED3D3BD 		.word	-1110191250
 4001 02a8 EFACAC43 		.word	1135389935
 4002 02ac A66262C4 		.word	-1000185178
 4003 02b0 A8919139 		.word	965841320
 4004 02b4 A4959531 		.word	831886756
 4005 02b8 37E4E4D3 		.word	-739974089
 4006 02bc 8B7979F2 		.word	-226920053
 4007 02c0 32E7E7D5 		.word	-706222286
 4008 02c4 43C8C88B 		.word	-1949775805
 4009 02c8 5937376E 		.word	1849112409
 4010 02cc B76D6DDA 		.word	-630362697
 4011 02d0 8C8D8D01 		.word	26054028
 4012 02d4 64D5D5B1 		.word	-1311386268
 4013 02d8 D24E4E9C 		.word	-1672589614
 4014 02dc E0A9A949 		.word	1235855840
 4015 02e0 B46C6CD8 		.word	-663982924
 4016 02e4 FA5656AC 		.word	-1403627782
 4017 02e8 07F4F4F3 		.word	-202050553
 4018 02ec 25EAEACF 		.word	-806688219
 4019 02f0 AF6565CA 		.word	-899324497
 4020 02f4 8E7A7AF4 		.word	-193299826
 4021 02f8 E9AEAE47 		.word	1202630377
 4022 02fc 18080810 		.word	268961816
 4023 0300 D5BABA6F 		.word	1874508501
 4024 0304 887878F0 		.word	-260540280
ARM GAS  /tmp/ccVUwbrj.s 			page 72


 4025 0308 6F25254A 		.word	1243948399
 4026 030c 722E2E5C 		.word	1546530418
 4027 0310 241C1C38 		.word	941366308
 4028 0314 F1A6A657 		.word	1470539505
 4029 0318 C7B4B473 		.word	1941222599
 4030 031c 51C6C697 		.word	-1748580783
 4031 0320 23E8E8CB 		.word	-873928669
 4032 0324 7CDDDDA1 		.word	-1579295364
 4033 0328 9C7474E8 		.word	-395021156
 4034 032c 211F1F3E 		.word	1042226977
 4035 0330 DD4B4B96 		.word	-1773450275
 4036 0334 DCBDBD61 		.word	1639824860
 4037 0338 868B8B0D 		.word	227249030
 4038 033c 858A8A0F 		.word	260737669
 4039 0340 907070E0 		.word	-529502064
 4040 0344 423E3E7C 		.word	2084453954
 4041 0348 C4B5B571 		.word	1907733956
 4042 034c AA6666CC 		.word	-865704278
 4043 0350 D8484890 		.word	-1874310952
 4044 0354 05030306 		.word	100860677
 4045 0358 01F6F6F7 		.word	-134810111
 4046 035c 120E0E1C 		.word	470683154
 4047 0360 A36161C2 		.word	-1033805405
 4048 0364 5F35356A 		.word	1781871967
 4049 0368 F95757AE 		.word	-1370007559
 4050 036c D0B9B969 		.word	1773779408
 4051 0370 91868617 		.word	394692241
 4052 0374 58C1C199 		.word	-1715355304
 4053 0378 271D1D3A 		.word	974986535
 4054 037c B99E9E27 		.word	664706745
 4055 0380 38E1E1D9 		.word	-639508168
 4056 0384 13F8F8EB 		.word	-336005101
 4057 0388 B398982B 		.word	731420851
 4058 038c 33111122 		.word	571543859
 4059 0390 BB6969D2 		.word	-764843589
 4060 0394 70D9D9A9 		.word	-1445340816
 4061 0398 898E8E07 		.word	126783113
 4062 039c A7949433 		.word	865375399
 4063 03a0 B69B9B2D 		.word	765172662
 4064 03a4 221E1E3C 		.word	1008606754
 4065 03a8 92878715 		.word	361203602
 4066 03ac 20E9E9C9 		.word	-907417312
 4067 03b0 49CECE87 		.word	-2016489911
 4068 03b4 FF5555AA 		.word	-1437248001
 4069 03b8 78282850 		.word	1344809080
 4070 03bc 7ADFDFA5 		.word	-1512054918
 4071 03c0 8F8C8C03 		.word	59542671
 4072 03c4 F8A1A159 		.word	1503764984
 4073 03c8 80898909 		.word	160008576
 4074 03cc 170D0D1A 		.word	437062935
 4075 03d0 DABFBF65 		.word	1707065306
 4076 03d4 31E6E6D7 		.word	-672733647
 4077 03d8 C6424284 		.word	-2076032314
 4078 03dc B86868D0 		.word	-798463816
 4079 03e0 C3414182 		.word	-2109652541
 4080 03e4 B0999929 		.word	697932208
 4081 03e8 772D2D5A 		.word	1512910199
ARM GAS  /tmp/ccVUwbrj.s 			page 73


 4082 03ec 110F0F1E 		.word	504303377
 4083 03f0 CBB0B07B 		.word	2075177163
 4084 03f4 FC5454A8 		.word	-1470868228
 4085 03f8 D6BBBB6D 		.word	1841019862
 4086 03fc 3A16162C 		.word	739644986
 4087 0400 6363C6A5 		.word	-1513725085
 4088 0404 7C7CF884 		.word	-2064089988
 4089 0408 7777EE99 		.word	-1712425097
 4090 040c 7B7BF68D 		.word	-1913226373
 4091 0410 F2F2FF0D 		.word	234877682
 4092 0414 6B6BD6BD 		.word	-1110021269
 4093 0418 6F6FDEB1 		.word	-1310822545
 4094 041c C5C59154 		.word	1418839493
 4095 0420 30306050 		.word	1348481072
 4096 0424 01010203 		.word	50462977
 4097 0428 6767CEA9 		.word	-1446090905
 4098 042c 2B2B567D 		.word	2102799147
 4099 0430 FEFEE719 		.word	434634494
 4100 0434 D7D7B562 		.word	1656084439
 4101 0438 ABAB4DE6 		.word	-431117397
 4102 043c 7676EC9A 		.word	-1695779210
 4103 0440 CACA8F45 		.word	1167051466
 4104 0444 82821F9D 		.word	-1658879358
 4105 0448 C9C98940 		.word	1082771913
 4106 044c 7D7DFA87 		.word	-2013627011
 4107 0450 FAFAEF15 		.word	368048890
 4108 0454 5959B2EB 		.word	-340633255
 4109 0458 47478EC9 		.word	-913422521
 4110 045c F0F0FB0B 		.word	201060592
 4111 0460 ADAD41EC 		.word	-331240019
 4112 0464 D4D4B367 		.word	1739838676
 4113 0468 A2A25FFD 		.word	-44064094
 4114 046c AFAF45EA 		.word	-364531793
 4115 0470 9C9C23BF 		.word	-1088185188
 4116 0474 A4A453F7 		.word	-145513308
 4117 0478 7272E496 		.word	-1763413390
 4118 047c C0C09B5B 		.word	1536934080
 4119 0480 B7B775C2 		.word	-1032472649
 4120 0484 FDFDE11C 		.word	484572669
 4121 0488 93933DAE 		.word	-1371696237
 4122 048c 26264C6A 		.word	1783375398
 4123 0490 36366C5A 		.word	1517041206
 4124 0494 3F3F7E41 		.word	1098792767
 4125 0498 F7F7F502 		.word	49674231
 4126 049c CCCC834F 		.word	1334037708
 4127 04a0 3434685C 		.word	1550332980
 4128 04a4 A5A551F4 		.word	-195975771
 4129 04a8 E5E5D134 		.word	886171109
 4130 04ac F1F1F908 		.word	150598129
 4131 04b0 7171E293 		.word	-1813876367
 4132 04b4 D8D8AB73 		.word	1940642008
 4133 04b8 31316253 		.word	1398944049
 4134 04bc 15152A3F 		.word	1059722517
 4135 04c0 0404080C 		.word	201851908
 4136 04c4 C7C79552 		.word	1385547719
 4137 04c8 23234665 		.word	1699095331
 4138 04cc C3C39D5E 		.word	1587397571
ARM GAS  /tmp/ccVUwbrj.s 			page 74


 4139 04d0 18183028 		.word	674240536
 4140 04d4 969637A1 		.word	-1590192490
 4141 04d8 05050A0F 		.word	252314885
 4142 04dc 9A9A2FB5 		.word	-1255171430
 4143 04e0 07070E09 		.word	151914247
 4144 04e4 12122436 		.word	908333586
 4145 04e8 80801B9B 		.word	-1692696448
 4146 04ec E2E2DF3D 		.word	1038082786
 4147 04f0 EBEBCD26 		.word	651029483
 4148 04f4 27274E69 		.word	1766729511
 4149 04f8 B2B27FCD 		.word	-847269198
 4150 04fc 7575EA9F 		.word	-1612024459
 4151 0500 0909121B 		.word	454166793
 4152 0504 83831D9E 		.word	-1642232957
 4153 0508 2C2C5874 		.word	1951935532
 4154 050c 1A1A342E 		.word	775166490
 4155 0510 1B1B362D 		.word	758520603
 4156 0514 6E6EDCB2 		.word	-1294176658
 4157 0518 5A5AB4EE 		.word	-290170278
 4158 051c A0A05BFB 		.word	-77881184
 4159 0520 5252A4F6 		.word	-157003182
 4160 0524 3B3B764D 		.word	1299594043
 4161 0528 D6D6B761 		.word	1639438038
 4162 052c B3B37DCE 		.word	-830622797
 4163 0530 2929527B 		.word	2068982057
 4164 0534 E3E3DD3E 		.word	1054729187
 4165 0538 2F2F5E71 		.word	1901997871
 4166 053c 84841397 		.word	-1760328572
 4167 0540 5353A6F5 		.word	-173649069
 4168 0544 D1D1B968 		.word	1757008337
 4169 0548 00000000 		.word	0
 4170 054c EDEDC12C 		.word	750906861
 4171 0550 20204060 		.word	1614815264
 4172 0554 FCFCE31F 		.word	535035132
 4173 0558 B1B179C8 		.word	-931548751
 4174 055c 5B5BB6ED 		.word	-306816165
 4175 0560 6A6AD4BE 		.word	-1093375382
 4176 0564 CBCB8D46 		.word	1183697867
 4177 0568 BEBE67D9 		.word	-647512386
 4178 056c 3939724B 		.word	1265776953
 4179 0570 4A4A94DE 		.word	-560706998
 4180 0574 4C4C98D4 		.word	-728216500
 4181 0578 5858B0E8 		.word	-391096232
 4182 057c CFCF854A 		.word	1250283471
 4183 0580 D0D0BB6B 		.word	1807470800
 4184 0584 EFEFC52A 		.word	717615087
 4185 0588 AAAA4FE5 		.word	-447763798
 4186 058c FBFBED16 		.word	384695291
 4187 0590 434386C5 		.word	-981056701
 4188 0594 4D4D9AD7 		.word	-677753523
 4189 0598 33336655 		.word	1432761139
 4190 059c 85851194 		.word	-1810791035
 4191 05a0 45458ACF 		.word	-813021883
 4192 05a4 F9F9E910 		.word	283769337
 4193 05a8 02020406 		.word	100925954
 4194 05ac 7F7FFE81 		.word	-2114027649
 4195 05b0 5050A0F0 		.word	-257929136
ARM GAS  /tmp/ccVUwbrj.s 			page 75


 4196 05b4 3C3C7844 		.word	1148730428
 4197 05b8 9F9F25BA 		.word	-1171939425
 4198 05bc A8A84BE3 		.word	-481580888
 4199 05c0 5151A2F3 		.word	-207466159
 4200 05c4 A3A35DFE 		.word	-27417693
 4201 05c8 404080C0 		.word	-1065336768
 4202 05cc 8F8F058A 		.word	-1979347057
 4203 05d0 92923FAD 		.word	-1388342638
 4204 05d4 9D9D21BC 		.word	-1138647651
 4205 05d8 38387048 		.word	1215313976
 4206 05dc F5F5F104 		.word	82966005
 4207 05e0 BCBC63DF 		.word	-547111748
 4208 05e4 B6B677C1 		.word	-1049119050
 4209 05e8 DADAAF75 		.word	1974459098
 4210 05ec 21214263 		.word	1665278241
 4211 05f0 10102030 		.word	807407632
 4212 05f4 FFFFE51A 		.word	451280895
 4213 05f8 F3F3FD0E 		.word	251524083
 4214 05fc D2D2BF6D 		.word	1841287890
 4215 0600 CDCD814C 		.word	1283575245
 4216 0604 0C0C1814 		.word	337120268
 4217 0608 13132635 		.word	891687699
 4218 060c ECECC32F 		.word	801369324
 4219 0610 5F5FBEE1 		.word	-507617441
 4220 0614 979735A2 		.word	-1573546089
 4221 0618 444488CC 		.word	-863484860
 4222 061c 17172E39 		.word	959321879
 4223 0620 C4C49357 		.word	1469301956
 4224 0624 A7A755F2 		.word	-229267545
 4225 0628 7E7EFC82 		.word	-2097381762
 4226 062c 3D3D7A47 		.word	1199193405
 4227 0630 6464C8AC 		.word	-1396153244
 4228 0634 5D5DBAE7 		.word	-407216803
 4229 0638 1919322B 		.word	724703513
 4230 063c 7373E695 		.word	-1780059277
 4231 0640 6060C0A0 		.word	-1598005152
 4232 0644 81811998 		.word	-1743158911
 4233 0648 4F4F9ED1 		.word	-778154161
 4234 064c DCDCA37F 		.word	2141445340
 4235 0650 22224466 		.word	1715741218
 4236 0654 2A2A547E 		.word	2119445034
 4237 0658 90903BAB 		.word	-1422159728
 4238 065c 88880B83 		.word	-2096396152
 4239 0660 46468CCA 		.word	-896776634
 4240 0664 EEEEC729 		.word	700968686
 4241 0668 B8B86BD3 		.word	-747915080
 4242 066c 1414283C 		.word	1009259540
 4243 0670 DEDEA779 		.word	2041044702
 4244 0674 5E5EBCE2 		.word	-490971554
 4245 0678 0B0B161D 		.word	487983883
 4246 067c DBDBAD76 		.word	1991105499
 4247 0680 E0E0DB3B 		.word	1004265696
 4248 0684 32326456 		.word	1449407026
 4249 0688 3A3A744E 		.word	1316239930
 4250 068c 0A0A141E 		.word	504629770
 4251 0690 494992DB 		.word	-611169975
 4252 0694 06060C0A 		.word	168560134
ARM GAS  /tmp/ccVUwbrj.s 			page 76


 4253 0698 2424486C 		.word	1816667172
 4254 069c 5C5CB8E4 		.word	-457679780
 4255 06a0 C2C29F5D 		.word	1570751170
 4256 06a4 D3D3BD6E 		.word	1857934291
 4257 06a8 ACAC43EF 		.word	-280777556
 4258 06ac 6262C4A6 		.word	-1497079198
 4259 06b0 919139A8 		.word	-1472622191
 4260 06b4 959531A4 		.word	-1540254315
 4261 06b8 E4E4D337 		.word	936633572
 4262 06bc 7979F28B 		.word	-1947043463
 4263 06c0 E7E7D532 		.word	852879335
 4264 06c4 C8C88B43 		.word	1133234376
 4265 06c8 37376E59 		.word	1500395319
 4266 06cc 6D6DDAB7 		.word	-1210421907
 4267 06d0 8D8D018C 		.word	-1946055283
 4268 06d4 D5D5B164 		.word	1689376213
 4269 06d8 4E4E9CD2 		.word	-761508274
 4270 06dc A9A949E0 		.word	-532043351
 4271 06e0 6C6CD8B4 		.word	-1260884884
 4272 06e4 5656ACFA 		.word	-89369002
 4273 06e8 F4F4F307 		.word	133428468
 4274 06ec EAEACF25 		.word	634383082
 4275 06f0 6565CAAF 		.word	-1345690267
 4276 06f4 7A7AF48E 		.word	-1896580486
 4277 06f8 AEAE47E9 		.word	-381178194
 4278 06fc 08081018 		.word	403703816
 4279 0700 BABA6FD5 		.word	-714097990
 4280 0704 7878F088 		.word	-1997506440
 4281 0708 25254A6F 		.word	1867130149
 4282 070c 2E2E5C72 		.word	1918643758
 4283 0710 1C1C3824 		.word	607656988
 4284 0714 A6A657F1 		.word	-245913946
 4285 0718 B4B473C7 		.word	-948718412
 4286 071c C6C69751 		.word	1368901318
 4287 0720 E8E8CB23 		.word	600565992
 4288 0724 DDDDA17C 		.word	2090982877
 4289 0728 7474E89C 		.word	-1662487436
 4290 072c 1F1F3E21 		.word	557719327
 4291 0730 4B4B96DD 		.word	-577352885
 4292 0734 BDBD61DC 		.word	-597574211
 4293 0738 8B8B0D86 		.word	-2045932661
 4294 073c 8A8A0F85 		.word	-2062579062
 4295 0740 7070E090 		.word	-1864339344
 4296 0744 3E3E7C42 		.word	1115438654
 4297 0748 B5B571C4 		.word	-999180875
 4298 074c 6666CCAA 		.word	-1429445018
 4299 0750 484890D8 		.word	-661632952
 4300 0754 03030605 		.word	84280067
 4301 0758 F6F6F701 		.word	33027830
 4302 075c 0E0E1C12 		.word	303828494
 4303 0760 6161C2A3 		.word	-1547542175
 4304 0764 35356A5F 		.word	1600795957
 4305 0768 5757AEF9 		.word	-106014889
 4306 076c B9B969D0 		.word	-798377543
 4307 0770 86861791 		.word	-1860729210
 4308 0774 C1C19958 		.word	1486471617
 4309 0778 1D1D3A27 		.word	658119965
ARM GAS  /tmp/ccVUwbrj.s 			page 77


 4310 077c 9E9E27B9 		.word	-1188585826
 4311 0780 E1E1D938 		.word	953803233
 4312 0784 F8F8EB13 		.word	334231800
 4313 0788 98982BB3 		.word	-1288988520
 4314 078c 11112233 		.word	857870609
 4315 0790 6969D2BB 		.word	-1143838359
 4316 0794 D9D9A970 		.word	1890179545
 4317 0798 8E8E0789 		.word	-1995993458
 4318 079c 949433A7 		.word	-1489791852
 4319 07a0 9B9B2DB6 		.word	-1238525029
 4320 07a4 1E1E3C22 		.word	574365214
 4321 07a8 87871592 		.word	-1844082809
 4322 07ac E9E9C920 		.word	550103529
 4323 07b0 CECE8749 		.word	1233637070
 4324 07b4 5555AAFF 		.word	-5614251
 4325 07b8 28285078 		.word	2018519080
 4326 07bc DFDFA57A 		.word	2057691103
 4327 07c0 8C8C038F 		.word	-1895592820
 4328 07c4 A1A159F8 		.word	-128343647
 4329 07c8 89890980 		.word	-2146858615
 4330 07cc 0D0D1A17 		.word	387583245
 4331 07d0 BFBF65DA 		.word	-630865985
 4332 07d4 E6E6D731 		.word	836232934
 4333 07d8 424284C6 		.word	-964410814
 4334 07dc 6868D0B8 		.word	-1194301336
 4335 07e0 414182C3 		.word	-1014873791
 4336 07e4 999929B0 		.word	-1339450983
 4337 07e8 2D2D5A77 		.word	2002398509
 4338 07ec 0F0F1E11 		.word	287182607
 4339 07f0 B0B07BCB 		.word	-881086288
 4340 07f4 5454A8FC 		.word	-56077228
 4341 07f8 BBBB6DD6 		.word	-697451589
 4342 07fc 16162C3A 		.word	975967766
 4343 0800 63C6A563 		.word	1671808611
 4344 0804 7CF8847C 		.word	2089089148
 4345 0808 77EE9977 		.word	2006576759
 4346 080c 7BF68D7B 		.word	2072901243
 4347 0810 F2FF0DF2 		.word	-233963534
 4348 0814 6BD6BD6B 		.word	1807603307
 4349 0818 6FDEB16F 		.word	1873927791
 4350 081c C59154C5 		.word	-984313403
 4351 0820 30605030 		.word	810573872
 4352 0824 01020301 		.word	16974337
 4353 0828 67CEA967 		.word	1739181671
 4354 082c 2B567D2B 		.word	729634347
 4355 0830 FEE719FE 		.word	-31856642
 4356 0834 D7B562D7 		.word	-681396777
 4357 0838 AB4DE6AB 		.word	-1410970197
 4358 083c 76EC9A76 		.word	1989864566
 4359 0840 CA8F45CA 		.word	-901410870
 4360 0844 821F9D82 		.word	-2103631998
 4361 0848 C98940C9 		.word	-918517303
 4362 084c 7DFA877D 		.word	2106063485
 4363 0850 FAEF15FA 		.word	-99225606
 4364 0854 59B2EB59 		.word	1508618841
 4365 0858 478EC947 		.word	1204391495
 4366 085c F0FB0BF0 		.word	-267650064
ARM GAS  /tmp/ccVUwbrj.s 			page 78


 4367 0860 AD41ECAD 		.word	-1377025619
 4368 0864 D4B367D4 		.word	-731401260
 4369 0868 A25FFDA2 		.word	-1560453214
 4370 086c AF45EAAF 		.word	-1343601233
 4371 0870 9C23BF9C 		.word	-1665195108
 4372 0874 A453F7A4 		.word	-1527295068
 4373 0878 72E49672 		.word	1922491506
 4374 087c C09B5BC0 		.word	-1067738176
 4375 0880 B775C2B7 		.word	-1211992649
 4376 0884 FDE11CFD 		.word	-48438787
 4377 0888 933DAE93 		.word	-1817297517
 4378 088c 264C6A26 		.word	644500518
 4379 0890 366C5A36 		.word	911895606
 4380 0894 3F7E413F 		.word	1061256767
 4381 0898 F7F502F7 		.word	-150800905
 4382 089c CC834FCC 		.word	-867204148
 4383 08a0 34685C34 		.word	878471220
 4384 08a4 A551F4A5 		.word	-1510714971
 4385 08a8 E5D134E5 		.word	-449523227
 4386 08ac F1F908F1 		.word	-251069967
 4387 08b0 71E29371 		.word	1905517169
 4388 08b4 D8AB73D8 		.word	-663508008
 4389 08b8 31625331 		.word	827548209
 4390 08bc 152A3F15 		.word	356461077
 4391 08c0 04080C04 		.word	67897348
 4392 08c4 C79552C7 		.word	-950889017
 4393 08c8 23466523 		.word	593839651
 4394 08cc C39D5EC3 		.word	-1017209405
 4395 08d0 18302818 		.word	405286936
 4396 08d4 9637A196 		.word	-1767819370
 4397 08d8 050A0F05 		.word	84871685
 4398 08dc 9A2FB59A 		.word	-1699401830
 4399 08e0 070E0907 		.word	118033927
 4400 08e4 12243612 		.word	305538066
 4401 08e8 801B9B80 		.word	-2137318528
 4402 08ec E2DF3DE2 		.word	-499261470
 4403 08f0 EBCD26EB 		.word	-349778453
 4404 08f4 274E6927 		.word	661212711
 4405 08f8 B27FCDB2 		.word	-1295155278
 4406 08fc 75EA9F75 		.word	1973414517
 4407 0900 09121B09 		.word	152769033
 4408 0904 831D9E83 		.word	-2086789757
 4409 0908 2C58742C 		.word	745822252
 4410 090c 1A342E1A 		.word	439235610
 4411 0910 1B362D1B 		.word	455947803
 4412 0914 6EDCB26E 		.word	1857215598
 4413 0918 5AB4EE5A 		.word	1525593178
 4414 091c A05BFBA0 		.word	-1594139744
 4415 0920 52A4F652 		.word	1391895634
 4416 0924 3B764D3B 		.word	994932283
 4417 0928 D6B761D6 		.word	-698239018
 4418 092c B37DCEB3 		.word	-1278313037
 4419 0930 29527B29 		.word	695947817
 4420 0934 E3DD3EE3 		.word	-482419229
 4421 0938 2F5E712F 		.word	795958831
 4422 093c 84139784 		.word	-2070473852
 4423 0940 53A6F553 		.word	1408607827
ARM GAS  /tmp/ccVUwbrj.s 			page 79


 4424 0944 D1B968D1 		.word	-781665839
 4425 0948 00000000 		.word	0
 4426 094c EDC12CED 		.word	-315833875
 4427 0950 20406020 		.word	543178784
 4428 0954 FCE31FFC 		.word	-65018884
 4429 0958 B179C8B1 		.word	-1312261711
 4430 095c 5BB6ED5B 		.word	1542305371
 4431 0960 6AD4BE6A 		.word	1790891114
 4432 0964 CB8D46CB 		.word	-884568629
 4433 0968 BE67D9BE 		.word	-1093048386
 4434 096c 39724B39 		.word	961245753
 4435 0970 4A94DE4A 		.word	1256100938
 4436 0974 4C98D44C 		.word	1289001036
 4437 0978 58B0E858 		.word	1491644504
 4438 097c CF854ACF 		.word	-817199665
 4439 0980 D0BB6BD0 		.word	-798245936
 4440 0984 EFC52AEF 		.word	-282409489
 4441 0988 AA4FE5AA 		.word	-1427812438
 4442 098c FBED16FB 		.word	-82383365
 4443 0990 4386C543 		.word	1137018435
 4444 0994 4D9AD74D 		.word	1305975373
 4445 0998 33665533 		.word	861234739
 4446 099c 85119485 		.word	-2053893755
 4447 09a0 458ACF45 		.word	1171229253
 4448 09a4 F9E910F9 		.word	-116332039
 4449 09a8 02040602 		.word	33948674
 4450 09ac 7FFE817F 		.word	2139225727
 4451 09b0 50A0F050 		.word	1357946960
 4452 09b4 3C78443C 		.word	1011120188
 4453 09b8 9F25BA9F 		.word	-1615190625
 4454 09bc A84BE3A8 		.word	-1461498968
 4455 09c0 51A2F351 		.word	1374921297
 4456 09c4 A35DFEA3 		.word	-1543610973
 4457 09c8 4080C040 		.word	1086357568
 4458 09cc 8F058A8F 		.word	-1886780017
 4459 09d0 923FAD92 		.word	-1834139758
 4460 09d4 9D21BC9D 		.word	-1648615011
 4461 09d8 38704838 		.word	944271416
 4462 09dc F5F104F5 		.word	-184225291
 4463 09e0 BC63DFBC 		.word	-1126210628
 4464 09e4 B677C1B6 		.word	-1228834890
 4465 09e8 DAAF75DA 		.word	-629821478
 4466 09ec 21426321 		.word	560153121
 4467 09f0 10203010 		.word	271589392
 4468 09f4 FFE51AFF 		.word	-15014401
 4469 09f8 F3FD0EF3 		.word	-217121293
 4470 09fc D2BF6DD2 		.word	-764559406
 4471 0a00 CD814CCD 		.word	-850624051
 4472 0a04 0C18140C 		.word	202643468
 4473 0a08 13263513 		.word	322250259
 4474 0a0c ECC32FEC 		.word	-332413972
 4475 0a10 5FBEE15F 		.word	1608629855
 4476 0a14 9735A297 		.word	-1750977129
 4477 0a18 4488CC44 		.word	1154254916
 4478 0a1c 172E3917 		.word	389623319
 4479 0a20 C49357C4 		.word	-1000893500
 4480 0a24 A755F2A7 		.word	-1477290585
ARM GAS  /tmp/ccVUwbrj.s 			page 80


 4481 0a28 7EFC827E 		.word	2122513534
 4482 0a2c 3D7A473D 		.word	1028094525
 4483 0a30 64C8AC64 		.word	1689045092
 4484 0a34 5DBAE75D 		.word	1575467613
 4485 0a38 19322B19 		.word	422261273
 4486 0a3c 73E69573 		.word	1939203699
 4487 0a40 60C0A060 		.word	1621147744
 4488 0a44 81199881 		.word	-2120738431
 4489 0a48 4F9ED14F 		.word	1339137615
 4490 0a4c DCA37FDC 		.word	-595614756
 4491 0a50 22446622 		.word	577127458
 4492 0a54 2A547E2A 		.word	712922154
 4493 0a58 903BAB90 		.word	-1867826288
 4494 0a5c 880B8388 		.word	-2004677752
 4495 0a60 468CCA46 		.word	1187679302
 4496 0a64 EEC729EE 		.word	-299251730
 4497 0a68 B86BD3B8 		.word	-1194103880
 4498 0a6c 14283C14 		.word	339486740
 4499 0a70 DEA779DE 		.word	-562452514
 4500 0a74 5EBCE25E 		.word	1591917662
 4501 0a78 0B161D0B 		.word	186455563
 4502 0a7c DBAD76DB 		.word	-612979237
 4503 0a80 E0DB3BE0 		.word	-532948000
 4504 0a84 32645632 		.word	844522546
 4505 0a88 3A744E3A 		.word	978220090
 4506 0a8c 0A141E0A 		.word	169743370
 4507 0a90 4992DB49 		.word	1239126601
 4508 0a94 060C0A06 		.word	101321734
 4509 0a98 24486C24 		.word	611076132
 4510 0a9c 5CB8E45C 		.word	1558493276
 4511 0aa0 C29F5DC2 		.word	-1034051646
 4512 0aa4 D3BD6ED3 		.word	-747717165
 4513 0aa8 AC43EFAC 		.word	-1393605716
 4514 0aac 62C4A662 		.word	1655096418
 4515 0ab0 9139A891 		.word	-1851246191
 4516 0ab4 9531A495 		.word	-1784401515
 4517 0ab8 E4D337E4 		.word	-466103324
 4518 0abc 79F28B79 		.word	2039214713
 4519 0ac0 E7D532E7 		.word	-416098841
 4520 0ac4 C88B43C8 		.word	-935097400
 4521 0ac8 376E5937 		.word	928607799
 4522 0acc 6DDAB76D 		.word	1840765549
 4523 0ad0 8D018C8D 		.word	-1920204403
 4524 0ad4 D5B164D5 		.word	-714821163
 4525 0ad8 4E9CD24E 		.word	1322425422
 4526 0adc A949E0A9 		.word	-1444918871
 4527 0ae0 6CD8B46C 		.word	1823791212
 4528 0ae4 56ACFA56 		.word	1459268694
 4529 0ae8 F4F307F4 		.word	-200805388
 4530 0aec EACF25EA 		.word	-366620694
 4531 0af0 65CAAF65 		.word	1706019429
 4532 0af4 7AF48E7A 		.word	2056189050
 4533 0af8 AE47E9AE 		.word	-1360443474
 4534 0afc 08101808 		.word	135794696
 4535 0b00 BA6FD5BA 		.word	-1160417350
 4536 0b04 78F08878 		.word	2022240376
 4537 0b08 254A6F25 		.word	628050469
ARM GAS  /tmp/ccVUwbrj.s 			page 81


 4538 0b0c 2E5C722E 		.word	779246638
 4539 0b10 1C38241C 		.word	472135708
 4540 0b14 A657F1A6 		.word	-1494132826
 4541 0b18 B473C7B4 		.word	-1261997132
 4542 0b1c C69751C6 		.word	-967731258
 4543 0b20 E8CB23E8 		.word	-400307224
 4544 0b24 DDA17CDD 		.word	-579034659
 4545 0b28 74E89C74 		.word	1956440180
 4546 0b2c 1F3E211F 		.word	522272287
 4547 0b30 4B96DD4B 		.word	1272813131
 4548 0b34 BD61DCBD 		.word	-1109630531
 4549 0b38 8B0D868B 		.word	-1954148981
 4550 0b3c 8A0F858A 		.word	-1970991222
 4551 0b40 70E09070 		.word	1888542832
 4552 0b44 3E7C423E 		.word	1044544574
 4553 0b48 B571C4B5 		.word	-1245417035
 4554 0b4c 66CCAA66 		.word	1722469478
 4555 0b50 4890D848 		.word	1222152264
 4556 0b54 03060503 		.word	50660867
 4557 0b58 F6F701F6 		.word	-167643146
 4558 0b5c 0E1C120E 		.word	236067854
 4559 0b60 61C2A361 		.word	1638122081
 4560 0b64 356A5F35 		.word	895445557
 4561 0b68 57AEF957 		.word	1475980887
 4562 0b6c B969D0B9 		.word	-1177523783
 4563 0b70 86179186 		.word	-2037311610
 4564 0b74 C19958C1 		.word	-1051158079
 4565 0b78 1D3A271D 		.word	489110045
 4566 0b7c 9E27B99E 		.word	-1632032866
 4567 0b80 E1D938E1 		.word	-516367903
 4568 0b84 F8EB13F8 		.word	-132912136
 4569 0b88 982BB398 		.word	-1733088360
 4570 0b8c 11223311 		.word	288563729
 4571 0b90 69D2BB69 		.word	1773916777
 4572 0b94 D9A970D9 		.word	-646927911
 4573 0b98 8E07898E 		.word	-1903622258
 4574 0b9c 9433A794 		.word	-1800981612
 4575 0ba0 9B2DB69B 		.word	-1682559589
 4576 0ba4 1E3C221E 		.word	505560094
 4577 0ba8 87159287 		.word	-2020469369
 4578 0bac E9C920E9 		.word	-383727127
 4579 0bb0 CE8749CE 		.word	-834041906
 4580 0bb4 55AAFF55 		.word	1442818645
 4581 0bb8 28507828 		.word	678973480
 4582 0bbc DFA57ADF 		.word	-545610273
 4583 0bc0 8C038F8C 		.word	-1936784500
 4584 0bc4 A159F8A1 		.word	-1577559647
 4585 0bc8 89098089 		.word	-1988097655
 4586 0bcc 0D1A170D 		.word	219617805
 4587 0bd0 BF65DABF 		.word	-1076206145
 4588 0bd4 E6D731E6 		.word	-432941082
 4589 0bd8 4284C642 		.word	1120306242
 4590 0bdc 68D0B868 		.word	1756942440
 4591 0be0 4182C341 		.word	1103331905
 4592 0be4 9929B099 		.word	-1716508263
 4593 0be8 2D5A772D 		.word	762796589
 4594 0bec 0F1E110F 		.word	252780047
ARM GAS  /tmp/ccVUwbrj.s 			page 82


 4595 0bf0 B07BCBB0 		.word	-1328841808
 4596 0bf4 54A8FC54 		.word	1425844308
 4597 0bf8 BB6DD6BB 		.word	-1143575109
 4598 0bfc 162C3A16 		.word	372911126
 4599 0c00 C6A56363 		.word	1667474886
 4600 0c04 F8847C7C 		.word	2088535288
 4601 0c08 EE997777 		.word	2004326894
 4602 0c0c F68D7B7B 		.word	2071694838
 4603 0c10 FF0DF2F2 		.word	-219017729
 4604 0c14 D6BD6B6B 		.word	1802223062
 4605 0c18 DEB16F6F 		.word	1869591006
 4606 0c1c 9154C5C5 		.word	-976923503
 4607 0c20 60503030 		.word	808472672
 4608 0c24 02030101 		.word	16843522
 4609 0c28 CEA96767 		.word	1734846926
 4610 0c2c 567D2B2B 		.word	724270422
 4611 0c30 E719FEFE 		.word	-16901657
 4612 0c34 B562D7D7 		.word	-673750347
 4613 0c38 4DE6ABAB 		.word	-1414797747
 4614 0c3c EC9A7676 		.word	1987484396
 4615 0c40 8F45CACA 		.word	-892713585
 4616 0c44 1F9D8282 		.word	-2105369313
 4617 0c48 8940C9C9 		.word	-909557623
 4618 0c4c FA877D7D 		.word	2105378810
 4619 0c50 EF15FAFA 		.word	-84273681
 4620 0c54 B2EB5959 		.word	1499065266
 4621 0c58 8EC94747 		.word	1195886990
 4622 0c5c FB0BF0F0 		.word	-252703749
 4623 0c60 41ECADAD 		.word	-1381110719
 4624 0c64 B367D4D4 		.word	-724277325
 4625 0c68 5FFDA2A2 		.word	-1566376609
 4626 0c6c 45EAAFAF 		.word	-1347425723
 4627 0c70 23BF9C9C 		.word	-1667449053
 4628 0c74 53F7A4A4 		.word	-1532692653
 4629 0c78 E4967272 		.word	1920112356
 4630 0c7c 9B5BC0C0 		.word	-1061135461
 4631 0c80 75C2B7B7 		.word	-1212693899
 4632 0c84 E11CFDFD 		.word	-33743647
 4633 0c88 3DAE9393 		.word	-1819038147
 4634 0c8c 4C6A2626 		.word	640051788
 4635 0c90 6C5A3636 		.word	909531756
 4636 0c94 7E413F3F 		.word	1061110142
 4637 0c98 F502F7F7 		.word	-134806795
 4638 0c9c 834FCCCC 		.word	-859025533
 4639 0ca0 685C3434 		.word	875846760
 4640 0ca4 51F4A5A5 		.word	-1515850671
 4641 0ca8 D134E5E5 		.word	-437963567
 4642 0cac F908F1F1 		.word	-235861767
 4643 0cb0 E2937171 		.word	1903268834
 4644 0cb4 AB73D8D8 		.word	-656903253
 4645 0cb8 62533131 		.word	825316194
 4646 0cbc 2A3F1515 		.word	353713962
 4647 0cc0 080C0404 		.word	67374088
 4648 0cc4 9552C7C7 		.word	-943238507
 4649 0cc8 46652323 		.word	589522246
 4650 0ccc 9D5EC3C3 		.word	-1010606435
 4651 0cd0 30281818 		.word	404236336
ARM GAS  /tmp/ccVUwbrj.s 			page 83


 4652 0cd4 37A19696 		.word	-1768513225
 4653 0cd8 0A0F0505 		.word	84217610
 4654 0cdc 2FB59A9A 		.word	-1701137105
 4655 0ce0 0E090707 		.word	117901582
 4656 0ce4 24361212 		.word	303183396
 4657 0ce8 1B9B8080 		.word	-2139055333
 4658 0cec DF3DE2E2 		.word	-488489505
 4659 0cf0 CD26EBEB 		.word	-336910643
 4660 0cf4 4E692727 		.word	656894286
 4661 0cf8 7FCDB2B2 		.word	-1296904833
 4662 0cfc EA9F7575 		.word	1970642922
 4663 0d00 121B0909 		.word	151591698
 4664 0d04 1D9E8383 		.word	-2088526307
 4665 0d08 58742C2C 		.word	741110872
 4666 0d0c 342E1A1A 		.word	437923380
 4667 0d10 362D1B1B 		.word	454765878
 4668 0d14 DCB26E6E 		.word	1852748508
 4669 0d18 B4EE5A5A 		.word	1515908788
 4670 0d1c 5BFBA0A0 		.word	-1600062629
 4671 0d20 A4F65252 		.word	1381168804
 4672 0d24 764D3B3B 		.word	993742198
 4673 0d28 B761D6D6 		.word	-690593353
 4674 0d2c 7DCEB3B3 		.word	-1280061827
 4675 0d30 527B2929 		.word	690584402
 4676 0d34 DD3EE3E3 		.word	-471646499
 4677 0d38 5E712F2F 		.word	791638366
 4678 0d3c 13978484 		.word	-2071685357
 4679 0d40 A6F55353 		.word	1398011302
 4680 0d44 B968D1D1 		.word	-774805319
 4681 0d48 00000000 		.word	0
 4682 0d4c C12CEDED 		.word	-303223615
 4683 0d50 40602020 		.word	538992704
 4684 0d54 E31FFCFC 		.word	-50585629
 4685 0d58 79C8B1B1 		.word	-1313748871
 4686 0d5c B6ED5B5B 		.word	1532751286
 4687 0d60 D4BE6A6A 		.word	1785380564
 4688 0d64 8D46CBCB 		.word	-875870579
 4689 0d68 67D9BEBE 		.word	-1094788761
 4690 0d6c 724B3939 		.word	960056178
 4691 0d70 94DE4A4A 		.word	1246420628
 4692 0d74 98D44C4C 		.word	1280103576
 4693 0d78 B0E85858 		.word	1482221744
 4694 0d7c 854ACFCF 		.word	-808498555
 4695 0d80 BB6BD0D0 		.word	-791647301
 4696 0d84 C52AEFEF 		.word	-269538619
 4697 0d88 4FE5AAAA 		.word	-1431640753
 4698 0d8c ED16FBFB 		.word	-67430675
 4699 0d90 86C54343 		.word	1128514950
 4700 0d94 9AD74D4D 		.word	1296947098
 4701 0d98 66553333 		.word	859002214
 4702 0d9c 11948585 		.word	-2054843375
 4703 0da0 8ACF4545 		.word	1162203018
 4704 0da4 E910F9F9 		.word	-101117719
 4705 0da8 04060202 		.word	33687044
 4706 0dac FE817F7F 		.word	2139062782
 4707 0db0 A0F05050 		.word	1347481760
 4708 0db4 78443C3C 		.word	1010582648
ARM GAS  /tmp/ccVUwbrj.s 			page 84


 4709 0db8 25BA9F9F 		.word	-1616922075
 4710 0dbc 4BE3A8A8 		.word	-1465326773
 4711 0dc0 A2F35151 		.word	1364325282
 4712 0dc4 5DFEA3A3 		.word	-1549533603
 4713 0dc8 80C04040 		.word	1077985408
 4714 0dcc 058A8F8F 		.word	-1886418427
 4715 0dd0 3FAD9292 		.word	-1835881153
 4716 0dd4 21BC9D9D 		.word	-1650607071
 4717 0dd8 70483838 		.word	943212656
 4718 0ddc F104F5F5 		.word	-168491791
 4719 0de0 63DFBCBC 		.word	-1128472733
 4720 0de4 77C1B6B6 		.word	-1229536905
 4721 0de8 AF75DADA 		.word	-623217233
 4722 0dec 42632121 		.word	555836226
 4723 0df0 20301010 		.word	269496352
 4724 0df4 E51AFFFF 		.word	-58651
 4725 0df8 FD0EF3F3 		.word	-202174723
 4726 0dfc BF6DD2D2 		.word	-757961281
 4727 0e00 814CCDCD 		.word	-842183551
 4728 0e04 18140C0C 		.word	202118168
 4729 0e08 26351313 		.word	320025894
 4730 0e0c C32FECEC 		.word	-320065597
 4731 0e10 BEE15F5F 		.word	1600119230
 4732 0e14 35A29797 		.word	-1751670219
 4733 0e18 88CC4444 		.word	1145359496
 4734 0e1c 2E391717 		.word	387397934
 4735 0e20 9357C4C4 		.word	-993765485
 4736 0e24 55F2A7A7 		.word	-1482165675
 4737 0e28 FC827E7E 		.word	2122220284
 4738 0e2c 7A473D3D 		.word	1027426170
 4739 0e30 C8AC6464 		.word	1684319432
 4740 0e34 BAE75D5D 		.word	1566435258
 4741 0e38 322B1919 		.word	421079858
 4742 0e3c E6957373 		.word	1936954854
 4743 0e40 C0A06060 		.word	1616945344
 4744 0e44 19988181 		.word	-2122213351
 4745 0e48 9ED14F4F 		.word	1330631070
 4746 0e4c A37FDCDC 		.word	-589529181
 4747 0e50 44662222 		.word	572679748
 4748 0e54 547E2A2A 		.word	707427924
 4749 0e58 3BAB9090 		.word	-1869567173
 4750 0e5c 0B838888 		.word	-2004319477
 4751 0e60 8CCA4646 		.word	1179044492
 4752 0e64 C729EEEE 		.word	-286381625
 4753 0e68 6BD3B8B8 		.word	-1195846805
 4754 0e6c 283C1414 		.word	336870440
 4755 0e70 A779DEDE 		.word	-555845209
 4756 0e74 BCE25E5E 		.word	1583276732
 4757 0e78 161D0B0B 		.word	185277718
 4758 0e7c AD76DBDB 		.word	-606374227
 4759 0e80 DB3BE0E0 		.word	-522175525
 4760 0e84 64563232 		.word	842159716
 4761 0e88 744E3A3A 		.word	976899700
 4762 0e8c 141E0A0A 		.word	168435220
 4763 0e90 92DB4949 		.word	1229577106
 4764 0e94 0C0A0606 		.word	101059084
 4765 0e98 486C2424 		.word	606366792
ARM GAS  /tmp/ccVUwbrj.s 			page 85


 4766 0e9c B8E45C5C 		.word	1549591736
 4767 0ea0 9F5DC2C2 		.word	-1027449441
 4768 0ea4 BD6ED3D3 		.word	-741118275
 4769 0ea8 43EFACAC 		.word	-1397952701
 4770 0eac C4A66262 		.word	1650632388
 4771 0eb0 39A89191 		.word	-1852725191
 4772 0eb4 31A49595 		.word	-1785355215
 4773 0eb8 D337E4E4 		.word	-454805549
 4774 0ebc F28B7979 		.word	2038008818
 4775 0ec0 D532E7E7 		.word	-404278571
 4776 0ec4 8B43C8C8 		.word	-926399605
 4777 0ec8 6E593737 		.word	926374254
 4778 0ecc DAB76D6D 		.word	1835907034
 4779 0ed0 018C8D8D 		.word	-1920103423
 4780 0ed4 B164D5D5 		.word	-707435343
 4781 0ed8 9CD24E4E 		.word	1313788572
 4782 0edc 49E0A9A9 		.word	-1448484791
 4783 0ee0 D8B46C6C 		.word	1819063512
 4784 0ee4 ACFA5656 		.word	1448540844
 4785 0ee8 F307F4F4 		.word	-185333773
 4786 0eec CF25EAEA 		.word	-353753649
 4787 0ef0 CAAF6565 		.word	1701162954
 4788 0ef4 F48E7A7A 		.word	2054852340
 4789 0ef8 47E9AEAE 		.word	-1364268729
 4790 0efc 10180808 		.word	134748176
 4791 0f00 6FD5BABA 		.word	-1162160785
 4792 0f04 F0887878 		.word	2021165296
 4793 0f08 4A6F2525 		.word	623210314
 4794 0f0c 5C722E2E 		.word	774795868
 4795 0f10 38241C1C 		.word	471606328
 4796 0f14 57F1A6A6 		.word	-1499008681
 4797 0f18 73C7B4B4 		.word	-1263220877
 4798 0f1c 9751C6C6 		.word	-960081513
 4799 0f20 CB23E8E8 		.word	-387439669
 4800 0f24 A17CDDDD 		.word	-572687199
 4801 0f28 E89C7474 		.word	1953799400
 4802 0f2c 3E211F1F 		.word	522133822
 4803 0f30 96DD4B4B 		.word	1263263126
 4804 0f34 61DCBDBD 		.word	-1111630751
 4805 0f38 0D868B8B 		.word	-1953790451
 4806 0f3c 0F858A8A 		.word	-1970633457
 4807 0f40 E0907070 		.word	1886425312
 4808 0f44 7C423E3E 		.word	1044267644
 4809 0f48 71C4B5B5 		.word	-1246378895
 4810 0f4c CCAA6666 		.word	1718004428
 4811 0f50 90D84848 		.word	1212733584
 4812 0f54 06050303 		.word	50529542
 4813 0f58 F701F6F6 		.word	-151649801
 4814 0f5c 1C120E0E 		.word	235803164
 4815 0f60 C2A36161 		.word	1633788866
 4816 0f64 6A5F3535 		.word	892690282
 4817 0f68 AEF95757 		.word	1465383342
 4818 0f6c 69D0B9B9 		.word	-1179004823
 4819 0f70 17918686 		.word	-2038001385
 4820 0f74 9958C1C1 		.word	-1044293479
 4821 0f78 3A271D1D 		.word	488449850
 4822 0f7c 27B99E9E 		.word	-1633765081
ARM GAS  /tmp/ccVUwbrj.s 			page 86


 4823 0f80 D938E1E1 		.word	-505333543
 4824 0f84 EB13F8F8 		.word	-117959701
 4825 0f88 2BB39898 		.word	-1734823125
 4826 0f8c 22331111 		.word	286339874
 4827 0f90 D2BB6969 		.word	1768537042
 4828 0f94 A970D9D9 		.word	-640061271
 4829 0f98 07898E8E 		.word	-1903261433
 4830 0f9c 33A79494 		.word	-1802197197
 4831 0fa0 2DB69B9B 		.word	-1684294099
 4832 0fa4 3C221E1E 		.word	505291324
 4833 0fa8 15928787 		.word	-2021158379
 4834 0fac C920E9E9 		.word	-370597687
 4835 0fb0 8749CECE 		.word	-825341561
 4836 0fb4 AAFF5555 		.word	1431699370
 4837 0fb8 50782828 		.word	673740880
 4838 0fbc A57ADFDF 		.word	-539002203
 4839 0fc0 038F8C8C 		.word	-1936945405
 4840 0fc4 59F8A1A1 		.word	-1583220647
 4841 0fc8 09808989 		.word	-1987477495
 4842 0fcc 1A170D0D 		.word	218961690
 4843 0fd0 65DABFBF 		.word	-1077945755
 4844 0fd4 D731E6E6 		.word	-421121577
 4845 0fd8 84C64242 		.word	1111672452
 4846 0fdc D0B86868 		.word	1751693520
 4847 0fe0 82C34141 		.word	1094828930
 4848 0fe4 29B09999 		.word	-1717981143
 4849 0fe8 5A772D2D 		.word	757954394
 4850 0fec 1E110F0F 		.word	252645662
 4851 0ff0 7BCBB0B0 		.word	-1330590853
 4852 0ff4 A8FC5454 		.word	1414855848
 4853 0ff8 6DD6BBBB 		.word	-1145317779
 4854 0ffc 2C3A1616 		.word	370555436
 4855              		.section	.rodata.rcon,"a"
 4856              		.align	2
 4857              		.set	.LANCHOR0,. + 0
 4860              	rcon:
 4861 0000 00000001 		.word	16777216
 4862 0004 00000002 		.word	33554432
 4863 0008 00000004 		.word	67108864
 4864 000c 00000008 		.word	134217728
 4865 0010 00000010 		.word	268435456
 4866 0014 00000020 		.word	536870912
 4867 0018 00000040 		.word	1073741824
 4868 001c 00000080 		.word	-2147483648
 4869 0020 0000001B 		.word	452984832
 4870 0024 00000036 		.word	905969664
 4871              		.ident	"GCC: (15:10.3-2021.07-4) 10.3.1 20210621 (release)"
ARM GAS  /tmp/ccVUwbrj.s 			page 87


DEFINED SYMBOLS
                            *ABS*:0000000000000000 aes.c
     /tmp/ccVUwbrj.s:16     .text.ByteReverseWord32:0000000000000000 $t
     /tmp/ccVUwbrj.s:24     .text.ByteReverseWord32:0000000000000000 ByteReverseWord32
     /tmp/ccVUwbrj.s:32     .text.ByteReverseWords:0000000000000000 $t
     /tmp/ccVUwbrj.s:38     .text.ByteReverseWords:0000000000000000 ByteReverseWords
     /tmp/ccVUwbrj.s:57     .text.ForceZero:0000000000000000 $t
     /tmp/ccVUwbrj.s:63     .text.ForceZero:0000000000000000 ForceZero
     /tmp/ccVUwbrj.s:98     .text.xorbuf.constprop.0:0000000000000000 $t
     /tmp/ccVUwbrj.s:104    .text.xorbuf.constprop.0:0000000000000000 xorbuf.constprop.0
     /tmp/ccVUwbrj.s:176    .text.wc_AesSetIV:0000000000000000 $t
     /tmp/ccVUwbrj.s:183    .text.wc_AesSetIV:0000000000000000 wc_AesSetIV
     /tmp/ccVUwbrj.s:209    .text.wc_AesSetKey:0000000000000000 $t
     /tmp/ccVUwbrj.s:216    .text.wc_AesSetKey:0000000000000000 wc_AesSetKey
     /tmp/ccVUwbrj.s:487    .text.wc_AesSetKey:00000000000002f4 $d
     /tmp/ccVUwbrj.s:3830   .rodata.Te:0000000000000000 Te
     /tmp/ccVUwbrj.s:2781   .rodata.Td:0000000000000000 Td
     /tmp/ccVUwbrj.s:491    .text.wc_AesSetKey:0000000000000300 $t
     /tmp/ccVUwbrj.s:595    .text.wc_AesCbcEncrypt:0000000000000000 $t
     /tmp/ccVUwbrj.s:602    .text.wc_AesCbcEncrypt:0000000000000000 wc_AesCbcEncrypt
     /tmp/ccVUwbrj.s:633    .text.wc_AesCbcEncrypt:0000000000000038 $d
     /tmp/ccVUwbrj.s:636    .text.wc_AesCbcEncrypt:000000000000003c $t
     /tmp/ccVUwbrj.s:1615   .text.wc_AesCbcDecrypt:0000000000000000 $t
     /tmp/ccVUwbrj.s:1622   .text.wc_AesCbcDecrypt:0000000000000000 wc_AesCbcDecrypt
     /tmp/ccVUwbrj.s:1664   .text.wc_AesCbcDecrypt:0000000000000050 $d
     /tmp/ccVUwbrj.s:1668   .text.wc_AesCbcDecrypt:0000000000000058 $t
     /tmp/ccVUwbrj.s:2627   .text.wc_AesInit:0000000000000000 $t
     /tmp/ccVUwbrj.s:2634   .text.wc_AesInit:0000000000000000 wc_AesInit
     /tmp/ccVUwbrj.s:2653   .text.wc_AesNew:0000000000000000 $t
     /tmp/ccVUwbrj.s:2660   .text.wc_AesNew:0000000000000000 wc_AesNew
     /tmp/ccVUwbrj.s:2690   .text.wc_AesFree:0000000000000000 $t
     /tmp/ccVUwbrj.s:2697   .text.wc_AesFree:0000000000000000 wc_AesFree
     /tmp/ccVUwbrj.s:2708   .text.wc_AesDelete:0000000000000000 $t
     /tmp/ccVUwbrj.s:2715   .text.wc_AesDelete:0000000000000000 wc_AesDelete
     /tmp/ccVUwbrj.s:2738   .text.wc_AesGetKeySize:0000000000000000 $t
     /tmp/ccVUwbrj.s:2745   .text.wc_AesGetKeySize:0000000000000000 wc_AesGetKeySize
     /tmp/ccVUwbrj.s:2778   .rodata.Td:0000000000000000 $d
     /tmp/ccVUwbrj.s:3810   .rodata.Td4:0000000000000000 Td4
     /tmp/ccVUwbrj.s:3827   .rodata.Te:0000000000000000 $d
     /tmp/ccVUwbrj.s:4856   .rodata.rcon:0000000000000000 $d
     /tmp/ccVUwbrj.s:4860   .rodata.rcon:0000000000000000 rcon

UNDEFINED SYMBOLS
memset
memcpy
wolfSSL_Malloc
wolfSSL_Free
