ARM GAS  /tmp/cciZhAVO.s 			page 1


   1              		.cpu cortex-m33
   2              		.eabi_attribute 27, 1
   3              		.eabi_attribute 28, 1
   4              		.eabi_attribute 20, 1
   5              		.eabi_attribute 21, 1
   6              		.eabi_attribute 23, 3
   7              		.eabi_attribute 24, 1
   8              		.eabi_attribute 25, 1
   9              		.eabi_attribute 26, 1
  10              		.eabi_attribute 30, 4
  11              		.eabi_attribute 34, 1
  12              		.eabi_attribute 18, 4
  13              		.file	"asn.c"
  14              		.text
  15              		.section	.text.BytePrecision,"ax",%progbits
  16              		.align	1
  17              		.arch armv8-m.main
  18              		.arch_extension dsp
  19              		.syntax unified
  20              		.thumb
  21              		.thumb_func
  22              		.fpu fpv4-sp-d16
  24              	BytePrecision:
  25              		@ args = 0, pretend = 0, frame = 0
  26              		@ frame_needed = 0, uses_anonymous_args = 0
  27              		@ link register save eliminated.
  28 0000 030E     		lsrs	r3, r0, #24
  29 0002 07D1     		bne	.L4
  30 0004 030C     		lsrs	r3, r0, #16
  31 0006 07D1     		bne	.L5
  32 0008 030A     		lsrs	r3, r0, #8
  33 000a 07D1     		bne	.L6
  34 000c 0028     		cmp	r0, #0
  35 000e 18BF     		it	ne
  36 0010 0120     		movne	r0, #1
  37 0012 7047     		bx	lr
  38              	.L4:
  39 0014 0420     		movs	r0, #4
  40 0016 7047     		bx	lr
  41              	.L5:
  42 0018 0320     		movs	r0, #3
  43 001a 7047     		bx	lr
  44              	.L6:
  45 001c 0220     		movs	r0, #2
  46 001e 7047     		bx	lr
  48              		.section	.text.SizeASN_Num,"ax",%progbits
  49              		.align	1
  50              		.syntax unified
  51              		.thumb
  52              		.thumb_func
  53              		.fpu fpv4-sp-d16
  55              	SizeASN_Num:
  56              		@ args = 0, pretend = 0, frame = 0
  57              		@ frame_needed = 0, uses_anonymous_args = 0
  58 0000 30B5     		push	{r4, r5, lr}
  59 0002 CD08     		lsrs	r5, r1, #3
  60 0004 B1F10804 		subs	r4, r1, #8
ARM GAS  /tmp/cciZhAVO.s 			page 2


  61 0008 0346     		mov	r3, r0
  62 000a 05F10200 		add	r0, r5, #2
  63 000e 05D0     		beq	.L10
  64 0010 33FA04FC 		lsrs	ip, r3, r4
  65 0014 04BF     		itt	eq
  66 0016 681C     		addeq	r0, r5, #1
  67 0018 A1F11004 		subeq	r4, r1, #16
  68              	.L10:
  69 001c 032A     		cmp	r2, #3
  70 001e 01D1     		bne	.L11
  71              	.L19:
  72 0020 0130     		adds	r0, r0, #1
  73 0022 04E0     		b	.L9
  74              	.L11:
  75 0024 022A     		cmp	r2, #2
  76 0026 02D1     		bne	.L9
  77 0028 E340     		lsrs	r3, r3, r4
  78 002a 1B06     		lsls	r3, r3, #24
  79 002c F8D4     		bmi	.L19
  80              	.L9:
  81 002e 30BD     		pop	{r4, r5, pc}
  83              		.section	.text.SetASN_Num,"ax",%progbits
  84              		.align	1
  85              		.syntax unified
  86              		.thumb
  87              		.thumb_func
  88              		.fpu fpv4-sp-d16
  90              	SetASN_Num:
  91              		@ args = 0, pretend = 0, frame = 0
  92              		@ frame_needed = 0, uses_anonymous_args = 0
  93 0000 70B5     		push	{r4, r5, r6, lr}
  94 0002 B1F10805 		subs	r5, r1, #8
  95 0006 C1F3C704 		ubfx	r4, r1, #3, #8
  96 000a 07D0     		beq	.L21
  97 000c 30FA05F6 		lsrs	r6, r0, r5
  98 0010 02BF     		ittt	eq
  99 0012 04F1FF34 		addeq	r4, r4, #-1
 100 0016 E4B2     		uxtbeq	r4, r4
 101 0018 A1F11005 		subeq	r5, r1, #16
 102              	.L21:
 103 001c 032B     		cmp	r3, #3
 104 001e 17D1     		bne	.L22
 105 0020 20FA05F3 		lsr	r3, r0, r5
 106 0024 DEB2     		uxtb	r6, r3
 107 0026 DB07     		lsls	r3, r3, #31
 108 0028 10D5     		bpl	.L29
 109 002a 0023     		movs	r3, #0
 110              	.L24:
 111 002c 0134     		adds	r4, r4, #1
 112 002e E4B2     		uxtb	r4, r4
 113              	.L35:
 114 0030 9370     		strb	r3, [r2, #2]
 115 0032 0323     		movs	r3, #3
 116              	.L26:
 117 0034 5470     		strb	r4, [r2, #1]
 118 0036 1A44     		add	r2, r2, r3
 119              	.L27:
ARM GAS  /tmp/cciZhAVO.s 			page 3


 120 0038 002D     		cmp	r5, #0
 121 003a 15DA     		bge	.L28
 122 003c 70BD     		pop	{r4, r5, r6, pc}
 123              	.L25:
 124 003e 0133     		adds	r3, r3, #1
 125 0040 DBB2     		uxtb	r3, r3
 126              	.L23:
 127 0042 46FA03F1 		asr	r1, r6, r3
 128 0046 C907     		lsls	r1, r1, #31
 129 0048 F9D5     		bpl	.L25
 130 004a EFE7     		b	.L24
 131              	.L29:
 132 004c 0123     		movs	r3, #1
 133 004e F8E7     		b	.L23
 134              	.L22:
 135 0050 022B     		cmp	r3, #2
 136 0052 07D1     		bne	.L30
 137 0054 20FA05F1 		lsr	r1, r0, r5
 138 0058 0906     		lsls	r1, r1, #24
 139 005a EBD5     		bpl	.L26
 140 005c 0134     		adds	r4, r4, #1
 141 005e 0023     		movs	r3, #0
 142 0060 E4B2     		uxtb	r4, r4
 143 0062 E5E7     		b	.L35
 144              	.L30:
 145 0064 0223     		movs	r3, #2
 146 0066 E5E7     		b	.L26
 147              	.L28:
 148 0068 20FA05F3 		lsr	r3, r0, r5
 149 006c 02F8013B 		strb	r3, [r2], #1
 150 0070 083D     		subs	r5, r5, #8
 151 0072 E1E7     		b	.L27
 153              		.section	.text.ForceZero,"ax",%progbits
 154              		.align	1
 155              		.syntax unified
 156              		.thumb
 157              		.thumb_func
 158              		.fpu fpv4-sp-d16
 160              	ForceZero:
 161              		@ args = 0, pretend = 0, frame = 8
 162              		@ frame_needed = 0, uses_anonymous_args = 0
 163 0000 73B5     		push	{r0, r1, r4, r5, r6, lr}
 164 0002 0346     		mov	r3, r0
 165 0004 0C46     		mov	r4, r1
 166 0006 BFF35B8F 		dmb	ish
 167 000a 0022     		movs	r2, #0
 168              	.L37:
 169 000c 13F00301 		ands	r1, r3, #3
 170 0010 13D1     		bne	.L39
 171 0012 24F00305 		bic	r5, r4, #3
 172 0016 2A46     		mov	r2, r5
 173 0018 1846     		mov	r0, r3
 174 001a 0191     		str	r1, [sp, #4]
 175 001c FFF7FEFF 		bl	memset
 176 0020 6FF00302 		mvn	r2, #3
 177 0024 A608     		lsrs	r6, r4, #2
 178 0026 02FB0642 		mla	r2, r2, r6, r4
ARM GAS  /tmp/cciZhAVO.s 			page 4


 179 002a 0199     		ldr	r1, [sp, #4]
 180 002c 2844     		add	r0, r0, r5
 181 002e FFF7FEFF 		bl	memset
 182 0032 BFF35B8F 		dmb	ish
 183              	.L36:
 184 0036 02B0     		add	sp, sp, #8
 185              		@ sp needed
 186 0038 70BD     		pop	{r4, r5, r6, pc}
 187              	.L39:
 188 003a 002C     		cmp	r4, #0
 189 003c FBD0     		beq	.L36
 190 003e 03F8012B 		strb	r2, [r3], #1
 191 0042 013C     		subs	r4, r4, #1
 192 0044 E2E7     		b	.L37
 194              		.section	.text.MatchBaseName,"ax",%progbits
 195              		.align	1
 196              		.syntax unified
 197              		.thumb
 198              		.thumb_func
 199              		.fpu fpv4-sp-d16
 201              	MatchBaseName:
 202              		@ args = 4, pretend = 0, frame = 0
 203              		@ frame_needed = 0, uses_anonymous_args = 0
 204 0000 F8B5     		push	{r3, r4, r5, r6, r7, lr}
 205 0002 069D     		ldr	r5, [sp, #24]
 206 0004 0C46     		mov	r4, r1
 207 0006 1946     		mov	r1, r3
 208 0008 002B     		cmp	r3, #0
 209 000a 55D0     		beq	.L70
 210 000c 002D     		cmp	r5, #0
 211 000e 53DD     		ble	.L70
 212 0010 002C     		cmp	r4, #0
 213 0012 51D0     		beq	.L70
 214 0014 002A     		cmp	r2, #0
 215 0016 4FDD     		ble	.L70
 216 0018 2378     		ldrb	r3, [r4]	@ zero_extendqisi2
 217 001a 2E2B     		cmp	r3, #46
 218 001c 4CD0     		beq	.L70
 219 001e 9542     		cmp	r5, r2
 220 0020 4ADC     		bgt	.L70
 221 0022 431E     		subs	r3, r0, #1
 222 0024 012B     		cmp	r3, #1
 223 0026 09D9     		bls	.L46
 224 0028 0428     		cmp	r0, #4
 225 002a 45D1     		bne	.L70
 226 002c 2A46     		mov	r2, r5
 227 002e 2046     		mov	r0, r4
 228 0030 FFF7FEFF 		bl	memcmp
 229 0034 B0FA80F0 		clz	r0, r0
 230 0038 4009     		lsrs	r0, r0, #5
 231              	.L44:
 232 003a F8BD     		pop	{r3, r4, r5, r6, r7, pc}
 233              	.L46:
 234 003c 0128     		cmp	r0, #1
 235 003e 0FD1     		bne	.L47
 236 0040 0E78     		ldrb	r6, [r1]	@ zero_extendqisi2
 237 0042 2E2E     		cmp	r6, #46
ARM GAS  /tmp/cciZhAVO.s 			page 5


 238 0044 17D1     		bne	.L69
 239              	.L49:
 240 0046 2046     		mov	r0, r4
 241 0048 0023     		movs	r3, #0
 242              	.L52:
 243 004a 0746     		mov	r7, r0
 244 004c 97F800C0 		ldrb	ip, [r7]	@ zero_extendqisi2
 245 0050 0130     		adds	r0, r0, #1
 246 0052 BCF1400F 		cmp	ip, #64
 247 0056 31D0     		beq	.L54
 248 0058 AB42     		cmp	r3, r5
 249 005a 17D1     		bne	.L55
 250              	.L56:
 251 005c 2E2E     		cmp	r6, #46
 252 005e 0ED1     		bne	.L53
 253              	.L47:
 254 0060 521B     		subs	r2, r2, r5
 255 0062 1444     		add	r4, r4, r2
 256 0064 2A46     		mov	r2, r5
 257 0066 0AE0     		b	.L53
 258              	.L51:
 259 0068 0133     		adds	r3, r3, #1
 260              	.L48:
 261 006a C85C     		ldrb	r0, [r1, r3]	@ zero_extendqisi2
 262 006c 4028     		cmp	r0, #64
 263 006e 04D0     		beq	.L50
 264 0070 AB42     		cmp	r3, r5
 265 0072 F9D1     		bne	.L51
 266 0074 E7E7     		b	.L49
 267              	.L69:
 268 0076 0023     		movs	r3, #0
 269 0078 F7E7     		b	.L48
 270              	.L50:
 271 007a AB42     		cmp	r3, r5
 272 007c E3DA     		bge	.L49
 273              	.L53:
 274 007e 124B     		ldr	r3, .L74
 275 0080 481E     		subs	r0, r1, #1
 276 0082 013C     		subs	r4, r4, #1
 277              	.L57:
 278 0084 002A     		cmp	r2, #0
 279 0086 03DC     		bgt	.L60
 280 0088 0120     		movs	r0, #1
 281 008a D6E7     		b	.L44
 282              	.L55:
 283 008c 0133     		adds	r3, r3, #1
 284 008e DCE7     		b	.L52
 285              	.L60:
 286 0090 14F8016F 		ldrb	r6, [r4, #1]!	@ zero_extendqisi2
 287 0094 F55C     		ldrb	r5, [r6, r3]	@ zero_extendqisi2
 288 0096 05F00305 		and	r5, r5, #3
 289 009a 012D     		cmp	r5, #1
 290 009c 10F8015F 		ldrb	r5, [r0, #1]!	@ zero_extendqisi2
 291 00a0 08BF     		it	eq
 292 00a2 2036     		addeq	r6, r6, #32
 293 00a4 5F5D     		ldrb	r7, [r3, r5]	@ zero_extendqisi2
 294 00a6 07F00307 		and	r7, r7, #3
ARM GAS  /tmp/cciZhAVO.s 			page 6


 295 00aa 012F     		cmp	r7, #1
 296 00ac 08BF     		it	eq
 297 00ae 2035     		addeq	r5, r5, #32
 298 00b0 AE42     		cmp	r6, r5
 299 00b2 01D1     		bne	.L70
 300 00b4 013A     		subs	r2, r2, #1
 301 00b6 E5E7     		b	.L57
 302              	.L70:
 303 00b8 0020     		movs	r0, #0
 304 00ba BEE7     		b	.L44
 305              	.L54:
 306 00bc AB42     		cmp	r3, r5
 307 00be CDDA     		bge	.L56
 308 00c0 0133     		adds	r3, r3, #1
 309 00c2 7C1C     		adds	r4, r7, #1
 310 00c4 D21A     		subs	r2, r2, r3
 311 00c6 C9E7     		b	.L56
 312              	.L75:
 313              		.align	2
 314              	.L74:
 315 00c8 01000000 		.word	_ctype_+1
 317              		.section	.text.IsInExcludedList,"ax",%progbits
 318              		.align	1
 319              		.syntax unified
 320              		.thumb
 321              		.thumb_func
 322              		.fpu fpv4-sp-d16
 324              	IsInExcludedList:
 325              		@ args = 0, pretend = 0, frame = 0
 326              		@ frame_needed = 0, uses_anonymous_args = 0
 327 0000 73B5     		push	{r0, r1, r4, r5, r6, lr}
 328 0002 0546     		mov	r5, r0
 329 0004 0C46     		mov	r4, r1
 330 0006 1646     		mov	r6, r2
 331              	.L77:
 332 0008 14B9     		cbnz	r4, .L80
 333 000a 2046     		mov	r0, r4
 334              	.L76:
 335 000c 02B0     		add	sp, sp, #8
 336              		@ sp needed
 337 000e 70BD     		pop	{r4, r5, r6, pc}
 338              	.L80:
 339 0010 237B     		ldrb	r3, [r4, #12]	@ zero_extendqisi2
 340 0012 B342     		cmp	r3, r6
 341 0014 0AD1     		bne	.L78
 342 0016 AA68     		ldr	r2, [r5, #8]
 343 0018 A368     		ldr	r3, [r4, #8]
 344 001a 9A42     		cmp	r2, r3
 345 001c 06DB     		blt	.L78
 346 001e 0093     		str	r3, [sp]
 347 0020 3046     		mov	r0, r6
 348 0022 6368     		ldr	r3, [r4, #4]
 349 0024 E968     		ldr	r1, [r5, #12]
 350 0026 FFF7FEFF 		bl	MatchBaseName
 351 002a 08B9     		cbnz	r0, .L81
 352              	.L78:
 353 002c 2468     		ldr	r4, [r4]
ARM GAS  /tmp/cciZhAVO.s 			page 7


 354 002e EBE7     		b	.L77
 355              	.L81:
 356 0030 0120     		movs	r0, #1
 357 0032 EBE7     		b	.L76
 359              		.section	.text.PermittedListOk,"ax",%progbits
 360              		.align	1
 361              		.syntax unified
 362              		.thumb
 363              		.thumb_func
 364              		.fpu fpv4-sp-d16
 366              	PermittedListOk:
 367              		@ args = 0, pretend = 0, frame = 0
 368              		@ frame_needed = 0, uses_anonymous_args = 0
 369 0000 73B5     		push	{r0, r1, r4, r5, r6, lr}
 370 0002 0023     		movs	r3, #0
 371 0004 0546     		mov	r5, r0
 372 0006 0C46     		mov	r4, r1
 373 0008 1646     		mov	r6, r2
 374              	.L83:
 375 000a 1CB9     		cbnz	r4, .L86
 376 000c C3F10100 		rsb	r0, r3, #1
 377              	.L82:
 378 0010 02B0     		add	sp, sp, #8
 379              		@ sp needed
 380 0012 70BD     		pop	{r4, r5, r6, pc}
 381              	.L86:
 382 0014 227B     		ldrb	r2, [r4, #12]	@ zero_extendqisi2
 383 0016 B242     		cmp	r2, r6
 384 0018 0BD1     		bne	.L84
 385 001a AA68     		ldr	r2, [r5, #8]
 386 001c A368     		ldr	r3, [r4, #8]
 387 001e 9A42     		cmp	r2, r3
 388 0020 06DB     		blt	.L87
 389 0022 0093     		str	r3, [sp]
 390 0024 3046     		mov	r0, r6
 391 0026 6368     		ldr	r3, [r4, #4]
 392 0028 E968     		ldr	r1, [r5, #12]
 393 002a FFF7FEFF 		bl	MatchBaseName
 394 002e 10B9     		cbnz	r0, .L88
 395              	.L87:
 396 0030 0123     		movs	r3, #1
 397              	.L84:
 398 0032 2468     		ldr	r4, [r4]
 399 0034 E9E7     		b	.L83
 400              	.L88:
 401 0036 0120     		movs	r0, #1
 402 0038 EAE7     		b	.L82
 404              		.section	.text.CheckCurve,"ax",%progbits
 405              		.align	1
 406              		.syntax unified
 407              		.thumb
 408              		.thumb_func
 409              		.fpu fpv4-sp-d16
 411              	CheckCurve:
 412              		@ args = 0, pretend = 0, frame = 8
 413              		@ frame_needed = 0, uses_anonymous_args = 0
 414 0000 07B5     		push	{r0, r1, r2, lr}
ARM GAS  /tmp/cciZhAVO.s 			page 8


 415 0002 0021     		movs	r1, #0
 416 0004 01AA     		add	r2, sp, #4
 417 0006 FFF7FEFF 		bl	wc_ecc_get_oid
 418 000a 0028     		cmp	r0, #0
 419 000c 07DB     		blt	.L91
 420 000e 019B     		ldr	r3, [sp, #4]
 421 0010 002B     		cmp	r3, #0
 422 0012 08BF     		it	eq
 423 0014 6FF0AB00 		mvneq	r0, #171
 424              	.L89:
 425 0018 03B0     		add	sp, sp, #12
 426              		@ sp needed
 427 001a 5DF804FB 		ldr	pc, [sp], #4
 428              	.L91:
 429 001e 6FF0AB00 		mvn	r0, #171
 430 0022 F9E7     		b	.L89
 432              		.section	.text.SetASNLength,"ax",%progbits
 433              		.align	1
 434              		.global	SetASNLength
 435              		.syntax unified
 436              		.thumb
 437              		.thumb_func
 438              		.fpu fpv4-sp-d16
 440              	SetASNLength:
 441              		@ args = 0, pretend = 0, frame = 0
 442              		@ frame_needed = 0, uses_anonymous_args = 0
 443 0000 7F28     		cmp	r0, #127
 444 0002 0246     		mov	r2, r0
 445 0004 10B5     		push	{r4, lr}
 446 0006 02D8     		bhi	.L94
 447 0008 0870     		strb	r0, [r1]
 448 000a 0120     		movs	r0, #1
 449              	.L93:
 450 000c 10BD     		pop	{r4, pc}
 451              	.L94:
 452 000e FFF7FEFF 		bl	BytePrecision
 453 0012 60F07F03 		orn	r3, r0, #127
 454 0016 0B70     		strb	r3, [r1]
 455 0018 0346     		mov	r3, r0
 456              	.L96:
 457 001a 0BB9     		cbnz	r3, .L97
 458 001c 0130     		adds	r0, r0, #1
 459 001e F5E7     		b	.L93
 460              	.L97:
 461 0020 013B     		subs	r3, r3, #1
 462 0022 DC00     		lsls	r4, r3, #3
 463 0024 22FA04F4 		lsr	r4, r2, r4
 464 0028 01F8014F 		strb	r4, [r1, #1]!
 465 002c F5E7     		b	.L96
 467              		.section	.text.wc_AsnSetSkipDateCheck,"ax",%progbits
 468              		.align	1
 469              		.global	wc_AsnSetSkipDateCheck
 470              		.syntax unified
 471              		.thumb
 472              		.thumb_func
 473              		.fpu fpv4-sp-d16
 475              	wc_AsnSetSkipDateCheck:
ARM GAS  /tmp/cciZhAVO.s 			page 9


 476              		@ args = 0, pretend = 0, frame = 0
 477              		@ frame_needed = 0, uses_anonymous_args = 0
 478              		@ link register save eliminated.
 479 0000 6FF0AD00 		mvn	r0, #173
 480 0004 7047     		bx	lr
 482              		.section	.text.wc_AsnGetSkipDateCheck,"ax",%progbits
 483              		.align	1
 484              		.global	wc_AsnGetSkipDateCheck
 485              		.syntax unified
 486              		.thumb
 487              		.thumb_func
 488              		.fpu fpv4-sp-d16
 490              	wc_AsnGetSkipDateCheck:
 491              		@ args = 0, pretend = 0, frame = 0
 492              		@ frame_needed = 0, uses_anonymous_args = 0
 493              		@ link register save eliminated.
 494 0000 0020     		movs	r0, #0
 495 0002 7047     		bx	lr
 497              		.section	.text.SizeASN_Items,"ax",%progbits
 498              		.align	1
 499              		.global	SizeASN_Items
 500              		.syntax unified
 501              		.thumb
 502              		.thumb_func
 503              		.fpu fpv4-sp-d16
 505              	SizeASN_Items:
 506              		@ args = 0, pretend = 0, frame = 8
 507              		@ frame_needed = 0, uses_anonymous_args = 0
 508 0000 2DE9F74F 		push	{r0, r1, r2, r4, r5, r6, r7, r8, r9, r10, fp, lr}
 509 0004 1746     		mov	r7, r2
 510 0006 8146     		mov	r9, r0
 511 0008 0193     		str	r3, [sp, #4]
 512 000a 0028     		cmp	r0, #0
 513 000c 00F0D180 		beq	.L129
 514 0010 0029     		cmp	r1, #0
 515 0012 00F0CE80 		beq	.L129
 516 0016 002A     		cmp	r2, #0
 517 0018 40F3CB80 		ble	.L129
 518 001c 002B     		cmp	r3, #0
 519 001e 00F0C880 		beq	.L129
 520 0022 1424     		movs	r4, #20
 521 0024 1546     		mov	r5, r2
 522 0026 4FF00008 		mov	r8, #0
 523 002a 04FB0214 		mla	r4, r4, r2, r1
 524 002e 00EB8206 		add	r6, r0, r2, lsl #2
 525              	.L125:
 526 0032 14F8033C 		ldrb	r3, [r4, #-3]	@ zero_extendqisi2
 527 0036 A4F1140A 		sub	r10, r4, #20
 528 003a 6BB1     		cbz	r3, .L102
 529              	.L157:
 530 003c 013D     		subs	r5, r5, #1
 531 003e 44F8148C 		str	r8, [r4, #-20]
 532 0042 A6F10406 		sub	r6, r6, #4
 533 0046 5446     		mov	r4, r10
 534 0048 F3D1     		bne	.L125
 535 004a 2846     		mov	r0, r5
 536 004c 019B     		ldr	r3, [sp, #4]
ARM GAS  /tmp/cciZhAVO.s 			page 10


 537 004e C3F80080 		str	r8, [r3]
 538              	.L100:
 539 0052 03B0     		add	sp, sp, #12
 540              		@ sp needed
 541 0054 BDE8F08F 		pop	{r4, r5, r6, r7, r8, r9, r10, fp, pc}
 542              	.L102:
 543 0058 14F8043C 		ldrb	r3, [r4, #-4]	@ zero_extendqisi2
 544 005c 082B     		cmp	r3, #8
 545 005e 00F2A680 		bhi	.L130
 546 0062 DFE803F0 		tbb	[pc, r3]
 547              	.L106:
 548 0066 33       		.byte	(.L110-.L106)/2
 549 0067 05       		.byte	(.L109-.L106)/2
 550 0068 10       		.byte	(.L108-.L106)/2
 551 0069 A4       		.byte	(.L130-.L106)/2
 552 006a A4       		.byte	(.L130-.L106)/2
 553 006b A4       		.byte	(.L130-.L106)/2
 554 006c A4       		.byte	(.L130-.L106)/2
 555 006d 30       		.byte	(.L107-.L106)/2
 556 006e 16       		.byte	(.L105-.L106)/2
 557 006f 00       		.p2align 1
 558              	.L109:
 559 0070 0821     		movs	r1, #8
 560 0072 16F8032C 		ldrb	r2, [r6, #-3]	@ zero_extendqisi2
 561 0076 14F80C0C 		ldrb	r0, [r4, #-12]	@ zero_extendqisi2
 562              	.L156:
 563 007a FFF7FEFF 		bl	SizeASN_Num
 564              	.L104:
 565 007e 44F8100C 		str	r0, [r4, #-16]
 566 0082 8044     		add	r8, r8, r0
 567 0084 DAE7     		b	.L157
 568              	.L108:
 569 0086 1021     		movs	r1, #16
 570 0088 16F8032C 		ldrb	r2, [r6, #-3]	@ zero_extendqisi2
 571 008c 34F80C0C 		ldrh	r0, [r4, #-12]
 572 0090 F3E7     		b	.L156
 573              	.L105:
 574 0092 54F80C0C 		ldr	r0, [r4, #-12]
 575 0096 FFF7FEFF 		bl	sp_unsigned_bin_size
 576 009a 8346     		mov	fp, r0
 577 009c 54F80C0C 		ldr	r0, [r4, #-12]
 578 00a0 FFF7FEFF 		bl	sp_leading_bit
 579 00a4 0028     		cmp	r0, #0
 580 00a6 18BF     		it	ne
 581 00a8 0BF1010B 		addne	fp, fp, #1
 582 00ac BBF17F0F 		cmp	fp, #127
 583 00b0 07D9     		bls	.L131
 584 00b2 5846     		mov	r0, fp
 585 00b4 FFF7FEFF 		bl	BytePrecision
 586 00b8 0130     		adds	r0, r0, #1
 587              	.L111:
 588 00ba 0BF10101 		add	r1, fp, #1
 589              	.L124:
 590 00be 0844     		add	r0, r0, r1
 591 00c0 DDE7     		b	.L104
 592              	.L131:
 593 00c2 0120     		movs	r0, #1
ARM GAS  /tmp/cciZhAVO.s 			page 11


 594 00c4 F9E7     		b	.L111
 595              	.L107:
 596 00c6 54F8080C 		ldr	r0, [r4, #-8]
 597 00ca D8E7     		b	.L104
 598              	.L110:
 599 00cc 16F802BC 		ldrb	fp, [r6, #-2]	@ zero_extendqisi2
 600 00d0 1BF0020B 		ands	fp, fp, #2
 601 00d4 06D0     		beq	.L112
 602 00d6 54F80C2C 		ldr	r2, [r4, #-12]
 603 00da 2B46     		mov	r3, r5
 604 00dc BAB3     		cbz	r2, .L113
 605 00de 5146     		mov	r1, r10
 606              	.L114:
 607 00e0 BB42     		cmp	r3, r7
 608 00e2 25DB     		blt	.L115
 609              	.L112:
 610 00e4 16F8033C 		ldrb	r3, [r6, #-3]	@ zero_extendqisi2
 611 00e8 012B     		cmp	r3, #1
 612 00ea 5CD0     		beq	.L132
 613 00ec 032B     		cmp	r3, #3
 614 00ee 54F8081C 		ldr	r1, [r4, #-8]
 615 00f2 08D0     		beq	.L122
 616 00f4 022B     		cmp	r3, #2
 617 00f6 54D1     		bne	.L135
 618 00f8 54F80C2C 		ldr	r2, [r4, #-12]
 619 00fc 42B1     		cbz	r2, .L123
 620 00fe 92F90030 		ldrsb	r3, [r2]
 621 0102 002B     		cmp	r3, #0
 622 0104 4DDA     		bge	.L135
 623              	.L122:
 624 0106 BBF10002 		subs	r2, fp, #0
 625 010a 18BF     		it	ne
 626 010c 0122     		movne	r2, #1
 627 010e 0131     		adds	r1, r1, #1
 628              	.L123:
 629 0110 7F29     		cmp	r1, #127
 630 0112 4AD9     		bls	.L136
 631 0114 0846     		mov	r0, r1
 632 0116 FFF7FEFF 		bl	BytePrecision
 633 011a 0130     		adds	r0, r0, #1
 634              	.L121:
 635 011c 0132     		adds	r2, r2, #1
 636 011e 1044     		add	r0, r0, r2
 637 0120 BBF1000F 		cmp	fp, #0
 638 0124 CBD0     		beq	.L124
 639 0126 54F80C3C 		ldr	r3, [r4, #-12]
 640 012a 002B     		cmp	r3, #0
 641 012c C7D1     		bne	.L124
 642 012e A6E7     		b	.L104
 643              	.L115:
 644 0130 19F82300 		ldrb	r0, [r9, r3, lsl #2]	@ zero_extendqisi2
 645 0134 16F8042C 		ldrb	r2, [r6, #-4]	@ zero_extendqisi2
 646 0138 1431     		adds	r1, r1, #20
 647 013a 9042     		cmp	r0, r2
 648 013c D2D9     		bls	.L112
 649 013e 4A68     		ldr	r2, [r1, #4]
 650 0140 0133     		adds	r3, r3, #1
ARM GAS  /tmp/cciZhAVO.s 			page 12


 651 0142 A8EB0208 		sub	r8, r8, r2
 652 0146 4FF00102 		mov	r2, #1
 653 014a 4A74     		strb	r2, [r1, #17]
 654 014c C8E7     		b	.L114
 655              	.L113:
 656 014e D446     		mov	ip, r10
 657 0150 44F8082C 		str	r2, [r4, #-8]
 658              	.L116:
 659 0154 9F42     		cmp	r7, r3
 660 0156 C5DD     		ble	.L112
 661 0158 19F82320 		ldrb	r2, [r9, r3, lsl #2]	@ zero_extendqisi2
 662 015c 16F8041C 		ldrb	r1, [r6, #-4]	@ zero_extendqisi2
 663 0160 09EB8300 		add	r0, r9, r3, lsl #2
 664 0164 8A42     		cmp	r2, r1
 665 0166 BDD9     		bls	.L112
 666 0168 013A     		subs	r2, r2, #1
 667 016a 8A42     		cmp	r2, r1
 668 016c 15D1     		bne	.L118
 669 016e DCF81810 		ldr	r1, [ip, #24]
 670 0172 54F8082C 		ldr	r2, [r4, #-8]
 671 0176 0A44     		add	r2, r2, r1
 672 0178 8178     		ldrb	r1, [r0, #2]	@ zero_extendqisi2
 673 017a 44F8082C 		str	r2, [r4, #-8]
 674 017e 8907     		lsls	r1, r1, #30
 675 0180 0BD5     		bpl	.L118
 676 0182 DCF81C10 		ldr	r1, [ip, #28]
 677 0186 41B9     		cbnz	r1, .L118
 678 0188 9CF82410 		ldrb	r1, [ip, #36]	@ zero_extendqisi2
 679 018c 0729     		cmp	r1, #7
 680 018e 1EBF     		ittt	ne
 681 0190 DCF82000 		ldrne	r0, [ip, #32]
 682 0194 1218     		addne	r2, r2, r0
 683 0196 44F8082C 		strne	r2, [r4, #-8]
 684              	.L118:
 685 019a 0133     		adds	r3, r3, #1
 686 019c 0CF1140C 		add	ip, ip, #20
 687 01a0 D8E7     		b	.L116
 688              	.L135:
 689 01a2 0022     		movs	r2, #0
 690 01a4 B4E7     		b	.L123
 691              	.L132:
 692 01a6 1946     		mov	r1, r3
 693 01a8 0022     		movs	r2, #0
 694              	.L136:
 695 01aa 0120     		movs	r0, #1
 696 01ac B6E7     		b	.L121
 697              	.L130:
 698 01ae 0020     		movs	r0, #0
 699 01b0 65E7     		b	.L104
 700              	.L129:
 701 01b2 6FF0AC00 		mvn	r0, #172
 702 01b6 4CE7     		b	.L100
 704              		.section	.text.SetASN_Items,"ax",%progbits
 705              		.align	1
 706              		.global	SetASN_Items
 707              		.syntax unified
 708              		.thumb
ARM GAS  /tmp/cciZhAVO.s 			page 13


 709              		.thumb_func
 710              		.fpu fpv4-sp-d16
 712              	SetASN_Items:
 713              		@ args = 0, pretend = 0, frame = 8
 714              		@ frame_needed = 0, uses_anonymous_args = 0
 715 0000 2DE9F74F 		push	{r0, r1, r2, r4, r5, r6, r7, r8, r9, r10, fp, lr}
 716 0004 4FF00008 		mov	r8, #0
 717 0008 9246     		mov	r10, r2
 718 000a 9946     		mov	r9, r3
 719 000c 0C46     		mov	r4, r1
 720 000e 0646     		mov	r6, r0
 721 0010 C346     		mov	fp, r8
 722 0012 0F68     		ldr	r7, [r1]
 723              	.L159:
 724 0014 D045     		cmp	r8, r10
 725 0016 03DB     		blt	.L179
 726 0018 3846     		mov	r0, r7
 727              	.L158:
 728 001a 03B0     		add	sp, sp, #12
 729              		@ sp needed
 730 001c BDE8F08F 		pop	{r4, r5, r6, r7, r8, r9, r10, fp, pc}
 731              	.L179:
 732 0020 607C     		ldrb	r0, [r4, #17]	@ zero_extendqisi2
 733 0022 F0B9     		cbnz	r0, .L161
 734 0024 2268     		ldr	r2, [r4]
 735 0026 237C     		ldrb	r3, [r4, #16]	@ zero_extendqisi2
 736 0028 BA1A     		subs	r2, r7, r2
 737 002a 072B     		cmp	r3, #7
 738 002c 09EB0205 		add	r5, r9, r2
 739 0030 46D0     		beq	.L162
 740 0032 B378     		ldrb	r3, [r6, #2]	@ zero_extendqisi2
 741 0034 7178     		ldrb	r1, [r6, #1]	@ zero_extendqisi2
 742 0036 5B01     		lsls	r3, r3, #5
 743 0038 03F02003 		and	r3, r3, #32
 744 003c 0B43     		orrs	r3, r3, r1
 745 003e 09F80230 		strb	r3, [r9, r2]
 746 0042 237C     		ldrb	r3, [r4, #16]	@ zero_extendqisi2
 747 0044 082B     		cmp	r3, #8
 748 0046 0CD8     		bhi	.L161
 749 0048 DFE803F0 		tbb	[pc, r3]
 750              	.L164:
 751 004c 43       		.byte	(.L167-.L164)/2
 752 004d 05       		.byte	(.L166-.L164)/2
 753 004e 10       		.byte	(.L165-.L164)/2
 754 004f 0B       		.byte	(.L161-.L164)/2
 755 0050 0B       		.byte	(.L161-.L164)/2
 756 0051 0B       		.byte	(.L161-.L164)/2
 757 0052 0B       		.byte	(.L161-.L164)/2
 758 0053 39       		.byte	(.L181-.L164)/2
 759 0054 15       		.byte	(.L163-.L164)/2
 760 0055 00       		.p2align 1
 761              	.L166:
 762 0056 2A46     		mov	r2, r5
 763 0058 0821     		movs	r1, #8
 764 005a 7378     		ldrb	r3, [r6, #1]	@ zero_extendqisi2
 765 005c 207A     		ldrb	r0, [r4, #8]	@ zero_extendqisi2
 766              	.L198:
ARM GAS  /tmp/cciZhAVO.s 			page 14


 767 005e FFF7FEFF 		bl	SetASN_Num
 768              	.L161:
 769 0062 08F10108 		add	r8, r8, #1
 770 0066 1434     		adds	r4, r4, #20
 771 0068 0436     		adds	r6, r6, #4
 772 006a D3E7     		b	.L159
 773              	.L165:
 774 006c 2A46     		mov	r2, r5
 775 006e 1021     		movs	r1, #16
 776 0070 7378     		ldrb	r3, [r6, #1]	@ zero_extendqisi2
 777 0072 2089     		ldrh	r0, [r4, #8]
 778 0074 F3E7     		b	.L198
 779              	.L163:
 780 0076 A068     		ldr	r0, [r4, #8]
 781 0078 FFF7FEFF 		bl	sp_unsigned_bin_size
 782 007c 0090     		str	r0, [sp]
 783 007e A068     		ldr	r0, [r4, #8]
 784 0080 FFF7FEFF 		bl	sp_leading_bit
 785 0084 009B     		ldr	r3, [sp]
 786 0086 691C     		adds	r1, r5, #1
 787 0088 0028     		cmp	r0, #0
 788 008a 0CBF     		ite	eq
 789 008c 1846     		moveq	r0, r3
 790 008e 581C     		addne	r0, r3, #1
 791 0090 FFF7FEFF 		bl	SetASNLength
 792 0094 411C     		adds	r1, r0, #1
 793 0096 CDE90010 		strd	r1, r0, [sp]
 794 009a A068     		ldr	r0, [r4, #8]
 795 009c FFF7FEFF 		bl	sp_leading_bit
 796 00a0 0099     		ldr	r1, [sp]
 797 00a2 18B1     		cbz	r0, .L168
 798 00a4 019B     		ldr	r3, [sp, #4]
 799 00a6 05F801B0 		strb	fp, [r5, r1]
 800 00aa 991C     		adds	r1, r3, #2
 801              	.L168:
 802 00ac A068     		ldr	r0, [r4, #8]
 803 00ae 2944     		add	r1, r1, r5
 804 00b0 FFF7FEFF 		bl	sp_to_unsigned_bin
 805 00b4 0028     		cmp	r0, #0
 806 00b6 D4D0     		beq	.L161
 807 00b8 6FF07000 		mvn	r0, #112
 808 00bc ADE7     		b	.L158
 809              	.L181:
 810 00be 0120     		movs	r0, #1
 811              	.L162:
 812 00c0 A168     		ldr	r1, [r4, #8]
 813 00c2 2844     		add	r0, r0, r5
 814 00c4 09B9     		cbnz	r1, .L171
 815              	.L199:
 816 00c6 A060     		str	r0, [r4, #8]
 817 00c8 CBE7     		b	.L161
 818              	.L171:
 819 00ca E268     		ldr	r2, [r4, #12]
 820 00cc FFF7FEFF 		bl	memcpy
 821 00d0 C7E7     		b	.L161
 822              	.L167:
 823 00d2 7378     		ldrb	r3, [r6, #1]	@ zero_extendqisi2
ARM GAS  /tmp/cciZhAVO.s 			page 15


 824 00d4 012B     		cmp	r3, #1
 825 00d6 07D1     		bne	.L172
 826 00d8 6B70     		strb	r3, [r5, #1]
 827 00da 237A     		ldrb	r3, [r4, #8]	@ zero_extendqisi2
 828 00dc 003B     		subs	r3, r3, #0
 829 00de 18BF     		it	ne
 830 00e0 0123     		movne	r3, #1
 831 00e2 5B42     		rsbs	r3, r3, #0
 832 00e4 AB70     		strb	r3, [r5, #2]
 833 00e6 BCE7     		b	.L161
 834              	.L172:
 835 00e8 052B     		cmp	r3, #5
 836 00ea 02D1     		bne	.L173
 837 00ec 85F801B0 		strb	fp, [r5, #1]
 838 00f0 B7E7     		b	.L161
 839              	.L173:
 840 00f2 032B     		cmp	r3, #3
 841 00f4 E068     		ldr	r0, [r4, #12]
 842 00f6 07D0     		beq	.L174
 843 00f8 022B     		cmp	r3, #2
 844 00fa 06D1     		bne	.L175
 845 00fc A368     		ldr	r3, [r4, #8]
 846 00fe 23B1     		cbz	r3, .L175
 847 0100 93F90030 		ldrsb	r3, [r3]
 848 0104 002B     		cmp	r3, #0
 849 0106 00DA     		bge	.L175
 850              	.L174:
 851 0108 0130     		adds	r0, r0, #1
 852              	.L175:
 853 010a 691C     		adds	r1, r5, #1
 854 010c FFF7FEFF 		bl	SetASNLength
 855 0110 7378     		ldrb	r3, [r6, #1]	@ zero_extendqisi2
 856 0112 421C     		adds	r2, r0, #1
 857 0114 032B     		cmp	r3, #3
 858 0116 07D0     		beq	.L176
 859 0118 022B     		cmp	r3, #2
 860 011a 08D1     		bne	.L177
 861 011c A368     		ldr	r3, [r4, #8]
 862 011e 33B1     		cbz	r3, .L177
 863 0120 93F90030 		ldrsb	r3, [r3]
 864 0124 002B     		cmp	r3, #0
 865 0126 02DA     		bge	.L177
 866              	.L176:
 867 0128 05F802B0 		strb	fp, [r5, r2]
 868 012c 821C     		adds	r2, r0, #2
 869              	.L177:
 870 012e A168     		ldr	r1, [r4, #8]
 871 0130 A818     		adds	r0, r5, r2
 872 0132 0029     		cmp	r1, #0
 873 0134 C7D0     		beq	.L199
 874 0136 E268     		ldr	r2, [r4, #12]
 875 0138 FFF7FEFF 		bl	memmove
 876 013c 91E7     		b	.L161
 878              		.section	.text.GetASN_BitString,"ax",%progbits
 879              		.align	1
 880              		.global	GetASN_BitString
 881              		.syntax unified
ARM GAS  /tmp/cciZhAVO.s 			page 16


 882              		.thumb
 883              		.thumb_func
 884              		.fpu fpv4-sp-d16
 886              	GetASN_BitString:
 887              		@ args = 0, pretend = 0, frame = 0
 888              		@ frame_needed = 0, uses_anonymous_args = 0
 889 0000 10B5     		push	{r4, lr}
 890 0002 82B1     		cbz	r2, .L203
 891 0004 445C     		ldrb	r4, [r0, r1]	@ zero_extendqisi2
 892 0006 072C     		cmp	r4, #7
 893 0008 0DD8     		bhi	.L203
 894 000a 0144     		add	r1, r1, r0
 895 000c 8818     		adds	r0, r1, r2
 896 000e 10F8013C 		ldrb	r3, [r0, #-1]	@ zero_extendqisi2
 897 0012 C4F10804 		rsb	r4, r4, #8
 898 0016 A340     		lsls	r3, r3, r4
 899 0018 DBB2     		uxtb	r3, r3
 900 001a 002B     		cmp	r3, #0
 901 001c 14BF     		ite	ne
 902 001e 6FF08B00 		mvnne	r0, #139
 903 0022 0020     		moveq	r0, #0
 904              	.L200:
 905 0024 10BD     		pop	{r4, pc}
 906              	.L203:
 907 0026 6FF08B00 		mvn	r0, #139
 908 002a FBE7     		b	.L200
 910              		.section	.text.GetLength_ex,"ax",%progbits
 911              		.align	1
 912              		.global	GetLength_ex
 913              		.syntax unified
 914              		.thumb
 915              		.thumb_func
 916              		.fpu fpv4-sp-d16
 918              	GetLength_ex:
 919              		@ args = 4, pretend = 0, frame = 0
 920              		@ frame_needed = 0, uses_anonymous_args = 0
 921 0000 F0B5     		push	{r4, r5, r6, r7, lr}
 922 0002 0025     		movs	r5, #0
 923 0004 0F68     		ldr	r7, [r1]
 924 0006 1560     		str	r5, [r2]
 925 0008 7E1C     		adds	r6, r7, #1
 926 000a 9E42     		cmp	r6, r3
 927 000c 35D8     		bhi	.L220
 928 000e C45D     		ldrb	r4, [r0, r7]	@ zero_extendqisi2
 929 0010 00EB070C 		add	ip, r0, r7
 930 0014 C057     		ldrsb	r0, [r0, r7]
 931 0016 A842     		cmp	r0, r5
 932 0018 24DA     		bge	.L207
 933 001a 04F07F00 		and	r0, r4, #127
 934 001e 802C     		cmp	r4, #128
 935 0020 8646     		mov	lr, r0
 936 0022 16D0     		beq	.L214
 937 0024 0128     		cmp	r0, #1
 938 0026 16D0     		beq	.L215
 939 0028 0428     		cmp	r0, #4
 940 002a 0FDC     		bgt	.L219
 941 002c 441E     		subs	r4, r0, #1
ARM GAS  /tmp/cciZhAVO.s 			page 17


 942 002e E500     		lsls	r5, r4, #3
 943 0030 0124     		movs	r4, #1
 944 0032 AC40     		lsls	r4, r4, r5
 945              	.L208:
 946 0034 0644     		add	r6, r6, r0
 947 0036 9E42     		cmp	r6, r3
 948 0038 1FD8     		bhi	.L220
 949 003a 6546     		mov	r5, ip
 950 003c 0020     		movs	r0, #0
 951              	.L209:
 952 003e BEF1010E 		subs	lr, lr, #1
 953 0042 0AD2     		bcs	.L210
 954 0044 0028     		cmp	r0, #0
 955 0046 01DB     		blt	.L219
 956 0048 A042     		cmp	r0, r4
 957 004a 0CDA     		bge	.L211
 958              	.L219:
 959 004c 6FF08B00 		mvn	r0, #139
 960 0050 12E0     		b	.L205
 961              	.L214:
 962 0052 2C46     		mov	r4, r5
 963 0054 EEE7     		b	.L208
 964              	.L215:
 965 0056 8024     		movs	r4, #128
 966 0058 ECE7     		b	.L208
 967              	.L210:
 968 005a 15F801CF 		ldrb	ip, [r5, #1]!	@ zero_extendqisi2
 969 005e 4CEA0020 		orr	r0, ip, r0, lsl #8
 970 0062 ECE7     		b	.L209
 971              	.L207:
 972 0064 2046     		mov	r0, r4
 973              	.L211:
 974 0066 059C     		ldr	r4, [sp, #20]
 975 0068 14B1     		cbz	r4, .L212
 976 006a 8419     		adds	r4, r0, r6
 977 006c 9C42     		cmp	r4, r3
 978 006e 04D8     		bhi	.L220
 979              	.L212:
 980 0070 0028     		cmp	r0, #0
 981 0072 0E60     		str	r6, [r1]
 982 0074 00DD     		ble	.L205
 983 0076 1060     		str	r0, [r2]
 984              	.L205:
 985 0078 F0BD     		pop	{r4, r5, r6, r7, pc}
 986              	.L220:
 987 007a 6FF08300 		mvn	r0, #131
 988 007e FBE7     		b	.L205
 990              		.section	.text.GetLength,"ax",%progbits
 991              		.align	1
 992              		.global	GetLength
 993              		.syntax unified
 994              		.thumb
 995              		.thumb_func
 996              		.fpu fpv4-sp-d16
 998              	GetLength:
 999              		@ args = 0, pretend = 0, frame = 0
 1000              		@ frame_needed = 0, uses_anonymous_args = 0
ARM GAS  /tmp/cciZhAVO.s 			page 18


 1001 0000 13B5     		push	{r0, r1, r4, lr}
 1002 0002 0124     		movs	r4, #1
 1003 0004 0094     		str	r4, [sp]
 1004 0006 FFF7FEFF 		bl	GetLength_ex
 1005 000a 02B0     		add	sp, sp, #8
 1006              		@ sp needed
 1007 000c 10BD     		pop	{r4, pc}
 1009              		.section	.text.GetASN_Sequence,"ax",%progbits
 1010              		.align	1
 1011              		.syntax unified
 1012              		.thumb
 1013              		.thumb_func
 1014              		.fpu fpv4-sp-d16
 1016              	GetASN_Sequence:
 1017              		@ args = 4, pretend = 0, frame = 8
 1018              		@ frame_needed = 0, uses_anonymous_args = 0
 1019 0000 F0B5     		push	{r4, r5, r6, r7, lr}
 1020 0002 0C46     		mov	r4, r1
 1021 0004 0968     		ldr	r1, [r1]
 1022 0006 1646     		mov	r6, r2
 1023 0008 4F1C     		adds	r7, r1, #1
 1024 000a 9F42     		cmp	r7, r3
 1025 000c 1D46     		mov	r5, r3
 1026 000e 85B0     		sub	sp, sp, #20
 1027 0010 18D8     		bhi	.L230
 1028 0012 415C     		ldrb	r1, [r0, r1]	@ zero_extendqisi2
 1029 0014 0397     		str	r7, [sp, #12]
 1030 0016 3029     		cmp	r1, #48
 1031 0018 03D0     		beq	.L227
 1032              	.L228:
 1033 001a 6FF08B00 		mvn	r0, #139
 1034              	.L225:
 1035 001e 05B0     		add	sp, sp, #20
 1036              		@ sp needed
 1037 0020 F0BD     		pop	{r4, r5, r6, r7, pc}
 1038              	.L227:
 1039 0022 0121     		movs	r1, #1
 1040 0024 0091     		str	r1, [sp]
 1041 0026 03A9     		add	r1, sp, #12
 1042 0028 FFF7FEFF 		bl	GetLength_ex
 1043 002c 0028     		cmp	r0, #0
 1044 002e F4DB     		blt	.L228
 1045 0030 0A9B     		ldr	r3, [sp, #40]
 1046 0032 039A     		ldr	r2, [sp, #12]
 1047 0034 1BB1     		cbz	r3, .L229
 1048 0036 3368     		ldr	r3, [r6]
 1049 0038 1344     		add	r3, r3, r2
 1050 003a AB42     		cmp	r3, r5
 1051 003c EDD1     		bne	.L228
 1052              	.L229:
 1053 003e 0020     		movs	r0, #0
 1054 0040 2260     		str	r2, [r4]
 1055 0042 ECE7     		b	.L225
 1056              	.L230:
 1057 0044 6FF08300 		mvn	r0, #131
 1058 0048 E9E7     		b	.L225
 1060              		.section	.text.GetASNTag,"ax",%progbits
ARM GAS  /tmp/cciZhAVO.s 			page 19


 1061              		.align	1
 1062              		.global	GetASNTag
 1063              		.syntax unified
 1064              		.thumb
 1065              		.thumb_func
 1066              		.fpu fpv4-sp-d16
 1068              	GetASNTag:
 1069              		@ args = 0, pretend = 0, frame = 0
 1070              		@ frame_needed = 0, uses_anonymous_args = 0
 1071 0000 30B5     		push	{r4, r5, lr}
 1072 0002 52B1     		cbz	r2, .L238
 1073 0004 49B1     		cbz	r1, .L238
 1074 0006 40B1     		cbz	r0, .L238
 1075 0008 0D68     		ldr	r5, [r1]
 1076 000a 6C1C     		adds	r4, r5, #1
 1077 000c 9C42     		cmp	r4, r3
 1078 000e 07D8     		bhi	.L239
 1079 0010 435D     		ldrb	r3, [r0, r5]	@ zero_extendqisi2
 1080 0012 0020     		movs	r0, #0
 1081 0014 1370     		strb	r3, [r2]
 1082 0016 0C60     		str	r4, [r1]
 1083              	.L234:
 1084 0018 30BD     		pop	{r4, r5, pc}
 1085              	.L238:
 1086 001a 6FF0AC00 		mvn	r0, #172
 1087 001e FBE7     		b	.L234
 1088              	.L239:
 1089 0020 6FF08300 		mvn	r0, #131
 1090 0024 F8E7     		b	.L234
 1092              		.section	.text.GetASNHeader_ex,"ax",%progbits
 1093              		.align	1
 1094              		.syntax unified
 1095              		.thumb
 1096              		.thumb_func
 1097              		.fpu fpv4-sp-d16
 1099              	GetASNHeader_ex:
 1100              		@ args = 8, pretend = 0, frame = 16
 1101              		@ frame_needed = 0, uses_anonymous_args = 0
 1102 0000 2DE9F043 		push	{r4, r5, r6, r7, r8, r9, lr}
 1103 0004 1E46     		mov	r6, r3
 1104 0006 1368     		ldr	r3, [r2]
 1105 0008 87B0     		sub	sp, sp, #28
 1106 000a 0493     		str	r3, [sp, #16]
 1107 000c 0023     		movs	r3, #0
 1108 000e DDF83890 		ldr	r9, [sp, #56]
 1109 0012 0F46     		mov	r7, r1
 1110 0014 1546     		mov	r5, r2
 1111 0016 0593     		str	r3, [sp, #20]
 1112 0018 0DF10F02 		add	r2, sp, #15
 1113 001c 4B46     		mov	r3, r9
 1114 001e 04A9     		add	r1, sp, #16
 1115 0020 0446     		mov	r4, r0
 1116 0022 FFF7FEFF 		bl	GetASNTag
 1117 0026 20B1     		cbz	r0, .L241
 1118              	.L243:
 1119 0028 6FF08B00 		mvn	r0, #139
 1120              	.L240:
ARM GAS  /tmp/cciZhAVO.s 			page 20


 1121 002c 07B0     		add	sp, sp, #28
 1122              		@ sp needed
 1123 002e BDE8F083 		pop	{r4, r5, r6, r7, r8, r9, pc}
 1124              	.L241:
 1125 0032 9DF80F80 		ldrb	r8, [sp, #15]	@ zero_extendqisi2
 1126 0036 B845     		cmp	r8, r7
 1127 0038 F6D1     		bne	.L243
 1128 003a 0F9B     		ldr	r3, [sp, #60]
 1129 003c 2046     		mov	r0, r4
 1130 003e 0093     		str	r3, [sp]
 1131 0040 05AA     		add	r2, sp, #20
 1132 0042 4B46     		mov	r3, r9
 1133 0044 FFF7FEFF 		bl	GetLength_ex
 1134 0048 0028     		cmp	r0, #0
 1135 004a EDDB     		blt	.L243
 1136 004c B8F1060F 		cmp	r8, #6
 1137 0050 0598     		ldr	r0, [sp, #20]
 1138 0052 08D1     		bne	.L244
 1139 0054 0228     		cmp	r0, #2
 1140 0056 E7DD     		ble	.L243
 1141 0058 049B     		ldr	r3, [sp, #16]
 1142 005a 0444     		add	r4, r4, r0
 1143 005c 1C44     		add	r4, r4, r3
 1144 005e 14F9013C 		ldrsb	r3, [r4, #-1]
 1145 0062 002B     		cmp	r3, #0
 1146 0064 E0DB     		blt	.L243
 1147              	.L244:
 1148 0066 049B     		ldr	r3, [sp, #16]
 1149 0068 3060     		str	r0, [r6]
 1150 006a 2B60     		str	r3, [r5]
 1151 006c DEE7     		b	.L240
 1153              		.section	.text.GetASNHeader,"ax",%progbits
 1154              		.align	1
 1155              		.global	GetASNHeader
 1156              		.syntax unified
 1157              		.thumb
 1158              		.thumb_func
 1159              		.fpu fpv4-sp-d16
 1161              	GetASNHeader:
 1162              		@ args = 4, pretend = 0, frame = 0
 1163              		@ frame_needed = 0, uses_anonymous_args = 0
 1164 0000 13B5     		push	{r0, r1, r4, lr}
 1165 0002 0124     		movs	r4, #1
 1166 0004 0194     		str	r4, [sp, #4]
 1167 0006 049C     		ldr	r4, [sp, #16]
 1168 0008 0094     		str	r4, [sp]
 1169 000a FFF7FEFF 		bl	GetASNHeader_ex
 1170 000e 02B0     		add	sp, sp, #8
 1171              		@ sp needed
 1172 0010 10BD     		pop	{r4, pc}
 1174              		.section	.text.GetSequence,"ax",%progbits
 1175              		.align	1
 1176              		.global	GetSequence
 1177              		.syntax unified
 1178              		.thumb
 1179              		.thumb_func
 1180              		.fpu fpv4-sp-d16
ARM GAS  /tmp/cciZhAVO.s 			page 21


 1182              	GetSequence:
 1183              		@ args = 0, pretend = 0, frame = 0
 1184              		@ frame_needed = 0, uses_anonymous_args = 0
 1185 0000 07B5     		push	{r0, r1, r2, lr}
 1186 0002 0093     		str	r3, [sp]
 1187 0004 1346     		mov	r3, r2
 1188 0006 0A46     		mov	r2, r1
 1189 0008 3021     		movs	r1, #48
 1190 000a FFF7FEFF 		bl	GetASNHeader
 1191 000e 03B0     		add	sp, sp, #12
 1192              		@ sp needed
 1193 0010 5DF804FB 		ldr	pc, [sp], #4
 1195              		.section	.text.GetSequence_ex,"ax",%progbits
 1196              		.align	1
 1197              		.global	GetSequence_ex
 1198              		.syntax unified
 1199              		.thumb
 1200              		.thumb_func
 1201              		.fpu fpv4-sp-d16
 1203              	GetSequence_ex:
 1204              		@ args = 4, pretend = 0, frame = 0
 1205              		@ frame_needed = 0, uses_anonymous_args = 0
 1206 0000 13B5     		push	{r0, r1, r4, lr}
 1207 0002 049C     		ldr	r4, [sp, #16]
 1208 0004 CDE90034 		strd	r3, r4, [sp]
 1209 0008 1346     		mov	r3, r2
 1210 000a 0A46     		mov	r2, r1
 1211 000c 3021     		movs	r1, #48
 1212 000e FFF7FEFF 		bl	GetASNHeader_ex
 1213 0012 02B0     		add	sp, sp, #8
 1214              		@ sp needed
 1215 0014 10BD     		pop	{r4, pc}
 1217              		.section	.text.wc_IndexSequenceOf,"ax",%progbits
 1218              		.align	1
 1219              		.global	wc_IndexSequenceOf
 1220              		.syntax unified
 1221              		.thumb
 1222              		.thumb_func
 1223              		.fpu fpv4-sp-d16
 1225              	wc_IndexSequenceOf:
 1226              		@ args = 4, pretend = 0, frame = 16
 1227              		@ frame_needed = 0, uses_anonymous_args = 0
 1228 0000 2DE9FF47 		push	{r0, r1, r2, r3, r4, r5, r6, r7, r8, r9, r10, lr}
 1229 0004 0026     		movs	r6, #0
 1230 0006 9146     		mov	r9, r2
 1231 0008 9846     		mov	r8, r3
 1232 000a 02AA     		add	r2, sp, #8
 1233 000c 0B46     		mov	r3, r1
 1234 000e 03A9     		add	r1, sp, #12
 1235 0010 0446     		mov	r4, r0
 1236 0012 0396     		str	r6, [sp, #12]
 1237 0014 FFF7FEFF 		bl	GetSequence
 1238 0018 B042     		cmp	r0, r6
 1239 001a 24DB     		blt	.L249
 1240 001c DDE90232 		ldrd	r3, r2, [sp, #8]
 1241 0020 02EB030A 		add	r10, r2, r3
 1242              	.L251:
ARM GAS  /tmp/cciZhAVO.s 			page 22


 1243 0024 039F     		ldr	r7, [sp, #12]
 1244 0026 5745     		cmp	r7, r10
 1245 0028 23D2     		bcs	.L253
 1246 002a 5346     		mov	r3, r10
 1247 002c 2046     		mov	r0, r4
 1248 002e 0DF10702 		add	r2, sp, #7
 1249 0032 03A9     		add	r1, sp, #12
 1250 0034 FFF7FEFF 		bl	GetASNTag
 1251 0038 0546     		mov	r5, r0
 1252 003a A0B9     		cbnz	r0, .L249
 1253 003c 5346     		mov	r3, r10
 1254 003e 2046     		mov	r0, r4
 1255 0040 02AA     		add	r2, sp, #8
 1256 0042 FFF7FEFF 		bl	GetLength
 1257 0046 0028     		cmp	r0, #0
 1258 0048 0DDB     		blt	.L249
 1259 004a DDE90231 		ldrd	r3, r1, [sp, #8]
 1260 004e 0136     		adds	r6, r6, #1
 1261 0050 1944     		add	r1, r1, r3
 1262 0052 B145     		cmp	r9, r6
 1263 0054 0391     		str	r1, [sp, #12]
 1264 0056 E5D2     		bcs	.L251
 1265 0058 0C9B     		ldr	r3, [sp, #48]
 1266 005a 3C44     		add	r4, r4, r7
 1267 005c C91B     		subs	r1, r1, r7
 1268 005e C8F80040 		str	r4, [r8]
 1269 0062 1960     		str	r1, [r3]
 1270 0064 01E0     		b	.L248
 1271              	.L249:
 1272 0066 6FF08B05 		mvn	r5, #139
 1273              	.L248:
 1274 006a 2846     		mov	r0, r5
 1275 006c 04B0     		add	sp, sp, #16
 1276              		@ sp needed
 1277 006e BDE8F087 		pop	{r4, r5, r6, r7, r8, r9, r10, pc}
 1278              	.L253:
 1279 0072 014D     		ldr	r5, .L256
 1280 0074 F9E7     		b	.L248
 1281              	.L257:
 1282 0076 00BF     		.align	2
 1283              	.L256:
 1284 0078 15FCFFFF 		.word	-1003
 1286              		.section	.text.GetSet,"ax",%progbits
 1287              		.align	1
 1288              		.global	GetSet
 1289              		.syntax unified
 1290              		.thumb
 1291              		.thumb_func
 1292              		.fpu fpv4-sp-d16
 1294              	GetSet:
 1295              		@ args = 0, pretend = 0, frame = 0
 1296              		@ frame_needed = 0, uses_anonymous_args = 0
 1297 0000 07B5     		push	{r0, r1, r2, lr}
 1298 0002 0093     		str	r3, [sp]
 1299 0004 1346     		mov	r3, r2
 1300 0006 0A46     		mov	r2, r1
 1301 0008 3121     		movs	r1, #49
ARM GAS  /tmp/cciZhAVO.s 			page 23


 1302 000a FFF7FEFF 		bl	GetASNHeader
 1303 000e 03B0     		add	sp, sp, #12
 1304              		@ sp needed
 1305 0010 5DF804FB 		ldr	pc, [sp], #4
 1307              		.section	.text.GetSet_ex,"ax",%progbits
 1308              		.align	1
 1309              		.global	GetSet_ex
 1310              		.syntax unified
 1311              		.thumb
 1312              		.thumb_func
 1313              		.fpu fpv4-sp-d16
 1315              	GetSet_ex:
 1316              		@ args = 4, pretend = 0, frame = 0
 1317              		@ frame_needed = 0, uses_anonymous_args = 0
 1318 0000 13B5     		push	{r0, r1, r4, lr}
 1319 0002 049C     		ldr	r4, [sp, #16]
 1320 0004 CDE90034 		strd	r3, r4, [sp]
 1321 0008 1346     		mov	r3, r2
 1322 000a 0A46     		mov	r2, r1
 1323 000c 3121     		movs	r1, #49
 1324 000e FFF7FEFF 		bl	GetASNHeader_ex
 1325 0012 02B0     		add	sp, sp, #8
 1326              		@ sp needed
 1327 0014 10BD     		pop	{r4, pc}
 1329              		.section	.text.GetOctetString,"ax",%progbits
 1330              		.align	1
 1331              		.global	GetOctetString
 1332              		.syntax unified
 1333              		.thumb
 1334              		.thumb_func
 1335              		.fpu fpv4-sp-d16
 1337              	GetOctetString:
 1338              		@ args = 0, pretend = 0, frame = 0
 1339              		@ frame_needed = 0, uses_anonymous_args = 0
 1340 0000 07B5     		push	{r0, r1, r2, lr}
 1341 0002 0093     		str	r3, [sp]
 1342 0004 1346     		mov	r3, r2
 1343 0006 0A46     		mov	r2, r1
 1344 0008 0421     		movs	r1, #4
 1345 000a FFF7FEFF 		bl	GetASNHeader
 1346 000e 03B0     		add	sp, sp, #12
 1347              		@ sp needed
 1348 0010 5DF804FB 		ldr	pc, [sp], #4
 1350              		.section	.text.GetASNInt,"ax",%progbits
 1351              		.align	1
 1352              		.global	GetASNInt
 1353              		.syntax unified
 1354              		.thumb
 1355              		.thumb_func
 1356              		.fpu fpv4-sp-d16
 1358              	GetASNInt:
 1359              		@ args = 0, pretend = 0, frame = 0
 1360              		@ frame_needed = 0, uses_anonymous_args = 0
 1361 0000 F7B5     		push	{r0, r1, r2, r4, r5, r6, r7, lr}
 1362 0002 0D46     		mov	r5, r1
 1363 0004 0093     		str	r3, [sp]
 1364 0006 1646     		mov	r6, r2
ARM GAS  /tmp/cciZhAVO.s 			page 24


 1365 0008 1346     		mov	r3, r2
 1366 000a 0A46     		mov	r2, r1
 1367 000c 0221     		movs	r1, #2
 1368 000e 0746     		mov	r7, r0
 1369 0010 FFF7FEFF 		bl	GetASNHeader
 1370 0014 0028     		cmp	r0, #0
 1371 0016 0FDB     		blt	.L261
 1372 0018 3268     		ldr	r2, [r6]
 1373 001a 002A     		cmp	r2, #0
 1374 001c 1ADD     		ble	.L263
 1375 001e 2C68     		ldr	r4, [r5]
 1376 0020 012A     		cmp	r2, #1
 1377 0022 3B5D     		ldrb	r3, [r7, r4]	@ zero_extendqisi2
 1378 0024 16D0     		beq	.L263
 1379 0026 FF2B     		cmp	r3, #255
 1380 0028 08D1     		bne	.L264
 1381 002a 3C44     		add	r4, r4, r7
 1382 002c 94F90130 		ldrsb	r3, [r4, #1]
 1383 0030 002B     		cmp	r3, #0
 1384 0032 0FDA     		bge	.L263
 1385              	.L265:
 1386 0034 6FF09100 		mvn	r0, #145
 1387              	.L261:
 1388 0038 03B0     		add	sp, sp, #12
 1389              		@ sp needed
 1390 003a F0BD     		pop	{r4, r5, r6, r7, pc}
 1391              	.L264:
 1392 003c 53B9     		cbnz	r3, .L263
 1393 003e 0134     		adds	r4, r4, #1
 1394 0040 2C60     		str	r4, [r5]
 1395 0042 3368     		ldr	r3, [r6]
 1396 0044 013B     		subs	r3, r3, #1
 1397 0046 002B     		cmp	r3, #0
 1398 0048 3360     		str	r3, [r6]
 1399 004a 03DD     		ble	.L263
 1400 004c 2B68     		ldr	r3, [r5]
 1401 004e FB56     		ldrsb	r3, [r7, r3]
 1402 0050 002B     		cmp	r3, #0
 1403 0052 EFDA     		bge	.L265
 1404              	.L263:
 1405 0054 0020     		movs	r0, #0
 1406 0056 EFE7     		b	.L261
 1408              		.section	.text.GetSigName,"ax",%progbits
 1409              		.align	1
 1410              		.global	GetSigName
 1411              		.syntax unified
 1412              		.thumb
 1413              		.thumb_func
 1414              		.fpu fpv4-sp-d16
 1416              	GetSigName:
 1417              		@ args = 0, pretend = 0, frame = 0
 1418              		@ frame_needed = 0, uses_anonymous_args = 0
 1419              		@ link register save eliminated.
 1420 0000 134B     		ldr	r3, .L282
 1421 0002 0246     		mov	r2, r0
 1422 0004 9842     		cmp	r0, r3
 1423 0006 1CDC     		bgt	.L278
ARM GAS  /tmp/cciZhAVO.s 			page 25


 1424 0008 073B     		subs	r3, r3, #7
 1425 000a 9842     		cmp	r0, r3
 1426 000c 09DC     		bgt	.L272
 1427 000e 114B     		ldr	r3, .L282+4
 1428 0010 9842     		cmp	r0, r3
 1429 0012 18D0     		beq	.L279
 1430 0014 1049     		ldr	r1, .L282+8
 1431 0016 114B     		ldr	r3, .L282+12
 1432 0018 1148     		ldr	r0, .L282+16
 1433 001a 8A42     		cmp	r2, r1
 1434 001c 18BF     		it	ne
 1435 001e 1846     		movne	r0, r3
 1436 0020 7047     		bx	lr
 1437              	.L272:
 1438 0022 104B     		ldr	r3, .L282+20
 1439 0024 0344     		add	r3, r3, r0
 1440 0026 062B     		cmp	r3, #6
 1441 0028 0BD8     		bhi	.L278
 1442 002a DFE803F0 		tbb	[pc, r3]
 1443              	.L275:
 1444 002e 0E       		.byte	(.L281-.L275)/2
 1445 002f 06       		.byte	(.L277-.L275)/2
 1446 0030 0A       		.byte	(.L278-.L275)/2
 1447 0031 04       		.byte	(.L276-.L275)/2
 1448 0032 0A       		.byte	(.L278-.L275)/2
 1449 0033 0A       		.byte	(.L278-.L275)/2
 1450 0034 08       		.byte	(.L274-.L275)/2
 1451 0035 00       		.p2align 1
 1452              	.L276:
 1453 0036 0C48     		ldr	r0, .L282+24
 1454 0038 7047     		bx	lr
 1455              	.L277:
 1456 003a 0C48     		ldr	r0, .L282+28
 1457 003c 7047     		bx	lr
 1458              	.L274:
 1459 003e 0C48     		ldr	r0, .L282+32
 1460 0040 7047     		bx	lr
 1461              	.L278:
 1462 0042 0648     		ldr	r0, .L282+12
 1463 0044 7047     		bx	lr
 1464              	.L279:
 1465 0046 0B48     		ldr	r0, .L282+36
 1466 0048 7047     		bx	lr
 1467              	.L281:
 1468 004a 0B48     		ldr	r0, .L282+40
 1469 004c 7047     		bx	lr
 1470              	.L283:
 1471 004e 00BF     		.align	2
 1472              	.L282:
 1473 0050 F67AB37D 		.word	2108914422
 1474 0054 17824931 		.word	826901015
 1475 0058 17824B4C 		.word	1280016919
 1476 005c 00000000 		.word	.LANCHOR0
 1477 0060 00000000 		.word	.LANCHOR2
 1478 0064 10854C82 		.word	-2108914416
 1479 0068 00000000 		.word	.LANCHOR6
 1480 006c 00000000 		.word	.LANCHOR4
ARM GAS  /tmp/cciZhAVO.s 			page 26


 1481 0070 00000000 		.word	.LANCHOR5
 1482 0074 00000000 		.word	.LANCHOR1
 1483 0078 00000000 		.word	.LANCHOR3
 1485              		.section	.text.SetShortInt,"ax",%progbits
 1486              		.align	1
 1487              		.global	SetShortInt
 1488              		.syntax unified
 1489              		.thumb
 1490              		.thumb_func
 1491              		.fpu fpv4-sp-d16
 1493              	SetShortInt:
 1494              		@ args = 0, pretend = 0, frame = 0
 1495              		@ frame_needed = 0, uses_anonymous_args = 0
 1496 0000 2DE9F843 		push	{r3, r4, r5, r6, r7, r8, r9, lr}
 1497 0004 0546     		mov	r5, r0
 1498 0006 9946     		mov	r9, r3
 1499 0008 D1F80080 		ldr	r8, [r1]
 1500 000c 42B1     		cbz	r2, .L289
 1501 000e 1046     		mov	r0, r2
 1502 0010 FFF7FEFF 		bl	BytePrecision
 1503 0014 431E     		subs	r3, r0, #1
 1504 0016 032B     		cmp	r3, #3
 1505 0018 03D9     		bls	.L285
 1506 001a 6FF08B00 		mvn	r0, #139
 1507 001e 26E0     		b	.L284
 1508              	.L289:
 1509 0020 0120     		movs	r0, #1
 1510              	.L285:
 1511 0022 C400     		lsls	r4, r0, #3
 1512 0024 013C     		subs	r4, r4, #1
 1513 0026 32FA04F7 		lsrs	r7, r2, r4
 1514 002a 14BF     		ite	ne
 1515 002c 0126     		movne	r6, #1
 1516 002e 0026     		moveq	r6, #0
 1517 0030 08F10204 		add	r4, r8, #2
 1518 0034 2318     		adds	r3, r4, r0
 1519 0036 3344     		add	r3, r3, r6
 1520 0038 4B45     		cmp	r3, r9
 1521 003a 1AD8     		bhi	.L291
 1522 003c 0223     		movs	r3, #2
 1523 003e 0644     		add	r6, r6, r0
 1524 0040 05F80830 		strb	r3, [r5, r8]
 1525 0044 05EB0803 		add	r3, r5, r8
 1526 0048 5E70     		strb	r6, [r3, #1]
 1527 004a 1FB1     		cbz	r7, .L287
 1528 004c 0023     		movs	r3, #0
 1529 004e 2B55     		strb	r3, [r5, r4]
 1530 0050 08F10304 		add	r4, r8, #3
 1531              	.L287:
 1532 0054 431E     		subs	r3, r0, #1
 1533 0056 2544     		add	r5, r5, r4
 1534              	.L288:
 1535 0058 DE00     		lsls	r6, r3, #3
 1536 005a 22FA06F6 		lsr	r6, r2, r6
 1537 005e 013B     		subs	r3, r3, #1
 1538 0060 05F8016B 		strb	r6, [r5], #1
 1539 0064 F8D2     		bcs	.L288
ARM GAS  /tmp/cciZhAVO.s 			page 27


 1540 0066 0444     		add	r4, r4, r0
 1541 0068 0868     		ldr	r0, [r1]
 1542 006a 0C60     		str	r4, [r1]
 1543 006c 201A     		subs	r0, r4, r0
 1544              	.L284:
 1545 006e BDE8F883 		pop	{r3, r4, r5, r6, r7, r8, r9, pc}
 1546              	.L291:
 1547 0072 6FF08300 		mvn	r0, #131
 1548 0076 FAE7     		b	.L284
 1550              		.section	.text.OidFromId,"ax",%progbits
 1551              		.align	1
 1552              		.global	OidFromId
 1553              		.syntax unified
 1554              		.thumb
 1555              		.thumb_func
 1556              		.fpu fpv4-sp-d16
 1558              	OidFromId:
 1559              		@ args = 0, pretend = 0, frame = 8
 1560              		@ frame_needed = 0, uses_anonymous_args = 0
 1561 0000 0023     		movs	r3, #0
 1562 0002 07B5     		push	{r0, r1, r2, lr}
 1563 0004 1360     		str	r3, [r2]
 1564 0006 0193     		str	r3, [sp, #4]
 1565 0008 0F29     		cmp	r1, #15
 1566 000a 47D8     		bhi	.L297
 1567 000c DFE811F0 		tbh	[pc, r1, lsl #1]
 1568              	.L299:
 1569 0010 1000     		.2byte	(.L313-.L299)/2
 1570 0012 3700     		.2byte	(.L312-.L299)/2
 1571 0014 7000     		.2byte	(.L311-.L299)/2
 1572 0016 7500     		.2byte	(.L310-.L299)/2
 1573 0018 7900     		.2byte	(.L309-.L299)/2
 1574 001a 4600     		.2byte	(.L297-.L299)/2
 1575 001c 8800     		.2byte	(.L308-.L299)/2
 1576 001e C900     		.2byte	(.L307-.L299)/2
 1577 0020 D500     		.2byte	(.L306-.L299)/2
 1578 0022 E400     		.2byte	(.L305-.L299)/2
 1579 0024 EA00     		.2byte	(.L304-.L299)/2
 1580 0026 1401     		.2byte	(.L303-.L299)/2
 1581 0028 A201     		.2byte	(.L302-.L299)/2
 1582 002a B201     		.2byte	(.L301-.L299)/2
 1583 002c 1A01     		.2byte	(.L300-.L299)/2
 1584 002e BF01     		.2byte	(.L298-.L299)/2
 1585              		.p2align 1
 1586              	.L313:
 1587 0030 894B     		ldr	r3, .L373
 1588 0032 9842     		cmp	r0, r3
 1589 0034 0FD8     		bhi	.L314
 1590 0036 0E3B     		subs	r3, r3, #14
 1591 0038 9842     		cmp	r0, r3
 1592 003a 2FD9     		bls	.L297
 1593 003c 874B     		ldr	r3, .L373+4
 1594 003e 0344     		add	r3, r3, r0
 1595 0040 0D2B     		cmp	r3, #13
 1596 0042 2BD8     		bhi	.L297
 1597 0044 DFE803F0 		tbb	[pc, r3]
 1598              	.L316:
ARM GAS  /tmp/cciZhAVO.s 			page 28


 1599 0048 19       		.byte	(.L320-.L316)/2
 1600 0049 2A       		.byte	(.L297-.L316)/2
 1601 004a 15       		.byte	(.L319-.L316)/2
 1602 004b 17       		.byte	(.L318-.L316)/2
 1603 004c 2A       		.byte	(.L297-.L316)/2
 1604 004d 2A       		.byte	(.L297-.L316)/2
 1605 004e 2A       		.byte	(.L297-.L316)/2
 1606 004f 2A       		.byte	(.L297-.L316)/2
 1607 0050 2A       		.byte	(.L297-.L316)/2
 1608 0051 2A       		.byte	(.L297-.L316)/2
 1609 0052 2A       		.byte	(.L297-.L316)/2
 1610 0053 0F       		.byte	(.L317-.L316)/2
 1611 0054 2A       		.byte	(.L297-.L316)/2
 1612 0055 13       		.byte	(.L315-.L316)/2
 1613              		.p2align 1
 1614              	.L314:
 1615 0056 824B     		ldr	r3, .L373+8
 1616 0058 9842     		cmp	r0, r3
 1617 005a 1FD1     		bne	.L297
 1618 005c 814B     		ldr	r3, .L373+12
 1619 005e 0193     		str	r3, [sp, #4]
 1620 0060 0523     		movs	r3, #5
 1621              	.L366:
 1622 0062 1360     		str	r3, [r2]
 1623 0064 1AE0     		b	.L297
 1624              	.L317:
 1625 0066 804B     		ldr	r3, .L373+16
 1626              	.L370:
 1627 0068 0193     		str	r3, [sp, #4]
 1628 006a 0923     		movs	r3, #9
 1629 006c F9E7     		b	.L366
 1630              	.L315:
 1631 006e 7F4B     		ldr	r3, .L373+20
 1632 0070 FAE7     		b	.L370
 1633              	.L319:
 1634 0072 7F4B     		ldr	r3, .L373+24
 1635 0074 F8E7     		b	.L370
 1636              	.L318:
 1637 0076 7F4B     		ldr	r3, .L373+28
 1638 0078 F6E7     		b	.L370
 1639              	.L320:
 1640 007a 7F4B     		ldr	r3, .L373+32
 1641 007c F4E7     		b	.L370
 1642              	.L312:
 1643 007e 7F4B     		ldr	r3, .L373+36
 1644 0080 9842     		cmp	r0, r3
 1645 0082 0BD8     		bhi	.L297
 1646 0084 073B     		subs	r3, r3, #7
 1647 0086 9842     		cmp	r0, r3
 1648 0088 0CD8     		bhi	.L321
 1649 008a 7D4B     		ldr	r3, .L373+40
 1650 008c 9842     		cmp	r0, r3
 1651 008e 1FD0     		beq	.L322
 1652 0090 03F1D853 		add	r3, r3, #452984832
 1653 0094 03F50033 		add	r3, r3, #131072
 1654 0098 9842     		cmp	r0, r3
 1655 009a 1DD0     		beq	.L323
ARM GAS  /tmp/cciZhAVO.s 			page 29


 1656              	.L297:
 1657 009c 0198     		ldr	r0, [sp, #4]
 1658 009e 03B0     		add	sp, sp, #12
 1659              		@ sp needed
 1660 00a0 5DF804FB 		ldr	pc, [sp], #4
 1661              	.L321:
 1662 00a4 774B     		ldr	r3, .L373+44
 1663 00a6 0344     		add	r3, r3, r0
 1664 00a8 062B     		cmp	r3, #6
 1665 00aa F7D8     		bhi	.L297
 1666 00ac 01A1     		adr	r1, .L325
 1667 00ae 51F823F0 		ldr	pc, [r1, r3, lsl #2]
 1668 00b2 00BF     		.p2align 2
 1669              	.L325:
 1670 00b4 E5000000 		.word	.L328+1
 1671 00b8 E9000000 		.word	.L327+1
 1672 00bc 9D000000 		.word	.L297+1
 1673 00c0 E1000000 		.word	.L326+1
 1674 00c4 9D000000 		.word	.L297+1
 1675 00c8 9D000000 		.word	.L297+1
 1676 00cc ED000000 		.word	.L324+1
 1677              		.p2align 1
 1678              	.L322:
 1679 00d0 6D4B     		ldr	r3, .L373+48
 1680              	.L368:
 1681 00d2 0193     		str	r3, [sp, #4]
 1682 00d4 0723     		movs	r3, #7
 1683 00d6 C4E7     		b	.L366
 1684              	.L323:
 1685 00d8 6C4B     		ldr	r3, .L373+52
 1686              	.L367:
 1687 00da 0193     		str	r3, [sp, #4]
 1688 00dc 0823     		movs	r3, #8
 1689 00de C0E7     		b	.L366
 1690              	.L326:
 1691 00e0 6B4B     		ldr	r3, .L373+56
 1692 00e2 C1E7     		b	.L370
 1693              	.L328:
 1694 00e4 6B4B     		ldr	r3, .L373+60
 1695 00e6 BFE7     		b	.L370
 1696              	.L327:
 1697 00e8 6B4B     		ldr	r3, .L373+64
 1698 00ea BDE7     		b	.L370
 1699              	.L324:
 1700 00ec 6B4B     		ldr	r3, .L373+68
 1701 00ee BBE7     		b	.L370
 1702              	.L311:
 1703 00f0 6B4B     		ldr	r3, .L373+72
 1704 00f2 9842     		cmp	r0, r3
 1705 00f4 D2D1     		bne	.L297
 1706 00f6 6B4B     		ldr	r3, .L373+76
 1707 00f8 EBE7     		b	.L368
 1708              	.L310:
 1709 00fa 01A9     		add	r1, sp, #4
 1710 00fc FFF7FEFF 		bl	wc_ecc_get_oid
 1711 0100 CCE7     		b	.L297
 1712              	.L309:
ARM GAS  /tmp/cciZhAVO.s 			page 30


 1713 0102 694B     		ldr	r3, .L373+80
 1714 0104 9842     		cmp	r0, r3
 1715 0106 09D0     		beq	.L329
 1716 0108 0C33     		adds	r3, r3, #12
 1717 010a 9842     		cmp	r0, r3
 1718 010c 04D0     		beq	.L330
 1719 010e 283B     		subs	r3, r3, #40
 1720 0110 9842     		cmp	r0, r3
 1721 0112 C3D1     		bne	.L297
 1722 0114 654B     		ldr	r3, .L373+84
 1723 0116 A7E7     		b	.L370
 1724              	.L330:
 1725 0118 654B     		ldr	r3, .L373+88
 1726 011a A5E7     		b	.L370
 1727              	.L329:
 1728 011c 654B     		ldr	r3, .L373+92
 1729 011e A3E7     		b	.L370
 1730              	.L308:
 1731 0120 654B     		ldr	r3, .L373+96
 1732 0122 9842     		cmp	r0, r3
 1733 0124 31D0     		beq	.L332
 1734 0126 15D8     		bhi	.L333
 1735 0128 A3F5C023 		sub	r3, r3, #393216
 1736 012c 9842     		cmp	r0, r3
 1737 012e 34D0     		beq	.L334
 1738 0130 07D8     		bhi	.L335
 1739 0132 624B     		ldr	r3, .L373+100
 1740 0134 9842     		cmp	r0, r3
 1741 0136 2AD0     		beq	.L336
 1742 0138 614B     		ldr	r3, .L373+104
 1743 013a 9842     		cmp	r0, r3
 1744 013c AED1     		bne	.L297
 1745 013e 614B     		ldr	r3, .L373+108
 1746 0140 15E0     		b	.L371
 1747              	.L335:
 1748 0142 614B     		ldr	r3, .L373+112
 1749 0144 9842     		cmp	r0, r3
 1750 0146 24D0     		beq	.L338
 1751 0148 03F54033 		add	r3, r3, #196608
 1752 014c 9842     		cmp	r0, r3
 1753 014e A5D1     		bne	.L297
 1754 0150 5E4B     		ldr	r3, .L373+116
 1755 0152 0CE0     		b	.L371
 1756              	.L333:
 1757 0154 5E4B     		ldr	r3, .L373+120
 1758 0156 9842     		cmp	r0, r3
 1759 0158 15D0     		beq	.L340
 1760 015a 0BD8     		bhi	.L341
 1761 015c A3F55023 		sub	r3, r3, #851968
 1762 0160 9842     		cmp	r0, r3
 1763 0162 1CD0     		beq	.L342
 1764 0164 03F53023 		add	r3, r3, #720896
 1765 0168 9842     		cmp	r0, r3
 1766 016a 97D1     		bne	.L297
 1767 016c 594B     		ldr	r3, .L373+124
 1768              	.L371:
 1769 016e 0193     		str	r3, [sp, #4]
ARM GAS  /tmp/cciZhAVO.s 			page 31


 1770 0170 0323     		movs	r3, #3
 1771 0172 76E7     		b	.L366
 1772              	.L341:
 1773 0174 584B     		ldr	r3, .L373+128
 1774 0176 9842     		cmp	r0, r3
 1775 0178 0DD0     		beq	.L344
 1776 017a 03F58033 		add	r3, r3, #65536
 1777 017e 9842     		cmp	r0, r3
 1778 0180 8CD1     		bne	.L297
 1779 0182 564B     		ldr	r3, .L373+132
 1780 0184 F3E7     		b	.L371
 1781              	.L340:
 1782 0186 564B     		ldr	r3, .L373+136
 1783 0188 F1E7     		b	.L371
 1784              	.L332:
 1785 018a 564B     		ldr	r3, .L373+140
 1786 018c EFE7     		b	.L371
 1787              	.L336:
 1788 018e 564B     		ldr	r3, .L373+144
 1789 0190 A3E7     		b	.L367
 1790              	.L338:
 1791 0192 564B     		ldr	r3, .L373+148
 1792 0194 EBE7     		b	.L371
 1793              	.L344:
 1794 0196 564B     		ldr	r3, .L373+152
 1795 0198 E9E7     		b	.L371
 1796              	.L334:
 1797 019a 564B     		ldr	r3, .L373+156
 1798 019c E7E7     		b	.L371
 1799              	.L342:
 1800 019e 564B     		ldr	r3, .L373+160
 1801 01a0 E5E7     		b	.L371
 1802              	.L307:
 1803 01a2 564B     		ldr	r3, .L373+164
 1804 01a4 9842     		cmp	r0, r3
 1805 01a6 06D0     		beq	.L346
 1806 01a8 03F14073 		add	r3, r3, #50331648
 1807 01ac 9842     		cmp	r0, r3
 1808 01ae 7FF475AF 		bne	.L297
 1809 01b2 534B     		ldr	r3, .L373+168
 1810 01b4 91E7     		b	.L367
 1811              	.L346:
 1812 01b6 534B     		ldr	r3, .L373+172
 1813 01b8 8FE7     		b	.L367
 1814              	.L306:
 1815 01ba 534B     		ldr	r3, .L373+176
 1816 01bc 9842     		cmp	r0, r3
 1817 01be 07D0     		beq	.L348
 1818 01c0 524B     		ldr	r3, .L373+180
 1819 01c2 9842     		cmp	r0, r3
 1820 01c4 7FF46AAF 		bne	.L297
 1821 01c8 514B     		ldr	r3, .L373+184
 1822 01ca 0193     		str	r3, [sp, #4]
 1823 01cc 0B23     		movs	r3, #11
 1824 01ce 48E7     		b	.L366
 1825              	.L348:
 1826 01d0 504B     		ldr	r3, .L373+188
ARM GAS  /tmp/cciZhAVO.s 			page 32


 1827              	.L372:
 1828 01d2 0193     		str	r3, [sp, #4]
 1829 01d4 0423     		movs	r3, #4
 1830 01d6 44E7     		b	.L366
 1831              	.L305:
 1832 01d8 4F4B     		ldr	r3, .L373+192
 1833 01da 9842     		cmp	r0, r3
 1834 01dc 7FF45EAF 		bne	.L297
 1835 01e0 4E4B     		ldr	r3, .L373+196
 1836 01e2 7AE7     		b	.L367
 1837              	.L304:
 1838 01e4 4E4B     		ldr	r3, .L373+200
 1839 01e6 9842     		cmp	r0, r3
 1840 01e8 1ED0     		beq	.L350
 1841 01ea 0DD8     		bhi	.L351
 1842 01ec 03F17B43 		add	r3, r3, #-83886080
 1843 01f0 9842     		cmp	r0, r3
 1844 01f2 1BD0     		beq	.L352
 1845 01f4 03F14073 		add	r3, r3, #50331648
 1846 01f8 9842     		cmp	r0, r3
 1847 01fa 13D0     		beq	.L353
 1848 01fc 494B     		ldr	r3, .L373+204
 1849 01fe 9842     		cmp	r0, r3
 1850 0200 7FF44CAF 		bne	.L297
 1851 0204 484B     		ldr	r3, .L373+208
 1852 0206 E4E7     		b	.L372
 1853              	.L351:
 1854 0208 484B     		ldr	r3, .L373+212
 1855 020a 9842     		cmp	r0, r3
 1856 020c 12D0     		beq	.L355
 1857 020e 03F18073 		add	r3, r3, #16777216
 1858 0212 9842     		cmp	r0, r3
 1859 0214 0CD0     		beq	.L356
 1860 0216 03F17A43 		add	r3, r3, #-100663296
 1861 021a 9842     		cmp	r0, r3
 1862 021c 7FF43EAF 		bne	.L297
 1863 0220 434B     		ldr	r3, .L373+216
 1864 0222 5AE7     		b	.L367
 1865              	.L353:
 1866 0224 434B     		ldr	r3, .L373+220
 1867 0226 58E7     		b	.L367
 1868              	.L350:
 1869 0228 434B     		ldr	r3, .L373+224
 1870 022a 56E7     		b	.L367
 1871              	.L352:
 1872 022c 434B     		ldr	r3, .L373+228
 1873 022e 54E7     		b	.L367
 1874              	.L356:
 1875 0230 434B     		ldr	r3, .L373+232
 1876 0232 52E7     		b	.L367
 1877              	.L355:
 1878 0234 434B     		ldr	r3, .L373+236
 1879 0236 50E7     		b	.L367
 1880              	.L303:
 1881 0238 434B     		ldr	r3, .L373+240
 1882 023a 9842     		cmp	r0, r3
 1883 023c 7FF42EAF 		bne	.L297
ARM GAS  /tmp/cciZhAVO.s 			page 33


 1884 0240 424B     		ldr	r3, .L373+244
 1885 0242 11E7     		b	.L370
 1886              	.L300:
 1887 0244 0D28     		cmp	r0, #13
 1888 0246 04D0     		beq	.L358
 1889 0248 40F29523 		movw	r3, #661
 1890 024c 9842     		cmp	r0, r3
 1891 024e 7FF425AF 		bne	.L297
 1892              	.L358:
 1893 0252 3F4B     		ldr	r3, .L373+248
 1894 0254 08E7     		b	.L370
 1895              	.L374:
 1896 0256 00BF     		.align	2
 1897              	.L373:
 1898 0258 FD7AB37C 		.word	2092137213
 1899 025c 10854C83 		.word	-2092137200
 1900 0260 31F1037D 		.word	2097410353
 1901 0264 00000000 		.word	.LANCHOR7
 1902 0268 00000000 		.word	.LANCHOR8
 1903 026c 00000000 		.word	.LANCHOR9
 1904 0270 00000000 		.word	.LANCHOR10
 1905 0274 00000000 		.word	.LANCHOR11
 1906 0278 00000000 		.word	.LANCHOR12
 1907 027c F67AB37D 		.word	2108914422
 1908 0280 17824931 		.word	826901015
 1909 0284 10854C82 		.word	-2108914416
 1910 0288 00000000 		.word	.LANCHOR13
 1911 028c 00000000 		.word	.LANCHOR14
 1912 0290 00000000 		.word	.LANCHOR15
 1913 0294 00000000 		.word	.LANCHOR16
 1914 0298 00000000 		.word	.LANCHOR17
 1915 029c 00000000 		.word	.LANCHOR18
 1916 02a0 17844931 		.word	826901527
 1917 02a4 00000000 		.word	.LANCHOR19
 1918 02a8 EC7AB37F 		.word	2142468844
 1919 02ac 00000000 		.word	.LANCHOR22
 1920 02b0 00000000 		.word	.LANCHOR20
 1921 02b4 00000000 		.word	.LANCHOR21
 1922 02b8 AA1DE07F 		.word	2145394090
 1923 02bc 2E010004 		.word	67109166
 1924 02c0 AA1DC97F 		.word	2143886762
 1925 02c4 00000000 		.word	.LANCHOR31
 1926 02c8 AA1DDC7F 		.word	2145131946
 1927 02cc 00000000 		.word	.LANCHOR29
 1928 02d0 AA1DEE7F 		.word	2146311594
 1929 02d4 00000000 		.word	.LANCHOR23
 1930 02d8 AA1DF07F 		.word	2146442666
 1931 02dc 00000000 		.word	.LANCHOR28
 1932 02e0 00000000 		.word	.LANCHOR24
 1933 02e4 00000000 		.word	.LANCHOR25
 1934 02e8 00000000 		.word	.LANCHOR26
 1935 02ec 00000000 		.word	.LANCHOR27
 1936 02f0 00000000 		.word	.LANCHOR30
 1937 02f4 00000000 		.word	.LANCHOR32
 1938 02f8 00000000 		.word	.LANCHOR33
 1939 02fc 2E013104 		.word	70320430
 1940 0300 00000000 		.word	.LANCHOR35
ARM GAS  /tmp/cciZhAVO.s 			page 34


 1941 0304 00000000 		.word	.LANCHOR34
 1942 0308 AA1DDF00 		.word	14622122
 1943 030c D4852068 		.word	1746961876
 1944 0310 00000000 		.word	.LANCHOR37
 1945 0314 00000000 		.word	.LANCHOR36
 1946 0318 2E010901 		.word	17367342
 1947 031c 00000000 		.word	.LANCHOR38
 1948 0320 2E010206 		.word	100794670
 1949 0324 AA1DDA00 		.word	14294442
 1950 0328 00000000 		.word	.LANCHOR39
 1951 032c 2E01020C 		.word	201457966
 1952 0330 00000000 		.word	.LANCHOR41
 1953 0334 00000000 		.word	.LANCHOR40
 1954 0338 00000000 		.word	.LANCHOR42
 1955 033c 00000000 		.word	.LANCHOR43
 1956 0340 00000000 		.word	.LANCHOR44
 1957 0344 00000000 		.word	.LANCHOR45
 1958 0348 2E74B67C 		.word	2092332078
 1959 034c 00000000 		.word	.LANCHOR46
 1960 0350 00000000 		.word	.LANCHOR47
 1961              	.L302:
 1962 0354 114B     		ldr	r3, .L375
 1963 0356 9842     		cmp	r0, r3
 1964 0358 0AD0     		beq	.L359
 1965 035a 1C33     		adds	r3, r3, #28
 1966 035c 9842     		cmp	r0, r3
 1967 035e 05D0     		beq	.L360
 1968 0360 283B     		subs	r3, r3, #40
 1969 0362 9842     		cmp	r0, r3
 1970 0364 7FF49AAE 		bne	.L297
 1971 0368 0D4B     		ldr	r3, .L375+4
 1972 036a 7DE6     		b	.L370
 1973              	.L360:
 1974 036c 0D4B     		ldr	r3, .L375+8
 1975 036e 7BE6     		b	.L370
 1976              	.L359:
 1977 0370 0D4B     		ldr	r3, .L375+12
 1978 0372 79E6     		b	.L370
 1979              	.L301:
 1980 0374 0D4B     		ldr	r3, .L375+16
 1981 0376 9842     		cmp	r0, r3
 1982 0378 05D0     		beq	.L362
 1983 037a 0D4B     		ldr	r3, .L375+20
 1984 037c 9842     		cmp	r0, r3
 1985 037e 7FF48DAE 		bne	.L297
 1986 0382 0C4B     		ldr	r3, .L375+24
 1987 0384 70E6     		b	.L370
 1988              	.L362:
 1989 0386 0C4B     		ldr	r3, .L375+28
 1990 0388 0193     		str	r3, [sp, #4]
 1991 038a 0623     		movs	r3, #6
 1992 038c 69E6     		b	.L366
 1993              	.L298:
 1994 038e 0B4B     		ldr	r3, .L375+32
 1995 0390 9842     		cmp	r0, r3
 1996 0392 7FF483AE 		bne	.L297
 1997 0396 0A4B     		ldr	r3, .L375+36
ARM GAS  /tmp/cciZhAVO.s 			page 35


 1998 0398 9FE6     		b	.L367
 1999              	.L376:
 2000 039a 00BF     		.align	2
 2001              	.L375:
 2002 039c E37AB37F 		.word	2142468835
 2003 03a0 00000000 		.word	.LANCHOR50
 2004 03a4 00000000 		.word	.LANCHOR48
 2005 03a8 00000000 		.word	.LANCHOR49
 2006 03ac 2080FB01 		.word	33259552
 2007 03b0 5036C56F 		.word	1875195472
 2008 03b4 00000000 		.word	.LANCHOR51
 2009 03b8 00000000 		.word	.LANCHOR52
 2010 03bc DD8B4A0F 		.word	256543709
 2011 03c0 00000000 		.word	.LANCHOR53
 2013              		.section	.text.SetAlgoIDImpl,"ax",%progbits
 2014              		.align	1
 2015              		.syntax unified
 2016              		.thumb
 2017              		.thumb_func
 2018              		.fpu fpv4-sp-d16
 2020              	SetAlgoIDImpl:
 2021              		@ args = 4, pretend = 0, frame = 16
 2022              		@ frame_needed = 0, uses_anonymous_args = 0
 2023 0000 2DE9FF47 		push	{r0, r1, r2, r3, r4, r5, r6, r7, r8, r9, r10, lr}
 2024 0004 0026     		movs	r6, #0
 2025 0006 0546     		mov	r5, r0
 2026 0008 5420     		movs	r0, #84
 2027 000a 8846     		mov	r8, r1
 2028 000c 9146     		mov	r9, r2
 2029 000e 1F46     		mov	r7, r3
 2030 0010 9DF830A0 		ldrb	r10, [sp, #48]	@ zero_extendqisi2
 2031 0014 0296     		str	r6, [sp, #8]
 2032 0016 FFF7FEFF 		bl	wolfSSL_Malloc
 2033 001a 0446     		mov	r4, r0
 2034 001c 0028     		cmp	r0, #0
 2035 001e 5BD0     		beq	.L393
 2036 0020 3C22     		movs	r2, #60
 2037 0022 3146     		mov	r1, r6
 2038 0024 FFF7FEFF 		bl	memset
 2039              	.L378:
 2040 0028 4946     		mov	r1, r9
 2041 002a 2846     		mov	r0, r5
 2042 002c 02AA     		add	r2, sp, #8
 2043 002e FFF7FEFF 		bl	OidFromId
 2044 0032 0028     		cmp	r0, #0
 2045 0034 64D0     		beq	.L379
 2046 0036 4946     		mov	r1, r9
 2047 0038 2846     		mov	r0, r5
 2048 003a 04F12002 		add	r2, r4, #32
 2049 003e FFF7FEFF 		bl	OidFromId
 2050 0042 E061     		str	r0, [r4, #28]
 2051 0044 B9F1000F 		cmp	r9, #0
 2052 0048 14D0     		beq	.L380
 2053 004a B9F1010F 		cmp	r9, #1
 2054 004e 46D1     		bne	.L381
 2055 0050 2E4B     		ldr	r3, .L410
 2056 0052 9D42     		cmp	r5, r3
ARM GAS  /tmp/cciZhAVO.s 			page 36


 2057 0054 0BD0     		beq	.L382
 2058 0056 03F1D853 		add	r3, r3, #452984832
 2059 005a 25F08072 		bic	r2, r5, #16777216
 2060 005e 03F50033 		add	r3, r3, #131072
 2061 0062 9A42     		cmp	r2, r3
 2062 0064 03D0     		beq	.L382
 2063 0066 03F17E43 		add	r3, r3, #-33554432
 2064 006a 9D42     		cmp	r5, r3
 2065 006c 02D1     		bne	.L380
 2066              	.L382:
 2067 006e 0123     		movs	r3, #1
 2068 0070 84F83930 		strb	r3, [r4, #57]
 2069              	.L380:
 2070 0074 BAF1010F 		cmp	r10, #1
 2071 0078 02D1     		bne	.L384
 2072              	.L391:
 2073 007a 0123     		movs	r3, #1
 2074 007c 84F83930 		strb	r3, [r4, #57]
 2075              	.L384:
 2076 0080 234B     		ldr	r3, .L410+4
 2077 0082 9D42     		cmp	r5, r3
 2078 0084 35D0     		beq	.L394
 2079              	.L392:
 2080 0086 002F     		cmp	r7, #0
 2081 0088 4FF00002 		mov	r2, #0
 2082 008c 04DD     		ble	.L385
 2083 008e BB1E     		subs	r3, r7, #2
 2084 0090 84F83920 		strb	r2, [r4, #57]
 2085 0094 2263     		str	r2, [r4, #48]
 2086 0096 6363     		str	r3, [r4, #52]
 2087              	.L385:
 2088 0098 1425     		movs	r5, #20
 2089 009a 5543     		muls	r5, r2, r5
 2090 009c 1D4E     		ldr	r6, .L410+8
 2091 009e 6119     		adds	r1, r4, r5
 2092 00a0 06EB8206 		add	r6, r6, r2, lsl #2
 2093 00a4 3046     		mov	r0, r6
 2094 00a6 C2F10302 		rsb	r2, r2, #3
 2095 00aa 03AB     		add	r3, sp, #12
 2096 00ac CDE90012 		strd	r1, r2, [sp]
 2097 00b0 FFF7FEFF 		bl	SizeASN_Items
 2098 00b4 F8B9     		cbnz	r0, .L396
 2099 00b6 B8F1000F 		cmp	r8, #0
 2100 00ba 0BD0     		beq	.L388
 2101 00bc DDE90012 		ldrd	r1, r2, [sp]
 2102 00c0 4346     		mov	r3, r8
 2103 00c2 3046     		mov	r0, r6
 2104 00c4 FFF7FEFF 		bl	SetASN_Items
 2105 00c8 002F     		cmp	r7, #0
 2106 00ca 03DD     		ble	.L388
 2107 00cc 6359     		ldr	r3, [r4, r5]
 2108 00ce A26A     		ldr	r2, [r4, #40]
 2109 00d0 9B1A     		subs	r3, r3, r2
 2110 00d2 0393     		str	r3, [sp, #12]
 2111              	.L388:
 2112 00d4 039E     		ldr	r6, [sp, #12]
 2113 00d6 0FE0     		b	.L389
ARM GAS  /tmp/cciZhAVO.s 			page 37


 2114              	.L393:
 2115 00d8 6FF07C06 		mvn	r6, #124
 2116 00dc A4E7     		b	.L378
 2117              	.L381:
 2118 00de B9F1020F 		cmp	r9, #2
 2119 00e2 C4D1     		bne	.L382
 2120 00e4 0C4B     		ldr	r3, .L410+12
 2121 00e6 9D42     		cmp	r5, r3
 2122 00e8 C1D1     		bne	.L382
 2123 00ea BAF1010F 		cmp	r10, #1
 2124 00ee CAD1     		bne	.L392
 2125 00f0 C3E7     		b	.L391
 2126              	.L394:
 2127 00f2 0122     		movs	r2, #1
 2128 00f4 D0E7     		b	.L385
 2129              	.L396:
 2130 00f6 0026     		movs	r6, #0
 2131              	.L389:
 2132 00f8 2046     		mov	r0, r4
 2133 00fa FFF7FEFF 		bl	wolfSSL_Free
 2134 00fe 01E0     		b	.L401
 2135              	.L379:
 2136 0100 002C     		cmp	r4, #0
 2137 0102 F9D1     		bne	.L389
 2138              	.L401:
 2139 0104 3046     		mov	r0, r6
 2140 0106 04B0     		add	sp, sp, #16
 2141              		@ sp needed
 2142 0108 BDE8F087 		pop	{r4, r5, r6, r7, r8, r9, r10, pc}
 2143              	.L411:
 2144              		.align	2
 2145              	.L410:
 2146 010c 17824931 		.word	826901015
 2147 0110 12824931 		.word	826901010
 2148 0114 00000000 		.word	.LANCHOR54
 2149 0118 2374B678 		.word	2025223203
 2151              		.section	.text.GetASNObjectId,"ax",%progbits
 2152              		.align	1
 2153              		.global	GetASNObjectId
 2154              		.syntax unified
 2155              		.thumb
 2156              		.thumb_func
 2157              		.fpu fpv4-sp-d16
 2159              	GetASNObjectId:
 2160              		@ args = 0, pretend = 0, frame = 0
 2161              		@ frame_needed = 0, uses_anonymous_args = 0
 2162 0000 07B5     		push	{r0, r1, r2, lr}
 2163 0002 0093     		str	r3, [sp]
 2164 0004 1346     		mov	r3, r2
 2165 0006 0A46     		mov	r2, r1
 2166 0008 0621     		movs	r1, #6
 2167 000a FFF7FEFF 		bl	GetASNHeader
 2168 000e 00EAE070 		and	r0, r0, r0, asr #31
 2169 0012 03B0     		add	sp, sp, #12
 2170              		@ sp needed
 2171 0014 5DF804FB 		ldr	pc, [sp], #4
 2173              		.section	.text.wc_oid_sum,"ax",%progbits
ARM GAS  /tmp/cciZhAVO.s 			page 38


 2174              		.align	1
 2175              		.global	wc_oid_sum
 2176              		.syntax unified
 2177              		.thumb
 2178              		.thumb_func
 2179              		.fpu fpv4-sp-d16
 2181              	wc_oid_sum:
 2182              		@ args = 0, pretend = 0, frame = 0
 2183              		@ frame_needed = 0, uses_anonymous_args = 0
 2184 0000 30B5     		push	{r4, r5, lr}
 2185 0002 40B1     		cbz	r0, .L413
 2186 0004 2029     		cmp	r1, #32
 2187 0006 10DC     		bgt	.L418
 2188 0008 0023     		movs	r3, #0
 2189 000a 1D46     		mov	r5, r3
 2190 000c 1C46     		mov	r4, r3
 2191              	.L415:
 2192 000e A142     		cmp	r1, r4
 2193 0010 02DC     		bgt	.L416
 2194 0012 25F00040 		bic	r0, r5, #-2147483648
 2195              	.L413:
 2196 0016 30BD     		pop	{r4, r5, pc}
 2197              	.L416:
 2198 0018 025D     		ldrb	r2, [r0, r4]	@ zero_extendqisi2
 2199 001a 0134     		adds	r4, r4, #1
 2200 001c D243     		mvns	r2, r2
 2201 001e 9A40     		lsls	r2, r2, r3
 2202 0020 0833     		adds	r3, r3, #8
 2203 0022 5540     		eors	r5, r5, r2
 2204 0024 03F01F03 		and	r3, r3, #31
 2205 0028 F1E7     		b	.L415
 2206              	.L418:
 2207 002a 0020     		movs	r0, #0
 2208 002c F3E7     		b	.L413
 2210              		.section	.text.GetASN_Items,"ax",%progbits
 2211              		.align	1
 2212              		.global	GetASN_Items
 2213              		.syntax unified
 2214              		.thumb
 2215              		.thumb_func
 2216              		.fpu fpv4-sp-d16
 2218              	GetASN_Items:
 2219              		@ args = 12, pretend = 0, frame = 72
 2220              		@ frame_needed = 0, uses_anonymous_args = 0
 2221 0000 2DE9F04F 		push	{r4, r5, r6, r7, r8, r9, r10, fp, lr}
 2222 0004 4FF0000A 		mov	r10, #0
 2223 0008 95B0     		sub	sp, sp, #84
 2224 000a 0693     		str	r3, [sp, #24]
 2225 000c DDE91E73 		ldrd	r7, r3, [sp, #120]
 2226 0010 1B68     		ldr	r3, [r3]
 2227 0012 5646     		mov	r6, r10
 2228 0014 0B93     		str	r3, [sp, #44]
 2229 0016 4FF6FF73 		movw	r3, #65535
 2230 001a ADF82430 		strh	r3, [sp, #36]	@ movhi
 2231 001e 209B     		ldr	r3, [sp, #128]
 2232 0020 90F800B0 		ldrb	fp, [r0]	@ zero_extendqisi2
 2233 0024 CDE90421 		strd	r2, r1, [sp, #16]
ARM GAS  /tmp/cciZhAVO.s 			page 39


 2234 0028 CDE90D33 		strd	r3, r3, [sp, #52]
 2235 002c CDE90F33 		strd	r3, r3, [sp, #60]
 2236 0030 CDE91133 		strd	r3, r3, [sp, #68]
 2237 0034 0290     		str	r0, [sp, #8]
 2238 0036 1393     		str	r3, [sp, #76]
 2239 0038 CDF80CB0 		str	fp, [sp, #12]
 2240              	.L420:
 2241 003c 049B     		ldr	r3, [sp, #16]
 2242 003e 9E42     		cmp	r6, r3
 2243 0040 14DB     		blt	.L482
 2244 0042 069B     		ldr	r3, [sp, #24]
 2245 0044 2BB1     		cbz	r3, .L483
 2246 0046 0B9B     		ldr	r3, [sp, #44]
 2247 0048 0DAA     		add	r2, sp, #52
 2248              	.L484:
 2249 004a 0399     		ldr	r1, [sp, #12]
 2250 004c 8B45     		cmp	fp, r1
 2251 004e 00F31D82 		bgt	.L485
 2252              	.L483:
 2253 0052 9DF92430 		ldrsb	r3, [sp, #36]
 2254 0056 002B     		cmp	r3, #0
 2255 0058 5FD0     		beq	.L432
 2256 005a 9DF92530 		ldrsb	r3, [sp, #37]
 2257 005e 002B     		cmp	r3, #0
 2258 0060 5BD0     		beq	.L432
 2259 0062 0B9B     		ldr	r3, [sp, #44]
 2260 0064 1F9A     		ldr	r2, [sp, #124]
 2261 0066 0020     		movs	r0, #0
 2262 0068 1360     		str	r3, [r2]
 2263 006a 58E0     		b	.L419
 2264              	.L482:
 2265 006c 1C23     		movs	r3, #28
 2266 006e 7343     		muls	r3, r6, r3
 2267 0070 059A     		ldr	r2, [sp, #20]
 2268 0072 0599     		ldr	r1, [sp, #20]
 2269 0074 D418     		adds	r4, r2, r3
 2270 0076 0B9A     		ldr	r2, [sp, #44]
 2271 0078 CA50     		str	r2, [r1, r3]
 2272 007a 0023     		movs	r3, #0
 2273 007c 6360     		str	r3, [r4, #4]
 2274 007e 029B     		ldr	r3, [sp, #8]
 2275 0080 03EB8609 		add	r9, r3, r6, lsl #2
 2276 0084 13F826B0 		ldrb	fp, [r3, r6, lsl #2]	@ zero_extendqisi2
 2277 0088 99F80330 		ldrb	r3, [r9, #3]	@ zero_extendqisi2
 2278 008c BAF1000F 		cmp	r10, #0
 2279 0090 01D0     		beq	.L421
 2280 0092 5345     		cmp	r3, r10
 2281 0094 0ED0     		beq	.L422
 2282              	.L421:
 2283 0096 012B     		cmp	r3, #1
 2284 0098 29D9     		bls	.L487
 2285 009a 9A46     		mov	r10, r3
 2286 009c 4E33     		adds	r3, r3, #78
 2287 009e 6B44     		add	r3, sp, r3
 2288 00a0 13F92C2C 		ldrsb	r2, [r3, #-44]
 2289 00a4 BFF35B8F 		dmb	ish
 2290 00a8 0132     		adds	r2, r2, #1
ARM GAS  /tmp/cciZhAVO.s 			page 40


 2291 00aa 03D1     		bne	.L422
 2292 00ac 4FF00002 		mov	r2, #0
 2293 00b0 03F82C2C 		strb	r2, [r3, #-44]
 2294              	.L422:
 2295 00b4 14AB     		add	r3, sp, #80
 2296 00b6 03EB8B03 		add	r3, r3, fp, lsl #2
 2297 00ba 53F81C3C 		ldr	r3, [r3, #-28]
 2298 00be BFF35B8F 		dmb	ish
 2299 00c2 0B9A     		ldr	r2, [sp, #44]
 2300 00c4 9A42     		cmp	r2, r3
 2301 00c6 09D0     		beq	.L423
 2302 00c8 217E     		ldrb	r1, [r4, #24]	@ zero_extendqisi2
 2303 00ca B85C     		ldrb	r0, [r7, r2]	@ zero_extendqisi2
 2304 00cc 0B29     		cmp	r1, #11
 2305 00ce 33D0     		beq	.L424
 2306 00d0 99F80150 		ldrb	r5, [r9, #1]	@ zero_extendqisi2
 2307 00d4 20F02001 		bic	r1, r0, #32
 2308 00d8 A942     		cmp	r1, r5
 2309 00da 2DD0     		beq	.L424
 2310              	.L423:
 2311 00dc 99F80310 		ldrb	r1, [r9, #3]	@ zero_extendqisi2
 2312 00e0 A9B1     		cbz	r1, .L425
 2313 00e2 0136     		adds	r6, r6, #1
 2314              	.L426:
 2315 00e4 049B     		ldr	r3, [sp, #16]
 2316 00e6 9E42     		cmp	r6, r3
 2317 00e8 04D1     		bne	.L428
 2318              	.L480:
 2319 00ea 013E     		subs	r6, r6, #1
 2320 00ec 73E0     		b	.L429
 2321              	.L487:
 2322 00ee 4FF0000A 		mov	r10, #0
 2323 00f2 DFE7     		b	.L422
 2324              	.L428:
 2325 00f4 029B     		ldr	r3, [sp, #8]
 2326 00f6 99F80010 		ldrb	r1, [r9]	@ zero_extendqisi2
 2327 00fa 13F82630 		ldrb	r3, [r3, r6, lsl #2]	@ zero_extendqisi2
 2328 00fe 9942     		cmp	r1, r3
 2329 0100 F3D2     		bcs	.L480
 2330 0102 0023     		movs	r3, #0
 2331 0104 E261     		str	r2, [r4, #28]
 2332 0106 2362     		str	r3, [r4, #32]
 2333 0108 0136     		adds	r6, r6, #1
 2334 010a 1C34     		adds	r4, r4, #28
 2335 010c EAE7     		b	.L426
 2336              	.L425:
 2337 010e 2099     		ldr	r1, [sp, #128]
 2338 0110 8A42     		cmp	r2, r1
 2339 0112 00F0C681 		beq	.L499
 2340 0116 9A42     		cmp	r2, r3
 2341 0118 04D1     		bne	.L431
 2342              	.L432:
 2343 011a 6FF08B00 		mvn	r0, #139
 2344              	.L419:
 2345 011e 15B0     		add	sp, sp, #84
 2346              		@ sp needed
 2347 0120 BDE8F08F 		pop	{r4, r5, r6, r7, r8, r9, r10, fp, pc}
ARM GAS  /tmp/cciZhAVO.s 			page 41


 2348              	.L431:
 2349 0124 99F80130 		ldrb	r3, [r9, #1]	@ zero_extendqisi2
 2350 0128 062B     		cmp	r3, #6
 2351 012a 00F0B781 		beq	.L489
 2352 012e 032B     		cmp	r3, #3
 2353 0130 F3D1     		bne	.L432
 2354 0132 6FF09200 		mvn	r0, #146
 2355 0136 F2E7     		b	.L419
 2356              	.L424:
 2357 0138 6076     		strb	r0, [r4, #25]
 2358 013a BFF35B8F 		dmb	ish
 2359 013e 227E     		ldrb	r2, [r4, #24]	@ zero_extendqisi2
 2360 0140 0B2A     		cmp	r2, #11
 2361 0142 09D0     		beq	.L433
 2362 0144 0B9A     		ldr	r2, [sp, #44]
 2363 0146 99F80210 		ldrb	r1, [r9, #2]	@ zero_extendqisi2
 2364 014a BA5C     		ldrb	r2, [r7, r2]	@ zero_extendqisi2
 2365 014c 01F00101 		and	r1, r1, #1
 2366 0150 C2F34012 		ubfx	r2, r2, #5, #1
 2367 0154 9142     		cmp	r1, r2
 2368 0156 E0D1     		bne	.L432
 2369              	.L433:
 2370 0158 0125     		movs	r5, #1
 2371 015a 0B9A     		ldr	r2, [sp, #44]
 2372 015c 3846     		mov	r0, r7
 2373 015e 0132     		adds	r2, r2, #1
 2374 0160 0B92     		str	r2, [sp, #44]
 2375 0162 0095     		str	r5, [sp]
 2376 0164 0AAA     		add	r2, sp, #40
 2377 0166 0BA9     		add	r1, sp, #44
 2378 0168 FFF7FEFF 		bl	GetLength_ex
 2379 016c 0028     		cmp	r0, #0
 2380 016e D4DB     		blt	.L432
 2381 0170 0A9A     		ldr	r2, [sp, #40]
 2382 0172 DDF82C80 		ldr	r8, [sp, #44]
 2383 0176 14AB     		add	r3, sp, #80
 2384 0178 03EB8B03 		add	r3, r3, fp, lsl #2
 2385 017c AA45     		cmp	r10, r5
 2386 017e 02EB0801 		add	r1, r2, r8
 2387 0182 43F8181C 		str	r1, [r3, #-24]
 2388 0186 C4BF     		itt	gt
 2389 0188 0AF15003 		addgt	r3, r10, #80
 2390 018c 6B44     		addgt	r3, sp, r3
 2391 018e 6260     		str	r2, [r4, #4]
 2392 0190 C8BF     		it	gt
 2393 0192 03F82E5C 		strbgt	r5, [r3, #-46]
 2394 0196 99F80130 		ldrb	r3, [r9, #1]	@ zero_extendqisi2
 2395 019a 022B     		cmp	r3, #2
 2396 019c 39D1     		bne	.L435
 2397 019e 002A     		cmp	r2, #0
 2398 01a0 BBD0     		beq	.L432
 2399 01a2 17F80800 		ldrb	r0, [r7, r8]	@ zero_extendqisi2
 2400 01a6 E8B9     		cbnz	r0, .L436
 2401 01a8 012A     		cmp	r2, #1
 2402 01aa 0BDD     		ble	.L437
 2403 01ac 07EB0801 		add	r1, r7, r8
 2404 01b0 91F90110 		ldrsb	r1, [r1, #1]
ARM GAS  /tmp/cciZhAVO.s 			page 42


 2405 01b4 0029     		cmp	r1, #0
 2406 01b6 B0DA     		bge	.L432
 2407 01b8 0120     		movs	r0, #1
 2408 01ba 08F10101 		add	r1, r8, #1
 2409 01be 013A     		subs	r2, r2, #1
 2410 01c0 0B91     		str	r1, [sp, #44]
 2411 01c2 0A92     		str	r2, [sp, #40]
 2412              	.L437:
 2413 01c4 99F80220 		ldrb	r2, [r9, #2]	@ zero_extendqisi2
 2414 01c8 DDE90A85 		ldrd	r8, r5, [sp, #40]
 2415 01cc 9207     		lsls	r2, r2, #30
 2416 01ce 70D5     		bpl	.L450
 2417 01d0 3D44     		add	r5, r5, r7
 2418 01d2 C4E90258 		strd	r5, r8, [r4, #8]
 2419              	.L429:
 2420 01d6 039B     		ldr	r3, [sp, #12]
 2421 01d8 0136     		adds	r6, r6, #1
 2422 01da 5B45     		cmp	r3, fp
 2423 01dc A8BF     		it	ge
 2424 01de 5B46     		movge	r3, fp
 2425 01e0 0393     		str	r3, [sp, #12]
 2426 01e2 2BE7     		b	.L420
 2427              	.L436:
 2428 01e4 217E     		ldrb	r1, [r4, #24]	@ zero_extendqisi2
 2429 01e6 012A     		cmp	r2, #1
 2430 01e8 A1F10801 		sub	r1, r1, #8
 2431 01ec C9B2     		uxtb	r1, r1
 2432 01ee 0ADD     		ble	.L440
 2433 01f0 FF28     		cmp	r0, #255
 2434 01f2 08D1     		bne	.L440
 2435 01f4 B844     		add	r8, r8, r7
 2436 01f6 98F90120 		ldrsb	r2, [r8, #1]
 2437 01fa 002A     		cmp	r2, #0
 2438 01fc 80F25A81 		bge	.L441
 2439              	.L442:
 2440 0200 6FF09100 		mvn	r0, #145
 2441 0204 8BE7     		b	.L419
 2442              	.L440:
 2443 0206 0129     		cmp	r1, #1
 2444 0208 01D8     		bhi	.L498
 2445 020a 0106     		lsls	r1, r0, #24
 2446 020c F8D4     		bmi	.L442
 2447              	.L498:
 2448 020e 0020     		movs	r0, #0
 2449 0210 D8E7     		b	.L437
 2450              	.L435:
 2451 0212 032B     		cmp	r3, #3
 2452 0214 0ED1     		bne	.L443
 2453 0216 4146     		mov	r1, r8
 2454 0218 3846     		mov	r0, r7
 2455 021a 0793     		str	r3, [sp, #28]
 2456 021c FFF7FEFF 		bl	GetASN_BitString
 2457 0220 0028     		cmp	r0, #0
 2458 0222 7FF47CAF 		bne	.L419
 2459 0226 08F10101 		add	r1, r8, #1
 2460 022a 013A     		subs	r2, r2, #1
 2461 022c 079B     		ldr	r3, [sp, #28]
ARM GAS  /tmp/cciZhAVO.s 			page 43


 2462 022e 0B91     		str	r1, [sp, #44]
 2463 0230 0A92     		str	r2, [sp, #40]
 2464 0232 C7E7     		b	.L437
 2465              	.L443:
 2466 0234 0C2B     		cmp	r3, #12
 2467 0236 02D0     		beq	.L494
 2468 0238 617E     		ldrb	r1, [r4, #25]	@ zero_extendqisi2
 2469 023a 0C29     		cmp	r1, #12
 2470 023c 2DD1     		bne	.L545
 2471              	.L494:
 2472 023e 0021     		movs	r1, #0
 2473 0240 B844     		add	r8, r8, r7
 2474 0242 17E0     		b	.L546
 2475              	.L449:
 2476 0244 18F90150 		ldrsb	r5, [r8, r1]
 2477 0248 18F80100 		ldrb	r0, [r8, r1]	@ zero_extendqisi2
 2478 024c 002D     		cmp	r5, #0
 2479 024e 14DA     		bge	.L495
 2480 0250 00F0E005 		and	r5, r0, #224
 2481 0254 C02D     		cmp	r5, #192
 2482 0256 12D0     		beq	.L496
 2483 0258 00F0F005 		and	r5, r0, #240
 2484 025c E02D     		cmp	r5, #224
 2485 025e 10D0     		beq	.L497
 2486 0260 00F0F800 		and	r0, r0, #248
 2487 0264 F028     		cmp	r0, #240
 2488 0266 7FF458AF 		bne	.L432
 2489 026a 0320     		movs	r0, #3
 2490              	.L446:
 2491 026c 0131     		adds	r1, r1, #1
 2492 026e 0844     		add	r0, r0, r1
 2493              	.L447:
 2494 0270 8842     		cmp	r0, r1
 2495 0272 08D1     		bne	.L448
 2496              	.L546:
 2497 0274 8A42     		cmp	r2, r1
 2498 0276 E5DC     		bgt	.L449
 2499 0278 C9E7     		b	.L498
 2500              	.L495:
 2501 027a 0020     		movs	r0, #0
 2502 027c F6E7     		b	.L446
 2503              	.L496:
 2504 027e 0120     		movs	r0, #1
 2505 0280 F4E7     		b	.L446
 2506              	.L497:
 2507 0282 0220     		movs	r0, #2
 2508 0284 F2E7     		b	.L446
 2509              	.L448:
 2510 0286 8A42     		cmp	r2, r1
 2511 0288 3FF447AF 		beq	.L432
 2512 028c 18F90150 		ldrsb	r5, [r8, r1]
 2513 0290 002D     		cmp	r5, #0
 2514 0292 BFF642AF 		bge	.L432
 2515 0296 0131     		adds	r1, r1, #1
 2516 0298 EAE7     		b	.L447
 2517              	.L545:
 2518 029a 062B     		cmp	r3, #6
ARM GAS  /tmp/cciZhAVO.s 			page 44


 2519 029c B7D1     		bne	.L498
 2520 029e 022A     		cmp	r2, #2
 2521 02a0 7FF73BAF 		ble	.L432
 2522 02a4 3A44     		add	r2, r2, r7
 2523 02a6 4244     		add	r2, r2, r8
 2524 02a8 12F9012C 		ldrsb	r2, [r2, #-1]
 2525 02ac 002A     		cmp	r2, #0
 2526 02ae AEDA     		bge	.L498
 2527 02b0 33E7     		b	.L432
 2528              	.L450:
 2529 02b2 227E     		ldrb	r2, [r4, #24]	@ zero_extendqisi2
 2530 02b4 0B2A     		cmp	r2, #11
 2531 02b6 21D8     		bhi	.L451
 2532 02b8 DFE802F0 		tbb	[pc, r2]
 2533              	.L453:
 2534 02bc A8       		.byte	(.L461-.L453)/2
 2535 02bd 14       		.byte	(.L460-.L453)/2
 2536 02be 3E       		.byte	(.L459-.L453)/2
 2537 02bf 20       		.byte	(.L451-.L453)/2
 2538 02c0 5D       		.byte	(.L458-.L453)/2
 2539 02c1 7C       		.byte	(.L457-.L453)/2
 2540 02c2 89       		.byte	(.L456-.L453)/2
 2541 02c3 20       		.byte	(.L451-.L453)/2
 2542 02c4 95       		.byte	(.L454-.L453)/2
 2543 02c5 9A       		.byte	(.L455-.L453)/2
 2544 02c6 95       		.byte	(.L454-.L453)/2
 2545 02c7 06       		.byte	(.L452-.L453)/2
 2546              		.p2align 1
 2547              	.L452:
 2548 02c8 A368     		ldr	r3, [r4, #8]
 2549 02ca 013B     		subs	r3, r3, #1
 2550              	.L462:
 2551 02cc 13F8012F 		ldrb	r2, [r3, #1]!	@ zero_extendqisi2
 2552 02d0 002A     		cmp	r2, #0
 2553 02d2 3FF422AF 		beq	.L432
 2554 02d6 617E     		ldrb	r1, [r4, #25]	@ zero_extendqisi2
 2555 02d8 9142     		cmp	r1, r2
 2556 02da F7D1     		bne	.L462
 2557 02dc 3D44     		add	r5, r5, r7
 2558 02de C4E90258 		strd	r5, r8, [r4, #8]
 2559 02e2 0BE0     		b	.L451
 2560              	.L460:
 2561 02e4 B8F1010F 		cmp	r8, #1
 2562 02e8 7FF417AF 		bne	.L432
 2563 02ec 012B     		cmp	r3, #1
 2564 02ee 7A5D     		ldrb	r2, [r7, r5]	@ zero_extendqisi2
 2565 02f0 02D0     		beq	.L463
 2566 02f2 08B9     		cbnz	r0, .L463
 2567 02f4 1306     		lsls	r3, r2, #24
 2568 02f6 83D4     		bmi	.L442
 2569              	.L463:
 2570 02f8 A368     		ldr	r3, [r4, #8]
 2571 02fa 1A70     		strb	r2, [r3]
 2572              	.L451:
 2573 02fc DDE90A23 		ldrd	r2, r3, [sp, #40]
 2574 0300 1344     		add	r3, r3, r2
 2575 0302 0B93     		str	r3, [sp, #44]
ARM GAS  /tmp/cciZhAVO.s 			page 45


 2576 0304 99F80330 		ldrb	r3, [r9, #3]	@ zero_extendqisi2
 2577 0308 012B     		cmp	r3, #1
 2578 030a 7FF664AF 		bls	.L429
 2579 030e 029A     		ldr	r2, [sp, #8]
 2580 0310 0136     		adds	r6, r6, #1
 2581 0312 0332     		adds	r2, r2, #3
 2582              	.L478:
 2583 0314 0499     		ldr	r1, [sp, #16]
 2584 0316 8E42     		cmp	r6, r1
 2585 0318 3FF4E7AE 		beq	.L480
 2586 031c 0299     		ldr	r1, [sp, #8]
 2587 031e 11F82600 		ldrb	r0, [r1, r6, lsl #2]	@ zero_extendqisi2
 2588 0322 99F80010 		ldrb	r1, [r9]	@ zero_extendqisi2
 2589 0326 8842     		cmp	r0, r1
 2590 0328 04D8     		bhi	.L479
 2591 032a 12F82610 		ldrb	r1, [r2, r6, lsl #2]	@ zero_extendqisi2
 2592 032e 9942     		cmp	r1, r3
 2593 0330 7FF4DBAE 		bne	.L480
 2594              	.L479:
 2595 0334 0136     		adds	r6, r6, #1
 2596 0336 EDE7     		b	.L478
 2597              	.L459:
 2598 0338 B8F1000F 		cmp	r8, #0
 2599 033c 3FF4EDAE 		beq	.L432
 2600 0340 B8F1020F 		cmp	r8, #2
 2601 0344 3FF7E9AE 		bgt	.L432
 2602 0348 18B9     		cbnz	r0, .L464
 2603 034a 7B57     		ldrsb	r3, [r7, r5]
 2604 034c 002B     		cmp	r3, #0
 2605 034e FFF657AF 		blt	.L442
 2606              	.L464:
 2607 0352 4FF00003 		mov	r3, #0	@ movhi
 2608 0356 0020     		movs	r0, #0
 2609 0358 A268     		ldr	r2, [r4, #8]
 2610 035a 3D44     		add	r5, r5, r7
 2611 035c 1380     		strh	r3, [r2]	@ movhi
 2612              	.L465:
 2613 035e 4045     		cmp	r0, r8
 2614 0360 CCDA     		bge	.L451
 2615 0362 1388     		ldrh	r3, [r2]
 2616 0364 0130     		adds	r0, r0, #1
 2617 0366 1B02     		lsls	r3, r3, #8
 2618 0368 9BB2     		uxth	r3, r3
 2619 036a 1380     		strh	r3, [r2]	@ movhi
 2620 036c 15F8011B 		ldrb	r1, [r5], #1	@ zero_extendqisi2
 2621 0370 0B43     		orrs	r3, r3, r1
 2622 0372 1380     		strh	r3, [r2]	@ movhi
 2623 0374 F3E7     		b	.L465
 2624              	.L458:
 2625 0376 B8F1000F 		cmp	r8, #0
 2626 037a 3FF4CEAE 		beq	.L432
 2627 037e B8F1040F 		cmp	r8, #4
 2628 0382 3FF7CAAE 		bgt	.L432
 2629 0386 18B9     		cbnz	r0, .L467
 2630 0388 7B57     		ldrsb	r3, [r7, r5]
 2631 038a 002B     		cmp	r3, #0
 2632 038c FFF638AF 		blt	.L442
ARM GAS  /tmp/cciZhAVO.s 			page 46


 2633              	.L467:
 2634 0390 0022     		movs	r2, #0
 2635 0392 A368     		ldr	r3, [r4, #8]
 2636 0394 3D44     		add	r5, r5, r7
 2637 0396 1A60     		str	r2, [r3]
 2638              	.L468:
 2639 0398 4245     		cmp	r2, r8
 2640 039a AFDA     		bge	.L451
 2641 039c A168     		ldr	r1, [r4, #8]
 2642 039e 0132     		adds	r2, r2, #1
 2643 03a0 0B68     		ldr	r3, [r1]
 2644 03a2 1B02     		lsls	r3, r3, #8
 2645 03a4 0B60     		str	r3, [r1]
 2646 03a6 A168     		ldr	r1, [r4, #8]
 2647 03a8 15F8010B 		ldrb	r0, [r5], #1	@ zero_extendqisi2
 2648 03ac 0B68     		ldr	r3, [r1]
 2649 03ae 0343     		orrs	r3, r3, r0
 2650 03b0 0B60     		str	r3, [r1]
 2651 03b2 F1E7     		b	.L468
 2652              	.L457:
 2653 03b4 E368     		ldr	r3, [r4, #12]
 2654 03b6 1B68     		ldr	r3, [r3]
 2655 03b8 4345     		cmp	r3, r8
 2656 03ba 72DB     		blt	.L499
 2657 03bc 4246     		mov	r2, r8
 2658 03be A068     		ldr	r0, [r4, #8]
 2659 03c0 7919     		adds	r1, r7, r5
 2660 03c2 FFF7FEFF 		bl	memcpy
 2661 03c6 E368     		ldr	r3, [r4, #12]
 2662 03c8 C3F80080 		str	r8, [r3]
 2663 03cc 96E7     		b	.L451
 2664              	.L456:
 2665 03ce E368     		ldr	r3, [r4, #12]
 2666 03d0 4345     		cmp	r3, r8
 2667 03d2 7FF4A2AE 		bne	.L432
 2668 03d6 4246     		mov	r2, r8
 2669 03d8 A068     		ldr	r0, [r4, #8]
 2670 03da 7919     		adds	r1, r7, r5
 2671 03dc FFF7FEFF 		bl	memcmp
 2672 03e0 0028     		cmp	r0, #0
 2673 03e2 8BD0     		beq	.L451
 2674 03e4 99E6     		b	.L432
 2675              	.L454:
 2676 03e6 A068     		ldr	r0, [r4, #8]
 2677 03e8 FFF7FEFF 		bl	sp_init
 2678 03ec 0028     		cmp	r0, #0
 2679 03ee 5BD1     		bne	.L500
 2680              	.L455:
 2681 03f0 4246     		mov	r2, r8
 2682 03f2 A068     		ldr	r0, [r4, #8]
 2683 03f4 7919     		adds	r1, r7, r5
 2684 03f6 FFF7FEFF 		bl	sp_read_unsigned_bin
 2685 03fa 0028     		cmp	r0, #0
 2686 03fc 3FF47EAF 		beq	.L451
 2687 0400 A068     		ldr	r0, [r4, #8]
 2688 0402 FFF7FEFF 		bl	sp_clear
 2689 0406 6FF08D00 		mvn	r0, #141
ARM GAS  /tmp/cciZhAVO.s 			page 47


 2690 040a 88E6     		b	.L419
 2691              	.L461:
 2692 040c 012B     		cmp	r3, #1
 2693 040e 0CD1     		bne	.L473
 2694 0410 B8F1010F 		cmp	r8, #1
 2695 0414 7FF481AE 		bne	.L432
 2696 0418 A268     		ldr	r2, [r4, #8]
 2697 041a 002A     		cmp	r2, #0
 2698 041c 47D0     		beq	.L501
 2699 041e 7B5D     		ldrb	r3, [r7, r5]	@ zero_extendqisi2
 2700 0420 003B     		subs	r3, r3, #0
 2701 0422 18BF     		it	ne
 2702 0424 0123     		movne	r3, #1
 2703 0426 1370     		strb	r3, [r2]
 2704 0428 68E7     		b	.L451
 2705              	.L473:
 2706 042a 052B     		cmp	r3, #5
 2707 042c 06D1     		bne	.L474
 2708 042e B8F1000F 		cmp	r8, #0
 2709 0432 7FF4E5AE 		bne	.L442
 2710 0436 3D44     		add	r5, r5, r7
 2711 0438 A560     		str	r5, [r4, #8]
 2712 043a 5FE7     		b	.L451
 2713              	.L474:
 2714 043c 3D44     		add	r5, r5, r7
 2715 043e 062B     		cmp	r3, #6
 2716 0440 C4E90258 		strd	r5, r8, [r4, #8]
 2717 0444 7FF45AAF 		bne	.L451
 2718 0448 2369     		ldr	r3, [r4, #16]
 2719 044a 4146     		mov	r1, r8
 2720 044c 0793     		str	r3, [sp, #28]
 2721 044e 0023     		movs	r3, #0
 2722 0450 2846     		mov	r0, r5
 2723 0452 6361     		str	r3, [r4, #20]
 2724 0454 FFF7FEFF 		bl	wc_oid_sum
 2725 0458 079B     		ldr	r3, [sp, #28]
 2726 045a 6061     		str	r0, [r4, #20]
 2727 045c 152B     		cmp	r3, #21
 2728 045e 3FF44DAF 		beq	.L451
 2729 0462 1946     		mov	r1, r3
 2730 0464 0CAA     		add	r2, sp, #48
 2731 0466 FFF7FEFF 		bl	OidFromId
 2732 046a 0146     		mov	r1, r0
 2733 046c 0028     		cmp	r0, #0
 2734 046e 3FF445AF 		beq	.L451
 2735 0472 0C9B     		ldr	r3, [sp, #48]
 2736 0474 4345     		cmp	r3, r8
 2737 0476 06D1     		bne	.L477
 2738 0478 4246     		mov	r2, r8
 2739 047a 2846     		mov	r0, r5
 2740 047c FFF7FEFF 		bl	memcmp
 2741 0480 0028     		cmp	r0, #0
 2742 0482 3FF43BAF 		beq	.L451
 2743              	.L477:
 2744 0486 6FF09300 		mvn	r0, #147
 2745 048a 48E6     		b	.L419
 2746              	.L485:
ARM GAS  /tmp/cciZhAVO.s 			page 48


 2747 048c 52F82B10 		ldr	r1, [r2, fp, lsl #2]
 2748 0490 9942     		cmp	r1, r3
 2749 0492 3FF642AE 		bhi	.L432
 2750 0496 0BF1FF3B 		add	fp, fp, #-1
 2751 049a D6E5     		b	.L484
 2752              	.L489:
 2753 049c 6FF08F00 		mvn	r0, #143
 2754 04a0 3DE6     		b	.L419
 2755              	.L499:
 2756 04a2 6FF08300 		mvn	r0, #131
 2757 04a6 3AE6     		b	.L419
 2758              	.L500:
 2759 04a8 6FF06D00 		mvn	r0, #109
 2760 04ac 37E6     		b	.L419
 2761              	.L501:
 2762 04ae 6FF0BF00 		mvn	r0, #191
 2763 04b2 34E6     		b	.L419
 2764              	.L441:
 2765 04b4 0129     		cmp	r1, #1
 2766 04b6 3FF6AAAE 		bhi	.L498
 2767 04ba A1E6     		b	.L442
 2769              		.section	.text.GetMyVersion,"ax",%progbits
 2770              		.align	1
 2771              		.global	GetMyVersion
 2772              		.syntax unified
 2773              		.thumb
 2774              		.thumb_func
 2775              		.fpu fpv4-sp-d16
 2777              	GetMyVersion:
 2778              		@ args = 0, pretend = 0, frame = 32
 2779              		@ frame_needed = 0, uses_anonymous_args = 0
 2780 0000 2DE9F041 		push	{r4, r5, r6, r7, r8, lr}
 2781 0004 0025     		movs	r5, #0
 2782 0006 8CB0     		sub	sp, sp, #48
 2783 0008 9846     		mov	r8, r3
 2784 000a 0646     		mov	r6, r0
 2785 000c 0F46     		mov	r7, r1
 2786 000e 1446     		mov	r4, r2
 2787 0010 2946     		mov	r1, r5
 2788 0012 1C22     		movs	r2, #28
 2789 0014 05A8     		add	r0, sp, #20
 2790 0016 8DF81350 		strb	r5, [sp, #19]
 2791 001a FFF7FEFF 		bl	memset
 2792 001e 0122     		movs	r2, #1
 2793 0020 0DF11303 		add	r3, sp, #19
 2794 0024 0793     		str	r3, [sp, #28]
 2795 0026 CDE90178 		strd	r7, r8, [sp, #4]
 2796 002a 2B46     		mov	r3, r5
 2797 002c 0648     		ldr	r0, .L549
 2798 002e 0096     		str	r6, [sp]
 2799 0030 05A9     		add	r1, sp, #20
 2800 0032 8DF82C20 		strb	r2, [sp, #44]
 2801 0036 FFF7FEFF 		bl	GetASN_Items
 2802 003a 10B9     		cbnz	r0, .L547
 2803 003c 9DF81300 		ldrb	r0, [sp, #19]	@ zero_extendqisi2
 2804 0040 2060     		str	r0, [r4]
 2805              	.L547:
ARM GAS  /tmp/cciZhAVO.s 			page 49


 2806 0042 0CB0     		add	sp, sp, #48
 2807              		@ sp needed
 2808 0044 BDE8F081 		pop	{r4, r5, r6, r7, r8, pc}
 2809              	.L550:
 2810              		.align	2
 2811              	.L549:
 2812 0048 00000000 		.word	.LANCHOR55
 2814              		.section	.text.GetShortInt,"ax",%progbits
 2815              		.align	1
 2816              		.global	GetShortInt
 2817              		.syntax unified
 2818              		.thumb
 2819              		.thumb_func
 2820              		.fpu fpv4-sp-d16
 2822              	GetShortInt:
 2823              		@ args = 0, pretend = 0, frame = 32
 2824              		@ frame_needed = 0, uses_anonymous_args = 0
 2825 0000 F0B5     		push	{r4, r5, r6, r7, lr}
 2826 0002 1F46     		mov	r7, r3
 2827 0004 0023     		movs	r3, #0
 2828 0006 8DB0     		sub	sp, sp, #52
 2829 0008 0546     		mov	r5, r0
 2830 000a 0E46     		mov	r6, r1
 2831 000c 1446     		mov	r4, r2
 2832 000e 1946     		mov	r1, r3
 2833 0010 1C22     		movs	r2, #28
 2834 0012 05A8     		add	r0, sp, #20
 2835 0014 0493     		str	r3, [sp, #16]
 2836 0016 FFF7FEFF 		bl	memset
 2837 001a 0422     		movs	r2, #4
 2838 001c 8DF82C20 		strb	r2, [sp, #44]
 2839 0020 04AA     		add	r2, sp, #16
 2840 0022 0792     		str	r2, [sp, #28]
 2841 0024 0023     		movs	r3, #0
 2842 0026 0122     		movs	r2, #1
 2843 0028 CDE90167 		strd	r6, r7, [sp, #4]
 2844 002c 0448     		ldr	r0, .L553
 2845 002e 0095     		str	r5, [sp]
 2846 0030 05A9     		add	r1, sp, #20
 2847 0032 FFF7FEFF 		bl	GetASN_Items
 2848 0036 08B9     		cbnz	r0, .L551
 2849 0038 0498     		ldr	r0, [sp, #16]
 2850 003a 2060     		str	r0, [r4]
 2851              	.L551:
 2852 003c 0DB0     		add	sp, sp, #52
 2853              		@ sp needed
 2854 003e F0BD     		pop	{r4, r5, r6, r7, pc}
 2855              	.L554:
 2856              		.align	2
 2857              	.L553:
 2858 0040 00000000 		.word	.LANCHOR55
 2860              		.section	.text.GetInt,"ax",%progbits
 2861              		.align	1
 2862              		.global	GetInt
 2863              		.syntax unified
 2864              		.thumb
 2865              		.thumb_func
ARM GAS  /tmp/cciZhAVO.s 			page 50


 2866              		.fpu fpv4-sp-d16
 2868              	GetInt:
 2869              		@ args = 0, pretend = 0, frame = 32
 2870              		@ frame_needed = 0, uses_anonymous_args = 0
 2871 0000 F0B5     		push	{r4, r5, r6, r7, lr}
 2872 0002 8DB0     		sub	sp, sp, #52
 2873 0004 0746     		mov	r7, r0
 2874 0006 0C46     		mov	r4, r1
 2875 0008 1546     		mov	r5, r2
 2876 000a 0021     		movs	r1, #0
 2877 000c 1C22     		movs	r2, #28
 2878 000e 05A8     		add	r0, sp, #20
 2879 0010 1E46     		mov	r6, r3
 2880 0012 FFF7FEFF 		bl	memset
 2881 0016 0A23     		movs	r3, #10
 2882 0018 0122     		movs	r2, #1
 2883 001a 8DF82C30 		strb	r3, [sp, #44]
 2884 001e CDE90156 		strd	r5, r6, [sp, #4]
 2885 0022 0023     		movs	r3, #0
 2886 0024 0094     		str	r4, [sp]
 2887 0026 05A9     		add	r1, sp, #20
 2888 0028 0248     		ldr	r0, .L556
 2889 002a 0797     		str	r7, [sp, #28]
 2890 002c FFF7FEFF 		bl	GetASN_Items
 2891 0030 0DB0     		add	sp, sp, #52
 2892              		@ sp needed
 2893 0032 F0BD     		pop	{r4, r5, r6, r7, pc}
 2894              	.L557:
 2895              		.align	2
 2896              	.L556:
 2897 0034 00000000 		.word	.LANCHOR55
 2899              		.section	.text.CheckBitString,"ax",%progbits
 2900              		.align	1
 2901              		.global	CheckBitString
 2902              		.syntax unified
 2903              		.thumb
 2904              		.thumb_func
 2905              		.fpu fpv4-sp-d16
 2907              	CheckBitString:
 2908              		@ args = 8, pretend = 0, frame = 32
 2909              		@ frame_needed = 0, uses_anonymous_args = 0
 2910 0000 2DE9F041 		push	{r4, r5, r6, r7, r8, lr}
 2911 0004 9846     		mov	r8, r3
 2912 0006 0646     		mov	r6, r0
 2913 0008 0F46     		mov	r7, r1
 2914 000a 8CB0     		sub	sp, sp, #48
 2915 000c 0021     		movs	r1, #0
 2916 000e 1446     		mov	r4, r2
 2917 0010 05A8     		add	r0, sp, #20
 2918 0012 1C22     		movs	r2, #28
 2919 0014 139D     		ldr	r5, [sp, #76]
 2920 0016 FFF7FEFF 		bl	memset
 2921 001a 0023     		movs	r3, #0
 2922 001c 0122     		movs	r2, #1
 2923 001e CDE90178 		strd	r7, r8, [sp, #4]
 2924 0022 0B48     		ldr	r0, .L570
 2925 0024 0096     		str	r6, [sp]
ARM GAS  /tmp/cciZhAVO.s 			page 51


 2926 0026 05A9     		add	r1, sp, #20
 2927 0028 FFF7FEFF 		bl	GetASN_Items
 2928 002c 68B9     		cbnz	r0, .L558
 2929 002e 079B     		ldr	r3, [sp, #28]
 2930 0030 129A     		ldr	r2, [sp, #72]
 2931 0032 13F8013C 		ldrb	r3, [r3, #-1]	@ zero_extendqisi2
 2932 0036 1AB1     		cbz	r2, .L560
 2933 0038 13B1     		cbz	r3, .L560
 2934 003a 6FF09100 		mvn	r0, #145
 2935 003e 04E0     		b	.L558
 2936              	.L560:
 2937 0040 0CB1     		cbz	r4, .L562
 2938 0042 089A     		ldr	r2, [sp, #32]
 2939 0044 2260     		str	r2, [r4]
 2940              	.L562:
 2941 0046 05B1     		cbz	r5, .L558
 2942 0048 2B70     		strb	r3, [r5]
 2943              	.L558:
 2944 004a 0CB0     		add	sp, sp, #48
 2945              		@ sp needed
 2946 004c BDE8F081 		pop	{r4, r5, r6, r7, r8, pc}
 2947              	.L571:
 2948              		.align	2
 2949              	.L570:
 2950 0050 00000000 		.word	.LANCHOR56
 2952              		.section	.text.GetAlgoIdImpl,"ax",%progbits
 2953              		.align	1
 2954              		.syntax unified
 2955              		.thumb
 2956              		.thumb_func
 2957              		.fpu fpv4-sp-d16
 2959              	GetAlgoIdImpl:
 2960              		@ args = 8, pretend = 0, frame = 0
 2961              		@ frame_needed = 0, uses_anonymous_args = 0
 2962 0000 2DE9F043 		push	{r4, r5, r6, r7, r8, r9, lr}
 2963 0004 0546     		mov	r5, r0
 2964 0006 85B0     		sub	sp, sp, #20
 2965 0008 5420     		movs	r0, #84
 2966 000a 0F46     		mov	r7, r1
 2967 000c 1646     		mov	r6, r2
 2968 000e 9846     		mov	r8, r3
 2969 0010 DDF83490 		ldr	r9, [sp, #52]
 2970 0014 FFF7FEFF 		bl	wolfSSL_Malloc
 2971 0018 0446     		mov	r4, r0
 2972 001a 18B3     		cbz	r0, .L575
 2973 001c 5422     		movs	r2, #84
 2974 001e 0021     		movs	r1, #0
 2975 0020 FFF7FEFF 		bl	memset
 2976 0024 0C9B     		ldr	r3, [sp, #48]
 2977 0026 C4F82C80 		str	r8, [r4, #44]
 2978 002a 0322     		movs	r2, #3
 2979 002c CDE90173 		strd	r7, r3, [sp, #4]
 2980 0030 0095     		str	r5, [sp]
 2981 0032 0023     		movs	r3, #0
 2982 0034 2146     		mov	r1, r4
 2983 0036 0D48     		ldr	r0, .L579
 2984 0038 FFF7FEFF 		bl	GetASN_Items
ARM GAS  /tmp/cciZhAVO.s 			page 52


 2985 003c 0546     		mov	r5, r0
 2986 003e 50B9     		cbnz	r0, .L574
 2987 0040 236B     		ldr	r3, [r4, #48]
 2988 0042 3360     		str	r3, [r6]
 2989 0044 B9F1000F 		cmp	r9, #0
 2990 0048 05D0     		beq	.L574
 2991 004a 94F85130 		ldrb	r3, [r4, #81]	@ zero_extendqisi2
 2992 004e 052B     		cmp	r3, #5
 2993 0050 08BF     		it	eq
 2994 0052 89F80000 		strbeq	r0, [r9]
 2995              	.L574:
 2996 0056 2046     		mov	r0, r4
 2997 0058 FFF7FEFF 		bl	wolfSSL_Free
 2998              	.L572:
 2999 005c 2846     		mov	r0, r5
 3000 005e 05B0     		add	sp, sp, #20
 3001              		@ sp needed
 3002 0060 BDE8F083 		pop	{r4, r5, r6, r7, r8, r9, pc}
 3003              	.L575:
 3004 0064 6FF07C05 		mvn	r5, #124
 3005 0068 F8E7     		b	.L572
 3006              	.L580:
 3007 006a 00BF     		.align	2
 3008              	.L579:
 3009 006c 00000000 		.word	.LANCHOR54
 3011              		.section	.rodata.GetCertName.str1.1,"aMS",%progbits,1
 3012              	.LC0:
 3013 0000 2F656D61 		.ascii	"/emailAddress=\000"
 3013      696C4164 
 3013      64726573 
 3013      733D00
 3014              	.LC1:
 3015 000f 2F554944 		.ascii	"/UID=\000"
 3015      3D00
 3016              	.LC2:
 3017 0015 2F44433D 		.ascii	"/DC=\000"
 3017      00
 3018              	.LC3:
 3019 001a 2F726663 		.ascii	"/rfc822Mailbox=\000"
 3019      3832324D 
 3019      61696C62 
 3019      6F783D00 
 3020              	.LC4:
 3021 002a 2F666176 		.ascii	"/favouriteDrink=\000"
 3021      6F757269 
 3021      74654472 
 3021      696E6B3D 
 3021      00
 3022              	.LC5:
 3023 003b 2F6A7572 		.ascii	"/jurisdictionC=\000"
 3023      69736469 
 3023      6374696F 
 3023      6E433D00 
 3024              	.LC6:
 3025 004b 2F6A7572 		.ascii	"/jurisdictionST=\000"
 3025      69736469 
 3025      6374696F 
ARM GAS  /tmp/cciZhAVO.s 			page 53


 3025      6E53543D 
 3025      00
 3026              	.LC7:
 3027 005c 2B060104 		.ascii	"+\006\001\004\001\2027<\002\001\000"
 3027      0182373C 
 3027      020100
 3028              		.section	.text.GetCertName,"ax",%progbits
 3029              		.align	1
 3030              		.syntax unified
 3031              		.thumb
 3032              		.thumb_func
 3033              		.fpu fpv4-sp-d16
 3035              	GetCertName:
 3036              		@ args = 12, pretend = 0, frame = 24
 3037              		@ frame_needed = 0, uses_anonymous_args = 0
 3038 0000 2DE9F04F 		push	{r4, r5, r6, r7, r8, r9, r10, fp, lr}
 3039 0004 8BB0     		sub	sp, sp, #44
 3040 0006 0593     		str	r3, [sp, #20]
 3041 0008 0023     		movs	r3, #0
 3042 000a 0893     		str	r3, [sp, #32]
 3043 000c 159B     		ldr	r3, [sp, #84]
 3044 000e DDF850B0 		ldr	fp, [sp, #80]
 3045 0012 DDF858A0 		ldr	r10, [sp, #88]
 3046 0016 0546     		mov	r5, r0
 3047 0018 1868     		ldr	r0, [r3]
 3048 001a 8846     		mov	r8, r1
 3049 001c 0990     		str	r0, [sp, #36]
 3050 001e AAEB0001 		sub	r1, r10, r0
 3051 0022 5844     		add	r0, r0, fp
 3052 0024 FFF7FEFF 		bl	wc_ShaHash
 3053 0028 0646     		mov	r6, r0
 3054 002a 0028     		cmp	r0, #0
 3055 002c 40F0EB80 		bne	.L595
 3056 0030 7020     		movs	r0, #112
 3057 0032 FFF7FEFF 		bl	wolfSSL_Malloc
 3058 0036 0446     		mov	r4, r0
 3059 0038 0028     		cmp	r0, #0
 3060 003a 00F0E780 		beq	.L596
 3061 003e 3146     		mov	r1, r6
 3062 0040 7022     		movs	r2, #112
 3063 0042 FFF7FEFF 		bl	memset
 3064 0046 0123     		movs	r3, #1
 3065 0048 5846     		mov	r0, fp
 3066 004a 0093     		str	r3, [sp]
 3067 004c 08AA     		add	r2, sp, #32
 3068 004e 5346     		mov	r3, r10
 3069 0050 09A9     		add	r1, sp, #36
 3070 0052 FFF7FEFF 		bl	GetASN_Sequence
 3071 0056 0646     		mov	r6, r0
 3072 0058 0028     		cmp	r0, #0
 3073 005a 40F0CD80 		bne	.L583
 3074 005e 059B     		ldr	r3, [sp, #20]
 3075 0060 012B     		cmp	r3, #1
 3076 0062 06D1     		bne	.L584
 3077 0064 099B     		ldr	r3, [sp, #36]
 3078 0066 5B44     		add	r3, r3, fp
 3079 0068 C5F81C33 		str	r3, [r5, #796]
ARM GAS  /tmp/cciZhAVO.s 			page 54


 3080 006c 089B     		ldr	r3, [sp, #32]
 3081 006e C5F82033 		str	r3, [r5, #800]
 3082              	.L584:
 3083 0072 0027     		movs	r7, #0
 3084              	.L585:
 3085 0074 099B     		ldr	r3, [sp, #36]
 3086 0076 5345     		cmp	r3, r10
 3087 0078 05D3     		bcc	.L593
 3088 007a 0022     		movs	r2, #0
 3089 007c 08F80720 		strb	r2, [r8, r7]
 3090 0080 159A     		ldr	r2, [sp, #84]
 3091 0082 1360     		str	r3, [r2]
 3092 0084 B8E0     		b	.L583
 3093              	.L593:
 3094 0086 0B23     		movs	r3, #11
 3095 0088 84F86C30 		strb	r3, [r4, #108]
 3096 008c 614B     		ldr	r3, .L609
 3097 008e 0422     		movs	r2, #4
 3098 0090 E365     		str	r3, [r4, #92]
 3099 0092 1523     		movs	r3, #21
 3100 0094 A364     		str	r3, [r4, #72]
 3101 0096 09AB     		add	r3, sp, #36
 3102 0098 CDE900B3 		strd	fp, r3, [sp]
 3103 009c 2146     		mov	r1, r4
 3104 009e 0123     		movs	r3, #1
 3105 00a0 5D48     		ldr	r0, .L609+4
 3106 00a2 CDF808A0 		str	r10, [sp, #8]
 3107 00a6 FFF7FEFF 		bl	GetASN_Items
 3108 00aa 0028     		cmp	r0, #0
 3109 00ac 40F0A380 		bne	.L597
 3110 00b0 D4E91092 		ldrd	r9, r2, [r4, #64]
 3111 00b4 032A     		cmp	r2, #3
 3112 00b6 3BD1     		bne	.L586
 3113 00b8 99F80030 		ldrb	r3, [r9]	@ zero_extendqisi2
 3114 00bc 552B     		cmp	r3, #85
 3115 00be D9D1     		bne	.L585
 3116 00c0 99F80130 		ldrb	r3, [r9, #1]	@ zero_extendqisi2
 3117 00c4 042B     		cmp	r3, #4
 3118 00c6 D5D1     		bne	.L585
 3119 00c8 99F80200 		ldrb	r0, [r9, #2]	@ zero_extendqisi2
 3120 00cc C31E     		subs	r3, r0, #3
 3121 00ce 0F2B     		cmp	r3, #15
 3122 00d0 D0D8     		bhi	.L585
 3123 00d2 5249     		ldr	r1, .L609+8
 3124 00d4 01EBC302 		add	r2, r1, r3, lsl #3
 3125 00d8 1279     		ldrb	r2, [r2, #4]	@ zero_extendqisi2
 3126 00da 002A     		cmp	r2, #0
 3127 00dc CAD0     		beq	.L585
 3128 00de 51F83310 		ldr	r1, [r1, r3, lsl #3]
 3129 00e2 0029     		cmp	r1, #0
 3130 00e4 C6D0     		beq	.L585
 3131              	.L588:
 3132 00e6 D4E917E9 		ldrd	lr, r9, [r4, #92]
 3133 00ea 059B     		ldr	r3, [sp, #20]
 3134 00ec 012B     		cmp	r3, #1
 3135 00ee 07D1     		bne	.L591
 3136 00f0 0328     		cmp	r0, #3
ARM GAS  /tmp/cciZhAVO.s 			page 55


 3137 00f2 7AD1     		bne	.L592
 3138 00f4 94F86D00 		ldrb	r0, [r4, #109]	@ zero_extendqisi2
 3139 00f8 C5E919E9 		strd	lr, r9, [r5, #100]
 3140 00fc 85F86C00 		strb	r0, [r5, #108]
 3141              	.L591:
 3142 0100 09EB0200 		add	r0, r9, r2
 3143 0104 C7F5807C 		rsb	ip, r7, #256
 3144 0108 6045     		cmp	r0, ip
 3145 010a B3D2     		bcs	.L585
 3146 010c 08EB0700 		add	r0, r8, r7
 3147 0110 CDE9062E 		strd	r2, lr, [sp, #24]
 3148 0114 FFF7FEFF 		bl	memcpy
 3149 0118 069A     		ldr	r2, [sp, #24]
 3150 011a DDF81CE0 		ldr	lr, [sp, #28]
 3151 011e 1744     		add	r7, r7, r2
 3152 0120 08EB0700 		add	r0, r8, r7
 3153 0124 4A46     		mov	r2, r9
 3154 0126 7146     		mov	r1, lr
 3155 0128 FFF7FEFF 		bl	memcpy
 3156 012c 4F44     		add	r7, r7, r9
 3157 012e A1E7     		b	.L585
 3158              	.L586:
 3159 0130 092A     		cmp	r2, #9
 3160 0132 0AD1     		bne	.L589
 3161 0134 4846     		mov	r0, r9
 3162 0136 3A49     		ldr	r1, .L609+12
 3163 0138 FFF7FEFF 		bl	memcmp
 3164 013c 0028     		cmp	r0, #0
 3165 013e 99D1     		bne	.L585
 3166 0140 0E22     		movs	r2, #14
 3167 0142 4FF48070 		mov	r0, #256
 3168 0146 3749     		ldr	r1, .L609+16
 3169 0148 CDE7     		b	.L588
 3170              	.L589:
 3171 014a 0A2A     		cmp	r2, #10
 3172 014c 22D1     		bne	.L590
 3173 014e 4846     		mov	r0, r9
 3174 0150 3549     		ldr	r1, .L609+20
 3175 0152 0692     		str	r2, [sp, #24]
 3176 0154 FFF7FEFF 		bl	memcmp
 3177 0158 98B3     		cbz	r0, .L599
 3178 015a 4846     		mov	r0, r9
 3179 015c 069A     		ldr	r2, [sp, #24]
 3180 015e 3349     		ldr	r1, .L609+24
 3181 0160 FFF7FEFF 		bl	memcmp
 3182 0164 88B3     		cbz	r0, .L600
 3183 0166 4846     		mov	r0, r9
 3184 0168 069A     		ldr	r2, [sp, #24]
 3185 016a 3149     		ldr	r1, .L609+28
 3186 016c FFF7FEFF 		bl	memcmp
 3187 0170 80B3     		cbz	r0, .L601
 3188 0172 4846     		mov	r0, r9
 3189 0174 069A     		ldr	r2, [sp, #24]
 3190 0176 2F49     		ldr	r1, .L609+32
 3191 0178 FFF7FEFF 		bl	memcmp
 3192 017c 70B3     		cbz	r0, .L602
 3193 017e 0922     		movs	r2, #9
ARM GAS  /tmp/cciZhAVO.s 			page 56


 3194 0180 4846     		mov	r0, r9
 3195 0182 2A49     		ldr	r1, .L609+24
 3196 0184 FFF7FEFF 		bl	memcmp
 3197 0188 0028     		cmp	r0, #0
 3198 018a 7FF473AF 		bne	.L585
 3199 018e 6FF08B06 		mvn	r6, #139
 3200 0192 31E0     		b	.L583
 3201              	.L590:
 3202 0194 0B2A     		cmp	r2, #11
 3203 0196 7FF46DAF 		bne	.L585
 3204 019a 0A22     		movs	r2, #10
 3205 019c 4846     		mov	r0, r9
 3206 019e 2649     		ldr	r1, .L609+36
 3207 01a0 FFF7FEFF 		bl	memcmp
 3208 01a4 0028     		cmp	r0, #0
 3209 01a6 7FF465AF 		bne	.L585
 3210 01aa 99F80A30 		ldrb	r3, [r9, #10]	@ zero_extendqisi2
 3211 01ae 032B     		cmp	r3, #3
 3212 01b0 03F50070 		add	r0, r3, #512
 3213 01b4 16D0     		beq	.L604
 3214 01b6 022B     		cmp	r3, #2
 3215 01b8 7FF45CAF 		bne	.L585
 3216 01bc 1022     		movs	r2, #16
 3217 01be 1F49     		ldr	r1, .L609+40
 3218 01c0 91E7     		b	.L588
 3219              	.L599:
 3220 01c2 0522     		movs	r2, #5
 3221 01c4 1220     		movs	r0, #18
 3222 01c6 1E49     		ldr	r1, .L609+44
 3223 01c8 8DE7     		b	.L588
 3224              	.L600:
 3225 01ca 0422     		movs	r2, #4
 3226 01cc 4FF48170 		mov	r0, #258
 3227 01d0 1C49     		ldr	r1, .L609+48
 3228 01d2 88E7     		b	.L588
 3229              	.L601:
 3230 01d4 0F22     		movs	r2, #15
 3231 01d6 1420     		movs	r0, #20
 3232 01d8 1B49     		ldr	r1, .L609+52
 3233 01da 84E7     		b	.L588
 3234              	.L602:
 3235 01dc 1022     		movs	r2, #16
 3236 01de 1320     		movs	r0, #19
 3237 01e0 1A49     		ldr	r1, .L609+56
 3238 01e2 80E7     		b	.L588
 3239              	.L604:
 3240 01e4 0F22     		movs	r2, #15
 3241 01e6 1A49     		ldr	r1, .L609+60
 3242 01e8 7DE7     		b	.L588
 3243              	.L592:
 3244 01ea B0F5807F 		cmp	r0, #256
 3245 01ee 08BF     		it	eq
 3246 01f0 C5E9C9E9 		strdeq	lr, r9, [r5, #804]
 3247 01f4 84E7     		b	.L591
 3248              	.L597:
 3249 01f6 0646     		mov	r6, r0
 3250              	.L583:
ARM GAS  /tmp/cciZhAVO.s 			page 57


 3251 01f8 2046     		mov	r0, r4
 3252 01fa FFF7FEFF 		bl	wolfSSL_Free
 3253              	.L581:
 3254 01fe 3046     		mov	r0, r6
 3255 0200 0BB0     		add	sp, sp, #44
 3256              		@ sp needed
 3257 0202 BDE8F08F 		pop	{r4, r5, r6, r7, r8, r9, r10, fp, pc}
 3258              	.L595:
 3259 0206 6FF08B06 		mvn	r6, #139
 3260 020a F8E7     		b	.L581
 3261              	.L596:
 3262 020c 6FF07C06 		mvn	r6, #124
 3263 0210 F5E7     		b	.L581
 3264              	.L610:
 3265 0212 00BF     		.align	2
 3266              	.L609:
 3267 0214 00000000 		.word	.LANCHOR57
 3268 0218 00000000 		.word	.LANCHOR58
 3269 021c 00000000 		.word	.LANCHOR59
 3270 0220 00000000 		.word	.LANCHOR60
 3271 0224 00000000 		.word	.LC0
 3272 0228 00000000 		.word	.LANCHOR61
 3273 022c 00000000 		.word	.LANCHOR62
 3274 0230 00000000 		.word	.LANCHOR63
 3275 0234 00000000 		.word	.LANCHOR64
 3276 0238 5C000000 		.word	.LC7
 3277 023c 4B000000 		.word	.LC6
 3278 0240 0F000000 		.word	.LC1
 3279 0244 15000000 		.word	.LC2
 3280 0248 1A000000 		.word	.LC3
 3281 024c 2A000000 		.word	.LC4
 3282 0250 3B000000 		.word	.LC5
 3284              		.section	.text.DecodeSubtree.constprop.0.isra.0,"ax",%progbits
 3285              		.align	1
 3286              		.syntax unified
 3287              		.thumb
 3288              		.thumb_func
 3289              		.fpu fpv4-sp-d16
 3291              	DecodeSubtree.constprop.0.isra.0:
 3292              		@ args = 0, pretend = 0, frame = 24
 3293              		@ frame_needed = 0, uses_anonymous_args = 0
 3294 0000 2DE9F04F 		push	{r4, r5, r6, r7, r8, r9, r10, fp, lr}
 3295 0004 0026     		movs	r6, #0
 3296 0006 8BB0     		sub	sp, sp, #44
 3297 0008 CDE90410 		strd	r1, r0, [sp, #16]
 3298 000c 7020     		movs	r0, #112
 3299 000e 9046     		mov	r8, r2
 3300 0010 0796     		str	r6, [sp, #28]
 3301 0012 FFF7FEFF 		bl	wolfSSL_Malloc
 3302 0016 0446     		mov	r4, r0
 3303 0018 0028     		cmp	r0, #0
 3304 001a 5CD0     		beq	.L626
 3305 001c 4FF08109 		mov	r9, #129
 3306              	.L613:
 3307 0020 079B     		ldr	r3, [sp, #28]
 3308 0022 049A     		ldr	r2, [sp, #16]
 3309 0024 9A42     		cmp	r2, r3
ARM GAS  /tmp/cciZhAVO.s 			page 58


 3310 0026 01D8     		bhi	.L623
 3311 0028 0025     		movs	r5, #0
 3312 002a 08E0     		b	.L615
 3313              	.L623:
 3314 002c B9F10109 		subs	r9, r9, #1
 3315 0030 8DF81A60 		strb	r6, [sp, #26]
 3316 0034 8DF81B60 		strb	r6, [sp, #27]
 3317 0038 05D1     		bne	.L614
 3318 003a 6FF0C505 		mvn	r5, #197
 3319              	.L615:
 3320 003e 2046     		mov	r0, r4
 3321 0040 FFF7FEFF 		bl	wolfSSL_Free
 3322 0044 49E0     		b	.L611
 3323              	.L614:
 3324 0046 7022     		movs	r2, #112
 3325 0048 0021     		movs	r1, #0
 3326 004a 2046     		mov	r0, r4
 3327 004c FFF7FEFF 		bl	memset
 3328 0050 0B23     		movs	r3, #11
 3329 0052 84F83430 		strb	r3, [r4, #52]
 3330 0056 324B     		ldr	r3, .L635
 3331 0058 0DF11A02 		add	r2, sp, #26
 3332 005c 6362     		str	r3, [r4, #36]
 3333 005e 0123     		movs	r3, #1
 3334 0060 84F85030 		strb	r3, [r4, #80]
 3335 0064 84F86C30 		strb	r3, [r4, #108]
 3336 0068 0DF11B03 		add	r3, sp, #27
 3337 006c E365     		str	r3, [r4, #92]
 3338 006e 049B     		ldr	r3, [sp, #16]
 3339 0070 2264     		str	r2, [r4, #64]
 3340 0072 0293     		str	r3, [sp, #8]
 3341 0074 07AB     		add	r3, sp, #28
 3342 0076 0193     		str	r3, [sp, #4]
 3343 0078 059B     		ldr	r3, [sp, #20]
 3344 007a 0422     		movs	r2, #4
 3345 007c 0093     		str	r3, [sp]
 3346 007e 2146     		mov	r1, r4
 3347 0080 0023     		movs	r3, #0
 3348 0082 2848     		ldr	r0, .L635+4
 3349 0084 FFF7FEFF 		bl	GetASN_Items
 3350 0088 0546     		mov	r5, r0
 3351 008a 0028     		cmp	r0, #0
 3352 008c D7D1     		bne	.L615
 3353 008e 94F83550 		ldrb	r5, [r4, #53]	@ zero_extendqisi2
 3354 0092 05F17F03 		add	r3, r5, #127
 3355 0096 DBB2     		uxtb	r3, r3
 3356 0098 012B     		cmp	r3, #1
 3357 009a 01D9     		bls	.L617
 3358 009c A42D     		cmp	r5, #164
 3359 009e BFD1     		bne	.L613
 3360              	.L617:
 3361 00a0 D4E908BA 		ldrd	fp, r10, [r4, #32]
 3362 00a4 AB06     		lsls	r3, r5, #26
 3363 00a6 0896     		str	r6, [sp, #32]
 3364 00a8 0AD5     		bpl	.L619
 3365 00aa 5B46     		mov	r3, fp
 3366 00ac 5046     		mov	r0, r10
ARM GAS  /tmp/cciZhAVO.s 			page 59


 3367 00ae 0096     		str	r6, [sp]
 3368 00b0 09AA     		add	r2, sp, #36
 3369 00b2 08A9     		add	r1, sp, #32
 3370 00b4 FFF7FEFF 		bl	GetASN_Sequence
 3371 00b8 0028     		cmp	r0, #0
 3372 00ba 09DB     		blt	.L620
 3373 00bc DDF824B0 		ldr	fp, [sp, #36]
 3374              	.L619:
 3375 00c0 1020     		movs	r0, #16
 3376 00c2 FFF7FEFF 		bl	wolfSSL_Malloc
 3377 00c6 0746     		mov	r7, r0
 3378 00c8 F0B9     		cbnz	r0, .L633
 3379              	.L621:
 3380 00ca 6FF07C05 		mvn	r5, #124
 3381 00ce B6E7     		b	.L615
 3382              	.L620:
 3383 00d0 6FF08B05 		mvn	r5, #139
 3384 00d4 B3E7     		b	.L615
 3385              	.L626:
 3386 00d6 6FF07C05 		mvn	r5, #124
 3387              	.L611:
 3388 00da 2846     		mov	r0, r5
 3389 00dc 0BB0     		add	sp, sp, #44
 3390              		@ sp needed
 3391 00de BDE8F08F 		pop	{r4, r5, r6, r7, r8, r9, r10, fp, pc}
 3392              	.L634:
 3393 00e2 0899     		ldr	r1, [sp, #32]
 3394 00e4 5A46     		mov	r2, fp
 3395 00e6 5144     		add	r1, r1, r10
 3396 00e8 FFF7FEFF 		bl	memcpy
 3397 00ec 7968     		ldr	r1, [r7, #4]
 3398 00ee 05F01F05 		and	r5, r5, #31
 3399 00f2 01F80B60 		strb	r6, [r1, fp]
 3400 00f6 3D73     		strb	r5, [r7, #12]
 3401 00f8 D8F80020 		ldr	r2, [r8]
 3402 00fc C7F808B0 		str	fp, [r7, #8]
 3403 0100 3A60     		str	r2, [r7]
 3404 0102 C8F80070 		str	r7, [r8]
 3405 0106 8BE7     		b	.L613
 3406              	.L633:
 3407 0108 0BF10100 		add	r0, fp, #1
 3408 010c FFF7FEFF 		bl	wolfSSL_Malloc
 3409 0110 7860     		str	r0, [r7, #4]
 3410 0112 0028     		cmp	r0, #0
 3411 0114 E5D1     		bne	.L634
 3412 0116 3846     		mov	r0, r7
 3413 0118 FFF7FEFF 		bl	wolfSSL_Free
 3414 011c D5E7     		b	.L621
 3415              	.L636:
 3416 011e 00BF     		.align	2
 3417              	.L635:
 3418 0120 00000000 		.word	.LANCHOR65
 3419 0124 00000000 		.word	.LANCHOR66
 3421              		.section	.text.GetObjectId,"ax",%progbits
 3422              		.align	1
 3423              		.global	GetObjectId
 3424              		.syntax unified
ARM GAS  /tmp/cciZhAVO.s 			page 60


 3425              		.thumb
 3426              		.thumb_func
 3427              		.fpu fpv4-sp-d16
 3429              	GetObjectId:
 3430              		@ args = 4, pretend = 0, frame = 32
 3431              		@ frame_needed = 0, uses_anonymous_args = 0
 3432 0000 F0B5     		push	{r4, r5, r6, r7, lr}
 3433 0002 0546     		mov	r5, r0
 3434 0004 0E46     		mov	r6, r1
 3435 0006 1F46     		mov	r7, r3
 3436 0008 8DB0     		sub	sp, sp, #52
 3437 000a 0021     		movs	r1, #0
 3438 000c 1446     		mov	r4, r2
 3439 000e 05A8     		add	r0, sp, #20
 3440 0010 1C22     		movs	r2, #28
 3441 0012 FFF7FEFF 		bl	memset
 3442 0016 129B     		ldr	r3, [sp, #72]
 3443 0018 0122     		movs	r2, #1
 3444 001a CDE90163 		strd	r6, r3, [sp, #4]
 3445 001e 0648     		ldr	r0, .L639
 3446 0020 0023     		movs	r3, #0
 3447 0022 0095     		str	r5, [sp]
 3448 0024 05A9     		add	r1, sp, #20
 3449 0026 0997     		str	r7, [sp, #36]
 3450 0028 FFF7FEFF 		bl	GetASN_Items
 3451 002c 08B9     		cbnz	r0, .L637
 3452 002e 0A9B     		ldr	r3, [sp, #40]
 3453 0030 2360     		str	r3, [r4]
 3454              	.L637:
 3455 0032 0DB0     		add	sp, sp, #52
 3456              		@ sp needed
 3457 0034 F0BD     		pop	{r4, r5, r6, r7, pc}
 3458              	.L640:
 3459 0036 00BF     		.align	2
 3460              	.L639:
 3461 0038 00000000 		.word	.LANCHOR67
 3463              		.section	.text.GetAlgoId,"ax",%progbits
 3464              		.align	1
 3465              		.global	GetAlgoId
 3466              		.syntax unified
 3467              		.thumb
 3468              		.thumb_func
 3469              		.fpu fpv4-sp-d16
 3471              	GetAlgoId:
 3472              		@ args = 4, pretend = 0, frame = 0
 3473              		@ frame_needed = 0, uses_anonymous_args = 0
 3474 0000 13B5     		push	{r0, r1, r4, lr}
 3475 0002 0024     		movs	r4, #0
 3476 0004 0194     		str	r4, [sp, #4]
 3477 0006 049C     		ldr	r4, [sp, #16]
 3478 0008 0094     		str	r4, [sp]
 3479 000a FFF7FEFF 		bl	GetAlgoIdImpl
 3480 000e 02B0     		add	sp, sp, #8
 3481              		@ sp needed
 3482 0010 10BD     		pop	{r4, pc}
 3484              		.section	.text.GetAlgoIdEx,"ax",%progbits
 3485              		.align	1
ARM GAS  /tmp/cciZhAVO.s 			page 61


 3486              		.global	GetAlgoIdEx
 3487              		.syntax unified
 3488              		.thumb
 3489              		.thumb_func
 3490              		.fpu fpv4-sp-d16
 3492              	GetAlgoIdEx:
 3493              		@ args = 8, pretend = 0, frame = 0
 3494              		@ frame_needed = 0, uses_anonymous_args = 0
 3495              		@ link register save eliminated.
 3496 0000 70B4     		push	{r4, r5, r6}
 3497 0002 DDE90354 		ldrd	r5, r4, [sp, #12]
 3498 0006 0CB1     		cbz	r4, .L643
 3499 0008 0126     		movs	r6, #1
 3500 000a 2670     		strb	r6, [r4]
 3501              	.L643:
 3502 000c CDE90354 		strd	r5, r4, [sp, #12]
 3503 0010 70BC     		pop	{r4, r5, r6}
 3504 0012 FFF7FEBF 		b	GetAlgoIdImpl
 3506              		.section	.text.ToTraditionalInline_ex2,"ax",%progbits
 3507              		.align	1
 3508              		.global	ToTraditionalInline_ex2
 3509              		.syntax unified
 3510              		.thumb
 3511              		.thumb_func
 3512              		.fpu fpv4-sp-d16
 3514              	ToTraditionalInline_ex2:
 3515              		@ args = 4, pretend = 0, frame = 8
 3516              		@ frame_needed = 0, uses_anonymous_args = 0
 3517 0000 2DE9F047 		push	{r4, r5, r6, r7, r8, r9, r10, lr}
 3518 0004 4FF0000A 		mov	r10, #0
 3519 0008 86B0     		sub	sp, sp, #24
 3520 000a 0F46     		mov	r7, r1
 3521 000c 1546     		mov	r5, r2
 3522 000e 9846     		mov	r8, r3
 3523 0010 0646     		mov	r6, r0
 3524 0012 DDF83890 		ldr	r9, [sp, #56]
 3525 0016 8DF813A0 		strb	r10, [sp, #19]
 3526 001a 0028     		cmp	r0, #0
 3527 001c 48D0     		beq	.L659
 3528 001e 0029     		cmp	r1, #0
 3529 0020 46D0     		beq	.L659
 3530 0022 0B68     		ldr	r3, [r1]
 3531 0024 E020     		movs	r0, #224
 3532 0026 0593     		str	r3, [sp, #20]
 3533 0028 FFF7FEFF 		bl	wolfSSL_Malloc
 3534 002c 0446     		mov	r4, r0
 3535 002e 0028     		cmp	r0, #0
 3536 0030 41D0     		beq	.L660
 3537 0032 E022     		movs	r2, #224
 3538 0034 5146     		mov	r1, r10
 3539 0036 FFF7FEFF 		bl	memset
 3540 003a 0DF11302 		add	r2, sp, #19
 3541 003e 6262     		str	r2, [r4, #36]
 3542 0040 0222     		movs	r2, #2
 3543 0042 6266     		str	r2, [r4, #100]
 3544 0044 0322     		movs	r2, #3
 3545 0046 0123     		movs	r3, #1
ARM GAS  /tmp/cciZhAVO.s 			page 62


 3546 0048 C4F88020 		str	r2, [r4, #128]
 3547 004c 05AA     		add	r2, sp, #20
 3548 004e 84F83430 		strb	r3, [r4, #52]
 3549 0052 2146     		mov	r1, r4
 3550 0054 CDE90062 		strd	r6, r2, [sp]
 3551 0058 0295     		str	r5, [sp, #8]
 3552 005a 0822     		movs	r2, #8
 3553 005c 1A48     		ldr	r0, .L665
 3554 005e FFF7FEFF 		bl	GetASN_Items
 3555 0062 0546     		mov	r5, r0
 3556 0064 E8B9     		cbnz	r0, .L650
 3557 0066 9DF81330 		ldrb	r3, [sp, #19]	@ zero_extendqisi2
 3558 006a 012B     		cmp	r3, #1
 3559 006c 29D8     		bhi	.L661
 3560 006e A36E     		ldr	r3, [r4, #104]
 3561 0070 164A     		ldr	r2, .L665+4
 3562 0072 9342     		cmp	r3, r2
 3563 0074 0DD1     		bne	.L657
 3564 0076 94F8A520 		ldrb	r2, [r4, #165]	@ zero_extendqisi2
 3565 007a FAB9     		cbnz	r2, .L652
 3566 007c B9F1000F 		cmp	r9, #0
 3567 0080 07D0     		beq	.L657
 3568 0082 01E0     		b	.L654
 3569              	.L662:
 3570 0084 6FF08B05 		mvn	r5, #139
 3571              	.L654:
 3572 0088 D4F88420 		ldr	r2, [r4, #132]
 3573 008c C9F80020 		str	r2, [r9]
 3574 0090 3DB9     		cbnz	r5, .L650
 3575              	.L657:
 3576 0092 C8F80030 		str	r3, [r8]
 3577 0096 D4F8B000 		ldr	r0, [r4, #176]
 3578 009a 801B     		subs	r0, r0, r6
 3579 009c 3860     		str	r0, [r7]
 3580 009e D4F8B450 		ldr	r5, [r4, #180]
 3581              	.L650:
 3582 00a2 2046     		mov	r0, r4
 3583 00a4 FFF7FEFF 		bl	wolfSSL_Free
 3584              	.L647:
 3585 00a8 2846     		mov	r0, r5
 3586 00aa 06B0     		add	sp, sp, #24
 3587              		@ sp needed
 3588 00ac BDE8F087 		pop	{r4, r5, r6, r7, r8, r9, r10, pc}
 3589              	.L659:
 3590 00b0 6FF0AC05 		mvn	r5, #172
 3591 00b4 F8E7     		b	.L647
 3592              	.L660:
 3593 00b6 6FF07C05 		mvn	r5, #124
 3594 00ba F5E7     		b	.L647
 3595              	.L652:
 3596 00bc B9F1000F 		cmp	r9, #0
 3597 00c0 E0D1     		bne	.L662
 3598              	.L661:
 3599 00c2 6FF08B05 		mvn	r5, #139
 3600 00c6 ECE7     		b	.L650
 3601              	.L666:
 3602              		.align	2
ARM GAS  /tmp/cciZhAVO.s 			page 63


 3603              	.L665:
 3604 00c8 00000000 		.word	.LANCHOR68
 3605 00cc 17844931 		.word	826901527
 3607              		.section	.text.ToTraditionalInline_ex,"ax",%progbits
 3608              		.align	1
 3609              		.global	ToTraditionalInline_ex
 3610              		.syntax unified
 3611              		.thumb
 3612              		.thumb_func
 3613              		.fpu fpv4-sp-d16
 3615              	ToTraditionalInline_ex:
 3616              		@ args = 0, pretend = 0, frame = 0
 3617              		@ frame_needed = 0, uses_anonymous_args = 0
 3618 0000 13B5     		push	{r0, r1, r4, lr}
 3619 0002 0024     		movs	r4, #0
 3620 0004 0094     		str	r4, [sp]
 3621 0006 FFF7FEFF 		bl	ToTraditionalInline_ex2
 3622 000a 02B0     		add	sp, sp, #8
 3623              		@ sp needed
 3624 000c 10BD     		pop	{r4, pc}
 3626              		.section	.text.ToTraditionalInline,"ax",%progbits
 3627              		.align	1
 3628              		.global	ToTraditionalInline
 3629              		.syntax unified
 3630              		.thumb
 3631              		.thumb_func
 3632              		.fpu fpv4-sp-d16
 3634              	ToTraditionalInline:
 3635              		@ args = 0, pretend = 0, frame = 8
 3636              		@ frame_needed = 0, uses_anonymous_args = 0
 3637 0000 07B5     		push	{r0, r1, r2, lr}
 3638 0002 01AB     		add	r3, sp, #4
 3639 0004 FFF7FEFF 		bl	ToTraditionalInline_ex
 3640 0008 03B0     		add	sp, sp, #12
 3641              		@ sp needed
 3642 000a 5DF804FB 		ldr	pc, [sp], #4
 3644              		.section	.text.ToTraditional_ex,"ax",%progbits
 3645              		.align	1
 3646              		.global	ToTraditional_ex
 3647              		.syntax unified
 3648              		.thumb
 3649              		.thumb_func
 3650              		.fpu fpv4-sp-d16
 3652              	ToTraditional_ex:
 3653              		@ args = 0, pretend = 0, frame = 8
 3654              		@ frame_needed = 0, uses_anonymous_args = 0
 3655 0000 1346     		mov	r3, r2
 3656 0002 0022     		movs	r2, #0
 3657 0004 73B5     		push	{r0, r1, r4, r5, r6, lr}
 3658 0006 0E46     		mov	r6, r1
 3659 0008 0546     		mov	r5, r0
 3660 000a 0192     		str	r2, [sp, #4]
 3661 000c 88B1     		cbz	r0, .L671
 3662 000e 0A46     		mov	r2, r1
 3663 0010 01A9     		add	r1, sp, #4
 3664 0012 FFF7FEFF 		bl	ToTraditionalInline_ex
 3665 0016 041E     		subs	r4, r0, #0
ARM GAS  /tmp/cciZhAVO.s 			page 64


 3666 0018 08DB     		blt	.L669
 3667 001a 0199     		ldr	r1, [sp, #4]
 3668 001c 6318     		adds	r3, r4, r1
 3669 001e B342     		cmp	r3, r6
 3670 0020 0AD8     		bhi	.L672
 3671 0022 2246     		mov	r2, r4
 3672 0024 2846     		mov	r0, r5
 3673 0026 2944     		add	r1, r1, r5
 3674 0028 FFF7FEFF 		bl	memmove
 3675              	.L669:
 3676 002c 2046     		mov	r0, r4
 3677 002e 02B0     		add	sp, sp, #8
 3678              		@ sp needed
 3679 0030 70BD     		pop	{r4, r5, r6, pc}
 3680              	.L671:
 3681 0032 6FF0AC04 		mvn	r4, #172
 3682 0036 F9E7     		b	.L669
 3683              	.L672:
 3684 0038 6FF08304 		mvn	r4, #131
 3685 003c F6E7     		b	.L669
 3687              		.section	.text.ToTraditional,"ax",%progbits
 3688              		.align	1
 3689              		.global	ToTraditional
 3690              		.syntax unified
 3691              		.thumb
 3692              		.thumb_func
 3693              		.fpu fpv4-sp-d16
 3695              	ToTraditional:
 3696              		@ args = 0, pretend = 0, frame = 8
 3697              		@ frame_needed = 0, uses_anonymous_args = 0
 3698 0000 07B5     		push	{r0, r1, r2, lr}
 3699 0002 01AA     		add	r2, sp, #4
 3700 0004 FFF7FEFF 		bl	ToTraditional_ex
 3701 0008 03B0     		add	sp, sp, #12
 3702              		@ sp needed
 3703 000a 5DF804FB 		ldr	pc, [sp], #4
 3705              		.section	.text.wc_GetPkcs8TraditionalOffset,"ax",%progbits
 3706              		.align	1
 3707              		.global	wc_GetPkcs8TraditionalOffset
 3708              		.syntax unified
 3709              		.thumb
 3710              		.thumb_func
 3711              		.fpu fpv4-sp-d16
 3713              	wc_GetPkcs8TraditionalOffset:
 3714              		@ args = 0, pretend = 0, frame = 8
 3715              		@ frame_needed = 0, uses_anonymous_args = 0
 3716 0000 13B5     		push	{r0, r1, r4, lr}
 3717 0002 40B1     		cbz	r0, .L678
 3718 0004 39B1     		cbz	r1, .L678
 3719 0006 0B68     		ldr	r3, [r1]
 3720 0008 9342     		cmp	r3, r2
 3721 000a 04D8     		bhi	.L678
 3722 000c 01AB     		add	r3, sp, #4
 3723 000e FFF7FEFF 		bl	ToTraditionalInline_ex
 3724              	.L674:
 3725 0012 02B0     		add	sp, sp, #8
 3726              		@ sp needed
ARM GAS  /tmp/cciZhAVO.s 			page 65


 3727 0014 10BD     		pop	{r4, pc}
 3728              	.L678:
 3729 0016 6FF0AC00 		mvn	r0, #172
 3730 001a FAE7     		b	.L674
 3732              		.section	.text.wc_CreatePKCS8Key,"ax",%progbits
 3733              		.align	1
 3734              		.global	wc_CreatePKCS8Key
 3735              		.syntax unified
 3736              		.thumb
 3737              		.thumb_func
 3738              		.fpu fpv4-sp-d16
 3740              	wc_CreatePKCS8Key:
 3741              		@ args = 12, pretend = 0, frame = 16
 3742              		@ frame_needed = 0, uses_anonymous_args = 0
 3743 0000 2DE9F04F 		push	{r4, r5, r6, r7, r8, r9, r10, fp, lr}
 3744 0004 9946     		mov	r9, r3
 3745 0006 0023     		movs	r3, #0
 3746 0008 85B0     		sub	sp, sp, #20
 3747 000a 8846     		mov	r8, r1
 3748 000c 1746     		mov	r7, r2
 3749 000e 0646     		mov	r6, r0
 3750 0010 CDE90133 		strd	r3, r3, [sp, #4]
 3751 0014 DDF838A0 		ldr	r10, [sp, #56]
 3752 0018 DDF840B0 		ldr	fp, [sp, #64]
 3753 001c 0393     		str	r3, [sp, #12]
 3754 001e 0028     		cmp	r0, #0
 3755 0020 58D1     		bne	.L680
 3756              	.L688:
 3757 0022 B8F1000F 		cmp	r8, #0
 3758 0026 14BF     		ite	ne
 3759 0028 0025     		movne	r5, #0
 3760 002a 6FF0AC05 		mvneq	r5, #172
 3761              	.L681:
 3762 002e 4A46     		mov	r2, r9
 3763 0030 3846     		mov	r0, r7
 3764 0032 03AB     		add	r3, sp, #12
 3765 0034 02A9     		add	r1, sp, #8
 3766 0036 FFF7FEFF 		bl	ToTraditionalInline_ex
 3767 003a 0028     		cmp	r0, #0
 3768 003c 4FDA     		bge	.L690
 3769 003e 002D     		cmp	r5, #0
 3770 0040 3ED1     		bne	.L679
 3771 0042 C420     		movs	r0, #196
 3772 0044 FFF7FEFF 		bl	wolfSSL_Malloc
 3773 0048 0446     		mov	r4, r0
 3774 004a 0028     		cmp	r0, #0
 3775 004c 4AD0     		beq	.L691
 3776 004e 2946     		mov	r1, r5
 3777 0050 0125     		movs	r5, #1
 3778 0052 8C22     		movs	r2, #140
 3779 0054 FFF7FEFF 		bl	memset
 3780 0058 0221     		movs	r1, #2
 3781 005a 5046     		mov	r0, r10
 3782 005c 84F82450 		strb	r5, [r4, #36]
 3783 0060 04F14802 		add	r2, r4, #72
 3784 0064 FFF7FEFF 		bl	OidFromId
 3785 0068 0F9B     		ldr	r3, [sp, #60]
ARM GAS  /tmp/cciZhAVO.s 			page 66


 3786 006a 6064     		str	r0, [r4, #68]
 3787 006c 63B3     		cbz	r3, .L684
 3788 006e BBF1000F 		cmp	fp, #0
 3789 0072 29D0     		beq	.L684
 3790 0074 C4E9163B 		strd	r3, fp, [r4, #88]
 3791              	.L685:
 3792 0078 1C4B     		ldr	r3, .L703
 3793 007a 0722     		movs	r2, #7
 3794 007c BAEB030A 		subs	r10, r10, r3
 3795 0080 18BF     		it	ne
 3796 0082 4FF0010A 		movne	r10, #1
 3797 0086 2146     		mov	r1, r4
 3798 0088 C4E92079 		strd	r7, r9, [r4, #128]
 3799 008c 1848     		ldr	r0, .L703+4
 3800 008e 84F875A0 		strb	r10, [r4, #117]
 3801 0092 01AB     		add	r3, sp, #4
 3802 0094 FFF7FEFF 		bl	SizeASN_Items
 3803 0098 0546     		mov	r5, r0
 3804 009a 10B1     		cbz	r0, .L686
 3805 009c 10F1CA0F 		cmn	r0, #202
 3806 00a0 0BD1     		bne	.L687
 3807              	.L686:
 3808 00a2 019B     		ldr	r3, [sp, #4]
 3809 00a4 C8F80030 		str	r3, [r8]
 3810 00a8 3DB9     		cbnz	r5, .L687
 3811 00aa 86B1     		cbz	r6, .L692
 3812 00ac 3346     		mov	r3, r6
 3813 00ae 0722     		movs	r2, #7
 3814 00b0 2146     		mov	r1, r4
 3815 00b2 0F48     		ldr	r0, .L703+4
 3816 00b4 FFF7FEFF 		bl	SetASN_Items
 3817 00b8 019D     		ldr	r5, [sp, #4]
 3818              	.L687:
 3819 00ba 2046     		mov	r0, r4
 3820 00bc FFF7FEFF 		bl	wolfSSL_Free
 3821              	.L679:
 3822 00c0 2846     		mov	r0, r5
 3823 00c2 05B0     		add	sp, sp, #20
 3824              		@ sp needed
 3825 00c4 BDE8F08F 		pop	{r4, r5, r6, r7, r8, r9, r10, fp, pc}
 3826              	.L684:
 3827 00c8 84F86150 		strb	r5, [r4, #97]
 3828 00cc D4E7     		b	.L685
 3829              	.L692:
 3830 00ce 6FF0C905 		mvn	r5, #201
 3831 00d2 F2E7     		b	.L687
 3832              	.L680:
 3833 00d4 002A     		cmp	r2, #0
 3834 00d6 A4D1     		bne	.L688
 3835 00d8 6FF0AC05 		mvn	r5, #172
 3836 00dc A7E7     		b	.L681
 3837              	.L690:
 3838 00de 6FF08B05 		mvn	r5, #139
 3839 00e2 EDE7     		b	.L679
 3840              	.L691:
 3841 00e4 6FF07C05 		mvn	r5, #124
 3842 00e8 EAE7     		b	.L679
ARM GAS  /tmp/cciZhAVO.s 			page 67


 3843              	.L704:
 3844 00ea 00BF     		.align	2
 3845              	.L703:
 3846 00ec 2374B678 		.word	2025223203
 3847 00f0 00000000 		.word	.LANCHOR68
 3849              		.section	.text.DecryptContent,"ax",%progbits
 3850              		.align	1
 3851              		.global	DecryptContent
 3852              		.syntax unified
 3853              		.thumb
 3854              		.thumb_func
 3855              		.fpu fpv4-sp-d16
 3857              	DecryptContent:
 3858              		@ args = 0, pretend = 0, frame = 88
 3859              		@ frame_needed = 0, uses_anonymous_args = 0
 3860 0000 2DE9F04F 		push	{r4, r5, r6, r7, r8, r9, r10, fp, lr}
 3861 0004 0025     		movs	r5, #0
 3862 0006 9FB0     		sub	sp, sp, #124
 3863 0008 8046     		mov	r8, r0
 3864 000a 4FF4A870 		mov	r0, #336
 3865 000e 0E46     		mov	r6, r1
 3866 0010 9246     		mov	r10, r2
 3867 0012 9B46     		mov	fp, r3
 3868 0014 CDE90A55 		strd	r5, r5, [sp, #40]
 3869 0018 0C95     		str	r5, [sp, #48]
 3870 001a FFF7FEFF 		bl	wolfSSL_Malloc
 3871 001e 0446     		mov	r4, r0
 3872 0020 0028     		cmp	r0, #0
 3873 0022 00F08D80 		beq	.L714
 3874 0026 4FF4A872 		mov	r2, #336
 3875 002a 2946     		mov	r1, r5
 3876 002c FFF7FEFF 		bl	memset
 3877 0030 0E23     		movs	r3, #14
 3878 0032 E362     		str	r3, [r4, #44]
 3879 0034 0AAB     		add	r3, sp, #40
 3880 0036 CDE90083 		strd	r8, r3, [sp]
 3881 003a 0522     		movs	r2, #5
 3882 003c 2B46     		mov	r3, r5
 3883 003e 2146     		mov	r1, r4
 3884 0040 4848     		ldr	r0, .L720
 3885 0042 0296     		str	r6, [sp, #8]
 3886 0044 FFF7FEFF 		bl	GetASN_Items
 3887 0048 0346     		mov	r3, r0
 3888 004a 0028     		cmp	r0, #0
 3889 004c 6CD1     		bne	.L707
 3890 004e A26A     		ldr	r2, [r4, #40]
 3891 0050 636A     		ldr	r3, [r4, #36]
 3892 0052 0A92     		str	r2, [sp, #40]
 3893 0054 1344     		add	r3, r3, r2
 3894 0056 13F8025C 		ldrb	r5, [r3, #-2]	@ zero_extendqisi2
 3895 005a 13F8013C 		ldrb	r3, [r3, #-1]	@ zero_extendqisi2
 3896 005e 012D     		cmp	r5, #1
 3897 0060 77D0     		beq	.L717
 3898 0062 052D     		cmp	r5, #5
 3899 0064 72D1     		bne	.L716
 3900 0066 0D2B     		cmp	r3, #13
 3901 0068 73D1     		bne	.L717
ARM GAS  /tmp/cciZhAVO.s 			page 68


 3902 006a 236C     		ldr	r3, [r4, #64]
 3903 006c 94F86D20 		ldrb	r2, [r4, #109]	@ zero_extendqisi2
 3904 0070 0893     		str	r3, [sp, #32]
 3905 0072 636C     		ldr	r3, [r4, #68]
 3906 0074 002A     		cmp	r2, #0
 3907 0076 5DD0     		beq	.L708
 3908 0078 D4E91796 		ldrd	r9, r6, [r4, #92]
 3909              	.L709:
 3910 007c 4022     		movs	r2, #64
 3911 007e 0021     		movs	r1, #0
 3912 0080 0D92     		str	r2, [sp, #52]
 3913 0082 2046     		mov	r0, r4
 3914 0084 4FF4A872 		mov	r2, #336
 3915 0088 0993     		str	r3, [sp, #36]
 3916 008a FFF7FEFF 		bl	memset
 3917 008e 0622     		movs	r2, #6
 3918 0090 84F83420 		strb	r2, [r4, #52]
 3919 0094 344A     		ldr	r2, .L720+4
 3920 0096 0427     		movs	r7, #4
 3921 0098 6262     		str	r2, [r4, #36]
 3922 009a 0922     		movs	r2, #9
 3923 009c A262     		str	r2, [r4, #40]
 3924 009e 0CAA     		add	r2, sp, #48
 3925 00a0 A267     		str	r2, [r4, #120]
 3926 00a2 0F22     		movs	r2, #15
 3927 00a4 C4F8D420 		str	r2, [r4, #212]
 3928 00a8 0522     		movs	r2, #5
 3929 00aa 0EAB     		add	r3, sp, #56
 3930 00ac C4F83C31 		str	r3, [r4, #316]
 3931 00b0 099B     		ldr	r3, [sp, #36]
 3932 00b2 84F84C21 		strb	r2, [r4, #332]
 3933 00b6 0DAA     		add	r2, sp, #52
 3934 00b8 C4F84021 		str	r2, [r4, #320]
 3935 00bc 84F88870 		strb	r7, [r4, #136]
 3936 00c0 C4F82871 		str	r7, [r4, #296]
 3937 00c4 0293     		str	r3, [sp, #8]
 3938 00c6 0BAB     		add	r3, sp, #44
 3939 00c8 0193     		str	r3, [sp, #4]
 3940 00ca 089B     		ldr	r3, [sp, #32]
 3941 00cc 0C22     		movs	r2, #12
 3942 00ce 0093     		str	r3, [sp]
 3943 00d0 2146     		mov	r1, r4
 3944 00d2 0023     		movs	r3, #0
 3945 00d4 2548     		ldr	r0, .L720+8
 3946 00d6 FFF7FEFF 		bl	GetASN_Items
 3947 00da 0346     		mov	r3, r0
 3948 00dc 20BB     		cbnz	r0, .L707
 3949 00de D4E91723 		ldrd	r2, r3, [r4, #92]
 3950 00e2 D4F82C11 		ldr	r1, [r4, #300]
 3951 00e6 DFF88CC0 		ldr	ip, .L720+16
 3952 00ea D4F8D800 		ldr	r0, [r4, #216]
 3953 00ee 6145     		cmp	r1, ip
 3954 00f0 35D0     		beq	.L719
 3955 00f2 1F4F     		ldr	r7, .L720+12
 3956 00f4 B942     		cmp	r1, r7
 3957 00f6 33D0     		beq	.L710
 3958              	.L713:
ARM GAS  /tmp/cciZhAVO.s 			page 69


 3959 00f8 0790     		str	r0, [sp, #28]
 3960 00fa 0020     		movs	r0, #0
 3961 00fc 0690     		str	r0, [sp, #24]
 3962 00fe 0EA8     		add	r0, sp, #56
 3963 0100 0590     		str	r0, [sp, #20]
 3964 0102 0620     		movs	r0, #6
 3965 0104 CDE90119 		strd	r1, r9, [sp, #4]
 3966 0108 0C99     		ldr	r1, [sp, #48]
 3967 010a CDE90360 		strd	r6, r0, [sp, #12]
 3968 010e 0091     		str	r1, [sp]
 3969 0110 5046     		mov	r0, r10
 3970 0112 5946     		mov	r1, fp
 3971 0114 FFF7FEFF 		bl	wc_CryptKey
 3972 0118 0346     		mov	r3, r0
 3973 011a 28B9     		cbnz	r0, .L707
 3974 011c 3246     		mov	r2, r6
 3975 011e 4946     		mov	r1, r9
 3976 0120 4046     		mov	r0, r8
 3977 0122 FFF7FEFF 		bl	memmove
 3978 0126 3346     		mov	r3, r6
 3979              	.L707:
 3980 0128 2046     		mov	r0, r4
 3981 012a 0893     		str	r3, [sp, #32]
 3982 012c FFF7FEFF 		bl	wolfSSL_Free
 3983 0130 089B     		ldr	r3, [sp, #32]
 3984 0132 07E0     		b	.L705
 3985              	.L708:
 3986 0134 94F88920 		ldrb	r2, [r4, #137]	@ zero_extendqisi2
 3987 0138 72B1     		cbz	r2, .L718
 3988 013a D4E91E96 		ldrd	r9, r6, [r4, #120]
 3989 013e 9DE7     		b	.L709
 3990              	.L714:
 3991 0140 6FF07C03 		mvn	r3, #124
 3992              	.L705:
 3993 0144 1846     		mov	r0, r3
 3994 0146 1FB0     		add	sp, sp, #124
 3995              		@ sp needed
 3996 0148 BDE8F08F 		pop	{r4, r5, r6, r7, r8, r9, r10, fp, pc}
 3997              	.L716:
 3998 014c 6FF09903 		mvn	r3, #153
 3999 0150 EAE7     		b	.L707
 4000              	.L717:
 4001 0152 6FF08403 		mvn	r3, #132
 4002 0156 E7E7     		b	.L707
 4003              	.L718:
 4004 0158 6FF08E03 		mvn	r3, #142
 4005 015c E4E7     		b	.L707
 4006              	.L719:
 4007 015e 3D46     		mov	r5, r7
 4008              	.L710:
 4009 0160 2946     		mov	r1, r5
 4010 0162 C9E7     		b	.L713
 4011              	.L721:
 4012              		.align	2
 4013              	.L720:
 4014 0164 00000000 		.word	.LANCHOR69
 4015 0168 00000000 		.word	.LANCHOR46
ARM GAS  /tmp/cciZhAVO.s 			page 70


 4016 016c 00000000 		.word	.LANCHOR70
 4017 0170 F87AB37F 		.word	2142468856
 4018 0174 D07AB37F 		.word	2142468816
 4020              		.section	.text.wc_DecryptPKCS8Key,"ax",%progbits
 4021              		.align	1
 4022              		.global	wc_DecryptPKCS8Key
 4023              		.syntax unified
 4024              		.thumb
 4025              		.thumb_func
 4026              		.fpu fpv4-sp-d16
 4028              	wc_DecryptPKCS8Key:
 4029              		@ args = 0, pretend = 0, frame = 8
 4030              		@ frame_needed = 0, uses_anonymous_args = 0
 4031 0000 2DE9F341 		push	{r0, r1, r4, r5, r6, r7, r8, lr}
 4032 0004 4FF00008 		mov	r8, #0
 4033 0008 0C46     		mov	r4, r1
 4034 000a 1646     		mov	r6, r2
 4035 000c 1F46     		mov	r7, r3
 4036 000e 0546     		mov	r5, r0
 4037 0010 CDF80480 		str	r8, [sp, #4]
 4038 0014 50B3     		cbz	r0, .L727
 4039 0016 4AB3     		cbz	r2, .L727
 4040 0018 0B46     		mov	r3, r1
 4041 001a 6A46     		mov	r2, sp
 4042 001c 01A9     		add	r1, sp, #4
 4043 001e FFF7FEFF 		bl	GetSequence
 4044 0022 4045     		cmp	r0, r8
 4045 0024 05DA     		bge	.L724
 4046              	.L725:
 4047 0026 6FF08B04 		mvn	r4, #139
 4048              	.L722:
 4049 002a 2046     		mov	r0, r4
 4050 002c 02B0     		add	sp, sp, #8
 4051              		@ sp needed
 4052 002e BDE8F081 		pop	{r4, r5, r6, r7, r8, pc}
 4053              	.L724:
 4054 0032 0198     		ldr	r0, [sp, #4]
 4055 0034 3B46     		mov	r3, r7
 4056 0036 211A     		subs	r1, r4, r0
 4057 0038 3246     		mov	r2, r6
 4058 003a 2844     		add	r0, r0, r5
 4059 003c FFF7FEFF 		bl	DecryptContent
 4060 0040 041E     		subs	r4, r0, #0
 4061 0042 F2DD     		ble	.L722
 4062 0044 0199     		ldr	r1, [sp, #4]
 4063 0046 2246     		mov	r2, r4
 4064 0048 2944     		add	r1, r1, r5
 4065 004a 2846     		mov	r0, r5
 4066 004c FFF7FEFF 		bl	memmove
 4067 0050 2346     		mov	r3, r4
 4068 0052 6A46     		mov	r2, sp
 4069 0054 2846     		mov	r0, r5
 4070 0056 01A9     		add	r1, sp, #4
 4071 0058 CDF80480 		str	r8, [sp, #4]
 4072 005c FFF7FEFF 		bl	GetSequence
 4073 0060 0028     		cmp	r0, #0
 4074 0062 E0DB     		blt	.L725
ARM GAS  /tmp/cciZhAVO.s 			page 71


 4075 0064 DDE90004 		ldrd	r0, r4, [sp]
 4076 0068 0444     		add	r4, r4, r0
 4077 006a DEE7     		b	.L722
 4078              	.L727:
 4079 006c 6FF0AC04 		mvn	r4, #172
 4080 0070 DBE7     		b	.L722
 4082              		.section	.text.ToTraditionalEnc,"ax",%progbits
 4083              		.align	1
 4084              		.global	ToTraditionalEnc
 4085              		.syntax unified
 4086              		.thumb
 4087              		.thumb_func
 4088              		.fpu fpv4-sp-d16
 4090              	ToTraditionalEnc:
 4091              		@ args = 4, pretend = 0, frame = 0
 4092              		@ frame_needed = 0, uses_anonymous_args = 0
 4093 0000 38B5     		push	{r3, r4, r5, lr}
 4094 0002 049D     		ldr	r5, [sp, #16]
 4095 0004 0446     		mov	r4, r0
 4096 0006 FFF7FEFF 		bl	wc_DecryptPKCS8Key
 4097 000a 011E     		subs	r1, r0, #0
 4098 000c 05DD     		ble	.L728
 4099 000e 2A46     		mov	r2, r5
 4100 0010 2046     		mov	r0, r4
 4101 0012 BDE83840 		pop	{r3, r4, r5, lr}
 4102 0016 FFF7FEBF 		b	ToTraditional_ex
 4103              	.L728:
 4104 001a 38BD     		pop	{r3, r4, r5, pc}
 4106              		.section	.text.wc_PkcsPad,"ax",%progbits
 4107              		.align	1
 4108              		.global	wc_PkcsPad
 4109              		.syntax unified
 4110              		.thumb
 4111              		.thumb_func
 4112              		.fpu fpv4-sp-d16
 4114              	wc_PkcsPad:
 4115              		@ args = 0, pretend = 0, frame = 0
 4116              		@ frame_needed = 0, uses_anonymous_args = 0
 4117              		@ link register save eliminated.
 4118 0000 531E     		subs	r3, r2, #1
 4119 0002 0B40     		ands	r3, r3, r1
 4120 0004 D21A     		subs	r2, r2, r3
 4121 0006 18B1     		cbz	r0, .L731
 4122 0008 4318     		adds	r3, r0, r1
 4123 000a D018     		adds	r0, r2, r3
 4124              	.L732:
 4125 000c 8342     		cmp	r3, r0
 4126 000e 01D1     		bne	.L733
 4127              	.L731:
 4128 0010 8818     		adds	r0, r1, r2
 4129 0012 7047     		bx	lr
 4130              	.L733:
 4131 0014 03F8012B 		strb	r2, [r3], #1
 4132 0018 F8E7     		b	.L732
 4134              		.section	.text.EncryptContent,"ax",%progbits
 4135              		.align	1
 4136              		.global	EncryptContent
ARM GAS  /tmp/cciZhAVO.s 			page 72


 4137              		.syntax unified
 4138              		.thumb
 4139              		.thumb_func
 4140              		.fpu fpv4-sp-d16
 4142              	EncryptContent:
 4143              		@ args = 44, pretend = 0, frame = 16
 4144              		@ frame_needed = 0, uses_anonymous_args = 0
 4145 0000 2DE9F04F 		push	{r4, r5, r6, r7, r8, r9, r10, fp, lr}
 4146 0004 8DB0     		sub	sp, sp, #52
 4147 0006 9046     		mov	r8, r2
 4148 0008 8346     		mov	fp, r0
 4149 000a 0E46     		mov	r6, r1
 4150 000c 1F46     		mov	r7, r3
 4151 000e 1A9A     		ldr	r2, [sp, #104]
 4152 0010 1C9D     		ldr	r5, [sp, #112]
 4153 0012 002B     		cmp	r3, #0
 4154 0014 72D0     		beq	.L752
 4155 0016 402D     		cmp	r5, #64
 4156 0018 73D8     		bhi	.L753
 4157 001a 189B     		ldr	r3, [sp, #96]
 4158 001c 052B     		cmp	r3, #5
 4159 001e 17D1     		bne	.L770
 4160 0020 199B     		ldr	r3, [sp, #100]
 4161 0022 0D2B     		cmp	r3, #13
 4162 0024 14D1     		bne	.L770
 4163 0026 0023     		movs	r3, #0
 4164 0028 1B99     		ldr	r1, [sp, #108]
 4165 002a 0A93     		str	r3, [sp, #40]
 4166 002c 0029     		cmp	r1, #0
 4167 002e 00F0D180 		beq	.L756
 4168 0032 002D     		cmp	r5, #0
 4169 0034 40F0D280 		bne	.L757
 4170 0038 4FF0010A 		mov	r10, #1
 4171 003c 1025     		movs	r5, #16
 4172 003e 1B93     		str	r3, [sp, #108]
 4173              	.L740:
 4174 0040 674B     		ldr	r3, .L771
 4175 0042 9A42     		cmp	r2, r3
 4176 0044 00F0B580 		beq	.L760
 4177 0048 2833     		adds	r3, r3, #40
 4178 004a 9A42     		cmp	r2, r3
 4179 004c 00F0BF80 		beq	.L761
 4180              	.L770:
 4181 0050 6FF09903 		mvn	r3, #153
 4182 0054 A9E0     		b	.L738
 4183              	.L768:
 4184 0056 84F8D930 		strb	r3, [r4, #217]
 4185 005a 84F8ED30 		strb	r3, [r4, #237]
 4186 005e 84F80131 		strb	r3, [r4, #257]
 4187 0062 7CE0     		b	.L742
 4188              	.L744:
 4189 0064 3868     		ldr	r0, [r7]
 4190 0066 9842     		cmp	r0, r3
 4191 0068 45DB     		blt	.L758
 4192 006a 4346     		mov	r3, r8
 4193 006c 5D48     		ldr	r0, .L771+4
 4194 006e FFF7FEFF 		bl	SetASN_Items
ARM GAS  /tmp/cciZhAVO.s 			page 73


 4195 0072 2A46     		mov	r2, r5
 4196 0074 D4F89470 		ldr	r7, [r4, #148]
 4197 0078 BAF1000F 		cmp	r10, #0
 4198 007c 36D0     		beq	.L745
 4199 007e 3946     		mov	r1, r7
 4200 0080 1F98     		ldr	r0, [sp, #124]
 4201 0082 FFF7FEFF 		bl	wc_RNG_GenerateBlock
 4202 0086 0346     		mov	r3, r0
 4203 0088 0028     		cmp	r0, #0
 4204 008a 40F08980 		bne	.L743
 4205              	.L746:
 4206 008e D4F83481 		ldr	r8, [r4, #308]
 4207 0092 1022     		movs	r2, #16
 4208 0094 4146     		mov	r1, r8
 4209 0096 1F98     		ldr	r0, [sp, #124]
 4210 0098 FFF7FEFF 		bl	wc_RNG_GenerateBlock
 4211 009c 0346     		mov	r3, r0
 4212 009e 0028     		cmp	r0, #0
 4213 00a0 7ED1     		bne	.L743
 4214 00a2 D4F848A1 		ldr	r10, [r4, #328]
 4215 00a6 3246     		mov	r2, r6
 4216 00a8 5946     		mov	r1, fp
 4217 00aa 5046     		mov	r0, r10
 4218 00ac FFF7FEFF 		bl	memcpy
 4219 00b0 1022     		movs	r2, #16
 4220 00b2 3146     		mov	r1, r6
 4221 00b4 5046     		mov	r0, r10
 4222 00b6 FFF7FEFF 		bl	wc_PkcsPad
 4223 00ba DDE91601 		ldrd	r0, r1, [sp, #88]
 4224 00be 1E9B     		ldr	r3, [sp, #120]
 4225 00c0 3A46     		mov	r2, r7
 4226 00c2 0793     		str	r3, [sp, #28]
 4227 00c4 0123     		movs	r3, #1
 4228 00c6 CDE90583 		strd	r8, r3, [sp, #20]
 4229 00ca 0623     		movs	r3, #6
 4230 00cc CDE90393 		strd	r9, r3, [sp, #12]
 4231 00d0 189B     		ldr	r3, [sp, #96]
 4232 00d2 CDF808A0 		str	r10, [sp, #8]
 4233 00d6 0193     		str	r3, [sp, #4]
 4234 00d8 1D9B     		ldr	r3, [sp, #116]
 4235 00da 0093     		str	r3, [sp]
 4236 00dc 2B46     		mov	r3, r5
 4237 00de FFF7FEFF 		bl	wc_CryptKey
 4238 00e2 0346     		mov	r3, r0
 4239 00e4 0028     		cmp	r0, #0
 4240 00e6 5BD1     		bne	.L743
 4241 00e8 0A9B     		ldr	r3, [sp, #40]
 4242 00ea 59E0     		b	.L743
 4243              	.L745:
 4244 00ec 3846     		mov	r0, r7
 4245 00ee 1B99     		ldr	r1, [sp, #108]
 4246 00f0 FFF7FEFF 		bl	memcpy
 4247 00f4 CBE7     		b	.L746
 4248              	.L758:
 4249 00f6 6FF0AC03 		mvn	r3, #172
 4250 00fa 51E0     		b	.L743
 4251              	.L752:
ARM GAS  /tmp/cciZhAVO.s 			page 74


 4252 00fc 6FF0AC03 		mvn	r3, #172
 4253 0100 53E0     		b	.L738
 4254              	.L753:
 4255 0102 6FF08B03 		mvn	r3, #139
 4256 0106 50E0     		b	.L738
 4257              	.L769:
 4258 0108 4FF4AA72 		mov	r2, #340
 4259 010c 0021     		movs	r1, #0
 4260 010e FFF7FEFF 		bl	memset
 4261 0112 0E21     		movs	r1, #14
 4262 0114 04F13402 		add	r2, r4, #52
 4263 0118 0D20     		movs	r0, #13
 4264 011a FFF7FEFF 		bl	OidFromId
 4265 011e 324B     		ldr	r3, .L771+8
 4266 0120 0022     		movs	r2, #0
 4267 0122 E366     		str	r3, [r4, #108]
 4268 0124 0923     		movs	r3, #9
 4269 0126 2367     		str	r3, [r4, #112]
 4270 0128 0223     		movs	r3, #2
 4271 012a 84F8B030 		strb	r3, [r4, #176]
 4272 012e 1D9B     		ldr	r3, [sp, #116]
 4273 0130 1E99     		ldr	r1, [sp, #120]
 4274 0132 A4F8A830 		strh	r3, [r4, #168]	@ movhi
 4275 0136 0123     		movs	r3, #1
 4276 0138 9142     		cmp	r1, r2
 4277 013a C4E92525 		strd	r2, r5, [r4, #148]
 4278 013e 2063     		str	r0, [r4, #48]
 4279 0140 84F8C530 		strb	r3, [r4, #197]
 4280 0144 87DD     		ble	.L768
 4281 0146 0B92     		str	r2, [sp, #44]
 4282 0148 0F21     		movs	r1, #15
 4283 014a 1E98     		ldr	r0, [sp, #120]
 4284 014c 0BAA     		add	r2, sp, #44
 4285 014e FFF7FEFF 		bl	OidFromId
 4286 0152 20B1     		cbz	r0, .L742
 4287 0154 0B9B     		ldr	r3, [sp, #44]
 4288 0156 C4F8E400 		str	r0, [r4, #228]
 4289 015a C4F8E830 		str	r3, [r4, #232]
 4290              	.L742:
 4291 015e 0923     		movs	r3, #9
 4292 0160 1022     		movs	r2, #16
 4293 0162 C4F82431 		str	r3, [r4, #292]
 4294 0166 0023     		movs	r3, #0
 4295 0168 C4F82091 		str	r9, [r4, #288]
 4296 016c 26F00F09 		bic	r9, r6, #15
 4297 0170 9144     		add	r9, r9, r2
 4298 0172 C4E94D32 		strd	r3, r2, [r4, #308]
 4299 0176 C4E95239 		strd	r3, r9, [r4, #328]
 4300 017a 04F11401 		add	r1, r4, #20
 4301 017e 0AAB     		add	r3, sp, #40
 4302 0180 1848     		ldr	r0, .L771+4
 4303 0182 0991     		str	r1, [sp, #36]
 4304 0184 FFF7FEFF 		bl	SizeASN_Items
 4305 0188 0346     		mov	r3, r0
 4306 018a 48B9     		cbnz	r0, .L743
 4307 018c DDE90913 		ldrd	r1, r3, [sp, #36]
 4308 0190 1022     		movs	r2, #16
ARM GAS  /tmp/cciZhAVO.s 			page 75


 4309 0192 B8F1000F 		cmp	r8, #0
 4310 0196 7FF465AF 		bne	.L744
 4311 019a 3B60     		str	r3, [r7]
 4312 019c 6FF0C903 		mvn	r3, #201
 4313              	.L743:
 4314 01a0 2046     		mov	r0, r4
 4315 01a2 0993     		str	r3, [sp, #36]
 4316 01a4 FFF7FEFF 		bl	wolfSSL_Free
 4317 01a8 099B     		ldr	r3, [sp, #36]
 4318              	.L738:
 4319 01aa 1846     		mov	r0, r3
 4320 01ac 0DB0     		add	sp, sp, #52
 4321              		@ sp needed
 4322 01ae BDE8F08F 		pop	{r4, r5, r6, r7, r8, r9, r10, fp, pc}
 4323              	.L760:
 4324 01b2 0423     		movs	r3, #4
 4325 01b4 DFF83490 		ldr	r9, .L771+12
 4326 01b8 1893     		str	r3, [sp, #96]
 4327              	.L751:
 4328 01ba 4FF4EE70 		mov	r0, #476
 4329 01be FFF7FEFF 		bl	wolfSSL_Malloc
 4330 01c2 0446     		mov	r4, r0
 4331 01c4 0028     		cmp	r0, #0
 4332 01c6 9FD1     		bne	.L769
 4333 01c8 6FF07C03 		mvn	r3, #124
 4334 01cc EDE7     		b	.L738
 4335              	.L761:
 4336 01ce DFF82090 		ldr	r9, .L771+16
 4337 01d2 F2E7     		b	.L751
 4338              	.L756:
 4339 01d4 4FF0010A 		mov	r10, #1
 4340 01d8 1025     		movs	r5, #16
 4341 01da 31E7     		b	.L740
 4342              	.L757:
 4343 01dc 9A46     		mov	r10, r3
 4344 01de 2FE7     		b	.L740
 4345              	.L772:
 4346              		.align	2
 4347              	.L771:
 4348 01e0 D07AB37F 		.word	2142468816
 4349 01e4 04000000 		.word	.LANCHOR71+4
 4350 01e8 00000000 		.word	.LANCHOR46
 4351 01ec 00000000 		.word	.LANCHOR22
 4352 01f0 00000000 		.word	.LANCHOR20
 4354              		.section	.text.FreeAltNames,"ax",%progbits
 4355              		.align	1
 4356              		.global	FreeAltNames
 4357              		.syntax unified
 4358              		.thumb
 4359              		.thumb_func
 4360              		.fpu fpv4-sp-d16
 4362              	FreeAltNames:
 4363              		@ args = 0, pretend = 0, frame = 0
 4364              		@ frame_needed = 0, uses_anonymous_args = 0
 4365 0000 38B5     		push	{r3, r4, r5, lr}
 4366 0002 0446     		mov	r4, r0
 4367              	.L774:
ARM GAS  /tmp/cciZhAVO.s 			page 76


 4368 0004 04B9     		cbnz	r4, .L776
 4369 0006 38BD     		pop	{r3, r4, r5, pc}
 4370              	.L776:
 4371 0008 E068     		ldr	r0, [r4, #12]
 4372 000a 2568     		ldr	r5, [r4]
 4373 000c 08B1     		cbz	r0, .L775
 4374 000e FFF7FEFF 		bl	wolfSSL_Free
 4375              	.L775:
 4376 0012 2046     		mov	r0, r4
 4377 0014 FFF7FEFF 		bl	wolfSSL_Free
 4378 0018 2C46     		mov	r4, r5
 4379 001a F3E7     		b	.L774
 4381              		.section	.text.AltNameNew,"ax",%progbits
 4382              		.align	1
 4383              		.global	AltNameNew
 4384              		.syntax unified
 4385              		.thumb
 4386              		.thumb_func
 4387              		.fpu fpv4-sp-d16
 4389              	AltNameNew:
 4390              		@ args = 0, pretend = 0, frame = 0
 4391              		@ frame_needed = 0, uses_anonymous_args = 0
 4392 0000 10B5     		push	{r4, lr}
 4393 0002 1020     		movs	r0, #16
 4394 0004 FFF7FEFF 		bl	wolfSSL_Malloc
 4395 0008 0446     		mov	r4, r0
 4396 000a 18B1     		cbz	r0, .L780
 4397 000c 1022     		movs	r2, #16
 4398 000e 0021     		movs	r1, #0
 4399 0010 FFF7FEFF 		bl	memset
 4400              	.L780:
 4401 0014 2046     		mov	r0, r4
 4402 0016 10BD     		pop	{r4, pc}
 4404              		.section	.text.SetDNSEntry,"ax",%progbits
 4405              		.align	1
 4406              		.syntax unified
 4407              		.thumb
 4408              		.thumb_func
 4409              		.fpu fpv4-sp-d16
 4411              	SetDNSEntry:
 4412              		@ args = 4, pretend = 0, frame = 0
 4413              		@ frame_needed = 0, uses_anonymous_args = 0
 4414 0000 2DE9F041 		push	{r4, r5, r6, r7, r8, lr}
 4415 0004 DDF81880 		ldr	r8, [sp, #24]
 4416 0008 0E46     		mov	r6, r1
 4417 000a 1546     		mov	r5, r2
 4418 000c 1F46     		mov	r7, r3
 4419 000e FFF7FEFF 		bl	AltNameNew
 4420 0012 0446     		mov	r4, r0
 4421 0014 38B1     		cbz	r0, .L788
 4422 0016 681C     		adds	r0, r5, #1
 4423 0018 FFF7FEFF 		bl	wolfSSL_Malloc
 4424 001c E060     		str	r0, [r4, #12]
 4425 001e 28B9     		cbnz	r0, .L787
 4426 0020 2046     		mov	r0, r4
 4427 0022 FFF7FEFF 		bl	wolfSSL_Free
 4428              	.L788:
ARM GAS  /tmp/cciZhAVO.s 			page 77


 4429 0026 6FF07C00 		mvn	r0, #124
 4430 002a 0DE0     		b	.L785
 4431              	.L787:
 4432 002c 2A46     		mov	r2, r5
 4433 002e 3146     		mov	r1, r6
 4434 0030 C4E90175 		strd	r7, r5, [r4, #4]
 4435 0034 FFF7FEFF 		bl	memcpy
 4436 0038 0020     		movs	r0, #0
 4437 003a E368     		ldr	r3, [r4, #12]
 4438 003c 5855     		strb	r0, [r3, r5]
 4439 003e D8F80030 		ldr	r3, [r8]
 4440 0042 2360     		str	r3, [r4]
 4441 0044 C8F80040 		str	r4, [r8]
 4442              	.L785:
 4443 0048 BDE8F081 		pop	{r4, r5, r6, r7, r8, pc}
 4445              		.section	.text.AltNameDup,"ax",%progbits
 4446              		.align	1
 4447              		.global	AltNameDup
 4448              		.syntax unified
 4449              		.thumb
 4450              		.thumb_func
 4451              		.fpu fpv4-sp-d16
 4453              	AltNameDup:
 4454              		@ args = 0, pretend = 0, frame = 0
 4455              		@ frame_needed = 0, uses_anonymous_args = 0
 4456 0000 2DE9F041 		push	{r4, r5, r6, r7, r8, lr}
 4457 0004 0546     		mov	r5, r0
 4458 0006 0846     		mov	r0, r1
 4459 0008 0F46     		mov	r7, r1
 4460 000a FFF7FEFF 		bl	AltNameNew
 4461 000e 0446     		mov	r4, r0
 4462 0010 20B3     		cbz	r0, .L789
 4463 0012 6B68     		ldr	r3, [r5, #4]
 4464 0014 4360     		str	r3, [r0, #4]
 4465 0016 AB68     		ldr	r3, [r5, #8]
 4466 0018 8360     		str	r3, [r0, #8]
 4467 001a D5E90258 		ldrd	r5, r8, [r5, #8]
 4468 001e B8F1000F 		cmp	r8, #0
 4469 0022 07D1     		bne	.L791
 4470 0024 C0F80C80 		str	r8, [r0, #12]
 4471              	.L792:
 4472 0028 2046     		mov	r0, r4
 4473 002a 3946     		mov	r1, r7
 4474 002c FFF7FEFF 		bl	FreeAltNames
 4475 0030 0024     		movs	r4, #0
 4476 0032 13E0     		b	.L789
 4477              	.L791:
 4478 0034 002D     		cmp	r5, #0
 4479 0036 03DC     		bgt	.L793
 4480 0038 4046     		mov	r0, r8
 4481 003a FFF7FEFF 		bl	strlen
 4482 003e 0546     		mov	r5, r0
 4483              	.L793:
 4484 0040 681C     		adds	r0, r5, #1
 4485 0042 FFF7FEFF 		bl	wolfSSL_Malloc
 4486 0046 0646     		mov	r6, r0
 4487 0048 28B1     		cbz	r0, .L794
ARM GAS  /tmp/cciZhAVO.s 			page 78


 4488 004a 2A46     		mov	r2, r5
 4489 004c 4146     		mov	r1, r8
 4490 004e FFF7FEFF 		bl	memcpy
 4491 0052 0023     		movs	r3, #0
 4492 0054 7355     		strb	r3, [r6, r5]
 4493              	.L794:
 4494 0056 E660     		str	r6, [r4, #12]
 4495 0058 002E     		cmp	r6, #0
 4496 005a E5D0     		beq	.L792
 4497              	.L789:
 4498 005c 2046     		mov	r0, r4
 4499 005e BDE8F081 		pop	{r4, r5, r6, r7, r8, pc}
 4501              		.section	.text.FreeNameSubtrees,"ax",%progbits
 4502              		.align	1
 4503              		.global	FreeNameSubtrees
 4504              		.syntax unified
 4505              		.thumb
 4506              		.thumb_func
 4507              		.fpu fpv4-sp-d16
 4509              	FreeNameSubtrees:
 4510              		@ args = 0, pretend = 0, frame = 0
 4511              		@ frame_needed = 0, uses_anonymous_args = 0
 4512 0000 38B5     		push	{r3, r4, r5, lr}
 4513 0002 0446     		mov	r4, r0
 4514              	.L802:
 4515 0004 04B9     		cbnz	r4, .L804
 4516 0006 38BD     		pop	{r3, r4, r5, pc}
 4517              	.L804:
 4518 0008 D4E90050 		ldrd	r5, r0, [r4]
 4519 000c 08B1     		cbz	r0, .L803
 4520 000e FFF7FEFF 		bl	wolfSSL_Free
 4521              	.L803:
 4522 0012 2046     		mov	r0, r4
 4523 0014 FFF7FEFF 		bl	wolfSSL_Free
 4524 0018 2C46     		mov	r4, r5
 4525 001a F3E7     		b	.L802
 4527              		.section	.text.HashIdAlg,"ax",%progbits
 4528              		.align	1
 4529              		.global	HashIdAlg
 4530              		.syntax unified
 4531              		.thumb
 4532              		.thumb_func
 4533              		.fpu fpv4-sp-d16
 4535              	HashIdAlg:
 4536              		@ args = 0, pretend = 0, frame = 0
 4537              		@ frame_needed = 0, uses_anonymous_args = 0
 4538              		@ link register save eliminated.
 4539 0000 0420     		movs	r0, #4
 4540 0002 7047     		bx	lr
 4542              		.section	.text.CalcHashId,"ax",%progbits
 4543              		.align	1
 4544              		.global	CalcHashId
 4545              		.syntax unified
 4546              		.thumb
 4547              		.thumb_func
 4548              		.fpu fpv4-sp-d16
 4550              	CalcHashId:
ARM GAS  /tmp/cciZhAVO.s 			page 79


 4551              		@ args = 0, pretend = 0, frame = 0
 4552              		@ frame_needed = 0, uses_anonymous_args = 0
 4553              		@ link register save eliminated.
 4554 0000 FFF7FEBF 		b	wc_ShaHash
 4556              		.section	.text.CalcHashId_ex,"ax",%progbits
 4557              		.align	1
 4558              		.global	CalcHashId_ex
 4559              		.syntax unified
 4560              		.thumb
 4561              		.thumb_func
 4562              		.fpu fpv4-sp-d16
 4564              	CalcHashId_ex:
 4565              		@ args = 0, pretend = 0, frame = 0
 4566              		@ frame_needed = 0, uses_anonymous_args = 0
 4567              		@ link register save eliminated.
 4568 0000 042B     		cmp	r3, #4
 4569 0002 01D1     		bne	.L811
 4570 0004 FFF7FEBF 		b	wc_ShaHash
 4571              	.L811:
 4572 0008 6FF0AD00 		mvn	r0, #173
 4573 000c 7047     		bx	lr
 4575              		.section	.text.GetHashId,"ax",%progbits
 4576              		.align	1
 4577              		.global	GetHashId
 4578              		.syntax unified
 4579              		.thumb
 4580              		.thumb_func
 4581              		.fpu fpv4-sp-d16
 4583              	GetHashId:
 4584              		@ args = 0, pretend = 0, frame = 0
 4585              		@ frame_needed = 0, uses_anonymous_args = 0
 4586              		@ link register save eliminated.
 4587 0000 1429     		cmp	r1, #20
 4588 0002 30B4     		push	{r4, r5}
 4589 0004 0AD1     		bne	.L813
 4590 0006 00F11403 		add	r3, r0, #20
 4591              	.L814:
 4592 000a 50F8041B 		ldr	r1, [r0], #4	@ unaligned
 4593 000e 9842     		cmp	r0, r3
 4594 0010 42F8041B 		str	r1, [r2], #4	@ unaligned
 4595 0014 F9D1     		bne	.L814
 4596 0016 30BC     		pop	{r4, r5}
 4597 0018 0020     		movs	r0, #0
 4598 001a 7047     		bx	lr
 4599              	.L813:
 4600 001c 30BC     		pop	{r4, r5}
 4601 001e FFF7FEBF 		b	CalcHashId_ex
 4603              		.section	.text.GetName,"ax",%progbits
 4604              		.align	1
 4605              		.global	GetName
 4606              		.syntax unified
 4607              		.thumb
 4608              		.thumb_func
 4609              		.fpu fpv4-sp-d16
 4611              	GetName:
 4612              		@ args = 0, pretend = 0, frame = 64
 4613              		@ frame_needed = 0, uses_anonymous_args = 0
ARM GAS  /tmp/cciZhAVO.s 			page 80


 4614 0000 70B5     		push	{r4, r5, r6, lr}
 4615 0002 D0F87832 		ldr	r3, [r0, #632]
 4616 0006 94B0     		sub	sp, sp, #80
 4617 0008 0446     		mov	r4, r0
 4618 000a 1646     		mov	r6, r2
 4619 000c 0D46     		mov	r5, r1
 4620 000e 3822     		movs	r2, #56
 4621 0010 0021     		movs	r1, #0
 4622 0012 06A8     		add	r0, sp, #24
 4623 0014 0593     		str	r3, [sp, #20]
 4624 0016 FFF7FEFF 		bl	memset
 4625 001a 1523     		movs	r3, #21
 4626 001c 0A93     		str	r3, [sp, #40]
 4627 001e 05AB     		add	r3, sp, #20
 4628 0020 0193     		str	r3, [sp, #4]
 4629 0022 D4F87432 		ldr	r3, [r4, #628]
 4630 0026 0222     		movs	r2, #2
 4631 0028 0093     		str	r3, [sp]
 4632 002a 1148     		ldr	r0, .L822
 4633 002c 0023     		movs	r3, #0
 4634 002e 0296     		str	r6, [sp, #8]
 4635 0030 06A9     		add	r1, sp, #24
 4636 0032 FFF7FEFF 		bl	GetASN_Items
 4637 0036 98B9     		cbnz	r0, .L818
 4638 0038 0D9B     		ldr	r3, [sp, #52]
 4639 003a C4F87832 		str	r3, [r4, #632]
 4640 003e 8DB9     		cbnz	r5, .L820
 4641 0040 04F16D01 		add	r1, r4, #109
 4642 0044 04F14C02 		add	r2, r4, #76
 4643              	.L821:
 4644 0048 059B     		ldr	r3, [sp, #20]
 4645 004a 2046     		mov	r0, r4
 4646 004c 0293     		str	r3, [sp, #8]
 4647 004e 04F51E73 		add	r3, r4, #632
 4648 0052 0193     		str	r3, [sp, #4]
 4649 0054 D4F87432 		ldr	r3, [r4, #628]
 4650 0058 0093     		str	r3, [sp]
 4651 005a 2B46     		mov	r3, r5
 4652 005c FFF7FEFF 		bl	GetCertName
 4653              	.L818:
 4654 0060 14B0     		add	sp, sp, #80
 4655              		@ sp needed
 4656 0062 70BD     		pop	{r4, r5, r6, pc}
 4657              	.L820:
 4658 0064 04F26D11 		addw	r1, r4, #365
 4659 0068 04F13802 		add	r2, r4, #56
 4660 006c ECE7     		b	.L821
 4661              	.L823:
 4662 006e 00BF     		.align	2
 4663              	.L822:
 4664 0070 00000000 		.word	.LANCHOR72
 4666              		.section	.text.wc_GetDateInfo,"ax",%progbits
 4667              		.align	1
 4668              		.global	wc_GetDateInfo
 4669              		.syntax unified
 4670              		.thumb
 4671              		.thumb_func
ARM GAS  /tmp/cciZhAVO.s 			page 81


 4672              		.fpu fpv4-sp-d16
 4674              	wc_GetDateInfo:
 4675              		@ args = 4, pretend = 0, frame = 64
 4676              		@ frame_needed = 0, uses_anonymous_args = 0
 4677 0000 2DE9F041 		push	{r4, r5, r6, r7, r8, lr}
 4678 0004 1D46     		mov	r5, r3
 4679 0006 0023     		movs	r3, #0
 4680 0008 94B0     		sub	sp, sp, #80
 4681 000a 8846     		mov	r8, r1
 4682 000c 1446     		mov	r4, r2
 4683 000e 0646     		mov	r6, r0
 4684 0010 1A9F     		ldr	r7, [sp, #104]
 4685 0012 0593     		str	r3, [sp, #20]
 4686 0014 80B3     		cbz	r0, .L828
 4687 0016 1946     		mov	r1, r3
 4688 0018 3822     		movs	r2, #56
 4689 001a 06A8     		add	r0, sp, #24
 4690 001c FFF7FEFF 		bl	memset
 4691 0020 05AA     		add	r2, sp, #20
 4692 0022 CDE90062 		strd	r6, r2, [sp]
 4693 0026 0023     		movs	r3, #0
 4694 0028 0222     		movs	r2, #2
 4695 002a 1548     		ldr	r0, .L838
 4696 002c CDF80880 		str	r8, [sp, #8]
 4697 0030 06A9     		add	r1, sp, #24
 4698 0032 FFF7FEFF 		bl	GetASN_Items
 4699 0036 E0B9     		cbnz	r0, .L824
 4700 0038 9DF83110 		ldrb	r1, [sp, #49]	@ zero_extendqisi2
 4701 003c B1FA81F1 		clz	r1, r1
 4702 0040 4909     		lsrs	r1, r1, #5
 4703 0042 35B1     		cbz	r5, .L826
 4704 0044 1C23     		movs	r3, #28
 4705 0046 14AA     		add	r2, sp, #80
 4706 0048 03FB0123 		mla	r3, r3, r1, r2
 4707 004c 13F81F3C 		ldrb	r3, [r3, #-31]	@ zero_extendqisi2
 4708 0050 2B70     		strb	r3, [r5]
 4709              	.L826:
 4710 0052 34B1     		cbz	r4, .L827
 4711 0054 1C23     		movs	r3, #28
 4712 0056 14AA     		add	r2, sp, #80
 4713 0058 03FB0123 		mla	r3, r3, r1, r2
 4714 005c 53F8303C 		ldr	r3, [r3, #-48]
 4715 0060 2360     		str	r3, [r4]
 4716              	.L827:
 4717 0062 37B1     		cbz	r7, .L824
 4718 0064 1C23     		movs	r3, #28
 4719 0066 14AA     		add	r2, sp, #80
 4720 0068 03FB0121 		mla	r1, r3, r1, r2
 4721 006c 51F82C3C 		ldr	r3, [r1, #-44]
 4722 0070 3B60     		str	r3, [r7]
 4723              	.L824:
 4724 0072 14B0     		add	sp, sp, #80
 4725              		@ sp needed
 4726 0074 BDE8F081 		pop	{r4, r5, r6, r7, r8, pc}
 4727              	.L828:
 4728 0078 6FF0AC00 		mvn	r0, #172
 4729 007c F9E7     		b	.L824
ARM GAS  /tmp/cciZhAVO.s 			page 82


 4730              	.L839:
 4731 007e 00BF     		.align	2
 4732              	.L838:
 4733 0080 00000000 		.word	.LANCHOR73
 4735              		.section	.text.SetLength,"ax",%progbits
 4736              		.align	1
 4737              		.global	SetLength
 4738              		.syntax unified
 4739              		.thumb
 4740              		.thumb_func
 4741              		.fpu fpv4-sp-d16
 4743              	SetLength:
 4744              		@ args = 0, pretend = 0, frame = 0
 4745              		@ frame_needed = 0, uses_anonymous_args = 0
 4746 0000 7F28     		cmp	r0, #127
 4747 0002 38B5     		push	{r3, r4, r5, lr}
 4748 0004 0446     		mov	r4, r0
 4749 0006 03D8     		bhi	.L841
 4750 0008 01B1     		cbz	r1, .L847
 4751 000a 0870     		strb	r0, [r1]
 4752              	.L847:
 4753 000c 0120     		movs	r0, #1
 4754 000e 0DE0     		b	.L840
 4755              	.L841:
 4756 0010 FFF7FEFF 		bl	BytePrecision
 4757 0014 C3B2     		uxtb	r3, r0
 4758 0016 11B1     		cbz	r1, .L843
 4759 0018 63F07F02 		orn	r2, r3, #127
 4760 001c 0A70     		strb	r2, [r1]
 4761              	.L843:
 4762 001e 5A1E     		subs	r2, r3, #1
 4763 0020 D200     		lsls	r2, r2, #3
 4764 0022 481C     		adds	r0, r1, #1
 4765              	.L844:
 4766 0024 12F1080F 		cmn	r2, #8
 4767 0028 01D1     		bne	.L846
 4768 002a 581C     		adds	r0, r3, #1
 4769              	.L840:
 4770 002c 38BD     		pop	{r3, r4, r5, pc}
 4771              	.L846:
 4772 002e 11B1     		cbz	r1, .L845
 4773 0030 24FA02F5 		lsr	r5, r4, r2
 4774 0034 0570     		strb	r5, [r0]
 4775              	.L845:
 4776 0036 083A     		subs	r2, r2, #8
 4777 0038 0130     		adds	r0, r0, #1
 4778 003a F3E7     		b	.L844
 4780              		.section	.text.SetBitString,"ax",%progbits
 4781              		.align	1
 4782              		.global	SetBitString
 4783              		.syntax unified
 4784              		.thumb
 4785              		.thumb_func
 4786              		.fpu fpv4-sp-d16
 4788              	SetBitString:
 4789              		@ args = 0, pretend = 0, frame = 0
 4790              		@ frame_needed = 0, uses_anonymous_args = 0
ARM GAS  /tmp/cciZhAVO.s 			page 83


 4791 0000 38B5     		push	{r3, r4, r5, lr}
 4792 0002 0D46     		mov	r5, r1
 4793 0004 1446     		mov	r4, r2
 4794 0006 0AB1     		cbz	r2, .L855
 4795 0008 0323     		movs	r3, #3
 4796 000a 1370     		strb	r3, [r2]
 4797              	.L855:
 4798 000c 0130     		adds	r0, r0, #1
 4799 000e 3CB1     		cbz	r4, .L858
 4800 0010 611C     		adds	r1, r4, #1
 4801              	.L856:
 4802 0012 FFF7FEFF 		bl	SetLength
 4803 0016 0CB1     		cbz	r4, .L857
 4804 0018 0444     		add	r4, r4, r0
 4805 001a 6570     		strb	r5, [r4, #1]
 4806              	.L857:
 4807 001c 0230     		adds	r0, r0, #2
 4808 001e 38BD     		pop	{r3, r4, r5, pc}
 4809              	.L858:
 4810 0020 2146     		mov	r1, r4
 4811 0022 F6E7     		b	.L856
 4813              		.section	.text.SetObjectId,"ax",%progbits
 4814              		.align	1
 4815              		.global	SetObjectId
 4816              		.syntax unified
 4817              		.thumb
 4818              		.thumb_func
 4819              		.fpu fpv4-sp-d16
 4821              	SetObjectId:
 4822              		@ args = 0, pretend = 0, frame = 0
 4823              		@ frame_needed = 0, uses_anonymous_args = 0
 4824 0000 08B5     		push	{r3, lr}
 4825 0002 11B1     		cbz	r1, .L867
 4826 0004 0623     		movs	r3, #6
 4827 0006 01F8013B 		strb	r3, [r1], #1
 4828              	.L867:
 4829 000a FFF7FEFF 		bl	SetLength
 4830 000e 0130     		adds	r0, r0, #1
 4831 0010 08BD     		pop	{r3, pc}
 4833              		.section	.text.SetCurve,"ax",%progbits
 4834              		.align	1
 4835              		.syntax unified
 4836              		.thumb
 4837              		.thumb_func
 4838              		.fpu fpv4-sp-d16
 4840              	SetCurve:
 4841              		@ args = 0, pretend = 0, frame = 0
 4842              		@ frame_needed = 0, uses_anonymous_args = 0
 4843 0000 2DE9F041 		push	{r4, r5, r6, r7, r8, lr}
 4844 0004 0F46     		mov	r7, r1
 4845 0006 9046     		mov	r8, r2
 4846 0008 0646     		mov	r6, r0
 4847 000a 98B1     		cbz	r0, .L877
 4848 000c 0369     		ldr	r3, [r0, #16]
 4849 000e 8BB1     		cbz	r3, .L877
 4850 0010 9C6A     		ldr	r4, [r3, #40]
 4851 0012 2046     		mov	r0, r4
ARM GAS  /tmp/cciZhAVO.s 			page 84


 4852 0014 FFF7FEFF 		bl	SetObjectId
 4853 0018 0546     		mov	r5, r0
 4854 001a 17B9     		cbnz	r7, .L875
 4855              	.L879:
 4856 001c 6019     		adds	r0, r4, r5
 4857              	.L873:
 4858 001e BDE8F081 		pop	{r4, r5, r6, r7, r8, pc}
 4859              	.L875:
 4860 0022 4445     		cmp	r4, r8
 4861 0024 09D8     		bhi	.L878
 4862 0026 3369     		ldr	r3, [r6, #16]
 4863 0028 2246     		mov	r2, r4
 4864 002a 596A     		ldr	r1, [r3, #36]
 4865 002c 3818     		adds	r0, r7, r0
 4866 002e FFF7FEFF 		bl	memcpy
 4867 0032 F3E7     		b	.L879
 4868              	.L877:
 4869 0034 6FF0AC00 		mvn	r0, #172
 4870 0038 F1E7     		b	.L873
 4871              	.L878:
 4872 003a 6FF08300 		mvn	r0, #131
 4873 003e EEE7     		b	.L873
 4875              		.section	.text.SetEccPublicKey,"ax",%progbits
 4876              		.align	1
 4877              		.syntax unified
 4878              		.thumb
 4879              		.thumb_func
 4880              		.fpu fpv4-sp-d16
 4882              	SetEccPublicKey:
 4883              		@ args = 4, pretend = 0, frame = 8
 4884              		@ frame_needed = 0, uses_anonymous_args = 0
 4885 0000 2DE9F347 		push	{r0, r1, r4, r5, r6, r7, r8, r9, r10, lr}
 4886 0004 0646     		mov	r6, r0
 4887 0006 0020     		movs	r0, #0
 4888 0008 9146     		mov	r9, r2
 4889 000a 1C46     		mov	r4, r3
 4890 000c 0F46     		mov	r7, r1
 4891 000e CDE90000 		strd	r0, r0, [sp]
 4892 0012 DDF828A0 		ldr	r10, [sp, #40]
 4893 0016 91B1     		cbz	r1, .L896
 4894 0018 0B69     		ldr	r3, [r1, #16]
 4895 001a 83B1     		cbz	r3, .L896
 4896 001c 0146     		mov	r1, r0
 4897 001e 5346     		mov	r3, r10
 4898 0020 6A46     		mov	r2, sp
 4899 0022 3846     		mov	r0, r7
 4900 0024 FFF7FEFF 		bl	wc_ecc_export_x963_ex
 4901 0028 10F1CA0F 		cmn	r0, #202
 4902 002c 2FD0     		beq	.L882
 4903 002e 70B3     		cbz	r0, .L882
 4904 0030 0446     		mov	r4, r0
 4905              	.L881:
 4906 0032 4FF00009 		mov	r9, #0
 4907 0036 009B     		ldr	r3, [sp]
 4908 0038 C846     		mov	r8, r9
 4909 003a 0193     		str	r3, [sp, #4]
 4910 003c 6AE0     		b	.L887
ARM GAS  /tmp/cciZhAVO.s 			page 85


 4911              	.L896:
 4912 003e 6FF0AC04 		mvn	r4, #172
 4913 0042 F6E7     		b	.L881
 4914              	.L889:
 4915 0044 4246     		mov	r2, r8
 4916 0046 4946     		mov	r1, r9
 4917 0048 3846     		mov	r0, r7
 4918 004a FFF7FEFF 		bl	SetCurve
 4919 004e 041E     		subs	r4, r0, #0
 4920 0050 64DB     		blt	.L880
 4921 0052 5346     		mov	r3, r10
 4922 0054 6A46     		mov	r2, sp
 4923 0056 3146     		mov	r1, r6
 4924 0058 3846     		mov	r0, r7
 4925 005a FFF7FEFF 		bl	wc_ecc_export_x963_ex
 4926 005e 0446     		mov	r4, r0
 4927 0060 0028     		cmp	r0, #0
 4928 0062 5AD0     		beq	.L890
 4929 0064 5AE0     		b	.L880
 4930              	.L911:
 4931 0066 002E     		cmp	r6, #0
 4932 0068 E3D0     		beq	.L881
 4933 006a 009B     		ldr	r3, [sp]
 4934 006c 9945     		cmp	r9, r3
 4935 006e E0D2     		bcs	.L881
 4936 0070 6FF08304 		mvn	r4, #131
 4937 0074 52E0     		b	.L880
 4938              	.L897:
 4939 0076 4446     		mov	r4, r8
 4940              	.L884:
 4941 0078 002D     		cmp	r5, #0
 4942 007a 4FD0     		beq	.L880
 4943              	.L901:
 4944 007c 4FF00009 		mov	r9, #0
 4945 0080 45E0     		b	.L886
 4946              	.L883:
 4947 0082 7822     		movs	r2, #120
 4948 0084 0021     		movs	r1, #0
 4949 0086 FFF7FEFF 		bl	memset
 4950 008a 0024     		movs	r4, #0
 4951 008c 09E0     		b	.L892
 4952              	.L882:
 4953 008e 002C     		cmp	r4, #0
 4954 0090 E9D0     		beq	.L911
 4955 0092 A820     		movs	r0, #168
 4956 0094 FFF7FEFF 		bl	wolfSSL_Malloc
 4957 0098 0546     		mov	r5, r0
 4958 009a 0028     		cmp	r0, #0
 4959 009c F1D1     		bne	.L883
 4960 009e 6FF07C04 		mvn	r4, #124
 4961              	.L892:
 4962 00a2 0022     		movs	r2, #0
 4963 00a4 3846     		mov	r0, r7
 4964 00a6 1146     		mov	r1, r2
 4965 00a8 FFF7FEFF 		bl	SetCurve
 4966 00ac B0F10008 		subs	r8, r0, #0
 4967 00b0 E1DB     		blt	.L897
ARM GAS  /tmp/cciZhAVO.s 			page 86


 4968 00b2 002C     		cmp	r4, #0
 4969 00b4 E0D1     		bne	.L884
 4970 00b6 0221     		movs	r1, #2
 4971 00b8 05F13402 		add	r2, r5, #52
 4972 00bc 1B48     		ldr	r0, .L912
 4973 00be FFF7FEFF 		bl	OidFromId
 4974 00c2 0723     		movs	r3, #7
 4975 00c4 85F84C30 		strb	r3, [r5, #76]
 4976 00c8 0123     		movs	r3, #1
 4977 00ca 85F86130 		strb	r3, [r5, #97]
 4978 00ce 009B     		ldr	r3, [sp]
 4979 00d0 C5E91148 		strd	r4, r8, [r5, #68]
 4980 00d4 2863     		str	r0, [r5, #48]
 4981 00d6 EC66     		str	r4, [r5, #108]
 4982 00d8 2B67     		str	r3, [r5, #112]
 4983 00da 0622     		movs	r2, #6
 4984 00dc 2946     		mov	r1, r5
 4985 00de 1448     		ldr	r0, .L912+4
 4986 00e0 01AB     		add	r3, sp, #4
 4987 00e2 FFF7FEFF 		bl	SizeASN_Items
 4988 00e6 0446     		mov	r4, r0
 4989 00e8 0028     		cmp	r0, #0
 4990 00ea C7D1     		bne	.L901
 4991 00ec 002E     		cmp	r6, #0
 4992 00ee C5D0     		beq	.L901
 4993 00f0 019B     		ldr	r3, [sp, #4]
 4994 00f2 4B45     		cmp	r3, r9
 4995 00f4 16DC     		bgt	.L899
 4996 00f6 3346     		mov	r3, r6
 4997 00f8 0622     		movs	r2, #6
 4998 00fa 2946     		mov	r1, r5
 4999 00fc 0C48     		ldr	r0, .L912+4
 5000 00fe FFF7FEFF 		bl	SetASN_Items
 5001 0102 DDE90023 		ldrd	r2, r3, [sp]
 5002 0106 D5F84490 		ldr	r9, [r5, #68]
 5003 010a 9B1A     		subs	r3, r3, r2
 5004 010c 1E44     		add	r6, r6, r3
 5005              	.L886:
 5006 010e 2846     		mov	r0, r5
 5007 0110 FFF7FEFF 		bl	wolfSSL_Free
 5008              	.L887:
 5009 0114 14B9     		cbnz	r4, .L880
 5010 0116 002E     		cmp	r6, #0
 5011 0118 94D1     		bne	.L889
 5012              	.L890:
 5013 011a 019C     		ldr	r4, [sp, #4]
 5014              	.L880:
 5015 011c 2046     		mov	r0, r4
 5016 011e 02B0     		add	sp, sp, #8
 5017              		@ sp needed
 5018 0120 BDE8F087 		pop	{r4, r5, r6, r7, r8, r9, r10, pc}
 5019              	.L899:
 5020 0124 6FF08304 		mvn	r4, #131
 5021 0128 A8E7     		b	.L901
 5022              	.L913:
 5023 012a 00BF     		.align	2
 5024              	.L912:
ARM GAS  /tmp/cciZhAVO.s 			page 87


 5025 012c 17844931 		.word	826901527
 5026 0130 00000000 		.word	.LANCHOR74
 5028              		.section	.text.wc_EccPublicKeyToDer,"ax",%progbits
 5029              		.align	1
 5030              		.global	wc_EccPublicKeyToDer
 5031              		.syntax unified
 5032              		.thumb
 5033              		.thumb_func
 5034              		.fpu fpv4-sp-d16
 5036              	wc_EccPublicKeyToDer:
 5037              		@ args = 0, pretend = 0, frame = 0
 5038              		@ frame_needed = 0, uses_anonymous_args = 0
 5039 0000 13B5     		push	{r0, r1, r4, lr}
 5040 0002 0446     		mov	r4, r0
 5041 0004 0846     		mov	r0, r1
 5042 0006 0021     		movs	r1, #0
 5043 0008 0091     		str	r1, [sp]
 5044 000a 2146     		mov	r1, r4
 5045 000c FFF7FEFF 		bl	SetEccPublicKey
 5046 0010 02B0     		add	sp, sp, #8
 5047              		@ sp needed
 5048 0012 10BD     		pop	{r4, pc}
 5050              		.section	.text.wc_EccPublicKeyToDer_ex,"ax",%progbits
 5051              		.align	1
 5052              		.global	wc_EccPublicKeyToDer_ex
 5053              		.syntax unified
 5054              		.thumb
 5055              		.thumb_func
 5056              		.fpu fpv4-sp-d16
 5058              	wc_EccPublicKeyToDer_ex:
 5059              		@ args = 4, pretend = 0, frame = 0
 5060              		@ frame_needed = 0, uses_anonymous_args = 0
 5061              		@ link register save eliminated.
 5062 0000 10B4     		push	{r4}
 5063 0002 0446     		mov	r4, r0
 5064 0004 0846     		mov	r0, r1
 5065 0006 2146     		mov	r1, r4
 5066 0008 5DF8044B 		ldr	r4, [sp], #4
 5067 000c FFF7FEBF 		b	SetEccPublicKey
 5069              		.section	.text.wc_EccPublicKeyDerSize,"ax",%progbits
 5070              		.align	1
 5071              		.global	wc_EccPublicKeyDerSize
 5072              		.syntax unified
 5073              		.thumb
 5074              		.thumb_func
 5075              		.fpu fpv4-sp-d16
 5077              	wc_EccPublicKeyDerSize:
 5078              		@ args = 0, pretend = 0, frame = 0
 5079              		@ frame_needed = 0, uses_anonymous_args = 0
 5080 0000 07B5     		push	{r0, r1, r2, lr}
 5081 0002 0022     		movs	r2, #0
 5082 0004 0B46     		mov	r3, r1
 5083 0006 0092     		str	r2, [sp]
 5084 0008 0146     		mov	r1, r0
 5085 000a 1046     		mov	r0, r2
 5086 000c FFF7FEFF 		bl	SetEccPublicKey
 5087 0010 03B0     		add	sp, sp, #12
ARM GAS  /tmp/cciZhAVO.s 			page 88


 5088              		@ sp needed
 5089 0012 5DF804FB 		ldr	pc, [sp], #4
 5091              		.section	.text.SetLengthEx,"ax",%progbits
 5092              		.align	1
 5093              		.global	SetLengthEx
 5094              		.syntax unified
 5095              		.thumb
 5096              		.thumb_func
 5097              		.fpu fpv4-sp-d16
 5099              	SetLengthEx:
 5100              		@ args = 0, pretend = 0, frame = 0
 5101              		@ frame_needed = 0, uses_anonymous_args = 0
 5102              		@ link register save eliminated.
 5103 0000 22B1     		cbz	r2, .L918
 5104 0002 09B1     		cbz	r1, .L917
 5105 0004 8022     		movs	r2, #128
 5106 0006 0A70     		strb	r2, [r1]
 5107              	.L917:
 5108 0008 0120     		movs	r0, #1
 5109 000a 7047     		bx	lr
 5110              	.L918:
 5111 000c FFF7FEBF 		b	SetLength
 5113              		.section	.text.SetHeader,"ax",%progbits
 5114              		.align	1
 5115              		.global	SetHeader
 5116              		.syntax unified
 5117              		.thumb
 5118              		.thumb_func
 5119              		.fpu fpv4-sp-d16
 5121              	SetHeader:
 5122              		@ args = 0, pretend = 0, frame = 0
 5123              		@ frame_needed = 0, uses_anonymous_args = 0
 5124 0000 10B5     		push	{r4, lr}
 5125 0002 0446     		mov	r4, r0
 5126 0004 0846     		mov	r0, r1
 5127 0006 1146     		mov	r1, r2
 5128 0008 1A46     		mov	r2, r3
 5129 000a 09B1     		cbz	r1, .L923
 5130 000c 01F8014B 		strb	r4, [r1], #1
 5131              	.L923:
 5132 0010 FFF7FEFF 		bl	SetLengthEx
 5133 0014 0130     		adds	r0, r0, #1
 5134 0016 10BD     		pop	{r4, pc}
 5136              		.section	.text.SetSequence,"ax",%progbits
 5137              		.align	1
 5138              		.global	SetSequence
 5139              		.syntax unified
 5140              		.thumb
 5141              		.thumb_func
 5142              		.fpu fpv4-sp-d16
 5144              	SetSequence:
 5145              		@ args = 0, pretend = 0, frame = 0
 5146              		@ frame_needed = 0, uses_anonymous_args = 0
 5147              		@ link register save eliminated.
 5148 0000 0A46     		mov	r2, r1
 5149 0002 0023     		movs	r3, #0
 5150 0004 0146     		mov	r1, r0
ARM GAS  /tmp/cciZhAVO.s 			page 89


 5151 0006 3020     		movs	r0, #48
 5152 0008 FFF7FEBF 		b	SetHeader
 5154              		.section	.text.SetSequenceEx,"ax",%progbits
 5155              		.align	1
 5156              		.global	SetSequenceEx
 5157              		.syntax unified
 5158              		.thumb
 5159              		.thumb_func
 5160              		.fpu fpv4-sp-d16
 5162              	SetSequenceEx:
 5163              		@ args = 0, pretend = 0, frame = 0
 5164              		@ frame_needed = 0, uses_anonymous_args = 0
 5165              		@ link register save eliminated.
 5166 0000 1346     		mov	r3, r2
 5167 0002 0A46     		mov	r2, r1
 5168 0004 0146     		mov	r1, r0
 5169 0006 3020     		movs	r0, #48
 5170 0008 FFF7FEBF 		b	SetHeader
 5172              		.section	.text.SetOctetString,"ax",%progbits
 5173              		.align	1
 5174              		.global	SetOctetString
 5175              		.syntax unified
 5176              		.thumb
 5177              		.thumb_func
 5178              		.fpu fpv4-sp-d16
 5180              	SetOctetString:
 5181              		@ args = 0, pretend = 0, frame = 0
 5182              		@ frame_needed = 0, uses_anonymous_args = 0
 5183              		@ link register save eliminated.
 5184 0000 0A46     		mov	r2, r1
 5185 0002 0023     		movs	r3, #0
 5186 0004 0146     		mov	r1, r0
 5187 0006 0420     		movs	r0, #4
 5188 0008 FFF7FEBF 		b	SetHeader
 5190              		.section	.rodata.wc_EncryptPKCS8Key_ex.str1.1,"aMS",%progbits,1
 5191              	.LC8:
 5192 0000 2A864886 		.ascii	"*\206H\206\367\015\001\005\015\000"
 5192      F70D0105 
 5192      0D00
 5193              	.LC9:
 5194 000a 2A864886 		.ascii	"*\206H\206\367\015\001\005\014\000"
 5194      F70D0105 
 5194      0C00
 5195              		.section	.text.wc_EncryptPKCS8Key_ex,"ax",%progbits
 5196              		.align	1
 5197              		.global	wc_EncryptPKCS8Key_ex
 5198              		.syntax unified
 5199              		.thumb
 5200              		.thumb_func
 5201              		.fpu fpv4-sp-d16
 5203              	wc_EncryptPKCS8Key_ex:
 5204              		@ args = 44, pretend = 0, frame = 120
 5205              		@ frame_needed = 0, uses_anonymous_args = 0
 5206 0000 2DE9F04F 		push	{r4, r5, r6, r7, r8, r9, r10, fp, lr}
 5207 0004 2DED028B 		vpush.64	{d8}
 5208 0008 A7B0     		sub	sp, sp, #156
 5209 000a 0B93     		str	r3, [sp, #44]
ARM GAS  /tmp/cciZhAVO.s 			page 90


 5210 000c 0023     		movs	r3, #0
 5211 000e 1446     		mov	r4, r2
 5212 0010 DDE93625 		ldrd	r2, r5, [sp, #216]
 5213 0014 0E46     		mov	r6, r1
 5214 0016 CDE91133 		strd	r3, r3, [sp, #68]
 5215 001a 389F     		ldr	r7, [sp, #224]
 5216 001c 1393     		str	r3, [sp, #76]
 5217 001e 0E90     		str	r0, [sp, #56]
 5218 0020 0028     		cmp	r0, #0
 5219 0022 00F06281 		beq	.L949
 5220 0026 0B99     		ldr	r1, [sp, #44]
 5221 0028 0029     		cmp	r1, #0
 5222 002a 00F05E81 		beq	.L949
 5223 002e 3299     		ldr	r1, [sp, #200]
 5224 0030 0029     		cmp	r1, #0
 5225 0032 00F05A81 		beq	.L949
 5226 0036 3499     		ldr	r1, [sp, #208]
 5227 0038 0129     		cmp	r1, #1
 5228 003a 14D0     		beq	.L970
 5229 003c 0529     		cmp	r1, #5
 5230 003e 40F05781 		bne	.L951
 5231 0042 3599     		ldr	r1, [sp, #212]
 5232 0044 0D29     		cmp	r1, #13
 5233 0046 0ED1     		bne	.L970
 5234 0048 15B1     		cbz	r5, .L953
 5235 004a 002F     		cmp	r7, #0
 5236 004c 40F07581 		bne	.L954
 5237              	.L953:
 5238 0050 0123     		movs	r3, #1
 5239 0052 0827     		movs	r7, #8
 5240 0054 0A93     		str	r3, [sp, #40]
 5241              	.L932:
 5242 0056 BA4B     		ldr	r3, .L971
 5243 0058 9A42     		cmp	r2, r3
 5244 005a 00F05681 		beq	.L959
 5245 005e 2833     		adds	r3, r3, #40
 5246 0060 9A42     		cmp	r2, r3
 5247 0062 00F06781 		beq	.L960
 5248              	.L970:
 5249 0066 6FF08403 		mvn	r3, #132
 5250 006a 33E0     		b	.L930
 5251              	.L944:
 5252 006c 07F10208 		add	r8, r7, #2
 5253 0070 9844     		add	r8, r8, r3
 5254              	.L933:
 5255 0072 3A9B     		ldr	r3, [sp, #232]
 5256 0074 002B     		cmp	r3, #0
 5257 0076 33DD     		ble	.L955
 5258 0078 1846     		mov	r0, r3
 5259 007a 0F21     		movs	r1, #15
 5260 007c 12AA     		add	r2, sp, #72
 5261 007e FFF7FEFF 		bl	OidFromId
 5262 0082 129B     		ldr	r3, [sp, #72]
 5263 0084 0C90     		str	r0, [sp, #48]
 5264 0086 0433     		adds	r3, r3, #4
 5265 0088 9844     		add	r8, r8, r3
 5266              	.L934:
ARM GAS  /tmp/cciZhAVO.s 			page 91


 5267 008a 08F10D03 		add	r3, r8, #13
 5268 008e 08EE103A 		vmov	s16, r3	@ int
 5269 0092 1022     		movs	r2, #16
 5270 0094 08F13B03 		add	r3, r8, #59
 5271 0098 3B98     		ldr	r0, [sp, #236]
 5272 009a 16A9     		add	r1, sp, #88
 5273 009c 0D93     		str	r3, [sp, #52]
 5274 009e FFF7FEFF 		bl	wc_RNG_GenerateBlock
 5275 00a2 0346     		mov	r3, r0
 5276 00a4 B0B9     		cbnz	r0, .L930
 5277 00a6 09EB060A 		add	r10, r9, r6
 5278 00aa 0146     		mov	r1, r0
 5279 00ac 5046     		mov	r0, r10
 5280 00ae FFF7FEFF 		bl	SetLength
 5281 00b2 0D9A     		ldr	r2, [sp, #52]
 5282 00b4 0AF10303 		add	r3, r10, #3
 5283 00b8 1344     		add	r3, r3, r2
 5284 00ba 03EB000B 		add	fp, r3, r0
 5285 00be 94B9     		cbnz	r4, .L935
 5286 00c0 5846     		mov	r0, fp
 5287 00c2 FFF7FEFF 		bl	SetLength
 5288 00c6 0BF1010B 		add	fp, fp, #1
 5289 00ca 0B9B     		ldr	r3, [sp, #44]
 5290 00cc 5844     		add	r0, r0, fp
 5291 00ce 1860     		str	r0, [r3]
 5292 00d0 6FF0C903 		mvn	r3, #201
 5293              	.L930:
 5294 00d4 1846     		mov	r0, r3
 5295 00d6 27B0     		add	sp, sp, #156
 5296              		@ sp needed
 5297 00d8 BDEC028B 		vldm	sp!, {d8}
 5298 00dc BDE8F08F 		pop	{r4, r5, r6, r7, r8, r9, r10, fp, pc}
 5299              	.L955:
 5300 00e0 0023     		movs	r3, #0
 5301 00e2 0C93     		str	r3, [sp, #48]
 5302 00e4 D1E7     		b	.L934
 5303              	.L935:
 5304 00e6 2146     		mov	r1, r4
 5305 00e8 5046     		mov	r0, r10
 5306 00ea FFF7FEFF 		bl	SetOctetString
 5307 00ee 1199     		ldr	r1, [sp, #68]
 5308 00f0 5846     		mov	r0, fp
 5309 00f2 2144     		add	r1, r1, r4
 5310 00f4 FFF7FEFF 		bl	SetSequence
 5311 00f8 119B     		ldr	r3, [sp, #68]
 5312 00fa ABEB0A0B 		sub	fp, fp, r10
 5313 00fe 0344     		add	r3, r3, r0
 5314 0100 1193     		str	r3, [sp, #68]
 5315 0102 5B44     		add	r3, r3, fp
 5316 0104 04EB030B 		add	fp, r4, r3
 5317 0108 3246     		mov	r2, r6
 5318 010a 5846     		mov	r0, fp
 5319 010c 0E99     		ldr	r1, [sp, #56]
 5320 010e 0F93     		str	r3, [sp, #60]
 5321 0110 FFF7FEFF 		bl	memcpy
 5322 0114 0F9B     		ldr	r3, [sp, #60]
 5323 0116 B9F1000F 		cmp	r9, #0
ARM GAS  /tmp/cciZhAVO.s 			page 92


 5324 011a 06D0     		beq	.L936
 5325 011c F018     		adds	r0, r6, r3
 5326 011e 4A46     		mov	r2, r9
 5327 0120 4946     		mov	r1, r9
 5328 0122 2044     		add	r0, r0, r4
 5329 0124 FFF7FEFF 		bl	memset
 5330 0128 5646     		mov	r6, r10
 5331              	.L936:
 5332 012a 0A9B     		ldr	r3, [sp, #40]
 5333 012c 4BB1     		cbz	r3, .L956
 5334 012e 3846     		mov	r0, r7
 5335 0130 FFF7FEFF 		bl	wolfSSL_Malloc
 5336 0134 0546     		mov	r5, r0
 5337 0136 0028     		cmp	r0, #0
 5338 0138 40F0DD80 		bne	.L968
 5339 013c 6FF07C03 		mvn	r3, #124
 5340 0140 C8E7     		b	.L930
 5341              	.L956:
 5342 0142 4FF00009 		mov	r9, #0
 5343              	.L937:
 5344 0146 DDE93201 		ldrd	r0, r1, [sp, #200]
 5345 014a 3A9B     		ldr	r3, [sp, #232]
 5346 014c 2A46     		mov	r2, r5
 5347 014e 0793     		str	r3, [sp, #28]
 5348 0150 0123     		movs	r3, #1
 5349 0152 0693     		str	r3, [sp, #24]
 5350 0154 16AB     		add	r3, sp, #88
 5351 0156 0593     		str	r3, [sp, #20]
 5352 0158 0623     		movs	r3, #6
 5353 015a CDE90363 		strd	r6, r3, [sp, #12]
 5354 015e 349B     		ldr	r3, [sp, #208]
 5355 0160 CDF808B0 		str	fp, [sp, #8]
 5356 0164 0193     		str	r3, [sp, #4]
 5357 0166 399B     		ldr	r3, [sp, #228]
 5358 0168 0093     		str	r3, [sp]
 5359 016a 3B46     		mov	r3, r7
 5360 016c FFF7FEFF 		bl	wc_CryptKey
 5361 0170 0346     		mov	r3, r0
 5362 0172 0028     		cmp	r0, #0
 5363 0174 40F0AE80 		bne	.L939
 5364 0178 1199     		ldr	r1, [sp, #68]
 5365 017a 0D98     		ldr	r0, [sp, #52]
 5366 017c 2144     		add	r1, r1, r4
 5367 017e FFF7FEFF 		bl	SetSequence
 5368 0182 1199     		ldr	r1, [sp, #68]
 5369 0184 0144     		add	r1, r1, r0
 5370 0186 1191     		str	r1, [sp, #68]
 5371 0188 0920     		movs	r0, #9
 5372 018a 2144     		add	r1, r1, r4
 5373 018c FFF7FEFF 		bl	SetObjectId
 5374 0190 6C4B     		ldr	r3, .L971+4
 5375 0192 1199     		ldr	r1, [sp, #68]
 5376 0194 1A68     		ldr	r2, [r3]	@ unaligned
 5377 0196 0844     		add	r0, r0, r1
 5378 0198 2250     		str	r2, [r4, r0]	@ unaligned
 5379 019a 5A68     		ldr	r2, [r3, #4]	@ unaligned
 5380 019c 1B7A     		ldrb	r3, [r3, #8]	@ zero_extendqisi2
ARM GAS  /tmp/cciZhAVO.s 			page 93


 5381 019e 2118     		adds	r1, r4, r0
 5382 01a0 0930     		adds	r0, r0, #9
 5383 01a2 4A60     		str	r2, [r1, #4]	@ unaligned
 5384 01a4 0B72     		strb	r3, [r1, #8]
 5385 01a6 1190     		str	r0, [sp, #68]
 5386 01a8 2118     		adds	r1, r4, r0
 5387 01aa 08F12E00 		add	r0, r8, #46
 5388 01ae FFF7FEFF 		bl	SetSequence
 5389 01b2 1199     		ldr	r1, [sp, #68]
 5390 01b4 0144     		add	r1, r1, r0
 5391 01b6 1191     		str	r1, [sp, #68]
 5392 01b8 18EE100A 		vmov	r0, s16	@ int
 5393 01bc 2144     		add	r1, r1, r4
 5394 01be FFF7FEFF 		bl	SetSequence
 5395 01c2 1199     		ldr	r1, [sp, #68]
 5396 01c4 0144     		add	r1, r1, r0
 5397 01c6 1191     		str	r1, [sp, #68]
 5398 01c8 0920     		movs	r0, #9
 5399 01ca 2144     		add	r1, r1, r4
 5400 01cc FFF7FEFF 		bl	SetObjectId
 5401 01d0 5D4B     		ldr	r3, .L971+8
 5402 01d2 1199     		ldr	r1, [sp, #68]
 5403 01d4 1A68     		ldr	r2, [r3]	@ unaligned
 5404 01d6 0844     		add	r0, r0, r1
 5405 01d8 2250     		str	r2, [r4, r0]	@ unaligned
 5406 01da 5A68     		ldr	r2, [r3, #4]	@ unaligned
 5407 01dc 1B7A     		ldrb	r3, [r3, #8]	@ zero_extendqisi2
 5408 01de 2118     		adds	r1, r4, r0
 5409 01e0 0930     		adds	r0, r0, #9
 5410 01e2 4A60     		str	r2, [r1, #4]	@ unaligned
 5411 01e4 0B72     		strb	r3, [r1, #8]
 5412 01e6 1190     		str	r0, [sp, #68]
 5413 01e8 2118     		adds	r1, r4, r0
 5414 01ea 4046     		mov	r0, r8
 5415 01ec FFF7FEFF 		bl	SetSequence
 5416 01f0 1199     		ldr	r1, [sp, #68]
 5417 01f2 0144     		add	r1, r1, r0
 5418 01f4 1191     		str	r1, [sp, #68]
 5419 01f6 3846     		mov	r0, r7
 5420 01f8 2144     		add	r1, r1, r4
 5421 01fa FFF7FEFF 		bl	SetOctetString
 5422 01fe 119B     		ldr	r3, [sp, #68]
 5423 0200 3A46     		mov	r2, r7
 5424 0202 1844     		add	r0, r0, r3
 5425 0204 2946     		mov	r1, r5
 5426 0206 1190     		str	r0, [sp, #68]
 5427 0208 2044     		add	r0, r0, r4
 5428 020a FFF7FEFF 		bl	memcpy
 5429 020e 119B     		ldr	r3, [sp, #68]
 5430 0210 399A     		ldr	r2, [sp, #228]
 5431 0212 3B44     		add	r3, r3, r7
 5432 0214 1193     		str	r3, [sp, #68]
 5433 0216 0B9B     		ldr	r3, [sp, #44]
 5434 0218 2046     		mov	r0, r4
 5435 021a 1B68     		ldr	r3, [r3]
 5436 021c 11A9     		add	r1, sp, #68
 5437 021e FFF7FEFF 		bl	SetShortInt
ARM GAS  /tmp/cciZhAVO.s 			page 94


 5438 0222 3A9A     		ldr	r2, [sp, #232]
 5439 0224 0346     		mov	r3, r0
 5440 0226 002A     		cmp	r2, #0
 5441 0228 1ADD     		ble	.L940
 5442 022a 1199     		ldr	r1, [sp, #68]
 5443 022c 0A90     		str	r0, [sp, #40]
 5444 022e 1298     		ldr	r0, [sp, #72]
 5445 0230 2144     		add	r1, r1, r4
 5446 0232 0230     		adds	r0, r0, #2
 5447 0234 FFF7FEFF 		bl	SetSequence
 5448 0238 1199     		ldr	r1, [sp, #68]
 5449 023a 0144     		add	r1, r1, r0
 5450 023c 1191     		str	r1, [sp, #68]
 5451 023e 1298     		ldr	r0, [sp, #72]
 5452 0240 2144     		add	r1, r1, r4
 5453 0242 FFF7FEFF 		bl	SetObjectId
 5454 0246 119A     		ldr	r2, [sp, #68]
 5455 0248 0C99     		ldr	r1, [sp, #48]
 5456 024a 1044     		add	r0, r0, r2
 5457 024c 1190     		str	r0, [sp, #68]
 5458 024e 129A     		ldr	r2, [sp, #72]
 5459 0250 2044     		add	r0, r0, r4
 5460 0252 FFF7FEFF 		bl	memcpy
 5461 0256 DDE91121 		ldrd	r2, r1, [sp, #68]
 5462 025a 0A9B     		ldr	r3, [sp, #40]
 5463 025c 0A44     		add	r2, r2, r1
 5464 025e 1192     		str	r2, [sp, #68]
 5465              	.L940:
 5466 0260 002B     		cmp	r3, #0
 5467 0262 37DB     		blt	.L939
 5468 0264 1199     		ldr	r1, [sp, #68]
 5469 0266 1D20     		movs	r0, #29
 5470 0268 2144     		add	r1, r1, r4
 5471 026a FFF7FEFF 		bl	SetSequence
 5472 026e 1199     		ldr	r1, [sp, #68]
 5473 0270 16AD     		add	r5, sp, #88
 5474 0272 0144     		add	r1, r1, r0
 5475 0274 1191     		str	r1, [sp, #68]
 5476 0276 0920     		movs	r0, #9
 5477 0278 2144     		add	r1, r1, r4
 5478 027a FFF7FEFF 		bl	SetObjectId
 5479 027e 099B     		ldr	r3, [sp, #36]
 5480 0280 1199     		ldr	r1, [sp, #68]
 5481 0282 1B68     		ldr	r3, [r3]	@ unaligned
 5482 0284 0844     		add	r0, r0, r1
 5483 0286 2350     		str	r3, [r4, r0]	@ unaligned
 5484 0288 099B     		ldr	r3, [sp, #36]
 5485 028a 2218     		adds	r2, r4, r0
 5486 028c 5B68     		ldr	r3, [r3, #4]	@ unaligned
 5487 028e 0930     		adds	r0, r0, #9
 5488 0290 5360     		str	r3, [r2, #4]	@ unaligned
 5489 0292 099B     		ldr	r3, [sp, #36]
 5490 0294 1190     		str	r0, [sp, #68]
 5491 0296 1B7A     		ldrb	r3, [r3, #8]	@ zero_extendqisi2
 5492 0298 2118     		adds	r1, r4, r0
 5493 029a 1372     		strb	r3, [r2, #8]
 5494 029c 1020     		movs	r0, #16
ARM GAS  /tmp/cciZhAVO.s 			page 95


 5495 029e FFF7FEFF 		bl	SetOctetString
 5496 02a2 119B     		ldr	r3, [sp, #68]
 5497 02a4 1AAF     		add	r7, sp, #104
 5498 02a6 0344     		add	r3, r3, r0
 5499 02a8 1193     		str	r3, [sp, #68]
 5500 02aa 2344     		add	r3, r3, r4
 5501              	.L941:
 5502 02ac 2A46     		mov	r2, r5
 5503 02ae 03CA     		ldmia	r2!, {r0, r1}
 5504 02b0 BA42     		cmp	r2, r7
 5505 02b2 1860     		str	r0, [r3]	@ unaligned
 5506 02b4 5960     		str	r1, [r3, #4]	@ unaligned
 5507 02b6 1546     		mov	r5, r2
 5508 02b8 03F10803 		add	r3, r3, #8
 5509 02bc F6D1     		bne	.L941
 5510 02be 1199     		ldr	r1, [sp, #68]
 5511 02c0 3046     		mov	r0, r6
 5512 02c2 1031     		adds	r1, r1, #16
 5513 02c4 1191     		str	r1, [sp, #68]
 5514 02c6 2144     		add	r1, r1, r4
 5515 02c8 FFF7FEFF 		bl	SetOctetString
 5516 02cc 119A     		ldr	r2, [sp, #68]
 5517 02ce 3244     		add	r2, r2, r6
 5518 02d0 1318     		adds	r3, r2, r0
 5519 02d2 1193     		str	r3, [sp, #68]
 5520              	.L939:
 5521 02d4 B9F1000F 		cmp	r9, #0
 5522 02d8 3FF4FCAE 		beq	.L930
 5523 02dc 4D46     		mov	r5, r9
 5524              	.L943:
 5525 02de 2846     		mov	r0, r5
 5526 02e0 0993     		str	r3, [sp, #36]
 5527 02e2 FFF7FEFF 		bl	wolfSSL_Free
 5528 02e6 099B     		ldr	r3, [sp, #36]
 5529 02e8 F4E6     		b	.L930
 5530              	.L949:
 5531 02ea 6FF0AC03 		mvn	r3, #172
 5532 02ee F1E6     		b	.L930
 5533              	.L951:
 5534 02f0 6FF09903 		mvn	r3, #153
 5535 02f4 EEE6     		b	.L930
 5536              	.L968:
 5537 02f6 0146     		mov	r1, r0
 5538 02f8 3A46     		mov	r2, r7
 5539 02fa 3B98     		ldr	r0, [sp, #236]
 5540 02fc FFF7FEFF 		bl	wc_RNG_GenerateBlock
 5541 0300 0346     		mov	r3, r0
 5542 0302 0028     		cmp	r0, #0
 5543 0304 EBD1     		bne	.L943
 5544 0306 A946     		mov	r9, r5
 5545 0308 1DE7     		b	.L937
 5546              	.L959:
 5547 030a 104B     		ldr	r3, .L971+12
 5548 030c 0993     		str	r3, [sp, #36]
 5549 030e 0423     		movs	r3, #4
 5550 0310 3493     		str	r3, [sp, #208]
 5551              	.L946:
ARM GAS  /tmp/cciZhAVO.s 			page 96


 5552 0312 0723     		movs	r3, #7
 5553 0314 399A     		ldr	r2, [sp, #228]
 5554 0316 13A9     		add	r1, sp, #76
 5555 0318 14A8     		add	r0, sp, #80
 5556 031a FFF7FEFF 		bl	SetShortInt
 5557 031e C6F10009 		rsb	r9, r6, #0
 5558 0322 031E     		subs	r3, r0, #0
 5559 0324 09F00F09 		and	r9, r9, #15
 5560 0328 3FF7A0AE 		bgt	.L944
 5561 032c 7FF4D2AE 		bne	.L930
 5562 0330 9846     		mov	r8, r3
 5563 0332 9EE6     		b	.L933
 5564              	.L960:
 5565 0334 064B     		ldr	r3, .L971+16
 5566 0336 0993     		str	r3, [sp, #36]
 5567 0338 EBE7     		b	.L946
 5568              	.L954:
 5569 033a 0A93     		str	r3, [sp, #40]
 5570 033c 8BE6     		b	.L932
 5571              	.L972:
 5572 033e 00BF     		.align	2
 5573              	.L971:
 5574 0340 D07AB37F 		.word	2142468816
 5575 0344 00000000 		.word	.LC8
 5576 0348 0A000000 		.word	.LC9
 5577 034c 00000000 		.word	.LANCHOR22
 5578 0350 00000000 		.word	.LANCHOR20
 5580              		.section	.text.wc_EncryptPKCS8Key,"ax",%progbits
 5581              		.align	1
 5582              		.global	wc_EncryptPKCS8Key
 5583              		.syntax unified
 5584              		.thumb
 5585              		.thumb_func
 5586              		.fpu fpv4-sp-d16
 5588              	wc_EncryptPKCS8Key:
 5589              		@ args = 40, pretend = 0, frame = 0
 5590              		@ frame_needed = 0, uses_anonymous_args = 0
 5591 0000 10B5     		push	{r4, lr}
 5592 0002 8CB0     		sub	sp, sp, #48
 5593 0004 179C     		ldr	r4, [sp, #92]
 5594 0006 0A94     		str	r4, [sp, #40]
 5595 0008 169C     		ldr	r4, [sp, #88]
 5596 000a 0994     		str	r4, [sp, #36]
 5597 000c 0024     		movs	r4, #0
 5598 000e 0894     		str	r4, [sp, #32]
 5599 0010 159C     		ldr	r4, [sp, #84]
 5600 0012 0794     		str	r4, [sp, #28]
 5601 0014 149C     		ldr	r4, [sp, #80]
 5602 0016 0694     		str	r4, [sp, #24]
 5603 0018 139C     		ldr	r4, [sp, #76]
 5604 001a 0594     		str	r4, [sp, #20]
 5605 001c 129C     		ldr	r4, [sp, #72]
 5606 001e 0494     		str	r4, [sp, #16]
 5607 0020 119C     		ldr	r4, [sp, #68]
 5608 0022 0394     		str	r4, [sp, #12]
 5609 0024 109C     		ldr	r4, [sp, #64]
 5610 0026 0294     		str	r4, [sp, #8]
ARM GAS  /tmp/cciZhAVO.s 			page 97


 5611 0028 0F9C     		ldr	r4, [sp, #60]
 5612 002a 0194     		str	r4, [sp, #4]
 5613 002c 0E9C     		ldr	r4, [sp, #56]
 5614 002e 0094     		str	r4, [sp]
 5615 0030 FFF7FEFF 		bl	wc_EncryptPKCS8Key_ex
 5616 0034 0CB0     		add	sp, sp, #48
 5617              		@ sp needed
 5618 0036 10BD     		pop	{r4, pc}
 5620              		.section	.text.SetOctetStringEx,"ax",%progbits
 5621              		.align	1
 5622              		.global	SetOctetStringEx
 5623              		.syntax unified
 5624              		.thumb
 5625              		.thumb_func
 5626              		.fpu fpv4-sp-d16
 5628              	SetOctetStringEx:
 5629              		@ args = 0, pretend = 0, frame = 0
 5630              		@ frame_needed = 0, uses_anonymous_args = 0
 5631              		@ link register save eliminated.
 5632 0000 1346     		mov	r3, r2
 5633 0002 30B4     		push	{r4, r5}
 5634 0004 2AB1     		cbz	r2, .L975
 5635 0006 30BC     		pop	{r4, r5}
 5636 0008 0A46     		mov	r2, r1
 5637 000a 0146     		mov	r1, r0
 5638 000c 2420     		movs	r0, #36
 5639 000e FFF7FEBF 		b	SetHeader
 5640              	.L975:
 5641 0012 30BC     		pop	{r4, r5}
 5642 0014 FFF7FEBF 		b	SetOctetString
 5644              		.section	.text.SetSet,"ax",%progbits
 5645              		.align	1
 5646              		.global	SetSet
 5647              		.syntax unified
 5648              		.thumb
 5649              		.thumb_func
 5650              		.fpu fpv4-sp-d16
 5652              	SetSet:
 5653              		@ args = 0, pretend = 0, frame = 0
 5654              		@ frame_needed = 0, uses_anonymous_args = 0
 5655              		@ link register save eliminated.
 5656 0000 0A46     		mov	r2, r1
 5657 0002 0023     		movs	r3, #0
 5658 0004 0146     		mov	r1, r0
 5659 0006 3120     		movs	r0, #49
 5660 0008 FFF7FEBF 		b	SetHeader
 5662              		.section	.text.SetImplicit,"ax",%progbits
 5663              		.align	1
 5664              		.global	SetImplicit
 5665              		.syntax unified
 5666              		.thumb
 5667              		.thumb_func
 5668              		.fpu fpv4-sp-d16
 5670              	SetImplicit:
 5671              		@ args = 4, pretend = 0, frame = 0
 5672              		@ frame_needed = 0, uses_anonymous_args = 0
 5673              		@ link register save eliminated.
ARM GAS  /tmp/cciZhAVO.s 			page 98


 5674 0000 30B4     		push	{r4, r5}
 5675 0002 0546     		mov	r5, r0
 5676 0004 042D     		cmp	r5, #4
 5677 0006 0846     		mov	r0, r1
 5678 0008 1146     		mov	r1, r2
 5679 000a 1A46     		mov	r2, r3
 5680 000c 9DF80830 		ldrb	r3, [sp, #8]	@ zero_extendqisi2
 5681 0010 05D1     		bne	.L978
 5682 0012 93B1     		cbz	r3, .L982
 5683 0014 40F0A000 		orr	r0, r0, #160
 5684              	.L980:
 5685 0018 C0F34013 		ubfx	r3, r0, #5, #1
 5686 001c 0AE0     		b	.L981
 5687              	.L978:
 5688 001e 103D     		subs	r5, r5, #16
 5689 0020 012D     		cmp	r5, #1
 5690 0022 8CBF     		ite	hi
 5691 0024 6FF07F04 		mvnhi	r4, #127
 5692 0028 6FF05F04 		mvnls	r4, #95
 5693              	.L979:
 5694 002c 2043     		orrs	r0, r0, r4
 5695 002e C0B2     		uxtb	r0, r0
 5696 0030 002B     		cmp	r3, #0
 5697 0032 F1D1     		bne	.L980
 5698              	.L981:
 5699 0034 30BC     		pop	{r4, r5}
 5700 0036 FFF7FEBF 		b	SetHeader
 5701              	.L982:
 5702 003a 6FF07F04 		mvn	r4, #127
 5703 003e F5E7     		b	.L979
 5705              		.section	.text.SetExplicit,"ax",%progbits
 5706              		.align	1
 5707              		.global	SetExplicit
 5708              		.syntax unified
 5709              		.thumb
 5710              		.thumb_func
 5711              		.fpu fpv4-sp-d16
 5713              	SetExplicit:
 5714              		@ args = 0, pretend = 0, frame = 0
 5715              		@ frame_needed = 0, uses_anonymous_args = 0
 5716              		@ link register save eliminated.
 5717 0000 40F0A000 		orr	r0, r0, #160
 5718 0004 FFF7FEBF 		b	SetHeader
 5720              		.section	.text.SetAlgoID,"ax",%progbits
 5721              		.align	1
 5722              		.global	SetAlgoID
 5723              		.syntax unified
 5724              		.thumb
 5725              		.thumb_func
 5726              		.fpu fpv4-sp-d16
 5728              	SetAlgoID:
 5729              		@ args = 0, pretend = 0, frame = 0
 5730              		@ frame_needed = 0, uses_anonymous_args = 0
 5731 0000 13B5     		push	{r0, r1, r4, lr}
 5732 0002 0024     		movs	r4, #0
 5733 0004 0094     		str	r4, [sp]
 5734 0006 FFF7FEFF 		bl	SetAlgoIDImpl
ARM GAS  /tmp/cciZhAVO.s 			page 99


 5735 000a 02B0     		add	sp, sp, #8
 5736              		@ sp needed
 5737 000c 10BD     		pop	{r4, pc}
 5739              		.section	.text.SetAlgoIDEx,"ax",%progbits
 5740              		.align	1
 5741              		.global	SetAlgoIDEx
 5742              		.syntax unified
 5743              		.thumb
 5744              		.thumb_func
 5745              		.fpu fpv4-sp-d16
 5747              	SetAlgoIDEx:
 5748              		@ args = 4, pretend = 0, frame = 0
 5749              		@ frame_needed = 0, uses_anonymous_args = 0
 5750              		@ link register save eliminated.
 5751 0000 10B4     		push	{r4}
 5752 0002 9DF80440 		ldrb	r4, [sp, #4]	@ zero_extendqisi2
 5753 0006 0194     		str	r4, [sp, #4]
 5754 0008 5DF8044B 		ldr	r4, [sp], #4
 5755 000c FFF7FEBF 		b	SetAlgoIDImpl
 5757              		.section	.text.wc_EncodeSignature,"ax",%progbits
 5758              		.align	1
 5759              		.global	wc_EncodeSignature
 5760              		.syntax unified
 5761              		.thumb
 5762              		.thumb_func
 5763              		.fpu fpv4-sp-d16
 5765              	wc_EncodeSignature:
 5766              		@ args = 0, pretend = 0, frame = 72
 5767              		@ frame_needed = 0, uses_anonymous_args = 0
 5768 0000 2DE9F041 		push	{r4, r5, r6, r7, r8, lr}
 5769 0004 0D46     		mov	r5, r1
 5770 0006 0021     		movs	r1, #0
 5771 0008 92B0     		sub	sp, sp, #72
 5772 000a 0646     		mov	r6, r0
 5773 000c 8C20     		movs	r0, #140
 5774 000e 1746     		mov	r7, r2
 5775 0010 9846     		mov	r8, r3
 5776 0012 0191     		str	r1, [sp, #4]
 5777 0014 FFF7FEFF 		bl	wolfSSL_Malloc
 5778 0018 0446     		mov	r4, r0
 5779 001a 58B3     		cbz	r0, .L994
 5780 001c 6422     		movs	r2, #100
 5781 001e 0021     		movs	r1, #0
 5782 0020 FFF7FEFF 		bl	memset
 5783 0024 0021     		movs	r1, #0
 5784 0026 4046     		mov	r0, r8
 5785 0028 04F13402 		add	r2, r4, #52
 5786 002c FFF7FEFF 		bl	OidFromId
 5787 0030 B542     		cmp	r5, r6
 5788 0032 2063     		str	r0, [r4, #48]
 5789 0034 05D1     		bne	.L992
 5790 0036 2946     		mov	r1, r5
 5791 0038 3A46     		mov	r2, r7
 5792 003a 02A8     		add	r0, sp, #8
 5793 003c FFF7FEFF 		bl	memcpy
 5794 0040 02AD     		add	r5, sp, #8
 5795              	.L992:
ARM GAS  /tmp/cciZhAVO.s 			page 100


 5796 0042 0522     		movs	r2, #5
 5797 0044 2146     		mov	r1, r4
 5798 0046 C4E91657 		strd	r5, r7, [r4, #88]
 5799 004a 0B48     		ldr	r0, .L996
 5800 004c 01AB     		add	r3, sp, #4
 5801 004e FFF7FEFF 		bl	SizeASN_Items
 5802 0052 68B9     		cbnz	r0, .L995
 5803 0054 3346     		mov	r3, r6
 5804 0056 0522     		movs	r2, #5
 5805 0058 2146     		mov	r1, r4
 5806 005a 0748     		ldr	r0, .L996
 5807 005c FFF7FEFF 		bl	SetASN_Items
 5808 0060 019D     		ldr	r5, [sp, #4]
 5809              	.L993:
 5810 0062 2046     		mov	r0, r4
 5811 0064 FFF7FEFF 		bl	wolfSSL_Free
 5812              	.L991:
 5813 0068 2846     		mov	r0, r5
 5814 006a 12B0     		add	sp, sp, #72
 5815              		@ sp needed
 5816 006c BDE8F081 		pop	{r4, r5, r6, r7, r8, pc}
 5817              	.L995:
 5818 0070 0025     		movs	r5, #0
 5819 0072 F6E7     		b	.L993
 5820              	.L994:
 5821 0074 0546     		mov	r5, r0
 5822 0076 F7E7     		b	.L991
 5823              	.L997:
 5824              		.align	2
 5825              	.L996:
 5826 0078 00000000 		.word	.LANCHOR75
 5828              		.section	.text.wc_GetCTC_HashOID,"ax",%progbits
 5829              		.align	1
 5830              		.global	wc_GetCTC_HashOID
 5831              		.syntax unified
 5832              		.thumb
 5833              		.thumb_func
 5834              		.fpu fpv4-sp-d16
 5836              	wc_GetCTC_HashOID:
 5837              		@ args = 0, pretend = 0, frame = 0
 5838              		@ frame_needed = 0, uses_anonymous_args = 0
 5839 0000 08B5     		push	{r3, lr}
 5840 0002 FFF7FEFF 		bl	wc_HashTypeConvert
 5841 0006 FFF7FEFF 		bl	wc_HashGetOID
 5842 000a 20EAE070 		bic	r0, r0, r0, asr #31
 5843 000e 08BD     		pop	{r3, pc}
 5845              		.section	.text.InitSignatureCtx,"ax",%progbits
 5846              		.align	1
 5847              		.global	InitSignatureCtx
 5848              		.syntax unified
 5849              		.thumb
 5850              		.thumb_func
 5851              		.fpu fpv4-sp-d16
 5853              	InitSignatureCtx:
 5854              		@ args = 0, pretend = 0, frame = 0
 5855              		@ frame_needed = 0, uses_anonymous_args = 0
 5856 0000 70B5     		push	{r4, r5, r6, lr}
ARM GAS  /tmp/cciZhAVO.s 			page 101


 5857 0002 0D46     		mov	r5, r1
 5858 0004 1646     		mov	r6, r2
 5859 0006 0446     		mov	r4, r0
 5860 0008 30B1     		cbz	r0, .L999
 5861 000a 2022     		movs	r2, #32
 5862 000c 0021     		movs	r1, #0
 5863 000e 0430     		adds	r0, r0, #4
 5864 0010 FFF7FEFF 		bl	memset
 5865 0014 2661     		str	r6, [r4, #16]
 5866 0016 2560     		str	r5, [r4]
 5867              	.L999:
 5868 0018 70BD     		pop	{r4, r5, r6, pc}
 5870              		.section	.text.InitDecodedCert_ex,"ax",%progbits
 5871              		.align	1
 5872              		.global	InitDecodedCert_ex
 5873              		.syntax unified
 5874              		.thumb
 5875              		.thumb_func
 5876              		.fpu fpv4-sp-d16
 5878              	InitDecodedCert_ex:
 5879              		@ args = 4, pretend = 0, frame = 0
 5880              		@ frame_needed = 0, uses_anonymous_args = 0
 5881 0000 2DE9F041 		push	{r4, r5, r6, r7, r8, lr}
 5882 0004 DDF81880 		ldr	r8, [sp, #24]
 5883 0008 0F46     		mov	r7, r1
 5884 000a 1646     		mov	r6, r2
 5885 000c 1D46     		mov	r5, r3
 5886 000e 0446     		mov	r4, r0
 5887 0010 B0B1     		cbz	r0, .L1004
 5888 0012 4FF45972 		mov	r2, #868
 5889 0016 0021     		movs	r1, #0
 5890 0018 FFF7FEFF 		bl	memset
 5891 001c 0C23     		movs	r3, #12
 5892 001e 84F86C30 		strb	r3, [r4, #108]
 5893 0022 7F23     		movs	r3, #127
 5894 0024 4246     		mov	r2, r8
 5895 0026 2946     		mov	r1, r5
 5896 0028 C4E99F65 		strd	r6, r5, [r4, #636]
 5897 002c C4F87472 		str	r7, [r4, #628]
 5898 0030 A4F8FE32 		strh	r3, [r4, #766]	@ movhi
 5899 0034 04F54D70 		add	r0, r4, #820
 5900 0038 BDE8F041 		pop	{r4, r5, r6, r7, r8, lr}
 5901 003c FFF7FEBF 		b	InitSignatureCtx
 5902              	.L1004:
 5903 0040 BDE8F081 		pop	{r4, r5, r6, r7, r8, pc}
 5905              		.section	.text.InitDecodedCert,"ax",%progbits
 5906              		.align	1
 5907              		.global	InitDecodedCert
 5908              		.syntax unified
 5909              		.thumb
 5910              		.thumb_func
 5911              		.fpu fpv4-sp-d16
 5913              	InitDecodedCert:
 5914              		@ args = 0, pretend = 0, frame = 0
 5915              		@ frame_needed = 0, uses_anonymous_args = 0
 5916 0000 13B5     		push	{r0, r1, r4, lr}
 5917 0002 6FF00104 		mvn	r4, #1
ARM GAS  /tmp/cciZhAVO.s 			page 102


 5918 0006 0094     		str	r4, [sp]
 5919 0008 FFF7FEFF 		bl	InitDecodedCert_ex
 5920 000c 02B0     		add	sp, sp, #8
 5921              		@ sp needed
 5922 000e 10BD     		pop	{r4, pc}
 5924              		.section	.text.wc_InitDecodedCert,"ax",%progbits
 5925              		.align	1
 5926              		.global	wc_InitDecodedCert
 5927              		.syntax unified
 5928              		.thumb
 5929              		.thumb_func
 5930              		.fpu fpv4-sp-d16
 5932              	wc_InitDecodedCert:
 5933              		@ args = 0, pretend = 0, frame = 0
 5934              		@ frame_needed = 0, uses_anonymous_args = 0
 5935              		@ link register save eliminated.
 5936 0000 FFF7FEBF 		b	InitDecodedCert
 5938              		.section	.text.FreeSignatureCtx,"ax",%progbits
 5939              		.align	1
 5940              		.global	FreeSignatureCtx
 5941              		.syntax unified
 5942              		.thumb
 5943              		.thumb_func
 5944              		.fpu fpv4-sp-d16
 5946              	FreeSignatureCtx:
 5947              		@ args = 0, pretend = 0, frame = 0
 5948              		@ frame_needed = 0, uses_anonymous_args = 0
 5949 0000 10B5     		push	{r4, lr}
 5950 0002 0446     		mov	r4, r0
 5951 0004 A8B1     		cbz	r0, .L1008
 5952 0006 4068     		ldr	r0, [r0, #4]
 5953 0008 08B1     		cbz	r0, .L1010
 5954 000a FFF7FEFF 		bl	wolfSSL_Free
 5955              	.L1010:
 5956 000e 0023     		movs	r3, #0
 5957 0010 E068     		ldr	r0, [r4, #12]
 5958 0012 6360     		str	r3, [r4, #4]
 5959 0014 58B1     		cbz	r0, .L1011
 5960 0016 226A     		ldr	r2, [r4, #32]
 5961 0018 064B     		ldr	r3, .L1027
 5962 001a 9A42     		cmp	r2, r3
 5963 001c 05D1     		bne	.L1013
 5964 001e FFF7FEFF 		bl	wc_ecc_free
 5965 0022 E068     		ldr	r0, [r4, #12]
 5966 0024 08B1     		cbz	r0, .L1013
 5967 0026 FFF7FEFF 		bl	wolfSSL_Free
 5968              	.L1013:
 5969 002a 0023     		movs	r3, #0
 5970 002c E360     		str	r3, [r4, #12]
 5971              	.L1011:
 5972 002e 0023     		movs	r3, #0
 5973 0030 6361     		str	r3, [r4, #20]
 5974              	.L1008:
 5975 0032 10BD     		pop	{r4, pc}
 5976              	.L1028:
 5977              		.align	2
 5978              	.L1027:
ARM GAS  /tmp/cciZhAVO.s 			page 103


 5979 0034 17844931 		.word	826901527
 5981              		.section	.text.FreeDecodedCert,"ax",%progbits
 5982              		.align	1
 5983              		.global	FreeDecodedCert
 5984              		.syntax unified
 5985              		.thumb
 5986              		.thumb_func
 5987              		.fpu fpv4-sp-d16
 5989              	FreeDecodedCert:
 5990              		@ args = 0, pretend = 0, frame = 0
 5991              		@ frame_needed = 0, uses_anonymous_args = 0
 5992 0000 10B5     		push	{r4, lr}
 5993 0002 0446     		mov	r4, r0
 5994 0004 0028     		cmp	r0, #0
 5995 0006 36D0     		beq	.L1029
 5996 0008 90F86033 		ldrb	r3, [r0, #864]	@ zero_extendqisi2
 5997 000c DA07     		lsls	r2, r3, #31
 5998 000e 03D5     		bpl	.L1031
 5999 0010 406E     		ldr	r0, [r0, #100]
 6000 0012 08B1     		cbz	r0, .L1031
 6001 0014 FFF7FEFF 		bl	wolfSSL_Free
 6002              	.L1031:
 6003 0018 A368     		ldr	r3, [r4, #8]
 6004 001a 012B     		cmp	r3, #1
 6005 001c 03D1     		bne	.L1032
 6006 001e 2068     		ldr	r0, [r4]
 6007 0020 08B1     		cbz	r0, .L1032
 6008 0022 FFF7FEFF 		bl	wolfSSL_Free
 6009              	.L1032:
 6010 0026 94F86033 		ldrb	r3, [r4, #864]	@ zero_extendqisi2
 6011 002a 5B06     		lsls	r3, r3, #25
 6012 002c 05D5     		bpl	.L1033
 6013 002e 606A     		ldr	r0, [r4, #36]
 6014 0030 18B1     		cbz	r0, .L1033
 6015 0032 D4F88012 		ldr	r1, [r4, #640]
 6016 0036 FFF7FEFF 		bl	FreeAltNames
 6017              	.L1033:
 6018 003a A06A     		ldr	r0, [r4, #40]
 6019 003c 18B1     		cbz	r0, .L1034
 6020 003e D4F88012 		ldr	r1, [r4, #640]
 6021 0042 FFF7FEFF 		bl	FreeAltNames
 6022              	.L1034:
 6023 0046 E06A     		ldr	r0, [r4, #44]
 6024 0048 18B1     		cbz	r0, .L1035
 6025 004a D4F88012 		ldr	r1, [r4, #640]
 6026 004e FFF7FEFF 		bl	FreeAltNames
 6027              	.L1035:
 6028 0052 206B     		ldr	r0, [r4, #48]
 6029 0054 18B1     		cbz	r0, .L1036
 6030 0056 D4F88012 		ldr	r1, [r4, #640]
 6031 005a FFF7FEFF 		bl	FreeNameSubtrees
 6032              	.L1036:
 6033 005e 606B     		ldr	r0, [r4, #52]
 6034 0060 18B1     		cbz	r0, .L1037
 6035 0062 D4F88012 		ldr	r1, [r4, #640]
 6036 0066 FFF7FEFF 		bl	FreeNameSubtrees
 6037              	.L1037:
ARM GAS  /tmp/cciZhAVO.s 			page 104


 6038 006a 04F54D70 		add	r0, r4, #820
 6039 006e BDE81040 		pop	{r4, lr}
 6040 0072 FFF7FEBF 		b	FreeSignatureCtx
 6041              	.L1029:
 6042 0076 10BD     		pop	{r4, pc}
 6044              		.section	.text.wc_FreeDecodedCert,"ax",%progbits
 6045              		.align	1
 6046              		.global	wc_FreeDecodedCert
 6047              		.syntax unified
 6048              		.thumb
 6049              		.thumb_func
 6050              		.fpu fpv4-sp-d16
 6052              	wc_FreeDecodedCert:
 6053              		@ args = 0, pretend = 0, frame = 0
 6054              		@ frame_needed = 0, uses_anonymous_args = 0
 6055              		@ link register save eliminated.
 6056 0000 FFF7FEBF 		b	FreeDecodedCert
 6058              		.section	.text.DecodeBasicCaConstraint,"ax",%progbits
 6059              		.align	1
 6060              		.global	DecodeBasicCaConstraint
 6061              		.syntax unified
 6062              		.thumb
 6063              		.thumb_func
 6064              		.fpu fpv4-sp-d16
 6066              	DecodeBasicCaConstraint:
 6067              		@ args = 4, pretend = 0, frame = 8
 6068              		@ frame_needed = 0, uses_anonymous_args = 0
 6069 0000 2DE9F043 		push	{r4, r5, r6, r7, r8, r9, lr}
 6070 0004 4FF00009 		mov	r9, #0
 6071 0008 87B0     		sub	sp, sp, #28
 6072 000a 0546     		mov	r5, r0
 6073 000c 5420     		movs	r0, #84
 6074 000e 8846     		mov	r8, r1
 6075 0010 1746     		mov	r7, r2
 6076 0012 1E46     		mov	r6, r3
 6077 0014 CDF81490 		str	r9, [sp, #20]
 6078 0018 8DF81390 		strb	r9, [sp, #19]
 6079 001c FFF7FEFF 		bl	wolfSSL_Malloc
 6080 0020 0446     		mov	r4, r0
 6081 0022 0028     		cmp	r0, #0
 6082 0024 37D0     		beq	.L1070
 6083 0026 5422     		movs	r2, #84
 6084 0028 4946     		mov	r1, r9
 6085 002a FFF7FEFF 		bl	memset
 6086 002e 0DF11303 		add	r3, sp, #19
 6087 0032 6362     		str	r3, [r4, #36]
 6088 0034 0223     		movs	r3, #2
 6089 0036 84F85030 		strb	r3, [r4, #80]
 6090 003a 05AB     		add	r3, sp, #20
 6091 003c 2664     		str	r6, [r4, #64]
 6092 003e 0322     		movs	r2, #3
 6093 0040 CDE90053 		strd	r5, r3, [sp]
 6094 0044 2146     		mov	r1, r4
 6095 0046 0123     		movs	r3, #1
 6096 0048 1448     		ldr	r0, .L1079
 6097 004a CDF80880 		str	r8, [sp, #8]
 6098 004e FFF7FEFF 		bl	GetASN_Items
ARM GAS  /tmp/cciZhAVO.s 			page 105


 6099 0052 0546     		mov	r5, r0
 6100 0054 A8B9     		cbnz	r0, .L1068
 6101 0056 6368     		ldr	r3, [r4, #4]
 6102 0058 9BB1     		cbz	r3, .L1068
 6103 005a 236A     		ldr	r3, [r4, #32]
 6104 005c 13B1     		cbz	r3, .L1069
 6105 005e 9DF81330 		ldrb	r3, [sp, #19]	@ zero_extendqisi2
 6106 0062 ABB1     		cbz	r3, .L1072
 6107              	.L1069:
 6108 0064 3388     		ldrh	r3, [r6]
 6109 0066 7F2B     		cmp	r3, #127
 6110 0068 12D8     		bhi	.L1072
 6111 006a 9DF81330 		ldrb	r3, [sp, #19]	@ zero_extendqisi2
 6112 006e 0E9A     		ldr	r2, [sp, #56]
 6113 0070 003B     		subs	r3, r3, #0
 6114 0072 18BF     		it	ne
 6115 0074 0123     		movne	r3, #1
 6116 0076 3B70     		strb	r3, [r7]
 6117 0078 E36B     		ldr	r3, [r4, #60]
 6118 007a 003B     		subs	r3, r3, #0
 6119 007c 18BF     		it	ne
 6120 007e 0123     		movne	r3, #1
 6121 0080 1370     		strb	r3, [r2]
 6122              	.L1068:
 6123 0082 2046     		mov	r0, r4
 6124 0084 FFF7FEFF 		bl	wolfSSL_Free
 6125              	.L1066:
 6126 0088 2846     		mov	r0, r5
 6127 008a 07B0     		add	sp, sp, #28
 6128              		@ sp needed
 6129 008c BDE8F083 		pop	{r4, r5, r6, r7, r8, r9, pc}
 6130              	.L1072:
 6131 0090 6FF08B05 		mvn	r5, #139
 6132 0094 F5E7     		b	.L1068
 6133              	.L1070:
 6134 0096 6FF07C05 		mvn	r5, #124
 6135 009a F5E7     		b	.L1066
 6136              	.L1080:
 6137              		.align	2
 6138              	.L1079:
 6139 009c 00000000 		.word	.LANCHOR76
 6141              		.section	.text.DecodeAuthKeyId,"ax",%progbits
 6142              		.align	1
 6143              		.global	DecodeAuthKeyId
 6144              		.syntax unified
 6145              		.thumb
 6146              		.thumb_func
 6147              		.fpu fpv4-sp-d16
 6149              	DecodeAuthKeyId:
 6150              		@ args = 16, pretend = 0, frame = 8
 6151              		@ frame_needed = 0, uses_anonymous_args = 0
 6152 0000 2DE9F041 		push	{r4, r5, r6, r7, r8, lr}
 6153 0004 86B0     		sub	sp, sp, #24
 6154 0006 0746     		mov	r7, r0
 6155 0008 DDE90C40 		ldrd	r4, r0, [sp, #48]
 6156 000c 8846     		mov	r8, r1
 6157 000e 1D46     		mov	r5, r3
ARM GAS  /tmp/cciZhAVO.s 			page 106


 6158 0010 DDE90E13 		ldrd	r1, r3, [sp, #56]
 6159 0014 1646     		mov	r6, r2
 6160 0016 0AB1     		cbz	r2, .L1082
 6161 0018 0022     		movs	r2, #0
 6162 001a 3260     		str	r2, [r6]
 6163              	.L1082:
 6164 001c 0DB1     		cbz	r5, .L1083
 6165 001e 0022     		movs	r2, #0
 6166 0020 2A60     		str	r2, [r5]
 6167              	.L1083:
 6168 0022 0CB1     		cbz	r4, .L1084
 6169 0024 0022     		movs	r2, #0
 6170 0026 2260     		str	r2, [r4]
 6171              	.L1084:
 6172 0028 08B1     		cbz	r0, .L1085
 6173 002a 0022     		movs	r2, #0
 6174 002c 0260     		str	r2, [r0]
 6175              	.L1085:
 6176 002e 09B1     		cbz	r1, .L1086
 6177 0030 0022     		movs	r2, #0
 6178 0032 0A60     		str	r2, [r1]
 6179              	.L1086:
 6180 0034 0BB1     		cbz	r3, .L1087
 6181 0036 0022     		movs	r2, #0
 6182 0038 1A60     		str	r2, [r3]
 6183              	.L1087:
 6184 003a 7020     		movs	r0, #112
 6185 003c FFF7FEFF 		bl	wolfSSL_Malloc
 6186 0040 0446     		mov	r4, r0
 6187 0042 00B3     		cbz	r0, .L1091
 6188 0044 7022     		movs	r2, #112
 6189 0046 0021     		movs	r1, #0
 6190 0048 FFF7FEFF 		bl	memset
 6191 004c 0023     		movs	r3, #0
 6192 004e 0593     		str	r3, [sp, #20]
 6193 0050 05AB     		add	r3, sp, #20
 6194 0052 CDE90073 		strd	r7, r3, [sp]
 6195 0056 0422     		movs	r2, #4
 6196 0058 0123     		movs	r3, #1
 6197 005a 2146     		mov	r1, r4
 6198 005c 0B48     		ldr	r0, .L1119
 6199 005e CDF80880 		str	r8, [sp, #8]
 6200 0062 FFF7FEFF 		bl	GetASN_Items
 6201 0066 0746     		mov	r7, r0
 6202 0068 30B9     		cbnz	r0, .L1090
 6203 006a 2EB1     		cbz	r6, .L1090
 6204 006c 25B1     		cbz	r5, .L1090
 6205 006e 636A     		ldr	r3, [r4, #36]
 6206 0070 13B1     		cbz	r3, .L1090
 6207 0072 3360     		str	r3, [r6]
 6208 0074 A36A     		ldr	r3, [r4, #40]
 6209 0076 2B60     		str	r3, [r5]
 6210              	.L1090:
 6211 0078 2046     		mov	r0, r4
 6212 007a FFF7FEFF 		bl	wolfSSL_Free
 6213              	.L1081:
 6214 007e 3846     		mov	r0, r7
ARM GAS  /tmp/cciZhAVO.s 			page 107


 6215 0080 06B0     		add	sp, sp, #24
 6216              		@ sp needed
 6217 0082 BDE8F081 		pop	{r4, r5, r6, r7, r8, pc}
 6218              	.L1091:
 6219 0086 6FF07C07 		mvn	r7, #124
 6220 008a F8E7     		b	.L1081
 6221              	.L1120:
 6222              		.align	2
 6223              	.L1119:
 6224 008c 00000000 		.word	.LANCHOR77
 6226              		.section	.text.DecodeSubjKeyId,"ax",%progbits
 6227              		.align	1
 6228              		.global	DecodeSubjKeyId
 6229              		.syntax unified
 6230              		.thumb
 6231              		.thumb_func
 6232              		.fpu fpv4-sp-d16
 6234              	DecodeSubjKeyId:
 6235              		@ args = 0, pretend = 0, frame = 8
 6236              		@ frame_needed = 0, uses_anonymous_args = 0
 6237 0000 F7B5     		push	{r0, r1, r2, r4, r5, r6, r7, lr}
 6238 0002 0025     		movs	r5, #0
 6239 0004 1646     		mov	r6, r2
 6240 0006 1F46     		mov	r7, r3
 6241 0008 01AA     		add	r2, sp, #4
 6242 000a 0B46     		mov	r3, r1
 6243 000c 6946     		mov	r1, sp
 6244 000e 0446     		mov	r4, r0
 6245 0010 CDE90055 		strd	r5, r5, [sp]
 6246 0014 FFF7FEFF 		bl	GetOctetString
 6247 0018 0028     		cmp	r0, #0
 6248 001a 05DB     		blt	.L1121
 6249 001c 0098     		ldr	r0, [sp]
 6250 001e 019B     		ldr	r3, [sp, #4]
 6251 0020 0444     		add	r4, r4, r0
 6252 0022 2846     		mov	r0, r5
 6253 0024 3B60     		str	r3, [r7]
 6254 0026 3460     		str	r4, [r6]
 6255              	.L1121:
 6256 0028 03B0     		add	sp, sp, #12
 6257              		@ sp needed
 6258 002a F0BD     		pop	{r4, r5, r6, r7, pc}
 6260              		.section	.text.DecodeKeyUsage,"ax",%progbits
 6261              		.align	1
 6262              		.global	DecodeKeyUsage
 6263              		.syntax unified
 6264              		.thumb
 6265              		.thumb_func
 6266              		.fpu fpv4-sp-d16
 6268              	DecodeKeyUsage:
 6269              		@ args = 0, pretend = 0, frame = 40
 6270              		@ frame_needed = 0, uses_anonymous_args = 0
 6271 0000 F0B5     		push	{r4, r5, r6, r7, lr}
 6272 0002 0025     		movs	r5, #0
 6273 0004 1446     		mov	r4, r2
 6274 0006 1C22     		movs	r2, #28
 6275 0008 0223     		movs	r3, #2
ARM GAS  /tmp/cciZhAVO.s 			page 108


 6276 000a 8FB0     		sub	sp, sp, #60
 6277 000c 0646     		mov	r6, r0
 6278 000e 0F46     		mov	r7, r1
 6279 0010 0DEB0200 		add	r0, sp, r2
 6280 0014 2946     		mov	r1, r5
 6281 0016 CDE90553 		strd	r5, r3, [sp, #20]
 6282 001a FFF7FEFF 		bl	memset
 6283 001e 0523     		movs	r3, #5
 6284 0020 8DF83430 		strb	r3, [sp, #52]
 6285 0024 04AB     		add	r3, sp, #16
 6286 0026 0993     		str	r3, [sp, #36]
 6287 0028 06AB     		add	r3, sp, #24
 6288 002a 0A93     		str	r3, [sp, #40]
 6289 002c 05AB     		add	r3, sp, #20
 6290 002e CDE90063 		strd	r6, r3, [sp]
 6291 0032 0122     		movs	r2, #1
 6292 0034 2B46     		mov	r3, r5
 6293 0036 0B48     		ldr	r0, .L1127
 6294 0038 0297     		str	r7, [sp, #8]
 6295 003a 07A9     		add	r1, sp, #28
 6296 003c ADF81050 		strh	r5, [sp, #16]	@ movhi
 6297 0040 FFF7FEFF 		bl	GetASN_Items
 6298 0044 58B9     		cbnz	r0, .L1123
 6299 0046 069A     		ldr	r2, [sp, #24]
 6300 0048 9DF81030 		ldrb	r3, [sp, #16]	@ zero_extendqisi2
 6301 004c 022A     		cmp	r2, #2
 6302 004e 08BF     		it	eq
 6303 0050 9DF81120 		ldrbeq	r2, [sp, #17]	@ zero_extendqisi2
 6304 0054 2380     		strh	r3, [r4]	@ movhi
 6305 0056 04BF     		itt	eq
 6306 0058 43EA0223 		orreq	r3, r3, r2, lsl #8
 6307 005c 2380     		strheq	r3, [r4]	@ movhi
 6308              	.L1123:
 6309 005e 0FB0     		add	sp, sp, #60
 6310              		@ sp needed
 6311 0060 F0BD     		pop	{r4, r5, r6, r7, pc}
 6312              	.L1128:
 6313 0062 00BF     		.align	2
 6314              	.L1127:
 6315 0064 00000000 		.word	.LANCHOR78
 6317              		.section	.text.DecodeExtKeyUsage,"ax",%progbits
 6318              		.align	1
 6319              		.global	DecodeExtKeyUsage
 6320              		.syntax unified
 6321              		.thumb
 6322              		.thumb_func
 6323              		.fpu fpv4-sp-d16
 6325              	DecodeExtKeyUsage:
 6326              		@ args = 12, pretend = 0, frame = 40
 6327              		@ frame_needed = 0, uses_anonymous_args = 0
 6328 0000 0023     		movs	r3, #0
 6329 0002 2DE9F047 		push	{r4, r5, r6, r7, r8, r9, r10, lr}
 6330 0006 8EB0     		sub	sp, sp, #56
 6331 0008 179C     		ldr	r4, [sp, #92]
 6332 000a 0593     		str	r3, [sp, #20]
 6333 000c 2370     		strb	r3, [r4]
 6334 000e 0123     		movs	r3, #1
ARM GAS  /tmp/cciZhAVO.s 			page 109


 6335 0010 05AF     		add	r7, sp, #20
 6336 0012 0093     		str	r3, [sp]
 6337 0014 0D46     		mov	r5, r1
 6338 0016 0B46     		mov	r3, r1
 6339 0018 06AA     		add	r2, sp, #24
 6340 001a 3946     		mov	r1, r7
 6341 001c 0646     		mov	r6, r0
 6342 001e FFF7FEFF 		bl	GetASN_Sequence
 6343 0022 0028     		cmp	r0, #0
 6344 0024 54DB     		blt	.L1145
 6345 0026 DFF8C080 		ldr	r8, .L1147+16
 6346 002a DFF8C090 		ldr	r9, .L1147+20
 6347 002e DFF8C0A0 		ldr	r10, .L1147+24
 6348              	.L1131:
 6349 0032 059B     		ldr	r3, [sp, #20]
 6350 0034 AB42     		cmp	r3, r5
 6351 0036 03D3     		bcc	.L1144
 6352 0038 0020     		movs	r0, #0
 6353              	.L1129:
 6354 003a 0EB0     		add	sp, sp, #56
 6355              		@ sp needed
 6356 003c BDE8F087 		pop	{r4, r5, r6, r7, r8, r9, r10, pc}
 6357              	.L1144:
 6358 0040 1C22     		movs	r2, #28
 6359 0042 0021     		movs	r1, #0
 6360 0044 0DEB0200 		add	r0, sp, r2
 6361 0048 FFF7FEFF 		bl	memset
 6362 004c 1523     		movs	r3, #21
 6363 004e 0122     		movs	r2, #1
 6364 0050 0B93     		str	r3, [sp, #44]
 6365 0052 CDE90175 		strd	r7, r5, [sp, #4]
 6366 0056 0023     		movs	r3, #0
 6367 0058 1F48     		ldr	r0, .L1147
 6368 005a 0096     		str	r6, [sp]
 6369 005c 07A9     		add	r1, sp, #28
 6370 005e FFF7FEFF 		bl	GetASN_Items
 6371 0062 10F1940F 		cmn	r0, #148
 6372 0066 E4D0     		beq	.L1131
 6373 0068 0028     		cmp	r0, #0
 6374 006a E6D1     		bne	.L1129
 6375 006c 0C9B     		ldr	r3, [sp, #48]
 6376 006e 4345     		cmp	r3, r8
 6377 0070 1ED0     		beq	.L1135
 6378 0072 0ED8     		bhi	.L1136
 6379 0074 194A     		ldr	r2, .L1147+4
 6380 0076 9342     		cmp	r3, r2
 6381 0078 1ED0     		beq	.L1137
 6382 007a 02F14072 		add	r2, r2, #50331648
 6383 007e 9342     		cmp	r3, r2
 6384 0080 12D0     		beq	.L1138
 6385 0082 174A     		ldr	r2, .L1147+8
 6386 0084 9342     		cmp	r3, r2
 6387 0086 D4D1     		bne	.L1131
 6388 0088 2378     		ldrb	r3, [r4]	@ zero_extendqisi2
 6389 008a 43F00103 		orr	r3, r3, #1
 6390              	.L1146:
 6391 008e 2370     		strb	r3, [r4]
ARM GAS  /tmp/cciZhAVO.s 			page 110


 6392 0090 CFE7     		b	.L1131
 6393              	.L1136:
 6394 0092 4B45     		cmp	r3, r9
 6395 0094 18D0     		beq	.L1141
 6396 0096 5345     		cmp	r3, r10
 6397 0098 12D0     		beq	.L1142
 6398 009a 124A     		ldr	r2, .L1147+12
 6399 009c 9342     		cmp	r3, r2
 6400 009e C8D1     		bne	.L1131
 6401 00a0 2378     		ldrb	r3, [r4]	@ zero_extendqisi2
 6402 00a2 43F00403 		orr	r3, r3, #4
 6403 00a6 F2E7     		b	.L1146
 6404              	.L1138:
 6405 00a8 2378     		ldrb	r3, [r4]	@ zero_extendqisi2
 6406 00aa 43F00203 		orr	r3, r3, #2
 6407 00ae EEE7     		b	.L1146
 6408              	.L1135:
 6409 00b0 2378     		ldrb	r3, [r4]	@ zero_extendqisi2
 6410 00b2 43F00803 		orr	r3, r3, #8
 6411 00b6 EAE7     		b	.L1146
 6412              	.L1137:
 6413 00b8 2378     		ldrb	r3, [r4]	@ zero_extendqisi2
 6414 00ba 43F01003 		orr	r3, r3, #16
 6415 00be E6E7     		b	.L1146
 6416              	.L1142:
 6417 00c0 2378     		ldrb	r3, [r4]	@ zero_extendqisi2
 6418 00c2 43F02003 		orr	r3, r3, #32
 6419 00c6 E2E7     		b	.L1146
 6420              	.L1141:
 6421 00c8 2378     		ldrb	r3, [r4]	@ zero_extendqisi2
 6422 00ca 43F04003 		orr	r3, r3, #64
 6423 00ce DEE7     		b	.L1146
 6424              	.L1145:
 6425 00d0 6FF08B00 		mvn	r0, #139
 6426 00d4 B1E7     		b	.L1129
 6427              	.L1148:
 6428 00d6 00BF     		.align	2
 6429              	.L1147:
 6430 00d8 00000000 		.word	.LANCHOR79
 6431 00dc 2E010201 		.word	16908590
 6432 00e0 AA1DDA00 		.word	14294442
 6433 00e4 2E010207 		.word	117571886
 6434 00e8 2E010206 		.word	100794670
 6435 00ec 2E01020C 		.word	201457966
 6436 00f0 2E01020D 		.word	218235182
 6438              		.section	.text.DecodeExtensionType,"ax",%progbits
 6439              		.align	1
 6440              		.global	DecodeExtensionType
 6441              		.syntax unified
 6442              		.thumb
 6443              		.thumb_func
 6444              		.fpu fpv4-sp-d16
 6446              	DecodeExtensionType:
 6447              		@ args = 8, pretend = 0, frame = 104
 6448              		@ frame_needed = 0, uses_anonymous_args = 0
 6449 0000 2DE9F04F 		push	{r4, r5, r6, r7, r8, r9, r10, fp, lr}
 6450 0004 9FB0     		sub	sp, sp, #124
ARM GAS  /tmp/cciZhAVO.s 			page 111


 6451 0006 0646     		mov	r6, r0
 6452 0008 0F46     		mov	r7, r1
 6453 000a DDE92841 		ldrd	r4, r1, [sp, #160]
 6454 000e BC48     		ldr	r0, .L1256
 6455 0010 0029     		cmp	r1, #0
 6456 0012 00F01583 		beq	.L1150
 6457 0016 0025     		movs	r5, #0
 6458 0018 8242     		cmp	r2, r0
 6459 001a 0D60     		str	r5, [r1]
 6460 001c 00F0E080 		beq	.L1151
 6461 0020 22D8     		bhi	.L1152
 6462 0022 A0F5A020 		sub	r0, r0, #327680
 6463 0026 8242     		cmp	r2, r0
 6464 0028 00F0B182 		beq	.L1153
 6465 002c 10D8     		bhi	.L1154
 6466 002e A0F59010 		sub	r0, r0, #1179648
 6467 0032 8242     		cmp	r2, r0
 6468 0034 00F0A082 		beq	.L1155
 6469 0038 00F58810 		add	r0, r0, #1114112
 6470 003c 8242     		cmp	r2, r0
 6471 003e 00F06882 		beq	.L1156
 6472 0042 B048     		ldr	r0, .L1256+4
 6473 0044 8242     		cmp	r2, r0
 6474 0046 00F01083 		beq	.L1157
 6475              	.L1158:
 6476 004a 0122     		movs	r2, #1
 6477 004c 0A60     		str	r2, [r1]
 6478 004e 07E0     		b	.L1160
 6479              	.L1154:
 6480 0050 AD48     		ldr	r0, .L1256+8
 6481 0052 8242     		cmp	r2, r0
 6482 0054 00F03283 		beq	.L1159
 6483 0058 00F54030 		add	r0, r0, #196608
 6484 005c 8242     		cmp	r2, r0
 6485 005e F4D1     		bne	.L1158
 6486              	.L1160:
 6487 0060 002B     		cmp	r3, #0
 6488 0062 00F0F580 		beq	.L1248
 6489 0066 19E3     		b	.L1206
 6490              	.L1152:
 6491 0068 A848     		ldr	r0, .L1256+12
 6492 006a 8242     		cmp	r2, r0
 6493 006c 00F03682 		beq	.L1161
 6494 0070 4FD8     		bhi	.L1162
 6495 0072 A0F58020 		sub	r0, r0, #262144
 6496 0076 8242     		cmp	r2, r0
 6497 0078 6BD0     		beq	.L1163
 6498 007a 00F50030 		add	r0, r0, #131072
 6499 007e 8242     		cmp	r2, r0
 6500 0080 00F05281 		beq	.L1164
 6501 0084 A0F55020 		sub	r0, r0, #851968
 6502 0088 8242     		cmp	r2, r0
 6503 008a DED1     		bne	.L1158
 6504              	.L1165:
 6505 008c 94F86093 		ldrb	r9, [r4, #864]	@ zero_extendqisi2
 6506 0090 19F0100F 		tst	r9, #16
 6507 0094 14BF     		ite	ne
ARM GAS  /tmp/cciZhAVO.s 			page 112


 6508 0096 0025     		movne	r5, #0
 6509 0098 6FF0C505 		mvneq	r5, #197
 6510 009c 19F00809 		ands	r9, r9, #8
 6511 00a0 5CD1     		bne	.L1173
 6512 00a2 003B     		subs	r3, r3, #0
 6513 00a4 18BF     		it	ne
 6514 00a6 0123     		movne	r3, #1
 6515 00a8 D4F86023 		ldr	r2, [r4, #864]
 6516 00ac 1B06     		lsls	r3, r3, #24
 6517 00ae 22F08072 		bic	r2, r2, #16777216
 6518 00b2 22F00802 		bic	r2, r2, #8
 6519 00b6 43F00803 		orr	r3, r3, #8
 6520 00ba 1343     		orrs	r3, r3, r2
 6521 00bc 5420     		movs	r0, #84
 6522 00be C4F86033 		str	r3, [r4, #864]
 6523 00c2 CDF82490 		str	r9, [sp, #36]
 6524 00c6 FFF7FEFF 		bl	wolfSSL_Malloc
 6525 00ca 8046     		mov	r8, r0
 6526 00cc 0028     		cmp	r0, #0
 6527 00ce 00F0C780 		beq	.L1218
 6528 00d2 5422     		movs	r2, #84
 6529 00d4 4946     		mov	r1, r9
 6530 00d6 FFF7FEFF 		bl	memset
 6531 00da 09AB     		add	r3, sp, #36
 6532 00dc CDE90063 		strd	r6, r3, [sp]
 6533 00e0 0322     		movs	r2, #3
 6534 00e2 0123     		movs	r3, #1
 6535 00e4 4146     		mov	r1, r8
 6536 00e6 8A48     		ldr	r0, .L1256+16
 6537 00e8 0297     		str	r7, [sp, #8]
 6538 00ea FFF7FEFF 		bl	GetASN_Items
 6539 00ee 0646     		mov	r6, r0
 6540 00f0 48B9     		cbnz	r0, .L1215
 6541 00f2 D8F82400 		ldr	r0, [r8, #36]
 6542 00f6 0028     		cmp	r0, #0
 6543 00f8 40F02C82 		bne	.L1213
 6544              	.L1216:
 6545 00fc D8F84000 		ldr	r0, [r8, #64]
 6546 0100 0028     		cmp	r0, #0
 6547 0102 40F03282 		bne	.L1214
 6548              	.L1215:
 6549 0106 4046     		mov	r0, r8
 6550 0108 FFF7FEFF 		bl	wolfSSL_Free
 6551 010c 002E     		cmp	r6, #0
 6552 010e 27DA     		bge	.L1149
 6553 0110 A6E0     		b	.L1218
 6554              	.L1162:
 6555 0112 8048     		ldr	r0, .L1256+20
 6556 0114 8242     		cmp	r2, r0
 6557 0116 00F0B481 		beq	.L1166
 6558 011a 00F58C20 		add	r0, r0, #286720
 6559 011e 00F26E30 		addw	r0, r0, #878
 6560 0122 8242     		cmp	r2, r0
 6561 0124 91D1     		bne	.L1158
 6562              	.L1167:
 6563 0126 0025     		movs	r5, #0
 6564 0128 3B46     		mov	r3, r7
ARM GAS  /tmp/cciZhAVO.s 			page 113


 6565 012a 3046     		mov	r0, r6
 6566 012c CDE90055 		strd	r5, r5, [sp]
 6567 0130 09AA     		add	r2, sp, #36
 6568 0132 08A9     		add	r1, sp, #32
 6569 0134 CDE90855 		strd	r5, r5, [sp, #32]
 6570 0138 FFF7FEFF 		bl	CheckBitString
 6571 013c A842     		cmp	r0, r5
 6572 013e C0F28F80 		blt	.L1218
 6573 0142 089B     		ldr	r3, [sp, #32]
 6574 0144 9F42     		cmp	r7, r3
 6575 0146 40F28B80 		bls	.L1218
 6576 014a F35C     		ldrb	r3, [r6, r3]	@ zero_extendqisi2
 6577 014c 84F82C33 		strb	r3, [r4, #812]
 6578 0150 06E0     		b	.L1149
 6579              	.L1163:
 6580 0152 94F86123 		ldrb	r2, [r4, #865]	@ zero_extendqisi2
 6581 0156 12F00802 		ands	r2, r2, #8
 6582 015a 05D0     		beq	.L1168
 6583              	.L1173:
 6584 015c 6FF08F05 		mvn	r5, #143
 6585              	.L1149:
 6586 0160 2846     		mov	r0, r5
 6587 0162 1FB0     		add	sp, sp, #124
 6588              		@ sp needed
 6589 0164 BDE8F08F 		pop	{r4, r5, r6, r7, r8, r9, r10, fp, pc}
 6590              	.L1168:
 6591 0168 003B     		subs	r3, r3, #0
 6592 016a 18BF     		it	ne
 6593 016c 0123     		movne	r3, #1
 6594 016e D4F86013 		ldr	r1, [r4, #864]
 6595 0172 1B05     		lsls	r3, r3, #20
 6596 0174 21F48011 		bic	r1, r1, #1048576
 6597 0178 21F40061 		bic	r1, r1, #2048
 6598 017c 43F40063 		orr	r3, r3, #2048
 6599 0180 0B43     		orrs	r3, r3, r1
 6600 0182 C4F86033 		str	r3, [r4, #864]
 6601 0186 08AB     		add	r3, sp, #32
 6602 0188 8DF81C20 		strb	r2, [sp, #28]
 6603 018c ADF82420 		strh	r2, [sp, #36]	@ movhi
 6604 0190 8DF82020 		strb	r2, [sp, #32]
 6605 0194 0093     		str	r3, [sp]
 6606 0196 3946     		mov	r1, r7
 6607 0198 3046     		mov	r0, r6
 6608 019a 09AB     		add	r3, sp, #36
 6609 019c 07AA     		add	r2, sp, #28
 6610 019e FFF7FEFF 		bl	DecodeBasicCaConstraint
 6611 01a2 051E     		subs	r5, r0, #0
 6612 01a4 53D1     		bne	.L1170
 6613 01a6 9DF81C30 		ldrb	r3, [sp, #28]	@ zero_extendqisi2
 6614 01aa 9DF82010 		ldrb	r1, [sp, #32]	@ zero_extendqisi2
 6615 01ae 1A1E     		subs	r2, r3, #0
 6616 01b0 18BF     		it	ne
 6617 01b2 0122     		movne	r2, #1
 6618 01b4 0029     		cmp	r1, #0
 6619 01b6 14BF     		ite	ne
 6620 01b8 0123     		movne	r3, #1
 6621 01ba 0023     		moveq	r3, #0
ARM GAS  /tmp/cciZhAVO.s 			page 114


 6622 01bc 4FEA4313 		lsl	r3, r3, #5
 6623 01c0 43EA0213 		orr	r3, r3, r2, lsl #4
 6624 01c4 94F86023 		ldrb	r2, [r4, #864]	@ zero_extendqisi2
 6625 01c8 22F03002 		bic	r2, r2, #48
 6626 01cc 43EA0203 		orr	r3, r3, r2
 6627 01d0 84F86033 		strb	r3, [r4, #864]
 6628 01d4 C4D0     		beq	.L1149
 6629 01d6 BDF82430 		ldrh	r3, [sp, #36]
 6630 01da A4F8FC32 		strh	r3, [r4, #764]	@ movhi
 6631 01de BFE7     		b	.L1149
 6632              	.L1151:
 6633 01e0 94F86153 		ldrb	r5, [r4, #865]	@ zero_extendqisi2
 6634 01e4 15F00205 		ands	r5, r5, #2
 6635 01e8 B8D1     		bne	.L1173
 6636 01ea 003B     		subs	r3, r3, #0
 6637 01ec 18BF     		it	ne
 6638 01ee 0123     		movne	r3, #1
 6639 01f0 D4F86023 		ldr	r2, [r4, #864]
 6640 01f4 9B04     		lsls	r3, r3, #18
 6641 01f6 22F48022 		bic	r2, r2, #262144
 6642 01fa 22F40072 		bic	r2, r2, #512
 6643 01fe 43F40073 		orr	r3, r3, #512
 6644 0202 1343     		orrs	r3, r3, r2
 6645 0204 E020     		movs	r0, #224
 6646 0206 C4F86033 		str	r3, [r4, #864]
 6647 020a 0995     		str	r5, [sp, #36]
 6648 020c FFF7FEFF 		bl	wolfSSL_Malloc
 6649 0210 8046     		mov	r8, r0
 6650 0212 F8B1     		cbz	r0, .L1225
 6651 0214 E022     		movs	r2, #224
 6652 0216 2946     		mov	r1, r5
 6653 0218 FFF7FEFF 		bl	memset
 6654              	.L1174:
 6655 021c C4E9AF67 		strd	r6, r7, [r4, #700]
 6656 0220 DDB9     		cbnz	r5, .L1175
 6657 0222 0B23     		movs	r3, #11
 6658 0224 88F88830 		strb	r3, [r8, #136]
 6659 0228 3B4B     		ldr	r3, .L1256+24
 6660 022a 0822     		movs	r2, #8
 6661 022c C8F87830 		str	r3, [r8, #120]
 6662 0230 09AB     		add	r3, sp, #36
 6663 0232 CDE90063 		strd	r6, r3, [sp]
 6664 0236 4146     		mov	r1, r8
 6665 0238 2B46     		mov	r3, r5
 6666 023a 3848     		ldr	r0, .L1256+28
 6667 023c 0297     		str	r7, [sp, #8]
 6668 023e FFF7FEFF 		bl	GetASN_Items
 6669 0242 0546     		mov	r5, r0
 6670 0244 78B1     		cbz	r0, .L1176
 6671              	.L1177:
 6672 0246 4046     		mov	r0, r8
 6673 0248 FFF7FEFF 		bl	wolfSSL_Free
 6674              	.L1207:
 6675 024c 002D     		cmp	r5, #0
 6676              	.L1170:
 6677 024e 07DB     		blt	.L1218
 6678              	.L1248:
ARM GAS  /tmp/cciZhAVO.s 			page 115


 6679 0250 0025     		movs	r5, #0
 6680 0252 85E7     		b	.L1149
 6681              	.L1225:
 6682 0254 6FF07C05 		mvn	r5, #124
 6683 0258 E0E7     		b	.L1174
 6684              	.L1175:
 6685 025a B8F1000F 		cmp	r8, #0
 6686 025e F2D1     		bne	.L1177
 6687              	.L1218:
 6688 0260 6FF08B05 		mvn	r5, #139
 6689 0264 7CE7     		b	.L1149
 6690              	.L1176:
 6691 0266 98F88930 		ldrb	r3, [r8, #137]	@ zero_extendqisi2
 6692 026a 862B     		cmp	r3, #134
 6693 026c 01BF     		itttt	eq
 6694 026e D8F87830 		ldreq	r3, [r8, #120]
 6695 0272 C4F8C432 		streq	r3, [r4, #708]
 6696 0276 D8F87C30 		ldreq	r3, [r8, #124]
 6697 027a C4F8C832 		streq	r3, [r4, #712]
 6698 027e E2E7     		b	.L1177
 6699              	.L1180:
 6700 0280 CDE90733 		strd	r3, r3, [sp, #28]
 6701 0284 0123     		movs	r3, #1
 6702 0286 07AD     		add	r5, sp, #28
 6703 0288 0093     		str	r3, [sp]
 6704 028a 2946     		mov	r1, r5
 6705 028c 3B46     		mov	r3, r7
 6706 028e 3046     		mov	r0, r6
 6707 0290 08AA     		add	r2, sp, #32
 6708 0292 FFF7FEFF 		bl	GetASN_Sequence
 6709 0296 0028     		cmp	r0, #0
 6710 0298 E2DB     		blt	.L1218
 6711 029a DFF87C80 		ldr	r8, .L1256+24
 6712 029e DFF88090 		ldr	r9, .L1256+32
 6713 02a2 DFF880A0 		ldr	r10, .L1256+36
 6714              	.L1181:
 6715 02a6 079B     		ldr	r3, [sp, #28]
 6716 02a8 9F42     		cmp	r7, r3
 6717 02aa D1D9     		bls	.L1248
 6718 02ac 5422     		movs	r2, #84
 6719 02ae 0021     		movs	r1, #0
 6720 02b0 09A8     		add	r0, sp, #36
 6721 02b2 FFF7FEFF 		bl	memset
 6722 02b6 0723     		movs	r3, #7
 6723 02b8 1493     		str	r3, [sp, #80]
 6724 02ba 0B23     		movs	r3, #11
 6725 02bc 0322     		movs	r2, #3
 6726 02be 8DF87430 		strb	r3, [sp, #116]
 6727 02c2 4846     		mov	r0, r9
 6728 02c4 0023     		movs	r3, #0
 6729 02c6 CDE90157 		strd	r5, r7, [sp, #4]
 6730 02ca 0096     		str	r6, [sp]
 6731 02cc 09A9     		add	r1, sp, #36
 6732 02ce CDF86480 		str	r8, [sp, #100]
 6733 02d2 FFF7FEFF 		bl	GetASN_Items
 6734 02d6 0028     		cmp	r0, #0
 6735 02d8 B9D1     		bne	.L1170
ARM GAS  /tmp/cciZhAVO.s 			page 116


 6736 02da 159B     		ldr	r3, [sp, #84]
 6737 02dc 5345     		cmp	r3, r10
 6738 02de E2D1     		bne	.L1181
 6739 02e0 9DF87530 		ldrb	r3, [sp, #117]	@ zero_extendqisi2
 6740 02e4 862B     		cmp	r3, #134
 6741 02e6 DED1     		bne	.L1181
 6742 02e8 D4F8B432 		ldr	r3, [r4, #692]
 6743 02ec 002B     		cmp	r3, #0
 6744 02ee DAD1     		bne	.L1181
 6745 02f0 199B     		ldr	r3, [sp, #100]
 6746 02f2 C4F8B432 		str	r3, [r4, #692]
 6747 02f6 1A9B     		ldr	r3, [sp, #104]
 6748 02f8 C4F8B832 		str	r3, [r4, #696]
 6749 02fc D3E7     		b	.L1181
 6750              	.L1257:
 6751 02fe 00BF     		.align	2
 6752              	.L1256:
 6753 0300 AA1DE07F 		.word	2145394090
 6754 0304 2E010004 		.word	67109166
 6755 0308 AA1DDC7F 		.word	2145131946
 6756 030c AA1DF07F 		.word	2146442666
 6757 0310 00000000 		.word	.LANCHOR83
 6758 0314 AA1DF17F 		.word	2146508202
 6759 0318 00000000 		.word	.LANCHOR65
 6760 031c 00000000 		.word	.LANCHOR80
 6761 0320 00000000 		.word	.LANCHOR81
 6762 0324 2E013104 		.word	70320430
 6763              	.L1164:
 6764 0328 94F96123 		ldrsb	r2, [r4, #865]
 6765 032c 002A     		cmp	r2, #0
 6766 032e FFF615AF 		blt	.L1173
 6767 0332 003B     		subs	r3, r3, #0
 6768 0334 18BF     		it	ne
 6769 0336 0123     		movne	r3, #1
 6770 0338 D4F86023 		ldr	r2, [r4, #864]
 6771 033c 9B05     		lsls	r3, r3, #22
 6772 033e 22F48102 		bic	r2, r2, #4227072
 6773 0342 43F40043 		orr	r3, r3, #32768
 6774 0346 1343     		orrs	r3, r3, r2
 6775 0348 C4F86033 		str	r3, [r4, #864]
 6776 034c 0023     		movs	r3, #0
 6777 034e CDE90533 		strd	r3, r3, [sp, #20]
 6778 0352 0123     		movs	r3, #1
 6779 0354 0DF1140A 		add	r10, sp, #20
 6780 0358 0093     		str	r3, [sp]
 6781 035a 5146     		mov	r1, r10
 6782 035c 3B46     		mov	r3, r7
 6783 035e 3046     		mov	r0, r6
 6784 0360 06AA     		add	r2, sp, #24
 6785 0362 FFF7FEFF 		bl	GetASN_Sequence
 6786 0366 0546     		mov	r5, r0
 6787 0368 0028     		cmp	r0, #0
 6788 036a 7FF479AF 		bne	.L1218
 6789 036e 069B     		ldr	r3, [sp, #24]
 6790 0370 002B     		cmp	r3, #0
 6791 0372 3FF475AF 		beq	.L1218
 6792 0376 94F86023 		ldrb	r2, [r4, #864]	@ zero_extendqisi2
ARM GAS  /tmp/cciZhAVO.s 			page 117


 6793 037a 42F04002 		orr	r2, r2, #64
 6794 037e 84F86023 		strb	r2, [r4, #864]
 6795 0382 059A     		ldr	r2, [sp, #20]
 6796 0384 1344     		add	r3, r3, r2
 6797 0386 9F42     		cmp	r7, r3
 6798 0388 7FF46AAF 		bne	.L1218
 6799 038c 40F20149 		movw	r9, #1025
 6800              	.L1189:
 6801 0390 059B     		ldr	r3, [sp, #20]
 6802 0392 9F42     		cmp	r7, r3
 6803 0394 7FF6E4AE 		bls	.L1149
 6804 0398 B9F10109 		subs	r9, r9, #1
 6805 039c 02D1     		bne	.L1190
 6806              	.L1204:
 6807 039e 6FF0A005 		mvn	r5, #160
 6808 03a2 DDE6     		b	.L1149
 6809              	.L1190:
 6810 03a4 1C22     		movs	r2, #28
 6811 03a6 0021     		movs	r1, #0
 6812 03a8 09A8     		add	r0, sp, #36
 6813 03aa FFF7FEFF 		bl	memset
 6814 03ae 0B23     		movs	r3, #11
 6815 03b0 8DF83C30 		strb	r3, [sp, #60]
 6816 03b4 BB4B     		ldr	r3, .L1258
 6817 03b6 0122     		movs	r2, #1
 6818 03b8 0B93     		str	r3, [sp, #44]
 6819 03ba CDE901A7 		strd	r10, r7, [sp, #4]
 6820 03be 0023     		movs	r3, #0
 6821 03c0 B948     		ldr	r0, .L1258+4
 6822 03c2 0096     		str	r6, [sp]
 6823 03c4 09A9     		add	r1, sp, #36
 6824 03c6 FFF7FEFF 		bl	GetASN_Items
 6825 03ca A0BB     		cbnz	r0, .L1191
 6826 03cc 9DF83D30 		ldrb	r3, [sp, #61]	@ zero_extendqisi2
 6827 03d0 DDF828B0 		ldr	fp, [sp, #40]
 6828 03d4 822B     		cmp	r3, #130
 6829 03d6 DDF81480 		ldr	r8, [sp, #20]
 6830 03da 0FD1     		bne	.L1192
 6831 03dc 04F12403 		add	r3, r4, #36
 6832 03e0 0093     		str	r3, [sp]
 6833 03e2 0223     		movs	r3, #2
 6834              	.L1254:
 6835 03e4 5A46     		mov	r2, fp
 6836 03e6 D4F88002 		ldr	r0, [r4, #640]
 6837 03ea 06EB0801 		add	r1, r6, r8
 6838 03ee FFF7FEFF 		bl	SetDNSEntry
 6839 03f2 00BB     		cbnz	r0, .L1191
 6840              	.L1249:
 6841 03f4 D844     		add	r8, r8, fp
 6842              	.L1193:
 6843 03f6 CDF81480 		str	r8, [sp, #20]
 6844 03fa C9E7     		b	.L1189
 6845              	.L1192:
 6846 03fc A42B     		cmp	r3, #164
 6847 03fe 1CD1     		bne	.L1194
 6848 0400 0123     		movs	r3, #1
 6849 0402 CDF82080 		str	r8, [sp, #32]
ARM GAS  /tmp/cciZhAVO.s 			page 118


 6850 0406 D844     		add	r8, r8, fp
 6851 0408 0093     		str	r3, [sp]
 6852 040a 3046     		mov	r0, r6
 6853 040c 4346     		mov	r3, r8
