ARM GAS  /tmp/cciZhAVO.s 			page 1


   1              		.cpu cortex-m33
   2              		.eabi_attribute 27, 1
   3              		.eabi_attribute 28, 1
   4              		.eabi_attribute 20, 1
   5              		.eabi_attribute 21, 1
   6              		.eabi_attribute 23, 3
   7              		.eabi_attribute 24, 1
   8              		.eabi_attribute 25, 1
   9              		.eabi_attribute 26, 1
  10              		.eabi_attribute 30, 4
  11              		.eabi_attribute 34, 1
  12              		.eabi_attribute 18, 4
  13              		.file	"asn.c"
  14              		.text
  15              		.section	.text.BytePrecision,"ax",%progbits
  16              		.align	1
  17              		.arch armv8-m.main
  18              		.arch_extension dsp
  19              		.syntax unified
  20              		.thumb
  21              		.thumb_func
  22              		.fpu fpv4-sp-d16
  24              	BytePrecision:
  25              		@ args = 0, pretend = 0, frame = 0
  26              		@ frame_needed = 0, uses_anonymous_args = 0
  27              		@ link register save eliminated.
  28 0000 030E     		lsrs	r3, r0, #24
  29 0002 07D1     		bne	.L4
  30 0004 030C     		lsrs	r3, r0, #16
  31 0006 07D1     		bne	.L5
  32 0008 030A     		lsrs	r3, r0, #8
  33 000a 07D1     		bne	.L6
  34 000c 0028     		cmp	r0, #0
  35 000e 18BF     		it	ne
  36 0010 0120     		movne	r0, #1
  37 0012 7047     		bx	lr
  38              	.L4:
  39 0014 0420     		movs	r0, #4
  40 0016 7047     		bx	lr
  41              	.L5:
  42 0018 0320     		movs	r0, #3
  43 001a 7047     		bx	lr
  44              	.L6:
  45 001c 0220     		movs	r0, #2
  46 001e 7047     		bx	lr
  48              		.section	.text.SizeASN_Num,"ax",%progbits
  49              		.align	1
  50              		.syntax unified
  51              		.thumb
  52              		.thumb_func
  53              		.fpu fpv4-sp-d16
  55              	SizeASN_Num:
  56              		@ args = 0, pretend = 0, frame = 0
  57              		@ frame_needed = 0, uses_anonymous_args = 0
  58 0000 30B5     		push	{r4, r5, lr}
  59 0002 CD08     		lsrs	r5, r1, #3
  60 0004 B1F10804 		subs	r4, r1, #8
ARM GAS  /tmp/cciZhAVO.s 			page 2


  61 0008 0346     		mov	r3, r0
  62 000a 05F10200 		add	r0, r5, #2
  63 000e 05D0     		beq	.L10
  64 0010 33FA04FC 		lsrs	ip, r3, r4
  65 0014 04BF     		itt	eq
  66 0016 681C     		addeq	r0, r5, #1
  67 0018 A1F11004 		subeq	r4, r1, #16
  68              	.L10:
  69 001c 032A     		cmp	r2, #3
  70 001e 01D1     		bne	.L11
  71              	.L19:
  72 0020 0130     		adds	r0, r0, #1
  73 0022 04E0     		b	.L9
  74              	.L11:
  75 0024 022A     		cmp	r2, #2
  76 0026 02D1     		bne	.L9
  77 0028 E340     		lsrs	r3, r3, r4
  78 002a 1B06     		lsls	r3, r3, #24
  79 002c F8D4     		bmi	.L19
  80              	.L9:
  81 002e 30BD     		pop	{r4, r5, pc}
  83              		.section	.text.SetASN_Num,"ax",%progbits
  84              		.align	1
  85              		.syntax unified
  86              		.thumb
  87              		.thumb_func
  88              		.fpu fpv4-sp-d16
  90              	SetASN_Num:
  91              		@ args = 0, pretend = 0, frame = 0
  92              		@ frame_needed = 0, uses_anonymous_args = 0
  93 0000 70B5     		push	{r4, r5, r6, lr}
  94 0002 B1F10805 		subs	r5, r1, #8
  95 0006 C1F3C704 		ubfx	r4, r1, #3, #8
  96 000a 07D0     		beq	.L21
  97 000c 30FA05F6 		lsrs	r6, r0, r5
  98 0010 02BF     		ittt	eq
  99 0012 04F1FF34 		addeq	r4, r4, #-1
 100 0016 E4B2     		uxtbeq	r4, r4
 101 0018 A1F11005 		subeq	r5, r1, #16
 102              	.L21:
 103 001c 032B     		cmp	r3, #3
 104 001e 17D1     		bne	.L22
 105 0020 20FA05F3 		lsr	r3, r0, r5
 106 0024 DEB2     		uxtb	r6, r3
 107 0026 DB07     		lsls	r3, r3, #31
 108 0028 10D5     		bpl	.L29
 109 002a 0023     		movs	r3, #0
 110              	.L24:
 111 002c 0134     		adds	r4, r4, #1
 112 002e E4B2     		uxtb	r4, r4
 113              	.L35:
 114 0030 9370     		strb	r3, [r2, #2]
 115 0032 0323     		movs	r3, #3
 116              	.L26:
 117 0034 5470     		strb	r4, [r2, #1]
 118 0036 1A44     		add	r2, r2, r3
 119              	.L27:
ARM GAS  /tmp/cciZhAVO.s 			page 3


 120 0038 002D     		cmp	r5, #0
 121 003a 15DA     		bge	.L28
 122 003c 70BD     		pop	{r4, r5, r6, pc}
 123              	.L25:
 124 003e 0133     		adds	r3, r3, #1
 125 0040 DBB2     		uxtb	r3, r3
 126              	.L23:
 127 0042 46FA03F1 		asr	r1, r6, r3
 128 0046 C907     		lsls	r1, r1, #31
 129 0048 F9D5     		bpl	.L25
 130 004a EFE7     		b	.L24
 131              	.L29:
 132 004c 0123     		movs	r3, #1
 133 004e F8E7     		b	.L23
 134              	.L22:
 135 0050 022B     		cmp	r3, #2
 136 0052 07D1     		bne	.L30
 137 0054 20FA05F1 		lsr	r1, r0, r5
 138 0058 0906     		lsls	r1, r1, #24
 139 005a EBD5     		bpl	.L26
 140 005c 0134     		adds	r4, r4, #1
 141 005e 0023     		movs	r3, #0
 142 0060 E4B2     		uxtb	r4, r4
 143 0062 E5E7     		b	.L35
 144              	.L30:
 145 0064 0223     		movs	r3, #2
 146 0066 E5E7     		b	.L26
 147              	.L28:
 148 0068 20FA05F3 		lsr	r3, r0, r5
 149 006c 02F8013B 		strb	r3, [r2], #1
 150 0070 083D     		subs	r5, r5, #8
 151 0072 E1E7     		b	.L27
 153              		.section	.text.ForceZero,"ax",%progbits
 154              		.align	1
 155              		.syntax unified
 156              		.thumb
 157              		.thumb_func
 158              		.fpu fpv4-sp-d16
 160              	ForceZero:
 161              		@ args = 0, pretend = 0, frame = 8
 162              		@ frame_needed = 0, uses_anonymous_args = 0
 163 0000 73B5     		push	{r0, r1, r4, r5, r6, lr}
 164 0002 0346     		mov	r3, r0
 165 0004 0C46     		mov	r4, r1
 166 0006 BFF35B8F 		dmb	ish
 167 000a 0022     		movs	r2, #0
 168              	.L37:
 169 000c 13F00301 		ands	r1, r3, #3
 170 0010 13D1     		bne	.L39
 171 0012 24F00305 		bic	r5, r4, #3
 172 0016 2A46     		mov	r2, r5
 173 0018 1846     		mov	r0, r3
 174 001a 0191     		str	r1, [sp, #4]
 175 001c FFF7FEFF 		bl	memset
 176 0020 6FF00302 		mvn	r2, #3
 177 0024 A608     		lsrs	r6, r4, #2
 178 0026 02FB0642 		mla	r2, r2, r6, r4
ARM GAS  /tmp/cciZhAVO.s 			page 4


 179 002a 0199     		ldr	r1, [sp, #4]
 180 002c 2844     		add	r0, r0, r5
 181 002e FFF7FEFF 		bl	memset
 182 0032 BFF35B8F 		dmb	ish
 183              	.L36:
 184 0036 02B0     		add	sp, sp, #8
 185              		@ sp needed
 186 0038 70BD     		pop	{r4, r5, r6, pc}
 187              	.L39:
 188 003a 002C     		cmp	r4, #0
 189 003c FBD0     		beq	.L36
 190 003e 03F8012B 		strb	r2, [r3], #1
 191 0042 013C     		subs	r4, r4, #1
 192 0044 E2E7     		b	.L37
 194              		.section	.text.MatchBaseName,"ax",%progbits
 195              		.align	1
 196              		.syntax unified
 197              		.thumb
 198              		.thumb_func
 199              		.fpu fpv4-sp-d16
 201              	MatchBaseName:
 202              		@ args = 4, pretend = 0, frame = 0
 203              		@ frame_needed = 0, uses_anonymous_args = 0
 204 0000 F8B5     		push	{r3, r4, r5, r6, r7, lr}
 205 0002 069D     		ldr	r5, [sp, #24]
 206 0004 0C46     		mov	r4, r1
 207 0006 1946     		mov	r1, r3
 208 0008 002B     		cmp	r3, #0
 209 000a 55D0     		beq	.L70
 210 000c 002D     		cmp	r5, #0
 211 000e 53DD     		ble	.L70
 212 0010 002C     		cmp	r4, #0
 213 0012 51D0     		beq	.L70
 214 0014 002A     		cmp	r2, #0
 215 0016 4FDD     		ble	.L70
 216 0018 2378     		ldrb	r3, [r4]	@ zero_extendqisi2
 217 001a 2E2B     		cmp	r3, #46
 218 001c 4CD0     		beq	.L70
 219 001e 9542     		cmp	r5, r2
 220 0020 4ADC     		bgt	.L70
 221 0022 431E     		subs	r3, r0, #1
 222 0024 012B     		cmp	r3, #1
 223 0026 09D9     		bls	.L46
 224 0028 0428     		cmp	r0, #4
 225 002a 45D1     		bne	.L70
 226 002c 2A46     		mov	r2, r5
 227 002e 2046     		mov	r0, r4
 228 0030 FFF7FEFF 		bl	memcmp
 229 0034 B0FA80F0 		clz	r0, r0
 230 0038 4009     		lsrs	r0, r0, #5
 231              	.L44:
 232 003a F8BD     		pop	{r3, r4, r5, r6, r7, pc}
 233              	.L46:
 234 003c 0128     		cmp	r0, #1
 235 003e 0FD1     		bne	.L47
 236 0040 0E78     		ldrb	r6, [r1]	@ zero_extendqisi2
 237 0042 2E2E     		cmp	r6, #46
ARM GAS  /tmp/cciZhAVO.s 			page 5


 238 0044 17D1     		bne	.L69
 239              	.L49:
 240 0046 2046     		mov	r0, r4
 241 0048 0023     		movs	r3, #0
 242              	.L52:
 243 004a 0746     		mov	r7, r0
 244 004c 97F800C0 		ldrb	ip, [r7]	@ zero_extendqisi2
 245 0050 0130     		adds	r0, r0, #1
 246 0052 BCF1400F 		cmp	ip, #64
 247 0056 31D0     		beq	.L54
 248 0058 AB42     		cmp	r3, r5
 249 005a 17D1     		bne	.L55
 250              	.L56:
 251 005c 2E2E     		cmp	r6, #46
 252 005e 0ED1     		bne	.L53
 253              	.L47:
 254 0060 521B     		subs	r2, r2, r5
 255 0062 1444     		add	r4, r4, r2
 256 0064 2A46     		mov	r2, r5
 257 0066 0AE0     		b	.L53
 258              	.L51:
 259 0068 0133     		adds	r3, r3, #1
 260              	.L48:
 261 006a C85C     		ldrb	r0, [r1, r3]	@ zero_extendqisi2
 262 006c 4028     		cmp	r0, #64
 263 006e 04D0     		beq	.L50
 264 0070 AB42     		cmp	r3, r5
 265 0072 F9D1     		bne	.L51
 266 0074 E7E7     		b	.L49
 267              	.L69:
 268 0076 0023     		movs	r3, #0
 269 0078 F7E7     		b	.L48
 270              	.L50:
 271 007a AB42     		cmp	r3, r5
 272 007c E3DA     		bge	.L49
 273              	.L53:
 274 007e 124B     		ldr	r3, .L74
 275 0080 481E     		subs	r0, r1, #1
 276 0082 013C     		subs	r4, r4, #1
 277              	.L57:
 278 0084 002A     		cmp	r2, #0
 279 0086 03DC     		bgt	.L60
 280 0088 0120     		movs	r0, #1
 281 008a D6E7     		b	.L44
 282              	.L55:
 283 008c 0133     		adds	r3, r3, #1
 284 008e DCE7     		b	.L52
 285              	.L60:
 286 0090 14F8016F 		ldrb	r6, [r4, #1]!	@ zero_extendqisi2
 287 0094 F55C     		ldrb	r5, [r6, r3]	@ zero_extendqisi2
 288 0096 05F00305 		and	r5, r5, #3
 289 009a 012D     		cmp	r5, #1
 290 009c 10F8015F 		ldrb	r5, [r0, #1]!	@ zero_extendqisi2
 291 00a0 08BF     		it	eq
 292 00a2 2036     		addeq	r6, r6, #32
 293 00a4 5F5D     		ldrb	r7, [r3, r5]	@ zero_extendqisi2
 294 00a6 07F00307 		and	r7, r7, #3
ARM GAS  /tmp/cciZhAVO.s 			page 6


 295 00aa 012F     		cmp	r7, #1
 296 00ac 08BF     		it	eq
 297 00ae 2035     		addeq	r5, r5, #32
 298 00b0 AE42     		cmp	r6, r5
 299 00b2 01D1     		bne	.L70
 300 00b4 013A     		subs	r2, r2, #1
 301 00b6 E5E7     		b	.L57
 302              	.L70:
 303 00b8 0020     		movs	r0, #0
 304 00ba BEE7     		b	.L44
 305              	.L54:
 306 00bc AB42     		cmp	r3, r5
 307 00be CDDA     		bge	.L56
 308 00c0 0133     		adds	r3, r3, #1
 309 00c2 7C1C     		adds	r4, r7, #1
 310 00c4 D21A     		subs	r2, r2, r3
 311 00c6 C9E7     		b	.L56
 312              	.L75:
 313              		.align	2
 314              	.L74:
 315 00c8 01000000 		.word	_ctype_+1
 317              		.section	.text.IsInExcludedList,"ax",%progbits
 318              		.align	1
 319              		.syntax unified
 320              		.thumb
 321              		.thumb_func
 322              		.fpu fpv4-sp-d16
 324              	IsInExcludedList:
 325              		@ args = 0, pretend = 0, frame = 0
 326              		@ frame_needed = 0, uses_anonymous_args = 0
 327 0000 73B5     		push	{r0, r1, r4, r5, r6, lr}
 328 0002 0546     		mov	r5, r0
 329 0004 0C46     		mov	r4, r1
 330 0006 1646     		mov	r6, r2
 331              	.L77:
 332 0008 14B9     		cbnz	r4, .L80
 333 000a 2046     		mov	r0, r4
 334              	.L76:
 335 000c 02B0     		add	sp, sp, #8
 336              		@ sp needed
 337 000e 70BD     		pop	{r4, r5, r6, pc}
 338              	.L80:
 339 0010 237B     		ldrb	r3, [r4, #12]	@ zero_extendqisi2
 340 0012 B342     		cmp	r3, r6
 341 0014 0AD1     		bne	.L78
 342 0016 AA68     		ldr	r2, [r5, #8]
 343 0018 A368     		ldr	r3, [r4, #8]
 344 001a 9A42     		cmp	r2, r3
 345 001c 06DB     		blt	.L78
 346 001e 0093     		str	r3, [sp]
 347 0020 3046     		mov	r0, r6
 348 0022 6368     		ldr	r3, [r4, #4]
 349 0024 E968     		ldr	r1, [r5, #12]
 350 0026 FFF7FEFF 		bl	MatchBaseName
 351 002a 08B9     		cbnz	r0, .L81
 352              	.L78:
 353 002c 2468     		ldr	r4, [r4]
ARM GAS  /tmp/cciZhAVO.s 			page 7


 354 002e EBE7     		b	.L77
 355              	.L81:
 356 0030 0120     		movs	r0, #1
 357 0032 EBE7     		b	.L76
 359              		.section	.text.PermittedListOk,"ax",%progbits
 360              		.align	1
 361              		.syntax unified
 362              		.thumb
 363              		.thumb_func
 364              		.fpu fpv4-sp-d16
 366              	PermittedListOk:
 367              		@ args = 0, pretend = 0, frame = 0
 368              		@ frame_needed = 0, uses_anonymous_args = 0
 369 0000 73B5     		push	{r0, r1, r4, r5, r6, lr}
 370 0002 0023     		movs	r3, #0
 371 0004 0546     		mov	r5, r0
 372 0006 0C46     		mov	r4, r1
 373 0008 1646     		mov	r6, r2
 374              	.L83:
 375 000a 1CB9     		cbnz	r4, .L86
 376 000c C3F10100 		rsb	r0, r3, #1
 377              	.L82:
 378 0010 02B0     		add	sp, sp, #8
 379              		@ sp needed
 380 0012 70BD     		pop	{r4, r5, r6, pc}
 381              	.L86:
 382 0014 227B     		ldrb	r2, [r4, #12]	@ zero_extendqisi2
 383 0016 B242     		cmp	r2, r6
 384 0018 0BD1     		bne	.L84
 385 001a AA68     		ldr	r2, [r5, #8]
 386 001c A368     		ldr	r3, [r4, #8]
 387 001e 9A42     		cmp	r2, r3
 388 0020 06DB     		blt	.L87
 389 0022 0093     		str	r3, [sp]
 390 0024 3046     		mov	r0, r6
 391 0026 6368     		ldr	r3, [r4, #4]
 392 0028 E968     		ldr	r1, [r5, #12]
 393 002a FFF7FEFF 		bl	MatchBaseName
 394 002e 10B9     		cbnz	r0, .L88
 395              	.L87:
 396 0030 0123     		movs	r3, #1
 397              	.L84:
 398 0032 2468     		ldr	r4, [r4]
 399 0034 E9E7     		b	.L83
 400              	.L88:
 401 0036 0120     		movs	r0, #1
 402 0038 EAE7     		b	.L82
 404              		.section	.text.CheckCurve,"ax",%progbits
 405              		.align	1
 406              		.syntax unified
 407              		.thumb
 408              		.thumb_func
 409              		.fpu fpv4-sp-d16
 411              	CheckCurve:
 412              		@ args = 0, pretend = 0, frame = 8
 413              		@ frame_needed = 0, uses_anonymous_args = 0
 414 0000 07B5     		push	{r0, r1, r2, lr}
ARM GAS  /tmp/cciZhAVO.s 			page 8


 415 0002 0021     		movs	r1, #0
 416 0004 01AA     		add	r2, sp, #4
 417 0006 FFF7FEFF 		bl	wc_ecc_get_oid
 418 000a 0028     		cmp	r0, #0
 419 000c 07DB     		blt	.L91
 420 000e 019B     		ldr	r3, [sp, #4]
 421 0010 002B     		cmp	r3, #0
 422 0012 08BF     		it	eq
 423 0014 6FF0AB00 		mvneq	r0, #171
 424              	.L89:
 425 0018 03B0     		add	sp, sp, #12
 426              		@ sp needed
 427 001a 5DF804FB 		ldr	pc, [sp], #4
 428              	.L91:
 429 001e 6FF0AB00 		mvn	r0, #171
 430 0022 F9E7     		b	.L89
 432              		.section	.text.SetASNLength,"ax",%progbits
 433              		.align	1
 434              		.global	SetASNLength
 435              		.syntax unified
 436              		.thumb
 437              		.thumb_func
 438              		.fpu fpv4-sp-d16
 440              	SetASNLength:
 441              		@ args = 0, pretend = 0, frame = 0
 442              		@ frame_needed = 0, uses_anonymous_args = 0
 443 0000 7F28     		cmp	r0, #127
 444 0002 0246     		mov	r2, r0
 445 0004 10B5     		push	{r4, lr}
 446 0006 02D8     		bhi	.L94
 447 0008 0870     		strb	r0, [r1]
 448 000a 0120     		movs	r0, #1
 449              	.L93:
 450 000c 10BD     		pop	{r4, pc}
 451              	.L94:
 452 000e FFF7FEFF 		bl	BytePrecision
 453 0012 60F07F03 		orn	r3, r0, #127
 454 0016 0B70     		strb	r3, [r1]
 455 0018 0346     		mov	r3, r0
 456              	.L96:
 457 001a 0BB9     		cbnz	r3, .L97
 458 001c 0130     		adds	r0, r0, #1
 459 001e F5E7     		b	.L93
 460              	.L97:
 461 0020 013B     		subs	r3, r3, #1
 462 0022 DC00     		lsls	r4, r3, #3
 463 0024 22FA04F4 		lsr	r4, r2, r4
 464 0028 01F8014F 		strb	r4, [r1, #1]!
 465 002c F5E7     		b	.L96
 467              		.section	.text.wc_AsnSetSkipDateCheck,"ax",%progbits
 468              		.align	1
 469              		.global	wc_AsnSetSkipDateCheck
 470              		.syntax unified
 471              		.thumb
 472              		.thumb_func
 473              		.fpu fpv4-sp-d16
 475              	wc_AsnSetSkipDateCheck:
ARM GAS  /tmp/cciZhAVO.s 			page 9


 476              		@ args = 0, pretend = 0, frame = 0
 477              		@ frame_needed = 0, uses_anonymous_args = 0
 478              		@ link register save eliminated.
 479 0000 6FF0AD00 		mvn	r0, #173
 480 0004 7047     		bx	lr
 482              		.section	.text.wc_AsnGetSkipDateCheck,"ax",%progbits
 483              		.align	1
 484              		.global	wc_AsnGetSkipDateCheck
 485              		.syntax unified
 486              		.thumb
 487              		.thumb_func
 488              		.fpu fpv4-sp-d16
 490              	wc_AsnGetSkipDateCheck:
 491              		@ args = 0, pretend = 0, frame = 0
 492              		@ frame_needed = 0, uses_anonymous_args = 0
 493              		@ link register save eliminated.
 494 0000 0020     		movs	r0, #0
 495 0002 7047     		bx	lr
 497              		.section	.text.SizeASN_Items,"ax",%progbits
 498              		.align	1
 499              		.global	SizeASN_Items
 500              		.syntax unified
 501              		.thumb
 502              		.thumb_func
 503              		.fpu fpv4-sp-d16
 505              	SizeASN_Items:
 506              		@ args = 0, pretend = 0, frame = 8
 507              		@ frame_needed = 0, uses_anonymous_args = 0
 508 0000 2DE9F74F 		push	{r0, r1, r2, r4, r5, r6, r7, r8, r9, r10, fp, lr}
 509 0004 1746     		mov	r7, r2
 510 0006 8146     		mov	r9, r0
 511 0008 0193     		str	r3, [sp, #4]
 512 000a 0028     		cmp	r0, #0
 513 000c 00F0D180 		beq	.L129
 514 0010 0029     		cmp	r1, #0
 515 0012 00F0CE80 		beq	.L129
 516 0016 002A     		cmp	r2, #0
 517 0018 40F3CB80 		ble	.L129
 518 001c 002B     		cmp	r3, #0
 519 001e 00F0C880 		beq	.L129
 520 0022 1424     		movs	r4, #20
 521 0024 1546     		mov	r5, r2
 522 0026 4FF00008 		mov	r8, #0
 523 002a 04FB0214 		mla	r4, r4, r2, r1
 524 002e 00EB8206 		add	r6, r0, r2, lsl #2
 525              	.L125:
 526 0032 14F8033C 		ldrb	r3, [r4, #-3]	@ zero_extendqisi2
 527 0036 A4F1140A 		sub	r10, r4, #20
 528 003a 6BB1     		cbz	r3, .L102
 529              	.L157:
 530 003c 013D     		subs	r5, r5, #1
 531 003e 44F8148C 		str	r8, [r4, #-20]
 532 0042 A6F10406 		sub	r6, r6, #4
 533 0046 5446     		mov	r4, r10
 534 0048 F3D1     		bne	.L125
 535 004a 2846     		mov	r0, r5
 536 004c 019B     		ldr	r3, [sp, #4]
ARM GAS  /tmp/cciZhAVO.s 			page 10


 537 004e C3F80080 		str	r8, [r3]
 538              	.L100:
 539 0052 03B0     		add	sp, sp, #12
 540              		@ sp needed
 541 0054 BDE8F08F 		pop	{r4, r5, r6, r7, r8, r9, r10, fp, pc}
 542              	.L102:
 543 0058 14F8043C 		ldrb	r3, [r4, #-4]	@ zero_extendqisi2
 544 005c 082B     		cmp	r3, #8
 545 005e 00F2A680 		bhi	.L130
 546 0062 DFE803F0 		tbb	[pc, r3]
 547              	.L106:
 548 0066 33       		.byte	(.L110-.L106)/2
 549 0067 05       		.byte	(.L109-.L106)/2
 550 0068 10       		.byte	(.L108-.L106)/2
 551 0069 A4       		.byte	(.L130-.L106)/2
 552 006a A4       		.byte	(.L130-.L106)/2
 553 006b A4       		.byte	(.L130-.L106)/2
 554 006c A4       		.byte	(.L130-.L106)/2
 555 006d 30       		.byte	(.L107-.L106)/2
 556 006e 16       		.byte	(.L105-.L106)/2
 557 006f 00       		.p2align 1
 558              	.L109:
 559 0070 0821     		movs	r1, #8
 560 0072 16F8032C 		ldrb	r2, [r6, #-3]	@ zero_extendqisi2
 561 0076 14F80C0C 		ldrb	r0, [r4, #-12]	@ zero_extendqisi2
 562              	.L156:
 563 007a FFF7FEFF 		bl	SizeASN_Num
 564              	.L104:
 565 007e 44F8100C 		str	r0, [r4, #-16]
 566 0082 8044     		add	r8, r8, r0
 567 0084 DAE7     		b	.L157
 568              	.L108:
 569 0086 1021     		movs	r1, #16
 570 0088 16F8032C 		ldrb	r2, [r6, #-3]	@ zero_extendqisi2
 571 008c 34F80C0C 		ldrh	r0, [r4, #-12]
 572 0090 F3E7     		b	.L156
 573              	.L105:
 574 0092 54F80C0C 		ldr	r0, [r4, #-12]
 575 0096 FFF7FEFF 		bl	sp_unsigned_bin_size
 576 009a 8346     		mov	fp, r0
 577 009c 54F80C0C 		ldr	r0, [r4, #-12]
 578 00a0 FFF7FEFF 		bl	sp_leading_bit
 579 00a4 0028     		cmp	r0, #0
 580 00a6 18BF     		it	ne
 581 00a8 0BF1010B 		addne	fp, fp, #1
 582 00ac BBF17F0F 		cmp	fp, #127
 583 00b0 07D9     		bls	.L131
 584 00b2 5846     		mov	r0, fp
 585 00b4 FFF7FEFF 		bl	BytePrecision
 586 00b8 0130     		adds	r0, r0, #1
 587              	.L111:
 588 00ba 0BF10101 		add	r1, fp, #1
 589              	.L124:
 590 00be 0844     		add	r0, r0, r1
 591 00c0 DDE7     		b	.L104
 592              	.L131:
 593 00c2 0120     		movs	r0, #1
ARM GAS  /tmp/cciZhAVO.s 			page 11


 594 00c4 F9E7     		b	.L111
 595              	.L107:
 596 00c6 54F8080C 		ldr	r0, [r4, #-8]
 597 00ca D8E7     		b	.L104
 598              	.L110:
 599 00cc 16F802BC 		ldrb	fp, [r6, #-2]	@ zero_extendqisi2
 600 00d0 1BF0020B 		ands	fp, fp, #2
 601 00d4 06D0     		beq	.L112
 602 00d6 54F80C2C 		ldr	r2, [r4, #-12]
 603 00da 2B46     		mov	r3, r5
 604 00dc BAB3     		cbz	r2, .L113
 605 00de 5146     		mov	r1, r10
 606              	.L114:
 607 00e0 BB42     		cmp	r3, r7
 608 00e2 25DB     		blt	.L115
 609              	.L112:
 610 00e4 16F8033C 		ldrb	r3, [r6, #-3]	@ zero_extendqisi2
 611 00e8 012B     		cmp	r3, #1
 612 00ea 5CD0     		beq	.L132
 613 00ec 032B     		cmp	r3, #3
 614 00ee 54F8081C 		ldr	r1, [r4, #-8]
 615 00f2 08D0     		beq	.L122
 616 00f4 022B     		cmp	r3, #2
 617 00f6 54D1     		bne	.L135
 618 00f8 54F80C2C 		ldr	r2, [r4, #-12]
 619 00fc 42B1     		cbz	r2, .L123
 620 00fe 92F90030 		ldrsb	r3, [r2]
 621 0102 002B     		cmp	r3, #0
 622 0104 4DDA     		bge	.L135
 623              	.L122:
 624 0106 BBF10002 		subs	r2, fp, #0
 625 010a 18BF     		it	ne
 626 010c 0122     		movne	r2, #1
 627 010e 0131     		adds	r1, r1, #1
 628              	.L123:
 629 0110 7F29     		cmp	r1, #127
 630 0112 4AD9     		bls	.L136
 631 0114 0846     		mov	r0, r1
 632 0116 FFF7FEFF 		bl	BytePrecision
 633 011a 0130     		adds	r0, r0, #1
 634              	.L121:
 635 011c 0132     		adds	r2, r2, #1
 636 011e 1044     		add	r0, r0, r2
 637 0120 BBF1000F 		cmp	fp, #0
 638 0124 CBD0     		beq	.L124
 639 0126 54F80C3C 		ldr	r3, [r4, #-12]
 640 012a 002B     		cmp	r3, #0
 641 012c C7D1     		bne	.L124
 642 012e A6E7     		b	.L104
 643              	.L115:
 644 0130 19F82300 		ldrb	r0, [r9, r3, lsl #2]	@ zero_extendqisi2
 645 0134 16F8042C 		ldrb	r2, [r6, #-4]	@ zero_extendqisi2
 646 0138 1431     		adds	r1, r1, #20
 647 013a 9042     		cmp	r0, r2
 648 013c D2D9     		bls	.L112
 649 013e 4A68     		ldr	r2, [r1, #4]
 650 0140 0133     		adds	r3, r3, #1
ARM GAS  /tmp/cciZhAVO.s 			page 12


 651 0142 A8EB0208 		sub	r8, r8, r2
 652 0146 4FF00102 		mov	r2, #1
 653 014a 4A74     		strb	r2, [r1, #17]
 654 014c C8E7     		b	.L114
 655              	.L113:
 656 014e D446     		mov	ip, r10
 657 0150 44F8082C 		str	r2, [r4, #-8]
 658              	.L116:
 659 0154 9F42     		cmp	r7, r3
 660 0156 C5DD     		ble	.L112
 661 0158 19F82320 		ldrb	r2, [r9, r3, lsl #2]	@ zero_extendqisi2
 662 015c 16F8041C 		ldrb	r1, [r6, #-4]	@ zero_extendqisi2
 663 0160 09EB8300 		add	r0, r9, r3, lsl #2
 664 0164 8A42     		cmp	r2, r1
 665 0166 BDD9     		bls	.L112
 666 0168 013A     		subs	r2, r2, #1
 667 016a 8A42     		cmp	r2, r1
 668 016c 15D1     		bne	.L118
 669 016e DCF81810 		ldr	r1, [ip, #24]
 670 0172 54F8082C 		ldr	r2, [r4, #-8]
 671 0176 0A44     		add	r2, r2, r1
 672 0178 8178     		ldrb	r1, [r0, #2]	@ zero_extendqisi2
 673 017a 44F8082C 		str	r2, [r4, #-8]
 674 017e 8907     		lsls	r1, r1, #30
 675 0180 0BD5     		bpl	.L118
 676 0182 DCF81C10 		ldr	r1, [ip, #28]
 677 0186 41B9     		cbnz	r1, .L118
 678 0188 9CF82410 		ldrb	r1, [ip, #36]	@ zero_extendqisi2
 679 018c 0729     		cmp	r1, #7
 680 018e 1EBF     		ittt	ne
 681 0190 DCF82000 		ldrne	r0, [ip, #32]
 682 0194 1218     		addne	r2, r2, r0
 683 0196 44F8082C 		strne	r2, [r4, #-8]
 684              	.L118:
 685 019a 0133     		adds	r3, r3, #1
 686 019c 0CF1140C 		add	ip, ip, #20
 687 01a0 D8E7     		b	.L116
 688              	.L135:
 689 01a2 0022     		movs	r2, #0
 690 01a4 B4E7     		b	.L123
 691              	.L132:
 692 01a6 1946     		mov	r1, r3
 693 01a8 0022     		movs	r2, #0
 694              	.L136:
 695 01aa 0120     		movs	r0, #1
 696 01ac B6E7     		b	.L121
 697              	.L130:
 698 01ae 0020     		movs	r0, #0
 699 01b0 65E7     		b	.L104
 700              	.L129:
 701 01b2 6FF0AC00 		mvn	r0, #172
 702 01b6 4CE7     		b	.L100
 704              		.section	.text.SetASN_Items,"ax",%progbits
 705              		.align	1
 706              		.global	SetASN_Items
 707              		.syntax unified
 708              		.thumb
ARM GAS  /tmp/cciZhAVO.s 			page 13


 709              		.thumb_func
 710              		.fpu fpv4-sp-d16
 712              	SetASN_Items:
 713              		@ args = 0, pretend = 0, frame = 8
 714              		@ frame_needed = 0, uses_anonymous_args = 0
 715 0000 2DE9F74F 		push	{r0, r1, r2, r4, r5, r6, r7, r8, r9, r10, fp, lr}
 716 0004 4FF00008 		mov	r8, #0
 717 0008 9246     		mov	r10, r2
 718 000a 9946     		mov	r9, r3
 719 000c 0C46     		mov	r4, r1
 720 000e 0646     		mov	r6, r0
 721 0010 C346     		mov	fp, r8
 722 0012 0F68     		ldr	r7, [r1]
 723              	.L159:
 724 0014 D045     		cmp	r8, r10
 725 0016 03DB     		blt	.L179
 726 0018 3846     		mov	r0, r7
 727              	.L158:
 728 001a 03B0     		add	sp, sp, #12
 729              		@ sp needed
 730 001c BDE8F08F 		pop	{r4, r5, r6, r7, r8, r9, r10, fp, pc}
 731              	.L179:
 732 0020 607C     		ldrb	r0, [r4, #17]	@ zero_extendqisi2
 733 0022 F0B9     		cbnz	r0, .L161
 734 0024 2268     		ldr	r2, [r4]
 735 0026 237C     		ldrb	r3, [r4, #16]	@ zero_extendqisi2
 736 0028 BA1A     		subs	r2, r7, r2
 737 002a 072B     		cmp	r3, #7
 738 002c 09EB0205 		add	r5, r9, r2
 739 0030 46D0     		beq	.L162
 740 0032 B378     		ldrb	r3, [r6, #2]	@ zero_extendqisi2
 741 0034 7178     		ldrb	r1, [r6, #1]	@ zero_extendqisi2
 742 0036 5B01     		lsls	r3, r3, #5
 743 0038 03F02003 		and	r3, r3, #32
 744 003c 0B43     		orrs	r3, r3, r1
 745 003e 09F80230 		strb	r3, [r9, r2]
 746 0042 237C     		ldrb	r3, [r4, #16]	@ zero_extendqisi2
 747 0044 082B     		cmp	r3, #8
 748 0046 0CD8     		bhi	.L161
 749 0048 DFE803F0 		tbb	[pc, r3]
 750              	.L164:
 751 004c 43       		.byte	(.L167-.L164)/2
 752 004d 05       		.byte	(.L166-.L164)/2
 753 004e 10       		.byte	(.L165-.L164)/2
 754 004f 0B       		.byte	(.L161-.L164)/2
 755 0050 0B       		.byte	(.L161-.L164)/2
 756 0051 0B       		.byte	(.L161-.L164)/2
 757 0052 0B       		.byte	(.L161-.L164)/2
 758 0053 39       		.byte	(.L181-.L164)/2
 759 0054 15       		.byte	(.L163-.L164)/2
 760 0055 00       		.p2align 1
 761              	.L166:
 762 0056 2A46     		mov	r2, r5
 763 0058 0821     		movs	r1, #8
 764 005a 7378     		ldrb	r3, [r6, #1]	@ zero_extendqisi2
 765 005c 207A     		ldrb	r0, [r4, #8]	@ zero_extendqisi2
 766              	.L198:
ARM GAS  /tmp/cciZhAVO.s 			page 14


 767 005e FFF7FEFF 		bl	SetASN_Num
 768              	.L161:
 769 0062 08F10108 		add	r8, r8, #1
 770 0066 1434     		adds	r4, r4, #20
 771 0068 0436     		adds	r6, r6, #4
 772 006a D3E7     		b	.L159
 773              	.L165:
 774 006c 2A46     		mov	r2, r5
 775 006e 1021     		movs	r1, #16
 776 0070 7378     		ldrb	r3, [r6, #1]	@ zero_extendqisi2
 777 0072 2089     		ldrh	r0, [r4, #8]
 778 0074 F3E7     		b	.L198
 779              	.L163:
 780 0076 A068     		ldr	r0, [r4, #8]
 781 0078 FFF7FEFF 		bl	sp_unsigned_bin_size
 782 007c 0090     		str	r0, [sp]
 783 007e A068     		ldr	r0, [r4, #8]
 784 0080 FFF7FEFF 		bl	sp_leading_bit
 785 0084 009B     		ldr	r3, [sp]
 786 0086 691C     		adds	r1, r5, #1
 787 0088 0028     		cmp	r0, #0
 788 008a 0CBF     		ite	eq
 789 008c 1846     		moveq	r0, r3
 790 008e 581C     		addne	r0, r3, #1
 791 0090 FFF7FEFF 		bl	SetASNLength
 792 0094 411C     		adds	r1, r0, #1
 793 0096 CDE90010 		strd	r1, r0, [sp]
 794 009a A068     		ldr	r0, [r4, #8]
 795 009c FFF7FEFF 		bl	sp_leading_bit
 796 00a0 0099     		ldr	r1, [sp]
 797 00a2 18B1     		cbz	r0, .L168
 798 00a4 019B     		ldr	r3, [sp, #4]
 799 00a6 05F801B0 		strb	fp, [r5, r1]
 800 00aa 991C     		adds	r1, r3, #2
 801              	.L168:
 802 00ac A068     		ldr	r0, [r4, #8]
 803 00ae 2944     		add	r1, r1, r5
 804 00b0 FFF7FEFF 		bl	sp_to_unsigned_bin
 805 00b4 0028     		cmp	r0, #0
 806 00b6 D4D0     		beq	.L161
 807 00b8 6FF07000 		mvn	r0, #112
 808 00bc ADE7     		b	.L158
 809              	.L181:
 810 00be 0120     		movs	r0, #1
 811              	.L162:
 812 00c0 A168     		ldr	r1, [r4, #8]
 813 00c2 2844     		add	r0, r0, r5
 814 00c4 09B9     		cbnz	r1, .L171
 815              	.L199:
 816 00c6 A060     		str	r0, [r4, #8]
 817 00c8 CBE7     		b	.L161
 818              	.L171:
 819 00ca E268     		ldr	r2, [r4, #12]
 820 00cc FFF7FEFF 		bl	memcpy
 821 00d0 C7E7     		b	.L161
 822              	.L167:
 823 00d2 7378     		ldrb	r3, [r6, #1]	@ zero_extendqisi2
ARM GAS  /tmp/cciZhAVO.s 			page 15


 824 00d4 012B     		cmp	r3, #1
 825 00d6 07D1     		bne	.L172
 826 00d8 6B70     		strb	r3, [r5, #1]
 827 00da 237A     		ldrb	r3, [r4, #8]	@ zero_extendqisi2
 828 00dc 003B     		subs	r3, r3, #0
 829 00de 18BF     		it	ne
 830 00e0 0123     		movne	r3, #1
 831 00e2 5B42     		rsbs	r3, r3, #0
 832 00e4 AB70     		strb	r3, [r5, #2]
 833 00e6 BCE7     		b	.L161
 834              	.L172:
 835 00e8 052B     		cmp	r3, #5
 836 00ea 02D1     		bne	.L173
 837 00ec 85F801B0 		strb	fp, [r5, #1]
 838 00f0 B7E7     		b	.L161
 839              	.L173:
 840 00f2 032B     		cmp	r3, #3
 841 00f4 E068     		ldr	r0, [r4, #12]
 842 00f6 07D0     		beq	.L174
 843 00f8 022B     		cmp	r3, #2
 844 00fa 06D1     		bne	.L175
 845 00fc A368     		ldr	r3, [r4, #8]
 846 00fe 23B1     		cbz	r3, .L175
 847 0100 93F90030 		ldrsb	r3, [r3]
 848 0104 002B     		cmp	r3, #0
 849 0106 00DA     		bge	.L175
 850              	.L174:
 851 0108 0130     		adds	r0, r0, #1
 852              	.L175:
 853 010a 691C     		adds	r1, r5, #1
 854 010c FFF7FEFF 		bl	SetASNLength
 855 0110 7378     		ldrb	r3, [r6, #1]	@ zero_extendqisi2
 856 0112 421C     		adds	r2, r0, #1
 857 0114 032B     		cmp	r3, #3
 858 0116 07D0     		beq	.L176
 859 0118 022B     		cmp	r3, #2
 860 011a 08D1     		bne	.L177
 861 011c A368     		ldr	r3, [r4, #8]
 862 011e 33B1     		cbz	r3, .L177
 863 0120 93F90030 		ldrsb	r3, [r3]
 864 0124 002B     		cmp	r3, #0
 865 0126 02DA     		bge	.L177
 866              	.L176:
 867 0128 05F802B0 		strb	fp, [r5, r2]
 868 012c 821C     		adds	r2, r0, #2
 869              	.L177:
 870 012e A168     		ldr	r1, [r4, #8]
 871 0130 A818     		adds	r0, r5, r2
 872 0132 0029     		cmp	r1, #0
 873 0134 C7D0     		beq	.L199
 874 0136 E268     		ldr	r2, [r4, #12]
 875 0138 FFF7FEFF 		bl	memmove
 876 013c 91E7     		b	.L161
 878              		.section	.text.GetASN_BitString,"ax",%progbits
 879              		.align	1
 880              		.global	GetASN_BitString
 881              		.syntax unified
ARM GAS  /tmp/cciZhAVO.s 			page 16


 882              		.thumb
 883              		.thumb_func
 884              		.fpu fpv4-sp-d16
 886              	GetASN_BitString:
 887              		@ args = 0, pretend = 0, frame = 0
 888              		@ frame_needed = 0, uses_anonymous_args = 0
 889 0000 10B5     		push	{r4, lr}
 890 0002 82B1     		cbz	r2, .L203
 891 0004 445C     		ldrb	r4, [r0, r1]	@ zero_extendqisi2
 892 0006 072C     		cmp	r4, #7
 893 0008 0DD8     		bhi	.L203
 894 000a 0144     		add	r1, r1, r0
 895 000c 8818     		adds	r0, r1, r2
 896 000e 10F8013C 		ldrb	r3, [r0, #-1]	@ zero_extendqisi2
 897 0012 C4F10804 		rsb	r4, r4, #8
 898 0016 A340     		lsls	r3, r3, r4
 899 0018 DBB2     		uxtb	r3, r3
 900 001a 002B     		cmp	r3, #0
 901 001c 14BF     		ite	ne
 902 001e 6FF08B00 		mvnne	r0, #139
 903 0022 0020     		moveq	r0, #0
 904              	.L200:
 905 0024 10BD     		pop	{r4, pc}
 906              	.L203:
 907 0026 6FF08B00 		mvn	r0, #139
 908 002a FBE7     		b	.L200
 910              		.section	.text.GetLength_ex,"ax",%progbits
 911              		.align	1
 912              		.global	GetLength_ex
 913              		.syntax unified
 914              		.thumb
 915              		.thumb_func
 916              		.fpu fpv4-sp-d16
 918              	GetLength_ex:
 919              		@ args = 4, pretend = 0, frame = 0
 920              		@ frame_needed = 0, uses_anonymous_args = 0
 921 0000 F0B5     		push	{r4, r5, r6, r7, lr}
 922 0002 0025     		movs	r5, #0
 923 0004 0F68     		ldr	r7, [r1]
 924 0006 1560     		str	r5, [r2]
 925 0008 7E1C     		adds	r6, r7, #1
 926 000a 9E42     		cmp	r6, r3
 927 000c 35D8     		bhi	.L220
 928 000e C45D     		ldrb	r4, [r0, r7]	@ zero_extendqisi2
 929 0010 00EB070C 		add	ip, r0, r7
 930 0014 C057     		ldrsb	r0, [r0, r7]
 931 0016 A842     		cmp	r0, r5
 932 0018 24DA     		bge	.L207
 933 001a 04F07F00 		and	r0, r4, #127
 934 001e 802C     		cmp	r4, #128
 935 0020 8646     		mov	lr, r0
 936 0022 16D0     		beq	.L214
 937 0024 0128     		cmp	r0, #1
 938 0026 16D0     		beq	.L215
 939 0028 0428     		cmp	r0, #4
 940 002a 0FDC     		bgt	.L219
 941 002c 441E     		subs	r4, r0, #1
ARM GAS  /tmp/cciZhAVO.s 			page 17


 942 002e E500     		lsls	r5, r4, #3
 943 0030 0124     		movs	r4, #1
 944 0032 AC40     		lsls	r4, r4, r5
 945              	.L208:
 946 0034 0644     		add	r6, r6, r0
 947 0036 9E42     		cmp	r6, r3
 948 0038 1FD8     		bhi	.L220
 949 003a 6546     		mov	r5, ip
 950 003c 0020     		movs	r0, #0
 951              	.L209:
 952 003e BEF1010E 		subs	lr, lr, #1
 953 0042 0AD2     		bcs	.L210
 954 0044 0028     		cmp	r0, #0
 955 0046 01DB     		blt	.L219
 956 0048 A042     		cmp	r0, r4
 957 004a 0CDA     		bge	.L211
 958              	.L219:
 959 004c 6FF08B00 		mvn	r0, #139
 960 0050 12E0     		b	.L205
 961              	.L214:
 962 0052 2C46     		mov	r4, r5
 963 0054 EEE7     		b	.L208
 964              	.L215:
 965 0056 8024     		movs	r4, #128
 966 0058 ECE7     		b	.L208
 967              	.L210:
 968 005a 15F801CF 		ldrb	ip, [r5, #1]!	@ zero_extendqisi2
 969 005e 4CEA0020 		orr	r0, ip, r0, lsl #8
 970 0062 ECE7     		b	.L209
 971              	.L207:
 972 0064 2046     		mov	r0, r4
 973              	.L211:
 974 0066 059C     		ldr	r4, [sp, #20]
 975 0068 14B1     		cbz	r4, .L212
 976 006a 8419     		adds	r4, r0, r6
 977 006c 9C42     		cmp	r4, r3
 978 006e 04D8     		bhi	.L220
 979              	.L212:
 980 0070 0028     		cmp	r0, #0
 981 0072 0E60     		str	r6, [r1]
 982 0074 00DD     		ble	.L205
 983 0076 1060     		str	r0, [r2]
 984              	.L205:
 985 0078 F0BD     		pop	{r4, r5, r6, r7, pc}
 986              	.L220:
 987 007a 6FF08300 		mvn	r0, #131
 988 007e FBE7     		b	.L205
 990              		.section	.text.GetLength,"ax",%progbits
 991              		.align	1
 992              		.global	GetLength
 993              		.syntax unified
 994              		.thumb
 995              		.thumb_func
 996              		.fpu fpv4-sp-d16
 998              	GetLength:
 999              		@ args = 0, pretend = 0, frame = 0
 1000              		@ frame_needed = 0, uses_anonymous_args = 0
ARM GAS  /tmp/cciZhAVO.s 			page 18


 1001 0000 13B5     		push	{r0, r1, r4, lr}
 1002 0002 0124     		movs	r4, #1
 1003 0004 0094     		str	r4, [sp]
 1004 0006 FFF7FEFF 		bl	GetLength_ex
 1005 000a 02B0     		add	sp, sp, #8
 1006              		@ sp needed
 1007 000c 10BD     		pop	{r4, pc}
 1009              		.section	.text.GetASN_Sequence,"ax",%progbits
 1010              		.align	1
 1011              		.syntax unified
 1012              		.thumb
 1013              		.thumb_func
 1014              		.fpu fpv4-sp-d16
 1016              	GetASN_Sequence:
 1017              		@ args = 4, pretend = 0, frame = 8
 1018              		@ frame_needed = 0, uses_anonymous_args = 0
 1019 0000 F0B5     		push	{r4, r5, r6, r7, lr}
 1020 0002 0C46     		mov	r4, r1
 1021 0004 0968     		ldr	r1, [r1]
 1022 0006 1646     		mov	r6, r2
 1023 0008 4F1C     		adds	r7, r1, #1
 1024 000a 9F42     		cmp	r7, r3
 1025 000c 1D46     		mov	r5, r3
 1026 000e 85B0     		sub	sp, sp, #20
 1027 0010 18D8     		bhi	.L230
 1028 0012 415C     		ldrb	r1, [r0, r1]	@ zero_extendqisi2
 1029 0014 0397     		str	r7, [sp, #12]
 1030 0016 3029     		cmp	r1, #48
 1031 0018 03D0     		beq	.L227
 1032              	.L228:
 1033 001a 6FF08B00 		mvn	r0, #139
 1034              	.L225:
 1035 001e 05B0     		add	sp, sp, #20
 1036              		@ sp needed
 1037 0020 F0BD     		pop	{r4, r5, r6, r7, pc}
 1038              	.L227:
 1039 0022 0121     		movs	r1, #1
 1040 0024 0091     		str	r1, [sp]
 1041 0026 03A9     		add	r1, sp, #12
 1042 0028 FFF7FEFF 		bl	GetLength_ex
 1043 002c 0028     		cmp	r0, #0
 1044 002e F4DB     		blt	.L228
 1045 0030 0A9B     		ldr	r3, [sp, #40]
 1046 0032 039A     		ldr	r2, [sp, #12]
 1047 0034 1BB1     		cbz	r3, .L229
 1048 0036 3368     		ldr	r3, [r6]
 1049 0038 1344     		add	r3, r3, r2
 1050 003a AB42     		cmp	r3, r5
 1051 003c EDD1     		bne	.L228
 1052              	.L229:
 1053 003e 0020     		movs	r0, #0
 1054 0040 2260     		str	r2, [r4]
 1055 0042 ECE7     		b	.L225
 1056              	.L230:
 1057 0044 6FF08300 		mvn	r0, #131
 1058 0048 E9E7     		b	.L225
 1060              		.section	.text.GetASNTag,"ax",%progbits
ARM GAS  /tmp/cciZhAVO.s 			page 19


 1061              		.align	1
 1062              		.global	GetASNTag
 1063              		.syntax unified
 1064              		.thumb
 1065              		.thumb_func
 1066              		.fpu fpv4-sp-d16
 1068              	GetASNTag:
 1069              		@ args = 0, pretend = 0, frame = 0
 1070              		@ frame_needed = 0, uses_anonymous_args = 0
 1071 0000 30B5     		push	{r4, r5, lr}
 1072 0002 52B1     		cbz	r2, .L238
 1073 0004 49B1     		cbz	r1, .L238
 1074 0006 40B1     		cbz	r0, .L238
 1075 0008 0D68     		ldr	r5, [r1]
 1076 000a 6C1C     		adds	r4, r5, #1
 1077 000c 9C42     		cmp	r4, r3
 1078 000e 07D8     		bhi	.L239
 1079 0010 435D     		ldrb	r3, [r0, r5]	@ zero_extendqisi2
 1080 0012 0020     		movs	r0, #0
 1081 0014 1370     		strb	r3, [r2]
 1082 0016 0C60     		str	r4, [r1]
 1083              	.L234:
 1084 0018 30BD     		pop	{r4, r5, pc}
 1085              	.L238:
 1086 001a 6FF0AC00 		mvn	r0, #172
 1087 001e FBE7     		b	.L234
 1088              	.L239:
 1089 0020 6FF08300 		mvn	r0, #131
 1090 0024 F8E7     		b	.L234
 1092              		.section	.text.GetASNHeader_ex,"ax",%progbits
 1093              		.align	1
 1094              		.syntax unified
 1095              		.thumb
 1096              		.thumb_func
 1097              		.fpu fpv4-sp-d16
 1099              	GetASNHeader_ex:
 1100              		@ args = 8, pretend = 0, frame = 16
 1101              		@ frame_needed = 0, uses_anonymous_args = 0
 1102 0000 2DE9F043 		push	{r4, r5, r6, r7, r8, r9, lr}
 1103 0004 1E46     		mov	r6, r3
 1104 0006 1368     		ldr	r3, [r2]
 1105 0008 87B0     		sub	sp, sp, #28
 1106 000a 0493     		str	r3, [sp, #16]
 1107 000c 0023     		movs	r3, #0
 1108 000e DDF83890 		ldr	r9, [sp, #56]
 1109 0012 0F46     		mov	r7, r1
 1110 0014 1546     		mov	r5, r2
 1111 0016 0593     		str	r3, [sp, #20]
 1112 0018 0DF10F02 		add	r2, sp, #15
 1113 001c 4B46     		mov	r3, r9
 1114 001e 04A9     		add	r1, sp, #16
 1115 0020 0446     		mov	r4, r0
 1116 0022 FFF7FEFF 		bl	GetASNTag
 1117 0026 20B1     		cbz	r0, .L241
 1118              	.L243:
 1119 0028 6FF08B00 		mvn	r0, #139
 1120              	.L240:
ARM GAS  /tmp/cciZhAVO.s 			page 20


 1121 002c 07B0     		add	sp, sp, #28
 1122              		@ sp needed
 1123 002e BDE8F083 		pop	{r4, r5, r6, r7, r8, r9, pc}
 1124              	.L241:
 1125 0032 9DF80F80 		ldrb	r8, [sp, #15]	@ zero_extendqisi2
 1126 0036 B845     		cmp	r8, r7
 1127 0038 F6D1     		bne	.L243
 1128 003a 0F9B     		ldr	r3, [sp, #60]
 1129 003c 2046     		mov	r0, r4
 1130 003e 0093     		str	r3, [sp]
 1131 0040 05AA     		add	r2, sp, #20
 1132 0042 4B46     		mov	r3, r9
 1133 0044 FFF7FEFF 		bl	GetLength_ex
 1134 0048 0028     		cmp	r0, #0
 1135 004a EDDB     		blt	.L243
 1136 004c B8F1060F 		cmp	r8, #6
 1137 0050 0598     		ldr	r0, [sp, #20]
 1138 0052 08D1     		bne	.L244
 1139 0054 0228     		cmp	r0, #2
 1140 0056 E7DD     		ble	.L243
 1141 0058 049B     		ldr	r3, [sp, #16]
 1142 005a 0444     		add	r4, r4, r0
 1143 005c 1C44     		add	r4, r4, r3
 1144 005e 14F9013C 		ldrsb	r3, [r4, #-1]
 1145 0062 002B     		cmp	r3, #0
 1146 0064 E0DB     		blt	.L243
 1147              	.L244:
 1148 0066 049B     		ldr	r3, [sp, #16]
 1149 0068 3060     		str	r0, [r6]
 1150 006a 2B60     		str	r3, [r5]
 1151 006c DEE7     		b	.L240
 1153              		.section	.text.GetASNHeader,"ax",%progbits
 1154              		.align	1
 1155              		.global	GetASNHeader
 1156              		.syntax unified
 1157              		.thumb
 1158              		.thumb_func
 1159              		.fpu fpv4-sp-d16
 1161              	GetASNHeader:
 1162              		@ args = 4, pretend = 0, frame = 0
 1163              		@ frame_needed = 0, uses_anonymous_args = 0
 1164 0000 13B5     		push	{r0, r1, r4, lr}
 1165 0002 0124     		movs	r4, #1
 1166 0004 0194     		str	r4, [sp, #4]
 1167 0006 049C     		ldr	r4, [sp, #16]
 1168 0008 0094     		str	r4, [sp]
 1169 000a FFF7FEFF 		bl	GetASNHeader_ex
 1170 000e 02B0     		add	sp, sp, #8
 1171              		@ sp needed
 1172 0010 10BD     		pop	{r4, pc}
 1174              		.section	.text.GetSequence,"ax",%progbits
 1175              		.align	1
 1176              		.global	GetSequence
 1177              		.syntax unified
 1178              		.thumb
 1179              		.thumb_func
 1180              		.fpu fpv4-sp-d16
ARM GAS  /tmp/cciZhAVO.s 			page 21


 1182              	GetSequence:
 1183              		@ args = 0, pretend = 0, frame = 0
 1184              		@ frame_needed = 0, uses_anonymous_args = 0
 1185 0000 07B5     		push	{r0, r1, r2, lr}
 1186 0002 0093     		str	r3, [sp]
 1187 0004 1346     		mov	r3, r2
 1188 0006 0A46     		mov	r2, r1
 1189 0008 3021     		movs	r1, #48
 1190 000a FFF7FEFF 		bl	GetASNHeader
 1191 000e 03B0     		add	sp, sp, #12
 1192              		@ sp needed
 1193 0010 5DF804FB 		ldr	pc, [sp], #4
 1195              		.section	.text.GetSequence_ex,"ax",%progbits
 1196              		.align	1
 1197              		.global	GetSequence_ex
 1198              		.syntax unified
 1199              		.thumb
 1200              		.thumb_func
 1201              		.fpu fpv4-sp-d16
 1203              	GetSequence_ex:
 1204              		@ args = 4, pretend = 0, frame = 0
 1205              		@ frame_needed = 0, uses_anonymous_args = 0
 1206 0000 13B5     		push	{r0, r1, r4, lr}
 1207 0002 049C     		ldr	r4, [sp, #16]
 1208 0004 CDE90034 		strd	r3, r4, [sp]
 1209 0008 1346     		mov	r3, r2
 1210 000a 0A46     		mov	r2, r1
 1211 000c 3021     		movs	r1, #48
 1212 000e FFF7FEFF 		bl	GetASNHeader_ex
 1213 0012 02B0     		add	sp, sp, #8
 1214              		@ sp needed
 1215 0014 10BD     		pop	{r4, pc}
 1217              		.section	.text.wc_IndexSequenceOf,"ax",%progbits
 1218              		.align	1
 1219              		.global	wc_IndexSequenceOf
 1220              		.syntax unified
 1221              		.thumb
 1222              		.thumb_func
 1223              		.fpu fpv4-sp-d16
 1225              	wc_IndexSequenceOf:
 1226              		@ args = 4, pretend = 0, frame = 16
 1227              		@ frame_needed = 0, uses_anonymous_args = 0
 1228 0000 2DE9FF47 		push	{r0, r1, r2, r3, r4, r5, r6, r7, r8, r9, r10, lr}
 1229 0004 0026     		movs	r6, #0
 1230 0006 9146     		mov	r9, r2
 1231 0008 9846     		mov	r8, r3
 1232 000a 02AA     		add	r2, sp, #8
 1233 000c 0B46     		mov	r3, r1
 1234 000e 03A9     		add	r1, sp, #12
 1235 0010 0446     		mov	r4, r0
 1236 0012 0396     		str	r6, [sp, #12]
 1237 0014 FFF7FEFF 		bl	GetSequence
 1238 0018 B042     		cmp	r0, r6
 1239 001a 24DB     		blt	.L249
 1240 001c DDE90232 		ldrd	r3, r2, [sp, #8]
 1241 0020 02EB030A 		add	r10, r2, r3
 1242              	.L251:
ARM GAS  /tmp/cciZhAVO.s 			page 22


 1243 0024 039F     		ldr	r7, [sp, #12]
 1244 0026 5745     		cmp	r7, r10
 1245 0028 23D2     		bcs	.L253
 1246 002a 5346     		mov	r3, r10
 1247 002c 2046     		mov	r0, r4
 1248 002e 0DF10702 		add	r2, sp, #7
 1249 0032 03A9     		add	r1, sp, #12
 1250 0034 FFF7FEFF 		bl	GetASNTag
 1251 0038 0546     		mov	r5, r0
 1252 003a A0B9     		cbnz	r0, .L249
 1253 003c 5346     		mov	r3, r10
 1254 003e 2046     		mov	r0, r4
 1255 0040 02AA     		add	r2, sp, #8
 1256 0042 FFF7FEFF 		bl	GetLength
 1257 0046 0028     		cmp	r0, #0
 1258 0048 0DDB     		blt	.L249
 1259 004a DDE90231 		ldrd	r3, r1, [sp, #8]
 1260 004e 0136     		adds	r6, r6, #1
 1261 0050 1944     		add	r1, r1, r3
 1262 0052 B145     		cmp	r9, r6
 1263 0054 0391     		str	r1, [sp, #12]
 1264 0056 E5D2     		bcs	.L251
 1265 0058 0C9B     		ldr	r3, [sp, #48]
 1266 005a 3C44     		add	r4, r4, r7
 1267 005c C91B     		subs	r1, r1, r7
 1268 005e C8F80040 		str	r4, [r8]
 1269 0062 1960     		str	r1, [r3]
 1270 0064 01E0     		b	.L248
 1271              	.L249:
 1272 0066 6FF08B05 		mvn	r5, #139
 1273              	.L248:
 1274 006a 2846     		mov	r0, r5
 1275 006c 04B0     		add	sp, sp, #16
 1276              		@ sp needed
 1277 006e BDE8F087 		pop	{r4, r5, r6, r7, r8, r9, r10, pc}
 1278              	.L253:
 1279 0072 014D     		ldr	r5, .L256
 1280 0074 F9E7     		b	.L248
 1281              	.L257:
 1282 0076 00BF     		.align	2
 1283              	.L256:
 1284 0078 15FCFFFF 		.word	-1003
 1286              		.section	.text.GetSet,"ax",%progbits
 1287              		.align	1
 1288              		.global	GetSet
 1289              		.syntax unified
 1290              		.thumb
 1291              		.thumb_func
 1292              		.fpu fpv4-sp-d16
 1294              	GetSet:
 1295              		@ args = 0, pretend = 0, frame = 0
 1296              		@ frame_needed = 0, uses_anonymous_args = 0
 1297 0000 07B5     		push	{r0, r1, r2, lr}
 1298 0002 0093     		str	r3, [sp]
 1299 0004 1346     		mov	r3, r2
 1300 0006 0A46     		mov	r2, r1
 1301 0008 3121     		movs	r1, #49
ARM GAS  /tmp/cciZhAVO.s 			page 23


 1302 000a FFF7FEFF 		bl	GetASNHeader
 1303 000e 03B0     		add	sp, sp, #12
 1304              		@ sp needed
 1305 0010 5DF804FB 		ldr	pc, [sp], #4
 1307              		.section	.text.GetSet_ex,"ax",%progbits
 1308              		.align	1
 1309              		.global	GetSet_ex
 1310              		.syntax unified
 1311              		.thumb
 1312              		.thumb_func
 1313              		.fpu fpv4-sp-d16
 1315              	GetSet_ex:
 1316              		@ args = 4, pretend = 0, frame = 0
 1317              		@ frame_needed = 0, uses_anonymous_args = 0
 1318 0000 13B5     		push	{r0, r1, r4, lr}
 1319 0002 049C     		ldr	r4, [sp, #16]
 1320 0004 CDE90034 		strd	r3, r4, [sp]
 1321 0008 1346     		mov	r3, r2
 1322 000a 0A46     		mov	r2, r1
 1323 000c 3121     		movs	r1, #49
 1324 000e FFF7FEFF 		bl	GetASNHeader_ex
 1325 0012 02B0     		add	sp, sp, #8
 1326              		@ sp needed
 1327 0014 10BD     		pop	{r4, pc}
 1329              		.section	.text.GetOctetString,"ax",%progbits
 1330              		.align	1
 1331              		.global	GetOctetString
 1332              		.syntax unified
 1333              		.thumb
 1334              		.thumb_func
 1335              		.fpu fpv4-sp-d16
 1337              	GetOctetString:
 1338              		@ args = 0, pretend = 0, frame = 0
 1339              		@ frame_needed = 0, uses_anonymous_args = 0
 1340 0000 07B5     		push	{r0, r1, r2, lr}
 1341 0002 0093     		str	r3, [sp]
 1342 0004 1346     		mov	r3, r2
 1343 0006 0A46     		mov	r2, r1
 1344 0008 0421     		movs	r1, #4
 1345 000a FFF7FEFF 		bl	GetASNHeader
 1346 000e 03B0     		add	sp, sp, #12
 1347              		@ sp needed
 1348 0010 5DF804FB 		ldr	pc, [sp], #4
 1350              		.section	.text.GetASNInt,"ax",%progbits
 1351              		.align	1
 1352              		.global	GetASNInt
 1353              		.syntax unified
 1354              		.thumb
 1355              		.thumb_func
 1356              		.fpu fpv4-sp-d16
 1358              	GetASNInt:
 1359              		@ args = 0, pretend = 0, frame = 0
 1360              		@ frame_needed = 0, uses_anonymous_args = 0
 1361 0000 F7B5     		push	{r0, r1, r2, r4, r5, r6, r7, lr}
 1362 0002 0D46     		mov	r5, r1
 1363 0004 0093     		str	r3, [sp]
 1364 0006 1646     		mov	r6, r2
ARM GAS  /tmp/cciZhAVO.s 			page 24


 1365 0008 1346     		mov	r3, r2
 1366 000a 0A46     		mov	r2, r1
 1367 000c 0221     		movs	r1, #2
 1368 000e 0746     		mov	r7, r0
 1369 0010 FFF7FEFF 		bl	GetASNHeader
 1370 0014 0028     		cmp	r0, #0
 1371 0016 0FDB     		blt	.L261
 1372 0018 3268     		ldr	r2, [r6]
 1373 001a 002A     		cmp	r2, #0
 1374 001c 1ADD     		ble	.L263
 1375 001e 2C68     		ldr	r4, [r5]
 1376 0020 012A     		cmp	r2, #1
 1377 0022 3B5D     		ldrb	r3, [r7, r4]	@ zero_extendqisi2
 1378 0024 16D0     		beq	.L263
 1379 0026 FF2B     		cmp	r3, #255
 1380 0028 08D1     		bne	.L264
 1381 002a 3C44     		add	r4, r4, r7
 1382 002c 94F90130 		ldrsb	r3, [r4, #1]
 1383 0030 002B     		cmp	r3, #0
 1384 0032 0FDA     		bge	.L263
 1385              	.L265:
 1386 0034 6FF09100 		mvn	r0, #145
 1387              	.L261:
 1388 0038 03B0     		add	sp, sp, #12
 1389              		@ sp needed
 1390 003a F0BD     		pop	{r4, r5, r6, r7, pc}
 1391              	.L264:
 1392 003c 53B9     		cbnz	r3, .L263
 1393 003e 0134     		adds	r4, r4, #1
 1394 0040 2C60     		str	r4, [r5]
 1395 0042 3368     		ldr	r3, [r6]
 1396 0044 013B     		subs	r3, r3, #1
 1397 0046 002B     		cmp	r3, #0
 1398 0048 3360     		str	r3, [r6]
 1399 004a 03DD     		ble	.L263
 1400 004c 2B68     		ldr	r3, [r5]
 1401 004e FB56     		ldrsb	r3, [r7, r3]
 1402 0050 002B     		cmp	r3, #0
 1403 0052 EFDA     		bge	.L265
 1404              	.L263:
 1405 0054 0020     		movs	r0, #0
 1406 0056 EFE7     		b	.L261
 1408              		.section	.text.GetSigName,"ax",%progbits
 1409              		.align	1
 1410              		.global	GetSigName
 1411              		.syntax unified
 1412              		.thumb
 1413              		.thumb_func
 1414              		.fpu fpv4-sp-d16
 1416              	GetSigName:
 1417              		@ args = 0, pretend = 0, frame = 0
 1418              		@ frame_needed = 0, uses_anonymous_args = 0
 1419              		@ link register save eliminated.
 1420 0000 134B     		ldr	r3, .L282
 1421 0002 0246     		mov	r2, r0
 1422 0004 9842     		cmp	r0, r3
 1423 0006 1CDC     		bgt	.L278
ARM GAS  /tmp/cciZhAVO.s 			page 25


 1424 0008 073B     		subs	r3, r3, #7
 1425 000a 9842     		cmp	r0, r3
 1426 000c 09DC     		bgt	.L272
 1427 000e 114B     		ldr	r3, .L282+4
 1428 0010 9842     		cmp	r0, r3
 1429 0012 18D0     		beq	.L279
 1430 0014 1049     		ldr	r1, .L282+8
 1431 0016 114B     		ldr	r3, .L282+12
 1432 0018 1148     		ldr	r0, .L282+16
 1433 001a 8A42     		cmp	r2, r1
 1434 001c 18BF     		it	ne
 1435 001e 1846     		movne	r0, r3
 1436 0020 7047     		bx	lr
 1437              	.L272:
 1438 0022 104B     		ldr	r3, .L282+20
 1439 0024 0344     		add	r3, r3, r0
 1440 0026 062B     		cmp	r3, #6
 1441 0028 0BD8     		bhi	.L278
 1442 002a DFE803F0 		tbb	[pc, r3]
 1443              	.L275:
 1444 002e 0E       		.byte	(.L281-.L275)/2
 1445 002f 06       		.byte	(.L277-.L275)/2
 1446 0030 0A       		.byte	(.L278-.L275)/2
 1447 0031 04       		.byte	(.L276-.L275)/2
 1448 0032 0A       		.byte	(.L278-.L275)/2
 1449 0033 0A       		.byte	(.L278-.L275)/2
 1450 0034 08       		.byte	(.L274-.L275)/2
 1451 0035 00       		.p2align 1
 1452              	.L276:
 1453 0036 0C48     		ldr	r0, .L282+24
 1454 0038 7047     		bx	lr
 1455              	.L277:
 1456 003a 0C48     		ldr	r0, .L282+28
 1457 003c 7047     		bx	lr
 1458              	.L274:
 1459 003e 0C48     		ldr	r0, .L282+32
 1460 0040 7047     		bx	lr
 1461              	.L278:
 1462 0042 0648     		ldr	r0, .L282+12
 1463 0044 7047     		bx	lr
 1464              	.L279:
 1465 0046 0B48     		ldr	r0, .L282+36
 1466 0048 7047     		bx	lr
 1467              	.L281:
 1468 004a 0B48     		ldr	r0, .L282+40
 1469 004c 7047     		bx	lr
 1470              	.L283:
 1471 004e 00BF     		.align	2
 1472              	.L282:
 1473 0050 F67AB37D 		.word	2108914422
 1474 0054 17824931 		.word	826901015
 1475 0058 17824B4C 		.word	1280016919
 1476 005c 00000000 		.word	.LANCHOR0
 1477 0060 00000000 		.word	.LANCHOR2
 1478 0064 10854C82 		.word	-2108914416
 1479 0068 00000000 		.word	.LANCHOR6
 1480 006c 00000000 		.word	.LANCHOR4
ARM GAS  /tmp/cciZhAVO.s 			page 26


 1481 0070 00000000 		.word	.LANCHOR5
 1482 0074 00000000 		.word	.LANCHOR1
 1483 0078 00000000 		.word	.LANCHOR3
 1485              		.section	.text.SetShortInt,"ax",%progbits
 1486              		.align	1
 1487              		.global	SetShortInt
 1488              		.syntax unified
 1489              		.thumb
 1490              		.thumb_func
 1491              		.fpu fpv4-sp-d16
 1493              	SetShortInt:
 1494              		@ args = 0, pretend = 0, frame = 0
 1495              		@ frame_needed = 0, uses_anonymous_args = 0
 1496 0000 2DE9F843 		push	{r3, r4, r5, r6, r7, r8, r9, lr}
 1497 0004 0546     		mov	r5, r0
 1498 0006 9946     		mov	r9, r3
 1499 0008 D1F80080 		ldr	r8, [r1]
 1500 000c 42B1     		cbz	r2, .L289
 1501 000e 1046     		mov	r0, r2
 1502 0010 FFF7FEFF 		bl	BytePrecision
 1503 0014 431E     		subs	r3, r0, #1
 1504 0016 032B     		cmp	r3, #3
 1505 0018 03D9     		bls	.L285
 1506 001a 6FF08B00 		mvn	r0, #139
 1507 001e 26E0     		b	.L284
 1508              	.L289:
 1509 0020 0120     		movs	r0, #1
 1510              	.L285:
 1511 0022 C400     		lsls	r4, r0, #3
 1512 0024 013C     		subs	r4, r4, #1
 1513 0026 32FA04F7 		lsrs	r7, r2, r4
 1514 002a 14BF     		ite	ne
 1515 002c 0126     		movne	r6, #1
 1516 002e 0026     		moveq	r6, #0
 1517 0030 08F10204 		add	r4, r8, #2
 1518 0034 2318     		adds	r3, r4, r0
 1519 0036 3344     		add	r3, r3, r6
 1520 0038 4B45     		cmp	r3, r9
 1521 003a 1AD8     		bhi	.L291
 1522 003c 0223     		movs	r3, #2
 1523 003e 0644     		add	r6, r6, r0
 1524 0040 05F80830 		strb	r3, [r5, r8]
 1525 0044 05EB0803 		add	r3, r5, r8
 1526 0048 5E70     		strb	r6, [r3, #1]
 1527 004a 1FB1     		cbz	r7, .L287
 1528 004c 0023     		movs	r3, #0
 1529 004e 2B55     		strb	r3, [r5, r4]
 1530 0050 08F10304 		add	r4, r8, #3
 1531              	.L287:
 1532 0054 431E     		subs	r3, r0, #1
 1533 0056 2544     		add	r5, r5, r4
 1534              	.L288:
 1535 0058 DE00     		lsls	r6, r3, #3
 1536 005a 22FA06F6 		lsr	r6, r2, r6
 1537 005e 013B     		subs	r3, r3, #1
 1538 0060 05F8016B 		strb	r6, [r5], #1
 1539 0064 F8D2     		bcs	.L288
ARM GAS  /tmp/cciZhAVO.s 			page 27


 1540 0066 0444     		add	r4, r4, r0
 1541 0068 0868     		ldr	r0, [r1]
 1542 006a 0C60     		str	r4, [r1]
 1543 006c 201A     		subs	r0, r4, r0
 1544              	.L284:
 1545 006e BDE8F883 		pop	{r3, r4, r5, r6, r7, r8, r9, pc}
 1546              	.L291:
 1547 0072 6FF08300 		mvn	r0, #131
 1548 0076 FAE7     		b	.L284
 1550              		.section	.text.OidFromId,"ax",%progbits
 1551              		.align	1
 1552              		.global	OidFromId
 1553              		.syntax unified
 1554              		.thumb
 1555              		.thumb_func
 1556              		.fpu fpv4-sp-d16
 1558              	OidFromId:
 1559              		@ args = 0, pretend = 0, frame = 8
 1560              		@ frame_needed = 0, uses_anonymous_args = 0
 1561 0000 0023     		movs	r3, #0
 1562 0002 07B5     		push	{r0, r1, r2, lr}
 1563 0004 1360     		str	r3, [r2]
 1564 0006 0193     		str	r3, [sp, #4]
 1565 0008 0F29     		cmp	r1, #15
 1566 000a 47D8     		bhi	.L297
 1567 000c DFE811F0 		tbh	[pc, r1, lsl #1]
 1568              	.L299:
 1569 0010 1000     		.2byte	(.L313-.L299)/2
 1570 0012 3700     		.2byte	(.L312-.L299)/2
 1571 0014 7000     		.2byte	(.L311-.L299)/2
 1572 0016 7500     		.2byte	(.L310-.L299)/2
 1573 0018 7900     		.2byte	(.L309-.L299)/2
 1574 001a 4600     		.2byte	(.L297-.L299)/2
 1575 001c 8800     		.2byte	(.L308-.L299)/2
 1576 001e C900     		.2byte	(.L307-.L299)/2
 1577 0020 D500     		.2byte	(.L306-.L299)/2
 1578 0022 E400     		.2byte	(.L305-.L299)/2
 1579 0024 EA00     		.2byte	(.L304-.L299)/2
 1580 0026 1401     		.2byte	(.L303-.L299)/2
 1581 0028 A201     		.2byte	(.L302-.L299)/2
 1582 002a B201     		.2byte	(.L301-.L299)/2
 1583 002c 1A01     		.2byte	(.L300-.L299)/2
 1584 002e BF01     		.2byte	(.L298-.L299)/2
 1585              		.p2align 1
 1586              	.L313:
 1587 0030 894B     		ldr	r3, .L373
 1588 0032 9842     		cmp	r0, r3
 1589 0034 0FD8     		bhi	.L314
 1590 0036 0E3B     		subs	r3, r3, #14
 1591 0038 9842     		cmp	r0, r3
 1592 003a 2FD9     		bls	.L297
 1593 003c 874B     		ldr	r3, .L373+4
 1594 003e 0344     		add	r3, r3, r0
 1595 0040 0D2B     		cmp	r3, #13
 1596 0042 2BD8     		bhi	.L297
 1597 0044 DFE803F0 		tbb	[pc, r3]
 1598              	.L316:
ARM GAS  /tmp/cciZhAVO.s 			page 28


 1599 0048 19       		.byte	(.L320-.L316)/2
 1600 0049 2A       		.byte	(.L297-.L316)/2
 1601 004a 15       		.byte	(.L319-.L316)/2
 1602 004b 17       		.byte	(.L318-.L316)/2
 1603 004c 2A       		.byte	(.L297-.L316)/2
 1604 004d 2A       		.byte	(.L297-.L316)/2
 1605 004e 2A       		.byte	(.L297-.L316)/2
 1606 004f 2A       		.byte	(.L297-.L316)/2
 1607 0050 2A       		.byte	(.L297-.L316)/2
 1608 0051 2A       		.byte	(.L297-.L316)/2
 1609 0052 2A       		.byte	(.L297-.L316)/2
 1610 0053 0F       		.byte	(.L317-.L316)/2
 1611 0054 2A       		.byte	(.L297-.L316)/2
 1612 0055 13       		.byte	(.L315-.L316)/2
 1613              		.p2align 1
 1614              	.L314:
 1615 0056 824B     		ldr	r3, .L373+8
 1616 0058 9842     		cmp	r0, r3
 1617 005a 1FD1     		bne	.L297
 1618 005c 814B     		ldr	r3, .L373+12
 1619 005e 0193     		str	r3, [sp, #4]
 1620 0060 0523     		movs	r3, #5
 1621              	.L366:
 1622 0062 1360     		str	r3, [r2]
 1623 0064 1AE0     		b	.L297
 1624              	.L317:
 1625 0066 804B     		ldr	r3, .L373+16
 1626              	.L370:
 1627 0068 0193     		str	r3, [sp, #4]
 1628 006a 0923     		movs	r3, #9
 1629 006c F9E7     		b	.L366
 1630              	.L315:
 1631 006e 7F4B     		ldr	r3, .L373+20
 1632 0070 FAE7     		b	.L370
 1633              	.L319:
 1634 0072 7F4B     		ldr	r3, .L373+24
 1635 0074 F8E7     		b	.L370
 1636              	.L318:
 1637 0076 7F4B     		ldr	r3, .L373+28
 1638 0078 F6E7     		b	.L370
 1639              	.L320:
 1640 007a 7F4B     		ldr	r3, .L373+32
 1641 007c F4E7     		b	.L370
 1642              	.L312:
 1643 007e 7F4B     		ldr	r3, .L373+36
 1644 0080 9842     		cmp	r0, r3
 1645 0082 0BD8     		bhi	.L297
 1646 0084 073B     		subs	r3, r3, #7
 1647 0086 9842     		cmp	r0, r3
 1648 0088 0CD8     		bhi	.L321
 1649 008a 7D4B     		ldr	r3, .L373+40
 1650 008c 9842     		cmp	r0, r3
 1651 008e 1FD0     		beq	.L322
 1652 0090 03F1D853 		add	r3, r3, #452984832
 1653 0094 03F50033 		add	r3, r3, #131072
 1654 0098 9842     		cmp	r0, r3
 1655 009a 1DD0     		beq	.L323
ARM GAS  /tmp/cciZhAVO.s 			page 29


 1656              	.L297:
 1657 009c 0198     		ldr	r0, [sp, #4]
 1658 009e 03B0     		add	sp, sp, #12
 1659              		@ sp needed
 1660 00a0 5DF804FB 		ldr	pc, [sp], #4
 1661              	.L321:
 1662 00a4 774B     		ldr	r3, .L373+44
 1663 00a6 0344     		add	r3, r3, r0
 1664 00a8 062B     		cmp	r3, #6
 1665 00aa F7D8     		bhi	.L297
 1666 00ac 01A1     		adr	r1, .L325
 1667 00ae 51F823F0 		ldr	pc, [r1, r3, lsl #2]
 1668 00b2 00BF     		.p2align 2
 1669              	.L325:
 1670 00b4 E5000000 		.word	.L328+1
 1671 00b8 E9000000 		.word	.L327+1
 1672 00bc 9D000000 		.word	.L297+1
 1673 00c0 E1000000 		.word	.L326+1
 1674 00c4 9D000000 		.word	.L297+1
 1675 00c8 9D000000 		.word	.L297+1
 1676 00cc ED000000 		.word	.L324+1
 1677              		.p2align 1
 1678              	.L322:
 1679 00d0 6D4B     		ldr	r3, .L373+48
 1680              	.L368:
 1681 00d2 0193     		str	r3, [sp, #4]
 1682 00d4 0723     		movs	r3, #7
 1683 00d6 C4E7     		b	.L366
 1684              	.L323:
 1685 00d8 6C4B     		ldr	r3, .L373+52
 1686              	.L367:
 1687 00da 0193     		str	r3, [sp, #4]
 1688 00dc 0823     		movs	r3, #8
 1689 00de C0E7     		b	.L366
 1690              	.L326:
 1691 00e0 6B4B     		ldr	r3, .L373+56
 1692 00e2 C1E7     		b	.L370
 1693              	.L328:
 1694 00e4 6B4B     		ldr	r3, .L373+60
 1695 00e6 BFE7     		b	.L370
 1696              	.L327:
 1697 00e8 6B4B     		ldr	r3, .L373+64
 1698 00ea BDE7     		b	.L370
 1699              	.L324:
 1700 00ec 6B4B     		ldr	r3, .L373+68
 1701 00ee BBE7     		b	.L370
 1702              	.L311:
 1703 00f0 6B4B     		ldr	r3, .L373+72
 1704 00f2 9842     		cmp	r0, r3
 1705 00f4 D2D1     		bne	.L297
 1706 00f6 6B4B     		ldr	r3, .L373+76
 1707 00f8 EBE7     		b	.L368
 1708              	.L310:
 1709 00fa 01A9     		add	r1, sp, #4
 1710 00fc FFF7FEFF 		bl	wc_ecc_get_oid
 1711 0100 CCE7     		b	.L297
 1712              	.L309:
ARM GAS  /tmp/cciZhAVO.s 			page 30


 1713 0102 694B     		ldr	r3, .L373+80
 1714 0104 9842     		cmp	r0, r3
 1715 0106 09D0     		beq	.L329
 1716 0108 0C33     		adds	r3, r3, #12
 1717 010a 9842     		cmp	r0, r3
 1718 010c 04D0     		beq	.L330
 1719 010e 283B     		subs	r3, r3, #40
 1720 0110 9842     		cmp	r0, r3
 1721 0112 C3D1     		bne	.L297
 1722 0114 654B     		ldr	r3, .L373+84
 1723 0116 A7E7     		b	.L370
 1724              	.L330:
 1725 0118 654B     		ldr	r3, .L373+88
 1726 011a A5E7     		b	.L370
 1727              	.L329:
 1728 011c 654B     		ldr	r3, .L373+92
 1729 011e A3E7     		b	.L370
 1730              	.L308:
 1731 0120 654B     		ldr	r3, .L373+96
 1732 0122 9842     		cmp	r0, r3
 1733 0124 31D0     		beq	.L332
 1734 0126 15D8     		bhi	.L333
 1735 0128 A3F5C023 		sub	r3, r3, #393216
 1736 012c 9842     		cmp	r0, r3
 1737 012e 34D0     		beq	.L334
 1738 0130 07D8     		bhi	.L335
 1739 0132 624B     		ldr	r3, .L373+100
 1740 0134 9842     		cmp	r0, r3
 1741 0136 2AD0     		beq	.L336
 1742 0138 614B     		ldr	r3, .L373+104
 1743 013a 9842     		cmp	r0, r3
 1744 013c AED1     		bne	.L297
 1745 013e 614B     		ldr	r3, .L373+108
 1746 0140 15E0     		b	.L371
 1747              	.L335:
 1748 0142 614B     		ldr	r3, .L373+112
 1749 0144 9842     		cmp	r0, r3
 1750 0146 24D0     		beq	.L338
 1751 0148 03F54033 		add	r3, r3, #196608
 1752 014c 9842     		cmp	r0, r3
 1753 014e A5D1     		bne	.L297
 1754 0150 5E4B     		ldr	r3, .L373+116
 1755 0152 0CE0     		b	.L371
 1756              	.L333:
 1757 0154 5E4B     		ldr	r3, .L373+120
 1758 0156 9842     		cmp	r0, r3
 1759 0158 15D0     		beq	.L340
 1760 015a 0BD8     		bhi	.L341
 1761 015c A3F55023 		sub	r3, r3, #851968
 1762 0160 9842     		cmp	r0, r3
 1763 0162 1CD0     		beq	.L342
 1764 0164 03F53023 		add	r3, r3, #720896
 1765 0168 9842     		cmp	r0, r3
 1766 016a 97D1     		bne	.L297
 1767 016c 594B     		ldr	r3, .L373+124
 1768              	.L371:
 1769 016e 0193     		str	r3, [sp, #4]
ARM GAS  /tmp/cciZhAVO.s 			page 31


 1770 0170 0323     		movs	r3, #3
 1771 0172 76E7     		b	.L366
 1772              	.L341:
 1773 0174 584B     		ldr	r3, .L373+128
 1774 0176 9842     		cmp	r0, r3
 1775 0178 0DD0     		beq	.L344
 1776 017a 03F58033 		add	r3, r3, #65536
 1777 017e 9842     		cmp	r0, r3
 1778 0180 8CD1     		bne	.L297
 1779 0182 564B     		ldr	r3, .L373+132
 1780 0184 F3E7     		b	.L371
 1781              	.L340:
 1782 0186 564B     		ldr	r3, .L373+136
 1783 0188 F1E7     		b	.L371
 1784              	.L332:
 1785 018a 564B     		ldr	r3, .L373+140
 1786 018c EFE7     		b	.L371
 1787              	.L336:
 1788 018e 564B     		ldr	r3, .L373+144
 1789 0190 A3E7     		b	.L367
 1790              	.L338:
 1791 0192 564B     		ldr	r3, .L373+148
 1792 0194 EBE7     		b	.L371
 1793              	.L344:
 1794 0196 564B     		ldr	r3, .L373+152
 1795 0198 E9E7     		b	.L371
 1796              	.L334:
 1797 019a 564B     		ldr	r3, .L373+156
 1798 019c E7E7     		b	.L371
 1799              	.L342:
 1800 019e 564B     		ldr	r3, .L373+160
 1801 01a0 E5E7     		b	.L371
 1802              	.L307:
 1803 01a2 564B     		ldr	r3, .L373+164
 1804 01a4 9842     		cmp	r0, r3
 1805 01a6 06D0     		beq	.L346
 1806 01a8 03F14073 		add	r3, r3, #50331648
 1807 01ac 9842     		cmp	r0, r3
 1808 01ae 7FF475AF 		bne	.L297
 1809 01b2 534B     		ldr	r3, .L373+168
 1810 01b4 91E7     		b	.L367
 1811              	.L346:
 1812 01b6 534B     		ldr	r3, .L373+172
 1813 01b8 8FE7     		b	.L367
 1814              	.L306:
 1815 01ba 534B     		ldr	r3, .L373+176
 1816 01bc 9842     		cmp	r0, r3
 1817 01be 07D0     		beq	.L348
 1818 01c0 524B     		ldr	r3, .L373+180
 1819 01c2 9842     		cmp	r0, r3
 1820 01c4 7FF46AAF 		bne	.L297
 1821 01c8 514B     		ldr	r3, .L373+184
 1822 01ca 0193     		str	r3, [sp, #4]
 1823 01cc 0B23     		movs	r3, #11
 1824 01ce 48E7     		b	.L366
 1825              	.L348:
 1826 01d0 504B     		ldr	r3, .L373+188
ARM GAS  /tmp/cciZhAVO.s 			page 32


 1827              	.L372:
 1828 01d2 0193     		str	r3, [sp, #4]
 1829 01d4 0423     		movs	r3, #4
 1830 01d6 44E7     		b	.L366
 1831              	.L305:
 1832 01d8 4F4B     		ldr	r3, .L373+192
 1833 01da 9842     		cmp	r0, r3
 1834 01dc 7FF45EAF 		bne	.L297
 1835 01e0 4E4B     		ldr	r3, .L373+196
 1836 01e2 7AE7     		b	.L367
 1837              	.L304:
 1838 01e4 4E4B     		ldr	r3, .L373+200
 1839 01e6 9842     		cmp	r0, r3
 1840 01e8 1ED0     		beq	.L350
 1841 01ea 0DD8     		bhi	.L351
 1842 01ec 03F17B43 		add	r3, r3, #-83886080
 1843 01f0 9842     		cmp	r0, r3
 1844 01f2 1BD0     		beq	.L352
 1845 01f4 03F14073 		add	r3, r3, #50331648
 1846 01f8 9842     		cmp	r0, r3
 1847 01fa 13D0     		beq	.L353
 1848 01fc 494B     		ldr	r3, .L373+204
 1849 01fe 9842     		cmp	r0, r3
 1850 0200 7FF44CAF 		bne	.L297
 1851 0204 484B     		ldr	r3, .L373+208
 1852 0206 E4E7     		b	.L372
 1853              	.L351:
 1854 0208 484B     		ldr	r3, .L373+212
 1855 020a 9842     		cmp	r0, r3
 1856 020c 12D0     		beq	.L355
 1857 020e 03F18073 		add	r3, r3, #16777216
 1858 0212 9842     		cmp	r0, r3
 1859 0214 0CD0     		beq	.L356
 1860 0216 03F17A43 		add	r3, r3, #-100663296
 1861 021a 9842     		cmp	r0, r3
 1862 021c 7FF43EAF 		bne	.L297
 1863 0220 434B     		ldr	r3, .L373+216
 1864 0222 5AE7     		b	.L367
 1865              	.L353:
 1866 0224 434B     		ldr	r3, .L373+220
 1867 0226 58E7     		b	.L367
 1868              	.L350:
 1869 0228 434B     		ldr	r3, .L373+224
 1870 022a 56E7     		b	.L367
 1871              	.L352:
 1872 022c 434B     		ldr	r3, .L373+228
 1873 022e 54E7     		b	.L367
 1874              	.L356:
 1875 0230 434B     		ldr	r3, .L373+232
 1876 0232 52E7     		b	.L367
 1877              	.L355:
 1878 0234 434B     		ldr	r3, .L373+236
 1879 0236 50E7     		b	.L367
 1880              	.L303:
 1881 0238 434B     		ldr	r3, .L373+240
 1882 023a 9842     		cmp	r0, r3
 1883 023c 7FF42EAF 		bne	.L297
ARM GAS  /tmp/cciZhAVO.s 			page 33


 1884 0240 424B     		ldr	r3, .L373+244
 1885 0242 11E7     		b	.L370
 1886              	.L300:
 1887 0244 0D28     		cmp	r0, #13
 1888 0246 04D0     		beq	.L358
 1889 0248 40F29523 		movw	r3, #661
 1890 024c 9842     		cmp	r0, r3
 1891 024e 7FF425AF 		bne	.L297
 1892              	.L358:
 1893 0252 3F4B     		ldr	r3, .L373+248
 1894 0254 08E7     		b	.L370
 1895              	.L374:
 1896 0256 00BF     		.align	2
 1897              	.L373:
 1898 0258 FD7AB37C 		.word	2092137213
 1899 025c 10854C83 		.word	-2092137200
 1900 0260 31F1037D 		.word	2097410353
 1901 0264 00000000 		.word	.LANCHOR7
 1902 0268 00000000 		.word	.LANCHOR8
 1903 026c 00000000 		.word	.LANCHOR9
 1904 0270 00000000 		.word	.LANCHOR10
 1905 0274 00000000 		.word	.LANCHOR11
 1906 0278 00000000 		.word	.LANCHOR12
 1907 027c F67AB37D 		.word	2108914422
 1908 0280 17824931 		.word	826901015
 1909 0284 10854C82 		.word	-2108914416
 1910 0288 00000000 		.word	.LANCHOR13
 1911 028c 00000000 		.word	.LANCHOR14
 1912 0290 00000000 		.word	.LANCHOR15
 1913 0294 00000000 		.word	.LANCHOR16
 1914 0298 00000000 		.word	.LANCHOR17
 1915 029c 00000000 		.word	.LANCHOR18
 1916 02a0 17844931 		.word	826901527
 1917 02a4 00000000 		.word	.LANCHOR19
 1918 02a8 EC7AB37F 		.word	2142468844
 1919 02ac 00000000 		.word	.LANCHOR22
 1920 02b0 00000000 		.word	.LANCHOR20
 1921 02b4 00000000 		.word	.LANCHOR21
 1922 02b8 AA1DE07F 		.word	2145394090
 1923 02bc 2E010004 		.word	67109166
 1924 02c0 AA1DC97F 		.word	2143886762
 1925 02c4 00000000 		.word	.LANCHOR31
 1926 02c8 AA1DDC7F 		.word	2145131946
 1927 02cc 00000000 		.word	.LANCHOR29
 1928 02d0 AA1DEE7F 		.word	2146311594
 1929 02d4 00000000 		.word	.LANCHOR23
 1930 02d8 AA1DF07F 		.word	2146442666
 1931 02dc 00000000 		.word	.LANCHOR28
 1932 02e0 00000000 		.word	.LANCHOR24
 1933 02e4 00000000 		.word	.LANCHOR25
 1934 02e8 00000000 		.word	.LANCHOR26
 1935 02ec 00000000 		.word	.LANCHOR27
 1936 02f0 00000000 		.word	.LANCHOR30
 1937 02f4 00000000 		.word	.LANCHOR32
 1938 02f8 00000000 		.word	.LANCHOR33
 1939 02fc 2E013104 		.word	70320430
 1940 0300 00000000 		.word	.LANCHOR35
ARM GAS  /tmp/cciZhAVO.s 			page 34


 1941 0304 00000000 		.word	.LANCHOR34
 1942 0308 AA1DDF00 		.word	14622122
 1943 030c D4852068 		.word	1746961876
 1944 0310 00000000 		.word	.LANCHOR37
 1945 0314 00000000 		.word	.LANCHOR36
 1946 0318 2E010901 		.word	17367342
 1947 031c 00000000 		.word	.LANCHOR38
 1948 0320 2E010206 		.word	100794670
 1949 0324 AA1DDA00 		.word	14294442
 1950 0328 00000000 		.word	.LANCHOR39
 1951 032c 2E01020C 		.word	201457966
 1952 0330 00000000 		.word	.LANCHOR41
 1953 0334 00000000 		.word	.LANCHOR40
 1954 0338 00000000 		.word	.LANCHOR42
 1955 033c 00000000 		.word	.LANCHOR43
 1956 0340 00000000 		.word	.LANCHOR44
 1957 0344 00000000 		.word	.LANCHOR45
 1958 0348 2E74B67C 		.word	2092332078
 1959 034c 00000000 		.word	.LANCHOR46
 1960 0350 00000000 		.word	.LANCHOR47
 1961              	.L302:
 1962 0354 114B     		ldr	r3, .L375
 1963 0356 9842     		cmp	r0, r3
 1964 0358 0AD0     		beq	.L359
 1965 035a 1C33     		adds	r3, r3, #28
 1966 035c 9842     		cmp	r0, r3
 1967 035e 05D0     		beq	.L360
 1968 0360 283B     		subs	r3, r3, #40
 1969 0362 9842     		cmp	r0, r3
 1970 0364 7FF49AAE 		bne	.L297
 1971 0368 0D4B     		ldr	r3, .L375+4
 1972 036a 7DE6     		b	.L370
 1973              	.L360:
 1974 036c 0D4B     		ldr	r3, .L375+8
 1975 036e 7BE6     		b	.L370
 1976              	.L359:
 1977 0370 0D4B     		ldr	r3, .L375+12
 1978 0372 79E6     		b	.L370
 1979              	.L301:
 1980 0374 0D4B     		ldr	r3, .L375+16
 1981 0376 9842     		cmp	r0, r3
 1982 0378 05D0     		beq	.L362
 1983 037a 0D4B     		ldr	r3, .L375+20
 1984 037c 9842     		cmp	r0, r3
 1985 037e 7FF48DAE 		bne	.L297
 1986 0382 0C4B     		ldr	r3, .L375+24
 1987 0384 70E6     		b	.L370
 1988              	.L362:
 1989 0386 0C4B     		ldr	r3, .L375+28
 1990 0388 0193     		str	r3, [sp, #4]
 1991 038a 0623     		movs	r3, #6
 1992 038c 69E6     		b	.L366
 1993              	.L298:
 1994 038e 0B4B     		ldr	r3, .L375+32
 1995 0390 9842     		cmp	r0, r3
 1996 0392 7FF483AE 		bne	.L297
 1997 0396 0A4B     		ldr	r3, .L375+36
ARM GAS  /tmp/cciZhAVO.s 			page 35


 1998 0398 9FE6     		b	.L367
 1999              	.L376:
 2000 039a 00BF     		.align	2
 2001              	.L375:
 2002 039c E37AB37F 		.word	2142468835
 2003 03a0 00000000 		.word	.LANCHOR50
 2004 03a4 00000000 		.word	.LANCHOR48
 2005 03a8 00000000 		.word	.LANCHOR49
 2006 03ac 2080FB01 		.word	33259552
 2007 03b0 5036C56F 		.word	1875195472
 2008 03b4 00000000 		.word	.LANCHOR51
 2009 03b8 00000000 		.word	.LANCHOR52
 2010 03bc DD8B4A0F 		.word	256543709
 2011 03c0 00000000 		.word	.LANCHOR53
 2013              		.section	.text.SetAlgoIDImpl,"ax",%progbits
 2014              		.align	1
 2015              		.syntax unified
 2016              		.thumb
 2017              		.thumb_func
 2018              		.fpu fpv4-sp-d16
 2020              	SetAlgoIDImpl:
 2021              		@ args = 4, pretend = 0, frame = 16
 2022              		@ frame_needed = 0, uses_anonymous_args = 0
 2023 0000 2DE9FF47 		push	{r0, r1, r2, r3, r4, r5, r6, r7, r8, r9, r10, lr}
 2024 0004 0026     		movs	r6, #0
 2025 0006 0546     		mov	r5, r0
 2026 0008 5420     		movs	r0, #84
 2027 000a 8846     		mov	r8, r1
 2028 000c 9146     		mov	r9, r2
 2029 000e 1F46     		mov	r7, r3
 2030 0010 9DF830A0 		ldrb	r10, [sp, #48]	@ zero_extendqisi2
 2031 0014 0296     		str	r6, [sp, #8]
 2032 0016 FFF7FEFF 		bl	wolfSSL_Malloc
 2033 001a 0446     		mov	r4, r0
 2034 001c 0028     		cmp	r0, #0
 2035 001e 5BD0     		beq	.L393
 2036 0020 3C22     		movs	r2, #60
 2037 0022 3146     		mov	r1, r6
 2038 0024 FFF7FEFF 		bl	memset
 2039              	.L378:
 2040 0028 4946     		mov	r1, r9
 2041 002a 2846     		mov	r0, r5
 2042 002c 02AA     		add	r2, sp, #8
 2043 002e FFF7FEFF 		bl	OidFromId
 2044 0032 0028     		cmp	r0, #0
 2045 0034 64D0     		beq	.L379
 2046 0036 4946     		mov	r1, r9
 2047 0038 2846     		mov	r0, r5
 2048 003a 04F12002 		add	r2, r4, #32
 2049 003e FFF7FEFF 		bl	OidFromId
 2050 0042 E061     		str	r0, [r4, #28]
 2051 0044 B9F1000F 		cmp	r9, #0
 2052 0048 14D0     		beq	.L380
 2053 004a B9F1010F 		cmp	r9, #1
 2054 004e 46D1     		bne	.L381
 2055 0050 2E4B     		ldr	r3, .L410
 2056 0052 9D42     		cmp	r5, r3
ARM GAS  /tmp/cciZhAVO.s 			page 36


 2057 0054 0BD0     		beq	.L382
 2058 0056 03F1D853 		add	r3, r3, #452984832
 2059 005a 25F08072 		bic	r2, r5, #16777216
 2060 005e 03F50033 		add	r3, r3, #131072
 2061 0062 9A42     		cmp	r2, r3
 2062 0064 03D0     		beq	.L382
 2063 0066 03F17E43 		add	r3, r3, #-33554432
 2064 006a 9D42     		cmp	r5, r3
 2065 006c 02D1     		bne	.L380
 2066              	.L382:
 2067 006e 0123     		movs	r3, #1
 2068 0070 84F83930 		strb	r3, [r4, #57]
 2069              	.L380:
 2070 0074 BAF1010F 		cmp	r10, #1
 2071 0078 02D1     		bne	.L384
 2072              	.L391:
 2073 007a 0123     		movs	r3, #1
 2074 007c 84F83930 		strb	r3, [r4, #57]
 2075              	.L384:
 2076 0080 234B     		ldr	r3, .L410+4
 2077 0082 9D42     		cmp	r5, r3
 2078 0084 35D0     		beq	.L394
 2079              	.L392:
 2080 0086 002F     		cmp	r7, #0
 2081 0088 4FF00002 		mov	r2, #0
 2082 008c 04DD     		ble	.L385
 2083 008e BB1E     		subs	r3, r7, #2
 2084 0090 84F83920 		strb	r2, [r4, #57]
 2085 0094 2263     		str	r2, [r4, #48]
 2086 0096 6363     		str	r3, [r4, #52]
 2087              	.L385:
 2088 0098 1425     		movs	r5, #20
 2089 009a 5543     		muls	r5, r2, r5
 2090 009c 1D4E     		ldr	r6, .L410+8
 2091 009e 6119     		adds	r1, r4, r5
 2092 00a0 06EB8206 		add	r6, r6, r2, lsl #2
 2093 00a4 3046     		mov	r0, r6
 2094 00a6 C2F10302 		rsb	r2, r2, #3
 2095 00aa 03AB     		add	r3, sp, #12
 2096 00ac CDE90012 		strd	r1, r2, [sp]
 2097 00b0 FFF7FEFF 		bl	SizeASN_Items
 2098 00b4 F8B9     		cbnz	r0, .L396
 2099 00b6 B8F1000F 		cmp	r8, #0
 2100 00ba 0BD0     		beq	.L388
 2101 00bc DDE90012 		ldrd	r1, r2, [sp]
 2102 00c0 4346     		mov	r3, r8
 2103 00c2 3046     		mov	r0, r6
 2104 00c4 FFF7FEFF 		bl	SetASN_Items
 2105 00c8 002F     		cmp	r7, #0
 2106 00ca 03DD     		ble	.L388
 2107 00cc 6359     		ldr	r3, [r4, r5]
 2108 00ce A26A     		ldr	r2, [r4, #40]
 2109 00d0 9B1A     		subs	r3, r3, r2
 2110 00d2 0393     		str	r3, [sp, #12]
 2111              	.L388:
 2112 00d4 039E     		ldr	r6, [sp, #12]
 2113 00d6 0FE0     		b	.L389
ARM GAS  /tmp/cciZhAVO.s 			page 37


 2114              	.L393:
 2115 00d8 6FF07C06 		mvn	r6, #124
 2116 00dc A4E7     		b	.L378
 2117              	.L381:
 2118 00de B9F1020F 		cmp	r9, #2
 2119 00e2 C4D1     		bne	.L382
 2120 00e4 0C4B     		ldr	r3, .L410+12
 2121 00e6 9D42     		cmp	r5, r3
 2122 00e8 C1D1     		bne	.L382
 2123 00ea BAF1010F 		cmp	r10, #1
 2124 00ee CAD1     		bne	.L392
 2125 00f0 C3E7     		b	.L391
 2126              	.L394:
 2127 00f2 0122     		movs	r2, #1
 2128 00f4 D0E7     		b	.L385
 2129              	.L396:
 2130 00f6 0026     		movs	r6, #0
 2131              	.L389:
 2132 00f8 2046     		mov	r0, r4
 2133 00fa FFF7FEFF 		bl	wolfSSL_Free
 2134 00fe 01E0     		b	.L401
 2135              	.L379:
 2136 0100 002C     		cmp	r4, #0
 2137 0102 F9D1     		bne	.L389
 2138              	.L401:
 2139 0104 3046     		mov	r0, r6
 2140 0106 04B0     		add	sp, sp, #16
 2141              		@ sp needed
 2142 0108 BDE8F087 		pop	{r4, r5, r6, r7, r8, r9, r10, pc}
 2143              	.L411:
 2144              		.align	2
 2145              	.L410:
 2146 010c 17824931 		.word	826901015
 2147 0110 12824931 		.word	826901010
 2148 0114 00000000 		.word	.LANCHOR54
 2149 0118 2374B678 		.word	2025223203
 2151              		.section	.text.GetASNObjectId,"ax",%progbits
 2152              		.align	1
 2153              		.global	GetASNObjectId
 2154              		.syntax unified
 2155              		.thumb
 2156              		.thumb_func
 2157              		.fpu fpv4-sp-d16
 2159              	GetASNObjectId:
 2160              		@ args = 0, pretend = 0, frame = 0
 2161              		@ frame_needed = 0, uses_anonymous_args = 0
 2162 0000 07B5     		push	{r0, r1, r2, lr}
 2163 0002 0093     		str	r3, [sp]
 2164 0004 1346     		mov	r3, r2
 2165 0006 0A46     		mov	r2, r1
 2166 0008 0621     		movs	r1, #6
 2167 000a FFF7FEFF 		bl	GetASNHeader
 2168 000e 00EAE070 		and	r0, r0, r0, asr #31
 2169 0012 03B0     		add	sp, sp, #12
 2170              		@ sp needed
 2171 0014 5DF804FB 		ldr	pc, [sp], #4
 2173              		.section	.text.wc_oid_sum,"ax",%progbits
ARM GAS  /tmp/cciZhAVO.s 			page 38


 2174              		.align	1
 2175              		.global	wc_oid_sum
 2176              		.syntax unified
 2177              		.thumb
 2178              		.thumb_func
 2179              		.fpu fpv4-sp-d16
 2181              	wc_oid_sum:
 2182              		@ args = 0, pretend = 0, frame = 0
 2183              		@ frame_needed = 0, uses_anonymous_args = 0
 2184 0000 30B5     		push	{r4, r5, lr}
 2185 0002 40B1     		cbz	r0, .L413
 2186 0004 2029     		cmp	r1, #32
 2187 0006 10DC     		bgt	.L418
 2188 0008 0023     		movs	r3, #0
 2189 000a 1D46     		mov	r5, r3
 2190 000c 1C46     		mov	r4, r3
 2191              	.L415:
 2192 000e A142     		cmp	r1, r4
 2193 0010 02DC     		bgt	.L416
 2194 0012 25F00040 		bic	r0, r5, #-2147483648
 2195              	.L413:
 2196 0016 30BD     		pop	{r4, r5, pc}
 2197              	.L416:
 2198 0018 025D     		ldrb	r2, [r0, r4]	@ zero_extendqisi2
 2199 001a 0134     		adds	r4, r4, #1
 2200 001c D243     		mvns	r2, r2
 2201 001e 9A40     		lsls	r2, r2, r3
 2202 0020 0833     		adds	r3, r3, #8
 2203 0022 5540     		eors	r5, r5, r2
 2204 0024 03F01F03 		and	r3, r3, #31
 2205 0028 F1E7     		b	.L415
 2206              	.L418:
 2207 002a 0020     		movs	r0, #0
 2208 002c F3E7     		b	.L413
 2210              		.section	.text.GetASN_Items,"ax",%progbits
 2211              		.align	1
 2212              		.global	GetASN_Items
 2213              		.syntax unified
 2214              		.thumb
 2215              		.thumb_func
 2216              		.fpu fpv4-sp-d16
 2218              	GetASN_Items:
 2219              		@ args = 12, pretend = 0, frame = 72
 2220              		@ frame_needed = 0, uses_anonymous_args = 0
 2221 0000 2DE9F04F 		push	{r4, r5, r6, r7, r8, r9, r10, fp, lr}
 2222 0004 4FF0000A 		mov	r10, #0
 2223 0008 95B0     		sub	sp, sp, #84
 2224 000a 0693     		str	r3, [sp, #24]
 2225 000c DDE91E73 		ldrd	r7, r3, [sp, #120]
 2226 0010 1B68     		ldr	r3, [r3]
 2227 0012 5646     		mov	r6, r10
 2228 0014 0B93     		str	r3, [sp, #44]
 2229 0016 4FF6FF73 		movw	r3, #65535
 2230 001a ADF82430 		strh	r3, [sp, #36]	@ movhi
 2231 001e 209B     		ldr	r3, [sp, #128]
 2232 0020 90F800B0 		ldrb	fp, [r0]	@ zero_extendqisi2
 2233 0024 CDE90421 		strd	r2, r1, [sp, #16]
ARM GAS  /tmp/cciZhAVO.s 			page 39


 2234 0028 CDE90D33 		strd	r3, r3, [sp, #52]
 2235 002c CDE90F33 		strd	r3, r3, [sp, #60]
 2236 0030 CDE91133 		strd	r3, r3, [sp, #68]
 2237 0034 0290     		str	r0, [sp, #8]
 2238 0036 1393     		str	r3, [sp, #76]
 2239 0038 CDF80CB0 		str	fp, [sp, #12]
 2240              	.L420:
 2241 003c 049B     		ldr	r3, [sp, #16]
 2242 003e 9E42     		cmp	r6, r3
 2243 0040 14DB     		blt	.L482
 2244 0042 069B     		ldr	r3, [sp, #24]
 2245 0044 2BB1     		cbz	r3, .L483
 2246 0046 0B9B     		ldr	r3, [sp, #44]
 2247 0048 0DAA     		add	r2, sp, #52
 2248              	.L484:
 2249 004a 0399     		ldr	r1, [sp, #12]
 2250 004c 8B45     		cmp	fp, r1
 2251 004e 00F31D82 		bgt	.L485
 2252              	.L483:
 2253 0052 9DF92430 		ldrsb	r3, [sp, #36]
 2254 0056 002B     		cmp	r3, #0
 2255 0058 5FD0     		beq	.L432
 2256 005a 9DF92530 		ldrsb	r3, [sp, #37]
 2257 005e 002B     		cmp	r3, #0
 2258 0060 5BD0     		beq	.L432
 2259 0062 0B9B     		ldr	r3, [sp, #44]
 2260 0064 1F9A     		ldr	r2, [sp, #124]
 2261 0066 0020     		movs	r0, #0
 2262 0068 1360     		str	r3, [r2]
 2263 006a 58E0     		b	.L419
 2264              	.L482:
 2265 006c 1C23     		movs	r3, #28
 2266 006e 7343     		muls	r3, r6, r3
 2267 0070 059A     		ldr	r2, [sp, #20]
 2268 0072 0599     		ldr	r1, [sp, #20]
 2269 0074 D418     		adds	r4, r2, r3
 2270 0076 0B9A     		ldr	r2, [sp, #44]
 2271 0078 CA50     		str	r2, [r1, r3]
 2272 007a 0023     		movs	r3, #0
 2273 007c 6360     		str	r3, [r4, #4]
 2274 007e 029B     		ldr	r3, [sp, #8]
 2275 0080 03EB8609 		add	r9, r3, r6, lsl #2
 2276 0084 13F826B0 		ldrb	fp, [r3, r6, lsl #2]	@ zero_extendqisi2
 2277 0088 99F80330 		ldrb	r3, [r9, #3]	@ zero_extendqisi2
 2278 008c BAF1000F 		cmp	r10, #0
 2279 0090 01D0     		beq	.L421
 2280 0092 5345     		cmp	r3, r10
 2281 0094 0ED0     		beq	.L422
 2282              	.L421:
 2283 0096 012B     		cmp	r3, #1
 2284 0098 29D9     		bls	.L487
 2285 009a 9A46     		mov	r10, r3
 2286 009c 4E33     		adds	r3, r3, #78
 2287 009e 6B44     		add	r3, sp, r3
 2288 00a0 13F92C2C 		ldrsb	r2, [r3, #-44]
 2289 00a4 BFF35B8F 		dmb	ish
 2290 00a8 0132     		adds	r2, r2, #1
ARM GAS  /tmp/cciZhAVO.s 			page 40


 2291 00aa 03D1     		bne	.L422
 2292 00ac 4FF00002 		mov	r2, #0
 2293 00b0 03F82C2C 		strb	r2, [r3, #-44]
 2294              	.L422:
 2295 00b4 14AB     		add	r3, sp, #80
 2296 00b6 03EB8B03 		add	r3, r3, fp, lsl #2
 2297 00ba 53F81C3C 		ldr	r3, [r3, #-28]
 2298 00be BFF35B8F 		dmb	ish
 2299 00c2 0B9A     		ldr	r2, [sp, #44]
 2300 00c4 9A42     		cmp	r2, r3
 2301 00c6 09D0     		beq	.L423
 2302 00c8 217E     		ldrb	r1, [r4, #24]	@ zero_extendqisi2
 2303 00ca B85C     		ldrb	r0, [r7, r2]	@ zero_extendqisi2
 2304 00cc 0B29     		cmp	r1, #11
 2305 00ce 33D0     		beq	.L424
 2306 00d0 99F80150 		ldrb	r5, [r9, #1]	@ zero_extendqisi2
 2307 00d4 20F02001 		bic	r1, r0, #32
 2308 00d8 A942     		cmp	r1, r5
 2309 00da 2DD0     		beq	.L424
 2310              	.L423:
 2311 00dc 99F80310 		ldrb	r1, [r9, #3]	@ zero_extendqisi2
 2312 00e0 A9B1     		cbz	r1, .L425
 2313 00e2 0136     		adds	r6, r6, #1
 2314              	.L426:
 2315 00e4 049B     		ldr	r3, [sp, #16]
 2316 00e6 9E42     		cmp	r6, r3
 2317 00e8 04D1     		bne	.L428
 2318              	.L480:
 2319 00ea 013E     		subs	r6, r6, #1
 2320 00ec 73E0     		b	.L429
 2321              	.L487:
 2322 00ee 4FF0000A 		mov	r10, #0
 2323 00f2 DFE7     		b	.L422
 2324              	.L428:
 2325 00f4 029B     		ldr	r3, [sp, #8]
 2326 00f6 99F80010 		ldrb	r1, [r9]	@ zero_extendqisi2
 2327 00fa 13F82630 		ldrb	r3, [r3, r6, lsl #2]	@ zero_extendqisi2
 2328 00fe 9942     		cmp	r1, r3
 2329 0100 F3D2     		bcs	.L480
 2330 0102 0023     		movs	r3, #0
 2331 0104 E261     		str	r2, [r4, #28]
 2332 0106 2362     		str	r3, [r4, #32]
 2333 0108 0136     		adds	r6, r6, #1
 2334 010a 1C34     		adds	r4, r4, #28
 2335 010c EAE7     		b	.L426
 2336              	.L425:
 2337 010e 2099     		ldr	r1, [sp, #128]
 2338 0110 8A42     		cmp	r2, r1
 2339 0112 00F0C681 		beq	.L499
 2340 0116 9A42     		cmp	r2, r3
 2341 0118 04D1     		bne	.L431
 2342              	.L432:
 2343 011a 6FF08B00 		mvn	r0, #139
 2344              	.L419:
 2345 011e 15B0     		add	sp, sp, #84
 2346              		@ sp needed
 2347 0120 BDE8F08F 		pop	{r4, r5, r6, r7, r8, r9, r10, fp, pc}
ARM GAS  /tmp/cciZhAVO.s 			page 41


 2348              	.L431:
 2349 0124 99F80130 		ldrb	r3, [r9, #1]	@ zero_extendqisi2
 2350 0128 062B     		cmp	r3, #6
 2351 012a 00F0B781 		beq	.L489
 2352 012e 032B     		cmp	r3, #3
 2353 0130 F3D1     		bne	.L432
 2354 0132 6FF09200 		mvn	r0, #146
 2355 0136 F2E7     		b	.L419
 2356              	.L424:
 2357 0138 6076     		strb	r0, [r4, #25]
 2358 013a BFF35B8F 		dmb	ish
 2359 013e 227E     		ldrb	r2, [r4, #24]	@ zero_extendqisi2
 2360 0140 0B2A     		cmp	r2, #11
 2361 0142 09D0     		beq	.L433
 2362 0144 0B9A     		ldr	r2, [sp, #44]
 2363 0146 99F80210 		ldrb	r1, [r9, #2]	@ zero_extendqisi2
 2364 014a BA5C     		ldrb	r2, [r7, r2]	@ zero_extendqisi2
 2365 014c 01F00101 		and	r1, r1, #1
 2366 0150 C2F34012 		ubfx	r2, r2, #5, #1
 2367 0154 9142     		cmp	r1, r2
 2368 0156 E0D1     		bne	.L432
 2369              	.L433:
 2370 0158 0125     		movs	r5, #1
 2371 015a 0B9A     		ldr	r2, [sp, #44]
 2372 015c 3846     		mov	r0, r7
 2373 015e 0132     		adds	r2, r2, #1
 2374 0160 0B92     		str	r2, [sp, #44]
 2375 0162 0095     		str	r5, [sp]
 2376 0164 0AAA     		add	r2, sp, #40
 2377 0166 0BA9     		add	r1, sp, #44
 2378 0168 FFF7FEFF 		bl	GetLength_ex
 2379 016c 0028     		cmp	r0, #0
 2380 016e D4DB     		blt	.L432
 2381 0170 0A9A     		ldr	r2, [sp, #40]
 2382 0172 DDF82C80 		ldr	r8, [sp, #44]
 2383 0176 14AB     		add	r3, sp, #80
 2384 0178 03EB8B03 		add	r3, r3, fp, lsl #2
 2385 017c AA45     		cmp	r10, r5
 2386 017e 02EB0801 		add	r1, r2, r8
 2387 0182 43F8181C 		str	r1, [r3, #-24]
 2388 0186 C4BF     		itt	gt
 2389 0188 0AF15003 		addgt	r3, r10, #80
 2390 018c 6B44     		addgt	r3, sp, r3
 2391 018e 6260     		str	r2, [r4, #4]
 2392 0190 C8BF     		it	gt
 2393 0192 03F82E5C 		strbgt	r5, [r3, #-46]
 2394 0196 99F80130 		ldrb	r3, [r9, #1]	@ zero_extendqisi2
 2395 019a 022B     		cmp	r3, #2
 2396 019c 39D1     		bne	.L435
 2397 019e 002A     		cmp	r2, #0
 2398 01a0 BBD0     		beq	.L432
 2399 01a2 17F80800 		ldrb	r0, [r7, r8]	@ zero_extendqisi2
 2400 01a6 E8B9     		cbnz	r0, .L436
 2401 01a8 012A     		cmp	r2, #1
 2402 01aa 0BDD     		ble	.L437
 2403 01ac 07EB0801 		add	r1, r7, r8
 2404 01b0 91F90110 		ldrsb	r1, [r1, #1]
ARM GAS  /tmp/cciZhAVO.s 			page 42


 2405 01b4 0029     		cmp	r1, #0
 2406 01b6 B0DA     		bge	.L432
 2407 01b8 0120     		movs	r0, #1
 2408 01ba 08F10101 		add	r1, r8, #1
 2409 01be 013A     		subs	r2, r2, #1
 2410 01c0 0B91     		str	r1, [sp, #44]
 2411 01c2 0A92     		str	r2, [sp, #40]
 2412              	.L437:
 2413 01c4 99F80220 		ldrb	r2, [r9, #2]	@ zero_extendqisi2
 2414 01c8 DDE90A85 		ldrd	r8, r5, [sp, #40]
 2415 01cc 9207     		lsls	r2, r2, #30
 2416 01ce 70D5     		bpl	.L450
 2417 01d0 3D44     		add	r5, r5, r7
 2418 01d2 C4E90258 		strd	r5, r8, [r4, #8]
 2419              	.L429:
 2420 01d6 039B     		ldr	r3, [sp, #12]
 2421 01d8 0136     		adds	r6, r6, #1
 2422 01da 5B45     		cmp	r3, fp
 2423 01dc A8BF     		it	ge
 2424 01de 5B46     		movge	r3, fp
 2425 01e0 0393     		str	r3, [sp, #12]
 2426 01e2 2BE7     		b	.L420
 2427              	.L436:
 2428 01e4 217E     		ldrb	r1, [r4, #24]	@ zero_extendqisi2
 2429 01e6 012A     		cmp	r2, #1
 2430 01e8 A1F10801 		sub	r1, r1, #8
 2431 01ec C9B2     		uxtb	r1, r1
 2432 01ee 0ADD     		ble	.L440
 2433 01f0 FF28     		cmp	r0, #255
 2434 01f2 08D1     		bne	.L440
 2435 01f4 B844     		add	r8, r8, r7
 2436 01f6 98F90120 		ldrsb	r2, [r8, #1]
 2437 01fa 002A     		cmp	r2, #0
 2438 01fc 80F25A81 		bge	.L441
 2439              	.L442:
 2440 0200 6FF09100 		mvn	r0, #145
 2441 0204 8BE7     		b	.L419
 2442              	.L440:
 2443 0206 0129     		cmp	r1, #1
 2444 0208 01D8     		bhi	.L498
 2445 020a 0106     		lsls	r1, r0, #24
 2446 020c F8D4     		bmi	.L442
 2447              	.L498:
 2448 020e 0020     		movs	r0, #0
 2449 0210 D8E7     		b	.L437
 2450              	.L435:
 2451 0212 032B     		cmp	r3, #3
 2452 0214 0ED1     		bne	.L443
 2453 0216 4146     		mov	r1, r8
 2454 0218 3846     		mov	r0, r7
 2455 021a 0793     		str	r3, [sp, #28]
 2456 021c FFF7FEFF 		bl	GetASN_BitString
 2457 0220 0028     		cmp	r0, #0
 2458 0222 7FF47CAF 		bne	.L419
 2459 0226 08F10101 		add	r1, r8, #1
 2460 022a 013A     		subs	r2, r2, #1
 2461 022c 079B     		ldr	r3, [sp, #28]
ARM GAS  /tmp/cciZhAVO.s 			page 43


 2462 022e 0B91     		str	r1, [sp, #44]
 2463 0230 0A92     		str	r2, [sp, #40]
 2464 0232 C7E7     		b	.L437
 2465              	.L443:
 2466 0234 0C2B     		cmp	r3, #12
 2467 0236 02D0     		beq	.L494
 2468 0238 617E     		ldrb	r1, [r4, #25]	@ zero_extendqisi2
 2469 023a 0C29     		cmp	r1, #12
 2470 023c 2DD1     		bne	.L545
 2471              	.L494:
 2472 023e 0021     		movs	r1, #0
 2473 0240 B844     		add	r8, r8, r7
 2474 0242 17E0     		b	.L546
 2475              	.L449:
 2476 0244 18F90150 		ldrsb	r5, [r8, r1]
 2477 0248 18F80100 		ldrb	r0, [r8, r1]	@ zero_extendqisi2
 2478 024c 002D     		cmp	r5, #0
 2479 024e 14DA     		bge	.L495
 2480 0250 00F0E005 		and	r5, r0, #224
 2481 0254 C02D     		cmp	r5, #192
 2482 0256 12D0     		beq	.L496
 2483 0258 00F0F005 		and	r5, r0, #240
 2484 025c E02D     		cmp	r5, #224
 2485 025e 10D0     		beq	.L497
 2486 0260 00F0F800 		and	r0, r0, #248
 2487 0264 F028     		cmp	r0, #240
 2488 0266 7FF458AF 		bne	.L432
 2489 026a 0320     		movs	r0, #3
 2490              	.L446:
 2491 026c 0131     		adds	r1, r1, #1
 2492 026e 0844     		add	r0, r0, r1
 2493              	.L447:
 2494 0270 8842     		cmp	r0, r1
 2495 0272 08D1     		bne	.L448
 2496              	.L546:
 2497 0274 8A42     		cmp	r2, r1
 2498 0276 E5DC     		bgt	.L449
 2499 0278 C9E7     		b	.L498
 2500              	.L495:
 2501 027a 0020     		movs	r0, #0
 2502 027c F6E7     		b	.L446
 2503              	.L496:
 2504 027e 0120     		movs	r0, #1
 2505 0280 F4E7     		b	.L446
 2506              	.L497:
 2507 0282 0220     		movs	r0, #2
 2508 0284 F2E7     		b	.L446
 2509              	.L448:
 2510 0286 8A42     		cmp	r2, r1
 2511 0288 3FF447AF 		beq	.L432
 2512 028c 18F90150 		ldrsb	r5, [r8, r1]
 2513 0290 002D     		cmp	r5, #0
 2514 0292 BFF642AF 		bge	.L432
 2515 0296 0131     		adds	r1, r1, #1
 2516 0298 EAE7     		b	.L447
 2517              	.L545:
 2518 029a 062B     		cmp	r3, #6
ARM GAS  /tmp/cciZhAVO.s 			page 44


 2519 029c B7D1     		bne	.L498
 2520 029e 022A     		cmp	r2, #2
 2521 02a0 7FF73BAF 		ble	.L432
 2522 02a4 3A44     		add	r2, r2, r7
 2523 02a6 4244     		add	r2, r2, r8
 2524 02a8 12F9012C 		ldrsb	r2, [r2, #-1]
 2525 02ac 002A     		cmp	r2, #0
 2526 02ae AEDA     		bge	.L498
 2527 02b0 33E7     		b	.L432
 2528              	.L450:
 2529 02b2 227E     		ldrb	r2, [r4, #24]	@ zero_extendqisi2
 2530 02b4 0B2A     		cmp	r2, #11
 2531 02b6 21D8     		bhi	.L451
 2532 02b8 DFE802F0 		tbb	[pc, r2]
 2533              	.L453:
 2534 02bc A8       		.byte	(.L461-.L453)/2
 2535 02bd 14       		.byte	(.L460-.L453)/2
 2536 02be 3E       		.byte	(.L459-.L453)/2
 2537 02bf 20       		.byte	(.L451-.L453)/2
 2538 02c0 5D       		.byte	(.L458-.L453)/2
 2539 02c1 7C       		.byte	(.L457-.L453)/2
 2540 02c2 89       		.byte	(.L456-.L453)/2
 2541 02c3 20       		.byte	(.L451-.L453)/2
 2542 02c4 95       		.byte	(.L454-.L453)/2
 2543 02c5 9A       		.byte	(.L455-.L453)/2
 2544 02c6 95       		.byte	(.L454-.L453)/2
 2545 02c7 06       		.byte	(.L452-.L453)/2
 2546              		.p2align 1
 2547              	.L452:
 2548 02c8 A368     		ldr	r3, [r4, #8]
 2549 02ca 013B     		subs	r3, r3, #1
 2550              	.L462:
 2551 02cc 13F8012F 		ldrb	r2, [r3, #1]!	@ zero_extendqisi2
 2552 02d0 002A     		cmp	r2, #0
 2553 02d2 3FF422AF 		beq	.L432
 2554 02d6 617E     		ldrb	r1, [r4, #25]	@ zero_extendqisi2
 2555 02d8 9142     		cmp	r1, r2
 2556 02da F7D1     		bne	.L462
 2557 02dc 3D44     		add	r5, r5, r7
 2558 02de C4E90258 		strd	r5, r8, [r4, #8]
 2559 02e2 0BE0     		b	.L451
 2560              	.L460:
 2561 02e4 B8F1010F 		cmp	r8, #1
 2562 02e8 7FF417AF 		bne	.L432
 2563 02ec 012B     		cmp	r3, #1
 2564 02ee 7A5D     		ldrb	r2, [r7, r5]	@ zero_extendqisi2
 2565 02f0 02D0     		beq	.L463
 2566 02f2 08B9     		cbnz	r0, .L463
 2567 02f4 1306     		lsls	r3, r2, #24
 2568 02f6 83D4     		bmi	.L442
 2569              	.L463:
 2570 02f8 A368     		ldr	r3, [r4, #8]
 2571 02fa 1A70     		strb	r2, [r3]
 2572              	.L451:
 2573 02fc DDE90A23 		ldrd	r2, r3, [sp, #40]
 2574 0300 1344     		add	r3, r3, r2
 2575 0302 0B93     		str	r3, [sp, #44]
ARM GAS  /tmp/cciZhAVO.s 			page 45


 2576 0304 99F80330 		ldrb	r3, [r9, #3]	@ zero_extendqisi2
 2577 0308 012B     		cmp	r3, #1
 2578 030a 7FF664AF 		bls	.L429
 2579 030e 029A     		ldr	r2, [sp, #8]
 2580 0310 0136     		adds	r6, r6, #1
 2581 0312 0332     		adds	r2, r2, #3
 2582              	.L478:
 2583 0314 0499     		ldr	r1, [sp, #16]
 2584 0316 8E42     		cmp	r6, r1
 2585 0318 3FF4E7AE 		beq	.L480
 2586 031c 0299     		ldr	r1, [sp, #8]
 2587 031e 11F82600 		ldrb	r0, [r1, r6, lsl #2]	@ zero_extendqisi2
 2588 0322 99F80010 		ldrb	r1, [r9]	@ zero_extendqisi2
 2589 0326 8842     		cmp	r0, r1
 2590 0328 04D8     		bhi	.L479
 2591 032a 12F82610 		ldrb	r1, [r2, r6, lsl #2]	@ zero_extendqisi2
 2592 032e 9942     		cmp	r1, r3
 2593 0330 7FF4DBAE 		bne	.L480
 2594              	.L479:
 2595 0334 0136     		adds	r6, r6, #1
 2596 0336 EDE7     		b	.L478
 2597              	.L459:
 2598 0338 B8F1000F 		cmp	r8, #0
 2599 033c 3FF4EDAE 		beq	.L432
 2600 0340 B8F1020F 		cmp	r8, #2
 2601 0344 3FF7E9AE 		bgt	.L432
 2602 0348 18B9     		cbnz	r0, .L464
 2603 034a 7B57     		ldrsb	r3, [r7, r5]
 2604 034c 002B     		cmp	r3, #0
 2605 034e FFF657AF 		blt	.L442
 2606              	.L464:
 2607 0352 4FF00003 		mov	r3, #0	@ movhi
 2608 0356 0020     		movs	r0, #0
 2609 0358 A268     		ldr	r2, [r4, #8]
 2610 035a 3D44     		add	r5, r5, r7
 2611 035c 1380     		strh	r3, [r2]	@ movhi
 2612              	.L465:
 2613 035e 4045     		cmp	r0, r8
 2614 0360 CCDA     		bge	.L451
 2615 0362 1388     		ldrh	r3, [r2]
 2616 0364 0130     		adds	r0, r0, #1
 2617 0366 1B02     		lsls	r3, r3, #8
 2618 0368 9BB2     		uxth	r3, r3
 2619 036a 1380     		strh	r3, [r2]	@ movhi
 2620 036c 15F8011B 		ldrb	r1, [r5], #1	@ zero_extendqisi2
 2621 0370 0B43     		orrs	r3, r3, r1
 2622 0372 1380     		strh	r3, [r2]	@ movhi
 2623 0374 F3E7     		b	.L465
 2624              	.L458:
 2625 0376 B8F1000F 		cmp	r8, #0
 2626 037a 3FF4CEAE 		beq	.L432
 2627 037e B8F1040F 		cmp	r8, #4
 2628 0382 3FF7CAAE 		bgt	.L432
 2629 0386 18B9     		cbnz	r0, .L467
 2630 0388 7B57     		ldrsb	r3, [r7, r5]
 2631 038a 002B     		cmp	r3, #0
 2632 038c FFF638AF 		blt	.L442
ARM GAS  /tmp/cciZhAVO.s 			page 46


 2633              	.L467:
 2634 0390 0022     		movs	r2, #0
 2635 0392 A368     		ldr	r3, [r4, #8]
 2636 0394 3D44     		add	r5, r5, r7
 2637 0396 1A60     		str	r2, [r3]
 2638              	.L468:
 2639 0398 4245     		cmp	r2, r8
 2640 039a AFDA     		bge	.L451
 2641 039c A168     		ldr	r1, [r4, #8]
 2642 039e 0132     		adds	r2, r2, #1
 2643 03a0 0B68     		ldr	r3, [r1]
 2644 03a2 1B02     		lsls	r3, r3, #8
 2645 03a4 0B60     		str	r3, [r1]
 2646 03a6 A168     		ldr	r1, [r4, #8]
 2647 03a8 15F8010B 		ldrb	r0, [r5], #1	@ zero_extendqisi2
 2648 03ac 0B68     		ldr	r3, [r1]
 2649 03ae 0343     		orrs	r3, r3, r0
 2650 03b0 0B60     		str	r3, [r1]
 2651 03b2 F1E7     		b	.L468
 2652              	.L457:
 2653 03b4 E368     		ldr	r3, [r4, #12]
 2654 03b6 1B68     		ldr	r3, [r3]
 2655 03b8 4345     		cmp	r3, r8
 2656 03ba 72DB     		blt	.L499
 2657 03bc 4246     		mov	r2, r8
 2658 03be A068     		ldr	r0, [r4, #8]
 2659 03c0 7919     		adds	r1, r7, r5
 2660 03c2 FFF7FEFF 		bl	memcpy
 2661 03c6 E368     		ldr	r3, [r4, #12]
 2662 03c8 C3F80080 		str	r8, [r3]
 2663 03cc 96E7     		b	.L451
 2664              	.L456:
 2665 03ce E368     		ldr	r3, [r4, #12]
 2666 03d0 4345     		cmp	r3, r8
 2667 03d2 7FF4A2AE 		bne	.L432
 2668 03d6 4246     		mov	r2, r8
 2669 03d8 A068     		ldr	r0, [r4, #8]
 2670 03da 7919     		adds	r1, r7, r5
 2671 03dc FFF7FEFF 		bl	memcmp
 2672 03e0 0028     		cmp	r0, #0
 2673 03e2 8BD0     		beq	.L451
 2674 03e4 99E6     		b	.L432
 2675              	.L454:
 2676 03e6 A068     		ldr	r0, [r4, #8]
 2677 03e8 FFF7FEFF 		bl	sp_init
 2678 03ec 0028     		cmp	r0, #0
 2679 03ee 5BD1     		bne	.L500
 2680              	.L455:
 2681 03f0 4246     		mov	r2, r8
 2682 03f2 A068     		ldr	r0, [r4, #8]
 2683 03f4 7919     		adds	r1, r7, r5
 2684 03f6 FFF7FEFF 		bl	sp_read_unsigned_bin
 2685 03fa 0028     		cmp	r0, #0
 2686 03fc 3FF47EAF 		beq	.L451
 2687 0400 A068     		ldr	r0, [r4, #8]
 2688 0402 FFF7FEFF 		bl	sp_clear
 2689 0406 6FF08D00 		mvn	r0, #141
ARM GAS  /tmp/cciZhAVO.s 			page 47


 2690 040a 88E6     		b	.L419
 2691              	.L461:
 2692 040c 012B     		cmp	r3, #1
 2693 040e 0CD1     		bne	.L473
 2694 0410 B8F1010F 		cmp	r8, #1
 2695 0414 7FF481AE 		bne	.L432
 2696 0418 A268     		ldr	r2, [r4, #8]
 2697 041a 002A     		cmp	r2, #0
 2698 041c 47D0     		beq	.L501
 2699 041e 7B5D     		ldrb	r3, [r7, r5]	@ zero_extendqisi2
 2700 0420 003B     		subs	r3, r3, #0
 2701 0422 18BF     		it	ne
 2702 0424 0123     		movne	r3, #1
 2703 0426 1370     		strb	r3, [r2]
 2704 0428 68E7     		b	.L451
 2705              	.L473:
 2706 042a 052B     		cmp	r3, #5
 2707 042c 06D1     		bne	.L474
 2708 042e B8F1000F 		cmp	r8, #0
 2709 0432 7FF4E5AE 		bne	.L442
 2710 0436 3D44     		add	r5, r5, r7
 2711 0438 A560     		str	r5, [r4, #8]
 2712 043a 5FE7     		b	.L451
 2713              	.L474:
 2714 043c 3D44     		add	r5, r5, r7
 2715 043e 062B     		cmp	r3, #6
 2716 0440 C4E90258 		strd	r5, r8, [r4, #8]
 2717 0444 7FF45AAF 		bne	.L451
 2718 0448 2369     		ldr	r3, [r4, #16]
 2719 044a 4146     		mov	r1, r8
 2720 044c 0793     		str	r3, [sp, #28]
 2721 044e 0023     		movs	r3, #0
 2722 0450 2846     		mov	r0, r5
 2723 0452 6361     		str	r3, [r4, #20]
 2724 0454 FFF7FEFF 		bl	wc_oid_sum
 2725 0458 079B     		ldr	r3, [sp, #28]
 2726 045a 6061     		str	r0, [r4, #20]
 2727 045c 152B     		cmp	r3, #21
 2728 045e 3FF44DAF 		beq	.L451
 2729 0462 1946     		mov	r1, r3
 2730 0464 0CAA     		add	r2, sp, #48
 2731 0466 FFF7FEFF 		bl	OidFromId
 2732 046a 0146     		mov	r1, r0
 2733 046c 0028     		cmp	r0, #0
 2734 046e 3FF445AF 		beq	.L451
 2735 0472 0C9B     		ldr	r3, [sp, #48]
 2736 0474 4345     		cmp	r3, r8
 2737 0476 06D1     		bne	.L477
 2738 0478 4246     		mov	r2, r8
 2739 047a 2846     		mov	r0, r5
 2740 047c FFF7FEFF 		bl	memcmp
 2741 0480 0028     		cmp	r0, #0
 2742 0482 3FF43BAF 		beq	.L451
 2743              	.L477:
 2744 0486 6FF09300 		mvn	r0, #147
 2745 048a 48E6     		b	.L419
 2746              	.L485:
ARM GAS  /tmp/cciZhAVO.s 			page 48


 2747 048c 52F82B10 		ldr	r1, [r2, fp, lsl #2]
 2748 0490 9942     		cmp	r1, r3
 2749 0492 3FF642AE 		bhi	.L432
 2750 0496 0BF1FF3B 		add	fp, fp, #-1
 2751 049a D6E5     		b	.L484
 2752              	.L489:
 2753 049c 6FF08F00 		mvn	r0, #143
 2754 04a0 3DE6     		b	.L419
 2755              	.L499:
 2756 04a2 6FF08300 		mvn	r0, #131
 2757 04a6 3AE6     		b	.L419
 2758              	.L500:
 2759 04a8 6FF06D00 		mvn	r0, #109
 2760 04ac 37E6     		b	.L419
 2761              	.L501:
 2762 04ae 6FF0BF00 		mvn	r0, #191
 2763 04b2 34E6     		b	.L419
 2764              	.L441:
 2765 04b4 0129     		cmp	r1, #1
 2766 04b6 3FF6AAAE 		bhi	.L498
 2767 04ba A1E6     		b	.L442
 2769              		.section	.text.GetMyVersion,"ax",%progbits
 2770              		.align	1
 2771              		.global	GetMyVersion
 2772              		.syntax unified
 2773              		.thumb
 2774              		.thumb_func
 2775              		.fpu fpv4-sp-d16
 2777              	GetMyVersion:
 2778              		@ args = 0, pretend = 0, frame = 32
 2779              		@ frame_needed = 0, uses_anonymous_args = 0
 2780 0000 2DE9F041 		push	{r4, r5, r6, r7, r8, lr}
 2781 0004 0025     		movs	r5, #0
 2782 0006 8CB0     		sub	sp, sp, #48
 2783 0008 9846     		mov	r8, r3
 2784 000a 0646     		mov	r6, r0
 2785 000c 0F46     		mov	r7, r1
 2786 000e 1446     		mov	r4, r2
 2787 0010 2946     		mov	r1, r5
 2788 0012 1C22     		movs	r2, #28
 2789 0014 05A8     		add	r0, sp, #20
 2790 0016 8DF81350 		strb	r5, [sp, #19]
 2791 001a FFF7FEFF 		bl	memset
 2792 001e 0122     		movs	r2, #1
 2793 0020 0DF11303 		add	r3, sp, #19
 2794 0024 0793     		str	r3, [sp, #28]
 2795 0026 CDE90178 		strd	r7, r8, [sp, #4]
 2796 002a 2B46     		mov	r3, r5
 2797 002c 0648     		ldr	r0, .L549
 2798 002e 0096     		str	r6, [sp]
 2799 0030 05A9     		add	r1, sp, #20
 2800 0032 8DF82C20 		strb	r2, [sp, #44]
 2801 0036 FFF7FEFF 		bl	GetASN_Items
 2802 003a 10B9     		cbnz	r0, .L547
 2803 003c 9DF81300 		ldrb	r0, [sp, #19]	@ zero_extendqisi2
 2804 0040 2060     		str	r0, [r4]
 2805              	.L547:
ARM GAS  /tmp/cciZhAVO.s 			page 49


 2806 0042 0CB0     		add	sp, sp, #48
 2807              		@ sp needed
 2808 0044 BDE8F081 		pop	{r4, r5, r6, r7, r8, pc}
 2809              	.L550:
 2810              		.align	2
 2811              	.L549:
 2812 0048 00000000 		.word	.LANCHOR55
 2814              		.section	.text.GetShortInt,"ax",%progbits
 2815              		.align	1
 2816              		.global	GetShortInt
 2817              		.syntax unified
 2818              		.thumb
 2819              		.thumb_func
 2820              		.fpu fpv4-sp-d16
 2822              	GetShortInt:
 2823              		@ args = 0, pretend = 0, frame = 32
 2824              		@ frame_needed = 0, uses_anonymous_args = 0
 2825 0000 F0B5     		push	{r4, r5, r6, r7, lr}
 2826 0002 1F46     		mov	r7, r3
 2827 0004 0023     		movs	r3, #0
 2828 0006 8DB0     		sub	sp, sp, #52
 2829 0008 0546     		mov	r5, r0
 2830 000a 0E46     		mov	r6, r1
 2831 000c 1446     		mov	r4, r2
 2832 000e 1946     		mov	r1, r3
 2833 0010 1C22     		movs	r2, #28
 2834 0012 05A8     		add	r0, sp, #20
 2835 0014 0493     		str	r3, [sp, #16]
 2836 0016 FFF7FEFF 		bl	memset
 2837 001a 0422     		movs	r2, #4
 2838 001c 8DF82C20 		strb	r2, [sp, #44]
 2839 0020 04AA     		add	r2, sp, #16
 2840 0022 0792     		str	r2, [sp, #28]
 2841 0024 0023     		movs	r3, #0
 2842 0026 0122     		movs	r2, #1
 2843 0028 CDE90167 		strd	r6, r7, [sp, #4]
 2844 002c 0448     		ldr	r0, .L553
 2845 002e 0095     		str	r5, [sp]
 2846 0030 05A9     		add	r1, sp, #20
 2847 0032 FFF7FEFF 		bl	GetASN_Items
 2848 0036 08B9     		cbnz	r0, .L551
 2849 0038 0498     		ldr	r0, [sp, #16]
 2850 003a 2060     		str	r0, [r4]
 2851              	.L551:
 2852 003c 0DB0     		add	sp, sp, #52
 2853              		@ sp needed
 2854 003e F0BD     		pop	{r4, r5, r6, r7, pc}
 2855              	.L554:
 2856              		.align	2
 2857              	.L553:
 2858 0040 00000000 		.word	.LANCHOR55
 2860              		.section	.text.GetInt,"ax",%progbits
 2861              		.align	1
 2862              		.global	GetInt
 2863              		.syntax unified
 2864              		.thumb
 2865              		.thumb_func
ARM GAS  /tmp/cciZhAVO.s 			page 50


 2866              		.fpu fpv4-sp-d16
 2868              	GetInt:
 2869              		@ args = 0, pretend = 0, frame = 32
 2870              		@ frame_needed = 0, uses_anonymous_args = 0
 2871 0000 F0B5     		push	{r4, r5, r6, r7, lr}
 2872 0002 8DB0     		sub	sp, sp, #52
 2873 0004 0746     		mov	r7, r0
 2874 0006 0C46     		mov	r4, r1
 2875 0008 1546     		mov	r5, r2
 2876 000a 0021     		movs	r1, #0
 2877 000c 1C22     		movs	r2, #28
 2878 000e 05A8     		add	r0, sp, #20
 2879 0010 1E46     		mov	r6, r3
 2880 0012 FFF7FEFF 		bl	memset
 2881 0016 0A23     		movs	r3, #10
 2882 0018 0122     		movs	r2, #1
 2883 001a 8DF82C30 		strb	r3, [sp, #44]
 2884 001e CDE90156 		strd	r5, r6, [sp, #4]
 2885 0022 0023     		movs	r3, #0
 2886 0024 0094     		str	r4, [sp]
 2887 0026 05A9     		add	r1, sp, #20
 2888 0028 0248     		ldr	r0, .L556
 2889 002a 0797     		str	r7, [sp, #28]
 2890 002c FFF7FEFF 		bl	GetASN_Items
 2891 0030 0DB0     		add	sp, sp, #52
 2892              		@ sp needed
 2893 0032 F0BD     		pop	{r4, r5, r6, r7, pc}
 2894              	.L557:
 2895              		.align	2
 2896              	.L556:
 2897 0034 00000000 		.word	.LANCHOR55
 2899              		.section	.text.CheckBitString,"ax",%progbits
 2900              		.align	1
 2901              		.global	CheckBitString
 2902              		.syntax unified
 2903              		.thumb
 2904              		.thumb_func
 2905              		.fpu fpv4-sp-d16
 2907              	CheckBitString:
 2908              		@ args = 8, pretend = 0, frame = 32
 2909              		@ frame_needed = 0, uses_anonymous_args = 0
 2910 0000 2DE9F041 		push	{r4, r5, r6, r7, r8, lr}
 2911 0004 9846     		mov	r8, r3
 2912 0006 0646     		mov	r6, r0
 2913 0008 0F46     		mov	r7, r1
 2914 000a 8CB0     		sub	sp, sp, #48
 2915 000c 0021     		movs	r1, #0
 2916 000e 1446     		mov	r4, r2
 2917 0010 05A8     		add	r0, sp, #20
 2918 0012 1C22     		movs	r2, #28
 2919 0014 139D     		ldr	r5, [sp, #76]
 2920 0016 FFF7FEFF 		bl	memset
 2921 001a 0023     		movs	r3, #0
 2922 001c 0122     		movs	r2, #1
 2923 001e CDE90178 		strd	r7, r8, [sp, #4]
 2924 0022 0B48     		ldr	r0, .L570
 2925 0024 0096     		str	r6, [sp]
ARM GAS  /tmp/cciZhAVO.s 			page 51


 2926 0026 05A9     		add	r1, sp, #20
 2927 0028 FFF7FEFF 		bl	GetASN_Items
 2928 002c 68B9     		cbnz	r0, .L558
 2929 002e 079B     		ldr	r3, [sp, #28]
 2930 0030 129A     		ldr	r2, [sp, #72]
 2931 0032 13F8013C 		ldrb	r3, [r3, #-1]	@ zero_extendqisi2
 2932 0036 1AB1     		cbz	r2, .L560
 2933 0038 13B1     		cbz	r3, .L560
 2934 003a 6FF09100 		mvn	r0, #145
 2935 003e 04E0     		b	.L558
 2936              	.L560:
 2937 0040 0CB1     		cbz	r4, .L562
 2938 0042 089A     		ldr	r2, [sp, #32]
 2939 0044 2260     		str	r2, [r4]
 2940              	.L562:
 2941 0046 05B1     		cbz	r5, .L558
 2942 0048 2B70     		strb	r3, [r5]
 2943              	.L558:
 2944 004a 0CB0     		add	sp, sp, #48
 2945              		@ sp needed
 2946 004c BDE8F081 		pop	{r4, r5, r6, r7, r8, pc}
 2947              	.L571:
 2948              		.align	2
 2949              	.L570:
 2950 0050 00000000 		.word	.LANCHOR56
 2952              		.section	.text.GetAlgoIdImpl,"ax",%progbits
 2953              		.align	1
 2954              		.syntax unified
 2955              		.thumb
 2956              		.thumb_func
 2957              		.fpu fpv4-sp-d16
 2959              	GetAlgoIdImpl:
 2960              		@ args = 8, pretend = 0, frame = 0
 2961              		@ frame_needed = 0, uses_anonymous_args = 0
 2962 0000 2DE9F043 		push	{r4, r5, r6, r7, r8, r9, lr}
 2963 0004 0546     		mov	r5, r0
 2964 0006 85B0     		sub	sp, sp, #20
 2965 0008 5420     		movs	r0, #84
 2966 000a 0F46     		mov	r7, r1
 2967 000c 1646     		mov	r6, r2
 2968 000e 9846     		mov	r8, r3
 2969 0010 DDF83490 		ldr	r9, [sp, #52]
 2970 0014 FFF7FEFF 		bl	wolfSSL_Malloc
 2971 0018 0446     		mov	r4, r0
 2972 001a 18B3     		cbz	r0, .L575
 2973 001c 5422     		movs	r2, #84
 2974 001e 0021     		movs	r1, #0
 2975 0020 FFF7FEFF 		bl	memset
 2976 0024 0C9B     		ldr	r3, [sp, #48]
 2977 0026 C4F82C80 		str	r8, [r4, #44]
 2978 002a 0322     		movs	r2, #3
 2979 002c CDE90173 		strd	r7, r3, [sp, #4]
 2980 0030 0095     		str	r5, [sp]
 2981 0032 0023     		movs	r3, #0
 2982 0034 2146     		mov	r1, r4
 2983 0036 0D48     		ldr	r0, .L579
 2984 0038 FFF7FEFF 		bl	GetASN_Items
ARM GAS  /tmp/cciZhAVO.s 			page 52


 2985 003c 0546     		mov	r5, r0
 2986 003e 50B9     		cbnz	r0, .L574
 2987 0040 236B     		ldr	r3, [r4, #48]
 2988 0042 3360     		str	r3, [r6]
 2989 0044 B9F1000F 		cmp	r9, #0
 2990 0048 05D0     		beq	.L574
 2991 004a 94F85130 		ldrb	r3, [r4, #81]	@ zero_extendqisi2
 2992 004e 052B     		cmp	r3, #5
 2993 0050 08BF     		it	eq
 2994 0052 89F80000 		strbeq	r0, [r9]
 2995              	.L574:
 2996 0056 2046     		mov	r0, r4
 2997 0058 FFF7FEFF 		bl	wolfSSL_Free
 2998              	.L572:
 2999 005c 2846     		mov	r0, r5
 3000 005e 05B0     		add	sp, sp, #20
 3001              		@ sp needed
 3002 0060 BDE8F083 		pop	{r4, r5, r6, r7, r8, r9, pc}
 3003              	.L575:
 3004 0064 6FF07C05 		mvn	r5, #124
 3005 0068 F8E7     		b	.L572
 3006              	.L580:
 3007 006a 00BF     		.align	2
 3008              	.L579:
 3009 006c 00000000 		.word	.LANCHOR54
 3011              		.section	.rodata.GetCertName.str1.1,"aMS",%progbits,1
 3012              	.LC0:
 3013 0000 2F656D61 		.ascii	"/emailAddress=\000"
 3013      696C4164 
 3013      64726573 
 3013      733D00
 3014              	.LC1:
 3015 000f 2F554944 		.ascii	"/UID=\000"
 3015      3D00
 3016              	.LC2:
 3017 0015 2F44433D 		.ascii	"/DC=\000"
 3017      00
 3018              	.LC3:
 3019 001a 2F726663 		.ascii	"/rfc822Mailbox=\000"
 3019      3832324D 
 3019      61696C62 
 3019      6F783D00 
 3020              	.LC4:
 3021 002a 2F666176 		.ascii	"/favouriteDrink=\000"
 3021      6F757269 
 3021      74654472 
 3021      696E6B3D 
 3021      00
 3022              	.LC5:
 3023 003b 2F6A7572 		.ascii	"/jurisdictionC=\000"
 3023      69736469 
 3023      6374696F 
 3023      6E433D00 
 3024              	.LC6:
 3025 004b 2F6A7572 		.ascii	"/jurisdictionST=\000"
 3025      69736469 
 3025      6374696F 
ARM GAS  /tmp/cciZhAVO.s 			page 53


 3025      6E53543D 
 3025      00
 3026              	.LC7:
 3027 005c 2B060104 		.ascii	"+\006\001\004\001\2027<\002\001\000"
 3027      0182373C 
 3027      020100
 3028              		.section	.text.GetCertName,"ax",%progbits
 3029              		.align	1
 3030              		.syntax unified
 3031              		.thumb
 3032              		.thumb_func
 3033              		.fpu fpv4-sp-d16
 3035              	GetCertName:
 3036              		@ args = 12, pretend = 0, frame = 24
 3037              		@ frame_needed = 0, uses_anonymous_args = 0
 3038 0000 2DE9F04F 		push	{r4, r5, r6, r7, r8, r9, r10, fp, lr}
 3039 0004 8BB0     		sub	sp, sp, #44
 3040 0006 0593     		str	r3, [sp, #20]
 3041 0008 0023     		movs	r3, #0
 3042 000a 0893     		str	r3, [sp, #32]
 3043 000c 159B     		ldr	r3, [sp, #84]
 3044 000e DDF850B0 		ldr	fp, [sp, #80]
 3045 0012 DDF858A0 		ldr	r10, [sp, #88]
 3046 0016 0546     		mov	r5, r0
 3047 0018 1868     		ldr	r0, [r3]
 3048 001a 8846     		mov	r8, r1
 3049 001c 0990     		str	r0, [sp, #36]
 3050 001e AAEB0001 		sub	r1, r10, r0
 3051 0022 5844     		add	r0, r0, fp
 3052 0024 FFF7FEFF 		bl	wc_ShaHash
 3053 0028 0646     		mov	r6, r0
 3054 002a 0028     		cmp	r0, #0
 3055 002c 40F0EB80 		bne	.L595
 3056 0030 7020     		movs	r0, #112
 3057 0032 FFF7FEFF 		bl	wolfSSL_Malloc
 3058 0036 0446     		mov	r4, r0
 3059 0038 0028     		cmp	r0, #0
 3060 003a 00F0E780 		beq	.L596
 3061 003e 3146     		mov	r1, r6
 3062 0040 7022     		movs	r2, #112
 3063 0042 FFF7FEFF 		bl	memset
 3064 0046 0123     		movs	r3, #1
 3065 0048 5846     		mov	r0, fp
 3066 004a 0093     		str	r3, [sp]
 3067 004c 08AA     		add	r2, sp, #32
 3068 004e 5346     		mov	r3, r10
 3069 0050 09A9     		add	r1, sp, #36
 3070 0052 FFF7FEFF 		bl	GetASN_Sequence
 3071 0056 0646     		mov	r6, r0
 3072 0058 0028     		cmp	r0, #0
 3073 005a 40F0CD80 		bne	.L583
 3074 005e 059B     		ldr	r3, [sp, #20]
 3075 0060 012B     		cmp	r3, #1
 3076 0062 06D1     		bne	.L584
 3077 0064 099B     		ldr	r3, [sp, #36]
 3078 0066 5B44     		add	r3, r3, fp
 3079 0068 C5F81C33 		str	r3, [r5, #796]
ARM GAS  /tmp/cciZhAVO.s 			page 54


 3080 006c 089B     		ldr	r3, [sp, #32]
 3081 006e C5F82033 		str	r3, [r5, #800]
 3082              	.L584:
 3083 0072 0027     		movs	r7, #0
 3084              	.L585:
 3085 0074 099B     		ldr	r3, [sp, #36]
 3086 0076 5345     		cmp	r3, r10
 3087 0078 05D3     		bcc	.L593
 3088 007a 0022     		movs	r2, #0
 3089 007c 08F80720 		strb	r2, [r8, r7]
 3090 0080 159A     		ldr	r2, [sp, #84]
 3091 0082 1360     		str	r3, [r2]
 3092 0084 B8E0     		b	.L583
 3093              	.L593:
 3094 0086 0B23     		movs	r3, #11
 3095 0088 84F86C30 		strb	r3, [r4, #108]
 3096 008c 614B     		ldr	r3, .L609
 3097 008e 0422     		movs	r2, #4
 3098 0090 E365     		str	r3, [r4, #92]
 3099 0092 1523     		movs	r3, #21
 3100 0094 A364     		str	r3, [r4, #72]
 3101 0096 09AB     		add	r3, sp, #36
 3102 0098 CDE900B3 		strd	fp, r3, [sp]
 3103 009c 2146     		mov	r1, r4
 3104 009e 0123     		movs	r3, #1
 3105 00a0 5D48     		ldr	r0, .L609+4
 3106 00a2 CDF808A0 		str	r10, [sp, #8]
 3107 00a6 FFF7FEFF 		bl	GetASN_Items
 3108 00aa 0028     		cmp	r0, #0
 3109 00ac 40F0A380 		bne	.L597
 3110 00b0 D4E91092 		ldrd	r9, r2, [r4, #64]
 3111 00b4 032A     		cmp	r2, #3
 3112 00b6 3BD1     		bne	.L586
 3113 00b8 99F80030 		ldrb	r3, [r9]	@ zero_extendqisi2
 3114 00bc 552B     		cmp	r3, #85
 3115 00be D9D1     		bne	.L585
 3116 00c0 99F80130 		ldrb	r3, [r9, #1]	@ zero_extendqisi2
 3117 00c4 042B     		cmp	r3, #4
 3118 00c6 D5D1     		bne	.L585
 3119 00c8 99F80200 		ldrb	r0, [r9, #2]	@ zero_extendqisi2
 3120 00cc C31E     		subs	r3, r0, #3
 3121 00ce 0F2B     		cmp	r3, #15
 3122 00d0 D0D8     		bhi	.L585
 3123 00d2 5249     		ldr	r1, .L609+8
 3124 00d4 01EBC302 		add	r2, r1, r3, lsl #3
 3125 00d8 1279     		ldrb	r2, [r2, #4]	@ zero_extendqisi2
 3126 00da 002A     		cmp	r2, #0
 3127 00dc CAD0     		beq	.L585
 3128 00de 51F83310 		ldr	r1, [r1, r3, lsl #3]
 3129 00e2 0029     		cmp	r1, #0
 3130 00e4 C6D0     		beq	.L585
 3131              	.L588:
 3132 00e6 D4E917E9 		ldrd	lr, r9, [r4, #92]
 3133 00ea 059B     		ldr	r3, [sp, #20]
 3134 00ec 012B     		cmp	r3, #1
 3135 00ee 07D1     		bne	.L591
 3136 00f0 0328     		cmp	r0, #3
ARM GAS  /tmp/cciZhAVO.s 			page 55


 3137 00f2 7AD1     		bne	.L592
 3138 00f4 94F86D00 		ldrb	r0, [r4, #109]	@ zero_extendqisi2
 3139 00f8 C5E919E9 		strd	lr, r9, [r5, #100]
 3140 00fc 85F86C00 		strb	r0, [r5, #108]
 3141              	.L591:
 3142 0100 09EB0200 		add	r0, r9, r2
 3143 0104 C7F5807C 		rsb	ip, r7, #256
 3144 0108 6045     		cmp	r0, ip
 3145 010a B3D2     		bcs	.L585
 3146 010c 08EB0700 		add	r0, r8, r7
 3147 0110 CDE9062E 		strd	r2, lr, [sp, #24]
 3148 0114 FFF7FEFF 		bl	memcpy
 3149 0118 069A     		ldr	r2, [sp, #24]
 3150 011a DDF81CE0 		ldr	lr, [sp, #28]
 3151 011e 1744     		add	r7, r7, r2
 3152 0120 08EB0700 		add	r0, r8, r7
 3153 0124 4A46     		mov	r2, r9
 3154 0126 7146     		mov	r1, lr
 3155 0128 FFF7FEFF 		bl	memcpy
 3156 012c 4F44     		add	r7, r7, r9
 3157 012e A1E7     		b	.L585
 3158              	.L586:
 3159 0130 092A     		cmp	r2, #9
 3160 0132 0AD1     		bne	.L589
 3161 0134 4846     		mov	r0, r9
 3162 0136 3A49     		ldr	r1, .L609+12
 3163 0138 FFF7FEFF 		bl	memcmp
 3164 013c 0028     		cmp	r0, #0
 3165 013e 99D1     		bne	.L585
 3166 0140 0E22     		movs	r2, #14
 3167 0142 4FF48070 		mov	r0, #256
 3168 0146 3749     		ldr	r1, .L609+16
 3169 0148 CDE7     		b	.L588
 3170              	.L589:
 3171 014a 0A2A     		cmp	r2, #10
 3172 014c 22D1     		bne	.L590
 3173 014e 4846     		mov	r0, r9
 3174 0150 3549     		ldr	r1, .L609+20
 3175 0152 0692     		str	r2, [sp, #24]
 3176 0154 FFF7FEFF 		bl	memcmp
 3177 0158 98B3     		cbz	r0, .L599
 3178 015a 4846     		mov	r0, r9
 3179 015c 069A     		ldr	r2, [sp, #24]
 3180 015e 3349     		ldr	r1, .L609+24
 3181 0160 FFF7FEFF 		bl	memcmp
 3182 0164 88B3     		cbz	r0, .L600
 3183 0166 4846     		mov	r0, r9
 3184 0168 069A     		ldr	r2, [sp, #24]
 3185 016a 3149     		ldr	r1, .L609+28
 3186 016c FFF7FEFF 		bl	memcmp
 3187 0170 80B3     		cbz	r0, .L601
 3188 0172 4846     		mov	r0, r9
 3189 0174 069A     		ldr	r2, [sp, #24]
 3190 0176 2F49     		ldr	r1, .L609+32
 3191 0178 FFF7FEFF 		bl	memcmp
 3192 017c 70B3     		cbz	r0, .L602
 3193 017e 0922     		movs	r2, #9
ARM GAS  /tmp/cciZhAVO.s 			page 56


 3194 0180 4846     		mov	r0, r9
 3195 0182 2A49     		ldr	r1, .L609+24
 3196 0184 FFF7FEFF 		bl	memcmp
 3197 0188 0028     		cmp	r0, #0
 3198 018a 7FF473AF 		bne	.L585
 3199 018e 6FF08B06 		mvn	r6, #139
 3200 0192 31E0     		b	.L583
 3201              	.L590:
 3202 0194 0B2A     		cmp	r2, #11
 3203 0196 7FF46DAF 		bne	.L585
 3204 019a 0A22     		movs	r2, #10
 3205 019c 4846     		mov	r0, r9
 3206 019e 2649     		ldr	r1, .L609+36
 3207 01a0 FFF7FEFF 		bl	memcmp
 3208 01a4 0028     		cmp	r0, #0
 3209 01a6 7FF465AF 		bne	.L585
 3210 01aa 99F80A30 		ldrb	r3, [r9, #10]	@ zero_extendqisi2
 3211 01ae 032B     		cmp	r3, #3
 3212 01b0 03F50070 		add	r0, r3, #512
 3213 01b4 16D0     		beq	.L604
 3214 01b6 022B     		cmp	r3, #2
 3215 01b8 7FF45CAF 		bne	.L585
 3216 01bc 1022     		movs	r2, #16
 3217 01be 1F49     		ldr	r1, .L609+40
 3218 01c0 91E7     		b	.L588
 3219              	.L599:
 3220 01c2 0522     		movs	r2, #5
 3221 01c4 1220     		movs	r0, #18
 3222 01c6 1E49     		ldr	r1, .L609+44
 3223 01c8 8DE7     		b	.L588
 3224              	.L600:
 3225 01ca 0422     		movs	r2, #4
 3226 01cc 4FF48170 		mov	r0, #258
 3227 01d0 1C49     		ldr	r1, .L609+48
 3228 01d2 88E7     		b	.L588
 3229              	.L601:
 3230 01d4 0F22     		movs	r2, #15
 3231 01d6 1420     		movs	r0, #20
 3232 01d8 1B49     		ldr	r1, .L609+52
 3233 01da 84E7     		b	.L588
 3234              	.L602:
 3235 01dc 1022     		movs	r2, #16
 3236 01de 1320     		movs	r0, #19
 3237 01e0 1A49     		ldr	r1, .L609+56
 3238 01e2 80E7     		b	.L588
 3239              	.L604:
 3240 01e4 0F22     		movs	r2, #15
 3241 01e6 1A49     		ldr	r1, .L609+60
 3242 01e8 7DE7     		b	.L588
 3243              	.L592:
 3244 01ea B0F5807F 		cmp	r0, #256
 3245 01ee 08BF     		it	eq
 3246 01f0 C5E9C9E9 		strdeq	lr, r9, [r5, #804]
 3247 01f4 84E7     		b	.L591
 3248              	.L597:
 3249 01f6 0646     		mov	r6, r0
 3250              	.L583:
ARM GAS  /tmp/cciZhAVO.s 			page 57


 3251 01f8 2046     		mov	r0, r4
 3252 01fa FFF7FEFF 		bl	wolfSSL_Free
 3253              	.L581:
 3254 01fe 3046     		mov	r0, r6
 3255 0200 0BB0     		add	sp, sp, #44
 3256              		@ sp needed
 3257 0202 BDE8F08F 		pop	{r4, r5, r6, r7, r8, r9, r10, fp, pc}
 3258              	.L595:
 3259 0206 6FF08B06 		mvn	r6, #139
 3260 020a F8E7     		b	.L581
 3261              	.L596:
 3262 020c 6FF07C06 		mvn	r6, #124
 3263 0210 F5E7     		b	.L581
 3264              	.L610:
 3265 0212 00BF     		.align	2
 3266              	.L609:
 3267 0214 00000000 		.word	.LANCHOR57
 3268 0218 00000000 		.word	.LANCHOR58
 3269 021c 00000000 		.word	.LANCHOR59
 3270 0220 00000000 		.word	.LANCHOR60
 3271 0224 00000000 		.word	.LC0
 3272 0228 00000000 		.word	.LANCHOR61
 3273 022c 00000000 		.word	.LANCHOR62
 3274 0230 00000000 		.word	.LANCHOR63
 3275 0234 00000000 		.word	.LANCHOR64
 3276 0238 5C000000 		.word	.LC7
 3277 023c 4B000000 		.word	.LC6
 3278 0240 0F000000 		.word	.LC1
 3279 0244 15000000 		.word	.LC2
 3280 0248 1A000000 		.word	.LC3
 3281 024c 2A000000 		.word	.LC4
 3282 0250 3B000000 		.word	.LC5
 3284              		.section	.text.DecodeSubtree.constprop.0.isra.0,"ax",%progbits
 3285              		.align	1
 3286              		.syntax unified
 3287              		.thumb
 3288              		.thumb_func
 3289              		.fpu fpv4-sp-d16
 3291              	DecodeSubtree.constprop.0.isra.0:
 3292              		@ args = 0, pretend = 0, frame = 24
 3293              		@ frame_needed = 0, uses_anonymous_args = 0
 3294 0000 2DE9F04F 		push	{r4, r5, r6, r7, r8, r9, r10, fp, lr}
 3295 0004 0026     		movs	r6, #0
 3296 0006 8BB0     		sub	sp, sp, #44
 3297 0008 CDE90410 		strd	r1, r0, [sp, #16]
 3298 000c 7020     		movs	r0, #112
 3299 000e 9046     		mov	r8, r2
 3300 0010 0796     		str	r6, [sp, #28]
 3301 0012 FFF7FEFF 		bl	wolfSSL_Malloc
 3302 0016 0446     		mov	r4, r0
 3303 0018 0028     		cmp	r0, #0
 3304 001a 5CD0     		beq	.L626
 3305 001c 4FF08109 		mov	r9, #129
 3306              	.L613:
 3307 0020 079B     		ldr	r3, [sp, #28]
 3308 0022 049A     		ldr	r2, [sp, #16]
 3309 0024 9A42     		cmp	r2, r3
ARM GAS  /tmp/cciZhAVO.s 			page 58


 3310 0026 01D8     		bhi	.L623
 3311 0028 0025     		movs	r5, #0
 3312 002a 08E0     		b	.L615
 3313              	.L623:
 3314 002c B9F10109 		subs	r9, r9, #1
 3315 0030 8DF81A60 		strb	r6, [sp, #26]
 3316 0034 8DF81B60 		strb	r6, [sp, #27]
 3317 0038 05D1     		bne	.L614
 3318 003a 6FF0C505 		mvn	r5, #197
 3319              	.L615:
 3320 003e 2046     		mov	r0, r4
 3321 0040 FFF7FEFF 		bl	wolfSSL_Free
 3322 0044 49E0     		b	.L611
 3323              	.L614:
 3324 0046 7022     		movs	r2, #112
 3325 0048 0021     		movs	r1, #0
 3326 004a 2046     		mov	r0, r4
 3327 004c FFF7FEFF 		bl	memset
 3328 0050 0B23     		movs	r3, #11
 3329 0052 84F83430 		strb	r3, [r4, #52]
 3330 0056 324B     		ldr	r3, .L635
 3331 0058 0DF11A02 		add	r2, sp, #26
 3332 005c 6362     		str	r3, [r4, #36]
 3333 005e 0123     		movs	r3, #1
 3334 0060 84F85030 		strb	r3, [r4, #80]
 3335 0064 84F86C30 		strb	r3, [r4, #108]
 3336 0068 0DF11B03 		add	r3, sp, #27
 3337 006c E365     		str	r3, [r4, #92]
 3338 006e 049B     		ldr	r3, [sp, #16]
 3339 0070 2264     		str	r2, [r4, #64]
 3340 0072 0293     		str	r3, [sp, #8]
 3341 0074 07AB     		add	r3, sp, #28
 3342 0076 0193     		str	r3, [sp, #4]
 3343 0078 059B     		ldr	r3, [sp, #20]
 3344 007a 0422     		movs	r2, #4
 3345 007c 0093     		str	r3, [sp]
 3346 007e 2146     		mov	r1, r4
 3347 0080 0023     		movs	r3, #0
 3348 0082 2848     		ldr	r0, .L635+4
 3349 0084 FFF7FEFF 		bl	GetASN_Items
 3350 0088 0546     		mov	r5, r0
 3351 008a 0028     		cmp	r0, #0
 3352 008c D7D1     		bne	.L615
 3353 008e 94F83550 		ldrb	r5, [r4, #53]	@ zero_extendqisi2
 3354 0092 05F17F03 		add	r3, r5, #127
 3355 0096 DBB2     		uxtb	r3, r3
 3356 0098 012B     		cmp	r3, #1
 3357 009a 01D9     		bls	.L617
 3358 009c A42D     		cmp	r5, #164
 3359 009e BFD1     		bne	.L613
 3360              	.L617:
 3361 00a0 D4E908BA 		ldrd	fp, r10, [r4, #32]
 3362 00a4 AB06     		lsls	r3, r5, #26
 3363 00a6 0896     		str	r6, [sp, #32]
 3364 00a8 0AD5     		bpl	.L619
 3365 00aa 5B46     		mov	r3, fp
 3366 00ac 5046     		mov	r0, r10
ARM GAS  /tmp/cciZhAVO.s 			page 59


 3367 00ae 0096     		str	r6, [sp]
 3368 00b0 09AA     		add	r2, sp, #36
 3369 00b2 08A9     		add	r1, sp, #32
 3370 00b4 FFF7FEFF 		bl	GetASN_Sequence
 3371 00b8 0028     		cmp	r0, #0
 3372 00ba 09DB     		blt	.L620
 3373 00bc DDF824B0 		ldr	fp, [sp, #36]
 3374              	.L619:
 3375 00c0 1020     		movs	r0, #16
 3376 00c2 FFF7FEFF 		bl	wolfSSL_Malloc
 3377 00c6 0746     		mov	r7, r0
 3378 00c8 F0B9     		cbnz	r0, .L633
 3379              	.L621:
 3380 00ca 6FF07C05 		mvn	r5, #124
 3381 00ce B6E7     		b	.L615
 3382              	.L620:
 3383 00d0 6FF08B05 		mvn	r5, #139
 3384 00d4 B3E7     		b	.L615
 3385              	.L626:
 3386 00d6 6FF07C05 		mvn	r5, #124
 3387              	.L611:
 3388 00da 2846     		mov	r0, r5
 3389 00dc 0BB0     		add	sp, sp, #44
 3390              		@ sp needed
 3391 00de BDE8F08F 		pop	{r4, r5, r6, r7, r8, r9, r10, fp, pc}
 3392              	.L634:
 3393 00e2 0899     		ldr	r1, [sp, #32]
 3394 00e4 5A46     		mov	r2, fp
 3395 00e6 5144     		add	r1, r1, r10
 3396 00e8 FFF7FEFF 		bl	memcpy
 3397 00ec 7968     		ldr	r1, [r7, #4]
 3398 00ee 05F01F05 		and	r5, r5, #31
 3399 00f2 01F80B60 		strb	r6, [r1, fp]
 3400 00f6 3D73     		strb	r5, [r7, #12]
 3401 00f8 D8F80020 		ldr	r2, [r8]
 3402 00fc C7F808B0 		str	fp, [r7, #8]
 3403 0100 3A60     		str	r2, [r7]
 3404 0102 C8F80070 		str	r7, [r8]
 3405 0106 8BE7     		b	.L613
 3406              	.L633:
 3407 0108 0BF10100 		add	r0, fp, #1
 3408 010c FFF7FEFF 		bl	wolfSSL_Malloc
 3409 0110 7860     		str	r0, [r7, #4]
 3410 0112 0028     		cmp	r0, #0
 3411 0114 E5D1     		bne	.L634
 3412 0116 3846     		mov	r0, r7
 3413 0118 FFF7FEFF 		bl	wolfSSL_Free
 3414 011c D5E7     		b	.L621
 3415              	.L636:
 3416 011e 00BF     		.align	2
 3417              	.L635:
 3418 0120 00000000 		.word	.LANCHOR65
 3419 0124 00000000 		.word	.LANCHOR66
 3421              		.section	.text.GetObjectId,"ax",%progbits
 3422              		.align	1
 3423              		.global	GetObjectId
 3424              		.syntax unified
ARM GAS  /tmp/cciZhAVO.s 			page 60


 3425              		.thumb
 3426              		.thumb_func
 3427              		.fpu fpv4-sp-d16
 3429              	GetObjectId:
 3430              		@ args = 4, pretend = 0, frame = 32
 3431              		@ frame_needed = 0, uses_anonymous_args = 0
 3432 0000 F0B5     		push	{r4, r5, r6, r7, lr}
 3433 0002 0546     		mov	r5, r0
 3434 0004 0E46     		mov	r6, r1
 3435 0006 1F46     		mov	r7, r3
 3436 0008 8DB0     		sub	sp, sp, #52
 3437 000a 0021     		movs	r1, #0
 3438 000c 1446     		mov	r4, r2
 3439 000e 05A8     		add	r0, sp, #20
 3440 0010 1C22     		movs	r2, #28
 3441 0012 FFF7FEFF 		bl	memset
 3442 0016 129B     		ldr	r3, [sp, #72]
 3443 0018 0122     		movs	r2, #1
 3444 001a CDE90163 		strd	r6, r3, [sp, #4]
 3445 001e 0648     		ldr	r0, .L639
 3446 0020 0023     		movs	r3, #0
 3447 0022 0095     		str	r5, [sp]
 3448 0024 05A9     		add	r1, sp, #20
 3449 0026 0997     		str	r7, [sp, #36]
 3450 0028 FFF7FEFF 		bl	GetASN_Items
 3451 002c 08B9     		cbnz	r0, .L637
 3452 002e 0A9B     		ldr	r3, [sp, #40]
 3453 0030 2360     		str	r3, [r4]
 3454              	.L637:
 3455 0032 0DB0     		add	sp, sp, #52
 3456              		@ sp needed
 3457 0034 F0BD     		pop	{r4, r5, r6, r7, pc}
 3458              	.L640:
 3459 0036 00BF     		.align	2
 3460              	.L639:
 3461 0038 00000000 		.word	.LANCHOR67
 3463              		.section	.text.GetAlgoId,"ax",%progbits
 3464              		.align	1
 3465              		.global	GetAlgoId
 3466              		.syntax unified
 3467              		.thumb
 3468              		.thumb_func
 3469              		.fpu fpv4-sp-d16
 3471              	GetAlgoId:
 3472              		@ args = 4, pretend = 0, frame = 0
 3473              		@ frame_needed = 0, uses_anonymous_args = 0
 3474 0000 13B5     		push	{r0, r1, r4, lr}
 3475 0002 0024     		movs	r4, #0
 3476 0004 0194     		str	r4, [sp, #4]
 3477 0006 049C     		ldr	r4, [sp, #16]
 3478 0008 0094     		str	r4, [sp]
 3479 000a FFF7FEFF 		bl	GetAlgoIdImpl
 3480 000e 02B0     		add	sp, sp, #8
 3481              		@ sp needed
 3482 0010 10BD     		pop	{r4, pc}
 3484              		.section	.text.GetAlgoIdEx,"ax",%progbits
 3485              		.align	1
ARM GAS  /tmp/cciZhAVO.s 			page 61


 3486              		.global	GetAlgoIdEx
 3487              		.syntax unified
 3488              		.thumb
 3489              		.thumb_func
 3490              		.fpu fpv4-sp-d16
 3492              	GetAlgoIdEx:
 3493              		@ args = 8, pretend = 0, frame = 0
 3494              		@ frame_needed = 0, uses_anonymous_args = 0
 3495              		@ link register save eliminated.
 3496 0000 70B4     		push	{r4, r5, r6}
 3497 0002 DDE90354 		ldrd	r5, r4, [sp, #12]
 3498 0006 0CB1     		cbz	r4, .L643
 3499 0008 0126     		movs	r6, #1
 3500 000a 2670     		strb	r6, [r4]
 3501              	.L643:
 3502 000c CDE90354 		strd	r5, r4, [sp, #12]
 3503 0010 70BC     		pop	{r4, r5, r6}
 3504 0012 FFF7FEBF 		b	GetAlgoIdImpl
 3506              		.section	.text.ToTraditionalInline_ex2,"ax",%progbits
 3507              		.align	1
 3508              		.global	ToTraditionalInline_ex2
 3509              		.syntax unified
 3510              		.thumb
 3511              		.thumb_func
 3512              		.fpu fpv4-sp-d16
 3514              	ToTraditionalInline_ex2:
 3515              		@ args = 4, pretend = 0, frame = 8
 3516              		@ frame_needed = 0, uses_anonymous_args = 0
 3517 0000 2DE9F047 		push	{r4, r5, r6, r7, r8, r9, r10, lr}
 3518 0004 4FF0000A 		mov	r10, #0
 3519 0008 86B0     		sub	sp, sp, #24
 3520 000a 0F46     		mov	r7, r1
 3521 000c 1546     		mov	r5, r2
 3522 000e 9846     		mov	r8, r3
 3523 0010 0646     		mov	r6, r0
 3524 0012 DDF83890 		ldr	r9, [sp, #56]
 3525 0016 8DF813A0 		strb	r10, [sp, #19]
 3526 001a 0028     		cmp	r0, #0
 3527 001c 48D0     		beq	.L659
 3528 001e 0029     		cmp	r1, #0
 3529 0020 46D0     		beq	.L659
 3530 0022 0B68     		ldr	r3, [r1]
 3531 0024 E020     		movs	r0, #224
 3532 0026 0593     		str	r3, [sp, #20]
 3533 0028 FFF7FEFF 		bl	wolfSSL_Malloc
 3534 002c 0446     		mov	r4, r0
 3535 002e 0028     		cmp	r0, #0
 3536 0030 41D0     		beq	.L660
 3537 0032 E022     		movs	r2, #224
 3538 0034 5146     		mov	r1, r10
 3539 0036 FFF7FEFF 		bl	memset
 3540 003a 0DF11302 		add	r2, sp, #19
 3541 003e 6262     		str	r2, [r4, #36]
 3542 0040 0222     		movs	r2, #2
 3543 0042 6266     		str	r2, [r4, #100]
 3544 0044 0322     		movs	r2, #3
 3545 0046 0123     		movs	r3, #1
ARM GAS  /tmp/cciZhAVO.s 			page 62


 3546 0048 C4F88020 		str	r2, [r4, #128]
 3547 004c 05AA     		add	r2, sp, #20
 3548 004e 84F83430 		strb	r3, [r4, #52]
 3549 0052 2146     		mov	r1, r4
 3550 0054 CDE90062 		strd	r6, r2, [sp]
 3551 0058 0295     		str	r5, [sp, #8]
 3552 005a 0822     		movs	r2, #8
 3553 005c 1A48     		ldr	r0, .L665
 3554 005e FFF7FEFF 		bl	GetASN_Items
 3555 0062 0546     		mov	r5, r0
 3556 0064 E8B9     		cbnz	r0, .L650
 3557 0066 9DF81330 		ldrb	r3, [sp, #19]	@ zero_extendqisi2
 3558 006a 012B     		cmp	r3, #1
 3559 006c 29D8     		bhi	.L661
 3560 006e A36E     		ldr	r3, [r4, #104]
 3561 0070 164A     		ldr	r2, .L665+4
 3562 0072 9342     		cmp	r3, r2
 3563 0074 0DD1     		bne	.L657
 3564 0076 94F8A520 		ldrb	r2, [r4, #165]	@ zero_extendqisi2
 3565 007a FAB9     		cbnz	r2, .L652
 3566 007c B9F1000F 		cmp	r9, #0
 3567 0080 07D0     		beq	.L657
 3568 0082 01E0     		b	.L654
 3569              	.L662:
 3570 0084 6FF08B05 		mvn	r5, #139
 3571              	.L654:
 3572 0088 D4F88420 		ldr	r2, [r4, #132]
 3573 008c C9F80020 		str	r2, [r9]
 3574 0090 3DB9     		cbnz	r5, .L650
 3575              	.L657:
 3576 0092 C8F80030 		str	r3, [r8]
 3577 0096 D4F8B000 		ldr	r0, [r4, #176]
 3578 009a 801B     		subs	r0, r0, r6
 3579 009c 3860     		str	r0, [r7]
 3580 009e D4F8B450 		ldr	r5, [r4, #180]
 3581              	.L650:
 3582 00a2 2046     		mov	r0, r4
 3583 00a4 FFF7FEFF 		bl	wolfSSL_Free
 3584              	.L647:
 3585 00a8 2846     		mov	r0, r5
 3586 00aa 06B0     		add	sp, sp, #24
 3587              		@ sp needed
 3588 00ac BDE8F087 		pop	{r4, r5, r6, r7, r8, r9, r10, pc}
 3589              	.L659:
 3590 00b0 6FF0AC05 		mvn	r5, #172
 3591 00b4 F8E7     		b	.L647
 3592              	.L660:
 3593 00b6 6FF07C05 		mvn	r5, #124
 3594 00ba F5E7     		b	.L647
 3595              	.L652:
 3596 00bc B9F1000F 		cmp	r9, #0
 3597 00c0 E0D1     		bne	.L662
 3598              	.L661:
 3599 00c2 6FF08B05 		mvn	r5, #139
 3600 00c6 ECE7     		b	.L650
 3601              	.L666:
 3602              		.align	2
ARM GAS  /tmp/cciZhAVO.s 			page 63


 3603              	.L665:
 3604 00c8 00000000 		.word	.LANCHOR68
 3605 00cc 17844931 		.word	826901527
 3607              		.section	.text.ToTraditionalInline_ex,"ax",%progbits
 3608              		.align	1
 3609              		.global	ToTraditionalInline_ex
 3610              		.syntax unified
 3611              		.thumb
 3612              		.thumb_func
 3613              		.fpu fpv4-sp-d16
 3615              	ToTraditionalInline_ex:
 3616              		@ args = 0, pretend = 0, frame = 0
 3617              		@ frame_needed = 0, uses_anonymous_args = 0
 3618 0000 13B5     		push	{r0, r1, r4, lr}
 3619 0002 0024     		movs	r4, #0
 3620 0004 0094     		str	r4, [sp]
 3621 0006 FFF7FEFF 		bl	ToTraditionalInline_ex2
 3622 000a 02B0     		add	sp, sp, #8
 3623              		@ sp needed
 3624 000c 10BD     		pop	{r4, pc}
 3626              		.section	.text.ToTraditionalInline,"ax",%progbits
 3627              		.align	1
 3628              		.global	ToTraditionalInline
 3629              		.syntax unified
 3630              		.thumb
 3631              		.thumb_func
 3632              		.fpu fpv4-sp-d16
 3634              	ToTraditionalInline:
 3635              		@ args = 0, pretend = 0, frame = 8
 3636              		@ frame_needed = 0, uses_anonymous_args = 0
 3637 0000 07B5     		push	{r0, r1, r2, lr}
 3638 0002 01AB     		add	r3, sp, #4
 3639 0004 FFF7FEFF 		bl	ToTraditionalInline_ex
 3640 0008 03B0     		add	sp, sp, #12
 3641              		@ sp needed
 3642 000a 5DF804FB 		ldr	pc, [sp], #4
 3644              		.section	.text.ToTraditional_ex,"ax",%progbits
 3645              		.align	1
 3646              		.global	ToTraditional_ex
 3647              		.syntax unified
 3648              		.thumb
 3649              		.thumb_func
 3650              		.fpu fpv4-sp-d16
 3652              	ToTraditional_ex:
 3653              		@ args = 0, pretend = 0, frame = 8
 3654              		@ frame_needed = 0, uses_anonymous_args = 0
 3655 0000 1346     		mov	r3, r2
 3656 0002 0022     		movs	r2, #0
 3657 0004 73B5     		push	{r0, r1, r4, r5, r6, lr}
 3658 0006 0E46     		mov	r6, r1
 3659 0008 0546     		mov	r5, r0
 3660 000a 0192     		str	r2, [sp, #4]
 3661 000c 88B1     		cbz	r0, .L671
 3662 000e 0A46     		mov	r2, r1
 3663 0010 01A9     		add	r1, sp, #4
 3664 0012 FFF7FEFF 		bl	ToTraditionalInline_ex
 3665 0016 041E     		subs	r4, r0, #0
ARM GAS  /tmp/cciZhAVO.s 			page 64


 3666 0018 08DB     		blt	.L669
 3667 001a 0199     		ldr	r1, [sp, #4]
 3668 001c 6318     		adds	r3, r4, r1
 3669 001e B342     		cmp	r3, r6
 3670 0020 0AD8     		bhi	.L672
 3671 0022 2246     		mov	r2, r4
 3672 0024 2846     		mov	r0, r5
 3673 0026 2944     		add	r1, r1, r5
 3674 0028 FFF7FEFF 		bl	memmove
 3675              	.L669:
 3676 002c 2046     		mov	r0, r4
 3677 002e 02B0     		add	sp, sp, #8
 3678              		@ sp needed
 3679 0030 70BD     		pop	{r4, r5, r6, pc}
 3680              	.L671:
 3681 0032 6FF0AC04 		mvn	r4, #172
 3682 0036 F9E7     		b	.L669
 3683              	.L672:
 3684 0038 6FF08304 		mvn	r4, #131
 3685 003c F6E7     		b	.L669
 3687              		.section	.text.ToTraditional,"ax",%progbits
 3688              		.align	1
 3689              		.global	ToTraditional
 3690              		.syntax unified
 3691              		.thumb
 3692              		.thumb_func
 3693              		.fpu fpv4-sp-d16
 3695              	ToTraditional:
 3696              		@ args = 0, pretend = 0, frame = 8
 3697              		@ frame_needed = 0, uses_anonymous_args = 0
 3698 0000 07B5     		push	{r0, r1, r2, lr}
 3699 0002 01AA     		add	r2, sp, #4
 3700 0004 FFF7FEFF 		bl	ToTraditional_ex
 3701 0008 03B0     		add	sp, sp, #12
 3702              		@ sp needed
 3703 000a 5DF804FB 		ldr	pc, [sp], #4
 3705              		.section	.text.wc_GetPkcs8TraditionalOffset,"ax",%progbits
 3706              		.align	1
 3707              		.global	wc_GetPkcs8TraditionalOffset
 3708              		.syntax unified
 3709              		.thumb
 3710              		.thumb_func
 3711              		.fpu fpv4-sp-d16
 3713              	wc_GetPkcs8TraditionalOffset:
 3714              		@ args = 0, pretend = 0, frame = 8
 3715              		@ frame_needed = 0, uses_anonymous_args = 0
 3716 0000 13B5     		push	{r0, r1, r4, lr}
 3717 0002 40B1     		cbz	r0, .L678
 3718 0004 39B1     		cbz	r1, .L678
 3719 0006 0B68     		ldr	r3, [r1]
 3720 0008 9342     		cmp	r3, r2
 3721 000a 04D8     		bhi	.L678
 3722 000c 01AB     		add	r3, sp, #4
 3723 000e FFF7FEFF 		bl	ToTraditionalInline_ex
 3724              	.L674:
 3725 0012 02B0     		add	sp, sp, #8
 3726              		@ sp needed
ARM GAS  /tmp/cciZhAVO.s 			page 65


 3727 0014 10BD     		pop	{r4, pc}
 3728              	.L678:
 3729 0016 6FF0AC00 		mvn	r0, #172
 3730 001a FAE7     		b	.L674
 3732              		.section	.text.wc_CreatePKCS8Key,"ax",%progbits
 3733              		.align	1
 3734              		.global	wc_CreatePKCS8Key
 3735              		.syntax unified
 3736              		.thumb
 3737              		.thumb_func
 3738              		.fpu fpv4-sp-d16
 3740              	wc_CreatePKCS8Key:
 3741              		@ args = 12, pretend = 0, frame = 16
 3742              		@ frame_needed = 0, uses_anonymous_args = 0
 3743 0000 2DE9F04F 		push	{r4, r5, r6, r7, r8, r9, r10, fp, lr}
 3744 0004 9946     		mov	r9, r3
 3745 0006 0023     		movs	r3, #0
 3746 0008 85B0     		sub	sp, sp, #20
 3747 000a 8846     		mov	r8, r1
 3748 000c 1746     		mov	r7, r2
 3749 000e 0646     		mov	r6, r0
 3750 0010 CDE90133 		strd	r3, r3, [sp, #4]
 3751 0014 DDF838A0 		ldr	r10, [sp, #56]
 3752 0018 DDF840B0 		ldr	fp, [sp, #64]
 3753 001c 0393     		str	r3, [sp, #12]
 3754 001e 0028     		cmp	r0, #0
 3755 0020 58D1     		bne	.L680
 3756              	.L688:
 3757 0022 B8F1000F 		cmp	r8, #0
 3758 0026 14BF     		ite	ne
 3759 0028 0025     		movne	r5, #0
 3760 002a 6FF0AC05 		mvneq	r5, #172
 3761              	.L681:
 3762 002e 4A46     		mov	r2, r9
 3763 0030 3846     		mov	r0, r7
 3764 0032 03AB     		add	r3, sp, #12
 3765 0034 02A9     		add	r1, sp, #8
 3766 0036 FFF7FEFF 		bl	ToTraditionalInline_ex
 3767 003a 0028     		cmp	r0, #0
 3768 003c 4FDA     		bge	.L690
 3769 003e 002D     		cmp	r5, #0
 3770 0040 3ED1     		bne	.L679
 3771 0042 C420     		movs	r0, #196
 3772 0044 FFF7FEFF 		bl	wolfSSL_Malloc
 3773 0048 0446     		mov	r4, r0
 3774 004a 0028     		cmp	r0, #0
 3775 004c 4AD0     		beq	.L691
 3776 004e 2946     		mov	r1, r5
 3777 0050 0125     		movs	r5, #1
 3778 0052 8C22     		movs	r2, #140
 3779 0054 FFF7FEFF 		bl	memset
 3780 0058 0221     		movs	r1, #2
 3781 005a 5046     		mov	r0, r10
 3782 005c 84F82450 		strb	r5, [r4, #36]
 3783 0060 04F14802 		add	r2, r4, #72
 3784 0064 FFF7FEFF 		bl	OidFromId
 3785 0068 0F9B     		ldr	r3, [sp, #60]
ARM GAS  /tmp/cciZhAVO.s 			page 66


 3786 006a 6064     		str	r0, [r4, #68]
 3787 006c 63B3     		cbz	r3, .L684
 3788 006e BBF1000F 		cmp	fp, #0
 3789 0072 29D0     		beq	.L684
 3790 0074 C4E9163B 		strd	r3, fp, [r4, #88]
 3791              	.L685:
 3792 0078 1C4B     		ldr	r3, .L703
 3793 007a 0722     		movs	r2, #7
 3794 007c BAEB030A 		subs	r10, r10, r3
 3795 0080 18BF     		it	ne
 3796 0082 4FF0010A 		movne	r10, #1
 3797 0086 2146     		mov	r1, r4
 3798 0088 C4E92079 		strd	r7, r9, [r4, #128]
 3799 008c 1848     		ldr	r0, .L703+4
 3800 008e 84F875A0 		strb	r10, [r4, #117]
 3801 0092 01AB     		add	r3, sp, #4
 3802 0094 FFF7FEFF 		bl	SizeASN_Items
 3803 0098 0546     		mov	r5, r0
 3804 009a 10B1     		cbz	r0, .L686
 3805 009c 10F1CA0F 		cmn	r0, #202
 3806 00a0 0BD1     		bne	.L687
 3807              	.L686:
 3808 00a2 019B     		ldr	r3, [sp, #4]
 3809 00a4 C8F80030 		str	r3, [r8]
 3810 00a8 3DB9     		cbnz	r5, .L687
 3811 00aa 86B1     		cbz	r6, .L692
 3812 00ac 3346     		mov	r3, r6
 3813 00ae 0722     		movs	r2, #7
 3814 00b0 2146     		mov	r1, r4
 3815 00b2 0F48     		ldr	r0, .L703+4
 3816 00b4 FFF7FEFF 		bl	SetASN_Items
 3817 00b8 019D     		ldr	r5, [sp, #4]
 3818              	.L687:
 3819 00ba 2046     		mov	r0, r4
 3820 00bc FFF7FEFF 		bl	wolfSSL_Free
 3821              	.L679:
 3822 00c0 2846     		mov	r0, r5
 3823 00c2 05B0     		add	sp, sp, #20
 3824              		@ sp needed
 3825 00c4 BDE8F08F 		pop	{r4, r5, r6, r7, r8, r9, r10, fp, pc}
 3826              	.L684:
 3827 00c8 84F86150 		strb	r5, [r4, #97]
 3828 00cc D4E7     		b	.L685
 3829              	.L692:
 3830 00ce 6FF0C905 		mvn	r5, #201
 3831 00d2 F2E7     		b	.L687
 3832              	.L680:
 3833 00d4 002A     		cmp	r2, #0
 3834 00d6 A4D1     		bne	.L688
 3835 00d8 6FF0AC05 		mvn	r5, #172
 3836 00dc A7E7     		b	.L681
 3837              	.L690:
 3838 00de 6FF08B05 		mvn	r5, #139
 3839 00e2 EDE7     		b	.L679
 3840              	.L691:
 3841 00e4 6FF07C05 		mvn	r5, #124
 3842 00e8 EAE7     		b	.L679
ARM GAS  /tmp/cciZhAVO.s 			page 67


 3843              	.L704:
 3844 00ea 00BF     		.align	2
 3845              	.L703:
 3846 00ec 2374B678 		.word	2025223203
 3847 00f0 00000000 		.word	.LANCHOR68
 3849              		.section	.text.DecryptContent,"ax",%progbits
 3850              		.align	1
 3851              		.global	DecryptContent
 3852              		.syntax unified
 3853              		.thumb
 3854              		.thumb_func
 3855              		.fpu fpv4-sp-d16
 3857              	DecryptContent:
 3858              		@ args = 0, pretend = 0, frame = 88
 3859              		@ frame_needed = 0, uses_anonymous_args = 0
 3860 0000 2DE9F04F 		push	{r4, r5, r6, r7, r8, r9, r10, fp, lr}
 3861 0004 0025     		movs	r5, #0
 3862 0006 9FB0     		sub	sp, sp, #124
 3863 0008 8046     		mov	r8, r0
 3864 000a 4FF4A870 		mov	r0, #336
 3865 000e 0E46     		mov	r6, r1
 3866 0010 9246     		mov	r10, r2
 3867 0012 9B46     		mov	fp, r3
 3868 0014 CDE90A55 		strd	r5, r5, [sp, #40]
 3869 0018 0C95     		str	r5, [sp, #48]
 3870 001a FFF7FEFF 		bl	wolfSSL_Malloc
 3871 001e 0446     		mov	r4, r0
 3872 0020 0028     		cmp	r0, #0
 3873 0022 00F08D80 		beq	.L714
 3874 0026 4FF4A872 		mov	r2, #336
 3875 002a 2946     		mov	r1, r5
 3876 002c FFF7FEFF 		bl	memset
 3877 0030 0E23     		movs	r3, #14
 3878 0032 E362     		str	r3, [r4, #44]
 3879 0034 0AAB     		add	r3, sp, #40
 3880 0036 CDE90083 		strd	r8, r3, [sp]
 3881 003a 0522     		movs	r2, #5
 3882 003c 2B46     		mov	r3, r5
 3883 003e 2146     		mov	r1, r4
 3884 0040 4848     		ldr	r0, .L720
 3885 0042 0296     		str	r6, [sp, #8]
 3886 0044 FFF7FEFF 		bl	GetASN_Items
 3887 0048 0346     		mov	r3, r0
 3888 004a 0028     		cmp	r0, #0
 3889 004c 6CD1     		bne	.L707
 3890 004e A26A     		ldr	r2, [r4, #40]
 3891 0050 636A     		ldr	r3, [r4, #36]
 3892 0052 0A92     		str	r2, [sp, #40]
 3893 0054 1344     		add	r3, r3, r2
 3894 0056 13F8025C 		ldrb	r5, [r3, #-2]	@ zero_extendqisi2
 3895 005a 13F8013C 		ldrb	r3, [r3, #-1]	@ zero_extendqisi2
 3896 005e 012D     		cmp	r5, #1
 3897 0060 77D0     		beq	.L717
 3898 0062 052D     		cmp	r5, #5
 3899 0064 72D1     		bne	.L716
 3900 0066 0D2B     		cmp	r3, #13
 3901 0068 73D1     		bne	.L717
ARM GAS  /tmp/cciZhAVO.s 			page 68


 3902 006a 236C     		ldr	r3, [r4, #64]
 3903 006c 94F86D20 		ldrb	r2, [r4, #109]	@ zero_extendqisi2
 3904 0070 0893     		str	r3, [sp, #32]
 3905 0072 636C     		ldr	r3, [r4, #68]
 3906 0074 002A     		cmp	r2, #0
 3907 0076 5DD0     		beq	.L708
 3908 0078 D4E91796 		ldrd	r9, r6, [r4, #92]
 3909              	.L709:
 3910 007c 4022     		movs	r2, #64
 3911 007e 0021     		movs	r1, #0
 3912 0080 0D92     		str	r2, [sp, #52]
 3913 0082 2046     		mov	r0, r4
 3914 0084 4FF4A872 		mov	r2, #336
 3915 0088 0993     		str	r3, [sp, #36]
 3916 008a FFF7FEFF 		bl	memset
 3917 008e 0622     		movs	r2, #6
 3918 0090 84F83420 		strb	r2, [r4, #52]
 3919 0094 344A     		ldr	r2, .L720+4
 3920 0096 0427     		movs	r7, #4
 3921 0098 6262     		str	r2, [r4, #36]
 3922 009a 0922     		movs	r2, #9
 3923 009c A262     		str	r2, [r4, #40]
 3924 009e 0CAA     		add	r2, sp, #48
 3925 00a0 A267     		str	r2, [r4, #120]
 3926 00a2 0F22     		movs	r2, #15
 3927 00a4 C4F8D420 		str	r2, [r4, #212]
 3928 00a8 0522     		movs	r2, #5
 3929 00aa 0EAB     		add	r3, sp, #56
 3930 00ac C4F83C31 		str	r3, [r4, #316]
 3931 00b0 099B     		ldr	r3, [sp, #36]
 3932 00b2 84F84C21 		strb	r2, [r4, #332]
 3933 00b6 0DAA     		add	r2, sp, #52
 3934 00b8 C4F84021 		str	r2, [r4, #320]
 3935 00bc 84F88870 		strb	r7, [r4, #136]
 3936 00c0 C4F82871 		str	r7, [r4, #296]
 3937 00c4 0293     		str	r3, [sp, #8]
 3938 00c6 0BAB     		add	r3, sp, #44
 3939 00c8 0193     		str	r3, [sp, #4]
 3940 00ca 089B     		ldr	r3, [sp, #32]
 3941 00cc 0C22     		movs	r2, #12
 3942 00ce 0093     		str	r3, [sp]
 3943 00d0 2146     		mov	r1, r4
 3944 00d2 0023     		movs	r3, #0
 3945 00d4 2548     		ldr	r0, .L720+8
 3946 00d6 FFF7FEFF 		bl	GetASN_Items
 3947 00da 0346     		mov	r3, r0
 3948 00dc 20BB     		cbnz	r0, .L707
 3949 00de D4E91723 		ldrd	r2, r3, [r4, #92]
 3950 00e2 D4F82C11 		ldr	r1, [r4, #300]
 3951 00e6 DFF88CC0 		ldr	ip, .L720+16
 3952 00ea D4F8D800 		ldr	r0, [r4, #216]
 3953 00ee 6145     		cmp	r1, ip
 3954 00f0 35D0     		beq	.L719
 3955 00f2 1F4F     		ldr	r7, .L720+12
 3956 00f4 B942     		cmp	r1, r7
 3957 00f6 33D0     		beq	.L710
 3958              	.L713:
ARM GAS  /tmp/cciZhAVO.s 			page 69


 3959 00f8 0790     		str	r0, [sp, #28]
 3960 00fa 0020     		movs	r0, #0
 3961 00fc 0690     		str	r0, [sp, #24]
 3962 00fe 0EA8     		add	r0, sp, #56
 3963 0100 0590     		str	r0, [sp, #20]
 3964 0102 0620     		movs	r0, #6
 3965 0104 CDE90119 		strd	r1, r9, [sp, #4]
 3966 0108 0C99     		ldr	r1, [sp, #48]
 3967 010a CDE90360 		strd	r6, r0, [sp, #12]
 3968 010e 0091     		str	r1, [sp]
 3969 0110 5046     		mov	r0, r10
 3970 0112 5946     		mov	r1, fp
 3971 0114 FFF7FEFF 		bl	wc_CryptKey
 3972 0118 0346     		mov	r3, r0
 3973 011a 28B9     		cbnz	r0, .L707
 3974 011c 3246     		mov	r2, r6
 3975 011e 4946     		mov	r1, r9
 3976 0120 4046     		mov	r0, r8
 3977 0122 FFF7FEFF 		bl	memmove
 3978 0126 3346     		mov	r3, r6
 3979              	.L707:
 3980 0128 2046     		mov	r0, r4
 3981 012a 0893     		str	r3, [sp, #32]
 3982 012c FFF7FEFF 		bl	wolfSSL_Free
 3983 0130 089B     		ldr	r3, [sp, #32]
 3984 0132 07E0     		b	.L705
 3985              	.L708:
 3986 0134 94F88920 		ldrb	r2, [r4, #137]	@ zero_extendqisi2
 3987 0138 72B1     		cbz	r2, .L718
 3988 013a D4E91E96 		ldrd	r9, r6, [r4, #120]
 3989 013e 9DE7     		b	.L709
 3990              	.L714:
 3991 0140 6FF07C03 		mvn	r3, #124
 3992              	.L705:
 3993 0144 1846     		mov	r0, r3
 3994 0146 1FB0     		add	sp, sp, #124
 3995              		@ sp needed
 3996 0148 BDE8F08F 		pop	{r4, r5, r6, r7, r8, r9, r10, fp, pc}
 3997              	.L716:
 3998 014c 6FF09903 		mvn	r3, #153
 3999 0150 EAE7     		b	.L707
 4000              	.L717:
 4001 0152 6FF08403 		mvn	r3, #132
 4002 0156 E7E7     		b	.L707
 4003              	.L718:
 4004 0158 6FF08E03 		mvn	r3, #142
 4005 015c E4E7     		b	.L707
 4006              	.L719:
 4007 015e 3D46     		mov	r5, r7
 4008              	.L710:
 4009 0160 2946     		mov	r1, r5
 4010 0162 C9E7     		b	.L713
 4011              	.L721:
 4012              		.align	2
 4013              	.L720:
 4014 0164 00000000 		.word	.LANCHOR69
 4015 0168 00000000 		.word	.LANCHOR46
ARM GAS  /tmp/cciZhAVO.s 			page 70


 4016 016c 00000000 		.word	.LANCHOR70
 4017 0170 F87AB37F 		.word	2142468856
 4018 0174 D07AB37F 		.word	2142468816
 4020              		.section	.text.wc_DecryptPKCS8Key,"ax",%progbits
 4021              		.align	1
 4022              		.global	wc_DecryptPKCS8Key
 4023              		.syntax unified
 4024              		.thumb
 4025              		.thumb_func
 4026              		.fpu fpv4-sp-d16
 4028              	wc_DecryptPKCS8Key:
 4029              		@ args = 0, pretend = 0, frame = 8
 4030              		@ frame_needed = 0, uses_anonymous_args = 0
 4031 0000 2DE9F341 		push	{r0, r1, r4, r5, r6, r7, r8, lr}
 4032 0004 4FF00008 		mov	r8, #0
 4033 0008 0C46     		mov	r4, r1
 4034 000a 1646     		mov	r6, r2
 4035 000c 1F46     		mov	r7, r3
 4036 000e 0546     		mov	r5, r0
 4037 0010 CDF80480 		str	r8, [sp, #4]
 4038 0014 50B3     		cbz	r0, .L727
 4039 0016 4AB3     		cbz	r2, .L727
 4040 0018 0B46     		mov	r3, r1
 4041 001a 6A46     		mov	r2, sp
 4042 001c 01A9     		add	r1, sp, #4
 4043 001e FFF7FEFF 		bl	GetSequence
 4044 0022 4045     		cmp	r0, r8
 4045 0024 05DA     		bge	.L724
 4046              	.L725:
 4047 0026 6FF08B04 		mvn	r4, #139
 4048              	.L722:
 4049 002a 2046     		mov	r0, r4
 4050 002c 02B0     		add	sp, sp, #8
 4051              		@ sp needed
 4052 002e BDE8F081 		pop	{r4, r5, r6, r7, r8, pc}
 4053              	.L724:
 4054 0032 0198     		ldr	r0, [sp, #4]
 4055 0034 3B46     		mov	r3, r7
 4056 0036 211A     		subs	r1, r4, r0
 4057 0038 3246     		mov	r2, r6
 4058 003a 2844     		add	r0, r0, r5
 4059 003c FFF7FEFF 		bl	DecryptContent
 4060 0040 041E     		subs	r4, r0, #0
 4061 0042 F2DD     		ble	.L722
 4062 0044 0199     		ldr	r1, [sp, #4]
 4063 0046 2246     		mov	r2, r4
 4064 0048 2944     		add	r1, r1, r5
 4065 004a 2846     		mov	r0, r5
 4066 004c FFF7FEFF 		bl	memmove
 4067 0050 2346     		mov	r3, r4
 4068 0052 6A46     		mov	r2, sp
 4069 0054 2846     		mov	r0, r5
 4070 0056 01A9     		add	r1, sp, #4
 4071 0058 CDF80480 		str	r8, [sp, #4]
 4072 005c FFF7FEFF 		bl	GetSequence
 4073 0060 0028     		cmp	r0, #0
 4074 0062 E0DB     		blt	.L725
ARM GAS  /tmp/cciZhAVO.s 			page 71


 4075 0064 DDE90004 		ldrd	r0, r4, [sp]
 4076 0068 0444     		add	r4, r4, r0
 4077 006a DEE7     		b	.L722
 4078              	.L727:
 4079 006c 6FF0AC04 		mvn	r4, #172
 4080 0070 DBE7     		b	.L722
 4082              		.section	.text.ToTraditionalEnc,"ax",%progbits
 4083              		.align	1
 4084              		.global	ToTraditionalEnc
 4085              		.syntax unified
 4086              		.thumb
 4087              		.thumb_func
 4088              		.fpu fpv4-sp-d16
 4090              	ToTraditionalEnc:
 4091              		@ args = 4, pretend = 0, frame = 0
 4092              		@ frame_needed = 0, uses_anonymous_args = 0
 4093 0000 38B5     		push	{r3, r4, r5, lr}
 4094 0002 049D     		ldr	r5, [sp, #16]
 4095 0004 0446     		mov	r4, r0
 4096 0006 FFF7FEFF 		bl	wc_DecryptPKCS8Key
 4097 000a 011E     		subs	r1, r0, #0
 4098 000c 05DD     		ble	.L728
 4099 000e 2A46     		mov	r2, r5
 4100 0010 2046     		mov	r0, r4
 4101 0012 BDE83840 		pop	{r3, r4, r5, lr}
 4102 0016 FFF7FEBF 		b	ToTraditional_ex
 4103              	.L728:
 4104 001a 38BD     		pop	{r3, r4, r5, pc}
 4106              		.section	.text.wc_PkcsPad,"ax",%progbits
 4107              		.align	1
 4108              		.global	wc_PkcsPad
 4109              		.syntax unified
 4110              		.thumb
 4111              		.thumb_func
 4112              		.fpu fpv4-sp-d16
 4114              	wc_PkcsPad:
 4115              		@ args = 0, pretend = 0, frame = 0
 4116              		@ frame_needed = 0, uses_anonymous_args = 0
 4117              		@ link register save eliminated.
 4118 0000 531E     		subs	r3, r2, #1
 4119 0002 0B40     		ands	r3, r3, r1
 4120 0004 D21A     		subs	r2, r2, r3
 4121 0006 18B1     		cbz	r0, .L731
 4122 0008 4318     		adds	r3, r0, r1
 4123 000a D018     		adds	r0, r2, r3
 4124              	.L732:
 4125 000c 8342     		cmp	r3, r0
 4126 000e 01D1     		bne	.L733
 4127              	.L731:
 4128 0010 8818     		adds	r0, r1, r2
 4129 0012 7047     		bx	lr
 4130              	.L733:
 4131 0014 03F8012B 		strb	r2, [r3], #1
 4132 0018 F8E7     		b	.L732
 4134              		.section	.text.EncryptContent,"ax",%progbits
 4135              		.align	1
 4136              		.global	EncryptContent
ARM GAS  /tmp/cciZhAVO.s 			page 72


 4137              		.syntax unified
 4138              		.thumb
 4139              		.thumb_func
 4140              		.fpu fpv4-sp-d16
 4142              	EncryptContent:
 4143              		@ args = 44, pretend = 0, frame = 16
 4144              		@ frame_needed = 0, uses_anonymous_args = 0
 4145 0000 2DE9F04F 		push	{r4, r5, r6, r7, r8, r9, r10, fp, lr}
 4146 0004 8DB0     		sub	sp, sp, #52
 4147 0006 9046     		mov	r8, r2
 4148 0008 8346     		mov	fp, r0
 4149 000a 0E46     		mov	r6, r1
 4150 000c 1F46     		mov	r7, r3
 4151 000e 1A9A     		ldr	r2, [sp, #104]
 4152 0010 1C9D     		ldr	r5, [sp, #112]
 4153 0012 002B     		cmp	r3, #0
 4154 0014 72D0     		beq	.L752
 4155 0016 402D     		cmp	r5, #64
 4156 0018 73D8     		bhi	.L753
 4157 001a 189B     		ldr	r3, [sp, #96]
 4158 001c 052B     		cmp	r3, #5
 4159 001e 17D1     		bne	.L770
 4160 0020 199B     		ldr	r3, [sp, #100]
 4161 0022 0D2B     		cmp	r3, #13
 4162 0024 14D1     		bne	.L770
 4163 0026 0023     		movs	r3, #0
 4164 0028 1B99     		ldr	r1, [sp, #108]
 4165 002a 0A93     		str	r3, [sp, #40]
 4166 002c 0029     		cmp	r1, #0
 4167 002e 00F0D180 		beq	.L756
 4168 0032 002D     		cmp	r5, #0
 4169 0034 40F0D280 		bne	.L757
 4170 0038 4FF0010A 		mov	r10, #1
 4171 003c 1025     		movs	r5, #16
 4172 003e 1B93     		str	r3, [sp, #108]
 4173              	.L740:
 4174 0040 674B     		ldr	r3, .L771
 4175 0042 9A42     		cmp	r2, r3
 4176 0044 00F0B580 		beq	.L760
 4177 0048 2833     		adds	r3, r3, #40
 4178 004a 9A42     		cmp	r2, r3
 4179 004c 00F0BF80 		beq	.L761
 4180              	.L770:
 4181 0050 6FF09903 		mvn	r3, #153
 4182 0054 A9E0     		b	.L738
 4183              	.L768:
 4184 0056 84F8D930 		strb	r3, [r4, #217]
 4185 005a 84F8ED30 		strb	r3, [r4, #237]
 4186 005e 84F80131 		strb	r3, [r4, #257]
 4187 0062 7CE0     		b	.L742
 4188              	.L744:
 4189 0064 3868     		ldr	r0, [r7]
 4190 0066 9842     		cmp	r0, r3
 4191 0068 45DB     		blt	.L758
 4192 006a 4346     		mov	r3, r8
 4193 006c 5D48     		ldr	r0, .L771+4
 4194 006e FFF7FEFF 		bl	SetASN_Items
ARM GAS  /tmp/cciZhAVO.s 			page 73


 4195 0072 2A46     		mov	r2, r5
 4196 0074 D4F89470 		ldr	r7, [r4, #148]
 4197 0078 BAF1000F 		cmp	r10, #0
 4198 007c 36D0     		beq	.L745
 4199 007e 3946     		mov	r1, r7
 4200 0080 1F98     		ldr	r0, [sp, #124]
 4201 0082 FFF7FEFF 		bl	wc_RNG_GenerateBlock
 4202 0086 0346     		mov	r3, r0
 4203 0088 0028     		cmp	r0, #0
 4204 008a 40F08980 		bne	.L743
 4205              	.L746:
 4206 008e D4F83481 		ldr	r8, [r4, #308]
 4207 0092 1022     		movs	r2, #16
 4208 0094 4146     		mov	r1, r8
 4209 0096 1F98     		ldr	r0, [sp, #124]
 4210 0098 FFF7FEFF 		bl	wc_RNG_GenerateBlock
 4211 009c 0346     		mov	r3, r0
 4212 009e 0028     		cmp	r0, #0
 4213 00a0 7ED1     		bne	.L743
 4214 00a2 D4F848A1 		ldr	r10, [r4, #328]
 4215 00a6 3246     		mov	r2, r6
 4216 00a8 5946     		mov	r1, fp
 4217 00aa 5046     		mov	r0, r10
 4218 00ac FFF7FEFF 		bl	memcpy
 4219 00b0 1022     		movs	r2, #16
 4220 00b2 3146     		mov	r1, r6
 4221 00b4 5046     		mov	r0, r10
 4222 00b6 FFF7FEFF 		bl	wc_PkcsPad
 4223 00ba DDE91601 		ldrd	r0, r1, [sp, #88]
 4224 00be 1E9B     		ldr	r3, [sp, #120]
 4225 00c0 3A46     		mov	r2, r7
 4226 00c2 0793     		str	r3, [sp, #28]
 4227 00c4 0123     		movs	r3, #1
 4228 00c6 CDE90583 		strd	r8, r3, [sp, #20]
 4229 00ca 0623     		movs	r3, #6
 4230 00cc CDE90393 		strd	r9, r3, [sp, #12]
 4231 00d0 189B     		ldr	r3, [sp, #96]
 4232 00d2 CDF808A0 		str	r10, [sp, #8]
 4233 00d6 0193     		str	r3, [sp, #4]
 4234 00d8 1D9B     		ldr	r3, [sp, #116]
 4235 00da 0093     		str	r3, [sp]
 4236 00dc 2B46     		mov	r3, r5
 4237 00de FFF7FEFF 		bl	wc_CryptKey
 4238 00e2 0346     		mov	r3, r0
 4239 00e4 0028     		cmp	r0, #0
 4240 00e6 5BD1     		bne	.L743
 4241 00e8 0A9B     		ldr	r3, [sp, #40]
 4242 00ea 59E0     		b	.L743
 4243              	.L745:
 4244 00ec 3846     		mov	r0, r7
 4245 00ee 1B99     		ldr	r1, [sp, #108]
 4246 00f0 FFF7FEFF 		bl	memcpy
 4247 00f4 CBE7     		b	.L746
 4248              	.L758:
 4249 00f6 6FF0AC03 		mvn	r3, #172
 4250 00fa 51E0     		b	.L743
 4251              	.L752:
ARM GAS  /tmp/cciZhAVO.s 			page 74


 4252 00fc 6FF0AC03 		mvn	r3, #172
 4253 0100 53E0     		b	.L738
 4254              	.L753:
 4255 0102 6FF08B03 		mvn	r3, #139
 4256 0106 50E0     		b	.L738
 4257              	.L769:
 4258 0108 4FF4AA72 		mov	r2, #340
 4259 010c 0021     		movs	r1, #0
 4260 010e FFF7FEFF 		bl	memset
 4261 0112 0E21     		movs	r1, #14
 4262 0114 04F13402 		add	r2, r4, #52
 4263 0118 0D20     		movs	r0, #13
 4264 011a FFF7FEFF 		bl	OidFromId
 4265 011e 324B     		ldr	r3, .L771+8
 4266 0120 0022     		movs	r2, #0
 4267 0122 E366     		str	r3, [r4, #108]
 4268 0124 0923     		movs	r3, #9
 4269 0126 2367     		str	r3, [r4, #112]
 4270 0128 0223     		movs	r3, #2
 4271 012a 84F8B030 		strb	r3, [r4, #176]
 4272 012e 1D9B     		ldr	r3, [sp, #116]
 4273 0130 1E99     		ldr	r1, [sp, #120]
 4274 0132 A4F8A830 		strh	r3, [r4, #168]	@ movhi
 4275 0136 0123     		movs	r3, #1
 4276 0138 9142     		cmp	r1, r2
 4277 013a C4E92525 		strd	r2, r5, [r4, #148]
 4278 013e 2063     		str	r0, [r4, #48]
 4279 0140 84F8C530 		strb	r3, [r4, #197]
 4280 0144 87DD     		ble	.L768
 4281 0146 0B92     		str	r2, [sp, #44]
 4282 0148 0F21     		movs	r1, #15
 4283 014a 1E98     		ldr	r0, [sp, #120]
 4284 014c 0BAA     		add	r2, sp, #44
 4285 014e FFF7FEFF 		bl	OidFromId
 4286 0152 20B1     		cbz	r0, .L742
 4287 0154 0B9B     		ldr	r3, [sp, #44]
 4288 0156 C4F8E400 		str	r0, [r4, #228]
 4289 015a C4F8E830 		str	r3, [r4, #232]
 4290              	.L742:
 4291 015e 0923     		movs	r3, #9
 4292 0160 1022     		movs	r2, #16
 4293 0162 C4F82431 		str	r3, [r4, #292]
 4294 0166 0023     		movs	r3, #0
 4295 0168 C4F82091 		str	r9, [r4, #288]
 4296 016c 26F00F09 		bic	r9, r6, #15
 4297 0170 9144     		add	r9, r9, r2
 4298 0172 C4E94D32 		strd	r3, r2, [r4, #308]
 4299 0176 C4E95239 		strd	r3, r9, [r4, #328]
 4300 017a 04F11401 		add	r1, r4, #20
 4301 017e 0AAB     		add	r3, sp, #40
 4302 0180 1848     		ldr	r0, .L771+4
 4303 0182 0991     		str	r1, [sp, #36]
 4304 0184 FFF7FEFF 		bl	SizeASN_Items
 4305 0188 0346     		mov	r3, r0
 4306 018a 48B9     		cbnz	r0, .L743
 4307 018c DDE90913 		ldrd	r1, r3, [sp, #36]
 4308 0190 1022     		movs	r2, #16
ARM GAS  /tmp/cciZhAVO.s 			page 75


 4309 0192 B8F1000F 		cmp	r8, #0
 4310 0196 7FF465AF 		bne	.L744
 4311 019a 3B60     		str	r3, [r7]
 4312 019c 6FF0C903 		mvn	r3, #201
 4313              	.L743:
 4314 01a0 2046     		mov	r0, r4
 4315 01a2 0993     		str	r3, [sp, #36]
 4316 01a4 FFF7FEFF 		bl	wolfSSL_Free
 4317 01a8 099B     		ldr	r3, [sp, #36]
 4318              	.L738:
 4319 01aa 1846     		mov	r0, r3
 4320 01ac 0DB0     		add	sp, sp, #52
 4321              		@ sp needed
 4322 01ae BDE8F08F 		pop	{r4, r5, r6, r7, r8, r9, r10, fp, pc}
 4323              	.L760:
 4324 01b2 0423     		movs	r3, #4
 4325 01b4 DFF83490 		ldr	r9, .L771+12
 4326 01b8 1893     		str	r3, [sp, #96]
 4327              	.L751:
 4328 01ba 4FF4EE70 		mov	r0, #476
 4329 01be FFF7FEFF 		bl	wolfSSL_Malloc
 4330 01c2 0446     		mov	r4, r0
 4331 01c4 0028     		cmp	r0, #0
 4332 01c6 9FD1     		bne	.L769
 4333 01c8 6FF07C03 		mvn	r3, #124
 4334 01cc EDE7     		b	.L738
 4335              	.L761:
 4336 01ce DFF82090 		ldr	r9, .L771+16
 4337 01d2 F2E7     		b	.L751
 4338              	.L756:
 4339 01d4 4FF0010A 		mov	r10, #1
 4340 01d8 1025     		movs	r5, #16
 4341 01da 31E7     		b	.L740
 4342              	.L757:
 4343 01dc 9A46     		mov	r10, r3
 4344 01de 2FE7     		b	.L740
 4345              	.L772:
 4346              		.align	2
 4347              	.L771:
 4348 01e0 D07AB37F 		.word	2142468816
 4349 01e4 04000000 		.word	.LANCHOR71+4
 4350 01e8 00000000 		.word	.LANCHOR46
 4351 01ec 00000000 		.word	.LANCHOR22
 4352 01f0 00000000 		.word	.LANCHOR20
 4354              		.section	.text.FreeAltNames,"ax",%progbits
 4355              		.align	1
 4356              		.global	FreeAltNames
 4357              		.syntax unified
 4358              		.thumb
 4359              		.thumb_func
 4360              		.fpu fpv4-sp-d16
 4362              	FreeAltNames:
 4363              		@ args = 0, pretend = 0, frame = 0
 4364              		@ frame_needed = 0, uses_anonymous_args = 0
 4365 0000 38B5     		push	{r3, r4, r5, lr}
 4366 0002 0446     		mov	r4, r0
 4367              	.L774:
ARM GAS  /tmp/cciZhAVO.s 			page 76


 4368 0004 04B9     		cbnz	r4, .L776
 4369 0006 38BD     		pop	{r3, r4, r5, pc}
 4370              	.L776:
 4371 0008 E068     		ldr	r0, [r4, #12]
 4372 000a 2568     		ldr	r5, [r4]
 4373 000c 08B1     		cbz	r0, .L775
 4374 000e FFF7FEFF 		bl	wolfSSL_Free
 4375              	.L775:
 4376 0012 2046     		mov	r0, r4
 4377 0014 FFF7FEFF 		bl	wolfSSL_Free
 4378 0018 2C46     		mov	r4, r5
 4379 001a F3E7     		b	.L774
 4381              		.section	.text.AltNameNew,"ax",%progbits
 4382              		.align	1
 4383              		.global	AltNameNew
 4384              		.syntax unified
 4385              		.thumb
 4386              		.thumb_func
 4387              		.fpu fpv4-sp-d16
 4389              	AltNameNew:
 4390              		@ args = 0, pretend = 0, frame = 0
 4391              		@ frame_needed = 0, uses_anonymous_args = 0
 4392 0000 10B5     		push	{r4, lr}
 4393 0002 1020     		movs	r0, #16
 4394 0004 FFF7FEFF 		bl	wolfSSL_Malloc
 4395 0008 0446     		mov	r4, r0
 4396 000a 18B1     		cbz	r0, .L780
 4397 000c 1022     		movs	r2, #16
 4398 000e 0021     		movs	r1, #0
 4399 0010 FFF7FEFF 		bl	memset
 4400              	.L780:
 4401 0014 2046     		mov	r0, r4
 4402 0016 10BD     		pop	{r4, pc}
 4404              		.section	.text.SetDNSEntry,"ax",%progbits
 4405              		.align	1
 4406              		.syntax unified
 4407              		.thumb
 4408              		.thumb_func
 4409              		.fpu fpv4-sp-d16
 4411              	SetDNSEntry:
 4412              		@ args = 4, pretend = 0, frame = 0
 4413              		@ frame_needed = 0, uses_anonymous_args = 0
 4414 0000 2DE9F041 		push	{r4, r5, r6, r7, r8, lr}
 4415 0004 DDF81880 		ldr	r8, [sp, #24]
 4416 0008 0E46     		mov	r6, r1
 4417 000a 1546     		mov	r5, r2
 4418 000c 1F46     		mov	r7, r3
 4419 000e FFF7FEFF 		bl	AltNameNew
 4420 0012 0446     		mov	r4, r0
 4421 0014 38B1     		cbz	r0, .L788
 4422 0016 681C     		adds	r0, r5, #1
 4423 0018 FFF7FEFF 		bl	wolfSSL_Malloc
 4424 001c E060     		str	r0, [r4, #12]
 4425 001e 28B9     		cbnz	r0, .L787
 4426 0020 2046     		mov	r0, r4
 4427 0022 FFF7FEFF 		bl	wolfSSL_Free
 4428              	.L788:
ARM GAS  /tmp/cciZhAVO.s 			page 77


 4429 0026 6FF07C00 		mvn	r0, #124
 4430 002a 0DE0     		b	.L785
 4431              	.L787:
 4432 002c 2A46     		mov	r2, r5
 4433 002e 3146     		mov	r1, r6
 4434 0030 C4E90175 		strd	r7, r5, [r4, #4]
 4435 0034 FFF7FEFF 		bl	memcpy
 4436 0038 0020     		movs	r0, #0
 4437 003a E368     		ldr	r3, [r4, #12]
 4438 003c 5855     		strb	r0, [r3, r5]
 4439 003e D8F80030 		ldr	r3, [r8]
 4440 0042 2360     		str	r3, [r4]
 4441 0044 C8F80040 		str	r4, [r8]
 4442              	.L785:
 4443 0048 BDE8F081 		pop	{r4, r5, r6, r7, r8, pc}
 4445              		.section	.text.AltNameDup,"ax",%progbits
 4446              		.align	1
 4447              		.global	AltNameDup
 4448              		.syntax unified
 4449              		.thumb
 4450              		.thumb_func
 4451              		.fpu fpv4-sp-d16
 4453              	AltNameDup:
 4454              		@ args = 0, pretend = 0, frame = 0
 4455              		@ frame_needed = 0, uses_anonymous_args = 0
 4456 0000 2DE9F041 		push	{r4, r5, r6, r7, r8, lr}
 4457 0004 0546     		mov	r5, r0
 4458 0006 0846     		mov	r0, r1
 4459 0008 0F46     		mov	r7, r1
 4460 000a FFF7FEFF 		bl	AltNameNew
 4461 000e 0446     		mov	r4, r0
 4462 0010 20B3     		cbz	r0, .L789
 4463 0012 6B68     		ldr	r3, [r5, #4]
 4464 0014 4360     		str	r3, [r0, #4]
 4465 0016 AB68     		ldr	r3, [r5, #8]
 4466 0018 8360     		str	r3, [r0, #8]
 4467 001a D5E90258 		ldrd	r5, r8, [r5, #8]
 4468 001e B8F1000F 		cmp	r8, #0
 4469 0022 07D1     		bne	.L791
 4470 0024 C0F80C80 		str	r8, [r0, #12]
 4471              	.L792:
 4472 0028 2046     		mov	r0, r4
 4473 002a 3946     		mov	r1, r7
 4474 002c FFF7FEFF 		bl	FreeAltNames
 4475 0030 0024     		movs	r4, #0
 4476 0032 13E0     		b	.L789
 4477              	.L791:
 4478 0034 002D     		cmp	r5, #0
 4479 0036 03DC     		bgt	.L793
 4480 0038 4046     		mov	r0, r8
 4481 003a FFF7FEFF 		bl	strlen
 4482 003e 0546     		mov	r5, r0
 4483              	.L793:
 4484 0040 681C     		adds	r0, r5, #1
 4485 0042 FFF7FEFF 		bl	wolfSSL_Malloc
 4486 0046 0646     		mov	r6, r0
 4487 0048 28B1     		cbz	r0, .L794
ARM GAS  /tmp/cciZhAVO.s 			page 78


 4488 004a 2A46     		mov	r2, r5
 4489 004c 4146     		mov	r1, r8
 4490 004e FFF7FEFF 		bl	memcpy
 4491 0052 0023     		movs	r3, #0
 4492 0054 7355     		strb	r3, [r6, r5]
 4493              	.L794:
 4494 0056 E660     		str	r6, [r4, #12]
 4495 0058 002E     		cmp	r6, #0
 4496 005a E5D0     		beq	.L792
 4497              	.L789:
 4498 005c 2046     		mov	r0, r4
 4499 005e BDE8F081 		pop	{r4, r5, r6, r7, r8, pc}
 4501              		.section	.text.FreeNameSubtrees,"ax",%progbits
 4502              		.align	1
 4503              		.global	FreeNameSubtrees
 4504              		.syntax unified
 4505              		.thumb
 4506              		.thumb_func
 4507              		.fpu fpv4-sp-d16
 4509              	FreeNameSubtrees:
 4510              		@ args = 0, pretend = 0, frame = 0
 4511              		@ frame_needed = 0, uses_anonymous_args = 0
 4512 0000 38B5     		push	{r3, r4, r5, lr}
 4513 0002 0446     		mov	r4, r0
 4514              	.L802:
 4515 0004 04B9     		cbnz	r4, .L804
 4516 0006 38BD     		pop	{r3, r4, r5, pc}
 4517              	.L804:
 4518 0008 D4E90050 		ldrd	r5, r0, [r4]
 4519 000c 08B1     		cbz	r0, .L803
 4520 000e FFF7FEFF 		bl	wolfSSL_Free
 4521              	.L803:
 4522 0012 2046     		mov	r0, r4
 4523 0014 FFF7FEFF 		bl	wolfSSL_Free
 4524 0018 2C46     		mov	r4, r5
 4525 001a F3E7     		b	.L802
 4527              		.section	.text.HashIdAlg,"ax",%progbits
 4528              		.align	1
 4529              		.global	HashIdAlg
 4530              		.syntax unified
 4531              		.thumb
 4532              		.thumb_func
 4533              		.fpu fpv4-sp-d16
 4535              	HashIdAlg:
 4536              		@ args = 0, pretend = 0, frame = 0
 4537              		@ frame_needed = 0, uses_anonymous_args = 0
 4538              		@ link register save eliminated.
 4539 0000 0420     		movs	r0, #4
 4540 0002 7047     		bx	lr
 4542              		.section	.text.CalcHashId,"ax",%progbits
 4543              		.align	1
 4544              		.global	CalcHashId
 4545              		.syntax unified
 4546              		.thumb
 4547              		.thumb_func
 4548              		.fpu fpv4-sp-d16
 4550              	CalcHashId:
ARM GAS  /tmp/cciZhAVO.s 			page 79


 4551              		@ args = 0, pretend = 0, frame = 0
 4552              		@ frame_needed = 0, uses_anonymous_args = 0
 4553              		@ link register save eliminated.
 4554 0000 FFF7FEBF 		b	wc_ShaHash
 4556              		.section	.text.CalcHashId_ex,"ax",%progbits
 4557              		.align	1
 4558              		.global	CalcHashId_ex
 4559              		.syntax unified
 4560              		.thumb
 4561              		.thumb_func
 4562              		.fpu fpv4-sp-d16
 4564              	CalcHashId_ex:
 4565              		@ args = 0, pretend = 0, frame = 0
 4566              		@ frame_needed = 0, uses_anonymous_args = 0
 4567              		@ link register save eliminated.
 4568 0000 042B     		cmp	r3, #4
 4569 0002 01D1     		bne	.L811
 4570 0004 FFF7FEBF 		b	wc_ShaHash
 4571              	.L811:
 4572 0008 6FF0AD00 		mvn	r0, #173
 4573 000c 7047     		bx	lr
 4575              		.section	.text.GetHashId,"ax",%progbits
 4576              		.align	1
 4577              		.global	GetHashId
 4578              		.syntax unified
 4579              		.thumb
 4580              		.thumb_func
 4581              		.fpu fpv4-sp-d16
 4583              	GetHashId:
 4584              		@ args = 0, pretend = 0, frame = 0
 4585              		@ frame_needed = 0, uses_anonymous_args = 0
 4586              		@ link register save eliminated.
 4587 0000 1429     		cmp	r1, #20
 4588 0002 30B4     		push	{r4, r5}
 4589 0004 0AD1     		bne	.L813
 4590 0006 00F11403 		add	r3, r0, #20
 4591              	.L814:
 4592 000a 50F8041B 		ldr	r1, [r0], #4	@ unaligned
 4593 000e 9842     		cmp	r0, r3
 4594 0010 42F8041B 		str	r1, [r2], #4	@ unaligned
 4595 0014 F9D1     		bne	.L814
 4596 0016 30BC     		pop	{r4, r5}
 4597 0018 0020     		movs	r0, #0
 4598 001a 7047     		bx	lr
 4599              	.L813:
 4600 001c 30BC     		pop	{r4, r5}
 4601 001e FFF7FEBF 		b	CalcHashId_ex
 4603              		.section	.text.GetName,"ax",%progbits
 4604              		.align	1
 4605              		.global	GetName
 4606              		.syntax unified
 4607              		.thumb
 4608              		.thumb_func
 4609              		.fpu fpv4-sp-d16
 4611              	GetName:
 4612              		@ args = 0, pretend = 0, frame = 64
 4613              		@ frame_needed = 0, uses_anonymous_args = 0
ARM GAS  /tmp/cciZhAVO.s 			page 80


 4614 0000 70B5     		push	{r4, r5, r6, lr}
 4615 0002 D0F87832 		ldr	r3, [r0, #632]
 4616 0006 94B0     		sub	sp, sp, #80
 4617 0008 0446     		mov	r4, r0
 4618 000a 1646     		mov	r6, r2
 4619 000c 0D46     		mov	r5, r1
 4620 000e 3822     		movs	r2, #56
 4621 0010 0021     		movs	r1, #0
 4622 0012 06A8     		add	r0, sp, #24
 4623 0014 0593     		str	r3, [sp, #20]
 4624 0016 FFF7FEFF 		bl	memset
 4625 001a 1523     		movs	r3, #21
 4626 001c 0A93     		str	r3, [sp, #40]
 4627 001e 05AB     		add	r3, sp, #20
 4628 0020 0193     		str	r3, [sp, #4]
 4629 0022 D4F87432 		ldr	r3, [r4, #628]
 4630 0026 0222     		movs	r2, #2
 4631 0028 0093     		str	r3, [sp]
 4632 002a 1148     		ldr	r0, .L822
 4633 002c 0023     		movs	r3, #0
 4634 002e 0296     		str	r6, [sp, #8]
 4635 0030 06A9     		add	r1, sp, #24
 4636 0032 FFF7FEFF 		bl	GetASN_Items
 4637 0036 98B9     		cbnz	r0, .L818
 4638 0038 0D9B     		ldr	r3, [sp, #52]
 4639 003a C4F87832 		str	r3, [r4, #632]
 4640 003e 8DB9     		cbnz	r5, .L820
 4641 0040 04F16D01 		add	r1, r4, #109
 4642 0044 04F14C02 		add	r2, r4, #76
 4643              	.L821:
 4644 0048 059B     		ldr	r3, [sp, #20]
 4645 004a 2046     		mov	r0, r4
 4646 004c 0293     		str	r3, [sp, #8]
 4647 004e 04F51E73 		add	r3, r4, #632
 4648 0052 0193     		str	r3, [sp, #4]
 4649 0054 D4F87432 		ldr	r3, [r4, #628]
 4650 0058 0093     		str	r3, [sp]
 4651 005a 2B46     		mov	r3, r5
 4652 005c FFF7FEFF 		bl	GetCertName
 4653              	.L818:
 4654 0060 14B0     		add	sp, sp, #80
 4655              		@ sp needed
 4656 0062 70BD     		pop	{r4, r5, r6, pc}
 4657              	.L820:
 4658 0064 04F26D11 		addw	r1, r4, #365
 4659 0068 04F13802 		add	r2, r4, #56
 4660 006c ECE7     		b	.L821
 4661              	.L823:
 4662 006e 00BF     		.align	2
 4663              	.L822:
 4664 0070 00000000 		.word	.LANCHOR72
 4666              		.section	.text.wc_GetDateInfo,"ax",%progbits
 4667              		.align	1
 4668              		.global	wc_GetDateInfo
 4669              		.syntax unified
 4670              		.thumb
 4671              		.thumb_func
ARM GAS  /tmp/cciZhAVO.s 			page 81


 4672              		.fpu fpv4-sp-d16
 4674              	wc_GetDateInfo:
 4675              		@ args = 4, pretend = 0, frame = 64
 4676              		@ frame_needed = 0, uses_anonymous_args = 0
 4677 0000 2DE9F041 		push	{r4, r5, r6, r7, r8, lr}
 4678 0004 1D46     		mov	r5, r3
 4679 0006 0023     		movs	r3, #0
 4680 0008 94B0     		sub	sp, sp, #80
 4681 000a 8846     		mov	r8, r1
 4682 000c 1446     		mov	r4, r2
 4683 000e 0646     		mov	r6, r0
 4684 0010 1A9F     		ldr	r7, [sp, #104]
 4685 0012 0593     		str	r3, [sp, #20]
 4686 0014 80B3     		cbz	r0, .L828
 4687 0016 1946     		mov	r1, r3
 4688 0018 3822     		movs	r2, #56
 4689 001a 06A8     		add	r0, sp, #24
 4690 001c FFF7FEFF 		bl	memset
 4691 0020 05AA     		add	r2, sp, #20
 4692 0022 CDE90062 		strd	r6, r2, [sp]
 4693 0026 0023     		movs	r3, #0
 4694 0028 0222     		movs	r2, #2
 4695 002a 1548     		ldr	r0, .L838
 4696 002c CDF80880 		str	r8, [sp, #8]
 4697 0030 06A9     		add	r1, sp, #24
 4698 0032 FFF7FEFF 		bl	GetASN_Items
 4699 0036 E0B9     		cbnz	r0, .L824
 4700 0038 9DF83110 		ldrb	r1, [sp, #49]	@ zero_extendqisi2
 4701 003c B1FA81F1 		clz	r1, r1
 4702 0040 4909     		lsrs	r1, r1, #5
 4703 0042 35B1     		cbz	r5, .L826
 4704 0044 1C23     		movs	r3, #28
 4705 0046 14AA     		add	r2, sp, #80
 4706 0048 03FB0123 		mla	r3, r3, r1, r2
 4707 004c 13F81F3C 		ldrb	r3, [r3, #-31]	@ zero_extendqisi2
 4708 0050 2B70     		strb	r3, [r5]
 4709              	.L826:
 4710 0052 34B1     		cbz	r4, .L827
 4711 0054 1C23     		movs	r3, #28
 4712 0056 14AA     		add	r2, sp, #80
 4713 0058 03FB0123 		mla	r3, r3, r1, r2
 4714 005c 53F8303C 		ldr	r3, [r3, #-48]
 4715 0060 2360     		str	r3, [r4]
 4716              	.L827:
 4717 0062 37B1     		cbz	r7, .L824
 4718 0064 1C23     		movs	r3, #28
 4719 0066 14AA     		add	r2, sp, #80
 4720 0068 03FB0121 		mla	r1, r3, r1, r2
 4721 006c 51F82C3C 		ldr	r3, [r1, #-44]
 4722 0070 3B60     		str	r3, [r7]
 4723              	.L824:
 4724 0072 14B0     		add	sp, sp, #80
 4725              		@ sp needed
 4726 0074 BDE8F081 		pop	{r4, r5, r6, r7, r8, pc}
 4727              	.L828:
 4728 0078 6FF0AC00 		mvn	r0, #172
 4729 007c F9E7     		b	.L824
ARM GAS  /tmp/cciZhAVO.s 			page 82


 4730              	.L839:
 4731 007e 00BF     		.align	2
 4732              	.L838:
 4733 0080 00000000 		.word	.LANCHOR73
 4735              		.section	.text.SetLength,"ax",%progbits
 4736              		.align	1
 4737              		.global	SetLength
 4738              		.syntax unified
 4739              		.thumb
 4740              		.thumb_func
 4741              		.fpu fpv4-sp-d16
 4743              	SetLength:
 4744              		@ args = 0, pretend = 0, frame = 0
 4745              		@ frame_needed = 0, uses_anonymous_args = 0
 4746 0000 7F28     		cmp	r0, #127
 4747 0002 38B5     		push	{r3, r4, r5, lr}
 4748 0004 0446     		mov	r4, r0
 4749 0006 03D8     		bhi	.L841
 4750 0008 01B1     		cbz	r1, .L847
 4751 000a 0870     		strb	r0, [r1]
 4752              	.L847:
 4753 000c 0120     		movs	r0, #1
 4754 000e 0DE0     		b	.L840
 4755              	.L841:
 4756 0010 FFF7FEFF 		bl	BytePrecision
 4757 0014 C3B2     		uxtb	r3, r0
 4758 0016 11B1     		cbz	r1, .L843
 4759 0018 63F07F02 		orn	r2, r3, #127
 4760 001c 0A70     		strb	r2, [r1]
 4761              	.L843:
 4762 001e 5A1E     		subs	r2, r3, #1
 4763 0020 D200     		lsls	r2, r2, #3
 4764 0022 481C     		adds	r0, r1, #1
 4765              	.L844:
 4766 0024 12F1080F 		cmn	r2, #8
 4767 0028 01D1     		bne	.L846
 4768 002a 581C     		adds	r0, r3, #1
 4769              	.L840:
 4770 002c 38BD     		pop	{r3, r4, r5, pc}
 4771              	.L846:
 4772 002e 11B1     		cbz	r1, .L845
 4773 0030 24FA02F5 		lsr	r5, r4, r2
 4774 0034 0570     		strb	r5, [r0]
 4775              	.L845:
 4776 0036 083A     		subs	r2, r2, #8
 4777 0038 0130     		adds	r0, r0, #1
 4778 003a F3E7     		b	.L844
 4780              		.section	.text.SetBitString,"ax",%progbits
 4781              		.align	1
 4782              		.global	SetBitString
 4783              		.syntax unified
 4784              		.thumb
 4785              		.thumb_func
 4786              		.fpu fpv4-sp-d16
 4788              	SetBitString:
 4789              		@ args = 0, pretend = 0, frame = 0
 4790              		@ frame_needed = 0, uses_anonymous_args = 0
ARM GAS  /tmp/cciZhAVO.s 			page 83


 4791 0000 38B5     		push	{r3, r4, r5, lr}
 4792 0002 0D46     		mov	r5, r1
 4793 0004 1446     		mov	r4, r2
 4794 0006 0AB1     		cbz	r2, .L855
 4795 0008 0323     		movs	r3, #3
 4796 000a 1370     		strb	r3, [r2]
 4797              	.L855:
 4798 000c 0130     		adds	r0, r0, #1
 4799 000e 3CB1     		cbz	r4, .L858
 4800 0010 611C     		adds	r1, r4, #1
 4801              	.L856:
 4802 0012 FFF7FEFF 		bl	SetLength
 4803 0016 0CB1     		cbz	r4, .L857
 4804 0018 0444     		add	r4, r4, r0
 4805 001a 6570     		strb	r5, [r4, #1]
 4806              	.L857:
 4807 001c 0230     		adds	r0, r0, #2
 4808 001e 38BD     		pop	{r3, r4, r5, pc}
 4809              	.L858:
 4810 0020 2146     		mov	r1, r4
 4811 0022 F6E7     		b	.L856
 4813              		.section	.text.SetObjectId,"ax",%progbits
 4814              		.align	1
 4815              		.global	SetObjectId
 4816              		.syntax unified
 4817              		.thumb
 4818              		.thumb_func
 4819              		.fpu fpv4-sp-d16
 4821              	SetObjectId:
 4822              		@ args = 0, pretend = 0, frame = 0
 4823              		@ frame_needed = 0, uses_anonymous_args = 0
 4824 0000 08B5     		push	{r3, lr}
 4825 0002 11B1     		cbz	r1, .L867
 4826 0004 0623     		movs	r3, #6
 4827 0006 01F8013B 		strb	r3, [r1], #1
 4828              	.L867:
 4829 000a FFF7FEFF 		bl	SetLength
 4830 000e 0130     		adds	r0, r0, #1
 4831 0010 08BD     		pop	{r3, pc}
 4833              		.section	.text.SetCurve,"ax",%progbits
 4834              		.align	1
 4835              		.syntax unified
 4836              		.thumb
 4837              		.thumb_func
 4838              		.fpu fpv4-sp-d16
 4840              	SetCurve:
 4841              		@ args = 0, pretend = 0, frame = 0
 4842              		@ frame_needed = 0, uses_anonymous_args = 0
 4843 0000 2DE9F041 		push	{r4, r5, r6, r7, r8, lr}
 4844 0004 0F46     		mov	r7, r1
 4845 0006 9046     		mov	r8, r2
 4846 0008 0646     		mov	r6, r0
 4847 000a 98B1     		cbz	r0, .L877
 4848 000c 0369     		ldr	r3, [r0, #16]
 4849 000e 8BB1     		cbz	r3, .L877
 4850 0010 9C6A     		ldr	r4, [r3, #40]
 4851 0012 2046     		mov	r0, r4
ARM GAS  /tmp/cciZhAVO.s 			page 84


 4852 0014 FFF7FEFF 		bl	SetObjectId
 4853 0018 0546     		mov	r5, r0
 4854 001a 17B9     		cbnz	r7, .L875
 4855              	.L879:
 4856 001c 6019     		adds	r0, r4, r5
 4857              	.L873:
 4858 001e BDE8F081 		pop	{r4, r5, r6, r7, r8, pc}
 4859              	.L875:
 4860 0022 4445     		cmp	r4, r8
 4861 0024 09D8     		bhi	.L878
 4862 0026 3369     		ldr	r3, [r6, #16]
 4863 0028 2246     		mov	r2, r4
 4864 002a 596A     		ldr	r1, [r3, #36]
 4865 002c 3818     		adds	r0, r7, r0
 4866 002e FFF7FEFF 		bl	memcpy
 4867 0032 F3E7     		b	.L879
 4868              	.L877:
 4869 0034 6FF0AC00 		mvn	r0, #172
 4870 0038 F1E7     		b	.L873
 4871              	.L878:
 4872 003a 6FF08300 		mvn	r0, #131
 4873 003e EEE7     		b	.L873
 4875              		.section	.text.SetEccPublicKey,"ax",%progbits
 4876              		.align	1
 4877              		.syntax unified
 4878              		.thumb
 4879              		.thumb_func
 4880              		.fpu fpv4-sp-d16
 4882              	SetEccPublicKey:
 4883              		@ args = 4, pretend = 0, frame = 8
 4884              		@ frame_needed = 0, uses_anonymous_args = 0
 4885 0000 2DE9F347 		push	{r0, r1, r4, r5, r6, r7, r8, r9, r10, lr}
 4886 0004 0646     		mov	r6, r0
 4887 0006 0020     		movs	r0, #0
 4888 0008 9146     		mov	r9, r2
 4889 000a 1C46     		mov	r4, r3
 4890 000c 0F46     		mov	r7, r1
 4891 000e CDE90000 		strd	r0, r0, [sp]
 4892 0012 DDF828A0 		ldr	r10, [sp, #40]
 4893 0016 91B1     		cbz	r1, .L896
 4894 0018 0B69     		ldr	r3, [r1, #16]
 4895 001a 83B1     		cbz	r3, .L896
 4896 001c 0146     		mov	r1, r0
 4897 001e 5346     		mov	r3, r10
 4898 0020 6A46     		mov	r2, sp
 4899 0022 3846     		mov	r0, r7
 4900 0024 FFF7FEFF 		bl	wc_ecc_export_x963_ex
 4901 0028 10F1CA0F 		cmn	r0, #202
 4902 002c 2FD0     		beq	.L882
 4903 002e 70B3     		cbz	r0, .L882
 4904 0030 0446     		mov	r4, r0
 4905              	.L881:
 4906 0032 4FF00009 		mov	r9, #0
 4907 0036 009B     		ldr	r3, [sp]
 4908 0038 C846     		mov	r8, r9
 4909 003a 0193     		str	r3, [sp, #4]
 4910 003c 6AE0     		b	.L887
ARM GAS  /tmp/cciZhAVO.s 			page 85


 4911              	.L896:
 4912 003e 6FF0AC04 		mvn	r4, #172
 4913 0042 F6E7     		b	.L881
 4914              	.L889:
 4915 0044 4246     		mov	r2, r8
 4916 0046 4946     		mov	r1, r9
 4917 0048 3846     		mov	r0, r7
 4918 004a FFF7FEFF 		bl	SetCurve
 4919 004e 041E     		subs	r4, r0, #0
 4920 0050 64DB     		blt	.L880
 4921 0052 5346     		mov	r3, r10
 4922 0054 6A46     		mov	r2, sp
 4923 0056 3146     		mov	r1, r6
 4924 0058 3846     		mov	r0, r7
 4925 005a FFF7FEFF 		bl	wc_ecc_export_x963_ex
 4926 005e 0446     		mov	r4, r0
 4927 0060 0028     		cmp	r0, #0
 4928 0062 5AD0     		beq	.L890
 4929 0064 5AE0     		b	.L880
 4930              	.L911:
 4931 0066 002E     		cmp	r6, #0
 4932 0068 E3D0     		beq	.L881
 4933 006a 009B     		ldr	r3, [sp]
 4934 006c 9945     		cmp	r9, r3
 4935 006e E0D2     		bcs	.L881
 4936 0070 6FF08304 		mvn	r4, #131
 4937 0074 52E0     		b	.L880
 4938              	.L897:
 4939 0076 4446     		mov	r4, r8
 4940              	.L884:
 4941 0078 002D     		cmp	r5, #0
 4942 007a 4FD0     		beq	.L880
 4943              	.L901:
 4944 007c 4FF00009 		mov	r9, #0
 4945 0080 45E0     		b	.L886
 4946              	.L883:
 4947 0082 7822     		movs	r2, #120
 4948 0084 0021     		movs	r1, #0
 4949 0086 FFF7FEFF 		bl	memset
 4950 008a 0024     		movs	r4, #0
 4951 008c 09E0     		b	.L892
 4952              	.L882:
 4953 008e 002C     		cmp	r4, #0
 4954 0090 E9D0     		beq	.L911
 4955 0092 A820     		movs	r0, #168
 4956 0094 FFF7FEFF 		bl	wolfSSL_Malloc
 4957 0098 0546     		mov	r5, r0
 4958 009a 0028     		cmp	r0, #0
 4959 009c F1D1     		bne	.L883
 4960 009e 6FF07C04 		mvn	r4, #124
 4961              	.L892:
 4962 00a2 0022     		movs	r2, #0
 4963 00a4 3846     		mov	r0, r7
 4964 00a6 1146     		mov	r1, r2
 4965 00a8 FFF7FEFF 		bl	SetCurve
 4966 00ac B0F10008 		subs	r8, r0, #0
 4967 00b0 E1DB     		blt	.L897
ARM GAS  /tmp/cciZhAVO.s 			page 86


 4968 00b2 002C     		cmp	r4, #0
 4969 00b4 E0D1     		bne	.L884
 4970 00b6 0221     		movs	r1, #2
 4971 00b8 05F13402 		add	r2, r5, #52
 4972 00bc 1B48     		ldr	r0, .L912
 4973 00be FFF7FEFF 		bl	OidFromId
 4974 00c2 0723     		movs	r3, #7
 4975 00c4 85F84C30 		strb	r3, [r5, #76]
 4976 00c8 0123     		movs	r3, #1
 4977 00ca 85F86130 		strb	r3, [r5, #97]
 4978 00ce 009B     		ldr	r3, [sp]
 4979 00d0 C5E91148 		strd	r4, r8, [r5, #68]
 4980 00d4 2863     		str	r0, [r5, #48]
 4981 00d6 EC66     		str	r4, [r5, #108]
 4982 00d8 2B67     		str	r3, [r5, #112]
 4983 00da 0622     		movs	r2, #6
 4984 00dc 2946     		mov	r1, r5
 4985 00de 1448     		ldr	r0, .L912+4
 4986 00e0 01AB     		add	r3, sp, #4
 4987 00e2 FFF7FEFF 		bl	SizeASN_Items
 4988 00e6 0446     		mov	r4, r0
 4989 00e8 0028     		cmp	r0, #0
 4990 00ea C7D1     		bne	.L901
 4991 00ec 002E     		cmp	r6, #0
 4992 00ee C5D0     		beq	.L901
 4993 00f0 019B     		ldr	r3, [sp, #4]
 4994 00f2 4B45     		cmp	r3, r9
 4995 00f4 16DC     		bgt	.L899
 4996 00f6 3346     		mov	r3, r6
 4997 00f8 0622     		movs	r2, #6
 4998 00fa 2946     		mov	r1, r5
 4999 00fc 0C48     		ldr	r0, .L912+4
 5000 00fe FFF7FEFF 		bl	SetASN_Items
 5001 0102 DDE90023 		ldrd	r2, r3, [sp]
 5002 0106 D5F84490 		ldr	r9, [r5, #68]
 5003 010a 9B1A     		subs	r3, r3, r2
 5004 010c 1E44     		add	r6, r6, r3
 5005              	.L886:
 5006 010e 2846     		mov	r0, r5
 5007 0110 FFF7FEFF 		bl	wolfSSL_Free
 5008              	.L887:
 5009 0114 14B9     		cbnz	r4, .L880
 5010 0116 002E     		cmp	r6, #0
 5011 0118 94D1     		bne	.L889
 5012              	.L890:
 5013 011a 019C     		ldr	r4, [sp, #4]
 5014              	.L880:
 5015 011c 2046     		mov	r0, r4
 5016 011e 02B0     		add	sp, sp, #8
 5017              		@ sp needed
 5018 0120 BDE8F087 		pop	{r4, r5, r6, r7, r8, r9, r10, pc}
 5019              	.L899:
 5020 0124 6FF08304 		mvn	r4, #131
 5021 0128 A8E7     		b	.L901
 5022              	.L913:
 5023 012a 00BF     		.align	2
 5024              	.L912:
ARM GAS  /tmp/cciZhAVO.s 			page 87


 5025 012c 17844931 		.word	826901527
 5026 0130 00000000 		.word	.LANCHOR74
 5028              		.section	.text.wc_EccPublicKeyToDer,"ax",%progbits
 5029              		.align	1
 5030              		.global	wc_EccPublicKeyToDer
 5031              		.syntax unified
 5032              		.thumb
 5033              		.thumb_func
 5034              		.fpu fpv4-sp-d16
 5036              	wc_EccPublicKeyToDer:
 5037              		@ args = 0, pretend = 0, frame = 0
 5038              		@ frame_needed = 0, uses_anonymous_args = 0
 5039 0000 13B5     		push	{r0, r1, r4, lr}
 5040 0002 0446     		mov	r4, r0
 5041 0004 0846     		mov	r0, r1
 5042 0006 0021     		movs	r1, #0
 5043 0008 0091     		str	r1, [sp]
 5044 000a 2146     		mov	r1, r4
 5045 000c FFF7FEFF 		bl	SetEccPublicKey
 5046 0010 02B0     		add	sp, sp, #8
 5047              		@ sp needed
 5048 0012 10BD     		pop	{r4, pc}
 5050              		.section	.text.wc_EccPublicKeyToDer_ex,"ax",%progbits
 5051              		.align	1
 5052              		.global	wc_EccPublicKeyToDer_ex
 5053              		.syntax unified
 5054              		.thumb
 5055              		.thumb_func
 5056              		.fpu fpv4-sp-d16
 5058              	wc_EccPublicKeyToDer_ex:
 5059              		@ args = 4, pretend = 0, frame = 0
 5060              		@ frame_needed = 0, uses_anonymous_args = 0
 5061              		@ link register save eliminated.
 5062 0000 10B4     		push	{r4}
 5063 0002 0446     		mov	r4, r0
 5064 0004 0846     		mov	r0, r1
 5065 0006 2146     		mov	r1, r4
 5066 0008 5DF8044B 		ldr	r4, [sp], #4
 5067 000c FFF7FEBF 		b	SetEccPublicKey
 5069              		.section	.text.wc_EccPublicKeyDerSize,"ax",%progbits
 5070              		.align	1
 5071              		.global	wc_EccPublicKeyDerSize
 5072              		.syntax unified
 5073              		.thumb
 5074              		.thumb_func
 5075              		.fpu fpv4-sp-d16
 5077              	wc_EccPublicKeyDerSize:
 5078              		@ args = 0, pretend = 0, frame = 0
 5079              		@ frame_needed = 0, uses_anonymous_args = 0
 5080 0000 07B5     		push	{r0, r1, r2, lr}
 5081 0002 0022     		movs	r2, #0
 5082 0004 0B46     		mov	r3, r1
 5083 0006 0092     		str	r2, [sp]
 5084 0008 0146     		mov	r1, r0
 5085 000a 1046     		mov	r0, r2
 5086 000c FFF7FEFF 		bl	SetEccPublicKey
 5087 0010 03B0     		add	sp, sp, #12
ARM GAS  /tmp/cciZhAVO.s 			page 88


 5088              		@ sp needed
 5089 0012 5DF804FB 		ldr	pc, [sp], #4
 5091              		.section	.text.SetLengthEx,"ax",%progbits
 5092              		.align	1
 5093              		.global	SetLengthEx
 5094              		.syntax unified
 5095              		.thumb
 5096              		.thumb_func
 5097              		.fpu fpv4-sp-d16
 5099              	SetLengthEx:
 5100              		@ args = 0, pretend = 0, frame = 0
 5101              		@ frame_needed = 0, uses_anonymous_args = 0
 5102              		@ link register save eliminated.
 5103 0000 22B1     		cbz	r2, .L918
 5104 0002 09B1     		cbz	r1, .L917
 5105 0004 8022     		movs	r2, #128
 5106 0006 0A70     		strb	r2, [r1]
 5107              	.L917:
 5108 0008 0120     		movs	r0, #1
 5109 000a 7047     		bx	lr
 5110              	.L918:
 5111 000c FFF7FEBF 		b	SetLength
 5113              		.section	.text.SetHeader,"ax",%progbits
 5114              		.align	1
 5115              		.global	SetHeader
 5116              		.syntax unified
 5117              		.thumb
 5118              		.thumb_func
 5119              		.fpu fpv4-sp-d16
 5121              	SetHeader:
 5122              		@ args = 0, pretend = 0, frame = 0
 5123              		@ frame_needed = 0, uses_anonymous_args = 0
 5124 0000 10B5     		push	{r4, lr}
 5125 0002 0446     		mov	r4, r0
 5126 0004 0846     		mov	r0, r1
 5127 0006 1146     		mov	r1, r2
 5128 0008 1A46     		mov	r2, r3
 5129 000a 09B1     		cbz	r1, .L923
 5130 000c 01F8014B 		strb	r4, [r1], #1
 5131              	.L923:
 5132 0010 FFF7FEFF 		bl	SetLengthEx
 5133 0014 0130     		adds	r0, r0, #1
 5134 0016 10BD     		pop	{r4, pc}
 5136              		.section	.text.SetSequence,"ax",%progbits
 5137              		.align	1
 5138              		.global	SetSequence
 5139              		.syntax unified
 5140              		.thumb
 5141              		.thumb_func
 5142              		.fpu fpv4-sp-d16
 5144              	SetSequence:
 5145              		@ args = 0, pretend = 0, frame = 0
 5146              		@ frame_needed = 0, uses_anonymous_args = 0
 5147              		@ link register save eliminated.
 5148 0000 0A46     		mov	r2, r1
 5149 0002 0023     		movs	r3, #0
 5150 0004 0146     		mov	r1, r0
ARM GAS  /tmp/cciZhAVO.s 			page 89


 5151 0006 3020     		movs	r0, #48
 5152 0008 FFF7FEBF 		b	SetHeader
 5154              		.section	.text.SetSequenceEx,"ax",%progbits
 5155              		.align	1
 5156              		.global	SetSequenceEx
 5157              		.syntax unified
 5158              		.thumb
 5159              		.thumb_func
 5160              		.fpu fpv4-sp-d16
 5162              	SetSequenceEx:
 5163              		@ args = 0, pretend = 0, frame = 0
 5164              		@ frame_needed = 0, uses_anonymous_args = 0
 5165              		@ link register save eliminated.
 5166 0000 1346     		mov	r3, r2
 5167 0002 0A46     		mov	r2, r1
 5168 0004 0146     		mov	r1, r0
 5169 0006 3020     		movs	r0, #48
 5170 0008 FFF7FEBF 		b	SetHeader
 5172              		.section	.text.SetOctetString,"ax",%progbits
 5173              		.align	1
 5174              		.global	SetOctetString
 5175              		.syntax unified
 5176              		.thumb
 5177              		.thumb_func
 5178              		.fpu fpv4-sp-d16
 5180              	SetOctetString:
 5181              		@ args = 0, pretend = 0, frame = 0
 5182              		@ frame_needed = 0, uses_anonymous_args = 0
 5183              		@ link register save eliminated.
 5184 0000 0A46     		mov	r2, r1
 5185 0002 0023     		movs	r3, #0
 5186 0004 0146     		mov	r1, r0
 5187 0006 0420     		movs	r0, #4
 5188 0008 FFF7FEBF 		b	SetHeader
 5190              		.section	.rodata.wc_EncryptPKCS8Key_ex.str1.1,"aMS",%progbits,1
 5191              	.LC8:
 5192 0000 2A864886 		.ascii	"*\206H\206\367\015\001\005\015\000"
 5192      F70D0105 
 5192      0D00
 5193              	.LC9:
 5194 000a 2A864886 		.ascii	"*\206H\206\367\015\001\005\014\000"
 5194      F70D0105 
 5194      0C00
 5195              		.section	.text.wc_EncryptPKCS8Key_ex,"ax",%progbits
 5196              		.align	1
 5197              		.global	wc_EncryptPKCS8Key_ex
 5198              		.syntax unified
 5199              		.thumb
 5200              		.thumb_func
 5201              		.fpu fpv4-sp-d16
 5203              	wc_EncryptPKCS8Key_ex:
 5204              		@ args = 44, pretend = 0, frame = 120
 5205              		@ frame_needed = 0, uses_anonymous_args = 0
 5206 0000 2DE9F04F 		push	{r4, r5, r6, r7, r8, r9, r10, fp, lr}
 5207 0004 2DED028B 		vpush.64	{d8}
 5208 0008 A7B0     		sub	sp, sp, #156
 5209 000a 0B93     		str	r3, [sp, #44]
ARM GAS  /tmp/cciZhAVO.s 			page 90


 5210 000c 0023     		movs	r3, #0
 5211 000e 1446     		mov	r4, r2
 5212 0010 DDE93625 		ldrd	r2, r5, [sp, #216]
 5213 0014 0E46     		mov	r6, r1
 5214 0016 CDE91133 		strd	r3, r3, [sp, #68]
 5215 001a 389F     		ldr	r7, [sp, #224]
 5216 001c 1393     		str	r3, [sp, #76]
 5217 001e 0E90     		str	r0, [sp, #56]
 5218 0020 0028     		cmp	r0, #0
 5219 0022 00F06281 		beq	.L949
 5220 0026 0B99     		ldr	r1, [sp, #44]
 5221 0028 0029     		cmp	r1, #0
 5222 002a 00F05E81 		beq	.L949
 5223 002e 3299     		ldr	r1, [sp, #200]
 5224 0030 0029     		cmp	r1, #0
 5225 0032 00F05A81 		beq	.L949
 5226 0036 3499     		ldr	r1, [sp, #208]
 5227 0038 0129     		cmp	r1, #1
 5228 003a 14D0     		beq	.L970
 5229 003c 0529     		cmp	r1, #5
 5230 003e 40F05781 		bne	.L951
 5231 0042 3599     		ldr	r1, [sp, #212]
 5232 0044 0D29     		cmp	r1, #13
 5233 0046 0ED1     		bne	.L970
 5234 0048 15B1     		cbz	r5, .L953
 5235 004a 002F     		cmp	r7, #0
 5236 004c 40F07581 		bne	.L954
 5237              	.L953:
 5238 0050 0123     		movs	r3, #1
 5239 0052 0827     		movs	r7, #8
 5240 0054 0A93     		str	r3, [sp, #40]
 5241              	.L932:
 5242 0056 BA4B     		ldr	r3, .L971
 5243 0058 9A42     		cmp	r2, r3
 5244 005a 00F05681 		beq	.L959
 5245 005e 2833     		adds	r3, r3, #40
 5246 0060 9A42     		cmp	r2, r3
 5247 0062 00F06781 		beq	.L960
 5248              	.L970:
 5249 0066 6FF08403 		mvn	r3, #132
 5250 006a 33E0     		b	.L930
 5251              	.L944:
 5252 006c 07F10208 		add	r8, r7, #2
 5253 0070 9844     		add	r8, r8, r3
 5254              	.L933:
 5255 0072 3A9B     		ldr	r3, [sp, #232]
 5256 0074 002B     		cmp	r3, #0
 5257 0076 33DD     		ble	.L955
 5258 0078 1846     		mov	r0, r3
 5259 007a 0F21     		movs	r1, #15
 5260 007c 12AA     		add	r2, sp, #72
 5261 007e FFF7FEFF 		bl	OidFromId
 5262 0082 129B     		ldr	r3, [sp, #72]
 5263 0084 0C90     		str	r0, [sp, #48]
 5264 0086 0433     		adds	r3, r3, #4
 5265 0088 9844     		add	r8, r8, r3
 5266              	.L934:
ARM GAS  /tmp/cciZhAVO.s 			page 91


 5267 008a 08F10D03 		add	r3, r8, #13
 5268 008e 08EE103A 		vmov	s16, r3	@ int
 5269 0092 1022     		movs	r2, #16
 5270 0094 08F13B03 		add	r3, r8, #59
 5271 0098 3B98     		ldr	r0, [sp, #236]
 5272 009a 16A9     		add	r1, sp, #88
 5273 009c 0D93     		str	r3, [sp, #52]
 5274 009e FFF7FEFF 		bl	wc_RNG_GenerateBlock
 5275 00a2 0346     		mov	r3, r0
 5276 00a4 B0B9     		cbnz	r0, .L930
 5277 00a6 09EB060A 		add	r10, r9, r6
 5278 00aa 0146     		mov	r1, r0
 5279 00ac 5046     		mov	r0, r10
 5280 00ae FFF7FEFF 		bl	SetLength
 5281 00b2 0D9A     		ldr	r2, [sp, #52]
 5282 00b4 0AF10303 		add	r3, r10, #3
 5283 00b8 1344     		add	r3, r3, r2
 5284 00ba 03EB000B 		add	fp, r3, r0
 5285 00be 94B9     		cbnz	r4, .L935
 5286 00c0 5846     		mov	r0, fp
 5287 00c2 FFF7FEFF 		bl	SetLength
 5288 00c6 0BF1010B 		add	fp, fp, #1
 5289 00ca 0B9B     		ldr	r3, [sp, #44]
 5290 00cc 5844     		add	r0, r0, fp
 5291 00ce 1860     		str	r0, [r3]
 5292 00d0 6FF0C903 		mvn	r3, #201
 5293              	.L930:
 5294 00d4 1846     		mov	r0, r3
 5295 00d6 27B0     		add	sp, sp, #156
 5296              		@ sp needed
 5297 00d8 BDEC028B 		vldm	sp!, {d8}
 5298 00dc BDE8F08F 		pop	{r4, r5, r6, r7, r8, r9, r10, fp, pc}
 5299              	.L955:
 5300 00e0 0023     		movs	r3, #0
 5301 00e2 0C93     		str	r3, [sp, #48]
 5302 00e4 D1E7     		b	.L934
 5303              	.L935:
 5304 00e6 2146     		mov	r1, r4
 5305 00e8 5046     		mov	r0, r10
 5306 00ea FFF7FEFF 		bl	SetOctetString
 5307 00ee 1199     		ldr	r1, [sp, #68]
 5308 00f0 5846     		mov	r0, fp
 5309 00f2 2144     		add	r1, r1, r4
 5310 00f4 FFF7FEFF 		bl	SetSequence
 5311 00f8 119B     		ldr	r3, [sp, #68]
 5312 00fa ABEB0A0B 		sub	fp, fp, r10
 5313 00fe 0344     		add	r3, r3, r0
 5314 0100 1193     		str	r3, [sp, #68]
 5315 0102 5B44     		add	r3, r3, fp
 5316 0104 04EB030B 		add	fp, r4, r3
 5317 0108 3246     		mov	r2, r6
 5318 010a 5846     		mov	r0, fp
 5319 010c 0E99     		ldr	r1, [sp, #56]
 5320 010e 0F93     		str	r3, [sp, #60]
 5321 0110 FFF7FEFF 		bl	memcpy
 5322 0114 0F9B     		ldr	r3, [sp, #60]
 5323 0116 B9F1000F 		cmp	r9, #0
ARM GAS  /tmp/cciZhAVO.s 			page 92


 5324 011a 06D0     		beq	.L936
 5325 011c F018     		adds	r0, r6, r3
 5326 011e 4A46     		mov	r2, r9
 5327 0120 4946     		mov	r1, r9
 5328 0122 2044     		add	r0, r0, r4
 5329 0124 FFF7FEFF 		bl	memset
 5330 0128 5646     		mov	r6, r10
 5331              	.L936:
 5332 012a 0A9B     		ldr	r3, [sp, #40]
 5333 012c 4BB1     		cbz	r3, .L956
 5334 012e 3846     		mov	r0, r7
 5335 0130 FFF7FEFF 		bl	wolfSSL_Malloc
 5336 0134 0546     		mov	r5, r0
 5337 0136 0028     		cmp	r0, #0
 5338 0138 40F0DD80 		bne	.L968
 5339 013c 6FF07C03 		mvn	r3, #124
 5340 0140 C8E7     		b	.L930
 5341              	.L956:
 5342 0142 4FF00009 		mov	r9, #0
 5343              	.L937:
 5344 0146 DDE93201 		ldrd	r0, r1, [sp, #200]
 5345 014a 3A9B     		ldr	r3, [sp, #232]
 5346 014c 2A46     		mov	r2, r5
 5347 014e 0793     		str	r3, [sp, #28]
 5348 0150 0123     		movs	r3, #1
 5349 0152 0693     		str	r3, [sp, #24]
 5350 0154 16AB     		add	r3, sp, #88
 5351 0156 0593     		str	r3, [sp, #20]
 5352 0158 0623     		movs	r3, #6
 5353 015a CDE90363 		strd	r6, r3, [sp, #12]
 5354 015e 349B     		ldr	r3, [sp, #208]
 5355 0160 CDF808B0 		str	fp, [sp, #8]
 5356 0164 0193     		str	r3, [sp, #4]
 5357 0166 399B     		ldr	r3, [sp, #228]
 5358 0168 0093     		str	r3, [sp]
 5359 016a 3B46     		mov	r3, r7
 5360 016c FFF7FEFF 		bl	wc_CryptKey
 5361 0170 0346     		mov	r3, r0
 5362 0172 0028     		cmp	r0, #0
 5363 0174 40F0AE80 		bne	.L939
 5364 0178 1199     		ldr	r1, [sp, #68]
 5365 017a 0D98     		ldr	r0, [sp, #52]
 5366 017c 2144     		add	r1, r1, r4
 5367 017e FFF7FEFF 		bl	SetSequence
 5368 0182 1199     		ldr	r1, [sp, #68]
 5369 0184 0144     		add	r1, r1, r0
 5370 0186 1191     		str	r1, [sp, #68]
 5371 0188 0920     		movs	r0, #9
 5372 018a 2144     		add	r1, r1, r4
 5373 018c FFF7FEFF 		bl	SetObjectId
 5374 0190 6C4B     		ldr	r3, .L971+4
 5375 0192 1199     		ldr	r1, [sp, #68]
 5376 0194 1A68     		ldr	r2, [r3]	@ unaligned
 5377 0196 0844     		add	r0, r0, r1
 5378 0198 2250     		str	r2, [r4, r0]	@ unaligned
 5379 019a 5A68     		ldr	r2, [r3, #4]	@ unaligned
 5380 019c 1B7A     		ldrb	r3, [r3, #8]	@ zero_extendqisi2
ARM GAS  /tmp/cciZhAVO.s 			page 93


 5381 019e 2118     		adds	r1, r4, r0
 5382 01a0 0930     		adds	r0, r0, #9
 5383 01a2 4A60     		str	r2, [r1, #4]	@ unaligned
 5384 01a4 0B72     		strb	r3, [r1, #8]
 5385 01a6 1190     		str	r0, [sp, #68]
 5386 01a8 2118     		adds	r1, r4, r0
 5387 01aa 08F12E00 		add	r0, r8, #46
 5388 01ae FFF7FEFF 		bl	SetSequence
 5389 01b2 1199     		ldr	r1, [sp, #68]
 5390 01b4 0144     		add	r1, r1, r0
 5391 01b6 1191     		str	r1, [sp, #68]
 5392 01b8 18EE100A 		vmov	r0, s16	@ int
 5393 01bc 2144     		add	r1, r1, r4
 5394 01be FFF7FEFF 		bl	SetSequence
 5395 01c2 1199     		ldr	r1, [sp, #68]
 5396 01c4 0144     		add	r1, r1, r0
 5397 01c6 1191     		str	r1, [sp, #68]
 5398 01c8 0920     		movs	r0, #9
 5399 01ca 2144     		add	r1, r1, r4
 5400 01cc FFF7FEFF 		bl	SetObjectId
 5401 01d0 5D4B     		ldr	r3, .L971+8
 5402 01d2 1199     		ldr	r1, [sp, #68]
 5403 01d4 1A68     		ldr	r2, [r3]	@ unaligned
 5404 01d6 0844     		add	r0, r0, r1
 5405 01d8 2250     		str	r2, [r4, r0]	@ unaligned
 5406 01da 5A68     		ldr	r2, [r3, #4]	@ unaligned
 5407 01dc 1B7A     		ldrb	r3, [r3, #8]	@ zero_extendqisi2
 5408 01de 2118     		adds	r1, r4, r0
 5409 01e0 0930     		adds	r0, r0, #9
 5410 01e2 4A60     		str	r2, [r1, #4]	@ unaligned
 5411 01e4 0B72     		strb	r3, [r1, #8]
 5412 01e6 1190     		str	r0, [sp, #68]
 5413 01e8 2118     		adds	r1, r4, r0
 5414 01ea 4046     		mov	r0, r8
 5415 01ec FFF7FEFF 		bl	SetSequence
 5416 01f0 1199     		ldr	r1, [sp, #68]
 5417 01f2 0144     		add	r1, r1, r0
 5418 01f4 1191     		str	r1, [sp, #68]
 5419 01f6 3846     		mov	r0, r7
 5420 01f8 2144     		add	r1, r1, r4
 5421 01fa FFF7FEFF 		bl	SetOctetString
 5422 01fe 119B     		ldr	r3, [sp, #68]
 5423 0200 3A46     		mov	r2, r7
 5424 0202 1844     		add	r0, r0, r3
 5425 0204 2946     		mov	r1, r5
 5426 0206 1190     		str	r0, [sp, #68]
 5427 0208 2044     		add	r0, r0, r4
 5428 020a FFF7FEFF 		bl	memcpy
 5429 020e 119B     		ldr	r3, [sp, #68]
 5430 0210 399A     		ldr	r2, [sp, #228]
 5431 0212 3B44     		add	r3, r3, r7
 5432 0214 1193     		str	r3, [sp, #68]
 5433 0216 0B9B     		ldr	r3, [sp, #44]
 5434 0218 2046     		mov	r0, r4
 5435 021a 1B68     		ldr	r3, [r3]
 5436 021c 11A9     		add	r1, sp, #68
 5437 021e FFF7FEFF 		bl	SetShortInt
ARM GAS  /tmp/cciZhAVO.s 			page 94


 5438 0222 3A9A     		ldr	r2, [sp, #232]
 5439 0224 0346     		mov	r3, r0
 5440 0226 002A     		cmp	r2, #0
 5441 0228 1ADD     		ble	.L940
 5442 022a 1199     		ldr	r1, [sp, #68]
 5443 022c 0A90     		str	r0, [sp, #40]
 5444 022e 1298     		ldr	r0, [sp, #72]
 5445 0230 2144     		add	r1, r1, r4
 5446 0232 0230     		adds	r0, r0, #2
 5447 0234 FFF7FEFF 		bl	SetSequence
 5448 0238 1199     		ldr	r1, [sp, #68]
 5449 023a 0144     		add	r1, r1, r0
 5450 023c 1191     		str	r1, [sp, #68]
 5451 023e 1298     		ldr	r0, [sp, #72]
 5452 0240 2144     		add	r1, r1, r4
 5453 0242 FFF7FEFF 		bl	SetObjectId
 5454 0246 119A     		ldr	r2, [sp, #68]
 5455 0248 0C99     		ldr	r1, [sp, #48]
 5456 024a 1044     		add	r0, r0, r2
 5457 024c 1190     		str	r0, [sp, #68]
 5458 024e 129A     		ldr	r2, [sp, #72]
 5459 0250 2044     		add	r0, r0, r4
 5460 0252 FFF7FEFF 		bl	memcpy
 5461 0256 DDE91121 		ldrd	r2, r1, [sp, #68]
 5462 025a 0A9B     		ldr	r3, [sp, #40]
 5463 025c 0A44     		add	r2, r2, r1
 5464 025e 1192     		str	r2, [sp, #68]
 5465              	.L940:
 5466 0260 002B     		cmp	r3, #0
 5467 0262 37DB     		blt	.L939
 5468 0264 1199     		ldr	r1, [sp, #68]
 5469 0266 1D20     		movs	r0, #29
 5470 0268 2144     		add	r1, r1, r4
 5471 026a FFF7FEFF 		bl	SetSequence
 5472 026e 1199     		ldr	r1, [sp, #68]
 5473 0270 16AD     		add	r5, sp, #88
 5474 0272 0144     		add	r1, r1, r0
 5475 0274 1191     		str	r1, [sp, #68]
 5476 0276 0920     		movs	r0, #9
 5477 0278 2144     		add	r1, r1, r4
 5478 027a FFF7FEFF 		bl	SetObjectId
 5479 027e 099B     		ldr	r3, [sp, #36]
 5480 0280 1199     		ldr	r1, [sp, #68]
 5481 0282 1B68     		ldr	r3, [r3]	@ unaligned
 5482 0284 0844     		add	r0, r0, r1
 5483 0286 2350     		str	r3, [r4, r0]	@ unaligned
 5484 0288 099B     		ldr	r3, [sp, #36]
 5485 028a 2218     		adds	r2, r4, r0
 5486 028c 5B68     		ldr	r3, [r3, #4]	@ unaligned
 5487 028e 0930     		adds	r0, r0, #9
 5488 0290 5360     		str	r3, [r2, #4]	@ unaligned
 5489 0292 099B     		ldr	r3, [sp, #36]
 5490 0294 1190     		str	r0, [sp, #68]
 5491 0296 1B7A     		ldrb	r3, [r3, #8]	@ zero_extendqisi2
 5492 0298 2118     		adds	r1, r4, r0
 5493 029a 1372     		strb	r3, [r2, #8]
 5494 029c 1020     		movs	r0, #16
ARM GAS  /tmp/cciZhAVO.s 			page 95


 5495 029e FFF7FEFF 		bl	SetOctetString
 5496 02a2 119B     		ldr	r3, [sp, #68]
 5497 02a4 1AAF     		add	r7, sp, #104
 5498 02a6 0344     		add	r3, r3, r0
 5499 02a8 1193     		str	r3, [sp, #68]
 5500 02aa 2344     		add	r3, r3, r4
 5501              	.L941:
 5502 02ac 2A46     		mov	r2, r5
 5503 02ae 03CA     		ldmia	r2!, {r0, r1}
 5504 02b0 BA42     		cmp	r2, r7
 5505 02b2 1860     		str	r0, [r3]	@ unaligned
 5506 02b4 5960     		str	r1, [r3, #4]	@ unaligned
 5507 02b6 1546     		mov	r5, r2
 5508 02b8 03F10803 		add	r3, r3, #8
 5509 02bc F6D1     		bne	.L941
 5510 02be 1199     		ldr	r1, [sp, #68]
 5511 02c0 3046     		mov	r0, r6
 5512 02c2 1031     		adds	r1, r1, #16
 5513 02c4 1191     		str	r1, [sp, #68]
 5514 02c6 2144     		add	r1, r1, r4
 5515 02c8 FFF7FEFF 		bl	SetOctetString
 5516 02cc 119A     		ldr	r2, [sp, #68]
 5517 02ce 3244     		add	r2, r2, r6
 5518 02d0 1318     		adds	r3, r2, r0
 5519 02d2 1193     		str	r3, [sp, #68]
 5520              	.L939:
 5521 02d4 B9F1000F 		cmp	r9, #0
 5522 02d8 3FF4FCAE 		beq	.L930
 5523 02dc 4D46     		mov	r5, r9
 5524              	.L943:
 5525 02de 2846     		mov	r0, r5
 5526 02e0 0993     		str	r3, [sp, #36]
 5527 02e2 FFF7FEFF 		bl	wolfSSL_Free
 5528 02e6 099B     		ldr	r3, [sp, #36]
 5529 02e8 F4E6     		b	.L930
 5530              	.L949:
 5531 02ea 6FF0AC03 		mvn	r3, #172
 5532 02ee F1E6     		b	.L930
 5533              	.L951:
 5534 02f0 6FF09903 		mvn	r3, #153
 5535 02f4 EEE6     		b	.L930
 5536              	.L968:
 5537 02f6 0146     		mov	r1, r0
 5538 02f8 3A46     		mov	r2, r7
 5539 02fa 3B98     		ldr	r0, [sp, #236]
 5540 02fc FFF7FEFF 		bl	wc_RNG_GenerateBlock
 5541 0300 0346     		mov	r3, r0
 5542 0302 0028     		cmp	r0, #0
 5543 0304 EBD1     		bne	.L943
 5544 0306 A946     		mov	r9, r5
 5545 0308 1DE7     		b	.L937
 5546              	.L959:
 5547 030a 104B     		ldr	r3, .L971+12
 5548 030c 0993     		str	r3, [sp, #36]
 5549 030e 0423     		movs	r3, #4
 5550 0310 3493     		str	r3, [sp, #208]
 5551              	.L946:
ARM GAS  /tmp/cciZhAVO.s 			page 96


 5552 0312 0723     		movs	r3, #7
 5553 0314 399A     		ldr	r2, [sp, #228]
 5554 0316 13A9     		add	r1, sp, #76
 5555 0318 14A8     		add	r0, sp, #80
 5556 031a FFF7FEFF 		bl	SetShortInt
 5557 031e C6F10009 		rsb	r9, r6, #0
 5558 0322 031E     		subs	r3, r0, #0
 5559 0324 09F00F09 		and	r9, r9, #15
 5560 0328 3FF7A0AE 		bgt	.L944
 5561 032c 7FF4D2AE 		bne	.L930
 5562 0330 9846     		mov	r8, r3
 5563 0332 9EE6     		b	.L933
 5564              	.L960:
 5565 0334 064B     		ldr	r3, .L971+16
 5566 0336 0993     		str	r3, [sp, #36]
 5567 0338 EBE7     		b	.L946
 5568              	.L954:
 5569 033a 0A93     		str	r3, [sp, #40]
 5570 033c 8BE6     		b	.L932
 5571              	.L972:
 5572 033e 00BF     		.align	2
 5573              	.L971:
 5574 0340 D07AB37F 		.word	2142468816
 5575 0344 00000000 		.word	.LC8
 5576 0348 0A000000 		.word	.LC9
 5577 034c 00000000 		.word	.LANCHOR22
 5578 0350 00000000 		.word	.LANCHOR20
 5580              		.section	.text.wc_EncryptPKCS8Key,"ax",%progbits
 5581              		.align	1
 5582              		.global	wc_EncryptPKCS8Key
 5583              		.syntax unified
 5584              		.thumb
 5585              		.thumb_func
 5586              		.fpu fpv4-sp-d16
 5588              	wc_EncryptPKCS8Key:
 5589              		@ args = 40, pretend = 0, frame = 0
 5590              		@ frame_needed = 0, uses_anonymous_args = 0
 5591 0000 10B5     		push	{r4, lr}
 5592 0002 8CB0     		sub	sp, sp, #48
 5593 0004 179C     		ldr	r4, [sp, #92]
 5594 0006 0A94     		str	r4, [sp, #40]
 5595 0008 169C     		ldr	r4, [sp, #88]
 5596 000a 0994     		str	r4, [sp, #36]
 5597 000c 0024     		movs	r4, #0
 5598 000e 0894     		str	r4, [sp, #32]
 5599 0010 159C     		ldr	r4, [sp, #84]
 5600 0012 0794     		str	r4, [sp, #28]
 5601 0014 149C     		ldr	r4, [sp, #80]
 5602 0016 0694     		str	r4, [sp, #24]
 5603 0018 139C     		ldr	r4, [sp, #76]
 5604 001a 0594     		str	r4, [sp, #20]
 5605 001c 129C     		ldr	r4, [sp, #72]
 5606 001e 0494     		str	r4, [sp, #16]
 5607 0020 119C     		ldr	r4, [sp, #68]
 5608 0022 0394     		str	r4, [sp, #12]
 5609 0024 109C     		ldr	r4, [sp, #64]
 5610 0026 0294     		str	r4, [sp, #8]
ARM GAS  /tmp/cciZhAVO.s 			page 97


 5611 0028 0F9C     		ldr	r4, [sp, #60]
 5612 002a 0194     		str	r4, [sp, #4]
 5613 002c 0E9C     		ldr	r4, [sp, #56]
 5614 002e 0094     		str	r4, [sp]
 5615 0030 FFF7FEFF 		bl	wc_EncryptPKCS8Key_ex
 5616 0034 0CB0     		add	sp, sp, #48
 5617              		@ sp needed
 5618 0036 10BD     		pop	{r4, pc}
 5620              		.section	.text.SetOctetStringEx,"ax",%progbits
 5621              		.align	1
 5622              		.global	SetOctetStringEx
 5623              		.syntax unified
 5624              		.thumb
 5625              		.thumb_func
 5626              		.fpu fpv4-sp-d16
 5628              	SetOctetStringEx:
 5629              		@ args = 0, pretend = 0, frame = 0
 5630              		@ frame_needed = 0, uses_anonymous_args = 0
 5631              		@ link register save eliminated.
 5632 0000 1346     		mov	r3, r2
 5633 0002 30B4     		push	{r4, r5}
 5634 0004 2AB1     		cbz	r2, .L975
 5635 0006 30BC     		pop	{r4, r5}
 5636 0008 0A46     		mov	r2, r1
 5637 000a 0146     		mov	r1, r0
 5638 000c 2420     		movs	r0, #36
 5639 000e FFF7FEBF 		b	SetHeader
 5640              	.L975:
 5641 0012 30BC     		pop	{r4, r5}
 5642 0014 FFF7FEBF 		b	SetOctetString
 5644              		.section	.text.SetSet,"ax",%progbits
 5645              		.align	1
 5646              		.global	SetSet
 5647              		.syntax unified
 5648              		.thumb
 5649              		.thumb_func
 5650              		.fpu fpv4-sp-d16
 5652              	SetSet:
 5653              		@ args = 0, pretend = 0, frame = 0
 5654              		@ frame_needed = 0, uses_anonymous_args = 0
 5655              		@ link register save eliminated.
 5656 0000 0A46     		mov	r2, r1
 5657 0002 0023     		movs	r3, #0
 5658 0004 0146     		mov	r1, r0
 5659 0006 3120     		movs	r0, #49
 5660 0008 FFF7FEBF 		b	SetHeader
 5662              		.section	.text.SetImplicit,"ax",%progbits
 5663              		.align	1
 5664              		.global	SetImplicit
 5665              		.syntax unified
 5666              		.thumb
 5667              		.thumb_func
 5668              		.fpu fpv4-sp-d16
 5670              	SetImplicit:
 5671              		@ args = 4, pretend = 0, frame = 0
 5672              		@ frame_needed = 0, uses_anonymous_args = 0
 5673              		@ link register save eliminated.
ARM GAS  /tmp/cciZhAVO.s 			page 98


 5674 0000 30B4     		push	{r4, r5}
 5675 0002 0546     		mov	r5, r0
 5676 0004 042D     		cmp	r5, #4
 5677 0006 0846     		mov	r0, r1
 5678 0008 1146     		mov	r1, r2
 5679 000a 1A46     		mov	r2, r3
 5680 000c 9DF80830 		ldrb	r3, [sp, #8]	@ zero_extendqisi2
 5681 0010 05D1     		bne	.L978
 5682 0012 93B1     		cbz	r3, .L982
 5683 0014 40F0A000 		orr	r0, r0, #160
 5684              	.L980:
 5685 0018 C0F34013 		ubfx	r3, r0, #5, #1
 5686 001c 0AE0     		b	.L981
 5687              	.L978:
 5688 001e 103D     		subs	r5, r5, #16
 5689 0020 012D     		cmp	r5, #1
 5690 0022 8CBF     		ite	hi
 5691 0024 6FF07F04 		mvnhi	r4, #127
 5692 0028 6FF05F04 		mvnls	r4, #95
 5693              	.L979:
 5694 002c 2043     		orrs	r0, r0, r4
 5695 002e C0B2     		uxtb	r0, r0
 5696 0030 002B     		cmp	r3, #0
 5697 0032 F1D1     		bne	.L980
 5698              	.L981:
 5699 0034 30BC     		pop	{r4, r5}
 5700 0036 FFF7FEBF 		b	SetHeader
 5701              	.L982:
 5702 003a 6FF07F04 		mvn	r4, #127
 5703 003e F5E7     		b	.L979
 5705              		.section	.text.SetExplicit,"ax",%progbits
 5706              		.align	1
 5707              		.global	SetExplicit
 5708              		.syntax unified
 5709              		.thumb
 5710              		.thumb_func
 5711              		.fpu fpv4-sp-d16
 5713              	SetExplicit:
 5714              		@ args = 0, pretend = 0, frame = 0
 5715              		@ frame_needed = 0, uses_anonymous_args = 0
 5716              		@ link register save eliminated.
 5717 0000 40F0A000 		orr	r0, r0, #160
 5718 0004 FFF7FEBF 		b	SetHeader
 5720              		.section	.text.SetAlgoID,"ax",%progbits
 5721              		.align	1
 5722              		.global	SetAlgoID
 5723              		.syntax unified
 5724              		.thumb
 5725              		.thumb_func
 5726              		.fpu fpv4-sp-d16
 5728              	SetAlgoID:
 5729              		@ args = 0, pretend = 0, frame = 0
 5730              		@ frame_needed = 0, uses_anonymous_args = 0
 5731 0000 13B5     		push	{r0, r1, r4, lr}
 5732 0002 0024     		movs	r4, #0
 5733 0004 0094     		str	r4, [sp]
 5734 0006 FFF7FEFF 		bl	SetAlgoIDImpl
ARM GAS  /tmp/cciZhAVO.s 			page 99


 5735 000a 02B0     		add	sp, sp, #8
 5736              		@ sp needed
 5737 000c 10BD     		pop	{r4, pc}
 5739              		.section	.text.SetAlgoIDEx,"ax",%progbits
 5740              		.align	1
 5741              		.global	SetAlgoIDEx
 5742              		.syntax unified
 5743              		.thumb
 5744              		.thumb_func
 5745              		.fpu fpv4-sp-d16
 5747              	SetAlgoIDEx:
 5748              		@ args = 4, pretend = 0, frame = 0
 5749              		@ frame_needed = 0, uses_anonymous_args = 0
 5750              		@ link register save eliminated.
 5751 0000 10B4     		push	{r4}
 5752 0002 9DF80440 		ldrb	r4, [sp, #4]	@ zero_extendqisi2
 5753 0006 0194     		str	r4, [sp, #4]
 5754 0008 5DF8044B 		ldr	r4, [sp], #4
 5755 000c FFF7FEBF 		b	SetAlgoIDImpl
 5757              		.section	.text.wc_EncodeSignature,"ax",%progbits
 5758              		.align	1
 5759              		.global	wc_EncodeSignature
 5760              		.syntax unified
 5761              		.thumb
 5762              		.thumb_func
 5763              		.fpu fpv4-sp-d16
 5765              	wc_EncodeSignature:
 5766              		@ args = 0, pretend = 0, frame = 72
 5767              		@ frame_needed = 0, uses_anonymous_args = 0
 5768 0000 2DE9F041 		push	{r4, r5, r6, r7, r8, lr}
 5769 0004 0D46     		mov	r5, r1
 5770 0006 0021     		movs	r1, #0
 5771 0008 92B0     		sub	sp, sp, #72
 5772 000a 0646     		mov	r6, r0
 5773 000c 8C20     		movs	r0, #140
 5774 000e 1746     		mov	r7, r2
 5775 0010 9846     		mov	r8, r3
 5776 0012 0191     		str	r1, [sp, #4]
 5777 0014 FFF7FEFF 		bl	wolfSSL_Malloc
 5778 0018 0446     		mov	r4, r0
 5779 001a 58B3     		cbz	r0, .L994
 5780 001c 6422     		movs	r2, #100
 5781 001e 0021     		movs	r1, #0
 5782 0020 FFF7FEFF 		bl	memset
 5783 0024 0021     		movs	r1, #0
 5784 0026 4046     		mov	r0, r8
 5785 0028 04F13402 		add	r2, r4, #52
 5786 002c FFF7FEFF 		bl	OidFromId
 5787 0030 B542     		cmp	r5, r6
 5788 0032 2063     		str	r0, [r4, #48]
 5789 0034 05D1     		bne	.L992
 5790 0036 2946     		mov	r1, r5
 5791 0038 3A46     		mov	r2, r7
 5792 003a 02A8     		add	r0, sp, #8
 5793 003c FFF7FEFF 		bl	memcpy
 5794 0040 02AD     		add	r5, sp, #8
 5795              	.L992:
ARM GAS  /tmp/cciZhAVO.s 			page 100


 5796 0042 0522     		movs	r2, #5
 5797 0044 2146     		mov	r1, r4
 5798 0046 C4E91657 		strd	r5, r7, [r4, #88]
 5799 004a 0B48     		ldr	r0, .L996
 5800 004c 01AB     		add	r3, sp, #4
 5801 004e FFF7FEFF 		bl	SizeASN_Items
 5802 0052 68B9     		cbnz	r0, .L995
 5803 0054 3346     		mov	r3, r6
 5804 0056 0522     		movs	r2, #5
 5805 0058 2146     		mov	r1, r4
 5806 005a 0748     		ldr	r0, .L996
 5807 005c FFF7FEFF 		bl	SetASN_Items
 5808 0060 019D     		ldr	r5, [sp, #4]
 5809              	.L993:
 5810 0062 2046     		mov	r0, r4
 5811 0064 FFF7FEFF 		bl	wolfSSL_Free
 5812              	.L991:
 5813 0068 2846     		mov	r0, r5
 5814 006a 12B0     		add	sp, sp, #72
 5815              		@ sp needed
 5816 006c BDE8F081 		pop	{r4, r5, r6, r7, r8, pc}
 5817              	.L995:
 5818 0070 0025     		movs	r5, #0
 5819 0072 F6E7     		b	.L993
 5820              	.L994:
 5821 0074 0546     		mov	r5, r0
 5822 0076 F7E7     		b	.L991
 5823              	.L997:
 5824              		.align	2
 5825              	.L996:
 5826 0078 00000000 		.word	.LANCHOR75
 5828              		.section	.text.wc_GetCTC_HashOID,"ax",%progbits
 5829              		.align	1
 5830              		.global	wc_GetCTC_HashOID
 5831              		.syntax unified
 5832              		.thumb
 5833              		.thumb_func
 5834              		.fpu fpv4-sp-d16
 5836              	wc_GetCTC_HashOID:
 5837              		@ args = 0, pretend = 0, frame = 0
 5838              		@ frame_needed = 0, uses_anonymous_args = 0
 5839 0000 08B5     		push	{r3, lr}
 5840 0002 FFF7FEFF 		bl	wc_HashTypeConvert
 5841 0006 FFF7FEFF 		bl	wc_HashGetOID
 5842 000a 20EAE070 		bic	r0, r0, r0, asr #31
 5843 000e 08BD     		pop	{r3, pc}
 5845              		.section	.text.InitSignatureCtx,"ax",%progbits
 5846              		.align	1
 5847              		.global	InitSignatureCtx
 5848              		.syntax unified
 5849              		.thumb
 5850              		.thumb_func
 5851              		.fpu fpv4-sp-d16
 5853              	InitSignatureCtx:
 5854              		@ args = 0, pretend = 0, frame = 0
 5855              		@ frame_needed = 0, uses_anonymous_args = 0
 5856 0000 70B5     		push	{r4, r5, r6, lr}
ARM GAS  /tmp/cciZhAVO.s 			page 101


 5857 0002 0D46     		mov	r5, r1
 5858 0004 1646     		mov	r6, r2
 5859 0006 0446     		mov	r4, r0
 5860 0008 30B1     		cbz	r0, .L999
 5861 000a 2022     		movs	r2, #32
 5862 000c 0021     		movs	r1, #0
 5863 000e 0430     		adds	r0, r0, #4
 5864 0010 FFF7FEFF 		bl	memset
 5865 0014 2661     		str	r6, [r4, #16]
 5866 0016 2560     		str	r5, [r4]
 5867              	.L999:
 5868 0018 70BD     		pop	{r4, r5, r6, pc}
 5870              		.section	.text.InitDecodedCert_ex,"ax",%progbits
 5871              		.align	1
 5872              		.global	InitDecodedCert_ex
 5873              		.syntax unified
 5874              		.thumb
 5875              		.thumb_func
 5876              		.fpu fpv4-sp-d16
 5878              	InitDecodedCert_ex:
 5879              		@ args = 4, pretend = 0, frame = 0
 5880              		@ frame_needed = 0, uses_anonymous_args = 0
 5881 0000 2DE9F041 		push	{r4, r5, r6, r7, r8, lr}
 5882 0004 DDF81880 		ldr	r8, [sp, #24]
 5883 0008 0F46     		mov	r7, r1
 5884 000a 1646     		mov	r6, r2
 5885 000c 1D46     		mov	r5, r3
 5886 000e 0446     		mov	r4, r0
 5887 0010 B0B1     		cbz	r0, .L1004
 5888 0012 4FF45972 		mov	r2, #868
 5889 0016 0021     		movs	r1, #0
 5890 0018 FFF7FEFF 		bl	memset
 5891 001c 0C23     		movs	r3, #12
 5892 001e 84F86C30 		strb	r3, [r4, #108]
 5893 0022 7F23     		movs	r3, #127
 5894 0024 4246     		mov	r2, r8
 5895 0026 2946     		mov	r1, r5
 5896 0028 C4E99F65 		strd	r6, r5, [r4, #636]
 5897 002c C4F87472 		str	r7, [r4, #628]
 5898 0030 A4F8FE32 		strh	r3, [r4, #766]	@ movhi
 5899 0034 04F54D70 		add	r0, r4, #820
 5900 0038 BDE8F041 		pop	{r4, r5, r6, r7, r8, lr}
 5901 003c FFF7FEBF 		b	InitSignatureCtx
 5902              	.L1004:
 5903 0040 BDE8F081 		pop	{r4, r5, r6, r7, r8, pc}
 5905              		.section	.text.InitDecodedCert,"ax",%progbits
 5906              		.align	1
 5907              		.global	InitDecodedCert
 5908              		.syntax unified
 5909              		.thumb
 5910              		.thumb_func
 5911              		.fpu fpv4-sp-d16
 5913              	InitDecodedCert:
 5914              		@ args = 0, pretend = 0, frame = 0
 5915              		@ frame_needed = 0, uses_anonymous_args = 0
 5916 0000 13B5     		push	{r0, r1, r4, lr}
 5917 0002 6FF00104 		mvn	r4, #1
ARM GAS  /tmp/cciZhAVO.s 			page 102


 5918 0006 0094     		str	r4, [sp]
 5919 0008 FFF7FEFF 		bl	InitDecodedCert_ex
 5920 000c 02B0     		add	sp, sp, #8
 5921              		@ sp needed
 5922 000e 10BD     		pop	{r4, pc}
 5924              		.section	.text.wc_InitDecodedCert,"ax",%progbits
 5925              		.align	1
 5926              		.global	wc_InitDecodedCert
 5927              		.syntax unified
 5928              		.thumb
 5929              		.thumb_func
 5930              		.fpu fpv4-sp-d16
 5932              	wc_InitDecodedCert:
 5933              		@ args = 0, pretend = 0, frame = 0
 5934              		@ frame_needed = 0, uses_anonymous_args = 0
 5935              		@ link register save eliminated.
 5936 0000 FFF7FEBF 		b	InitDecodedCert
 5938              		.section	.text.FreeSignatureCtx,"ax",%progbits
 5939              		.align	1
 5940              		.global	FreeSignatureCtx
 5941              		.syntax unified
 5942              		.thumb
 5943              		.thumb_func
 5944              		.fpu fpv4-sp-d16
 5946              	FreeSignatureCtx:
 5947              		@ args = 0, pretend = 0, frame = 0
 5948              		@ frame_needed = 0, uses_anonymous_args = 0
 5949 0000 10B5     		push	{r4, lr}
 5950 0002 0446     		mov	r4, r0
 5951 0004 A8B1     		cbz	r0, .L1008
 5952 0006 4068     		ldr	r0, [r0, #4]
 5953 0008 08B1     		cbz	r0, .L1010
 5954 000a FFF7FEFF 		bl	wolfSSL_Free
 5955              	.L1010:
 5956 000e 0023     		movs	r3, #0
 5957 0010 E068     		ldr	r0, [r4, #12]
 5958 0012 6360     		str	r3, [r4, #4]
 5959 0014 58B1     		cbz	r0, .L1011
 5960 0016 226A     		ldr	r2, [r4, #32]
 5961 0018 064B     		ldr	r3, .L1027
 5962 001a 9A42     		cmp	r2, r3
 5963 001c 05D1     		bne	.L1013
 5964 001e FFF7FEFF 		bl	wc_ecc_free
 5965 0022 E068     		ldr	r0, [r4, #12]
 5966 0024 08B1     		cbz	r0, .L1013
 5967 0026 FFF7FEFF 		bl	wolfSSL_Free
 5968              	.L1013:
 5969 002a 0023     		movs	r3, #0
 5970 002c E360     		str	r3, [r4, #12]
 5971              	.L1011:
 5972 002e 0023     		movs	r3, #0
 5973 0030 6361     		str	r3, [r4, #20]
 5974              	.L1008:
 5975 0032 10BD     		pop	{r4, pc}
 5976              	.L1028:
 5977              		.align	2
 5978              	.L1027:
ARM GAS  /tmp/cciZhAVO.s 			page 103


 5979 0034 17844931 		.word	826901527
 5981              		.section	.text.FreeDecodedCert,"ax",%progbits
 5982              		.align	1
 5983              		.global	FreeDecodedCert
 5984              		.syntax unified
 5985              		.thumb
 5986              		.thumb_func
 5987              		.fpu fpv4-sp-d16
 5989              	FreeDecodedCert:
 5990              		@ args = 0, pretend = 0, frame = 0
 5991              		@ frame_needed = 0, uses_anonymous_args = 0
 5992 0000 10B5     		push	{r4, lr}
 5993 0002 0446     		mov	r4, r0
 5994 0004 0028     		cmp	r0, #0
 5995 0006 36D0     		beq	.L1029
 5996 0008 90F86033 		ldrb	r3, [r0, #864]	@ zero_extendqisi2
 5997 000c DA07     		lsls	r2, r3, #31
 5998 000e 03D5     		bpl	.L1031
 5999 0010 406E     		ldr	r0, [r0, #100]
 6000 0012 08B1     		cbz	r0, .L1031
 6001 0014 FFF7FEFF 		bl	wolfSSL_Free
 6002              	.L1031:
 6003 0018 A368     		ldr	r3, [r4, #8]
 6004 001a 012B     		cmp	r3, #1
 6005 001c 03D1     		bne	.L1032
 6006 001e 2068     		ldr	r0, [r4]
 6007 0020 08B1     		cbz	r0, .L1032
 6008 0022 FFF7FEFF 		bl	wolfSSL_Free
 6009              	.L1032:
 6010 0026 94F86033 		ldrb	r3, [r4, #864]	@ zero_extendqisi2
 6011 002a 5B06     		lsls	r3, r3, #25
 6012 002c 05D5     		bpl	.L1033
 6013 002e 606A     		ldr	r0, [r4, #36]
 6014 0030 18B1     		cbz	r0, .L1033
 6015 0032 D4F88012 		ldr	r1, [r4, #640]
 6016 0036 FFF7FEFF 		bl	FreeAltNames
 6017              	.L1033:
 6018 003a A06A     		ldr	r0, [r4, #40]
 6019 003c 18B1     		cbz	r0, .L1034
 6020 003e D4F88012 		ldr	r1, [r4, #640]
 6021 0042 FFF7FEFF 		bl	FreeAltNames
 6022              	.L1034:
 6023 0046 E06A     		ldr	r0, [r4, #44]
 6024 0048 18B1     		cbz	r0, .L1035
 6025 004a D4F88012 		ldr	r1, [r4, #640]
 6026 004e FFF7FEFF 		bl	FreeAltNames
 6027              	.L1035:
 6028 0052 206B     		ldr	r0, [r4, #48]
 6029 0054 18B1     		cbz	r0, .L1036
 6030 0056 D4F88012 		ldr	r1, [r4, #640]
 6031 005a FFF7FEFF 		bl	FreeNameSubtrees
 6032              	.L1036:
 6033 005e 606B     		ldr	r0, [r4, #52]
 6034 0060 18B1     		cbz	r0, .L1037
 6035 0062 D4F88012 		ldr	r1, [r4, #640]
 6036 0066 FFF7FEFF 		bl	FreeNameSubtrees
 6037              	.L1037:
ARM GAS  /tmp/cciZhAVO.s 			page 104


 6038 006a 04F54D70 		add	r0, r4, #820
 6039 006e BDE81040 		pop	{r4, lr}
 6040 0072 FFF7FEBF 		b	FreeSignatureCtx
 6041              	.L1029:
 6042 0076 10BD     		pop	{r4, pc}
 6044              		.section	.text.wc_FreeDecodedCert,"ax",%progbits
 6045              		.align	1
 6046              		.global	wc_FreeDecodedCert
 6047              		.syntax unified
 6048              		.thumb
 6049              		.thumb_func
 6050              		.fpu fpv4-sp-d16
 6052              	wc_FreeDecodedCert:
 6053              		@ args = 0, pretend = 0, frame = 0
 6054              		@ frame_needed = 0, uses_anonymous_args = 0
 6055              		@ link register save eliminated.
 6056 0000 FFF7FEBF 		b	FreeDecodedCert
 6058              		.section	.text.DecodeBasicCaConstraint,"ax",%progbits
 6059              		.align	1
 6060              		.global	DecodeBasicCaConstraint
 6061              		.syntax unified
 6062              		.thumb
 6063              		.thumb_func
 6064              		.fpu fpv4-sp-d16
 6066              	DecodeBasicCaConstraint:
 6067              		@ args = 4, pretend = 0, frame = 8
 6068              		@ frame_needed = 0, uses_anonymous_args = 0
 6069 0000 2DE9F043 		push	{r4, r5, r6, r7, r8, r9, lr}
 6070 0004 4FF00009 		mov	r9, #0
 6071 0008 87B0     		sub	sp, sp, #28
 6072 000a 0546     		mov	r5, r0
 6073 000c 5420     		movs	r0, #84
 6074 000e 8846     		mov	r8, r1
 6075 0010 1746     		mov	r7, r2
 6076 0012 1E46     		mov	r6, r3
 6077 0014 CDF81490 		str	r9, [sp, #20]
 6078 0018 8DF81390 		strb	r9, [sp, #19]
 6079 001c FFF7FEFF 		bl	wolfSSL_Malloc
 6080 0020 0446     		mov	r4, r0
 6081 0022 0028     		cmp	r0, #0
 6082 0024 37D0     		beq	.L1070
 6083 0026 5422     		movs	r2, #84
 6084 0028 4946     		mov	r1, r9
 6085 002a FFF7FEFF 		bl	memset
 6086 002e 0DF11303 		add	r3, sp, #19
 6087 0032 6362     		str	r3, [r4, #36]
 6088 0034 0223     		movs	r3, #2
 6089 0036 84F85030 		strb	r3, [r4, #80]
 6090 003a 05AB     		add	r3, sp, #20
 6091 003c 2664     		str	r6, [r4, #64]
 6092 003e 0322     		movs	r2, #3
 6093 0040 CDE90053 		strd	r5, r3, [sp]
 6094 0044 2146     		mov	r1, r4
 6095 0046 0123     		movs	r3, #1
 6096 0048 1448     		ldr	r0, .L1079
 6097 004a CDF80880 		str	r8, [sp, #8]
 6098 004e FFF7FEFF 		bl	GetASN_Items
ARM GAS  /tmp/cciZhAVO.s 			page 105


 6099 0052 0546     		mov	r5, r0
 6100 0054 A8B9     		cbnz	r0, .L1068
 6101 0056 6368     		ldr	r3, [r4, #4]
 6102 0058 9BB1     		cbz	r3, .L1068
 6103 005a 236A     		ldr	r3, [r4, #32]
 6104 005c 13B1     		cbz	r3, .L1069
 6105 005e 9DF81330 		ldrb	r3, [sp, #19]	@ zero_extendqisi2
 6106 0062 ABB1     		cbz	r3, .L1072
 6107              	.L1069:
 6108 0064 3388     		ldrh	r3, [r6]
 6109 0066 7F2B     		cmp	r3, #127
 6110 0068 12D8     		bhi	.L1072
 6111 006a 9DF81330 		ldrb	r3, [sp, #19]	@ zero_extendqisi2
 6112 006e 0E9A     		ldr	r2, [sp, #56]
 6113 0070 003B     		subs	r3, r3, #0
 6114 0072 18BF     		it	ne
 6115 0074 0123     		movne	r3, #1
 6116 0076 3B70     		strb	r3, [r7]
 6117 0078 E36B     		ldr	r3, [r4, #60]
 6118 007a 003B     		subs	r3, r3, #0
 6119 007c 18BF     		it	ne
 6120 007e 0123     		movne	r3, #1
 6121 0080 1370     		strb	r3, [r2]
 6122              	.L1068:
 6123 0082 2046     		mov	r0, r4
 6124 0084 FFF7FEFF 		bl	wolfSSL_Free
 6125              	.L1066:
 6126 0088 2846     		mov	r0, r5
 6127 008a 07B0     		add	sp, sp, #28
 6128              		@ sp needed
 6129 008c BDE8F083 		pop	{r4, r5, r6, r7, r8, r9, pc}
 6130              	.L1072:
 6131 0090 6FF08B05 		mvn	r5, #139
 6132 0094 F5E7     		b	.L1068
 6133              	.L1070:
 6134 0096 6FF07C05 		mvn	r5, #124
 6135 009a F5E7     		b	.L1066
 6136              	.L1080:
 6137              		.align	2
 6138              	.L1079:
 6139 009c 00000000 		.word	.LANCHOR76
 6141              		.section	.text.DecodeAuthKeyId,"ax",%progbits
 6142              		.align	1
 6143              		.global	DecodeAuthKeyId
 6144              		.syntax unified
 6145              		.thumb
 6146              		.thumb_func
 6147              		.fpu fpv4-sp-d16
 6149              	DecodeAuthKeyId:
 6150              		@ args = 16, pretend = 0, frame = 8
 6151              		@ frame_needed = 0, uses_anonymous_args = 0
 6152 0000 2DE9F041 		push	{r4, r5, r6, r7, r8, lr}
 6153 0004 86B0     		sub	sp, sp, #24
 6154 0006 0746     		mov	r7, r0
 6155 0008 DDE90C40 		ldrd	r4, r0, [sp, #48]
 6156 000c 8846     		mov	r8, r1
 6157 000e 1D46     		mov	r5, r3
ARM GAS  /tmp/cciZhAVO.s 			page 106


 6158 0010 DDE90E13 		ldrd	r1, r3, [sp, #56]
 6159 0014 1646     		mov	r6, r2
 6160 0016 0AB1     		cbz	r2, .L1082
 6161 0018 0022     		movs	r2, #0
 6162 001a 3260     		str	r2, [r6]
 6163              	.L1082:
 6164 001c 0DB1     		cbz	r5, .L1083
 6165 001e 0022     		movs	r2, #0
 6166 0020 2A60     		str	r2, [r5]
 6167              	.L1083:
 6168 0022 0CB1     		cbz	r4, .L1084
 6169 0024 0022     		movs	r2, #0
 6170 0026 2260     		str	r2, [r4]
 6171              	.L1084:
 6172 0028 08B1     		cbz	r0, .L1085
 6173 002a 0022     		movs	r2, #0
 6174 002c 0260     		str	r2, [r0]
 6175              	.L1085:
 6176 002e 09B1     		cbz	r1, .L1086
 6177 0030 0022     		movs	r2, #0
 6178 0032 0A60     		str	r2, [r1]
 6179              	.L1086:
 6180 0034 0BB1     		cbz	r3, .L1087
 6181 0036 0022     		movs	r2, #0
 6182 0038 1A60     		str	r2, [r3]
 6183              	.L1087:
 6184 003a 7020     		movs	r0, #112
 6185 003c FFF7FEFF 		bl	wolfSSL_Malloc
 6186 0040 0446     		mov	r4, r0
 6187 0042 00B3     		cbz	r0, .L1091
 6188 0044 7022     		movs	r2, #112
 6189 0046 0021     		movs	r1, #0
 6190 0048 FFF7FEFF 		bl	memset
 6191 004c 0023     		movs	r3, #0
 6192 004e 0593     		str	r3, [sp, #20]
 6193 0050 05AB     		add	r3, sp, #20
 6194 0052 CDE90073 		strd	r7, r3, [sp]
 6195 0056 0422     		movs	r2, #4
 6196 0058 0123     		movs	r3, #1
 6197 005a 2146     		mov	r1, r4
 6198 005c 0B48     		ldr	r0, .L1119
 6199 005e CDF80880 		str	r8, [sp, #8]
 6200 0062 FFF7FEFF 		bl	GetASN_Items
 6201 0066 0746     		mov	r7, r0
 6202 0068 30B9     		cbnz	r0, .L1090
 6203 006a 2EB1     		cbz	r6, .L1090
 6204 006c 25B1     		cbz	r5, .L1090
 6205 006e 636A     		ldr	r3, [r4, #36]
 6206 0070 13B1     		cbz	r3, .L1090
 6207 0072 3360     		str	r3, [r6]
 6208 0074 A36A     		ldr	r3, [r4, #40]
 6209 0076 2B60     		str	r3, [r5]
 6210              	.L1090:
 6211 0078 2046     		mov	r0, r4
 6212 007a FFF7FEFF 		bl	wolfSSL_Free
 6213              	.L1081:
 6214 007e 3846     		mov	r0, r7
ARM GAS  /tmp/cciZhAVO.s 			page 107


 6215 0080 06B0     		add	sp, sp, #24
 6216              		@ sp needed
 6217 0082 BDE8F081 		pop	{r4, r5, r6, r7, r8, pc}
 6218              	.L1091:
 6219 0086 6FF07C07 		mvn	r7, #124
 6220 008a F8E7     		b	.L1081
 6221              	.L1120:
 6222              		.align	2
 6223              	.L1119:
 6224 008c 00000000 		.word	.LANCHOR77
 6226              		.section	.text.DecodeSubjKeyId,"ax",%progbits
 6227              		.align	1
 6228              		.global	DecodeSubjKeyId
 6229              		.syntax unified
 6230              		.thumb
 6231              		.thumb_func
 6232              		.fpu fpv4-sp-d16
 6234              	DecodeSubjKeyId:
 6235              		@ args = 0, pretend = 0, frame = 8
 6236              		@ frame_needed = 0, uses_anonymous_args = 0
 6237 0000 F7B5     		push	{r0, r1, r2, r4, r5, r6, r7, lr}
 6238 0002 0025     		movs	r5, #0
 6239 0004 1646     		mov	r6, r2
 6240 0006 1F46     		mov	r7, r3
 6241 0008 01AA     		add	r2, sp, #4
 6242 000a 0B46     		mov	r3, r1
 6243 000c 6946     		mov	r1, sp
 6244 000e 0446     		mov	r4, r0
 6245 0010 CDE90055 		strd	r5, r5, [sp]
 6246 0014 FFF7FEFF 		bl	GetOctetString
 6247 0018 0028     		cmp	r0, #0
 6248 001a 05DB     		blt	.L1121
 6249 001c 0098     		ldr	r0, [sp]
 6250 001e 019B     		ldr	r3, [sp, #4]
 6251 0020 0444     		add	r4, r4, r0
 6252 0022 2846     		mov	r0, r5
 6253 0024 3B60     		str	r3, [r7]
 6254 0026 3460     		str	r4, [r6]
 6255              	.L1121:
 6256 0028 03B0     		add	sp, sp, #12
 6257              		@ sp needed
 6258 002a F0BD     		pop	{r4, r5, r6, r7, pc}
 6260              		.section	.text.DecodeKeyUsage,"ax",%progbits
 6261              		.align	1
 6262              		.global	DecodeKeyUsage
 6263              		.syntax unified
 6264              		.thumb
 6265              		.thumb_func
 6266              		.fpu fpv4-sp-d16
 6268              	DecodeKeyUsage:
 6269              		@ args = 0, pretend = 0, frame = 40
 6270              		@ frame_needed = 0, uses_anonymous_args = 0
 6271 0000 F0B5     		push	{r4, r5, r6, r7, lr}
 6272 0002 0025     		movs	r5, #0
 6273 0004 1446     		mov	r4, r2
 6274 0006 1C22     		movs	r2, #28
 6275 0008 0223     		movs	r3, #2
ARM GAS  /tmp/cciZhAVO.s 			page 108


 6276 000a 8FB0     		sub	sp, sp, #60
 6277 000c 0646     		mov	r6, r0
 6278 000e 0F46     		mov	r7, r1
 6279 0010 0DEB0200 		add	r0, sp, r2
 6280 0014 2946     		mov	r1, r5
 6281 0016 CDE90553 		strd	r5, r3, [sp, #20]
 6282 001a FFF7FEFF 		bl	memset
 6283 001e 0523     		movs	r3, #5
 6284 0020 8DF83430 		strb	r3, [sp, #52]
 6285 0024 04AB     		add	r3, sp, #16
 6286 0026 0993     		str	r3, [sp, #36]
 6287 0028 06AB     		add	r3, sp, #24
 6288 002a 0A93     		str	r3, [sp, #40]
 6289 002c 05AB     		add	r3, sp, #20
 6290 002e CDE90063 		strd	r6, r3, [sp]
 6291 0032 0122     		movs	r2, #1
 6292 0034 2B46     		mov	r3, r5
 6293 0036 0B48     		ldr	r0, .L1127
 6294 0038 0297     		str	r7, [sp, #8]
 6295 003a 07A9     		add	r1, sp, #28
 6296 003c ADF81050 		strh	r5, [sp, #16]	@ movhi
 6297 0040 FFF7FEFF 		bl	GetASN_Items
 6298 0044 58B9     		cbnz	r0, .L1123
 6299 0046 069A     		ldr	r2, [sp, #24]
 6300 0048 9DF81030 		ldrb	r3, [sp, #16]	@ zero_extendqisi2
 6301 004c 022A     		cmp	r2, #2
 6302 004e 08BF     		it	eq
 6303 0050 9DF81120 		ldrbeq	r2, [sp, #17]	@ zero_extendqisi2
 6304 0054 2380     		strh	r3, [r4]	@ movhi
 6305 0056 04BF     		itt	eq
 6306 0058 43EA0223 		orreq	r3, r3, r2, lsl #8
 6307 005c 2380     		strheq	r3, [r4]	@ movhi
 6308              	.L1123:
 6309 005e 0FB0     		add	sp, sp, #60
 6310              		@ sp needed
 6311 0060 F0BD     		pop	{r4, r5, r6, r7, pc}
 6312              	.L1128:
 6313 0062 00BF     		.align	2
 6314              	.L1127:
 6315 0064 00000000 		.word	.LANCHOR78
 6317              		.section	.text.DecodeExtKeyUsage,"ax",%progbits
 6318              		.align	1
 6319              		.global	DecodeExtKeyUsage
 6320              		.syntax unified
 6321              		.thumb
 6322              		.thumb_func
 6323              		.fpu fpv4-sp-d16
 6325              	DecodeExtKeyUsage:
 6326              		@ args = 12, pretend = 0, frame = 40
 6327              		@ frame_needed = 0, uses_anonymous_args = 0
 6328 0000 0023     		movs	r3, #0
 6329 0002 2DE9F047 		push	{r4, r5, r6, r7, r8, r9, r10, lr}
 6330 0006 8EB0     		sub	sp, sp, #56
 6331 0008 179C     		ldr	r4, [sp, #92]
 6332 000a 0593     		str	r3, [sp, #20]
 6333 000c 2370     		strb	r3, [r4]
 6334 000e 0123     		movs	r3, #1
ARM GAS  /tmp/cciZhAVO.s 			page 109


 6335 0010 05AF     		add	r7, sp, #20
 6336 0012 0093     		str	r3, [sp]
 6337 0014 0D46     		mov	r5, r1
 6338 0016 0B46     		mov	r3, r1
 6339 0018 06AA     		add	r2, sp, #24
 6340 001a 3946     		mov	r1, r7
 6341 001c 0646     		mov	r6, r0
 6342 001e FFF7FEFF 		bl	GetASN_Sequence
 6343 0022 0028     		cmp	r0, #0
 6344 0024 54DB     		blt	.L1145
 6345 0026 DFF8C080 		ldr	r8, .L1147+16
 6346 002a DFF8C090 		ldr	r9, .L1147+20
 6347 002e DFF8C0A0 		ldr	r10, .L1147+24
 6348              	.L1131:
 6349 0032 059B     		ldr	r3, [sp, #20]
 6350 0034 AB42     		cmp	r3, r5
 6351 0036 03D3     		bcc	.L1144
 6352 0038 0020     		movs	r0, #0
 6353              	.L1129:
 6354 003a 0EB0     		add	sp, sp, #56
 6355              		@ sp needed
 6356 003c BDE8F087 		pop	{r4, r5, r6, r7, r8, r9, r10, pc}
 6357              	.L1144:
 6358 0040 1C22     		movs	r2, #28
 6359 0042 0021     		movs	r1, #0
 6360 0044 0DEB0200 		add	r0, sp, r2
 6361 0048 FFF7FEFF 		bl	memset
 6362 004c 1523     		movs	r3, #21
 6363 004e 0122     		movs	r2, #1
 6364 0050 0B93     		str	r3, [sp, #44]
 6365 0052 CDE90175 		strd	r7, r5, [sp, #4]
 6366 0056 0023     		movs	r3, #0
 6367 0058 1F48     		ldr	r0, .L1147
 6368 005a 0096     		str	r6, [sp]
 6369 005c 07A9     		add	r1, sp, #28
 6370 005e FFF7FEFF 		bl	GetASN_Items
 6371 0062 10F1940F 		cmn	r0, #148
 6372 0066 E4D0     		beq	.L1131
 6373 0068 0028     		cmp	r0, #0
 6374 006a E6D1     		bne	.L1129
 6375 006c 0C9B     		ldr	r3, [sp, #48]
 6376 006e 4345     		cmp	r3, r8
 6377 0070 1ED0     		beq	.L1135
 6378 0072 0ED8     		bhi	.L1136
 6379 0074 194A     		ldr	r2, .L1147+4
 6380 0076 9342     		cmp	r3, r2
 6381 0078 1ED0     		beq	.L1137
 6382 007a 02F14072 		add	r2, r2, #50331648
 6383 007e 9342     		cmp	r3, r2
 6384 0080 12D0     		beq	.L1138
 6385 0082 174A     		ldr	r2, .L1147+8
 6386 0084 9342     		cmp	r3, r2
 6387 0086 D4D1     		bne	.L1131
 6388 0088 2378     		ldrb	r3, [r4]	@ zero_extendqisi2
 6389 008a 43F00103 		orr	r3, r3, #1
 6390              	.L1146:
 6391 008e 2370     		strb	r3, [r4]
ARM GAS  /tmp/cciZhAVO.s 			page 110


 6392 0090 CFE7     		b	.L1131
 6393              	.L1136:
 6394 0092 4B45     		cmp	r3, r9
 6395 0094 18D0     		beq	.L1141
 6396 0096 5345     		cmp	r3, r10
 6397 0098 12D0     		beq	.L1142
 6398 009a 124A     		ldr	r2, .L1147+12
 6399 009c 9342     		cmp	r3, r2
 6400 009e C8D1     		bne	.L1131
 6401 00a0 2378     		ldrb	r3, [r4]	@ zero_extendqisi2
 6402 00a2 43F00403 		orr	r3, r3, #4
 6403 00a6 F2E7     		b	.L1146
 6404              	.L1138:
 6405 00a8 2378     		ldrb	r3, [r4]	@ zero_extendqisi2
 6406 00aa 43F00203 		orr	r3, r3, #2
 6407 00ae EEE7     		b	.L1146
 6408              	.L1135:
 6409 00b0 2378     		ldrb	r3, [r4]	@ zero_extendqisi2
 6410 00b2 43F00803 		orr	r3, r3, #8
 6411 00b6 EAE7     		b	.L1146
 6412              	.L1137:
 6413 00b8 2378     		ldrb	r3, [r4]	@ zero_extendqisi2
 6414 00ba 43F01003 		orr	r3, r3, #16
 6415 00be E6E7     		b	.L1146
 6416              	.L1142:
 6417 00c0 2378     		ldrb	r3, [r4]	@ zero_extendqisi2
 6418 00c2 43F02003 		orr	r3, r3, #32
 6419 00c6 E2E7     		b	.L1146
 6420              	.L1141:
 6421 00c8 2378     		ldrb	r3, [r4]	@ zero_extendqisi2
 6422 00ca 43F04003 		orr	r3, r3, #64
 6423 00ce DEE7     		b	.L1146
 6424              	.L1145:
 6425 00d0 6FF08B00 		mvn	r0, #139
 6426 00d4 B1E7     		b	.L1129
 6427              	.L1148:
 6428 00d6 00BF     		.align	2
 6429              	.L1147:
 6430 00d8 00000000 		.word	.LANCHOR79
 6431 00dc 2E010201 		.word	16908590
 6432 00e0 AA1DDA00 		.word	14294442
 6433 00e4 2E010207 		.word	117571886
 6434 00e8 2E010206 		.word	100794670
 6435 00ec 2E01020C 		.word	201457966
 6436 00f0 2E01020D 		.word	218235182
 6438              		.section	.text.DecodeExtensionType,"ax",%progbits
 6439              		.align	1
 6440              		.global	DecodeExtensionType
 6441              		.syntax unified
 6442              		.thumb
 6443              		.thumb_func
 6444              		.fpu fpv4-sp-d16
 6446              	DecodeExtensionType:
 6447              		@ args = 8, pretend = 0, frame = 104
 6448              		@ frame_needed = 0, uses_anonymous_args = 0
 6449 0000 2DE9F04F 		push	{r4, r5, r6, r7, r8, r9, r10, fp, lr}
 6450 0004 9FB0     		sub	sp, sp, #124
ARM GAS  /tmp/cciZhAVO.s 			page 111


 6451 0006 0646     		mov	r6, r0
 6452 0008 0F46     		mov	r7, r1
 6453 000a DDE92841 		ldrd	r4, r1, [sp, #160]
 6454 000e BC48     		ldr	r0, .L1256
 6455 0010 0029     		cmp	r1, #0
 6456 0012 00F01583 		beq	.L1150
 6457 0016 0025     		movs	r5, #0
 6458 0018 8242     		cmp	r2, r0
 6459 001a 0D60     		str	r5, [r1]
 6460 001c 00F0E080 		beq	.L1151
 6461 0020 22D8     		bhi	.L1152
 6462 0022 A0F5A020 		sub	r0, r0, #327680
 6463 0026 8242     		cmp	r2, r0
 6464 0028 00F0B182 		beq	.L1153
 6465 002c 10D8     		bhi	.L1154
 6466 002e A0F59010 		sub	r0, r0, #1179648
 6467 0032 8242     		cmp	r2, r0
 6468 0034 00F0A082 		beq	.L1155
 6469 0038 00F58810 		add	r0, r0, #1114112
 6470 003c 8242     		cmp	r2, r0
 6471 003e 00F06882 		beq	.L1156
 6472 0042 B048     		ldr	r0, .L1256+4
 6473 0044 8242     		cmp	r2, r0
 6474 0046 00F01083 		beq	.L1157
 6475              	.L1158:
 6476 004a 0122     		movs	r2, #1
 6477 004c 0A60     		str	r2, [r1]
 6478 004e 07E0     		b	.L1160
 6479              	.L1154:
 6480 0050 AD48     		ldr	r0, .L1256+8
 6481 0052 8242     		cmp	r2, r0
 6482 0054 00F03283 		beq	.L1159
 6483 0058 00F54030 		add	r0, r0, #196608
 6484 005c 8242     		cmp	r2, r0
 6485 005e F4D1     		bne	.L1158
 6486              	.L1160:
 6487 0060 002B     		cmp	r3, #0
 6488 0062 00F0F580 		beq	.L1248
 6489 0066 19E3     		b	.L1206
 6490              	.L1152:
 6491 0068 A848     		ldr	r0, .L1256+12
 6492 006a 8242     		cmp	r2, r0
 6493 006c 00F03682 		beq	.L1161
 6494 0070 4FD8     		bhi	.L1162
 6495 0072 A0F58020 		sub	r0, r0, #262144
 6496 0076 8242     		cmp	r2, r0
 6497 0078 6BD0     		beq	.L1163
 6498 007a 00F50030 		add	r0, r0, #131072
 6499 007e 8242     		cmp	r2, r0
 6500 0080 00F05281 		beq	.L1164
 6501 0084 A0F55020 		sub	r0, r0, #851968
 6502 0088 8242     		cmp	r2, r0
 6503 008a DED1     		bne	.L1158
 6504              	.L1165:
 6505 008c 94F86093 		ldrb	r9, [r4, #864]	@ zero_extendqisi2
 6506 0090 19F0100F 		tst	r9, #16
 6507 0094 14BF     		ite	ne
ARM GAS  /tmp/cciZhAVO.s 			page 112


 6508 0096 0025     		movne	r5, #0
 6509 0098 6FF0C505 		mvneq	r5, #197
 6510 009c 19F00809 		ands	r9, r9, #8
 6511 00a0 5CD1     		bne	.L1173
 6512 00a2 003B     		subs	r3, r3, #0
 6513 00a4 18BF     		it	ne
 6514 00a6 0123     		movne	r3, #1
 6515 00a8 D4F86023 		ldr	r2, [r4, #864]
 6516 00ac 1B06     		lsls	r3, r3, #24
 6517 00ae 22F08072 		bic	r2, r2, #16777216
 6518 00b2 22F00802 		bic	r2, r2, #8
 6519 00b6 43F00803 		orr	r3, r3, #8
 6520 00ba 1343     		orrs	r3, r3, r2
 6521 00bc 5420     		movs	r0, #84
 6522 00be C4F86033 		str	r3, [r4, #864]
 6523 00c2 CDF82490 		str	r9, [sp, #36]
 6524 00c6 FFF7FEFF 		bl	wolfSSL_Malloc
 6525 00ca 8046     		mov	r8, r0
 6526 00cc 0028     		cmp	r0, #0
 6527 00ce 00F0C780 		beq	.L1218
 6528 00d2 5422     		movs	r2, #84
 6529 00d4 4946     		mov	r1, r9
 6530 00d6 FFF7FEFF 		bl	memset
 6531 00da 09AB     		add	r3, sp, #36
 6532 00dc CDE90063 		strd	r6, r3, [sp]
 6533 00e0 0322     		movs	r2, #3
 6534 00e2 0123     		movs	r3, #1
 6535 00e4 4146     		mov	r1, r8
 6536 00e6 8A48     		ldr	r0, .L1256+16
 6537 00e8 0297     		str	r7, [sp, #8]
 6538 00ea FFF7FEFF 		bl	GetASN_Items
 6539 00ee 0646     		mov	r6, r0
 6540 00f0 48B9     		cbnz	r0, .L1215
 6541 00f2 D8F82400 		ldr	r0, [r8, #36]
 6542 00f6 0028     		cmp	r0, #0
 6543 00f8 40F02C82 		bne	.L1213
 6544              	.L1216:
 6545 00fc D8F84000 		ldr	r0, [r8, #64]
 6546 0100 0028     		cmp	r0, #0
 6547 0102 40F03282 		bne	.L1214
 6548              	.L1215:
 6549 0106 4046     		mov	r0, r8
 6550 0108 FFF7FEFF 		bl	wolfSSL_Free
 6551 010c 002E     		cmp	r6, #0
 6552 010e 27DA     		bge	.L1149
 6553 0110 A6E0     		b	.L1218
 6554              	.L1162:
 6555 0112 8048     		ldr	r0, .L1256+20
 6556 0114 8242     		cmp	r2, r0
 6557 0116 00F0B481 		beq	.L1166
 6558 011a 00F58C20 		add	r0, r0, #286720
 6559 011e 00F26E30 		addw	r0, r0, #878
 6560 0122 8242     		cmp	r2, r0
 6561 0124 91D1     		bne	.L1158
 6562              	.L1167:
 6563 0126 0025     		movs	r5, #0
 6564 0128 3B46     		mov	r3, r7
ARM GAS  /tmp/cciZhAVO.s 			page 113


 6565 012a 3046     		mov	r0, r6
 6566 012c CDE90055 		strd	r5, r5, [sp]
 6567 0130 09AA     		add	r2, sp, #36
 6568 0132 08A9     		add	r1, sp, #32
 6569 0134 CDE90855 		strd	r5, r5, [sp, #32]
 6570 0138 FFF7FEFF 		bl	CheckBitString
 6571 013c A842     		cmp	r0, r5
 6572 013e C0F28F80 		blt	.L1218
 6573 0142 089B     		ldr	r3, [sp, #32]
 6574 0144 9F42     		cmp	r7, r3
 6575 0146 40F28B80 		bls	.L1218
 6576 014a F35C     		ldrb	r3, [r6, r3]	@ zero_extendqisi2
 6577 014c 84F82C33 		strb	r3, [r4, #812]
 6578 0150 06E0     		b	.L1149
 6579              	.L1163:
 6580 0152 94F86123 		ldrb	r2, [r4, #865]	@ zero_extendqisi2
 6581 0156 12F00802 		ands	r2, r2, #8
 6582 015a 05D0     		beq	.L1168
 6583              	.L1173:
 6584 015c 6FF08F05 		mvn	r5, #143
 6585              	.L1149:
 6586 0160 2846     		mov	r0, r5
 6587 0162 1FB0     		add	sp, sp, #124
 6588              		@ sp needed
 6589 0164 BDE8F08F 		pop	{r4, r5, r6, r7, r8, r9, r10, fp, pc}
 6590              	.L1168:
 6591 0168 003B     		subs	r3, r3, #0
 6592 016a 18BF     		it	ne
 6593 016c 0123     		movne	r3, #1
 6594 016e D4F86013 		ldr	r1, [r4, #864]
 6595 0172 1B05     		lsls	r3, r3, #20
 6596 0174 21F48011 		bic	r1, r1, #1048576
 6597 0178 21F40061 		bic	r1, r1, #2048
 6598 017c 43F40063 		orr	r3, r3, #2048
 6599 0180 0B43     		orrs	r3, r3, r1
 6600 0182 C4F86033 		str	r3, [r4, #864]
 6601 0186 08AB     		add	r3, sp, #32
 6602 0188 8DF81C20 		strb	r2, [sp, #28]
 6603 018c ADF82420 		strh	r2, [sp, #36]	@ movhi
 6604 0190 8DF82020 		strb	r2, [sp, #32]
 6605 0194 0093     		str	r3, [sp]
 6606 0196 3946     		mov	r1, r7
 6607 0198 3046     		mov	r0, r6
 6608 019a 09AB     		add	r3, sp, #36
 6609 019c 07AA     		add	r2, sp, #28
 6610 019e FFF7FEFF 		bl	DecodeBasicCaConstraint
 6611 01a2 051E     		subs	r5, r0, #0
 6612 01a4 53D1     		bne	.L1170
 6613 01a6 9DF81C30 		ldrb	r3, [sp, #28]	@ zero_extendqisi2
 6614 01aa 9DF82010 		ldrb	r1, [sp, #32]	@ zero_extendqisi2
 6615 01ae 1A1E     		subs	r2, r3, #0
 6616 01b0 18BF     		it	ne
 6617 01b2 0122     		movne	r2, #1
 6618 01b4 0029     		cmp	r1, #0
 6619 01b6 14BF     		ite	ne
 6620 01b8 0123     		movne	r3, #1
 6621 01ba 0023     		moveq	r3, #0
ARM GAS  /tmp/cciZhAVO.s 			page 114


 6622 01bc 4FEA4313 		lsl	r3, r3, #5
 6623 01c0 43EA0213 		orr	r3, r3, r2, lsl #4
 6624 01c4 94F86023 		ldrb	r2, [r4, #864]	@ zero_extendqisi2
 6625 01c8 22F03002 		bic	r2, r2, #48
 6626 01cc 43EA0203 		orr	r3, r3, r2
 6627 01d0 84F86033 		strb	r3, [r4, #864]
 6628 01d4 C4D0     		beq	.L1149
 6629 01d6 BDF82430 		ldrh	r3, [sp, #36]
 6630 01da A4F8FC32 		strh	r3, [r4, #764]	@ movhi
 6631 01de BFE7     		b	.L1149
 6632              	.L1151:
 6633 01e0 94F86153 		ldrb	r5, [r4, #865]	@ zero_extendqisi2
 6634 01e4 15F00205 		ands	r5, r5, #2
 6635 01e8 B8D1     		bne	.L1173
 6636 01ea 003B     		subs	r3, r3, #0
 6637 01ec 18BF     		it	ne
 6638 01ee 0123     		movne	r3, #1
 6639 01f0 D4F86023 		ldr	r2, [r4, #864]
 6640 01f4 9B04     		lsls	r3, r3, #18
 6641 01f6 22F48022 		bic	r2, r2, #262144
 6642 01fa 22F40072 		bic	r2, r2, #512
 6643 01fe 43F40073 		orr	r3, r3, #512
 6644 0202 1343     		orrs	r3, r3, r2
 6645 0204 E020     		movs	r0, #224
 6646 0206 C4F86033 		str	r3, [r4, #864]
 6647 020a 0995     		str	r5, [sp, #36]
 6648 020c FFF7FEFF 		bl	wolfSSL_Malloc
 6649 0210 8046     		mov	r8, r0
 6650 0212 F8B1     		cbz	r0, .L1225
 6651 0214 E022     		movs	r2, #224
 6652 0216 2946     		mov	r1, r5
 6653 0218 FFF7FEFF 		bl	memset
 6654              	.L1174:
 6655 021c C4E9AF67 		strd	r6, r7, [r4, #700]
 6656 0220 DDB9     		cbnz	r5, .L1175
 6657 0222 0B23     		movs	r3, #11
 6658 0224 88F88830 		strb	r3, [r8, #136]
 6659 0228 3B4B     		ldr	r3, .L1256+24
 6660 022a 0822     		movs	r2, #8
 6661 022c C8F87830 		str	r3, [r8, #120]
 6662 0230 09AB     		add	r3, sp, #36
 6663 0232 CDE90063 		strd	r6, r3, [sp]
 6664 0236 4146     		mov	r1, r8
 6665 0238 2B46     		mov	r3, r5
 6666 023a 3848     		ldr	r0, .L1256+28
 6667 023c 0297     		str	r7, [sp, #8]
 6668 023e FFF7FEFF 		bl	GetASN_Items
 6669 0242 0546     		mov	r5, r0
 6670 0244 78B1     		cbz	r0, .L1176
 6671              	.L1177:
 6672 0246 4046     		mov	r0, r8
 6673 0248 FFF7FEFF 		bl	wolfSSL_Free
 6674              	.L1207:
 6675 024c 002D     		cmp	r5, #0
 6676              	.L1170:
 6677 024e 07DB     		blt	.L1218
 6678              	.L1248:
ARM GAS  /tmp/cciZhAVO.s 			page 115


 6679 0250 0025     		movs	r5, #0
 6680 0252 85E7     		b	.L1149
 6681              	.L1225:
 6682 0254 6FF07C05 		mvn	r5, #124
 6683 0258 E0E7     		b	.L1174
 6684              	.L1175:
 6685 025a B8F1000F 		cmp	r8, #0
 6686 025e F2D1     		bne	.L1177
 6687              	.L1218:
 6688 0260 6FF08B05 		mvn	r5, #139
 6689 0264 7CE7     		b	.L1149
 6690              	.L1176:
 6691 0266 98F88930 		ldrb	r3, [r8, #137]	@ zero_extendqisi2
 6692 026a 862B     		cmp	r3, #134
 6693 026c 01BF     		itttt	eq
 6694 026e D8F87830 		ldreq	r3, [r8, #120]
 6695 0272 C4F8C432 		streq	r3, [r4, #708]
 6696 0276 D8F87C30 		ldreq	r3, [r8, #124]
 6697 027a C4F8C832 		streq	r3, [r4, #712]
 6698 027e E2E7     		b	.L1177
 6699              	.L1180:
 6700 0280 CDE90733 		strd	r3, r3, [sp, #28]
 6701 0284 0123     		movs	r3, #1
 6702 0286 07AD     		add	r5, sp, #28
 6703 0288 0093     		str	r3, [sp]
 6704 028a 2946     		mov	r1, r5
 6705 028c 3B46     		mov	r3, r7
 6706 028e 3046     		mov	r0, r6
 6707 0290 08AA     		add	r2, sp, #32
 6708 0292 FFF7FEFF 		bl	GetASN_Sequence
 6709 0296 0028     		cmp	r0, #0
 6710 0298 E2DB     		blt	.L1218
 6711 029a DFF87C80 		ldr	r8, .L1256+24
 6712 029e DFF88090 		ldr	r9, .L1256+32
 6713 02a2 DFF880A0 		ldr	r10, .L1256+36
 6714              	.L1181:
 6715 02a6 079B     		ldr	r3, [sp, #28]
 6716 02a8 9F42     		cmp	r7, r3
 6717 02aa D1D9     		bls	.L1248
 6718 02ac 5422     		movs	r2, #84
 6719 02ae 0021     		movs	r1, #0
 6720 02b0 09A8     		add	r0, sp, #36
 6721 02b2 FFF7FEFF 		bl	memset
 6722 02b6 0723     		movs	r3, #7
 6723 02b8 1493     		str	r3, [sp, #80]
 6724 02ba 0B23     		movs	r3, #11
 6725 02bc 0322     		movs	r2, #3
 6726 02be 8DF87430 		strb	r3, [sp, #116]
 6727 02c2 4846     		mov	r0, r9
 6728 02c4 0023     		movs	r3, #0
 6729 02c6 CDE90157 		strd	r5, r7, [sp, #4]
 6730 02ca 0096     		str	r6, [sp]
 6731 02cc 09A9     		add	r1, sp, #36
 6732 02ce CDF86480 		str	r8, [sp, #100]
 6733 02d2 FFF7FEFF 		bl	GetASN_Items
 6734 02d6 0028     		cmp	r0, #0
 6735 02d8 B9D1     		bne	.L1170
ARM GAS  /tmp/cciZhAVO.s 			page 116


 6736 02da 159B     		ldr	r3, [sp, #84]
 6737 02dc 5345     		cmp	r3, r10
 6738 02de E2D1     		bne	.L1181
 6739 02e0 9DF87530 		ldrb	r3, [sp, #117]	@ zero_extendqisi2
 6740 02e4 862B     		cmp	r3, #134
 6741 02e6 DED1     		bne	.L1181
 6742 02e8 D4F8B432 		ldr	r3, [r4, #692]
 6743 02ec 002B     		cmp	r3, #0
 6744 02ee DAD1     		bne	.L1181
 6745 02f0 199B     		ldr	r3, [sp, #100]
 6746 02f2 C4F8B432 		str	r3, [r4, #692]
 6747 02f6 1A9B     		ldr	r3, [sp, #104]
 6748 02f8 C4F8B832 		str	r3, [r4, #696]
 6749 02fc D3E7     		b	.L1181
 6750              	.L1257:
 6751 02fe 00BF     		.align	2
 6752              	.L1256:
 6753 0300 AA1DE07F 		.word	2145394090
 6754 0304 2E010004 		.word	67109166
 6755 0308 AA1DDC7F 		.word	2145131946
 6756 030c AA1DF07F 		.word	2146442666
 6757 0310 00000000 		.word	.LANCHOR83
 6758 0314 AA1DF17F 		.word	2146508202
 6759 0318 00000000 		.word	.LANCHOR65
 6760 031c 00000000 		.word	.LANCHOR80
 6761 0320 00000000 		.word	.LANCHOR81
 6762 0324 2E013104 		.word	70320430
 6763              	.L1164:
 6764 0328 94F96123 		ldrsb	r2, [r4, #865]
 6765 032c 002A     		cmp	r2, #0
 6766 032e FFF615AF 		blt	.L1173
 6767 0332 003B     		subs	r3, r3, #0
 6768 0334 18BF     		it	ne
 6769 0336 0123     		movne	r3, #1
 6770 0338 D4F86023 		ldr	r2, [r4, #864]
 6771 033c 9B05     		lsls	r3, r3, #22
 6772 033e 22F48102 		bic	r2, r2, #4227072
 6773 0342 43F40043 		orr	r3, r3, #32768
 6774 0346 1343     		orrs	r3, r3, r2
 6775 0348 C4F86033 		str	r3, [r4, #864]
 6776 034c 0023     		movs	r3, #0
 6777 034e CDE90533 		strd	r3, r3, [sp, #20]
 6778 0352 0123     		movs	r3, #1
 6779 0354 0DF1140A 		add	r10, sp, #20
 6780 0358 0093     		str	r3, [sp]
 6781 035a 5146     		mov	r1, r10
 6782 035c 3B46     		mov	r3, r7
 6783 035e 3046     		mov	r0, r6
 6784 0360 06AA     		add	r2, sp, #24
 6785 0362 FFF7FEFF 		bl	GetASN_Sequence
 6786 0366 0546     		mov	r5, r0
 6787 0368 0028     		cmp	r0, #0
 6788 036a 7FF479AF 		bne	.L1218
 6789 036e 069B     		ldr	r3, [sp, #24]
 6790 0370 002B     		cmp	r3, #0
 6791 0372 3FF475AF 		beq	.L1218
 6792 0376 94F86023 		ldrb	r2, [r4, #864]	@ zero_extendqisi2
ARM GAS  /tmp/cciZhAVO.s 			page 117


 6793 037a 42F04002 		orr	r2, r2, #64
 6794 037e 84F86023 		strb	r2, [r4, #864]
 6795 0382 059A     		ldr	r2, [sp, #20]
 6796 0384 1344     		add	r3, r3, r2
 6797 0386 9F42     		cmp	r7, r3
 6798 0388 7FF46AAF 		bne	.L1218
 6799 038c 40F20149 		movw	r9, #1025
 6800              	.L1189:
 6801 0390 059B     		ldr	r3, [sp, #20]
 6802 0392 9F42     		cmp	r7, r3
 6803 0394 7FF6E4AE 		bls	.L1149
 6804 0398 B9F10109 		subs	r9, r9, #1
 6805 039c 02D1     		bne	.L1190
 6806              	.L1204:
 6807 039e 6FF0A005 		mvn	r5, #160
 6808 03a2 DDE6     		b	.L1149
 6809              	.L1190:
 6810 03a4 1C22     		movs	r2, #28
 6811 03a6 0021     		movs	r1, #0
 6812 03a8 09A8     		add	r0, sp, #36
 6813 03aa FFF7FEFF 		bl	memset
 6814 03ae 0B23     		movs	r3, #11
 6815 03b0 8DF83C30 		strb	r3, [sp, #60]
 6816 03b4 BB4B     		ldr	r3, .L1258
 6817 03b6 0122     		movs	r2, #1
 6818 03b8 0B93     		str	r3, [sp, #44]
 6819 03ba CDE901A7 		strd	r10, r7, [sp, #4]
 6820 03be 0023     		movs	r3, #0
 6821 03c0 B948     		ldr	r0, .L1258+4
 6822 03c2 0096     		str	r6, [sp]
 6823 03c4 09A9     		add	r1, sp, #36
 6824 03c6 FFF7FEFF 		bl	GetASN_Items
 6825 03ca A0BB     		cbnz	r0, .L1191
 6826 03cc 9DF83D30 		ldrb	r3, [sp, #61]	@ zero_extendqisi2
 6827 03d0 DDF828B0 		ldr	fp, [sp, #40]
 6828 03d4 822B     		cmp	r3, #130
 6829 03d6 DDF81480 		ldr	r8, [sp, #20]
 6830 03da 0FD1     		bne	.L1192
 6831 03dc 04F12403 		add	r3, r4, #36
 6832 03e0 0093     		str	r3, [sp]
 6833 03e2 0223     		movs	r3, #2
 6834              	.L1254:
 6835 03e4 5A46     		mov	r2, fp
 6836 03e6 D4F88002 		ldr	r0, [r4, #640]
 6837 03ea 06EB0801 		add	r1, r6, r8
 6838 03ee FFF7FEFF 		bl	SetDNSEntry
 6839 03f2 00BB     		cbnz	r0, .L1191
 6840              	.L1249:
 6841 03f4 D844     		add	r8, r8, fp
 6842              	.L1193:
 6843 03f6 CDF81480 		str	r8, [sp, #20]
 6844 03fa C9E7     		b	.L1189
 6845              	.L1192:
 6846 03fc A42B     		cmp	r3, #164
 6847 03fe 1CD1     		bne	.L1194
 6848 0400 0123     		movs	r3, #1
 6849 0402 CDF82080 		str	r8, [sp, #32]
ARM GAS  /tmp/cciZhAVO.s 			page 118


 6850 0406 D844     		add	r8, r8, fp
 6851 0408 0093     		str	r3, [sp]
 6852 040a 3046     		mov	r0, r6
 6853 040c 4346     		mov	r3, r8
 6854 040e 07AA     		add	r2, sp, #28
 6855 0410 08A9     		add	r1, sp, #32
 6856 0412 FFF7FEFF 		bl	GetASN_Sequence
 6857 0416 0028     		cmp	r0, #0
 6858 0418 FFF622AF 		blt	.L1218
 6859 041c DDE90721 		ldrd	r2, r1, [sp, #28]
 6860 0420 04F12C03 		add	r3, r4, #44
 6861 0424 0093     		str	r3, [sp]
 6862 0426 D4F88002 		ldr	r0, [r4, #640]
 6863 042a 0423     		movs	r3, #4
 6864 042c 3144     		add	r1, r1, r6
 6865 042e FFF7FEFF 		bl	SetDNSEntry
 6866 0432 0028     		cmp	r0, #0
 6867 0434 DFD0     		beq	.L1193
 6868              	.L1191:
 6869 0436 0546     		mov	r5, r0
 6870 0438 92E6     		b	.L1149
 6871              	.L1194:
 6872 043a 812B     		cmp	r3, #129
 6873 043c 04D1     		bne	.L1198
 6874 043e 04F12803 		add	r3, r4, #40
 6875 0442 0093     		str	r3, [sp]
 6876 0444 0123     		movs	r3, #1
 6877 0446 CDE7     		b	.L1254
 6878              	.L1198:
 6879 0448 862B     		cmp	r3, #134
 6880 044a D3D1     		bne	.L1249
 6881              	.L1199:
 6882 044c 8345     		cmp	fp, r0
 6883 044e 0DDC     		bgt	.L1203
 6884 0450 0028     		cmp	r0, #0
 6885 0452 A4D0     		beq	.L1204
 6886 0454 8345     		cmp	fp, r0
 6887 0456 A2D0     		beq	.L1204
 6888 0458 3044     		add	r0, r0, r6
 6889 045a 10F80830 		ldrb	r3, [r0, r8]	@ zero_extendqisi2
 6890 045e 3A2B     		cmp	r3, #58
 6891 0460 9DD1     		bne	.L1204
 6892              	.L1221:
 6893 0462 04F12403 		add	r3, r4, #36
 6894 0466 0093     		str	r3, [sp]
 6895 0468 0623     		movs	r3, #6
 6896 046a BBE7     		b	.L1254
 6897              	.L1203:
 6898 046c 3318     		adds	r3, r6, r0
 6899 046e 13F80830 		ldrb	r3, [r3, r8]	@ zero_extendqisi2
 6900 0472 3A2B     		cmp	r3, #58
 6901 0474 00F0E080 		beq	.L1201
 6902 0478 2F2B     		cmp	r3, #47
 6903 047a 08BF     		it	eq
 6904 047c 5846     		moveq	r0, fp
 6905 047e 0130     		adds	r0, r0, #1
 6906 0480 E4E7     		b	.L1199
ARM GAS  /tmp/cciZhAVO.s 			page 119


 6907              	.L1166:
 6908 0482 94F86023 		ldrb	r2, [r4, #864]	@ zero_extendqisi2
 6909 0486 9107     		lsls	r1, r2, #30
 6910 0488 3FF568AE 		bmi	.L1173
 6911 048c 002B     		cmp	r3, #0
 6912 048e 14BF     		ite	ne
 6913 0490 0122     		movne	r2, #1
 6914 0492 0022     		moveq	r2, #0
 6915 0494 D4F86013 		ldr	r1, [r4, #864]
 6916 0498 4FEA4262 		lsl	r2, r2, #25
 6917 049c 21F00071 		bic	r1, r1, #33554432
 6918 04a0 42F00202 		orr	r2, r2, #2
 6919 04a4 21F00201 		bic	r1, r1, #2
 6920 04a8 42EA0102 		orr	r2, r2, r1
 6921 04ac C4F86023 		str	r2, [r4, #864]
 6922 04b0 40F0F480 		bne	.L1206
 6923 04b4 CDE90833 		strd	r3, r3, [sp, #32]
 6924 04b8 3946     		mov	r1, r7
 6925 04ba 3046     		mov	r0, r6
 6926 04bc 09AB     		add	r3, sp, #36
 6927 04be 08AA     		add	r2, sp, #32
 6928 04c0 FFF7FEFF 		bl	DecodeSubjKeyId
 6929 04c4 40B9     		cbnz	r0, .L1252
 6930 04c6 0999     		ldr	r1, [sp, #36]
 6931 04c8 0423     		movs	r3, #4
 6932 04ca 0898     		ldr	r0, [sp, #32]
 6933 04cc C4F8E012 		str	r1, [r4, #736]
 6934 04d0 04F53372 		add	r2, r4, #716
 6935 04d4 FFF7FEFF 		bl	GetHashId
 6936              	.L1252:
 6937 04d8 0028     		cmp	r0, #0
 6938 04da B8E6     		b	.L1170
 6939              	.L1161:
 6940 04dc 94F96023 		ldrsb	r2, [r4, #864]
 6941 04e0 002A     		cmp	r2, #0
 6942 04e2 FFF63BAE 		blt	.L1173
 6943 04e6 003B     		subs	r3, r3, #0
 6944 04e8 18BF     		it	ne
 6945 04ea 0123     		movne	r3, #1
 6946 04ec D4F86023 		ldr	r2, [r4, #864]
 6947 04f0 9B06     		lsls	r3, r3, #26
 6948 04f2 22F08062 		bic	r2, r2, #67108864
 6949 04f6 22F08002 		bic	r2, r2, #128
 6950 04fa 43F08003 		orr	r3, r3, #128
 6951 04fe 1343     		orrs	r3, r3, r2
 6952 0500 3946     		mov	r1, r7
 6953 0502 3046     		mov	r0, r6
 6954 0504 C4F86033 		str	r3, [r4, #864]
 6955 0508 04F20232 		addw	r2, r4, #770
 6956 050c FFF7FEFF 		bl	DecodeKeyUsage
 6957 0510 E2E7     		b	.L1252
 6958              	.L1156:
 6959 0512 94F86113 		ldrb	r1, [r4, #865]	@ zero_extendqisi2
 6960 0516 11F00101 		ands	r1, r1, #1
 6961 051a 7FF41FAE 		bne	.L1173
 6962 051e 1A1E     		subs	r2, r3, #0
 6963 0520 18BF     		it	ne
ARM GAS  /tmp/cciZhAVO.s 			page 120


 6964 0522 0122     		movne	r2, #1
 6965 0524 D4F86033 		ldr	r3, [r4, #864]
 6966 0528 D206     		lsls	r2, r2, #27
 6967 052a 23F00063 		bic	r3, r3, #134217728
 6968 052e 23F48073 		bic	r3, r3, #256
 6969 0532 42F48072 		orr	r2, r2, #256
 6970 0536 1A43     		orrs	r2, r2, r3
 6971 0538 C4F86023 		str	r2, [r4, #864]
 6972 053c 04F54174 		add	r4, r4, #772
 6973 0540 0B46     		mov	r3, r1
 6974 0542 0A46     		mov	r2, r1
 6975 0544 CDE90014 		strd	r1, r4, [sp]
 6976 0548 0291     		str	r1, [sp, #8]
 6977 054a 3046     		mov	r0, r6
 6978 054c 3946     		mov	r1, r7
 6979 054e FFF7FEFF 		bl	DecodeExtKeyUsage
 6980 0552 C1E7     		b	.L1252
 6981              	.L1213:
 6982 0554 D8F82810 		ldr	r1, [r8, #40]
 6983 0558 04F13002 		add	r2, r4, #48
 6984 055c FFF7FEFF 		bl	DecodeSubtree.constprop.0.isra.0
 6985 0560 0028     		cmp	r0, #0
 6986 0562 3FF4CBAD 		beq	.L1216
 6987              	.L1250:
 6988 0566 0646     		mov	r6, r0
 6989 0568 CDE5     		b	.L1215
 6990              	.L1214:
 6991 056a D8F84410 		ldr	r1, [r8, #68]
 6992 056e 04F13402 		add	r2, r4, #52
 6993 0572 FFF7FEFF 		bl	DecodeSubtree.constprop.0.isra.0
 6994 0576 F6E7     		b	.L1250
 6995              	.L1155:
 6996 0578 94F86233 		ldrb	r3, [r4, #866]	@ zero_extendqisi2
 6997 057c 13F00100 		ands	r0, r3, #1
 6998 0580 7FF4ECAD 		bne	.L1173
 6999 0584 43F00103 		orr	r3, r3, #1
 7000 0588 84F86233 		strb	r3, [r4, #866]
 7001 058c 60E6     		b	.L1248
 7002              	.L1153:
 7003 058e 94F86123 		ldrb	r2, [r4, #865]	@ zero_extendqisi2
 7004 0592 12F01002 		ands	r2, r2, #16
 7005 0596 7FF4E1AD 		bne	.L1173
 7006 059a 003B     		subs	r3, r3, #0
 7007 059c 18BF     		it	ne
 7008 059e 0123     		movne	r3, #1
 7009 05a0 D4F86013 		ldr	r1, [r4, #864]
 7010 05a4 5B05     		lsls	r3, r3, #21
 7011 05a6 21F40011 		bic	r1, r1, #2097152
 7012 05aa 21F48051 		bic	r1, r1, #4096
 7013 05ae 43F48053 		orr	r3, r3, #4096
 7014 05b2 0B43     		orrs	r3, r3, r1
 7015 05b4 CDE90722 		strd	r2, r2, [sp, #28]
 7016 05b8 C4F86033 		str	r3, [r4, #864]
 7017 05bc 0992     		str	r2, [sp, #36]
 7018 05be 3B46     		mov	r3, r7
 7019 05c0 3046     		mov	r0, r6
 7020 05c2 08AA     		add	r2, sp, #32
ARM GAS  /tmp/cciZhAVO.s 			page 121


 7021 05c4 07A9     		add	r1, sp, #28
 7022 05c6 FFF7FEFF 		bl	GetSequence
 7023 05ca 0028     		cmp	r0, #0
 7024 05cc FFF648AE 		blt	.L1218
 7025 05d0 089B     		ldr	r3, [sp, #32]
 7026 05d2 002B     		cmp	r3, #0
 7027 05d4 3FF444AE 		beq	.L1218
 7028 05d8 3B46     		mov	r3, r7
 7029 05da 3046     		mov	r0, r6
 7030 05dc 06AA     		add	r2, sp, #24
 7031 05de 07A9     		add	r1, sp, #28
 7032 05e0 FFF7FEFF 		bl	GetASNTag
 7033 05e4 0028     		cmp	r0, #0
 7034 05e6 FFF63BAE 		blt	.L1218
 7035 05ea 9DF81830 		ldrb	r3, [sp, #24]	@ zero_extendqisi2
 7036 05ee 802B     		cmp	r3, #128
 7037 05f0 1AD1     		bne	.L1219
 7038 05f2 94F86133 		ldrb	r3, [r4, #865]	@ zero_extendqisi2
 7039 05f6 43F02003 		orr	r3, r3, #32
 7040              	.L1251:
 7041 05fa 84F86133 		strb	r3, [r4, #865]
 7042 05fe 3046     		mov	r0, r6
 7043 0600 3B46     		mov	r3, r7
 7044 0602 09AA     		add	r2, sp, #36
 7045 0604 07A9     		add	r1, sp, #28
 7046 0606 FFF7FEFF 		bl	GetLength
 7047 060a 0028     		cmp	r0, #0
 7048 060c FFF628AE 		blt	.L1218
 7049 0610 099B     		ldr	r3, [sp, #36]
 7050 0612 012B     		cmp	r3, #1
 7051 0614 3FF724AE 		bgt	.L1218
 7052 0618 079B     		ldr	r3, [sp, #28]
 7053 061a 9F42     		cmp	r7, r3
 7054 061c 7FF620AE 		bls	.L1218
 7055 0620 F35C     		ldrb	r3, [r6, r3]	@ zero_extendqisi2
 7056 0622 84F80033 		strb	r3, [r4, #768]
 7057 0626 13E6     		b	.L1248
 7058              	.L1219:
 7059 0628 812B     		cmp	r3, #129
 7060 062a 7FF419AE 		bne	.L1218
 7061 062e 94F86133 		ldrb	r3, [r4, #865]	@ zero_extendqisi2
 7062 0632 43F04003 		orr	r3, r3, #64
 7063 0636 E0E7     		b	.L1251
 7064              	.L1201:
 7065 0638 0028     		cmp	r0, #0
 7066 063a 7FF412AF 		bne	.L1221
 7067 063e AEE6     		b	.L1204
 7068              	.L1150:
 7069 0640 8242     		cmp	r2, r0
 7070 0642 3FF4CDAD 		beq	.L1151
 7071 0646 75D8     		bhi	.L1222
 7072 0648 1849     		ldr	r1, .L1258+8
 7073 064a 8A42     		cmp	r2, r1
 7074 064c 9FD0     		beq	.L1153
 7075 064e 31D8     		bhi	.L1223
 7076 0650 A1F59011 		sub	r1, r1, #1179648
 7077 0654 8A42     		cmp	r2, r1
ARM GAS  /tmp/cciZhAVO.s 			page 122


 7078 0656 8FD0     		beq	.L1155
 7079 0658 01F58811 		add	r1, r1, #1114112
 7080 065c 8A42     		cmp	r2, r1
 7081 065e 3FF458AF 		beq	.L1156
 7082 0662 1349     		ldr	r1, .L1258+12
 7083 0664 8A42     		cmp	r2, r1
 7084 0666 7FF4FBAC 		bne	.L1160
 7085              	.L1157:
 7086 066a 94F86123 		ldrb	r2, [r4, #865]	@ zero_extendqisi2
 7087 066e 5507     		lsls	r5, r2, #29
 7088 0670 3FF574AD 		bmi	.L1173
 7089 0674 002B     		cmp	r3, #0
 7090 0676 14BF     		ite	ne
 7091 0678 0122     		movne	r2, #1
 7092 067a 0022     		moveq	r2, #0
 7093 067c D4F86013 		ldr	r1, [r4, #864]
 7094 0680 4FEAC242 		lsl	r2, r2, #19
 7095 0684 21F40021 		bic	r1, r1, #524288
 7096 0688 42F48062 		orr	r2, r2, #1024
 7097 068c 21F48061 		bic	r1, r1, #1024
 7098 0690 42EA0102 		orr	r2, r2, r1
 7099 0694 C4F86023 		str	r2, [r4, #864]
 7100 0698 3FF4F2AD 		beq	.L1180
 7101              	.L1206:
 7102 069c 6FF09F05 		mvn	r5, #159
 7103 06a0 5EE5     		b	.L1149
 7104              	.L1259:
 7105 06a2 00BF     		.align	2
 7106              	.L1258:
 7107 06a4 00000000 		.word	.LANCHOR65
 7108 06a8 00000000 		.word	.LANCHOR82
 7109 06ac AA1DDB7F 		.word	2145066410
 7110 06b0 2E010004 		.word	67109166
 7111              	.L1223:
 7112 06b4 3049     		ldr	r1, .L1260
 7113 06b6 8A42     		cmp	r2, r1
 7114 06b8 7FF4D2AC 		bne	.L1160
 7115              	.L1159:
 7116 06bc 94F86023 		ldrb	r2, [r4, #864]	@ zero_extendqisi2
 7117 06c0 5007     		lsls	r0, r2, #29
 7118 06c2 3FF54BAD 		bmi	.L1173
 7119 06c6 002B     		cmp	r3, #0
 7120 06c8 14BF     		ite	ne
 7121 06ca 0122     		movne	r2, #1
 7122 06cc 0022     		moveq	r2, #0
 7123 06ce D4F86013 		ldr	r1, [r4, #864]
 7124 06d2 4FEAC252 		lsl	r2, r2, #23
 7125 06d6 21F40001 		bic	r1, r1, #8388608
 7126 06da 42F00402 		orr	r2, r2, #4
 7127 06de 21F00401 		bic	r1, r1, #4
 7128 06e2 42EA0102 		orr	r2, r2, r1
 7129 06e6 C4F86023 		str	r2, [r4, #864]
 7130 06ea D7D1     		bne	.L1206
 7131 06ec CDE90433 		strd	r3, r3, [sp, #16]
 7132 06f0 CDE90633 		strd	r3, r3, [sp, #24]
 7133 06f4 CDE90833 		strd	r3, r3, [sp, #32]
 7134 06f8 09AB     		add	r3, sp, #36
ARM GAS  /tmp/cciZhAVO.s 			page 123


 7135 06fa 0393     		str	r3, [sp, #12]
 7136 06fc 08AB     		add	r3, sp, #32
 7137 06fe 0293     		str	r3, [sp, #8]
 7138 0700 07AB     		add	r3, sp, #28
 7139 0702 0193     		str	r3, [sp, #4]
 7140 0704 06AB     		add	r3, sp, #24
 7141 0706 0093     		str	r3, [sp]
 7142 0708 3946     		mov	r1, r7
 7143 070a 3046     		mov	r0, r6
 7144 070c 05AB     		add	r3, sp, #20
 7145 070e 04AA     		add	r2, sp, #16
 7146 0710 FFF7FEFF 		bl	DecodeAuthKeyId
 7147 0714 0546     		mov	r5, r0
 7148 0716 0028     		cmp	r0, #0
 7149 0718 7FF498AD 		bne	.L1207
 7150 071c 0599     		ldr	r1, [sp, #20]
 7151 071e 0029     		cmp	r1, #0
 7152 0720 3FF41EAD 		beq	.L1149
 7153 0724 0423     		movs	r3, #4
 7154 0726 0498     		ldr	r0, [sp, #16]
 7155 0728 04F53972 		add	r2, r4, #740
 7156 072c FFF7FEFF 		bl	GetHashId
 7157 0730 0546     		mov	r5, r0
 7158 0732 8BE5     		b	.L1207
 7159              	.L1222:
 7160 0734 1149     		ldr	r1, .L1260+4
 7161 0736 8A42     		cmp	r2, r1
 7162 0738 3FF4D0AE 		beq	.L1161
 7163 073c 0FD8     		bhi	.L1224
 7164 073e A1F58021 		sub	r1, r1, #262144
 7165 0742 8A42     		cmp	r2, r1
 7166 0744 3FF405AD 		beq	.L1163
 7167 0748 01F50031 		add	r1, r1, #131072
 7168 074c 8A42     		cmp	r2, r1
 7169 074e 3FF4EBAD 		beq	.L1164
 7170 0752 A1F55021 		sub	r1, r1, #851968
 7171 0756 8A42     		cmp	r2, r1
 7172 0758 3FF498AC 		beq	.L1165
 7173 075c 80E4     		b	.L1160
 7174              	.L1224:
 7175 075e 0849     		ldr	r1, .L1260+8
 7176 0760 8A42     		cmp	r2, r1
 7177 0762 3FF48EAE 		beq	.L1166
 7178 0766 01F58C21 		add	r1, r1, #286720
 7179 076a 01F26E31 		addw	r1, r1, #878
 7180 076e 8A42     		cmp	r2, r1
 7181 0770 3FF4D9AC 		beq	.L1167
 7182 0774 74E4     		b	.L1160
 7183              	.L1261:
 7184 0776 00BF     		.align	2
 7185              	.L1260:
 7186 0778 AA1DDC7F 		.word	2145131946
 7187 077c AA1DF07F 		.word	2146442666
 7188 0780 AA1DF17F 		.word	2146508202
 7190              		.section	.text.DecodeCertInternal,"ax",%progbits
 7191              		.align	1
 7192              		.syntax unified
ARM GAS  /tmp/cciZhAVO.s 			page 124


 7193              		.thumb
 7194              		.thumb_func
 7195              		.fpu fpv4-sp-d16
 7197              	DecodeCertInternal:
 7198              		@ args = 8, pretend = 0, frame = 96
 7199              		@ frame_needed = 0, uses_anonymous_args = 0
 7200 0000 2DE9F04F 		push	{r4, r5, r6, r7, r8, r9, r10, fp, lr}
 7201 0004 0027     		movs	r7, #0
 7202 0006 9DB0     		sub	sp, sp, #116
 7203 0008 0446     		mov	r4, r0
 7204 000a 4FF44B70 		mov	r0, #812
 7205 000e 0E46     		mov	r6, r1
 7206 0010 CDE90423 		strd	r2, r3, [sp, #16]
 7207 0014 8DF82670 		strb	r7, [sp, #38]
 7208 0018 0B97     		str	r7, [sp, #44]
 7209 001a FFF7FEFF 		bl	wolfSSL_Malloc
 7210 001e 8046     		mov	r8, r0
 7211 0020 0028     		cmp	r0, #0
 7212 0022 00F00582 		beq	.L1305
 7213 0026 4FF44B72 		mov	r2, #812
 7214 002a 3946     		mov	r1, r7
 7215 002c FFF7FEFF 		bl	memset
 7216 0030 0DF12602 		add	r2, sp, #38
 7217 0034 C8F85C20 		str	r2, [r8, #92]
 7218 0038 0522     		movs	r2, #5
 7219 003a 88F88820 		strb	r2, [r8, #136]
 7220 003e 04F52172 		add	r2, r4, #644
 7221 0042 C8F87820 		str	r2, [r8, #120]
 7222 0046 2023     		movs	r3, #32
 7223 0048 0BAA     		add	r2, sp, #44
 7224 004a C8F87C20 		str	r2, [r8, #124]
 7225 004e 0222     		movs	r2, #2
 7226 0050 0B93     		str	r3, [sp, #44]
 7227 0052 0123     		movs	r3, #1
 7228 0054 C8F8EC21 		str	r2, [r8, #492]
 7229 0058 0322     		movs	r2, #3
 7230 005a 88F86C30 		strb	r3, [r8, #108]
 7231 005e C8F82422 		str	r2, [r8, #548]
 7232 0062 D4F87C22 		ldr	r2, [r4, #636]
 7233 0066 C8F8B830 		str	r3, [r8, #184]
 7234 006a C8F8E832 		str	r3, [r8, #744]
 7235 006e 0292     		str	r2, [sp, #8]
 7236 0070 04F51E72 		add	r2, r4, #632
 7237 0074 0192     		str	r2, [sp, #4]
 7238 0076 D4F87422 		ldr	r2, [r4, #628]
 7239 007a 4146     		mov	r1, r8
 7240 007c 0092     		str	r2, [sp]
 7241 007e 7B48     		ldr	r0, .L1358
 7242 0080 1D22     		movs	r2, #29
 7243 0082 8DF82670 		strb	r7, [sp, #38]
 7244 0086 FFF7FEFF 		bl	GetASN_Items
 7245 008a 8346     		mov	fp, r0
 7246 008c 0028     		cmp	r0, #0
 7247 008e 40F02382 		bne	.L1306
 7248 0092 9DF826E0 		ldrb	lr, [sp, #38]	@ zero_extendqisi2
 7249 0096 BEF1030F 		cmp	lr, #3
 7250 009a 00F22782 		bhi	.L1307
ARM GAS  /tmp/cciZhAVO.s 			page 125


 7251 009e 0B9B     		ldr	r3, [sp, #44]
 7252 00a0 D8F8A4A1 		ldr	r10, [r8, #420]
 7253 00a4 012B     		cmp	r3, #1
 7254 00a6 C4F820E0 		str	lr, [r4, #32]
 7255 00aa C4F8A432 		str	r3, [r4, #676]
 7256 00ae 79D1     		bne	.L1265
 7257 00b0 94F88432 		ldrb	r3, [r4, #644]	@ zero_extendqisi2
 7258 00b4 BB42     		cmp	r3, r7
 7259 00b6 18BF     		it	ne
 7260 00b8 3D46     		movne	r5, r7
 7261              	.L1354:
 7262 00ba D8F8F031 		ldr	r3, [r8, #496]
 7263 00be D8F8BC00 		ldr	r0, [r8, #188]
 7264 00c2 E361     		str	r3, [r4, #28]
 7265 00c4 D8F81C30 		ldr	r3, [r8, #28]
 7266 00c8 A061     		str	r0, [r4, #24]
 7267 00ca E360     		str	r3, [r4, #12]
 7268 00cc 98F83131 		ldrb	r3, [r8, #305]	@ zero_extendqisi2
 7269 00d0 08BF     		it	eq
 7270 00d2 6FF08B05 		mvneq	r5, #139
 7271 00d6 002B     		cmp	r3, #0
 7272 00d8 14BF     		ite	ne
 7273 00da 0A27     		movne	r7, #10
 7274 00dc 0B27     		moveq	r7, #11
 7275 00de 1C23     		movs	r3, #28
 7276 00e0 5F43     		muls	r7, r3, r7
 7277 00e2 08EB0701 		add	r1, r8, r7
 7278 00e6 4B7E     		ldrb	r3, [r1, #25]	@ zero_extendqisi2
 7279 00e8 4A68     		ldr	r2, [r1, #4]
 7280 00ea 173B     		subs	r3, r3, #23
 7281 00ec 012B     		cmp	r3, #1
 7282 00ee 03D8     		bhi	.L1268
 7283 00f0 A2F10C03 		sub	r3, r2, #12
 7284 00f4 142B     		cmp	r3, #20
 7285 00f6 05D9     		bls	.L1269
 7286              	.L1268:
 7287 00f8 002E     		cmp	r6, #0
 7288 00fa 57D0     		beq	.L1311
 7289 00fc 052E     		cmp	r6, #5
 7290 00fe 18BF     		it	ne
 7291 0100 6FF0950B 		mvnne	fp, #149
 7292              	.L1269:
 7293 0104 58F80770 		ldr	r7, [r8, r7]
 7294 0108 D4F87432 		ldr	r3, [r4, #628]
 7295 010c 8968     		ldr	r1, [r1, #8]
 7296 010e D21B     		subs	r2, r2, r7
 7297 0110 C91A     		subs	r1, r1, r3
 7298 0112 0A44     		add	r2, r2, r1
 7299 0114 03EB070C 		add	ip, r3, r7
 7300 0118 C4F80CC3 		str	ip, [r4, #780]
 7301 011c C4F81023 		str	r2, [r4, #784]
 7302 0120 98F86921 		ldrb	r2, [r8, #361]	@ zero_extendqisi2
 7303 0124 002A     		cmp	r2, #0
 7304 0126 14BF     		ite	ne
 7305 0128 0C21     		movne	r1, #12
 7306 012a 0D21     		moveq	r1, #13
 7307 012c 1C22     		movs	r2, #28
ARM GAS  /tmp/cciZhAVO.s 			page 126


 7308 012e 5143     		muls	r1, r2, r1
 7309 0130 08EB0107 		add	r7, r8, r1
 7310 0134 97F819C0 		ldrb	ip, [r7, #25]	@ zero_extendqisi2
 7311 0138 7A68     		ldr	r2, [r7, #4]
 7312 013a ACF1170C 		sub	ip, ip, #23
 7313 013e BCF1010F 		cmp	ip, #1
 7314 0142 04D8     		bhi	.L1271
 7315 0144 A2F10C0C 		sub	ip, r2, #12
 7316 0148 BCF1140F 		cmp	ip, #20
 7317 014c 04D9     		bls	.L1272
 7318              	.L1271:
 7319 014e 1EB1     		cbz	r6, .L1272
 7320 0150 052E     		cmp	r6, #5
 7321 0152 18BF     		it	ne
 7322 0154 6FF0960B 		mvnne	fp, #150
 7323              	.L1272:
 7324 0158 58F80110 		ldr	r1, [r8, r1]
 7325 015c 5E18     		adds	r6, r3, r1
 7326 015e C4F81463 		str	r6, [r4, #788]
 7327 0162 BE68     		ldr	r6, [r7, #8]
 7328 0164 521A     		subs	r2, r2, r1
 7329 0166 F61A     		subs	r6, r6, r3
 7330 0168 3244     		add	r2, r2, r6
 7331 016a D8F8FC10 		ldr	r1, [r8, #252]
 7332 016e D8F8E060 		ldr	r6, [r8, #224]
 7333 0172 C4F81823 		str	r2, [r4, #792]
 7334 0176 891B     		subs	r1, r1, r6
 7335 0178 0691     		str	r1, [sp, #24]
 7336 017a D8F88811 		ldr	r1, [r8, #392]
 7337 017e 9A19     		adds	r2, r3, r6
 7338 0180 03EB0109 		add	r9, r3, r1
 7339 0184 AAEB0101 		sub	r1, r10, r1
 7340 0188 0791     		str	r1, [sp, #28]
 7341 018a 002D     		cmp	r5, #0
 7342 018c 40F0AB81 		bne	.L1264
 7343 0190 2699     		ldr	r1, [sp, #152]
 7344 0192 0029     		cmp	r1, #0
 7345 0194 00F05181 		beq	.L1273
 7346 0198 059B     		ldr	r3, [sp, #20]
 7347 019a 0BB1     		cbz	r3, .L1274
 7348 019c C3F800B0 		str	fp, [r3]
 7349              	.L1274:
 7350 01a0 0026     		movs	r6, #0
 7351 01a2 09E0     		b	.L1277
 7352              	.L1265:
 7353 01a4 002B     		cmp	r3, #0
 7354 01a6 18BF     		it	ne
 7355 01a8 0025     		movne	r5, #0
 7356 01aa 86E7     		b	.L1354
 7357              	.L1311:
 7358 01ac B346     		mov	fp, r6
 7359 01ae A9E7     		b	.L1269
 7360              	.L1303:
 7361 01b0 059B     		ldr	r3, [sp, #20]
 7362 01b2 0BB1     		cbz	r3, .L1277
 7363 01b4 C3F800B0 		str	fp, [r3]
 7364              	.L1277:
ARM GAS  /tmp/cciZhAVO.s 			page 127


 7365 01b8 0127     		movs	r7, #1
 7366 01ba 02E0     		b	.L1278
 7367              	.L1315:
 7368 01bc 6FF08C05 		mvn	r5, #140
 7369 01c0 279F     		ldr	r7, [sp, #156]
 7370              	.L1278:
 7371 01c2 4046     		mov	r0, r8
 7372 01c4 0592     		str	r2, [sp, #20]
 7373 01c6 FFF7FEFF 		bl	wolfSSL_Free
 7374 01ca A5BB     		cbnz	r5, .L1262
 7375 01cc 059A     		ldr	r2, [sp, #20]
 7376 01ce 0ABB     		cbnz	r2, .L1279
 7377              	.L1282:
 7378 01d0 04F13808 		add	r8, r4, #56
 7379 01d4 B9F1000F 		cmp	r9, #0
 7380 01d8 31D1     		bne	.L1280
 7381              	.L1281:
 7382 01da 1422     		movs	r2, #20
 7383 01dc 4146     		mov	r1, r8
 7384 01de 04F14C00 		add	r0, r4, #76
 7385 01e2 FFF7FEFF 		bl	memcmp
 7386 01e6 B0FA80F0 		clz	r0, r0
 7387 01ea 94F86233 		ldrb	r3, [r4, #866]	@ zero_extendqisi2
 7388 01ee 4009     		lsrs	r0, r0, #5
 7389 01f0 60F34103 		bfi	r3, r0, #1, #1
 7390 01f4 84F86233 		strb	r3, [r4, #866]
 7391 01f8 269B     		ldr	r3, [sp, #152]
 7392 01fa 8BBB     		cbnz	r3, .L1283
 7393 01fc D4F87482 		ldr	r8, [r4, #628]
 7394 0200 CDF828A0 		str	r10, [sp, #40]
 7395 0204 CDF834A0 		str	r10, [sp, #52]
 7396 0208 B8F1000F 		cmp	r8, #0
 7397 020c 30D1     		bne	.L1286
 7398              	.L1287:
 7399 020e 6FF08B05 		mvn	r5, #139
 7400 0212 10E0     		b	.L1262
 7401              	.L1279:
 7402 0214 069B     		ldr	r3, [sp, #24]
 7403 0216 2046     		mov	r0, r4
 7404 0218 0293     		str	r3, [sp, #8]
 7405 021a 0AAB     		add	r3, sp, #40
 7406 021c CDE90023 		strd	r2, r3, [sp]
 7407 0220 04F16D01 		add	r1, r4, #109
 7408 0224 2B46     		mov	r3, r5
 7409 0226 04F14C02 		add	r2, r4, #76
 7410 022a 0A95     		str	r5, [sp, #40]
 7411 022c FFF7FEFF 		bl	GetCertName
 7412 0230 0028     		cmp	r0, #0
 7413 0232 CDD0     		beq	.L1282
 7414              	.L1357:
 7415 0234 0546     		mov	r5, r0
 7416              	.L1262:
 7417 0236 2846     		mov	r0, r5
 7418 0238 1DB0     		add	sp, sp, #116
 7419              		@ sp needed
 7420 023a BDE8F08F 		pop	{r4, r5, r6, r7, r8, r9, r10, fp, pc}
 7421              	.L1280:
ARM GAS  /tmp/cciZhAVO.s 			page 128


 7422 023e 0023     		movs	r3, #0
 7423 0240 0A93     		str	r3, [sp, #40]
 7424 0242 079B     		ldr	r3, [sp, #28]
 7425 0244 4246     		mov	r2, r8
 7426 0246 0293     		str	r3, [sp, #8]
 7427 0248 0AAB     		add	r3, sp, #40
 7428 024a CDE90093 		strd	r9, r3, [sp]
 7429 024e 2046     		mov	r0, r4
 7430 0250 0123     		movs	r3, #1
 7431 0252 04F26D11 		addw	r1, r4, #365
 7432 0256 FFF7FEFF 		bl	GetCertName
 7433 025a 0028     		cmp	r0, #0
 7434 025c BDD0     		beq	.L1281
 7435 025e E9E7     		b	.L1357
 7436              	.L1283:
 7437 0260 BAF1000F 		cmp	r10, #0
 7438 0264 00F09A80 		beq	.L1285
 7439 0268 5546     		mov	r5, r10
 7440 026a E4E7     		b	.L1262
 7441              	.L1359:
 7442              		.align	2
 7443              	.L1358:
 7444 026c 00000000 		.word	.LANCHOR84
 7445              	.L1286:
 7446 0270 0123     		movs	r3, #1
 7447 0272 0DF13409 		add	r9, sp, #52
 7448 0276 0093     		str	r3, [sp]
 7449 0278 4946     		mov	r1, r9
 7450 027a 3346     		mov	r3, r6
 7451 027c 4046     		mov	r0, r8
 7452 027e 0EAA     		add	r2, sp, #56
 7453 0280 FFF7FEFF 		bl	GetASN_Sequence
 7454 0284 0028     		cmp	r0, #0
 7455 0286 C2D1     		bne	.L1287
 7456 0288 0D9B     		ldr	r3, [sp, #52]
 7457 028a 4946     		mov	r1, r9
 7458 028c 0593     		str	r3, [sp, #20]
 7459 028e 059A     		ldr	r2, [sp, #20]
 7460 0290 0E9B     		ldr	r3, [sp, #56]
 7461 0292 4046     		mov	r0, r8
 7462 0294 0693     		str	r3, [sp, #24]
 7463 0296 1344     		add	r3, r3, r2
 7464 0298 0793     		str	r3, [sp, #28]
 7465 029a 0093     		str	r3, [sp]
 7466 029c 04F11C02 		add	r2, r4, #28
 7467 02a0 0223     		movs	r3, #2
 7468 02a2 FFF7FEFF 		bl	GetAlgoId
 7469 02a6 0028     		cmp	r0, #0
 7470 02a8 B1DB     		blt	.L1287
 7471 02aa E269     		ldr	r2, [r4, #28]
 7472 02ac 954B     		ldr	r3, .L1360
 7473 02ae 9A42     		cmp	r2, r3
 7474 02b0 7ED1     		bne	.L1317
 7475 02b2 5420     		movs	r0, #84
 7476 02b4 FFF7FEFF 		bl	wolfSSL_Malloc
 7477 02b8 0646     		mov	r6, r0
 7478 02ba 0028     		cmp	r0, #0
ARM GAS  /tmp/cciZhAVO.s 			page 129


 7479 02bc 7BD0     		beq	.L1318
 7480 02be 5422     		movs	r2, #84
 7481 02c0 2699     		ldr	r1, [sp, #152]
 7482 02c2 FFF7FEFF 		bl	memset
 7483 02c6 0322     		movs	r2, #3
 7484 02c8 079B     		ldr	r3, [sp, #28]
 7485 02ca 3261     		str	r2, [r6, #16]
 7486 02cc 3146     		mov	r1, r6
 7487 02ce CDE90193 		strd	r9, r3, [sp, #4]
 7488 02d2 8D48     		ldr	r0, .L1360+4
 7489 02d4 0123     		movs	r3, #1
 7490 02d6 CDF80080 		str	r8, [sp]
 7491 02da FFF7FEFF 		bl	GetASN_Items
 7492 02de 8146     		mov	r9, r0
 7493 02e0 C8B9     		cbnz	r0, .L1289
 7494 02e2 737E     		ldrb	r3, [r6, #25]	@ zero_extendqisi2
 7495 02e4 002B     		cmp	r3, #0
 7496 02e6 5DD0     		beq	.L1319
 7497 02e8 7369     		ldr	r3, [r6, #20]
 7498 02ea C4F80833 		str	r3, [r4, #776]
 7499              	.L1290:
 7500 02ee 059B     		ldr	r3, [sp, #20]
 7501 02f0 A3EB0A00 		sub	r0, r3, r10
 7502 02f4 069B     		ldr	r3, [sp, #24]
 7503 02f6 1844     		add	r0, r0, r3
 7504 02f8 6060     		str	r0, [r4, #4]
 7505 02fa FFF7FEFF 		bl	wolfSSL_Malloc
 7506 02fe 0590     		str	r0, [sp, #20]
 7507 0300 0028     		cmp	r0, #0
 7508 0302 52D0     		beq	.L1320
 7509 0304 6268     		ldr	r2, [r4, #4]
 7510 0306 08EB0A01 		add	r1, r8, r10
 7511 030a FFF7FEFF 		bl	memcpy
 7512 030e 059B     		ldr	r3, [sp, #20]
 7513 0310 2360     		str	r3, [r4]
 7514 0312 0123     		movs	r3, #1
 7515 0314 A360     		str	r3, [r4, #8]
 7516              	.L1289:
 7517 0316 3046     		mov	r0, r6
 7518 0318 FFF7FEFF 		bl	wolfSSL_Free
 7519              	.L1288:
 7520 031c 0D9B     		ldr	r3, [sp, #52]
 7521 031e 0A93     		str	r3, [sp, #40]
 7522 0320 B9F1000F 		cmp	r9, #0
 7523 0324 40F08780 		bne	.L1321
 7524 0328 279B     		ldr	r3, [sp, #156]
 7525 032a 002B     		cmp	r3, #0
 7526 032c 36D1     		bne	.L1285
 7527 032e D4F8A892 		ldr	r9, [r4, #680]
 7528 0332 B9F1000F 		cmp	r9, #0
 7529 0336 31D0     		beq	.L1285
 7530 0338 D4F8AC82 		ldr	r8, [r4, #684]
 7531 033c 0C93     		str	r3, [sp, #48]
 7532 033e B8F1000F 		cmp	r8, #0
 7533 0342 00F0BA80 		beq	.L1322
 7534 0346 7020     		movs	r0, #112
 7535 0348 FFF7FEFF 		bl	wolfSSL_Malloc
ARM GAS  /tmp/cciZhAVO.s 			page 130


 7536 034c 0646     		mov	r6, r0
 7537 034e 0028     		cmp	r0, #0
 7538 0350 00F0BF80 		beq	.L1323
 7539 0354 3822     		movs	r2, #56
 7540 0356 2799     		ldr	r1, [sp, #156]
 7541 0358 0DEB0200 		add	r0, sp, r2
 7542 035c FFF7FEFF 		bl	memset
 7543 0360 0CAB     		add	r3, sp, #48
 7544 0362 CDE90093 		strd	r9, r3, [sp]
 7545 0366 0222     		movs	r2, #2
 7546 0368 279B     		ldr	r3, [sp, #156]
 7547 036a 6848     		ldr	r0, .L1360+8
 7548 036c CDF80880 		str	r8, [sp, #8]
 7549 0370 0EA9     		add	r1, sp, #56
 7550 0372 FFF7FEFF 		bl	GetASN_Items
 7551 0376 0346     		mov	r3, r0
 7552 0378 DFF898A1 		ldr	r10, .L1360+16
 7553              	.L1293:
 7554 037c 002B     		cmp	r3, #0
 7555 037e 52D0     		beq	.L1296
 7556              	.L1297:
 7557 0380 3046     		mov	r0, r6
 7558 0382 0593     		str	r3, [sp, #20]
 7559 0384 FFF7FEFF 		bl	wolfSSL_Free
 7560 0388 DDE90423 		ldrd	r2, r3, [sp, #16]
 7561 038c 002A     		cmp	r2, #0
 7562 038e 00F09B80 		beq	.L1299
 7563 0392 13F1A00F 		cmn	r3, #160
 7564 0396 40F09480 		bne	.L1300
 7565 039a 1360     		str	r3, [r2]
 7566              	.L1285:
 7567 039c 002F     		cmp	r7, #0
 7568 039e 08BF     		it	eq
 7569 03a0 5D46     		moveq	r5, fp
 7570 03a2 48E7     		b	.L1262
 7571              	.L1319:
 7572 03a4 6FF08B09 		mvn	r9, #139
 7573 03a8 A1E7     		b	.L1290
 7574              	.L1320:
 7575 03aa 6FF07C09 		mvn	r9, #124
 7576 03ae B2E7     		b	.L1289
 7577              	.L1317:
 7578 03b0 6FF09309 		mvn	r9, #147
 7579 03b4 B2E7     		b	.L1288
 7580              	.L1318:
 7581 03b6 6FF07C09 		mvn	r9, #124
 7582 03ba AFE7     		b	.L1288
 7583              	.L1298:
 7584 03bc 4FF00003 		mov	r3, #0
 7585 03c0 8DF82730 		strb	r3, [sp, #39]
 7586 03c4 0023     		movs	r3, #0
 7587 03c6 7022     		movs	r2, #112
 7588 03c8 1946     		mov	r1, r3
 7589 03ca 3046     		mov	r0, r6
 7590 03cc 0D93     		str	r3, [sp, #52]
 7591 03ce FFF7FEFF 		bl	memset
 7592 03d2 0623     		movs	r3, #6
ARM GAS  /tmp/cciZhAVO.s 			page 131


 7593 03d4 F362     		str	r3, [r6, #44]
 7594 03d6 0123     		movs	r3, #1
 7595 03d8 86F85030 		strb	r3, [r6, #80]
 7596 03dc 0DF12703 		add	r3, sp, #39
 7597 03e0 3364     		str	r3, [r6, #64]
 7598 03e2 0CAB     		add	r3, sp, #48
 7599 03e4 CDE90093 		strd	r9, r3, [sp]
 7600 03e8 0422     		movs	r2, #4
 7601 03ea 0023     		movs	r3, #0
 7602 03ec 3146     		mov	r1, r6
 7603 03ee 5046     		mov	r0, r10
 7604 03f0 CDF80880 		str	r8, [sp, #8]
 7605 03f4 FFF7FEFF 		bl	GetASN_Items
 7606 03f8 0346     		mov	r3, r0
 7607 03fa 80B9     		cbnz	r0, .L1294
 7608 03fc 0DAB     		add	r3, sp, #52
 7609 03fe B16D     		ldr	r1, [r6, #88]
 7610 0400 CDE90043 		strd	r4, r3, [sp]
 7611 0404 0C98     		ldr	r0, [sp, #48]
 7612 0406 9DF82730 		ldrb	r3, [sp, #39]	@ zero_extendqisi2
 7613 040a 326B     		ldr	r2, [r6, #48]
 7614 040c 4844     		add	r0, r0, r9
 7615 040e 0591     		str	r1, [sp, #20]
 7616 0410 FFF7FEFF 		bl	DecodeExtensionType
 7617 0414 0346     		mov	r3, r0
 7618 0416 0C9A     		ldr	r2, [sp, #48]
 7619 0418 0599     		ldr	r1, [sp, #20]
 7620 041a 1144     		add	r1, r1, r2
 7621 041c 0C91     		str	r1, [sp, #48]
 7622              	.L1294:
 7623 041e 13F1A00F 		cmn	r3, #160
 7624 0422 ABD1     		bne	.L1293
 7625 0424 2793     		str	r3, [sp, #156]
 7626              	.L1296:
 7627 0426 0C9B     		ldr	r3, [sp, #48]
 7628 0428 9845     		cmp	r8, r3
 7629 042a C7D8     		bhi	.L1298
 7630 042c 279B     		ldr	r3, [sp, #156]
 7631 042e A7E7     		b	.L1297
 7632              	.L1305:
 7633 0430 6FF07C05 		mvn	r5, #124
 7634 0434 FFE6     		b	.L1262
 7635              	.L1321:
 7636 0436 4D46     		mov	r5, r9
 7637 0438 FDE6     		b	.L1262
 7638              	.L1273:
 7639 043a D8F81813 		ldr	r1, [r8, #792]
 7640 043e D8F8BC72 		ldr	r7, [r8, #700]
 7641 0442 2166     		str	r1, [r4, #96]
 7642 0444 D8F81C13 		ldr	r1, [r8, #796]
 7643 0448 2761     		str	r7, [r4, #16]
 7644 044a 6161     		str	r1, [r4, #20]
 7645 044c D8F8EC12 		ldr	r1, [r8, #748]
 7646 0450 8842     		cmp	r0, r1
 7647 0452 53D1     		bne	.L1324
 7648 0454 2E49     		ldr	r1, .L1360+12
 7649 0456 8842     		cmp	r0, r1
ARM GAS  /tmp/cciZhAVO.s 			page 132


 7650 0458 0BD0     		beq	.L1275
 7651 045a 01F1D851 		add	r1, r1, #452984832
 7652 045e 20F08076 		bic	r6, r0, #16777216
 7653 0462 01F50031 		add	r1, r1, #131072
 7654 0466 8E42     		cmp	r6, r1
 7655 0468 03D0     		beq	.L1275
 7656 046a 01F17E41 		add	r1, r1, #-33554432
 7657 046e 8842     		cmp	r0, r1
 7658 0470 03D1     		bne	.L1276
 7659              	.L1275:
 7660 0472 98F80D13 		ldrb	r1, [r8, #781]	@ zero_extendqisi2
 7661 0476 0029     		cmp	r1, #0
 7662 0478 3DD1     		bne	.L1314
 7663              	.L1276:
 7664 047a 2799     		ldr	r1, [sp, #156]
 7665 047c D8F84C62 		ldr	r6, [r8, #588]
 7666 0480 0029     		cmp	r1, #0
 7667 0482 7FF495AE 		bne	.L1303
 7668 0486 D8F8A812 		ldr	r1, [r8, #680]
 7669 048a 99B1     		cbz	r1, .L1355
 7670 048c BEF1010F 		cmp	lr, #1
 7671 0490 7FF694AE 		bls	.L1315
 7672 0494 D8F88402 		ldr	r0, [r8, #644]
 7673 0498 D8F88852 		ldr	r5, [r8, #648]
 7674 049c 1918     		adds	r1, r3, r0
 7675 049e C4F8A812 		str	r1, [r4, #680]
 7676 04a2 D8F88C12 		ldr	r1, [r8, #652]
 7677 04a6 2D1A     		subs	r5, r5, r0
 7678 04a8 C91A     		subs	r1, r1, r3
 7679 04aa 2944     		add	r1, r1, r5
 7680 04ac C4E9AB10 		strd	r1, r0, [r4, #684]
 7681 04b0 C4F87872 		str	r7, [r4, #632]
 7682              	.L1355:
 7683 04b4 279F     		ldr	r7, [sp, #156]
 7684 04b6 3D46     		mov	r5, r7
 7685 04b8 83E6     		b	.L1278
 7686              	.L1322:
 7687 04ba 6FF0AC03 		mvn	r3, #172
 7688              	.L1292:
 7689 04be 049A     		ldr	r2, [sp, #16]
 7690 04c0 2AB1     		cbz	r2, .L1356
 7691              	.L1300:
 7692 04c2 0022     		movs	r2, #0
 7693 04c4 0499     		ldr	r1, [sp, #16]
 7694 04c6 0A60     		str	r2, [r1]
 7695              	.L1299:
 7696 04c8 002B     		cmp	r3, #0
 7697 04ca 3FF467AF 		beq	.L1285
 7698              	.L1356:
 7699 04ce 1D46     		mov	r5, r3
 7700 04d0 B1E6     		b	.L1262
 7701              	.L1323:
 7702 04d2 6FF07C03 		mvn	r3, #124
 7703 04d6 F2E7     		b	.L1292
 7704              	.L1306:
 7705 04d8 0546     		mov	r5, r0
 7706 04da BA46     		mov	r10, r7
ARM GAS  /tmp/cciZhAVO.s 			page 133


 7707 04dc B946     		mov	r9, r7
 7708 04de 3A46     		mov	r2, r7
 7709 04e0 BB46     		mov	fp, r7
 7710 04e2 0797     		str	r7, [sp, #28]
 7711 04e4 0697     		str	r7, [sp, #24]
 7712              	.L1264:
 7713 04e6 0027     		movs	r7, #0
 7714 04e8 3E46     		mov	r6, r7
 7715 04ea 6AE6     		b	.L1278
 7716              	.L1307:
 7717 04ec 8246     		mov	r10, r0
 7718 04ee 8146     		mov	r9, r0
 7719 04f0 0246     		mov	r2, r0
 7720 04f2 0790     		str	r0, [sp, #28]
 7721 04f4 0690     		str	r0, [sp, #24]
 7722              	.L1314:
 7723 04f6 6FF08B05 		mvn	r5, #139
 7724 04fa F4E7     		b	.L1264
 7725              	.L1324:
 7726 04fc 6FF09705 		mvn	r5, #151
 7727 0500 F1E7     		b	.L1264
 7728              	.L1361:
 7729 0502 00BF     		.align	2
 7730              	.L1360:
 7731 0504 17844931 		.word	826901527
 7732 0508 00000000 		.word	.LANCHOR85
 7733 050c 00000000 		.word	.LANCHOR86
 7734 0510 17824931 		.word	826901015
 7735 0514 00000000 		.word	.LANCHOR87
 7737              		.section	.text.wc_GetPubX509,"ax",%progbits
 7738              		.align	1
 7739              		.global	wc_GetPubX509
 7740              		.syntax unified
 7741              		.thumb
 7742              		.thumb_func
 7743              		.fpu fpv4-sp-d16
 7745              	wc_GetPubX509:
 7746              		@ args = 0, pretend = 0, frame = 0
 7747              		@ frame_needed = 0, uses_anonymous_args = 0
 7748 0000 37B5     		push	{r0, r1, r2, r4, r5, lr}
 7749 0002 1346     		mov	r3, r2
 7750 0004 0125     		movs	r5, #1
 7751 0006 0022     		movs	r2, #0
 7752 0008 0095     		str	r5, [sp]
 7753 000a 1A60     		str	r2, [r3]
 7754 000c 0192     		str	r2, [sp, #4]
 7755 000e 0446     		mov	r4, r0
 7756 0010 FFF7FEFF 		bl	DecodeCertInternal
 7757 0014 0028     		cmp	r0, #0
 7758 0016 A8BF     		it	ge
 7759 0018 C4F87802 		strge	r0, [r4, #632]
 7760 001c 03B0     		add	sp, sp, #12
 7761              		@ sp needed
 7762 001e 30BD     		pop	{r4, r5, pc}
 7764              		.section	.text.DecodeToKey,"ax",%progbits
 7765              		.align	1
 7766              		.global	DecodeToKey
ARM GAS  /tmp/cciZhAVO.s 			page 134


 7767              		.syntax unified
 7768              		.thumb
 7769              		.thumb_func
 7770              		.fpu fpv4-sp-d16
 7772              	DecodeToKey:
 7773              		@ args = 0, pretend = 0, frame = 8
 7774              		@ frame_needed = 0, uses_anonymous_args = 0
 7775 0000 1FB5     		push	{r0, r1, r2, r3, r4, lr}
 7776 0002 0022     		movs	r2, #0
 7777 0004 0123     		movs	r3, #1
 7778 0006 CDE90023 		strd	r2, r3, [sp]
 7779 000a 03AB     		add	r3, sp, #12
 7780 000c 0392     		str	r2, [sp, #12]
 7781 000e FFF7FEFF 		bl	DecodeCertInternal
 7782 0012 00B9     		cbnz	r0, .L1364
 7783 0014 0398     		ldr	r0, [sp, #12]
 7784              	.L1364:
 7785 0016 05B0     		add	sp, sp, #20
 7786              		@ sp needed
 7787 0018 5DF804FB 		ldr	pc, [sp], #4
 7789              		.section	.text.DecodeCert,"ax",%progbits
 7790              		.align	1
 7791              		.global	DecodeCert
 7792              		.syntax unified
 7793              		.thumb
 7794              		.thumb_func
 7795              		.fpu fpv4-sp-d16
 7797              	DecodeCert:
 7798              		@ args = 0, pretend = 0, frame = 0
 7799              		@ frame_needed = 0, uses_anonymous_args = 0
 7800 0000 0023     		movs	r3, #0
 7801 0002 07B5     		push	{r0, r1, r2, lr}
 7802 0004 CDE90033 		strd	r3, r3, [sp]
 7803 0008 FFF7FEFF 		bl	DecodeCertInternal
 7804 000c 03B0     		add	sp, sp, #12
 7805              		@ sp needed
 7806 000e 5DF804FB 		ldr	pc, [sp], #4
 7808              		.section	.text.wc_GetSubjectPubKeyInfoDerFromCert,"ax",%progbits
 7809              		.align	1
 7810              		.global	wc_GetSubjectPubKeyInfoDerFromCert
 7811              		.syntax unified
 7812              		.thumb
 7813              		.thumb_func
 7814              		.fpu fpv4-sp-d16
 7816              	wc_GetSubjectPubKeyInfoDerFromCert:
 7817              		@ args = 0, pretend = 0, frame = 16
 7818              		@ frame_needed = 0, uses_anonymous_args = 0
 7819 0000 2DE9FF47 		push	{r0, r1, r2, r3, r4, r5, r6, r7, r8, r9, r10, lr}
 7820 0004 0E46     		mov	r6, r1
 7821 0006 9146     		mov	r9, r2
 7822 0008 9846     		mov	r8, r3
 7823 000a 0746     		mov	r7, r0
 7824 000c 0028     		cmp	r0, #0
 7825 000e 49D0     		beq	.L1373
 7826 0010 0029     		cmp	r1, #0
 7827 0012 47D0     		beq	.L1373
 7828 0014 002B     		cmp	r3, #0
ARM GAS  /tmp/cciZhAVO.s 			page 135


 7829 0016 45D0     		beq	.L1373
 7830 0018 4FF45970 		mov	r0, #868
 7831 001c FFF7FEFF 		bl	wolfSSL_Malloc
 7832 0020 0546     		mov	r5, r0
 7833 0022 0028     		cmp	r0, #0
 7834 0024 41D0     		beq	.L1374
 7835 0026 0024     		movs	r4, #0
 7836 0028 3246     		mov	r2, r6
 7837 002a 2346     		mov	r3, r4
 7838 002c 3946     		mov	r1, r7
 7839 002e CDE90244 		strd	r4, r4, [sp, #8]
 7840 0032 FFF7FEFF 		bl	InitDecodedCert
 7841 0036 2146     		mov	r1, r4
 7842 0038 2846     		mov	r0, r5
 7843 003a 03AA     		add	r2, sp, #12
 7844 003c FFF7FEFF 		bl	wc_GetPubX509
 7845 0040 041E     		subs	r4, r0, #0
 7846 0042 1DDB     		blt	.L1369
 7847 0044 D5F878A2 		ldr	r10, [r5, #632]
 7848 0048 3346     		mov	r3, r6
 7849 004a 3846     		mov	r0, r7
 7850 004c 02AA     		add	r2, sp, #8
 7851 004e 01A9     		add	r1, sp, #4
 7852 0050 CDF804A0 		str	r10, [sp, #4]
 7853 0054 FFF7FEFF 		bl	GetSequence
 7854 0058 041E     		subs	r4, r0, #0
 7855 005a 11DB     		blt	.L1369
 7856 005c DDE90162 		ldrd	r6, r2, [sp, #4]
 7857 0060 3244     		add	r2, r2, r6
 7858 0062 A2EB0A02 		sub	r2, r2, r10
 7859 0066 0292     		str	r2, [sp, #8]
 7860 0068 B9F1000F 		cmp	r9, #0
 7861 006c 08D0     		beq	.L1369
 7862 006e D8F80030 		ldr	r3, [r8]
 7863 0072 9A42     		cmp	r2, r3
 7864 0074 13D8     		bhi	.L1375
 7865 0076 4846     		mov	r0, r9
 7866 0078 07EB0A01 		add	r1, r7, r10
 7867 007c FFF7FEFF 		bl	memcpy
 7868              	.L1369:
 7869 0080 04EAE474 		and	r4, r4, r4, asr #31
 7870              	.L1370:
 7871 0084 029B     		ldr	r3, [sp, #8]
 7872 0086 2846     		mov	r0, r5
 7873 0088 C8F80030 		str	r3, [r8]
 7874 008c FFF7FEFF 		bl	FreeDecodedCert
 7875 0090 2846     		mov	r0, r5
 7876 0092 FFF7FEFF 		bl	wolfSSL_Free
 7877              	.L1367:
 7878 0096 2046     		mov	r0, r4
 7879 0098 04B0     		add	sp, sp, #16
 7880              		@ sp needed
 7881 009a BDE8F087 		pop	{r4, r5, r6, r7, r8, r9, r10, pc}
 7882              	.L1375:
 7883 009e 6FF08304 		mvn	r4, #131
 7884 00a2 EFE7     		b	.L1370
 7885              	.L1373:
ARM GAS  /tmp/cciZhAVO.s 			page 136


 7886 00a4 6FF0AC04 		mvn	r4, #172
 7887 00a8 F5E7     		b	.L1367
 7888              	.L1374:
 7889 00aa 6FF07C04 		mvn	r4, #124
 7890 00ae F2E7     		b	.L1367
 7892              		.section	.text.findSignerByName,"ax",%progbits
 7893              		.align	1
 7894              		.global	findSignerByName
 7895              		.syntax unified
 7896              		.thumb
 7897              		.thumb_func
 7898              		.fpu fpv4-sp-d16
 7900              	findSignerByName:
 7901              		@ args = 0, pretend = 0, frame = 0
 7902              		@ frame_needed = 0, uses_anonymous_args = 0
 7903 0000 38B5     		push	{r3, r4, r5, lr}
 7904 0002 0D46     		mov	r5, r1
 7905 0004 0446     		mov	r4, r0
 7906              	.L1380:
 7907 0006 0CB9     		cbnz	r4, .L1382
 7908              	.L1379:
 7909 0008 2046     		mov	r0, r4
 7910 000a 38BD     		pop	{r3, r4, r5, pc}
 7911              	.L1382:
 7912 000c 1422     		movs	r2, #20
 7913 000e 2946     		mov	r1, r5
 7914 0010 04F12400 		add	r0, r4, #36
 7915 0014 FFF7FEFF 		bl	memcmp
 7916 0018 0028     		cmp	r0, #0
 7917 001a F5D0     		beq	.L1379
 7918 001c 246D     		ldr	r4, [r4, #80]
 7919 001e F2E7     		b	.L1380
 7921              		.section	.text.FillSigner,"ax",%progbits
 7922              		.align	1
 7923              		.global	FillSigner
 7924              		.syntax unified
 7925              		.thumb
 7926              		.thumb_func
 7927              		.fpu fpv4-sp-d16
 7929              	FillSigner:
 7930              		@ args = 0, pretend = 0, frame = 0
 7931              		@ frame_needed = 0, uses_anonymous_args = 0
 7932 0000 70B5     		push	{r4, r5, r6, lr}
 7933 0002 0028     		cmp	r0, #0
 7934 0004 4CD0     		beq	.L1394
 7935 0006 0029     		cmp	r1, #0
 7936 0008 4AD0     		beq	.L1394
 7937 000a CB69     		ldr	r3, [r1, #28]
 7938 000c 4360     		str	r3, [r0, #4]
 7939 000e 8B68     		ldr	r3, [r1, #8]
 7940 0010 1BB1     		cbz	r3, .L1388
 7941 0012 0B68     		ldr	r3, [r1]
 7942 0014 0361     		str	r3, [r0, #16]
 7943 0016 4B68     		ldr	r3, [r1, #4]
 7944 0018 0360     		str	r3, [r0]
 7945              	.L1388:
 7946 001a 91F86033 		ldrb	r3, [r1, #864]	@ zero_extendqisi2
ARM GAS  /tmp/cciZhAVO.s 			page 137


 7947 001e 047B     		ldrb	r4, [r0, #12]	@ zero_extendqisi2
 7948 0020 DB07     		lsls	r3, r3, #31
 7949 0022 48BF     		it	mi
 7950 0024 8B6E     		ldrmi	r3, [r1, #104]
 7951 0026 01F53875 		add	r5, r1, #736
 7952 002a 42BF     		ittt	mi
 7953 002c 4361     		strmi	r3, [r0, #20]
 7954 002e 4B6E     		ldrmi	r3, [r1, #100]
 7955 0030 8361     		strmi	r3, [r0, #24]
 7956 0032 B1F8FE32 		ldrh	r3, [r1, #766]
 7957 0036 4381     		strh	r3, [r0, #10]	@ movhi
 7958 0038 91F86233 		ldrb	r3, [r1, #866]	@ zero_extendqisi2
 7959 003c C3F34003 		ubfx	r3, r3, #1, #1
 7960 0040 63F30004 		bfi	r4, r3, #0, #1
 7961 0044 0473     		strb	r4, [r0, #12]
 7962 0046 0B6B     		ldr	r3, [r1, #48]
 7963 0048 00F13804 		add	r4, r0, #56
 7964 004c C361     		str	r3, [r0, #28]
 7965 004e 4B6B     		ldr	r3, [r1, #52]
 7966 0050 0362     		str	r3, [r0, #32]
 7967 0052 01F53373 		add	r3, r1, #716
 7968              	.L1390:
 7969 0056 53F8046B 		ldr	r6, [r3], #4	@ unaligned
 7970 005a AB42     		cmp	r3, r5
 7971 005c 44F8046B 		str	r6, [r4], #4	@ unaligned
 7972 0060 F9D1     		bne	.L1390
 7973 0062 01F13803 		add	r3, r1, #56
 7974 0066 00F12404 		add	r4, r0, #36
 7975 006a 01F14C05 		add	r5, r1, #76
 7976              	.L1391:
 7977 006e 53F8046B 		ldr	r6, [r3], #4	@ unaligned
 7978 0072 AB42     		cmp	r3, r5
 7979 0074 44F8046B 		str	r6, [r4], #4	@ unaligned
 7980 0078 F9D1     		bne	.L1391
 7981 007a 91F96033 		ldrsb	r3, [r1, #864]
 7982 007e 002B     		cmp	r3, #0
 7983 0080 ACBF     		ite	ge
 7984 0082 4FF6FF73 		movwge	r3, #65535
 7985 0086 B1F80233 		ldrhlt	r3, [r1, #770]
 7986 008a 0381     		strh	r3, [r0, #8]	@ movhi
 7987 008c 0023     		movs	r3, #0
 7988 008e 0365     		str	r3, [r0, #80]
 7989 0090 C1E90C33 		strd	r3, r3, [r1, #48]
 7990 0094 0B60     		str	r3, [r1]
 7991 0096 4B66     		str	r3, [r1, #100]
 7992 0098 80F84C20 		strb	r2, [r0, #76]
 7993 009c 1846     		mov	r0, r3
 7994              	.L1386:
 7995 009e 70BD     		pop	{r4, r5, r6, pc}
 7996              	.L1394:
 7997 00a0 6FF0AC00 		mvn	r0, #172
 7998 00a4 FBE7     		b	.L1386
 8000              		.section	.text.MakeSigner,"ax",%progbits
 8001              		.align	1
 8002              		.global	MakeSigner
 8003              		.syntax unified
 8004              		.thumb
ARM GAS  /tmp/cciZhAVO.s 			page 138


 8005              		.thumb_func
 8006              		.fpu fpv4-sp-d16
 8008              	MakeSigner:
 8009              		@ args = 0, pretend = 0, frame = 0
 8010              		@ frame_needed = 0, uses_anonymous_args = 0
 8011 0000 10B5     		push	{r4, lr}
 8012 0002 5420     		movs	r0, #84
 8013 0004 FFF7FEFF 		bl	wolfSSL_Malloc
 8014 0008 0446     		mov	r4, r0
 8015 000a 18B1     		cbz	r0, .L1404
 8016 000c 5422     		movs	r2, #84
 8017 000e 0021     		movs	r1, #0
 8018 0010 FFF7FEFF 		bl	memset
 8019              	.L1404:
 8020 0014 2046     		mov	r0, r4
 8021 0016 10BD     		pop	{r4, pc}
 8023              		.section	.text.FreeSigner,"ax",%progbits
 8024              		.align	1
 8025              		.global	FreeSigner
 8026              		.syntax unified
 8027              		.thumb
 8028              		.thumb_func
 8029              		.fpu fpv4-sp-d16
 8031              	FreeSigner:
 8032              		@ args = 0, pretend = 0, frame = 0
 8033              		@ frame_needed = 0, uses_anonymous_args = 0
 8034 0000 38B5     		push	{r3, r4, r5, lr}
 8035 0002 0446     		mov	r4, r0
 8036 0004 8069     		ldr	r0, [r0, #24]
 8037 0006 0D46     		mov	r5, r1
 8038 0008 08B1     		cbz	r0, .L1410
 8039 000a FFF7FEFF 		bl	wolfSSL_Free
 8040              	.L1410:
 8041 000e 2069     		ldr	r0, [r4, #16]
 8042 0010 08B1     		cbz	r0, .L1411
 8043 0012 FFF7FEFF 		bl	wolfSSL_Free
 8044              	.L1411:
 8045 0016 E069     		ldr	r0, [r4, #28]
 8046 0018 10B1     		cbz	r0, .L1412
 8047 001a 2946     		mov	r1, r5
 8048 001c FFF7FEFF 		bl	FreeNameSubtrees
 8049              	.L1412:
 8050 0020 206A     		ldr	r0, [r4, #32]
 8051 0022 10B1     		cbz	r0, .L1413
 8052 0024 2946     		mov	r1, r5
 8053 0026 FFF7FEFF 		bl	FreeNameSubtrees
 8054              	.L1413:
 8055 002a 2046     		mov	r0, r4
 8056 002c BDE83840 		pop	{r3, r4, r5, lr}
 8057 0030 FFF7FEBF 		b	wolfSSL_Free
 8059              		.section	.text.FreeSignerTable,"ax",%progbits
 8060              		.align	1
 8061              		.global	FreeSignerTable
 8062              		.syntax unified
 8063              		.thumb
 8064              		.thumb_func
 8065              		.fpu fpv4-sp-d16
ARM GAS  /tmp/cciZhAVO.s 			page 139


 8067              	FreeSignerTable:
 8068              		@ args = 0, pretend = 0, frame = 0
 8069              		@ frame_needed = 0, uses_anonymous_args = 0
 8070 0000 2DE9F041 		push	{r4, r5, r6, r7, r8, lr}
 8071 0004 0D46     		mov	r5, r1
 8072 0006 1746     		mov	r7, r2
 8073 0008 0026     		movs	r6, #0
 8074 000a 041F     		subs	r4, r0, #4
 8075              	.L1427:
 8076 000c AE42     		cmp	r6, r5
 8077 000e 01DB     		blt	.L1430
 8078 0010 BDE8F081 		pop	{r4, r5, r6, r7, r8, pc}
 8079              	.L1430:
 8080 0014 6068     		ldr	r0, [r4, #4]
 8081              	.L1428:
 8082 0016 18B9     		cbnz	r0, .L1429
 8083 0018 44F8040F 		str	r0, [r4, #4]!
 8084 001c 0136     		adds	r6, r6, #1
 8085 001e F5E7     		b	.L1427
 8086              	.L1429:
 8087 0020 D0F85080 		ldr	r8, [r0, #80]
 8088 0024 3946     		mov	r1, r7
 8089 0026 FFF7FEFF 		bl	FreeSigner
 8090 002a 4046     		mov	r0, r8
 8091 002c F3E7     		b	.L1428
 8093              		.section	.text.FreeSignerTableType,"ax",%progbits
 8094              		.align	1
 8095              		.global	FreeSignerTableType
 8096              		.syntax unified
 8097              		.thumb
 8098              		.thumb_func
 8099              		.fpu fpv4-sp-d16
 8101              	FreeSignerTableType:
 8102              		@ args = 0, pretend = 0, frame = 0
 8103              		@ frame_needed = 0, uses_anonymous_args = 0
 8104 0000 2DE9F843 		push	{r3, r4, r5, r6, r7, r8, r9, lr}
 8105 0004 0D46     		mov	r5, r1
 8106 0006 1746     		mov	r7, r2
 8107 0008 9846     		mov	r8, r3
 8108 000a 0446     		mov	r4, r0
 8109 000c 0026     		movs	r6, #0
 8110              	.L1432:
 8111 000e AE42     		cmp	r6, r5
 8112 0010 01DB     		blt	.L1437
 8113 0012 BDE8F883 		pop	{r3, r4, r5, r6, r7, r8, r9, pc}
 8114              	.L1437:
 8115 0016 A146     		mov	r9, r4
 8116 0018 54F8040B 		ldr	r0, [r4], #4
 8117              	.L1433:
 8118 001c 08B9     		cbnz	r0, .L1436
 8119 001e 0136     		adds	r6, r6, #1
 8120 0020 F5E7     		b	.L1432
 8121              	.L1436:
 8122 0022 90F84C20 		ldrb	r2, [r0, #76]	@ zero_extendqisi2
 8123 0026 036D     		ldr	r3, [r0, #80]
 8124 0028 BA42     		cmp	r2, r7
 8125 002a 08D1     		bne	.L1434
ARM GAS  /tmp/cciZhAVO.s 			page 140


 8126 002c C9F80030 		str	r3, [r9]
 8127 0030 4146     		mov	r1, r8
 8128 0032 FFF7FEFF 		bl	FreeSigner
 8129 0036 D9F80030 		ldr	r3, [r9]
 8130              	.L1435:
 8131 003a 1846     		mov	r0, r3
 8132 003c EEE7     		b	.L1433
 8133              	.L1434:
 8134 003e 00F15009 		add	r9, r0, #80
 8135 0042 FAE7     		b	.L1435
 8137              		.section	.text.SetMyVersion,"ax",%progbits
 8138              		.align	1
 8139              		.global	SetMyVersion
 8140              		.syntax unified
 8141              		.thumb
 8142              		.thumb_func
 8143              		.fpu fpv4-sp-d16
 8145              	SetMyVersion:
 8146              		@ args = 0, pretend = 0, frame = 0
 8147              		@ frame_needed = 0, uses_anonymous_args = 0
 8148              		@ link register save eliminated.
 8149 0000 71B1     		cbz	r1, .L1441
 8150 0002 22B1     		cbz	r2, .L1440
 8151 0004 A023     		movs	r3, #160
 8152 0006 0B70     		strb	r3, [r1]
 8153 0008 0323     		movs	r3, #3
 8154 000a 0222     		movs	r2, #2
 8155 000c 4B70     		strb	r3, [r1, #1]
 8156              	.L1440:
 8157 000e 0223     		movs	r3, #2
 8158 0010 8B54     		strb	r3, [r1, r2]
 8159 0012 0123     		movs	r3, #1
 8160 0014 1144     		add	r1, r1, r2
 8161 0016 4B70     		strb	r3, [r1, #1]
 8162 0018 0332     		adds	r2, r2, #3
 8163 001a 8870     		strb	r0, [r1, #2]
 8164              	.L1438:
 8165 001c 1046     		mov	r0, r2
 8166 001e 7047     		bx	lr
 8167              	.L1441:
 8168 0020 6FF0AC02 		mvn	r2, #172
 8169 0024 FAE7     		b	.L1438
 8171              		.section	.text.AllocDer,"ax",%progbits
 8172              		.align	1
 8173              		.global	AllocDer
 8174              		.syntax unified
 8175              		.thumb
 8176              		.thumb_func
 8177              		.fpu fpv4-sp-d16
 8179              	AllocDer:
 8180              		@ args = 0, pretend = 0, frame = 8
 8181              		@ frame_needed = 0, uses_anonymous_args = 0
 8182 0000 2DE9F341 		push	{r0, r1, r4, r5, r6, r7, r8, lr}
 8183 0004 0E46     		mov	r6, r1
 8184 0006 1446     		mov	r4, r2
 8185 0008 1F46     		mov	r7, r3
 8186 000a 0546     		mov	r5, r0
ARM GAS  /tmp/cciZhAVO.s 			page 141


 8187 000c F0B1     		cbz	r0, .L1448
 8188 000e 2A2A     		cmp	r2, #42
 8189 0010 96BF     		itet	ls
 8190 0012 114B     		ldrls	r3, .L1451
 8191 0014 4FF00308 		movhi	r8, #3
 8192 0018 13F90280 		ldrsbls	r8, [r3, r2]
 8193 001c 01F11402 		add	r2, r1, #20
 8194 0020 1046     		mov	r0, r2
 8195 0022 0192     		str	r2, [sp, #4]
 8196 0024 FFF7FEFF 		bl	wolfSSL_Malloc
 8197 0028 2860     		str	r0, [r5]
 8198 002a 90B1     		cbz	r0, .L1450
 8199 002c 0021     		movs	r1, #0
 8200 002e 019A     		ldr	r2, [sp, #4]
 8201 0030 FFF7FEFF 		bl	memset
 8202 0034 2868     		ldr	r0, [r5]
 8203 0036 00F11403 		add	r3, r0, #20
 8204 003a C0E90348 		strd	r4, r8, [r0, #12]
 8205 003e 4760     		str	r7, [r0, #4]
 8206 0040 0360     		str	r3, [r0]
 8207 0042 8660     		str	r6, [r0, #8]
 8208 0044 0020     		movs	r0, #0
 8209              	.L1445:
 8210 0046 02B0     		add	sp, sp, #8
 8211              		@ sp needed
 8212 0048 BDE8F081 		pop	{r4, r5, r6, r7, r8, pc}
 8213              	.L1448:
 8214 004c 6FF0AC00 		mvn	r0, #172
 8215 0050 F9E7     		b	.L1445
 8216              	.L1450:
 8217 0052 6FF07C00 		mvn	r0, #124
 8218 0056 F6E7     		b	.L1445
 8219              	.L1452:
 8220              		.align	2
 8221              	.L1451:
 8222 0058 00000000 		.word	.LANCHOR88
 8224              		.section	.text.AllocCopyDer,"ax",%progbits
 8225              		.align	1
 8226              		.global	AllocCopyDer
 8227              		.syntax unified
 8228              		.thumb
 8229              		.thumb_func
 8230              		.fpu fpv4-sp-d16
 8232              	AllocCopyDer:
 8233              		@ args = 4, pretend = 0, frame = 0
 8234              		@ frame_needed = 0, uses_anonymous_args = 0
 8235 0000 F8B5     		push	{r3, r4, r5, r6, r7, lr}
 8236 0002 1546     		mov	r5, r2
 8237 0004 0E46     		mov	r6, r1
 8238 0006 1A46     		mov	r2, r3
 8239 0008 2946     		mov	r1, r5
 8240 000a 069B     		ldr	r3, [sp, #24]
 8241 000c 0746     		mov	r7, r0
 8242 000e FFF7FEFF 		bl	AllocDer
 8243 0012 0446     		mov	r4, r0
 8244 0014 28B9     		cbnz	r0, .L1453
 8245 0016 3B68     		ldr	r3, [r7]
ARM GAS  /tmp/cciZhAVO.s 			page 142


 8246 0018 2A46     		mov	r2, r5
 8247 001a 3146     		mov	r1, r6
 8248 001c 1868     		ldr	r0, [r3]
 8249 001e FFF7FEFF 		bl	memcpy
 8250              	.L1453:
 8251 0022 2046     		mov	r0, r4
 8252 0024 F8BD     		pop	{r3, r4, r5, r6, r7, pc}
 8254              		.section	.text.FreeDer,"ax",%progbits
 8255              		.align	1
 8256              		.global	FreeDer
 8257              		.syntax unified
 8258              		.thumb
 8259              		.thumb_func
 8260              		.fpu fpv4-sp-d16
 8262              	FreeDer:
 8263              		@ args = 0, pretend = 0, frame = 0
 8264              		@ frame_needed = 0, uses_anonymous_args = 0
 8265 0000 70B5     		push	{r4, r5, r6, lr}
 8266 0002 0546     		mov	r5, r0
 8267 0004 88B1     		cbz	r0, .L1455
 8268 0006 0468     		ldr	r4, [r0]
 8269 0008 7CB1     		cbz	r4, .L1455
 8270 000a E368     		ldr	r3, [r4, #12]
 8271 000c 013B     		subs	r3, r3, #1
 8272 000e 012B     		cmp	r3, #1
 8273 0010 04D8     		bhi	.L1457
 8274 0012 2068     		ldr	r0, [r4]
 8275 0014 10B1     		cbz	r0, .L1457
 8276 0016 A168     		ldr	r1, [r4, #8]
 8277 0018 FFF7FEFF 		bl	ForceZero
 8278              	.L1457:
 8279 001c 0026     		movs	r6, #0
 8280 001e 2046     		mov	r0, r4
 8281 0020 2660     		str	r6, [r4]
 8282 0022 A660     		str	r6, [r4, #8]
 8283 0024 FFF7FEFF 		bl	wolfSSL_Free
 8284 0028 2E60     		str	r6, [r5]
 8285              	.L1455:
 8286 002a 70BD     		pop	{r4, r5, r6, pc}
 8288              		.section	.text.wc_AllocDer,"ax",%progbits
 8289              		.align	1
 8290              		.global	wc_AllocDer
 8291              		.syntax unified
 8292              		.thumb
 8293              		.thumb_func
 8294              		.fpu fpv4-sp-d16
 8296              	wc_AllocDer:
 8297              		@ args = 0, pretend = 0, frame = 0
 8298              		@ frame_needed = 0, uses_anonymous_args = 0
 8299              		@ link register save eliminated.
 8300 0000 FFF7FEBF 		b	AllocDer
 8302              		.section	.text.wc_FreeDer,"ax",%progbits
 8303              		.align	1
 8304              		.global	wc_FreeDer
 8305              		.syntax unified
 8306              		.thumb
 8307              		.thumb_func
ARM GAS  /tmp/cciZhAVO.s 			page 143


 8308              		.fpu fpv4-sp-d16
 8310              	wc_FreeDer:
 8311              		@ args = 0, pretend = 0, frame = 0
 8312              		@ frame_needed = 0, uses_anonymous_args = 0
 8313              		@ link register save eliminated.
 8314 0000 FFF7FEBF 		b	FreeDer
 8316              		.section	.text.wc_PemGetHeaderFooter,"ax",%progbits
 8317              		.align	1
 8318              		.global	wc_PemGetHeaderFooter
 8319              		.syntax unified
 8320              		.thumb
 8321              		.thumb_func
 8322              		.fpu fpv4-sp-d16
 8324              	wc_PemGetHeaderFooter:
 8325              		@ args = 0, pretend = 0, frame = 0
 8326              		@ frame_needed = 0, uses_anonymous_args = 0
 8327              		@ link register save eliminated.
 8328 0000 2C28     		cmp	r0, #44
 8329 0002 59D8     		bhi	.L1492
 8330 0004 DFE800F0 		tbb	[pc, r0]
 8331              	.L1472:
 8332 0008 17       		.byte	(.L1473-.L1472)/2
 8333 0009 2E       		.byte	(.L1478-.L1472)/2
 8334 000a 58       		.byte	(.L1492-.L1472)/2
 8335 000b 58       		.byte	(.L1492-.L1472)/2
 8336 000c 58       		.byte	(.L1492-.L1472)/2
 8337 000d 20       		.byte	(.L1480-.L1472)/2
 8338 000e 17       		.byte	(.L1473-.L1472)/2
 8339 000f 27       		.byte	(.L1479-.L1472)/2
 8340 0010 58       		.byte	(.L1492-.L1472)/2
 8341 0011 58       		.byte	(.L1492-.L1472)/2
 8342 0012 58       		.byte	(.L1492-.L1472)/2
 8343 0013 58       		.byte	(.L1492-.L1472)/2
 8344 0014 27       		.byte	(.L1479-.L1472)/2
 8345 0015 2E       		.byte	(.L1478-.L1472)/2
 8346 0016 35       		.byte	(.L1476-.L1472)/2
 8347 0017 3C       		.byte	(.L1477-.L1472)/2
 8348 0018 35       		.byte	(.L1476-.L1472)/2
 8349 0019 17       		.byte	(.L1473-.L1472)/2
 8350 001a 58       		.byte	(.L1492-.L1472)/2
 8351 001b 58       		.byte	(.L1492-.L1472)/2
 8352 001c 58       		.byte	(.L1492-.L1472)/2
 8353 001d 58       		.byte	(.L1492-.L1472)/2
 8354 001e 43       		.byte	(.L1475-.L1472)/2
 8355 001f 4A       		.byte	(.L1474-.L1472)/2
 8356 0020 58       		.byte	(.L1492-.L1472)/2
 8357 0021 58       		.byte	(.L1492-.L1472)/2
 8358 0022 58       		.byte	(.L1492-.L1472)/2
 8359 0023 58       		.byte	(.L1492-.L1472)/2
 8360 0024 58       		.byte	(.L1492-.L1472)/2
 8361 0025 58       		.byte	(.L1492-.L1472)/2
 8362 0026 58       		.byte	(.L1492-.L1472)/2
 8363 0027 58       		.byte	(.L1492-.L1472)/2
 8364 0028 58       		.byte	(.L1492-.L1472)/2
 8365 0029 58       		.byte	(.L1492-.L1472)/2
 8366 002a 58       		.byte	(.L1492-.L1472)/2
 8367 002b 58       		.byte	(.L1492-.L1472)/2
ARM GAS  /tmp/cciZhAVO.s 			page 144


 8368 002c 58       		.byte	(.L1492-.L1472)/2
 8369 002d 58       		.byte	(.L1492-.L1472)/2
 8370 002e 58       		.byte	(.L1492-.L1472)/2
 8371 002f 58       		.byte	(.L1492-.L1472)/2
 8372 0030 58       		.byte	(.L1492-.L1472)/2
 8373 0031 58       		.byte	(.L1492-.L1472)/2
 8374 0032 17       		.byte	(.L1473-.L1472)/2
 8375 0033 58       		.byte	(.L1492-.L1472)/2
 8376 0034 51       		.byte	(.L1471-.L1472)/2
 8377 0035 00       		.p2align 1
 8378              	.L1473:
 8379 0036 09B1     		cbz	r1, .L1481
 8380 0038 214B     		ldr	r3, .L1546
 8381 003a 0B60     		str	r3, [r1]
 8382              	.L1481:
 8383 003c 0AB9     		cbnz	r2, .L1482
 8384              	.L1544:
 8385 003e 0020     		movs	r0, #0
 8386 0040 7047     		bx	lr
 8387              	.L1482:
 8388 0042 204B     		ldr	r3, .L1546+4
 8389              	.L1545:
 8390 0044 1360     		str	r3, [r2]
 8391 0046 FAE7     		b	.L1544
 8392              	.L1480:
 8393 0048 09B1     		cbz	r1, .L1483
 8394 004a 1F4B     		ldr	r3, .L1546+8
 8395 004c 0B60     		str	r3, [r1]
 8396              	.L1483:
 8397 004e 002A     		cmp	r2, #0
 8398 0050 F5D0     		beq	.L1544
 8399 0052 1E4B     		ldr	r3, .L1546+12
 8400 0054 F6E7     		b	.L1545
 8401              	.L1479:
 8402 0056 09B1     		cbz	r1, .L1485
 8403 0058 1D4B     		ldr	r3, .L1546+16
 8404 005a 0B60     		str	r3, [r1]
 8405              	.L1485:
 8406 005c 002A     		cmp	r2, #0
 8407 005e EED0     		beq	.L1544
 8408 0060 1C4B     		ldr	r3, .L1546+20
 8409 0062 EFE7     		b	.L1545
 8410              	.L1478:
 8411 0064 09B1     		cbz	r1, .L1486
 8412 0066 1C4B     		ldr	r3, .L1546+24
 8413 0068 0B60     		str	r3, [r1]
 8414              	.L1486:
 8415 006a 002A     		cmp	r2, #0
 8416 006c E7D0     		beq	.L1544
 8417 006e 1B4B     		ldr	r3, .L1546+28
 8418 0070 E8E7     		b	.L1545
 8419              	.L1476:
 8420 0072 09B1     		cbz	r1, .L1487
 8421 0074 1A4B     		ldr	r3, .L1546+32
 8422 0076 0B60     		str	r3, [r1]
 8423              	.L1487:
 8424 0078 002A     		cmp	r2, #0
ARM GAS  /tmp/cciZhAVO.s 			page 145


 8425 007a E0D0     		beq	.L1544
 8426 007c 194B     		ldr	r3, .L1546+36
 8427 007e E1E7     		b	.L1545
 8428              	.L1477:
 8429 0080 09B1     		cbz	r1, .L1488
 8430 0082 194B     		ldr	r3, .L1546+40
 8431 0084 0B60     		str	r3, [r1]
 8432              	.L1488:
 8433 0086 002A     		cmp	r2, #0
 8434 0088 D9D0     		beq	.L1544
 8435 008a 184B     		ldr	r3, .L1546+44
 8436 008c DAE7     		b	.L1545
 8437              	.L1475:
 8438 008e 09B1     		cbz	r1, .L1489
 8439 0090 174B     		ldr	r3, .L1546+48
 8440 0092 0B60     		str	r3, [r1]
 8441              	.L1489:
 8442 0094 002A     		cmp	r2, #0
 8443 0096 D2D0     		beq	.L1544
 8444 0098 164B     		ldr	r3, .L1546+52
 8445 009a D3E7     		b	.L1545
 8446              	.L1474:
 8447 009c 09B1     		cbz	r1, .L1490
 8448 009e 164B     		ldr	r3, .L1546+56
 8449 00a0 0B60     		str	r3, [r1]
 8450              	.L1490:
 8451 00a2 002A     		cmp	r2, #0
 8452 00a4 CBD0     		beq	.L1544
 8453 00a6 154B     		ldr	r3, .L1546+60
 8454 00a8 CCE7     		b	.L1545
 8455              	.L1471:
 8456 00aa 09B1     		cbz	r1, .L1491
 8457 00ac 144B     		ldr	r3, .L1546+64
 8458 00ae 0B60     		str	r3, [r1]
 8459              	.L1491:
 8460 00b0 002A     		cmp	r2, #0
 8461 00b2 C4D0     		beq	.L1544
 8462 00b4 134B     		ldr	r3, .L1546+68
 8463 00b6 C5E7     		b	.L1545
 8464              	.L1492:
 8465 00b8 6FF0AC00 		mvn	r0, #172
 8466 00bc 7047     		bx	lr
 8467              	.L1547:
 8468 00be 00BF     		.align	2
 8469              	.L1546:
 8470 00c0 00000000 		.word	.LANCHOR89
 8471 00c4 00000000 		.word	.LANCHOR90
 8472 00c8 00000000 		.word	.LANCHOR91
 8473 00cc 00000000 		.word	.LANCHOR92
 8474 00d0 00000000 		.word	.LANCHOR93
 8475 00d4 00000000 		.word	.LANCHOR94
 8476 00d8 00000000 		.word	.LANCHOR95
 8477 00dc 00000000 		.word	.LANCHOR96
 8478 00e0 00000000 		.word	.LANCHOR97
 8479 00e4 00000000 		.word	.LANCHOR98
 8480 00e8 00000000 		.word	.LANCHOR99
 8481 00ec 00000000 		.word	.LANCHOR100
ARM GAS  /tmp/cciZhAVO.s 			page 146


 8482 00f0 00000000 		.word	.LANCHOR101
 8483 00f4 00000000 		.word	.LANCHOR102
 8484 00f8 00000000 		.word	.LANCHOR103
 8485 00fc 00000000 		.word	.LANCHOR104
 8486 0100 00000000 		.word	.LANCHOR105
 8487 0104 00000000 		.word	.LANCHOR106
 8489              		.section	.text.PemToDer,"ax",%progbits
 8490              		.align	1
 8491              		.global	PemToDer
 8492              		.syntax unified
 8493              		.thumb
 8494              		.thumb_func
 8495              		.fpu fpv4-sp-d16
 8497              	PemToDer:
 8498              		@ args = 12, pretend = 0, frame = 24
 8499              		@ frame_needed = 0, uses_anonymous_args = 0
 8500 0000 2DE9F04F 		push	{r4, r5, r6, r7, r8, r9, r10, fp, lr}
 8501 0004 1446     		mov	r4, r2
 8502 0006 9946     		mov	r9, r3
 8503 0008 0023     		movs	r3, #0
 8504 000a 87B0     		sub	sp, sp, #28
 8505 000c 0746     		mov	r7, r0
 8506 000e 0E46     		mov	r6, r1
 8507 0010 2046     		mov	r0, r4
 8508 0012 03AA     		add	r2, sp, #12
 8509 0014 02A9     		add	r1, sp, #8
 8510 0016 CDE90233 		strd	r3, r3, [sp, #8]
 8511 001a DDF848B0 		ldr	fp, [sp, #72]
 8512 001e 0493     		str	r3, [sp, #16]
 8513 0020 FFF7FEFF 		bl	wc_PemGetHeaderFooter
 8514 0024 0546     		mov	r5, r0
 8515 0026 0028     		cmp	r0, #0
 8516 0028 40F0C680 		bne	.L1548
 8517 002c DFF8C0A1 		ldr	r10, .L1611+48
 8518              	.L1550:
 8519 0030 3246     		mov	r2, r6
 8520 0032 3846     		mov	r0, r7
 8521 0034 0299     		ldr	r1, [sp, #8]
 8522 0036 FFF7FEFF 		bl	wolfSSL_strnstr
 8523 003a 8046     		mov	r8, r0
 8524 003c 0028     		cmp	r0, #0
 8525 003e 40F08F80 		bne	.L1551
 8526 0042 012C     		cmp	r4, #1
 8527 0044 5E4B     		ldr	r3, .L1611
 8528 0046 1AD1     		bne	.L1552
 8529 0048 5E49     		ldr	r1, .L1611+4
 8530 004a 029A     		ldr	r2, [sp, #8]
 8531 004c 8A42     		cmp	r2, r1
 8532 004e 5E49     		ldr	r1, .L1611+8
 8533 0050 03D1     		bne	.L1553
 8534 0052 5E4A     		ldr	r2, .L1611+12
 8535 0054 0291     		str	r1, [sp, #8]
 8536              	.L1607:
 8537 0056 0392     		str	r2, [sp, #12]
 8538 0058 EAE7     		b	.L1550
 8539              	.L1553:
 8540 005a 8A42     		cmp	r2, r1
ARM GAS  /tmp/cciZhAVO.s 			page 147


 8541 005c 5C49     		ldr	r1, .L1611+16
 8542 005e 02D1     		bne	.L1555
 8543 0060 5C4A     		ldr	r2, .L1611+20
 8544 0062 0291     		str	r1, [sp, #8]
 8545 0064 F7E7     		b	.L1607
 8546              	.L1555:
 8547 0066 8A42     		cmp	r2, r1
 8548 0068 5B49     		ldr	r1, .L1611+24
 8549 006a 02D1     		bne	.L1556
 8550 006c 5B4A     		ldr	r2, .L1611+28
 8551 006e 0291     		str	r1, [sp, #8]
 8552 0070 F1E7     		b	.L1607
 8553              	.L1556:
 8554 0072 8A42     		cmp	r2, r1
 8555 0074 71D1     		bne	.L1575
 8556 0076 5A4A     		ldr	r2, .L1611+32
 8557 0078 0292     		str	r2, [sp, #8]
 8558 007a 5A4A     		ldr	r2, .L1611+36
 8559 007c EBE7     		b	.L1607
 8560              	.L1552:
 8561 007e 0E2C     		cmp	r4, #14
 8562 0080 6BD1     		bne	.L1575
 8563 0082 029A     		ldr	r2, [sp, #8]
 8564 0084 5245     		cmp	r2, r10
 8565 0086 68D1     		bne	.L1575
 8566 0088 574A     		ldr	r2, .L1611+40
 8567 008a CDE90223 		strd	r2, r3, [sp, #8]
 8568 008e CFE7     		b	.L1550
 8569              	.L1561:
 8570 0090 119B     		ldr	r3, [sp, #68]
 8571 0092 1E60     		str	r6, [r3]
 8572 0094 8EE0     		b	.L1610
 8573              	.L1560:
 8574 0096 0190     		str	r0, [sp, #4]
 8575 0098 0398     		ldr	r0, [sp, #12]
 8576 009a FFF7FEFF 		bl	strlen
 8577 009e 0199     		ldr	r1, [sp, #4]
 8578 00a0 0A18     		adds	r2, r1, r0
 8579 00a2 9245     		cmp	r10, r2
 8580 00a4 15D9     		bls	.L1562
 8581 00a6 1046     		mov	r0, r2
 8582              	.L1563:
 8583 00a8 90F800C0 		ldrb	ip, [r0]	@ zero_extendqisi2
 8584 00ac 0246     		mov	r2, r0
 8585 00ae BCF10D0F 		cmp	ip, #13
 8586 00b2 00F10100 		add	r0, r0, #1
 8587 00b6 09D0     		beq	.L1564
 8588 00b8 BCF10A0F 		cmp	ip, #10
 8589 00bc 06D0     		beq	.L1564
 8590 00be 9245     		cmp	r10, r2
 8591 00c0 07D9     		bls	.L1562
 8592 00c2 BCF1000F 		cmp	ip, #0
 8593 00c6 08BF     		it	eq
 8594 00c8 0246     		moveq	r2, r0
 8595 00ca 02E0     		b	.L1562
 8596              	.L1564:
 8597 00cc 5045     		cmp	r0, r10
ARM GAS  /tmp/cciZhAVO.s 			page 148


 8598 00ce 0246     		mov	r2, r0
 8599 00d0 EAD1     		bne	.L1563
 8600              	.L1562:
 8601 00d2 119B     		ldr	r3, [sp, #68]
 8602 00d4 0BB1     		cbz	r3, .L1565
 8603 00d6 D21B     		subs	r2, r2, r7
 8604 00d8 1A60     		str	r2, [r3]
 8605              	.L1565:
 8606 00da A1EB0801 		sub	r1, r1, r8
 8607 00de 8E42     		cmp	r6, r1
 8608 00e0 68DB     		blt	.L1610
 8609 00e2 0029     		cmp	r1, #0
 8610 00e4 66DD     		ble	.L1610
 8611 00e6 2246     		mov	r2, r4
 8612 00e8 4846     		mov	r0, r9
 8613 00ea 109B     		ldr	r3, [sp, #64]
 8614 00ec 0191     		str	r1, [sp, #4]
 8615 00ee FFF7FEFF 		bl	AllocDer
 8616 00f2 061E     		subs	r6, r0, #0
 8617 00f4 2FDB     		blt	.L1577
 8618 00f6 D9F80070 		ldr	r7, [r9]
 8619 00fa 102C     		cmp	r4, #16
 8620 00fc 3B46     		mov	r3, r7
 8621 00fe 0199     		ldr	r1, [sp, #4]
 8622 0100 53F8082B 		ldr	r2, [r3], #8
 8623 0104 1EDC     		bgt	.L1567
 8624 0106 0D2C     		cmp	r4, #13
 8625 0108 02DC     		bgt	.L1568
 8626 010a 0CB1     		cbz	r4, .L1568
 8627 010c 052C     		cmp	r4, #5
 8628              	.L1609:
 8629 010e 1BD1     		bne	.L1569
 8630              	.L1568:
 8631 0110 4046     		mov	r0, r8
 8632 0112 FFF7FEFF 		bl	Base64_Decode_nonCT
 8633              	.L1608:
 8634 0116 0028     		cmp	r0, #0
 8635 0118 4CDB     		blt	.L1610
 8636 011a 029B     		ldr	r3, [sp, #8]
 8637 011c 2A4A     		ldr	r2, .L1611+8
 8638 011e 9342     		cmp	r3, r2
 8639 0120 16D1     		bne	.L1606
 8640              	.L1570:
 8641 0122 0023     		movs	r3, #0
 8642 0124 BA68     		ldr	r2, [r7, #8]
 8643 0126 0593     		str	r3, [sp, #20]
 8644 0128 3868     		ldr	r0, [r7]
 8645 012a 04AB     		add	r3, sp, #16
 8646 012c 05A9     		add	r1, sp, #20
 8647 012e FFF7FEFF 		bl	ToTraditionalInline_ex
 8648 0132 0028     		cmp	r0, #0
 8649 0134 40DD     		ble	.L1548
 8650 0136 BBF1000F 		cmp	fp, #0
 8651 013a 3DD0     		beq	.L1548
 8652 013c 049B     		ldr	r3, [sp, #16]
 8653 013e CBF80030 		str	r3, [fp]
 8654 0142 39E0     		b	.L1548
ARM GAS  /tmp/cciZhAVO.s 			page 149


 8655              	.L1567:
 8656 0144 2C2C     		cmp	r4, #44
 8657 0146 E2E7     		b	.L1609
 8658              	.L1569:
 8659 0148 4046     		mov	r0, r8
 8660 014a FFF7FEFF 		bl	Base64_Decode
 8661 014e E2E7     		b	.L1608
 8662              	.L1606:
 8663 0150 214A     		ldr	r2, .L1611+24
 8664 0152 9342     		cmp	r3, r2
 8665 0154 E5D0     		beq	.L1570
 8666              	.L1577:
 8667 0156 3546     		mov	r5, r6
 8668 0158 2EE0     		b	.L1548
 8669              	.L1575:
 8670 015a 6FF0A105 		mvn	r5, #161
 8671 015e 2BE0     		b	.L1548
 8672              	.L1551:
 8673 0160 0299     		ldr	r1, [sp, #8]
 8674 0162 07EB060A 		add	r10, r7, r6
 8675 0166 0846     		mov	r0, r1
 8676 0168 0191     		str	r1, [sp, #4]
 8677 016a FFF7FEFF 		bl	strlen
 8678 016e 0199     		ldr	r1, [sp, #4]
 8679 0170 4044     		add	r0, r0, r8
 8680              	.L1596:
 8681 0172 8245     		cmp	r10, r0
 8682 0174 8046     		mov	r8, r0
 8683 0176 05D9     		bls	.L1557
 8684 0178 10F8012B 		ldrb	r2, [r0], #1	@ zero_extendqisi2
 8685 017c 0D2A     		cmp	r2, #13
 8686 017e F8D0     		beq	.L1596
 8687 0180 0A2A     		cmp	r2, #10
 8688 0182 F6D0     		beq	.L1596
 8689              	.L1557:
 8690 0184 BBF1000F 		cmp	fp, #0
 8691 0188 07D0     		beq	.L1559
 8692 018a 012C     		cmp	r4, #1
 8693 018c 05D1     		bne	.L1559
 8694 018e 124A     		ldr	r2, .L1611+24
 8695 0190 9142     		cmp	r1, r2
 8696 0192 04BF     		itt	eq
 8697 0194 154A     		ldreq	r2, .L1611+44
 8698 0196 CBF80020 		streq	r2, [fp]
 8699              	.L1559:
 8700 019a 4046     		mov	r0, r8
 8701 019c 0399     		ldr	r1, [sp, #12]
 8702 019e AAEB0802 		sub	r2, r10, r8
 8703 01a2 FFF7FEFF 		bl	wolfSSL_strnstr
 8704 01a6 0028     		cmp	r0, #0
 8705 01a8 7FF475AF 		bne	.L1560
 8706 01ac 119B     		ldr	r3, [sp, #68]
 8707 01ae 002B     		cmp	r3, #0
 8708 01b0 7FF46EAF 		bne	.L1561
 8709              	.L1610:
 8710 01b4 6FF08305 		mvn	r5, #131
 8711              	.L1548:
ARM GAS  /tmp/cciZhAVO.s 			page 150


 8712 01b8 2846     		mov	r0, r5
 8713 01ba 07B0     		add	sp, sp, #28
 8714              		@ sp needed
 8715 01bc BDE8F08F 		pop	{r4, r5, r6, r7, r8, r9, r10, fp, pc}
 8716              	.L1612:
 8717              		.align	2
 8718              	.L1611:
 8719 01c0 00000000 		.word	.LANCHOR100
 8720 01c4 00000000 		.word	.LANCHOR95
 8721 01c8 00000000 		.word	.LANCHOR101
 8722 01cc 00000000 		.word	.LANCHOR102
 8723 01d0 00000000 		.word	.LANCHOR103
 8724 01d4 00000000 		.word	.LANCHOR104
 8725 01d8 00000000 		.word	.LANCHOR93
 8726 01dc 00000000 		.word	.LANCHOR94
 8727 01e0 00000000 		.word	.LANCHOR107
 8728 01e4 00000000 		.word	.LANCHOR108
 8729 01e8 00000000 		.word	.LANCHOR99
 8730 01ec 17844931 		.word	826901527
 8731 01f0 00000000 		.word	.LANCHOR97
 8733              		.section	.text.wc_PemToDer,"ax",%progbits
 8734              		.align	1
 8735              		.global	wc_PemToDer
 8736              		.syntax unified
 8737              		.thumb
 8738              		.thumb_func
 8739              		.fpu fpv4-sp-d16
 8741              	wc_PemToDer:
 8742              		@ args = 12, pretend = 0, frame = 0
 8743              		@ frame_needed = 0, uses_anonymous_args = 0
 8744 0000 7FB5     		push	{r0, r1, r2, r3, r4, r5, r6, lr}
 8745 0002 0A9C     		ldr	r4, [sp, #40]
 8746 0004 1646     		mov	r6, r2
 8747 0006 0294     		str	r4, [sp, #8]
 8748 0008 099C     		ldr	r4, [sp, #36]
 8749 000a 1D46     		mov	r5, r3
 8750 000c 0194     		str	r4, [sp, #4]
 8751 000e 089C     		ldr	r4, [sp, #32]
 8752 0010 0094     		str	r4, [sp]
 8753 0012 FFF7FEFF 		bl	PemToDer
 8754 0016 0446     		mov	r4, r0
 8755 0018 48B9     		cbnz	r0, .L1613
 8756 001a 012E     		cmp	r6, #1
 8757 001c 07D1     		bne	.L1613
 8758 001e 2D68     		ldr	r5, [r5]
 8759 0020 A968     		ldr	r1, [r5, #8]
 8760 0022 2868     		ldr	r0, [r5]
 8761 0024 FFF7FEFF 		bl	ToTraditional
 8762 0028 0028     		cmp	r0, #0
 8763 002a C8BF     		it	gt
 8764 002c A860     		strgt	r0, [r5, #8]
 8765              	.L1613:
 8766 002e 2046     		mov	r0, r4
 8767 0030 04B0     		add	sp, sp, #16
 8768              		@ sp needed
 8769 0032 70BD     		pop	{r4, r5, r6, pc}
 8771              		.section	.text.wc_KeyPemToDer,"ax",%progbits
ARM GAS  /tmp/cciZhAVO.s 			page 151


 8772              		.align	1
 8773              		.global	wc_KeyPemToDer
 8774              		.syntax unified
 8775              		.thumb
 8776              		.thumb_func
 8777              		.fpu fpv4-sp-d16
 8779              	wc_KeyPemToDer:
 8780              		@ args = 4, pretend = 0, frame = 16
 8781              		@ frame_needed = 0, uses_anonymous_args = 0
 8782 0000 F0B5     		push	{r4, r5, r6, r7, lr}
 8783 0002 1F46     		mov	r7, r3
 8784 0004 0023     		movs	r3, #0
 8785 0006 89B0     		sub	sp, sp, #36
 8786 0008 1646     		mov	r6, r2
 8787 000a 0446     		mov	r4, r0
 8788 000c 0793     		str	r3, [sp, #28]
 8789 000e 78B3     		cbz	r0, .L1623
 8790 0010 0AB1     		cbz	r2, .L1619
 8791 0012 9F42     		cmp	r7, r3
 8792 0014 2CDD     		ble	.L1623
 8793              	.L1619:
 8794 0016 0420     		movs	r0, #4
 8795 0018 0591     		str	r1, [sp, #20]
 8796 001a FFF7FEFF 		bl	wolfSSL_Malloc
 8797 001e 0546     		mov	r5, r0
 8798 0020 48B3     		cbz	r0, .L1624
 8799 0022 0023     		movs	r3, #0
 8800 0024 0122     		movs	r2, #1
 8801 0026 0360     		str	r3, [r0]	@ unaligned
 8802 0028 0599     		ldr	r1, [sp, #20]
 8803 002a CDE90103 		strd	r0, r3, [sp, #4]
 8804 002e 0093     		str	r3, [sp]
 8805 0030 2046     		mov	r0, r4
 8806 0032 07AB     		add	r3, sp, #28
 8807 0034 FFF7FEFF 		bl	PemToDer
 8808 0038 0446     		mov	r4, r0
 8809 003a 2846     		mov	r0, r5
 8810 003c FFF7FEFF 		bl	wolfSSL_Free
 8811 0040 002C     		cmp	r4, #0
 8812 0042 04DB     		blt	.L1620
 8813 0044 079D     		ldr	r5, [sp, #28]
 8814 0046 15B1     		cbz	r5, .L1620
 8815 0048 AA68     		ldr	r2, [r5, #8]
 8816 004a 36B9     		cbnz	r6, .L1621
 8817 004c 1446     		mov	r4, r2
 8818              	.L1620:
 8819 004e 07A8     		add	r0, sp, #28
 8820 0050 FFF7FEFF 		bl	FreeDer
 8821              	.L1617:
 8822 0054 2046     		mov	r0, r4
 8823 0056 09B0     		add	sp, sp, #36
 8824              		@ sp needed
 8825 0058 F0BD     		pop	{r4, r5, r6, r7, pc}
 8826              	.L1621:
 8827 005a 9742     		cmp	r7, r2
 8828 005c 05D3     		bcc	.L1625
 8829 005e 3046     		mov	r0, r6
ARM GAS  /tmp/cciZhAVO.s 			page 152


 8830 0060 2968     		ldr	r1, [r5]
 8831 0062 FFF7FEFF 		bl	memcpy
 8832 0066 AC68     		ldr	r4, [r5, #8]
 8833 0068 F1E7     		b	.L1620
 8834              	.L1625:
 8835 006a 6FF0AC04 		mvn	r4, #172
 8836 006e EEE7     		b	.L1620
 8837              	.L1623:
 8838 0070 6FF0AC04 		mvn	r4, #172
 8839 0074 EEE7     		b	.L1617
 8840              	.L1624:
 8841 0076 6FF07C04 		mvn	r4, #124
 8842 007a EBE7     		b	.L1617
 8844              		.section	.text.wc_CertPemToDer,"ax",%progbits
 8845              		.align	1
 8846              		.global	wc_CertPemToDer
 8847              		.syntax unified
 8848              		.thumb
 8849              		.thumb_func
 8850              		.fpu fpv4-sp-d16
 8852              	wc_CertPemToDer:
 8853              		@ args = 4, pretend = 0, frame = 8
 8854              		@ frame_needed = 0, uses_anonymous_args = 0
 8855 0000 F0B5     		push	{r4, r5, r6, r7, lr}
 8856 0002 1F46     		mov	r7, r3
 8857 0004 0023     		movs	r3, #0
 8858 0006 87B0     		sub	sp, sp, #28
 8859 0008 1646     		mov	r6, r2
 8860 000a 0593     		str	r3, [sp, #20]
 8861 000c 0C9A     		ldr	r2, [sp, #48]
 8862 000e 30B3     		cbz	r0, .L1641
 8863 0010 2EB3     		cbz	r6, .L1641
 8864 0012 9F42     		cmp	r7, r3
 8865 0014 23DD     		ble	.L1641
 8866 0016 0A2A     		cmp	r2, #10
 8867 0018 1CD9     		bls	.L1634
 8868 001a A2F12A03 		sub	r3, r2, #42
 8869 001e 012B     		cmp	r3, #1
 8870 0020 1DD8     		bhi	.L1641
 8871              	.L1635:
 8872 0022 0023     		movs	r3, #0
 8873 0024 CDE90133 		strd	r3, r3, [sp, #4]
 8874 0028 0093     		str	r3, [sp]
 8875 002a 05AB     		add	r3, sp, #20
 8876 002c FFF7FEFF 		bl	PemToDer
 8877 0030 041E     		subs	r4, r0, #0
 8878 0032 09DB     		blt	.L1636
 8879 0034 059D     		ldr	r5, [sp, #20]
 8880 0036 3DB1     		cbz	r5, .L1636
 8881 0038 AA68     		ldr	r2, [r5, #8]
 8882 003a BA42     		cmp	r2, r7
 8883 003c 12D8     		bhi	.L1642
 8884 003e 3046     		mov	r0, r6
 8885 0040 2968     		ldr	r1, [r5]
 8886 0042 FFF7FEFF 		bl	memcpy
 8887 0046 AC68     		ldr	r4, [r5, #8]
 8888              	.L1636:
ARM GAS  /tmp/cciZhAVO.s 			page 153


 8889 0048 05A8     		add	r0, sp, #20
 8890 004a FFF7FEFF 		bl	FreeDer
 8891              	.L1632:
 8892 004e 2046     		mov	r0, r4
 8893 0050 07B0     		add	sp, sp, #28
 8894              		@ sp needed
 8895 0052 F0BD     		pop	{r4, r5, r6, r7, pc}
 8896              	.L1634:
 8897 0054 40F24143 		movw	r3, #1089
 8898 0058 D340     		lsrs	r3, r3, r2
 8899 005a DB07     		lsls	r3, r3, #31
 8900 005c E1D4     		bmi	.L1635
 8901              	.L1641:
 8902 005e 6FF0AC04 		mvn	r4, #172
 8903 0062 F4E7     		b	.L1632
 8904              	.L1642:
 8905 0064 6FF0AC04 		mvn	r4, #172
 8906 0068 EEE7     		b	.L1636
 8908              		.section	.text.wc_GetPubKeyDerFromCert,"ax",%progbits
 8909              		.align	1
 8910              		.global	wc_GetPubKeyDerFromCert
 8911              		.syntax unified
 8912              		.thumb
 8913              		.thumb_func
 8914              		.fpu fpv4-sp-d16
 8916              	wc_GetPubKeyDerFromCert:
 8917              		@ args = 0, pretend = 0, frame = 0
 8918              		@ frame_needed = 0, uses_anonymous_args = 0
 8919 0000 38B5     		push	{r3, r4, r5, lr}
 8920 0002 0B46     		mov	r3, r1
 8921 0004 1446     		mov	r4, r2
 8922 0006 0546     		mov	r5, r0
 8923 0008 50B1     		cbz	r0, .L1655
 8924 000a 4AB1     		cbz	r2, .L1655
 8925 000c 09B1     		cbz	r1, .L1648
 8926 000e 1268     		ldr	r2, [r2]
 8927 0010 32B1     		cbz	r2, .L1655
 8928              	.L1648:
 8929 0012 2968     		ldr	r1, [r5]
 8930 0014 21B1     		cbz	r1, .L1655
 8931 0016 6A68     		ldr	r2, [r5, #4]
 8932 0018 2BB1     		cbz	r3, .L1649
 8933 001a 2068     		ldr	r0, [r4]
 8934 001c 9042     		cmp	r0, r2
 8935 001e 06D2     		bcs	.L1659
 8936              	.L1655:
 8937 0020 6FF0AC00 		mvn	r0, #172
 8938 0024 02E0     		b	.L1646
 8939              	.L1649:
 8940 0026 6FF0C900 		mvn	r0, #201
 8941 002a 2260     		str	r2, [r4]
 8942              	.L1646:
 8943 002c 38BD     		pop	{r3, r4, r5, pc}
 8944              	.L1659:
 8945 002e 1846     		mov	r0, r3
 8946 0030 FFF7FEFF 		bl	memcpy
 8947 0034 6B68     		ldr	r3, [r5, #4]
ARM GAS  /tmp/cciZhAVO.s 			page 154


 8948 0036 0020     		movs	r0, #0
 8949 0038 2360     		str	r3, [r4]
 8950 003a F7E7     		b	.L1646
 8952              		.section	.text.StoreECC_DSA_Sig,"ax",%progbits
 8953              		.align	1
 8954              		.global	StoreECC_DSA_Sig
 8955              		.syntax unified
 8956              		.thumb
 8957              		.thumb_func
 8958              		.fpu fpv4-sp-d16
 8960              	StoreECC_DSA_Sig:
 8961              		@ args = 0, pretend = 0, frame = 64
 8962              		@ frame_needed = 0, uses_anonymous_args = 0
 8963 0000 F0B5     		push	{r4, r5, r6, r7, lr}
 8964 0002 91B0     		sub	sp, sp, #68
 8965 0004 1746     		mov	r7, r2
 8966 0006 0646     		mov	r6, r0
 8967 0008 3C22     		movs	r2, #60
 8968 000a 0D46     		mov	r5, r1
 8969 000c 01A8     		add	r0, sp, #4
 8970 000e 0021     		movs	r1, #0
 8971 0010 1C46     		mov	r4, r3
 8972 0012 FFF7FEFF 		bl	memset
 8973 0016 0823     		movs	r3, #8
 8974 0018 0322     		movs	r2, #3
 8975 001a 8DF82830 		strb	r3, [sp, #40]
 8976 001e 8DF83C30 		strb	r3, [sp, #60]
 8977 0022 1248     		ldr	r0, .L1665
 8978 0024 6B46     		mov	r3, sp
 8979 0026 01A9     		add	r1, sp, #4
 8980 0028 0D94     		str	r4, [sp, #52]
 8981 002a 0897     		str	r7, [sp, #32]
 8982 002c FFF7FEFF 		bl	SizeASN_Items
 8983 0030 0446     		mov	r4, r0
 8984 0032 78B9     		cbnz	r0, .L1660
 8985 0034 2A68     		ldr	r2, [r5]
 8986 0036 009B     		ldr	r3, [sp]
 8987 0038 9A42     		cmp	r2, r3
 8988 003a 0EDB     		blt	.L1662
 8989 003c 3346     		mov	r3, r6
 8990 003e 0322     		movs	r2, #3
 8991 0040 0A48     		ldr	r0, .L1665
 8992 0042 01A9     		add	r1, sp, #4
 8993 0044 FFF7FEFF 		bl	SetASN_Items
 8994 0048 0028     		cmp	r0, #0
 8995 004a 09DB     		blt	.L1663
 8996 004c 009B     		ldr	r3, [sp]
 8997 004e 8342     		cmp	r3, r0
 8998 0050 08D1     		bne	.L1664
 8999 0052 2B60     		str	r3, [r5]
 9000              	.L1660:
 9001 0054 2046     		mov	r0, r4
 9002 0056 11B0     		add	sp, sp, #68
 9003              		@ sp needed
 9004 0058 F0BD     		pop	{r4, r5, r6, r7, pc}
 9005              	.L1662:
 9006 005a 6FF08304 		mvn	r4, #131
ARM GAS  /tmp/cciZhAVO.s 			page 155


 9007 005e F9E7     		b	.L1660
 9008              	.L1663:
 9009 0060 0446     		mov	r4, r0
 9010 0062 F7E7     		b	.L1660
 9011              	.L1664:
 9012 0064 6FF0BF04 		mvn	r4, #191
 9013 0068 F4E7     		b	.L1660
 9014              	.L1666:
 9015 006a 00BF     		.align	2
 9016              	.L1665:
 9017 006c 00000000 		.word	.LANCHOR109
 9019              		.section	.text.StoreECC_DSA_Sig_Bin,"ax",%progbits
 9020              		.align	1
 9021              		.global	StoreECC_DSA_Sig_Bin
 9022              		.syntax unified
 9023              		.thumb
 9024              		.thumb_func
 9025              		.fpu fpv4-sp-d16
 9027              	StoreECC_DSA_Sig_Bin:
 9028              		@ args = 8, pretend = 0, frame = 64
 9029              		@ frame_needed = 0, uses_anonymous_args = 0
 9030 0000 2DE9F041 		push	{r4, r5, r6, r7, r8, lr}
 9031 0004 1446     		mov	r4, r2
 9032 0006 90B0     		sub	sp, sp, #64
 9033 0008 3C22     		movs	r2, #60
 9034 000a 0746     		mov	r7, r0
 9035 000c 0E46     		mov	r6, r1
 9036 000e 01A8     		add	r0, sp, #4
 9037 0010 0021     		movs	r1, #0
 9038 0012 1D46     		mov	r5, r3
 9039 0014 DDF85C80 		ldr	r8, [sp, #92]
 9040 0018 FFF7FEFF 		bl	memset
 9041 001c 2246     		mov	r2, r4
 9042              	.L1668:
 9043 001e 012D     		cmp	r5, #1
 9044 0020 1146     		mov	r1, r2
 9045 0022 14D8     		bhi	.L1669
 9046              	.L1672:
 9047 0024 169B     		ldr	r3, [sp, #88]
 9048              	.L1670:
 9049 0026 B8F1010F 		cmp	r8, #1
 9050 002a 1A46     		mov	r2, r3
 9051 002c 15D8     		bhi	.L1673
 9052              	.L1677:
 9053 002e CDE90815 		strd	r1, r5, [sp, #32]
 9054 0032 CDE90D28 		strd	r2, r8, [sp, #52]
 9055 0036 6B46     		mov	r3, sp
 9056 0038 0322     		movs	r2, #3
 9057 003a 1348     		ldr	r0, .L1679
 9058 003c 01A9     		add	r1, sp, #4
 9059 003e FFF7FEFF 		bl	SizeASN_Items
 9060 0042 0446     		mov	r4, r0
 9061 0044 80B1     		cbz	r0, .L1674
 9062              	.L1667:
 9063 0046 2046     		mov	r0, r4
 9064 0048 10B0     		add	sp, sp, #64
 9065              		@ sp needed
ARM GAS  /tmp/cciZhAVO.s 			page 156


 9066 004a BDE8F081 		pop	{r4, r5, r6, r7, r8, pc}
 9067              	.L1669:
 9068 004e 0B78     		ldrb	r3, [r1]	@ zero_extendqisi2
 9069 0050 0132     		adds	r2, r2, #1
 9070 0052 002B     		cmp	r3, #0
 9071 0054 E6D1     		bne	.L1672
 9072 0056 013D     		subs	r5, r5, #1
 9073 0058 E1E7     		b	.L1668
 9074              	.L1673:
 9075 005a 1078     		ldrb	r0, [r2]	@ zero_extendqisi2
 9076 005c 0133     		adds	r3, r3, #1
 9077 005e 0028     		cmp	r0, #0
 9078 0060 E5D1     		bne	.L1677
 9079 0062 08F1FF38 		add	r8, r8, #-1
 9080 0066 DEE7     		b	.L1670
 9081              	.L1674:
 9082 0068 3268     		ldr	r2, [r6]
 9083 006a 009B     		ldr	r3, [sp]
 9084 006c 9A42     		cmp	r2, r3
 9085 006e 08DB     		blt	.L1678
 9086 0070 3B46     		mov	r3, r7
 9087 0072 0322     		movs	r2, #3
 9088 0074 0448     		ldr	r0, .L1679
 9089 0076 01A9     		add	r1, sp, #4
 9090 0078 FFF7FEFF 		bl	SetASN_Items
 9091 007c 009B     		ldr	r3, [sp]
 9092 007e 3360     		str	r3, [r6]
 9093 0080 E1E7     		b	.L1667
 9094              	.L1678:
 9095 0082 6FF08304 		mvn	r4, #131
 9096 0086 DEE7     		b	.L1667
 9097              	.L1680:
 9098              		.align	2
 9099              	.L1679:
 9100 0088 00000000 		.word	.LANCHOR109
 9102              		.section	.text.DecodeECC_DSA_Sig_Bin,"ax",%progbits
 9103              		.align	1
 9104              		.global	DecodeECC_DSA_Sig_Bin
 9105              		.syntax unified
 9106              		.thumb
 9107              		.thumb_func
 9108              		.fpu fpv4-sp-d16
 9110              	DecodeECC_DSA_Sig_Bin:
 9111              		@ args = 8, pretend = 0, frame = 88
 9112              		@ frame_needed = 0, uses_anonymous_args = 0
 9113 0000 F0B5     		push	{r4, r5, r6, r7, lr}
 9114 0002 0D46     		mov	r5, r1
 9115 0004 0021     		movs	r1, #0
 9116 0006 9BB0     		sub	sp, sp, #108
 9117 0008 0446     		mov	r4, r0
 9118 000a 1746     		mov	r7, r2
 9119 000c 05A8     		add	r0, sp, #20
 9120 000e 5422     		movs	r2, #84
 9121 0010 1E46     		mov	r6, r3
 9122 0012 0491     		str	r1, [sp, #16]
 9123 0014 FFF7FEFF 		bl	memset
 9124 0018 0523     		movs	r3, #5
ARM GAS  /tmp/cciZhAVO.s 			page 157


 9125 001a 8DF84830 		strb	r3, [sp, #72]
 9126 001e 8DF86430 		strb	r3, [sp, #100]
 9127 0022 209B     		ldr	r3, [sp, #128]
 9128 0024 0322     		movs	r2, #3
 9129 0026 1593     		str	r3, [sp, #84]
 9130 0028 219B     		ldr	r3, [sp, #132]
 9131 002a 0295     		str	r5, [sp, #8]
 9132 002c 1693     		str	r3, [sp, #88]
 9133 002e 04AB     		add	r3, sp, #16
 9134 0030 CDE90043 		strd	r4, r3, [sp]
 9135 0034 05A9     		add	r1, sp, #20
 9136 0036 0123     		movs	r3, #1
 9137 0038 0348     		ldr	r0, .L1682
 9138 003a CDE90E76 		strd	r7, r6, [sp, #56]
 9139 003e FFF7FEFF 		bl	GetASN_Items
 9140 0042 1BB0     		add	sp, sp, #108
 9141              		@ sp needed
 9142 0044 F0BD     		pop	{r4, r5, r6, r7, pc}
 9143              	.L1683:
 9144 0046 00BF     		.align	2
 9145              	.L1682:
 9146 0048 00000000 		.word	.LANCHOR109
 9148              		.section	.text.DecodeECC_DSA_Sig_Ex,"ax",%progbits
 9149              		.align	1
 9150              		.global	DecodeECC_DSA_Sig_Ex
 9151              		.syntax unified
 9152              		.thumb
 9153              		.thumb_func
 9154              		.fpu fpv4-sp-d16
 9156              	DecodeECC_DSA_Sig_Ex:
 9157              		@ args = 4, pretend = 0, frame = 88
 9158              		@ frame_needed = 0, uses_anonymous_args = 0
 9159 0000 F0B5     		push	{r4, r5, r6, r7, lr}
 9160 0002 0E46     		mov	r6, r1
 9161 0004 0021     		movs	r1, #0
 9162 0006 9BB0     		sub	sp, sp, #108
 9163 0008 0746     		mov	r7, r0
 9164 000a 1546     		mov	r5, r2
 9165 000c 05A8     		add	r0, sp, #20
 9166 000e 5422     		movs	r2, #84
 9167 0010 1C46     		mov	r4, r3
 9168 0012 0491     		str	r1, [sp, #16]
 9169 0014 FFF7FEFF 		bl	memset
 9170 0018 209B     		ldr	r3, [sp, #128]
 9171 001a F3B1     		cbz	r3, .L1685
 9172 001c 0823     		movs	r3, #8
 9173              	.L1689:
 9174 001e 8DF84830 		strb	r3, [sp, #72]
 9175 0022 8DF86430 		strb	r3, [sp, #100]
 9176 0026 04AB     		add	r3, sp, #16
 9177 0028 CDE90073 		strd	r7, r3, [sp]
 9178 002c 0322     		movs	r2, #3
 9179 002e 0023     		movs	r3, #0
 9180 0030 0B48     		ldr	r0, .L1690
 9181 0032 0296     		str	r6, [sp, #8]
 9182 0034 05A9     		add	r1, sp, #20
 9183 0036 0E95     		str	r5, [sp, #56]
ARM GAS  /tmp/cciZhAVO.s 			page 158


 9184 0038 1594     		str	r4, [sp, #84]
 9185 003a FFF7FEFF 		bl	GetASN_Items
 9186 003e 10B9     		cbnz	r0, .L1687
 9187 0040 049B     		ldr	r3, [sp, #16]
 9188 0042 B342     		cmp	r3, r6
 9189 0044 07D0     		beq	.L1684
 9190              	.L1687:
 9191 0046 2846     		mov	r0, r5
 9192 0048 FFF7FEFF 		bl	sp_clear
 9193 004c 2046     		mov	r0, r4
 9194 004e FFF7FEFF 		bl	sp_clear
 9195 0052 6FF0AA00 		mvn	r0, #170
 9196              	.L1684:
 9197 0056 1BB0     		add	sp, sp, #108
 9198              		@ sp needed
 9199 0058 F0BD     		pop	{r4, r5, r6, r7, pc}
 9200              	.L1685:
 9201 005a 0923     		movs	r3, #9
 9202 005c DFE7     		b	.L1689
 9203              	.L1691:
 9204 005e 00BF     		.align	2
 9205              	.L1690:
 9206 0060 00000000 		.word	.LANCHOR109
 9208              		.section	.text.DecodeECC_DSA_Sig,"ax",%progbits
 9209              		.align	1
 9210              		.global	DecodeECC_DSA_Sig
 9211              		.syntax unified
 9212              		.thumb
 9213              		.thumb_func
 9214              		.fpu fpv4-sp-d16
 9216              	DecodeECC_DSA_Sig:
 9217              		@ args = 0, pretend = 0, frame = 0
 9218              		@ frame_needed = 0, uses_anonymous_args = 0
 9219 0000 13B5     		push	{r0, r1, r4, lr}
 9220 0002 0124     		movs	r4, #1
 9221 0004 0094     		str	r4, [sp]
 9222 0006 FFF7FEFF 		bl	DecodeECC_DSA_Sig_Ex
 9223 000a 02B0     		add	sp, sp, #8
 9224              		@ sp needed
 9225 000c 10BD     		pop	{r4, pc}
 9227              		.section	.text.wc_EccPrivateKeyDecode,"ax",%progbits
 9228              		.align	1
 9229              		.global	wc_EccPrivateKeyDecode
 9230              		.syntax unified
 9231              		.thumb
 9232              		.thumb_func
 9233              		.fpu fpv4-sp-d16
 9235              	wc_EccPrivateKeyDecode:
 9236              		@ args = 0, pretend = 0, frame = 16
 9237              		@ frame_needed = 0, uses_anonymous_args = 0
 9238 0000 2DE9F047 		push	{r4, r5, r6, r7, r8, r9, r10, lr}
 9239 0004 0024     		movs	r4, #0
 9240 0006 88B0     		sub	sp, sp, #32
 9241 0008 8846     		mov	r8, r1
 9242 000a 1746     		mov	r7, r2
 9243 000c 9946     		mov	r9, r3
 9244 000e 8246     		mov	r10, r0
ARM GAS  /tmp/cciZhAVO.s 			page 159


 9245 0010 CDE90644 		strd	r4, r4, [sp, #24]
 9246 0014 8DF81740 		strb	r4, [sp, #23]
 9247 0018 F8B1     		cbz	r0, .L1704
 9248 001a F1B1     		cbz	r1, .L1704
 9249 001c EAB1     		cbz	r2, .L1704
 9250 001e A342     		cmp	r3, r4
 9251 0020 08BF     		it	eq
 9252 0022 6FF0AC04 		mvneq	r4, #172
 9253              	.L1694:
 9254 0026 07AB     		add	r3, sp, #28
 9255 0028 0093     		str	r3, [sp]
 9256 002a 4A46     		mov	r2, r9
 9257 002c 4146     		mov	r1, r8
 9258 002e 5046     		mov	r0, r10
 9259 0030 06AB     		add	r3, sp, #24
 9260 0032 FFF7FEFF 		bl	ToTraditionalInline_ex2
 9261 0036 0028     		cmp	r0, #0
 9262 0038 12DB     		blt	.L1706
 9263 003a 0022     		movs	r2, #0
 9264 003c 0798     		ldr	r0, [sp, #28]
 9265 003e 1146     		mov	r1, r2
 9266 0040 FFF7FEFF 		bl	wc_ecc_get_oid
 9267 0044 0646     		mov	r6, r0
 9268              	.L1695:
 9269 0046 002C     		cmp	r4, #0
 9270 0048 47D1     		bne	.L1693
 9271 004a E020     		movs	r0, #224
 9272 004c FFF7FEFF 		bl	wolfSSL_Malloc
 9273 0050 0546     		mov	r5, r0
 9274 0052 68B9     		cbnz	r0, .L1714
 9275 0054 6FF07C04 		mvn	r4, #124
 9276 0058 3FE0     		b	.L1693
 9277              	.L1704:
 9278 005a 6FF0AC04 		mvn	r4, #172
 9279 005e E2E7     		b	.L1694
 9280              	.L1706:
 9281 0060 0026     		movs	r6, #0
 9282 0062 F0E7     		b	.L1695
 9283              	.L1709:
 9284 0064 6FF08B04 		mvn	r4, #139
 9285 0068 34E0     		b	.L1700
 9286              	.L1710:
 9287 006a 6FF0AB04 		mvn	r4, #171
 9288 006e 31E0     		b	.L1700
 9289              	.L1714:
 9290 0070 2146     		mov	r1, r4
 9291 0072 E022     		movs	r2, #224
 9292 0074 FFF7FEFF 		bl	memset
 9293 0078 0DF11702 		add	r2, sp, #23
 9294 007c 6A62     		str	r2, [r5, #36]
 9295 007e 0123     		movs	r3, #1
 9296 0080 0322     		movs	r2, #3
 9297 0082 85F83430 		strb	r3, [r5, #52]
 9298 0086 C5F88020 		str	r2, [r5, #128]
 9299 008a 2946     		mov	r1, r5
 9300 008c 0822     		movs	r2, #8
 9301 008e CDE90189 		strd	r8, r9, [sp, #4]
ARM GAS  /tmp/cciZhAVO.s 			page 160


 9302 0092 1448     		ldr	r0, .L1715
 9303 0094 CDF800A0 		str	r10, [sp]
 9304 0098 FFF7FEFF 		bl	GetASN_Items
 9305 009c 0446     		mov	r4, r0
 9306 009e C8B9     		cbnz	r0, .L1700
 9307 00a0 9DF81730 		ldrb	r3, [sp, #23]	@ zero_extendqisi2
 9308 00a4 012B     		cmp	r3, #1
 9309 00a6 DDD1     		bne	.L1709
 9310 00a8 95F86D30 		ldrb	r3, [r5, #109]	@ zero_extendqisi2
 9311 00ac 4BB1     		cbz	r3, .L1699
 9312 00ae 95F88930 		ldrb	r3, [r5, #137]	@ zero_extendqisi2
 9313 00b2 002B     		cmp	r3, #0
 9314 00b4 D6D0     		beq	.L1709
 9315 00b6 D5F88400 		ldr	r0, [r5, #132]
 9316 00ba FFF7FEFF 		bl	CheckCurve
 9317 00be 061E     		subs	r6, r0, #0
 9318 00c0 D3DB     		blt	.L1710
 9319              	.L1699:
 9320 00c2 CDE90076 		strd	r7, r6, [sp]
 9321 00c6 D5E93323 		ldrd	r2, r3, [r5, #204]
 9322 00ca D5E91001 		ldrd	r0, r1, [r5, #64]
 9323 00ce FFF7FEFF 		bl	wc_ecc_import_private_key_ex
 9324 00d2 0446     		mov	r4, r0
 9325              	.L1700:
 9326 00d4 2846     		mov	r0, r5
 9327 00d6 FFF7FEFF 		bl	wolfSSL_Free
 9328              	.L1693:
 9329 00da 2046     		mov	r0, r4
 9330 00dc 08B0     		add	sp, sp, #32
 9331              		@ sp needed
 9332 00de BDE8F087 		pop	{r4, r5, r6, r7, r8, r9, r10, pc}
 9333              	.L1716:
 9334 00e2 00BF     		.align	2
 9335              	.L1715:
 9336 00e4 00000000 		.word	.LANCHOR110
 9338              		.section	.text.wc_CheckPrivateKey,"ax",%progbits
 9339              		.align	1
 9340              		.global	wc_CheckPrivateKey
 9341              		.syntax unified
 9342              		.thumb
 9343              		.thumb_func
 9344              		.fpu fpv4-sp-d16
 9346              	wc_CheckPrivateKey:
 9347              		@ args = 8, pretend = 0, frame = 8
 9348              		@ frame_needed = 0, uses_anonymous_args = 0
 9349 0000 2DE9F04F 		push	{r4, r5, r6, r7, r8, r9, r10, fp, lr}
 9350 0004 85B0     		sub	sp, sp, #20
 9351 0006 8946     		mov	r9, r1
 9352 0008 1646     		mov	r6, r2
 9353 000a 9846     		mov	r8, r3
 9354 000c 0746     		mov	r7, r0
 9355 000e DDF83CA0 		ldr	r10, [sp, #60]
 9356 0012 0028     		cmp	r0, #0
 9357 0014 5ED0     		beq	.L1725
 9358 0016 002A     		cmp	r2, #0
 9359 0018 5CD0     		beq	.L1725
 9360 001a 0E9A     		ldr	r2, [sp, #56]
ARM GAS  /tmp/cciZhAVO.s 			page 161


 9361 001c 2F4B     		ldr	r3, .L1729
 9362 001e 0024     		movs	r4, #0
 9363 0020 9A42     		cmp	r2, r3
 9364 0022 22D1     		bne	.L1717
 9365 0024 4FF0200B 		mov	fp, #32
 9366 0028 4FF41B70 		mov	r0, #620
 9367 002c CDE902B4 		strd	fp, r4, [sp, #8]
 9368 0030 FFF7FEFF 		bl	wolfSSL_Malloc
 9369 0034 0546     		mov	r5, r0
 9370 0036 38B1     		cbz	r0, .L1727
 9371 0038 5846     		mov	r0, fp
 9372 003a FFF7FEFF 		bl	wolfSSL_Malloc
 9373 003e 8346     		mov	fp, r0
 9374 0040 28B9     		cbnz	r0, .L1720
 9375 0042 2846     		mov	r0, r5
 9376 0044 FFF7FEFF 		bl	wolfSSL_Free
 9377              	.L1727:
 9378 0048 6FF07C04 		mvn	r4, #124
 9379 004c 0DE0     		b	.L1717
 9380              	.L1720:
 9381 004e 6FF00102 		mvn	r2, #1
 9382 0052 5146     		mov	r1, r10
 9383 0054 2846     		mov	r0, r5
 9384 0056 FFF7FEFF 		bl	wc_ecc_init_ex
 9385 005a 041E     		subs	r4, r0, #0
 9386 005c 09DA     		bge	.L1721
 9387              	.L1728:
 9388 005e 5846     		mov	r0, fp
 9389 0060 FFF7FEFF 		bl	wolfSSL_Free
 9390 0064 2846     		mov	r0, r5
 9391 0066 FFF7FEFF 		bl	wolfSSL_Free
 9392              	.L1717:
 9393 006a 2046     		mov	r0, r4
 9394 006c 05B0     		add	sp, sp, #20
 9395              		@ sp needed
 9396 006e BDE8F08F 		pop	{r4, r5, r6, r7, r8, r9, r10, fp, pc}
 9397              	.L1721:
 9398 0072 4B46     		mov	r3, r9
 9399 0074 2A46     		mov	r2, r5
 9400 0076 3846     		mov	r0, r7
 9401 0078 03A9     		add	r1, sp, #12
 9402 007a FFF7FEFF 		bl	wc_EccPrivateKeyDecode
 9403 007e 0446     		mov	r4, r0
 9404 0080 20BB     		cbnz	r0, .L1722
 9405 0082 5946     		mov	r1, fp
 9406 0084 2846     		mov	r0, r5
 9407 0086 02AA     		add	r2, sp, #8
 9408 0088 FFF7FEFF 		bl	wc_ecc_export_private_only
 9409 008c 0446     		mov	r4, r0
 9410 008e E8B9     		cbnz	r0, .L1722
 9411 0090 2846     		mov	r0, r5
 9412 0092 FFF7FEFF 		bl	wc_ecc_free
 9413 0096 6FF00102 		mvn	r2, #1
 9414 009a 5146     		mov	r1, r10
 9415 009c 2846     		mov	r0, r5
 9416 009e FFF7FEFF 		bl	wc_ecc_init_ex
 9417 00a2 0446     		mov	r4, r0
ARM GAS  /tmp/cciZhAVO.s 			page 162


 9418 00a4 70B9     		cbnz	r0, .L1723
 9419 00a6 4346     		mov	r3, r8
 9420 00a8 3246     		mov	r2, r6
 9421 00aa 5846     		mov	r0, fp
 9422 00ac 0299     		ldr	r1, [sp, #8]
 9423 00ae 0095     		str	r5, [sp]
 9424 00b0 FFF7FEFF 		bl	wc_ecc_import_private_key
 9425 00b4 0446     		mov	r4, r0
 9426 00b6 28B9     		cbnz	r0, .L1723
 9427 00b8 2846     		mov	r0, r5
 9428 00ba FFF7FEFF 		bl	wc_ecc_check_key
 9429 00be 041E     		subs	r4, r0, #0
 9430 00c0 08BF     		it	eq
 9431 00c2 0124     		moveq	r4, #1
 9432              	.L1723:
 9433 00c4 5846     		mov	r0, fp
 9434 00c6 0299     		ldr	r1, [sp, #8]
 9435 00c8 FFF7FEFF 		bl	ForceZero
 9436              	.L1722:
 9437 00cc 2846     		mov	r0, r5
 9438 00ce FFF7FEFF 		bl	wc_ecc_free
 9439 00d2 C4E7     		b	.L1728
 9440              	.L1725:
 9441 00d4 6FF0AC04 		mvn	r4, #172
 9442 00d8 C7E7     		b	.L1717
 9443              	.L1730:
 9444 00da 00BF     		.align	2
 9445              	.L1729:
 9446 00dc 17844931 		.word	826901527
 9448              		.section	.text.wc_CheckPrivateKeyCert,"ax",%progbits
 9449              		.align	1
 9450              		.global	wc_CheckPrivateKeyCert
 9451              		.syntax unified
 9452              		.thumb
 9453              		.thumb_func
 9454              		.fpu fpv4-sp-d16
 9456              	wc_CheckPrivateKeyCert:
 9457              		@ args = 4, pretend = 0, frame = 0
 9458              		@ frame_needed = 0, uses_anonymous_args = 0
 9459 0000 07B5     		push	{r0, r1, r2, lr}
 9460 0002 58B1     		cbz	r0, .L1734
 9461 0004 52B1     		cbz	r2, .L1734
 9462 0006 049B     		ldr	r3, [sp, #16]
 9463 0008 0193     		str	r3, [sp, #4]
 9464 000a D369     		ldr	r3, [r2, #28]
 9465 000c 0093     		str	r3, [sp]
 9466 000e D2E90023 		ldrd	r2, r3, [r2]
 9467 0012 FFF7FEFF 		bl	wc_CheckPrivateKey
 9468              	.L1731:
 9469 0016 03B0     		add	sp, sp, #12
 9470              		@ sp needed
 9471 0018 5DF804FB 		ldr	pc, [sp], #4
 9472              	.L1734:
 9473 001c 6FF0AC00 		mvn	r0, #172
 9474 0020 F9E7     		b	.L1731
 9476              		.section	.text.wc_GetKeyOID,"ax",%progbits
 9477              		.align	1
ARM GAS  /tmp/cciZhAVO.s 			page 163


 9478              		.global	wc_GetKeyOID
 9479              		.syntax unified
 9480              		.thumb
 9481              		.thumb_func
 9482              		.fpu fpv4-sp-d16
 9484              	wc_GetKeyOID:
 9485              		@ args = 8, pretend = 0, frame = 8
 9486              		@ frame_needed = 0, uses_anonymous_args = 0
 9487 0000 2DE9F347 		push	{r0, r1, r4, r5, r6, r7, r8, r9, r10, lr}
 9488 0004 4FF0000A 		mov	r10, #0
 9489 0008 8946     		mov	r9, r1
 9490 000a 1746     		mov	r7, r2
 9491 000c 9846     		mov	r8, r3
 9492 000e 0646     		mov	r6, r0
 9493 0010 0A9D     		ldr	r5, [sp, #40]
 9494 0012 CDF804A0 		str	r10, [sp, #4]
 9495 0016 30B3     		cbz	r0, .L1736
 9496 0018 2DB3     		cbz	r5, .L1736
 9497 001a 4FF41B70 		mov	r0, #620
 9498 001e C5F800A0 		str	r10, [r5]
 9499 0022 FFF7FEFF 		bl	wolfSSL_Malloc
 9500 0026 0446     		mov	r4, r0
 9501 0028 68B3     		cbz	r0, .L1739
 9502 002a 6FF00102 		mvn	r2, #1
 9503 002e 0B99     		ldr	r1, [sp, #44]
 9504 0030 CDF804A0 		str	r10, [sp, #4]
 9505 0034 FFF7FEFF 		bl	wc_ecc_init_ex
 9506 0038 4B46     		mov	r3, r9
 9507 003a 2246     		mov	r2, r4
 9508 003c 3046     		mov	r0, r6
 9509 003e 01A9     		add	r1, sp, #4
 9510 0040 FFF7FEFF 		bl	wc_EccPrivateKeyDecode
 9511 0044 A0B9     		cbnz	r0, .L1738
 9512 0046 114B     		ldr	r3, .L1747
 9513 0048 4246     		mov	r2, r8
 9514 004a 2B60     		str	r3, [r5]
 9515 004c 2369     		ldr	r3, [r4, #16]
 9516 004e 3946     		mov	r1, r7
 9517 0050 D86A     		ldr	r0, [r3, #44]
 9518 0052 FFF7FEFF 		bl	wc_ecc_get_oid
 9519 0056 5045     		cmp	r0, r10
 9520 0058 0ADA     		bge	.L1738
 9521 005a 2046     		mov	r0, r4
 9522 005c FFF7FEFF 		bl	wc_ecc_free
 9523 0060 2046     		mov	r0, r4
 9524 0062 FFF7FEFF 		bl	wolfSSL_Free
 9525              	.L1736:
 9526 0066 6FF0AC00 		mvn	r0, #172
 9527              	.L1735:
 9528 006a 02B0     		add	sp, sp, #8
 9529              		@ sp needed
 9530 006c BDE8F087 		pop	{r4, r5, r6, r7, r8, r9, r10, pc}
 9531              	.L1738:
 9532 0070 2046     		mov	r0, r4
 9533 0072 FFF7FEFF 		bl	wc_ecc_free
 9534 0076 2046     		mov	r0, r4
 9535 0078 FFF7FEFF 		bl	wolfSSL_Free
ARM GAS  /tmp/cciZhAVO.s 			page 164


 9536 007c 2B68     		ldr	r3, [r5]
 9537 007e 002B     		cmp	r3, #0
 9538 0080 F1D0     		beq	.L1736
 9539 0082 0120     		movs	r0, #1
 9540 0084 F1E7     		b	.L1735
 9541              	.L1739:
 9542 0086 6FF07C00 		mvn	r0, #124
 9543 008a EEE7     		b	.L1735
 9544              	.L1748:
 9545              		.align	2
 9546              	.L1747:
 9547 008c 17844931 		.word	826901527
 9549              		.section	.text.TraditionalEnc_ex,"ax",%progbits
 9550              		.align	1
 9551              		.global	TraditionalEnc_ex
 9552              		.syntax unified
 9553              		.thumb
 9554              		.thumb_func
 9555              		.fpu fpv4-sp-d16
 9557              	TraditionalEnc_ex:
 9558              		@ args = 44, pretend = 0, frame = 16
 9559              		@ frame_needed = 0, uses_anonymous_args = 0
 9560 0000 2DE9F047 		push	{r4, r5, r6, r7, r8, r9, r10, lr}
 9561 0004 0025     		movs	r5, #0
 9562 0006 90B0     		sub	sp, sp, #64
 9563 0008 DDF88890 		ldr	r9, [sp, #136]
 9564 000c 9846     		mov	r8, r3
 9565 000e 0DAB     		add	r3, sp, #52
 9566 0010 0093     		str	r3, [sp]
 9567 0012 1746     		mov	r7, r2
 9568 0014 CDF80490 		str	r9, [sp, #4]
 9569 0018 0FAB     		add	r3, sp, #60
 9570 001a 0EAA     		add	r2, sp, #56
 9571 001c 0646     		mov	r6, r0
 9572 001e 8A46     		mov	r10, r1
 9573 0020 CDE90C55 		strd	r5, r5, [sp, #48]
 9574 0024 CDE90E55 		strd	r5, r5, [sp, #56]
 9575 0028 FFF7FEFF 		bl	wc_GetKeyOID
 9576 002c 0128     		cmp	r0, #1
 9577 002e 0446     		mov	r4, r0
 9578 0030 4BD8     		bhi	.L1749
 9579 0032 0F9B     		ldr	r3, [sp, #60]
 9580 0034 3246     		mov	r2, r6
 9581 0036 0293     		str	r3, [sp, #8]
 9582 0038 0E9B     		ldr	r3, [sp, #56]
 9583 003a 2846     		mov	r0, r5
 9584 003c 0193     		str	r3, [sp, #4]
 9585 003e 0D9B     		ldr	r3, [sp, #52]
 9586 0040 0CA9     		add	r1, sp, #48
 9587 0042 0093     		str	r3, [sp]
 9588 0044 5346     		mov	r3, r10
 9589 0046 FFF7FEFF 		bl	wc_CreatePKCS8Key
 9590 004a 10F1CA0F 		cmn	r0, #202
 9591 004e 0446     		mov	r4, r0
 9592 0050 01D0     		beq	.L1751
 9593 0052 0028     		cmp	r0, #0
 9594 0054 39D1     		bne	.L1749
ARM GAS  /tmp/cciZhAVO.s 			page 165


 9595              	.L1751:
 9596 0056 0C98     		ldr	r0, [sp, #48]
 9597 0058 FFF7FEFF 		bl	wolfSSL_Malloc
 9598 005c 0546     		mov	r5, r0
 9599 005e 10B9     		cbnz	r0, .L1763
 9600 0060 6FF07C04 		mvn	r4, #124
 9601 0064 31E0     		b	.L1749
 9602              	.L1763:
 9603 0066 0F9B     		ldr	r3, [sp, #60]
 9604 0068 3246     		mov	r2, r6
 9605 006a 0293     		str	r3, [sp, #8]
 9606 006c 0E9B     		ldr	r3, [sp, #56]
 9607 006e 0CA9     		add	r1, sp, #48
 9608 0070 0193     		str	r3, [sp, #4]
 9609 0072 0D9B     		ldr	r3, [sp, #52]
 9610 0074 0093     		str	r3, [sp]
 9611 0076 5346     		mov	r3, r10
 9612 0078 FFF7FEFF 		bl	wc_CreatePKCS8Key
 9613 007c 041E     		subs	r4, r0, #0
 9614 007e 1DDB     		blt	.L1755
 9615 0080 219B     		ldr	r3, [sp, #132]
 9616 0082 2146     		mov	r1, r4
 9617 0084 0993     		str	r3, [sp, #36]
 9618 0086 209B     		ldr	r3, [sp, #128]
 9619 0088 3A46     		mov	r2, r7
 9620 008a 0893     		str	r3, [sp, #32]
 9621 008c 1F9B     		ldr	r3, [sp, #124]
 9622 008e 2846     		mov	r0, r5
 9623 0090 0793     		str	r3, [sp, #28]
 9624 0092 1E9B     		ldr	r3, [sp, #120]
 9625 0094 0C94     		str	r4, [sp, #48]
 9626 0096 0693     		str	r3, [sp, #24]
 9627 0098 1D9B     		ldr	r3, [sp, #116]
 9628 009a CDF82890 		str	r9, [sp, #40]
 9629 009e 0593     		str	r3, [sp, #20]
 9630 00a0 1C9B     		ldr	r3, [sp, #112]
 9631 00a2 0493     		str	r3, [sp, #16]
 9632 00a4 1B9B     		ldr	r3, [sp, #108]
 9633 00a6 0393     		str	r3, [sp, #12]
 9634 00a8 1A9B     		ldr	r3, [sp, #104]
 9635 00aa 0293     		str	r3, [sp, #8]
 9636 00ac 199B     		ldr	r3, [sp, #100]
 9637 00ae 0193     		str	r3, [sp, #4]
 9638 00b0 189B     		ldr	r3, [sp, #96]
 9639 00b2 0093     		str	r3, [sp]
 9640 00b4 4346     		mov	r3, r8
 9641 00b6 FFF7FEFF 		bl	wc_EncryptPKCS8Key_ex
 9642 00ba 0446     		mov	r4, r0
 9643              	.L1755:
 9644 00bc 2846     		mov	r0, r5
 9645 00be 0C99     		ldr	r1, [sp, #48]
 9646 00c0 FFF7FEFF 		bl	ForceZero
 9647 00c4 2846     		mov	r0, r5
 9648 00c6 FFF7FEFF 		bl	wolfSSL_Free
 9649              	.L1749:
 9650 00ca 2046     		mov	r0, r4
 9651 00cc 10B0     		add	sp, sp, #64
ARM GAS  /tmp/cciZhAVO.s 			page 166


 9652              		@ sp needed
 9653 00ce BDE8F087 		pop	{r4, r5, r6, r7, r8, r9, r10, pc}
 9655              		.section	.text.TraditionalEnc,"ax",%progbits
 9656              		.align	1
 9657              		.global	TraditionalEnc
 9658              		.syntax unified
 9659              		.thumb
 9660              		.thumb_func
 9661              		.fpu fpv4-sp-d16
 9663              	TraditionalEnc:
 9664              		@ args = 40, pretend = 0, frame = 0
 9665              		@ frame_needed = 0, uses_anonymous_args = 0
 9666 0000 10B5     		push	{r4, lr}
 9667 0002 8CB0     		sub	sp, sp, #48
 9668 0004 179C     		ldr	r4, [sp, #92]
 9669 0006 0A94     		str	r4, [sp, #40]
 9670 0008 169C     		ldr	r4, [sp, #88]
 9671 000a 0994     		str	r4, [sp, #36]
 9672 000c 0024     		movs	r4, #0
 9673 000e 0894     		str	r4, [sp, #32]
 9674 0010 159C     		ldr	r4, [sp, #84]
 9675 0012 0794     		str	r4, [sp, #28]
 9676 0014 149C     		ldr	r4, [sp, #80]
 9677 0016 0694     		str	r4, [sp, #24]
 9678 0018 139C     		ldr	r4, [sp, #76]
 9679 001a 0594     		str	r4, [sp, #20]
 9680 001c 129C     		ldr	r4, [sp, #72]
 9681 001e 0494     		str	r4, [sp, #16]
 9682 0020 119C     		ldr	r4, [sp, #68]
 9683 0022 0394     		str	r4, [sp, #12]
 9684 0024 109C     		ldr	r4, [sp, #64]
 9685 0026 0294     		str	r4, [sp, #8]
 9686 0028 0F9C     		ldr	r4, [sp, #60]
 9687 002a 0194     		str	r4, [sp, #4]
 9688 002c 0E9C     		ldr	r4, [sp, #56]
 9689 002e 0094     		str	r4, [sp]
 9690 0030 FFF7FEFF 		bl	TraditionalEnc_ex
 9691 0034 0CB0     		add	sp, sp, #48
 9692              		@ sp needed
 9693 0036 10BD     		pop	{r4, pc}
 9695              		.section	.text.UnTraditionalEnc,"ax",%progbits
 9696              		.align	1
 9697              		.global	UnTraditionalEnc
 9698              		.syntax unified
 9699              		.thumb
 9700              		.thumb_func
 9701              		.fpu fpv4-sp-d16
 9703              	UnTraditionalEnc:
 9704              		@ args = 36, pretend = 0, frame = 0
 9705              		@ frame_needed = 0, uses_anonymous_args = 0
 9706 0000 10B5     		push	{r4, lr}
 9707 0002 8AB0     		sub	sp, sp, #40
 9708 0004 149C     		ldr	r4, [sp, #80]
 9709 0006 0994     		str	r4, [sp, #36]
 9710 0008 139C     		ldr	r4, [sp, #76]
 9711 000a 0894     		str	r4, [sp, #32]
 9712 000c 129C     		ldr	r4, [sp, #72]
ARM GAS  /tmp/cciZhAVO.s 			page 167


 9713 000e 0794     		str	r4, [sp, #28]
 9714 0010 119C     		ldr	r4, [sp, #68]
 9715 0012 0694     		str	r4, [sp, #24]
 9716 0014 109C     		ldr	r4, [sp, #64]
 9717 0016 0594     		str	r4, [sp, #20]
 9718 0018 0024     		movs	r4, #0
 9719 001a 0494     		str	r4, [sp, #16]
 9720 001c 0F9C     		ldr	r4, [sp, #60]
 9721 001e 0394     		str	r4, [sp, #12]
 9722 0020 0E9C     		ldr	r4, [sp, #56]
 9723 0022 0294     		str	r4, [sp, #8]
 9724 0024 0D9C     		ldr	r4, [sp, #52]
 9725 0026 0194     		str	r4, [sp, #4]
 9726 0028 0C9C     		ldr	r4, [sp, #48]
 9727 002a 0094     		str	r4, [sp]
 9728 002c FFF7FEFF 		bl	TraditionalEnc
 9729 0030 0AB0     		add	sp, sp, #40
 9730              		@ sp needed
 9731 0032 10BD     		pop	{r4, pc}
 9733              		.section	.text.wc_CreateEncryptedPKCS8Key,"ax",%progbits
 9734              		.align	1
 9735              		.global	wc_CreateEncryptedPKCS8Key
 9736              		.syntax unified
 9737              		.thumb
 9738              		.thumb_func
 9739              		.fpu fpv4-sp-d16
 9741              	wc_CreateEncryptedPKCS8Key:
 9742              		@ args = 40, pretend = 0, frame = 0
 9743              		@ frame_needed = 0, uses_anonymous_args = 0
 9744              		@ link register save eliminated.
 9745 0000 FFF7FEBF 		b	TraditionalEnc
 9747              		.section	.text.wc_EccPublicKeyDecode,"ax",%progbits
 9748              		.align	1
 9749              		.global	wc_EccPublicKeyDecode
 9750              		.syntax unified
 9751              		.thumb
 9752              		.thumb_func
 9753              		.fpu fpv4-sp-d16
 9755              	wc_EccPublicKeyDecode:
 9756              		@ args = 0, pretend = 0, frame = 0
 9757              		@ frame_needed = 0, uses_anonymous_args = 0
 9758 0000 2DE9FF47 		push	{r0, r1, r2, r3, r4, r5, r6, r7, r8, r9, r10, lr}
 9759 0004 8946     		mov	r9, r1
 9760 0006 1746     		mov	r7, r2
 9761 0008 9A46     		mov	r10, r3
 9762 000a 8046     		mov	r8, r0
 9763 000c 0028     		cmp	r0, #0
 9764 000e 39D0     		beq	.L1777
 9765 0010 C1B3     		cbz	r1, .L1777
 9766 0012 BAB3     		cbz	r2, .L1777
 9767 0014 B3B3     		cbz	r3, .L1777
 9768 0016 E020     		movs	r0, #224
 9769 0018 FFF7FEFF 		bl	wolfSSL_Malloc
 9770 001c 0446     		mov	r4, r0
 9771 001e A0B3     		cbz	r0, .L1778
 9772 0020 A822     		movs	r2, #168
 9773 0022 0021     		movs	r1, #0
ARM GAS  /tmp/cciZhAVO.s 			page 168


 9774 0024 FFF7FEFF 		bl	memset
 9775 0028 0726     		movs	r6, #7
 9776 002a 0622     		movs	r2, #6
 9777 002c 0325     		movs	r5, #3
 9778 002e 274B     		ldr	r3, .L1782
 9779 0030 84F85020 		strb	r2, [r4, #80]
 9780 0034 2364     		str	r3, [r4, #64]
 9781 0036 6664     		str	r6, [r4, #68]
 9782 0038 6566     		str	r5, [r4, #100]
 9783 003a 0123     		movs	r3, #1
 9784 003c 2146     		mov	r1, r4
 9785 003e CDE9019A 		strd	r9, r10, [sp, #4]
 9786 0042 2348     		ldr	r0, .L1782+4
 9787 0044 CDF80080 		str	r8, [sp]
 9788 0048 FFF7FEFF 		bl	GetASN_Items
 9789 004c 60B3     		cbz	r0, .L1779
 9790 004e E022     		movs	r2, #224
 9791 0050 0021     		movs	r1, #0
 9792 0052 2046     		mov	r0, r4
 9793 0054 FFF7FEFF 		bl	memset
 9794 0058 C4F88050 		str	r5, [r4, #128]
 9795 005c 0123     		movs	r3, #1
 9796 005e 0822     		movs	r2, #8
 9797 0060 2146     		mov	r1, r4
 9798 0062 CDE9019A 		strd	r9, r10, [sp, #4]
 9799 0066 1B48     		ldr	r0, .L1782+8
 9800 0068 CDF80080 		str	r8, [sp]
 9801 006c FFF7FEFF 		bl	GetASN_Items
 9802 0070 50B3     		cbz	r0, .L1780
 9803              	.L1773:
 9804 0072 6FF08B05 		mvn	r5, #139
 9805              	.L1770:
 9806 0076 2046     		mov	r0, r4
 9807 0078 FFF7FEFF 		bl	wolfSSL_Free
 9808              	.L1767:
 9809 007c 2846     		mov	r0, r5
 9810 007e 04B0     		add	sp, sp, #16
 9811              		@ sp needed
 9812 0080 BDE8F087 		pop	{r4, r5, r6, r7, r8, r9, r10, pc}
 9813              	.L1777:
 9814 0084 6FF0AC05 		mvn	r5, #172
 9815 0088 F8E7     		b	.L1767
 9816              	.L1778:
 9817 008a 6FF07C05 		mvn	r5, #124
 9818 008e F5E7     		b	.L1767
 9819              	.L1771:
 9820 0090 08FB0646 		mla	r6, r8, r6, r4
 9821 0094 3A46     		mov	r2, r7
 9822 0096 D6E90201 		ldrd	r0, r1, [r6, #8]
 9823 009a FFF7FEFF 		bl	wc_ecc_import_x963_ex
 9824 009e 051E     		subs	r5, r0, #0
 9825 00a0 18BF     		it	ne
 9826 00a2 6FF0AA05 		mvnne	r5, #170
 9827 00a6 E6E7     		b	.L1770
 9828              	.L1779:
 9829 00a8 0526     		movs	r6, #5
 9830              	.L1769:
ARM GAS  /tmp/cciZhAVO.s 			page 169


 9831 00aa 4FF01C08 		mov	r8, #28
 9832 00ae 08FB0545 		mla	r5, r8, r5, r4
 9833 00b2 6B7E     		ldrb	r3, [r5, #25]	@ zero_extendqisi2
 9834 00b4 002B     		cmp	r3, #0
 9835 00b6 DCD0     		beq	.L1773
 9836 00b8 6869     		ldr	r0, [r5, #20]
 9837 00ba FFF7FEFF 		bl	CheckCurve
 9838 00be 031E     		subs	r3, r0, #0
 9839 00c0 E6DA     		bge	.L1771
 9840 00c2 6FF08F05 		mvn	r5, #143
 9841 00c6 D6E7     		b	.L1770
 9842              	.L1780:
 9843 00c8 0425     		movs	r5, #4
 9844 00ca EEE7     		b	.L1769
 9845              	.L1783:
 9846              		.align	2
 9847              	.L1782:
 9848 00cc 00000000 		.word	.LANCHOR19
 9849 00d0 00000000 		.word	.LANCHOR74
 9850 00d4 00000000 		.word	.LANCHOR110
 9852              		.section	.text.ConfirmSignature,"ax",%progbits
 9853              		.align	1
 9854              		.global	ConfirmSignature
 9855              		.syntax unified
 9856              		.thumb
 9857              		.thumb_func
 9858              		.fpu fpv4-sp-d16
 9860              	ConfirmSignature:
 9861              		@ args = 32, pretend = 0, frame = 16
 9862              		@ frame_needed = 0, uses_anonymous_args = 0
 9863 0000 2DE9F04F 		push	{r4, r5, r6, r7, r8, r9, r10, fp, lr}
 9864 0004 87B0     		sub	sp, sp, #28
 9865 0006 0C46     		mov	r4, r1
 9866 0008 DDE910A6 		ldrd	r10, r6, [sp, #64]
 9867 000c DDE91289 		ldrd	r8, r9, [sp, #72]
 9868 0010 1146     		mov	r1, r2
 9869 0012 1F46     		mov	r7, r3
 9870 0014 0546     		mov	r5, r0
 9871 0016 DDF850B0 		ldr	fp, [sp, #80]
 9872 001a 0028     		cmp	r0, #0
 9873 001c 00F00781 		beq	.L1813
 9874 0020 002C     		cmp	r4, #0
 9875 0022 00F00481 		beq	.L1813
 9876 0026 002A     		cmp	r2, #0
 9877 0028 00F00181 		beq	.L1813
 9878 002c 002B     		cmp	r3, #0
 9879 002e 00F0FE80 		beq	.L1813
 9880 0032 BAF1000F 		cmp	r10, #0
 9881 0036 00F0FA80 		beq	.L1813
 9882 003a B8F1000F 		cmp	r8, #0
 9883 003e 00F0F680 		beq	.L1813
 9884 0042 B9F1000F 		cmp	r9, #0
 9885 0046 00F0F280 		beq	.L1813
 9886 004a 4369     		ldr	r3, [r0, #20]
 9887 004c 042B     		cmp	r3, #4
 9888 004e 00F2E280 		bhi	.L1814
 9889 0052 DFE813F0 		tbh	[pc, r3, lsl #1]
ARM GAS  /tmp/cciZhAVO.s 			page 170


 9890              	.L1788:
 9891 0056 0500     		.2byte	(.L1792-.L1788)/2
 9892 0058 1100     		.2byte	(.L1791-.L1788)/2
 9893 005a 7700     		.2byte	(.L1790-.L1788)/2
 9894 005c DD00     		.2byte	(.L1789-.L1788)/2
 9895 005e E300     		.2byte	(.L1815-.L1788)/2
 9896              		.p2align 1
 9897              	.L1792:
 9898 0060 0662     		str	r6, [r0, #32]
 9899 0062 4020     		movs	r0, #64
 9900 0064 0391     		str	r1, [sp, #12]
 9901 0066 FFF7FEFF 		bl	wolfSSL_Malloc
 9902 006a 6860     		str	r0, [r5, #4]
 9903 006c 0028     		cmp	r0, #0
 9904 006e 00F0D880 		beq	.L1816
 9905 0072 0123     		movs	r3, #1
 9906 0074 0399     		ldr	r1, [sp, #12]
 9907 0076 6B61     		str	r3, [r5, #20]
 9908              	.L1791:
 9909 0078 DFF8D4C1 		ldr	ip, .L1824+28
 9910 007c 2869     		ldr	r0, [r5, #16]
 9911 007e E345     		cmp	fp, ip
 9912 0080 D5E90032 		ldrd	r3, r2, [r5]
 9913 0084 14D8     		bhi	.L1818
 9914 0086 ACF10F0C 		sub	ip, ip, #15
 9915 008a E345     		cmp	fp, ip
 9916 008c 13D8     		bhi	.L1793
 9917 008e DFF8C4C1 		ldr	ip, .L1824+32
 9918 0092 E345     		cmp	fp, ip
 9919 0094 40D0     		beq	.L1794
 9920 0096 37D8     		bhi	.L1795
 9921 0098 0CF1644C 		add	ip, ip, #-469762048
 9922 009c 0CF57E0C 		add	ip, ip, #16646144
 9923 00a0 E345     		cmp	fp, ip
 9924 00a2 43D0     		beq	.L1796
 9925 00a4 0CF5FF3C 		add	ip, ip, #130560
 9926 00a8 0CF2FB1C 		addw	ip, ip, #507
 9927 00ac E345     		cmp	fp, ip
 9928 00ae 3DD0     		beq	.L1796
 9929              	.L1818:
 9930 00b0 6FF0E704 		mvn	r4, #231
 9931 00b4 61E0     		b	.L1786
 9932              	.L1793:
 9933 00b6 DFF8A0C1 		ldr	ip, .L1824+36
 9934 00ba DC44     		add	ip, ip, fp
 9935 00bc BCF10E0F 		cmp	ip, #14
 9936 00c0 F6D8     		bhi	.L1818
 9937 00c2 0FF2080E 		adr	lr, .L1797
 9938 00c6 5EF82CF0 		ldr	pc, [lr, ip, lsl #2]
 9939 00ca 00BF     		.p2align 2
 9940              	.L1797:
 9941 00cc C7010000 		.word	.L1799+1
 9942 00d0 B1000000 		.word	.L1818+1
 9943 00d4 B1000000 		.word	.L1818+1
 9944 00d8 B1000000 		.word	.L1818+1
 9945 00dc B1000000 		.word	.L1818+1
 9946 00e0 B1000000 		.word	.L1818+1
ARM GAS  /tmp/cciZhAVO.s 			page 171


 9947 00e4 9F010000 		.word	.L1801+1
 9948 00e8 B1010000 		.word	.L1800+1
 9949 00ec B1000000 		.word	.L1818+1
 9950 00f0 89010000 		.word	.L1798+1
 9951 00f4 9F010000 		.word	.L1801+1
 9952 00f8 B1010000 		.word	.L1800+1
 9953 00fc C7010000 		.word	.L1799+1
 9954 0100 89010000 		.word	.L1798+1
 9955 0104 19010000 		.word	.L1794+1
 9956              		.p2align 1
 9957              	.L1795:
 9958 0108 DFF850C1 		ldr	ip, .L1824+40
 9959 010c E345     		cmp	fp, ip
 9960 010e 0DD0     		beq	.L1796
 9961 0110 0CF1020C 		add	ip, ip, #2
 9962 0114 E345     		cmp	fp, ip
 9963 0116 CBD1     		bne	.L1818
 9964              	.L1794:
 9965 0118 0090     		str	r0, [sp]
 9966 011a 2046     		mov	r0, r4
 9967 011c FFF7FEFF 		bl	wc_Sha256Hash_ex
 9968 0120 0446     		mov	r4, r0
 9969 0122 50BB     		cbnz	r0, .L1786
 9970 0124 434B     		ldr	r3, .L1824
 9971              	.L1823:
 9972 0126 AB61     		str	r3, [r5, #24]
 9973 0128 2023     		movs	r3, #32
 9974 012a 08E0     		b	.L1821
 9975              	.L1796:
 9976 012c 0090     		str	r0, [sp]
 9977 012e 2046     		mov	r0, r4
 9978 0130 FFF7FEFF 		bl	wc_ShaHash_ex
 9979 0134 0446     		mov	r4, r0
 9980 0136 00BB     		cbnz	r0, .L1786
 9981 0138 3F4B     		ldr	r3, .L1824+4
 9982 013a AB61     		str	r3, [r5, #24]
 9983 013c 1423     		movs	r3, #20
 9984              	.L1821:
 9985 013e EB61     		str	r3, [r5, #28]
 9986 0140 0223     		movs	r3, #2
 9987 0142 6B61     		str	r3, [r5, #20]
 9988              	.L1790:
 9989 0144 3D4B     		ldr	r3, .L1824+8
 9990 0146 9E42     		cmp	r6, r3
 9991 0148 6ED1     		bne	.L1819
 9992 014a 0023     		movs	r3, #0
 9993 014c 4FF41B70 		mov	r0, #620
 9994 0150 AB60     		str	r3, [r5, #8]
 9995 0152 0593     		str	r3, [sp, #20]
 9996 0154 FFF7FEFF 		bl	wolfSSL_Malloc
 9997 0158 E860     		str	r0, [r5, #12]
 9998 015a 0028     		cmp	r0, #0
 9999 015c 61D0     		beq	.L1816
 10000 015e 2A69     		ldr	r2, [r5, #16]
 10001 0160 2968     		ldr	r1, [r5]
 10002 0162 FFF7FEFF 		bl	wc_ecc_init_ex
 10003 0166 041E     		subs	r4, r0, #0
ARM GAS  /tmp/cciZhAVO.s 			page 172


 10004 0168 07DB     		blt	.L1786
 10005 016a 5346     		mov	r3, r10
 10006 016c 3846     		mov	r0, r7
 10007 016e EA68     		ldr	r2, [r5, #12]
 10008 0170 05A9     		add	r1, sp, #20
 10009 0172 FFF7FEFF 		bl	wc_EccPublicKeyDecode
 10010 0176 041E     		subs	r4, r0, #0
 10011 0178 30DA     		bge	.L1804
 10012              	.L1786:
 10013 017a 2846     		mov	r0, r5
 10014 017c FFF7FEFF 		bl	FreeSignatureCtx
 10015              	.L1784:
 10016 0180 2046     		mov	r0, r4
 10017 0182 07B0     		add	sp, sp, #28
 10018              		@ sp needed
 10019 0184 BDE8F08F 		pop	{r4, r5, r6, r7, r8, r9, r10, fp, pc}
 10020              	.L1798:
 10021 0188 0090     		str	r0, [sp]
 10022 018a 2046     		mov	r0, r4
 10023 018c FFF7FEFF 		bl	wc_Sha3_224Hash_ex
 10024 0190 0446     		mov	r4, r0
 10025 0192 0028     		cmp	r0, #0
 10026 0194 F1D1     		bne	.L1786
 10027 0196 2A4B     		ldr	r3, .L1824+12
 10028 0198 AB61     		str	r3, [r5, #24]
 10029 019a 1C23     		movs	r3, #28
 10030 019c CFE7     		b	.L1821
 10031              	.L1801:
 10032 019e 0090     		str	r0, [sp]
 10033 01a0 2046     		mov	r0, r4
 10034 01a2 FFF7FEFF 		bl	wc_Sha3_256Hash_ex
 10035 01a6 0446     		mov	r4, r0
 10036 01a8 0028     		cmp	r0, #0
 10037 01aa E6D1     		bne	.L1786
 10038 01ac 254B     		ldr	r3, .L1824+16
 10039 01ae BAE7     		b	.L1823
 10040              	.L1800:
 10041 01b0 0090     		str	r0, [sp]
 10042 01b2 2046     		mov	r0, r4
 10043 01b4 FFF7FEFF 		bl	wc_Sha3_384Hash_ex
 10044 01b8 0446     		mov	r4, r0
 10045 01ba 0028     		cmp	r0, #0
 10046 01bc DDD1     		bne	.L1786
 10047 01be 224B     		ldr	r3, .L1824+20
 10048 01c0 AB61     		str	r3, [r5, #24]
 10049 01c2 3023     		movs	r3, #48
 10050 01c4 BBE7     		b	.L1821
 10051              	.L1799:
 10052 01c6 0090     		str	r0, [sp]
 10053 01c8 2046     		mov	r0, r4
 10054 01ca FFF7FEFF 		bl	wc_Sha3_512Hash_ex
 10055 01ce 0446     		mov	r4, r0
 10056 01d0 0028     		cmp	r0, #0
 10057 01d2 D2D1     		bne	.L1786
 10058 01d4 1D4B     		ldr	r3, .L1824+24
 10059 01d6 AB61     		str	r3, [r5, #24]
 10060 01d8 4023     		movs	r3, #64
ARM GAS  /tmp/cciZhAVO.s 			page 173


 10061 01da B0E7     		b	.L1821
 10062              	.L1804:
 10063 01dc CDD1     		bne	.L1786
 10064 01de 0323     		movs	r3, #3
 10065 01e0 6B61     		str	r3, [r5, #20]
 10066              	.L1805:
 10067 01e2 EB68     		ldr	r3, [r5, #12]
 10068 01e4 4946     		mov	r1, r9
 10069 01e6 0193     		str	r3, [sp, #4]
 10070 01e8 05F10803 		add	r3, r5, #8
 10071 01ec 0093     		str	r3, [sp]
 10072 01ee 4046     		mov	r0, r8
 10073 01f0 EB69     		ldr	r3, [r5, #28]
 10074 01f2 6A68     		ldr	r2, [r5, #4]
 10075 01f4 FFF7FEFF 		bl	wc_ecc_verify_hash
 10076 01f8 041E     		subs	r4, r0, #0
 10077 01fa 0CDB     		blt	.L1814
 10078 01fc 0423     		movs	r3, #4
 10079 01fe 6B61     		str	r3, [r5, #20]
 10080              	.L1787:
 10081 0200 0E4B     		ldr	r3, .L1824+8
 10082 0202 9E42     		cmp	r6, r3
 10083 0204 B9D1     		bne	.L1786
 10084 0206 AB68     		ldr	r3, [r5, #8]
 10085 0208 012B     		cmp	r3, #1
 10086 020a 04D1     		bne	.L1814
 10087 020c 0024     		movs	r4, #0
 10088 020e B4E7     		b	.L1786
 10089              	.L1789:
 10090 0210 0A4B     		ldr	r3, .L1824+8
 10091 0212 9E42     		cmp	r6, r3
 10092 0214 E5D0     		beq	.L1805
 10093              	.L1814:
 10094 0216 6FF09A04 		mvn	r4, #154
 10095 021a AEE7     		b	.L1786
 10096              	.L1815:
 10097 021c 6FF09A04 		mvn	r4, #154
 10098 0220 EEE7     		b	.L1787
 10099              	.L1816:
 10100 0222 6FF07C04 		mvn	r4, #124
 10101 0226 A8E7     		b	.L1786
 10102              	.L1819:
 10103 0228 6FF09304 		mvn	r4, #147
 10104 022c A5E7     		b	.L1786
 10105              	.L1813:
 10106 022e 6FF0AC04 		mvn	r4, #172
 10107 0232 A5E7     		b	.L1784
 10108              	.L1825:
 10109              		.align	2
 10110              	.L1824:
 10111 0234 FB7AB37C 		.word	2092137211
 10112 0238 31F1037D 		.word	2097410353
 10113 023c 17844931 		.word	826901527
 10114 0240 FD7AB37C 		.word	2092137213
 10115 0244 F27AB37C 		.word	2092137202
 10116 0248 F37AB37C 		.word	2092137203
 10117 024c F07AB37C 		.word	2092137200
ARM GAS  /tmp/cciZhAVO.s 			page 174


 10118 0250 F87AB37D 		.word	2108914424
 10119 0254 17824B4C 		.word	1280016919
 10120 0258 16854C82 		.word	-2108914410
 10121 025c 2774B678 		.word	2025223207
 10123              		.section	.rodata.ParseCertRelative.str1.1,"aMS",%progbits,1
 10124              	.LC10:
 10125 0000 01020400 		.ascii	"\001\002\004\000"
 10126              		.section	.text.ParseCertRelative,"ax",%progbits
 10127              		.align	1
 10128              		.global	ParseCertRelative
 10129              		.syntax unified
 10130              		.thumb
 10131              		.thumb_func
 10132              		.fpu fpv4-sp-d16
 10134              	ParseCertRelative:
 10135              		@ args = 4, pretend = 0, frame = 32
 10136              		@ frame_needed = 0, uses_anonymous_args = 0
 10137 0000 2DE9F04F 		push	{r4, r5, r6, r7, r8, r9, r10, fp, lr}
 10138 0004 0F46     		mov	r7, r1
 10139 0006 1646     		mov	r6, r2
 10140 0008 9846     		mov	r8, r3
 10141 000a 0446     		mov	r4, r0
 10142 000c 91B0     		sub	sp, sp, #68
 10143 000e 0028     		cmp	r0, #0
 10144 0010 00F06081 		beq	.L1867
 10145 0014 D0F84833 		ldr	r3, [r0, #840]
 10146 0018 002B     		cmp	r3, #0
 10147 001a 40F0F280 		bne	.L1868
 10148 001e 3146     		mov	r1, r6
 10149 0020 00F55772 		add	r2, r0, #860
 10150 0024 FFF7FEFF 		bl	DecodeCert
 10151 0028 00F19703 		add	r3, r0, #151
 10152 002c 012B     		cmp	r3, #1
 10153 002e 0546     		mov	r5, r0
 10154 0030 78D8     		bhi	.L1829
 10155 0032 052E     		cmp	r6, #5
 10156 0034 08BF     		it	eq
 10157 0036 0025     		moveq	r5, #0
 10158 0038 C4F85803 		str	r0, [r4, #856]
 10159              	.L1830:
 10160 003c 94F86033 		ldrb	r3, [r4, #864]	@ zero_extendqisi2
 10161 0040 03F09002 		and	r2, r3, #144
 10162 0044 802A     		cmp	r2, #128
 10163 0046 04D1     		bne	.L1831
 10164 0048 B4F80223 		ldrh	r2, [r4, #770]
 10165 004c 5207     		lsls	r2, r2, #29
 10166 004e 00F14481 		bmi	.L1869
 10167              	.L1831:
 10168 0052 9807     		lsls	r0, r3, #30
 10169 0054 12D4     		bmi	.L1832
 10170 0056 2068     		ldr	r0, [r4]
 10171 0058 80B1     		cbz	r0, .L1832
 10172 005a 6168     		ldr	r1, [r4, #4]
 10173 005c 71B1     		cbz	r1, .L1832
 10174 005e A369     		ldr	r3, [r4, #24]
 10175 0060 A44D     		ldr	r5, .L1951
 10176 0062 04F53372 		add	r2, r4, #716
ARM GAS  /tmp/cciZhAVO.s 			page 175


 10177 0066 AB42     		cmp	r3, r5
 10178 0068 02BF     		ittt	eq
 10179 006a A1F14103 		subeq	r3, r1, #65
 10180 006e C018     		addeq	r0, r0, r3
 10181 0070 4121     		moveq	r1, #65
 10182 0072 FFF7FEFF 		bl	wc_ShaHash
 10183 0076 0546     		mov	r5, r0
 10184 0078 0028     		cmp	r0, #0
 10185 007a 55D1     		bne	.L1826
 10186              	.L1832:
 10187 007c 94F86233 		ldrb	r3, [r4, #866]	@ zero_extendqisi2
 10188 0080 9907     		lsls	r1, r3, #30
 10189 0082 04D5     		bpl	.L1835
 10190 0084 56B3     		cbz	r6, .L1837
 10191 0086 062F     		cmp	r7, #6
 10192 0088 28D0     		beq	.L1837
 10193 008a 112F     		cmp	r7, #17
 10194 008c 26D0     		beq	.L1837
 10195              	.L1835:
 10196 008e 0023     		movs	r3, #0
 10197 0090 C4F83033 		str	r3, [r4, #816]
 10198 0094 94F86033 		ldrb	r3, [r4, #864]	@ zero_extendqisi2
 10199 0098 5A07     		lsls	r2, r3, #29
 10200 009a 49D4     		bmi	.L1839
 10201              	.L1842:
 10202 009c 94F86033 		ldrb	r3, [r4, #864]	@ zero_extendqisi2
 10203 00a0 9B07     		lsls	r3, r3, #30
 10204 00a2 4FD4     		bmi	.L1840
 10205              	.L1843:
 10206 00a4 D4F83013 		ldr	r1, [r4, #816]
 10207 00a8 04F14C09 		add	r9, r4, #76
 10208 00ac 41B1     		cbz	r1, .L1844
 10209 00ae 1422     		movs	r2, #20
 10210 00b0 4846     		mov	r0, r9
 10211 00b2 2431     		adds	r1, r1, #36
 10212 00b4 FFF7FEFF 		bl	memcmp
 10213 00b8 80B1     		cbz	r0, .L1837
 10214 00ba 0023     		movs	r3, #0
 10215 00bc C4F83033 		str	r3, [r4, #816]
 10216              	.L1844:
 10217 00c0 4946     		mov	r1, r9
 10218 00c2 4046     		mov	r0, r8
 10219 00c4 FFF7FEFF 		bl	GetCAByName
 10220 00c8 C4F83003 		str	r0, [r4, #816]
 10221 00cc 30B1     		cbz	r0, .L1837
 10222 00ce 94F86033 		ldrb	r3, [r4, #864]	@ zero_extendqisi2
 10223 00d2 5807     		lsls	r0, r3, #29
 10224 00d4 44BF     		itt	mi
 10225 00d6 0023     		movmi	r3, #0
 10226 00d8 C4F83033 		strmi	r3, [r4, #816]
 10227              	.L1837:
 10228 00dc 94F86033 		ldrb	r3, [r4, #864]	@ zero_extendqisi2
 10229 00e0 9906     		lsls	r1, r3, #26
 10230 00e2 44BF     		itt	mi
 10231 00e4 B4F8FC22 		ldrhmi	r2, [r4, #764]
 10232 00e8 A4F8FE22 		strhmi	r2, [r4, #766]	@ movhi
 10233 00ec 94F86223 		ldrb	r2, [r4, #866]	@ zero_extendqisi2
ARM GAS  /tmp/cciZhAVO.s 			page 176


 10234 00f0 9207     		lsls	r2, r2, #30
 10235 00f2 43D4     		bmi	.L1828
 10236 00f4 002F     		cmp	r7, #0
 10237 00f6 00F0F880 		beq	.L1846
 10238 00fa 03F09003 		and	r3, r3, #144
 10239 00fe 902B     		cmp	r3, #144
 10240 0100 3CD1     		bne	.L1828
 10241 0102 B4F80233 		ldrh	r3, [r4, #770]
 10242 0106 5B07     		lsls	r3, r3, #29
 10243 0108 38D5     		bpl	.L1828
 10244 010a D4F83033 		ldr	r3, [r4, #816]
 10245 010e 002B     		cmp	r3, #0
 10246 0110 34D0     		beq	.L1828
 10247 0112 5B89     		ldrh	r3, [r3, #10]
 10248 0114 03BB     		cbnz	r3, .L1847
 10249 0116 A4F8FE32 		strh	r3, [r4, #766]	@ movhi
 10250 011a 002E     		cmp	r6, #0
 10251 011c 7BD0     		beq	.L1848
 10252 011e 6FF0ED05 		mvn	r5, #237
 10253 0122 01E0     		b	.L1826
 10254              	.L1829:
 10255 0124 0028     		cmp	r0, #0
 10256 0126 89DA     		bge	.L1830
 10257              	.L1826:
 10258 0128 2846     		mov	r0, r5
 10259 012a 11B0     		add	sp, sp, #68
 10260              		@ sp needed
 10261 012c BDE8F08F 		pop	{r4, r5, r6, r7, r8, r9, r10, fp, pc}
 10262              	.L1839:
 10263 0130 4046     		mov	r0, r8
 10264 0132 04F53971 		add	r1, r4, #740
 10265 0136 FFF7FEFF 		bl	GetCA
 10266 013a C4F83003 		str	r0, [r4, #816]
 10267 013e 0028     		cmp	r0, #0
 10268 0140 B0D1     		bne	.L1843
 10269 0142 ABE7     		b	.L1842
 10270              	.L1840:
 10271 0144 032E     		cmp	r6, #3
 10272 0146 ADD0     		beq	.L1843
 10273 0148 4046     		mov	r0, r8
 10274 014a 04F53371 		add	r1, r4, #716
 10275 014e FFF7FEFF 		bl	GetCA
 10276 0152 C4F83003 		str	r0, [r4, #816]
 10277 0156 A5E7     		b	.L1843
 10278              	.L1847:
 10279 0158 B4F8FE22 		ldrh	r2, [r4, #766]
 10280 015c 013B     		subs	r3, r3, #1
 10281 015e 9342     		cmp	r3, r2
 10282 0160 4FF0FF31 		mov	r1, #-1
 10283 0164 38BF     		it	cc
 10284 0166 0021     		movcc	r1, #0
 10285 0168 0B91     		str	r1, [sp, #44]
 10286 016a 0B98     		ldr	r0, [sp, #44]
 10287 016c 0B99     		ldr	r1, [sp, #44]
 10288 016e 23EA0003 		bic	r3, r3, r0
 10289 0172 0A40     		ands	r2, r2, r1
 10290 0174 1343     		orrs	r3, r3, r2
ARM GAS  /tmp/cciZhAVO.s 			page 177


 10291 0176 DBB2     		uxtb	r3, r3
 10292 0178 A4F8FE32 		strh	r3, [r4, #766]	@ movhi
 10293              	.L1828:
 10294 017c 002E     		cmp	r6, #0
 10295 017e 4AD0     		beq	.L1848
 10296 0180 062F     		cmp	r7, #6
 10297 0182 48D0     		beq	.L1848
 10298 0184 112F     		cmp	r7, #17
 10299 0186 46D0     		beq	.L1848
 10300              	.L1865:
 10301 0188 D4F83033 		ldr	r3, [r4, #816]
 10302 018c 002B     		cmp	r3, #0
 10303 018e 00F0A780 		beq	.L1871
 10304 0192 26F00207 		bic	r7, r6, #2
 10305 0196 012F     		cmp	r7, #1
 10306 0198 01D0     		beq	.L1849
 10307 019a 052E     		cmp	r6, #5
 10308 019c 1DD1     		bne	.L1850
 10309              	.L1849:
 10310 019e D4E90352 		ldrd	r5, r2, [r4, #12]
 10311 01a2 0020     		movs	r0, #0
 10312 01a4 D4F87412 		ldr	r1, [r4, #628]
 10313 01a8 CDE90600 		strd	r0, r0, [sp, #24]
 10314 01ac 0590     		str	r0, [sp, #20]
 10315 01ae A069     		ldr	r0, [r4, #24]
 10316 01b0 521B     		subs	r2, r2, r5
 10317 01b2 0490     		str	r0, [sp, #16]
 10318 01b4 6069     		ldr	r0, [r4, #20]
 10319 01b6 2944     		add	r1, r1, r5
 10320 01b8 0390     		str	r0, [sp, #12]
 10321 01ba 206E     		ldr	r0, [r4, #96]
 10322 01bc 0290     		str	r0, [sp, #8]
 10323 01be 5868     		ldr	r0, [r3, #4]
 10324 01c0 0190     		str	r0, [sp, #4]
 10325 01c2 1868     		ldr	r0, [r3]
 10326 01c4 0090     		str	r0, [sp]
 10327 01c6 1B69     		ldr	r3, [r3, #16]
 10328 01c8 04F54D70 		add	r0, r4, #820
 10329 01cc FFF7FEFF 		bl	ConfirmSignature
 10330 01d0 0546     		mov	r5, r0
 10331 01d2 0028     		cmp	r0, #0
 10332 01d4 A8D1     		bne	.L1826
 10333 01d6 012F     		cmp	r7, #1
 10334 01d8 02D0     		beq	.L1851
 10335              	.L1850:
 10336 01da 331F     		subs	r3, r6, #4
 10337 01dc 012B     		cmp	r3, #1
 10338 01de 1AD8     		bhi	.L1848
 10339              	.L1851:
 10340 01e0 454B     		ldr	r3, .L1951+4
 10341 01e2 D4F83083 		ldr	r8, [r4, #816]
 10342 01e6 1A88     		ldrh	r2, [r3]	@ unaligned
 10343 01e8 9B78     		ldrb	r3, [r3, #2]	@ zero_extendqisi2
 10344 01ea 0DF1280B 		add	fp, sp, #40
 10345 01ee ADF82820 		strh	r2, [sp, #40]	@ unaligned
 10346 01f2 8BF80230 		strb	r3, [fp, #2]
 10347 01f6 B8F1000F 		cmp	r8, #0
ARM GAS  /tmp/cciZhAVO.s 			page 178


 10348 01fa 04D1     		bne	.L1852
 10349              	.L1857:
 10350 01fc 6FF0C505 		mvn	r5, #197
 10351 0200 92E7     		b	.L1826
 10352              	.L1868:
 10353 0202 0025     		movs	r5, #0
 10354 0204 BAE7     		b	.L1828
 10355              	.L1852:
 10356 0206 D8F820A0 		ldr	r10, [r8, #32]
 10357 020a BAF1000F 		cmp	r10, #0
 10358 020e 0DD1     		bne	.L1872
 10359 0210 D8F81C30 		ldr	r3, [r8, #28]
 10360 0214 1BBB     		cbnz	r3, .L1873
 10361              	.L1848:
 10362 0216 D4F85833 		ldr	r3, [r4, #856]
 10363 021a 0BB1     		cbz	r3, .L1864
 10364 021c 052E     		cmp	r6, #5
 10365 021e 62D1     		bne	.L1874
 10366              	.L1864:
 10367 0220 D4F85C33 		ldr	r3, [r4, #860]
 10368 0224 002B     		cmp	r3, #0
 10369 0226 18BF     		it	ne
 10370 0228 1D46     		movne	r5, r3
 10371 022a 7DE7     		b	.L1826
 10372              	.L1872:
 10373 022c 4FF00009 		mov	r9, #0
 10374              	.L1862:
 10375 0230 1BF80970 		ldrb	r7, [fp, r9]	@ zero_extendqisi2
 10376 0234 1022     		movs	r2, #16
 10377 0236 0021     		movs	r1, #0
 10378 0238 0CA8     		add	r0, sp, #48
 10379 023a FFF7FEFF 		bl	memset
 10380 023e 022F     		cmp	r7, #2
 10381 0240 0FD0     		beq	.L1854
 10382 0242 042F     		cmp	r7, #4
 10383 0244 29D0     		beq	.L1855
 10384 0246 012F     		cmp	r7, #1
 10385 0248 D8D1     		bne	.L1857
 10386 024a D4F82423 		ldr	r2, [r4, #804]
 10387 024e A36A     		ldr	r3, [r4, #40]
 10388 0250 42B1     		cbz	r2, .L1858
 10389 0252 D4F82813 		ldr	r1, [r4, #808]
 10390 0256 0D97     		str	r7, [sp, #52]
 10391              	.L1950:
 10392 0258 CDE90E12 		strd	r1, r2, [sp, #56]
 10393 025c 02E0     		b	.L1858
 10394              	.L1873:
 10395 025e D146     		mov	r9, r10
 10396 0260 E6E7     		b	.L1862
 10397              	.L1854:
 10398 0262 636A     		ldr	r3, [r4, #36]
 10399              	.L1858:
 10400 0264 13BB     		cbnz	r3, .L1860
 10401 0266 0E9B     		ldr	r3, [sp, #56]
 10402 0268 002B     		cmp	r3, #0
 10403 026a 10DD     		ble	.L1861
 10404 026c 0F9B     		ldr	r3, [sp, #60]
ARM GAS  /tmp/cciZhAVO.s 			page 179


 10405 026e 73B1     		cbz	r3, .L1861
 10406 0270 3A46     		mov	r2, r7
 10407 0272 5146     		mov	r1, r10
 10408 0274 0CA8     		add	r0, sp, #48
 10409 0276 FFF7FEFF 		bl	IsInExcludedList
 10410 027a 0128     		cmp	r0, #1
 10411 027c BED0     		beq	.L1857
 10412 027e 3A46     		mov	r2, r7
 10413 0280 D8F81C10 		ldr	r1, [r8, #28]
 10414 0284 0CA8     		add	r0, sp, #48
 10415 0286 FFF7FEFF 		bl	PermittedListOk
 10416 028a 0128     		cmp	r0, #1
 10417 028c B6D1     		bne	.L1857
 10418              	.L1861:
 10419 028e 09F10109 		add	r9, r9, #1
 10420 0292 B9F1030F 		cmp	r9, #3
 10421 0296 BED0     		beq	.L1848
 10422 0298 CAE7     		b	.L1862
 10423              	.L1855:
 10424 029a D4F81C23 		ldr	r2, [r4, #796]
 10425 029e E36A     		ldr	r3, [r4, #44]
 10426 02a0 002A     		cmp	r2, #0
 10427 02a2 DFD0     		beq	.L1858
 10428 02a4 D4F82013 		ldr	r1, [r4, #800]
 10429 02a8 0D97     		str	r7, [sp, #52]
 10430 02aa D5E7     		b	.L1950
 10431              	.L1860:
 10432 02ac 3A46     		mov	r2, r7
 10433 02ae 5146     		mov	r1, r10
 10434 02b0 1846     		mov	r0, r3
 10435 02b2 0993     		str	r3, [sp, #36]
 10436 02b4 FFF7FEFF 		bl	IsInExcludedList
 10437 02b8 0128     		cmp	r0, #1
 10438 02ba 9FD0     		beq	.L1857
 10439 02bc 099B     		ldr	r3, [sp, #36]
 10440 02be 3A46     		mov	r2, r7
 10441 02c0 1846     		mov	r0, r3
 10442 02c2 D8F81C10 		ldr	r1, [r8, #28]
 10443 02c6 FFF7FEFF 		bl	PermittedListOk
 10444 02ca 0128     		cmp	r0, #1
 10445 02cc 96D1     		bne	.L1857
 10446 02ce 099B     		ldr	r3, [sp, #36]
 10447 02d0 1B68     		ldr	r3, [r3]
 10448 02d2 C7E7     		b	.L1858
 10449              	.L1867:
 10450 02d4 6FF0AC05 		mvn	r5, #172
 10451 02d8 26E7     		b	.L1826
 10452              	.L1869:
 10453 02da 6FF0E105 		mvn	r5, #225
 10454 02de 23E7     		b	.L1826
 10455              	.L1871:
 10456 02e0 6FF0BB05 		mvn	r5, #187
 10457 02e4 20E7     		b	.L1826
 10458              	.L1874:
 10459 02e6 1D46     		mov	r5, r3
 10460 02e8 1EE7     		b	.L1826
 10461              	.L1846:
ARM GAS  /tmp/cciZhAVO.s 			page 180


 10462 02ea 002E     		cmp	r6, #0
 10463 02ec 7FF44CAF 		bne	.L1865
 10464 02f0 91E7     		b	.L1848
 10465              	.L1952:
 10466 02f2 00BF     		.align	2
 10467              	.L1951:
 10468 02f4 7F809F3A 		.word	983531647
 10469 02f8 00000000 		.word	.LC10
 10471              		.section	.text.ParseCert,"ax",%progbits
 10472              		.align	1
 10473              		.global	ParseCert
 10474              		.syntax unified
 10475              		.thumb
 10476              		.thumb_func
 10477              		.fpu fpv4-sp-d16
 10479              	ParseCert:
 10480              		@ args = 0, pretend = 0, frame = 0
 10481              		@ frame_needed = 0, uses_anonymous_args = 0
 10482 0000 F7B5     		push	{r0, r1, r2, r4, r5, r6, r7, lr}
 10483 0002 0027     		movs	r7, #0
 10484 0004 0097     		str	r7, [sp]
 10485 0006 0446     		mov	r4, r0
 10486 0008 FFF7FEFF 		bl	ParseCertRelative
 10487 000c 051E     		subs	r5, r0, #0
 10488 000e 09DB     		blt	.L1953
 10489 0010 A06E     		ldr	r0, [r4, #104]
 10490 0012 B842     		cmp	r0, r7
 10491 0014 16DD     		ble	.L1955
 10492 0016 0130     		adds	r0, r0, #1
 10493 0018 FFF7FEFF 		bl	wolfSSL_Malloc
 10494 001c 0646     		mov	r6, r0
 10495 001e 20B9     		cbnz	r0, .L1956
 10496              	.L1957:
 10497 0020 6FF07C05 		mvn	r5, #124
 10498              	.L1953:
 10499 0024 2846     		mov	r0, r5
 10500 0026 03B0     		add	sp, sp, #12
 10501              		@ sp needed
 10502 0028 F0BD     		pop	{r4, r5, r6, r7, pc}
 10503              	.L1956:
 10504 002a D4E91912 		ldrd	r1, r2, [r4, #100]
 10505 002e FFF7FEFF 		bl	memcpy
 10506 0032 A36E     		ldr	r3, [r4, #104]
 10507 0034 F754     		strb	r7, [r6, r3]
 10508 0036 94F86033 		ldrb	r3, [r4, #864]	@ zero_extendqisi2
 10509 003a 6666     		str	r6, [r4, #100]
 10510 003c 43F00103 		orr	r3, r3, #1
 10511 0040 84F86033 		strb	r3, [r4, #864]
 10512              	.L1955:
 10513 0044 E269     		ldr	r2, [r4, #28]
 10514 0046 0B4B     		ldr	r3, .L1967
 10515 0048 9A42     		cmp	r2, r3
 10516 004a EBD1     		bne	.L1953
 10517 004c 2368     		ldr	r3, [r4]
 10518 004e 002B     		cmp	r3, #0
 10519 0050 E8D0     		beq	.L1953
 10520 0052 6068     		ldr	r0, [r4, #4]
ARM GAS  /tmp/cciZhAVO.s 			page 181


 10521 0054 0028     		cmp	r0, #0
 10522 0056 E5D0     		beq	.L1953
 10523 0058 FFF7FEFF 		bl	wolfSSL_Malloc
 10524 005c 0646     		mov	r6, r0
 10525 005e 0028     		cmp	r0, #0
 10526 0060 DED0     		beq	.L1957
 10527 0062 D4E90012 		ldrd	r1, r2, [r4]
 10528 0066 FFF7FEFF 		bl	memcpy
 10529 006a 0123     		movs	r3, #1
 10530 006c 2660     		str	r6, [r4]
 10531 006e A360     		str	r3, [r4, #8]
 10532 0070 D8E7     		b	.L1953
 10533              	.L1968:
 10534 0072 00BF     		.align	2
 10535              	.L1967:
 10536 0074 2374B678 		.word	2025223203
 10538              		.section	.text.wc_ParseCert,"ax",%progbits
 10539              		.align	1
 10540              		.global	wc_ParseCert
 10541              		.syntax unified
 10542              		.thumb
 10543              		.thumb_func
 10544              		.fpu fpv4-sp-d16
 10546              	wc_ParseCert:
 10547              		@ args = 0, pretend = 0, frame = 0
 10548              		@ frame_needed = 0, uses_anonymous_args = 0
 10549              		@ link register save eliminated.
 10550 0000 FFF7FEBF 		b	ParseCert
 10552              		.section	.text.wc_BuildEccKeyDer,"ax",%progbits
 10553              		.align	1
 10554              		.global	wc_BuildEccKeyDer
 10555              		.syntax unified
 10556              		.thumb
 10557              		.thumb_func
 10558              		.fpu fpv4-sp-d16
 10560              	wc_BuildEccKeyDer:
 10561              		@ args = 4, pretend = 0, frame = 16
 10562              		@ frame_needed = 0, uses_anonymous_args = 0
 10563 0000 2DE9F04F 		push	{r4, r5, r6, r7, r8, r9, r10, fp, lr}
 10564 0004 9946     		mov	r9, r3
 10565 0006 0023     		movs	r3, #0
 10566 0008 85B0     		sub	sp, sp, #20
 10567 000a 8A46     		mov	r10, r1
 10568 000c 9046     		mov	r8, r2
 10569 000e 0646     		mov	r6, r0
 10570 0010 CDE90133 		strd	r3, r3, [sp, #4]
 10571 0014 DDF838B0 		ldr	fp, [sp, #56]
 10572 0018 0393     		str	r3, [sp, #12]
 10573 001a 0028     		cmp	r0, #0
 10574 001c 00F0A880 		beq	.L1991
 10575 0020 11B9     		cbnz	r1, .L1972
 10576 0022 002A     		cmp	r2, #0
 10577 0024 00F0A480 		beq	.L1991
 10578              	.L1972:
 10579 0028 BBF1000F 		cmp	fp, #0
 10580 002c 03D0     		beq	.L1973
 10581 002e 3369     		ldr	r3, [r6, #16]
ARM GAS  /tmp/cciZhAVO.s 			page 182


 10582 0030 002B     		cmp	r3, #0
 10583 0032 00F09D80 		beq	.L1991
 10584              	.L1973:
 10585 0036 E020     		movs	r0, #224
 10586 0038 FFF7FEFF 		bl	wolfSSL_Malloc
 10587 003c 0546     		mov	r5, r0
 10588 003e 0028     		cmp	r0, #0
 10589 0040 00F09980 		beq	.L1992
 10590 0044 A022     		movs	r2, #160
 10591 0046 0021     		movs	r1, #0
 10592 0048 FFF7FEFF 		bl	memset
 10593 004c 3369     		ldr	r3, [r6, #16]
 10594 004e 1B68     		ldr	r3, [r3]
 10595 0050 0193     		str	r3, [sp, #4]
 10596 0052 B9F1000F 		cmp	r9, #0
 10597 0056 36D1     		bne	.L1974
 10598              	.L1977:
 10599 0058 0123     		movs	r3, #1
 10600 005a 0022     		movs	r2, #0
 10601 005c 0199     		ldr	r1, [sp, #4]
 10602 005e 85F82430 		strb	r3, [r5, #36]
 10603 0062 2B77     		strb	r3, [r5, #28]
 10604 0064 2A63     		str	r2, [r5, #48]
 10605 0066 6963     		str	r1, [r5, #52]
 10606 0068 BBF1000F 		cmp	fp, #0
 10607 006c 3DD0     		beq	.L2009
 10608 006e 1146     		mov	r1, r2
 10609 0070 3046     		mov	r0, r6
 10610 0072 FFF7FEFF 		bl	SetCurve
 10611 0076 0022     		movs	r2, #0
 10612 0078 0721     		movs	r1, #7
 10613 007a 0123     		movs	r3, #1
 10614 007c 9042     		cmp	r0, r2
 10615 007e 0746     		mov	r7, r0
 10616 0080 C5E91620 		strd	r2, r0, [r5, #88]
 10617 0084 00EAE074 		and	r4, r0, r0, asr #31
 10618 0088 85F86010 		strb	r1, [r5, #96]
 10619 008c 85F87530 		strb	r3, [r5, #117]
 10620 0090 24DB     		blt	.L1978
 10621              	.L1979:
 10622 0092 B9F1000F 		cmp	r9, #0
 10623 0096 30D0     		beq	.L1980
 10624 0098 0023     		movs	r3, #0
 10625 009a C5F89430 		str	r3, [r5, #148]
 10626 009e 029B     		ldr	r3, [sp, #8]
 10627 00a0 C5F89830 		str	r3, [r5, #152]
 10628              	.L1981:
 10629 00a4 0822     		movs	r2, #8
 10630 00a6 2946     		mov	r1, r5
 10631 00a8 3448     		ldr	r0, .L2010
 10632 00aa 03AB     		add	r3, sp, #12
 10633 00ac FFF7FEFF 		bl	SizeASN_Items
 10634 00b0 0446     		mov	r4, r0
 10635 00b2 98B9     		cbnz	r0, .L1978
 10636 00b4 BAF1000F 		cmp	r10, #0
 10637 00b8 25D1     		bne	.L1982
 10638 00ba 039B     		ldr	r3, [sp, #12]
ARM GAS  /tmp/cciZhAVO.s 			page 183


 10639 00bc 6FF0C904 		mvn	r4, #201
 10640 00c0 C8F80030 		str	r3, [r8]
 10641 00c4 0AE0     		b	.L1978
 10642              	.L1974:
 10643 00c6 0021     		movs	r1, #0
 10644 00c8 3046     		mov	r0, r6
 10645 00ca 02AA     		add	r2, sp, #8
 10646 00cc FFF7FEFF 		bl	wc_ecc_export_x963
 10647 00d0 10F1CA0F 		cmn	r0, #202
 10648 00d4 0446     		mov	r4, r0
 10649 00d6 BFD0     		beq	.L1977
 10650 00d8 0028     		cmp	r0, #0
 10651 00da BDD0     		beq	.L1977
 10652              	.L1978:
 10653 00dc 2846     		mov	r0, r5
 10654 00de FFF7FEFF 		bl	wolfSSL_Free
 10655              	.L1970:
 10656 00e2 2046     		mov	r0, r4
 10657 00e4 05B0     		add	sp, sp, #20
 10658              		@ sp needed
 10659 00e6 BDE8F08F 		pop	{r4, r5, r6, r7, r8, r9, r10, fp, pc}
 10660              	.L2009:
 10661 00ea 5F46     		mov	r7, fp
 10662 00ec 85F84D30 		strb	r3, [r5, #77]
 10663 00f0 85F86130 		strb	r3, [r5, #97]
 10664 00f4 85F87530 		strb	r3, [r5, #117]
 10665 00f8 CBE7     		b	.L1979
 10666              	.L1980:
 10667 00fa 0123     		movs	r3, #1
 10668 00fc 85F88930 		strb	r3, [r5, #137]
 10669 0100 85F89D30 		strb	r3, [r5, #157]
 10670 0104 CEE7     		b	.L1981
 10671              	.L1982:
 10672 0106 B8F1000F 		cmp	r8, #0
 10673 010a 04D0     		beq	.L1983
 10674 010c D8F80020 		ldr	r2, [r8]
 10675 0110 039B     		ldr	r3, [sp, #12]
 10676 0112 9A42     		cmp	r2, r3
 10677 0114 29DB     		blt	.L1993
 10678              	.L1983:
 10679 0116 5346     		mov	r3, r10
 10680 0118 0822     		movs	r2, #8
 10681 011a 2946     		mov	r1, r5
 10682 011c 1748     		ldr	r0, .L2010
 10683 011e FFF7FEFF 		bl	SetASN_Items
 10684 0122 BBF1000F 		cmp	fp, #0
 10685 0126 0CD1     		bne	.L1984
 10686              	.L1986:
 10687 0128 3046     		mov	r0, r6
 10688 012a 296B     		ldr	r1, [r5, #48]
 10689 012c 01AA     		add	r2, sp, #4
 10690 012e FFF7FEFF 		bl	wc_ecc_export_private_only
 10691 0132 0446     		mov	r4, r0
 10692 0134 0028     		cmp	r0, #0
 10693 0136 D1D1     		bne	.L1978
 10694 0138 B9F1000F 		cmp	r9, #0
 10695 013c 0BD1     		bne	.L1987
ARM GAS  /tmp/cciZhAVO.s 			page 184


 10696              	.L1988:
 10697 013e 039C     		ldr	r4, [sp, #12]
 10698 0140 CCE7     		b	.L1978
 10699              	.L1984:
 10700 0142 3A46     		mov	r2, r7
 10701 0144 3046     		mov	r0, r6
 10702 0146 A96D     		ldr	r1, [r5, #88]
 10703 0148 FFF7FEFF 		bl	SetCurve
 10704 014c 0028     		cmp	r0, #0
 10705 014e 00EAE074 		and	r4, r0, r0, asr #31
 10706 0152 C3DB     		blt	.L1978
 10707 0154 E8E7     		b	.L1986
 10708              	.L1987:
 10709 0156 3046     		mov	r0, r6
 10710 0158 D5F89410 		ldr	r1, [r5, #148]
 10711 015c 02AA     		add	r2, sp, #8
 10712 015e FFF7FEFF 		bl	wc_ecc_export_x963
 10713 0162 0446     		mov	r4, r0
 10714 0164 0028     		cmp	r0, #0
 10715 0166 EAD0     		beq	.L1988
 10716 0168 B8E7     		b	.L1978
 10717              	.L1993:
 10718 016a 6FF0AC04 		mvn	r4, #172
 10719 016e B5E7     		b	.L1978
 10720              	.L1991:
 10721 0170 6FF0AC04 		mvn	r4, #172
 10722 0174 B5E7     		b	.L1970
 10723              	.L1992:
 10724 0176 6FF07C04 		mvn	r4, #124
 10725 017a B2E7     		b	.L1970
 10726              	.L2011:
 10727              		.align	2
 10728              	.L2010:
 10729 017c 00000000 		.word	.LANCHOR110
 10731              		.section	.text.eccToPKCS8,"ax",%progbits
 10732              		.align	1
 10733              		.syntax unified
 10734              		.thumb
 10735              		.thumb_func
 10736              		.fpu fpv4-sp-d16
 10738              	eccToPKCS8:
 10739              		@ args = 0, pretend = 0, frame = 24
 10740              		@ frame_needed = 0, uses_anonymous_args = 0
 10741 0000 2DE9F04F 		push	{r4, r5, r6, r7, r8, r9, r10, fp, lr}
 10742 0004 0027     		movs	r7, #0
 10743 0006 40F2011B 		movw	fp, #257
 10744 000a 8BB0     		sub	sp, sp, #44
 10745 000c 8846     		mov	r8, r1
 10746 000e 1646     		mov	r6, r2
 10747 0010 9A46     		mov	r10, r3
 10748 0012 8146     		mov	r9, r0
 10749 0014 CDE90677 		strd	r7, r7, [sp, #24]
 10750 0018 0897     		str	r7, [sp, #32]
 10751 001a CDF824B0 		str	fp, [sp, #36]
 10752 001e 0028     		cmp	r0, #0
 10753 0020 5DD0     		beq	.L2021
 10754 0022 0369     		ldr	r3, [r0, #16]
ARM GAS  /tmp/cciZhAVO.s 			page 185


 10755 0024 002B     		cmp	r3, #0
 10756 0026 5AD0     		beq	.L2021
 10757 0028 002A     		cmp	r2, #0
 10758 002a 58D0     		beq	.L2021
 10759 002c D86A     		ldr	r0, [r3, #44]
 10760 002e 06AA     		add	r2, sp, #24
 10761 0030 08A9     		add	r1, sp, #32
 10762 0032 FFF7FEFF 		bl	wc_ecc_get_oid
 10763 0036 041E     		subs	r4, r0, #0
 10764 0038 32DB     		blt	.L2012
 10765 003a 5846     		mov	r0, fp
 10766 003c FFF7FEFF 		bl	wolfSSL_Malloc
 10767 0040 0546     		mov	r5, r0
 10768 0042 0028     		cmp	r0, #0
 10769 0044 4ED0     		beq	.L2022
 10770 0046 5A46     		mov	r2, fp
 10771 0048 3946     		mov	r1, r7
 10772 004a FFF7FEFF 		bl	memset
 10773 004e 5346     		mov	r3, r10
 10774 0050 2946     		mov	r1, r5
 10775 0052 4846     		mov	r0, r9
 10776 0054 0097     		str	r7, [sp]
 10777 0056 09AA     		add	r2, sp, #36
 10778 0058 FFF7FEFF 		bl	wc_BuildEccKeyDer
 10779 005c 041E     		subs	r4, r0, #0
 10780 005e 03DA     		bge	.L2014
 10781              	.L2023:
 10782 0060 2846     		mov	r0, r5
 10783              	.L2024:
 10784 0062 FFF7FEFF 		bl	wolfSSL_Free
 10785 0066 1BE0     		b	.L2012
 10786              	.L2014:
 10787 0068 069A     		ldr	r2, [sp, #24]
 10788 006a DFF88090 		ldr	r9, .L2025
 10789 006e 0292     		str	r2, [sp, #8]
 10790 0070 089A     		ldr	r2, [sp, #32]
 10791 0072 2346     		mov	r3, r4
 10792 0074 0192     		str	r2, [sp, #4]
 10793 0076 3846     		mov	r0, r7
 10794 0078 2A46     		mov	r2, r5
 10795 007a CDF80090 		str	r9, [sp]
 10796 007e 07A9     		add	r1, sp, #28
 10797 0080 0594     		str	r4, [sp, #20]
 10798 0082 FFF7FEFF 		bl	wc_CreatePKCS8Key
 10799 0086 10F1CA0F 		cmn	r0, #202
 10800 008a 0446     		mov	r4, r0
 10801 008c 059B     		ldr	r3, [sp, #20]
 10802 008e E7D1     		bne	.L2023
 10803 0090 B8F1000F 		cmp	r8, #0
 10804 0094 08D1     		bne	.L2016
 10805 0096 2846     		mov	r0, r5
 10806 0098 FFF7FEFF 		bl	wolfSSL_Free
 10807 009c 079B     		ldr	r3, [sp, #28]
 10808 009e 3360     		str	r3, [r6]
 10809              	.L2012:
 10810 00a0 2046     		mov	r0, r4
 10811 00a2 0BB0     		add	sp, sp, #44
ARM GAS  /tmp/cciZhAVO.s 			page 186


 10812              		@ sp needed
 10813 00a4 BDE8F08F 		pop	{r4, r5, r6, r7, r8, r9, r10, fp, pc}
 10814              	.L2016:
 10815 00a8 3168     		ldr	r1, [r6]
 10816 00aa 079A     		ldr	r2, [sp, #28]
 10817 00ac 9142     		cmp	r1, r2
 10818 00ae 05D2     		bcs	.L2017
 10819 00b0 2846     		mov	r0, r5
 10820 00b2 FFF7FEFF 		bl	wolfSSL_Free
 10821 00b6 6FF08304 		mvn	r4, #131
 10822 00ba F1E7     		b	.L2012
 10823              	.L2017:
 10824 00bc 069A     		ldr	r2, [sp, #24]
 10825 00be 4046     		mov	r0, r8
 10826 00c0 0292     		str	r2, [sp, #8]
 10827 00c2 089A     		ldr	r2, [sp, #32]
 10828 00c4 07A9     		add	r1, sp, #28
 10829 00c6 CDE90092 		strd	r9, r2, [sp]
 10830 00ca 2A46     		mov	r2, r5
 10831 00cc FFF7FEFF 		bl	wc_CreatePKCS8Key
 10832 00d0 041E     		subs	r4, r0, #0
 10833 00d2 2846     		mov	r0, r5
 10834 00d4 C5DB     		blt	.L2024
 10835 00d6 FFF7FEFF 		bl	wolfSSL_Free
 10836 00da 3460     		str	r4, [r6]
 10837 00dc E0E7     		b	.L2012
 10838              	.L2021:
 10839 00de 6FF0AC04 		mvn	r4, #172
 10840 00e2 DDE7     		b	.L2012
 10841              	.L2022:
 10842 00e4 6FF07C04 		mvn	r4, #124
 10843 00e8 DAE7     		b	.L2012
 10844              	.L2026:
 10845 00ea 00BF     		.align	2
 10846              	.L2025:
 10847 00ec 17844931 		.word	826901527
 10849              		.section	.text.wc_EccKeyToDer,"ax",%progbits
 10850              		.align	1
 10851              		.global	wc_EccKeyToDer
 10852              		.syntax unified
 10853              		.thumb
 10854              		.thumb_func
 10855              		.fpu fpv4-sp-d16
 10857              	wc_EccKeyToDer:
 10858              		@ args = 0, pretend = 0, frame = 8
 10859              		@ frame_needed = 0, uses_anonymous_args = 0
 10860 0000 1FB5     		push	{r0, r1, r2, r3, r4, lr}
 10861 0002 0123     		movs	r3, #1
 10862 0004 0392     		str	r2, [sp, #12]
 10863 0006 0093     		str	r3, [sp]
 10864 0008 03AA     		add	r2, sp, #12
 10865 000a FFF7FEFF 		bl	wc_BuildEccKeyDer
 10866 000e 05B0     		add	sp, sp, #20
 10867              		@ sp needed
 10868 0010 5DF804FB 		ldr	pc, [sp], #4
 10870              		.section	.text.wc_EccKeyDerSize,"ax",%progbits
 10871              		.align	1
ARM GAS  /tmp/cciZhAVO.s 			page 187


 10872              		.global	wc_EccKeyDerSize
 10873              		.syntax unified
 10874              		.thumb
 10875              		.thumb_func
 10876              		.fpu fpv4-sp-d16
 10878              	wc_EccKeyDerSize:
 10879              		@ args = 0, pretend = 0, frame = 8
 10880              		@ frame_needed = 0, uses_anonymous_args = 0
 10881 0000 1FB5     		push	{r0, r1, r2, r3, r4, lr}
 10882 0002 0122     		movs	r2, #1
 10883 0004 0B46     		mov	r3, r1
 10884 0006 0021     		movs	r1, #0
 10885 0008 0092     		str	r2, [sp]
 10886 000a 03AA     		add	r2, sp, #12
 10887 000c 0391     		str	r1, [sp, #12]
 10888 000e FFF7FEFF 		bl	wc_BuildEccKeyDer
 10889 0012 10F1CA0F 		cmn	r0, #202
 10890 0016 08BF     		it	eq
 10891 0018 0398     		ldreq	r0, [sp, #12]
 10892 001a 05B0     		add	sp, sp, #20
 10893              		@ sp needed
 10894 001c 5DF804FB 		ldr	pc, [sp], #4
 10896              		.section	.text.wc_EccPrivateKeyToDer,"ax",%progbits
 10897              		.align	1
 10898              		.global	wc_EccPrivateKeyToDer
 10899              		.syntax unified
 10900              		.thumb
 10901              		.thumb_func
 10902              		.fpu fpv4-sp-d16
 10904              	wc_EccPrivateKeyToDer:
 10905              		@ args = 0, pretend = 0, frame = 8
 10906              		@ frame_needed = 0, uses_anonymous_args = 0
 10907 0000 1FB5     		push	{r0, r1, r2, r3, r4, lr}
 10908 0002 0123     		movs	r3, #1
 10909 0004 0392     		str	r2, [sp, #12]
 10910 0006 0093     		str	r3, [sp]
 10911 0008 03AA     		add	r2, sp, #12
 10912 000a 0023     		movs	r3, #0
 10913 000c FFF7FEFF 		bl	wc_BuildEccKeyDer
 10914 0010 10F1CA0F 		cmn	r0, #202
 10915 0014 08BF     		it	eq
 10916 0016 0398     		ldreq	r0, [sp, #12]
 10917 0018 05B0     		add	sp, sp, #20
 10918              		@ sp needed
 10919 001a 5DF804FB 		ldr	pc, [sp], #4
 10921              		.section	.text.wc_EccPrivateKeyToPKCS8,"ax",%progbits
 10922              		.align	1
 10923              		.global	wc_EccPrivateKeyToPKCS8
 10924              		.syntax unified
 10925              		.thumb
 10926              		.thumb_func
 10927              		.fpu fpv4-sp-d16
 10929              	wc_EccPrivateKeyToPKCS8:
 10930              		@ args = 0, pretend = 0, frame = 0
 10931              		@ frame_needed = 0, uses_anonymous_args = 0
 10932              		@ link register save eliminated.
 10933 0000 0023     		movs	r3, #0
ARM GAS  /tmp/cciZhAVO.s 			page 188


 10934 0002 FFF7FEBF 		b	eccToPKCS8
 10936              		.section	.text.wc_EccKeyToPKCS8,"ax",%progbits
 10937              		.align	1
 10938              		.global	wc_EccKeyToPKCS8
 10939              		.syntax unified
 10940              		.thumb
 10941              		.thumb_func
 10942              		.fpu fpv4-sp-d16
 10944              	wc_EccKeyToPKCS8:
 10945              		@ args = 0, pretend = 0, frame = 0
 10946              		@ frame_needed = 0, uses_anonymous_args = 0
 10947              		@ link register save eliminated.
 10948 0000 0123     		movs	r3, #1
 10949 0002 FFF7FEBF 		b	eccToPKCS8
 10951              		.section	.text.GetNameHash_ex,"ax",%progbits
 10952              		.align	1
 10953              		.global	GetNameHash_ex
 10954              		.syntax unified
 10955              		.thumb
 10956              		.thumb_func
 10957              		.fpu fpv4-sp-d16
 10959              	GetNameHash_ex:
 10960              		@ args = 4, pretend = 0, frame = 56
 10961              		@ frame_needed = 0, uses_anonymous_args = 0
 10962 0000 F0B5     		push	{r4, r5, r6, r7, lr}
 10963 0002 93B0     		sub	sp, sp, #76
 10964 0004 0446     		mov	r4, r0
 10965 0006 0E46     		mov	r6, r1
 10966 0008 1546     		mov	r5, r2
 10967 000a 0021     		movs	r1, #0
 10968 000c 3822     		movs	r2, #56
 10969 000e 04A8     		add	r0, sp, #16
 10970 0010 1F46     		mov	r7, r3
 10971 0012 FFF7FEFF 		bl	memset
 10972 0016 1523     		movs	r3, #21
 10973 0018 0222     		movs	r2, #2
 10974 001a 0893     		str	r3, [sp, #32]
 10975 001c CDE90167 		strd	r6, r7, [sp, #4]
 10976 0020 0023     		movs	r3, #0
 10977 0022 0948     		ldr	r0, .L2036
 10978 0024 0094     		str	r4, [sp]
 10979 0026 04A9     		add	r1, sp, #16
 10980 0028 FFF7FEFF 		bl	GetASN_Items
 10981 002c 48B9     		cbnz	r0, .L2034
 10982 002e 0B98     		ldr	r0, [sp, #44]
 10983 0030 0D99     		ldr	r1, [sp, #52]
 10984 0032 0C9B     		ldr	r3, [sp, #48]
 10985 0034 091B     		subs	r1, r1, r4
 10986 0036 1B1A     		subs	r3, r3, r0
 10987 0038 2A46     		mov	r2, r5
 10988 003a 1944     		add	r1, r1, r3
 10989 003c 2044     		add	r0, r0, r4
 10990 003e FFF7FEFF 		bl	wc_ShaHash
 10991              	.L2034:
 10992 0042 13B0     		add	sp, sp, #76
 10993              		@ sp needed
 10994 0044 F0BD     		pop	{r4, r5, r6, r7, pc}
ARM GAS  /tmp/cciZhAVO.s 			page 189


 10995              	.L2037:
 10996 0046 00BF     		.align	2
 10997              	.L2036:
 10998 0048 00000000 		.word	.LANCHOR111
 11000              		.section	.text.GetNameHash,"ax",%progbits
 11001              		.align	1
 11002              		.global	GetNameHash
 11003              		.syntax unified
 11004              		.thumb
 11005              		.thumb_func
 11006              		.fpu fpv4-sp-d16
 11008              	GetNameHash:
 11009              		@ args = 0, pretend = 0, frame = 0
 11010              		@ frame_needed = 0, uses_anonymous_args = 0
 11011 0000 13B5     		push	{r0, r1, r4, lr}
 11012 0002 0024     		movs	r4, #0
 11013 0004 0094     		str	r4, [sp]
 11014 0006 FFF7FEFF 		bl	GetNameHash_ex
 11015 000a 02B0     		add	sp, sp, #8
 11016              		@ sp needed
 11017 000c 10BD     		pop	{r4, pc}
 11019              		.global	pem_struct_min_sz
 11020              		.section	.rodata.str1.1,"aMS",%progbits,1
 11021              	.LC11:
 11022 0000 2F434E3D 		.ascii	"/CN=\000"
 11022      00
 11023              	.LC12:
 11024 0005 2F534E3D 		.ascii	"/SN=\000"
 11024      00
 11025              	.LC13:
 11026 000a 2F736572 		.ascii	"/serialNumber=\000"
 11026      69616C4E 
 11026      756D6265 
 11026      723D00
 11027              	.LC14:
 11028 0019 2F433D00 		.ascii	"/C=\000"
 11029              	.LC15:
 11030 001d 2F4C3D00 		.ascii	"/L=\000"
 11031              	.LC16:
 11032 0021 2F53543D 		.ascii	"/ST=\000"
 11032      00
 11033              	.LC17:
 11034 0026 2F737472 		.ascii	"/street=\000"
 11034      6565743D 
 11034      00
 11035              	.LC18:
 11036 002f 2F4F3D00 		.ascii	"/O=\000"
 11037              	.LC19:
 11038 0033 2F4F553D 		.ascii	"/OU=\000"
 11038      00
 11039              	.LC20:
 11040 0038 2F627573 		.ascii	"/businessCategory=\000"
 11040      696E6573 
 11040      73436174 
 11040      65676F72 
 11040      793D00
 11041              	.LC21:
ARM GAS  /tmp/cciZhAVO.s 			page 190


 11042 004b 2F706F73 		.ascii	"/postalCode=\000"
 11042      74616C43 
 11042      6F64653D 
 11042      00
 11043              	.LC22:
 11044 0058 2F757365 		.ascii	"/userid=\000"
 11044      7269643D 
 11044      00
 11045              		.section	.rodata.BEGIN_CERT,"a"
 11046              		.set	.LANCHOR89,. + 0
 11049              	BEGIN_CERT:
 11050 0000 2D2D2D2D 		.ascii	"-----BEGIN CERTIFICATE-----\000"
 11050      2D424547 
 11050      494E2043 
 11050      45525449 
 11050      46494341 
 11051              		.section	.rodata.BEGIN_DSA_PRIV,"a"
 11052              		.set	.LANCHOR107,. + 0
 11055              	BEGIN_DSA_PRIV:
 11056 0000 2D2D2D2D 		.ascii	"-----BEGIN DSA PRIVATE KEY-----\000"
 11056      2D424547 
 11056      494E2044 
 11056      53412050 
 11056      52495641 
 11057              		.section	.rodata.BEGIN_EC_PRIV,"a"
 11058              		.set	.LANCHOR93,. + 0
 11061              	BEGIN_EC_PRIV:
 11062 0000 2D2D2D2D 		.ascii	"-----BEGIN EC PRIVATE KEY-----\000"
 11062      2D424547 
 11062      494E2045 
 11062      43205052 
 11062      49564154 
 11063              		.section	.rodata.BEGIN_ENC_PRIV_KEY,"a"
 11064              		.set	.LANCHOR103,. + 0
 11067              	BEGIN_ENC_PRIV_KEY:
 11068 0000 2D2D2D2D 		.ascii	"-----BEGIN ENCRYPTED PRIVATE KEY-----\000"
 11068      2D424547 
 11068      494E2045 
 11068      4E435259 
 11068      50544544 
 11069              		.section	.rodata.BEGIN_PRIV_KEY,"a"
 11070              		.set	.LANCHOR101,. + 0
 11073              	BEGIN_PRIV_KEY:
 11074 0000 2D2D2D2D 		.ascii	"-----BEGIN PRIVATE KEY-----\000"
 11074      2D424547 
 11074      494E2050 
 11074      52495641 
 11074      5445204B 
 11075              		.section	.rodata.BEGIN_PUB_KEY,"a"
 11076              		.set	.LANCHOR97,. + 0
 11079              	BEGIN_PUB_KEY:
 11080 0000 2D2D2D2D 		.ascii	"-----BEGIN PUBLIC KEY-----\000"
 11080      2D424547 
 11080      494E2050 
 11080      55424C49 
 11080      43204B45 
 11081              		.section	.rodata.BEGIN_RSA_PRIV,"a"
ARM GAS  /tmp/cciZhAVO.s 			page 191


 11082              		.set	.LANCHOR95,. + 0
 11085              	BEGIN_RSA_PRIV:
 11086 0000 2D2D2D2D 		.ascii	"-----BEGIN RSA PRIVATE KEY-----\000"
 11086      2D424547 
 11086      494E2052 
 11086      53412050 
 11086      52495641 
 11087              		.section	.rodata.BEGIN_RSA_PUB,"a"
 11088              		.set	.LANCHOR99,. + 0
 11091              	BEGIN_RSA_PUB:
 11092 0000 2D2D2D2D 		.ascii	"-----BEGIN RSA PUBLIC KEY-----\000"
 11092      2D424547 
 11092      494E2052 
 11092      53412050 
 11092      55424C49 
 11093              		.section	.rodata.BEGIN_TRUSTED_CERT,"a"
 11094              		.set	.LANCHOR105,. + 0
 11097              	BEGIN_TRUSTED_CERT:
 11098 0000 2D2D2D2D 		.ascii	"-----BEGIN TRUSTED CERTIFICATE-----\000"
 11098      2D424547 
 11098      494E2054 
 11098      52555354 
 11098      45442043 
 11099              		.section	.rodata.BEGIN_X509_CRL,"a"
 11100              		.set	.LANCHOR91,. + 0
 11103              	BEGIN_X509_CRL:
 11104 0000 2D2D2D2D 		.ascii	"-----BEGIN X509 CRL-----\000"
 11104      2D424547 
 11104      494E2058 
 11104      35303920 
 11104      43524C2D 
 11105              		.section	.rodata.CSWTCH.863,"a"
 11106              		.set	.LANCHOR88,. + 0
 11109              	CSWTCH.863:
 11110 0000 02       		.byte	2
 11111 0001 03       		.byte	3
 11112 0002 03       		.byte	3
 11113 0003 03       		.byte	3
 11114 0004 03       		.byte	3
 11115 0005 16       		.byte	22
 11116 0006 01       		.byte	1
 11117 0007 03       		.byte	3
 11118 0008 03       		.byte	3
 11119 0009 03       		.byte	3
 11120 000a 03       		.byte	3
 11121 000b 15       		.byte	21
 11122 000c 25       		.byte	37
 11123 000d 0A       		.byte	10
 11124 000e 03       		.byte	3
 11125 000f 03       		.byte	3
 11126 0010 03       		.byte	3
 11127 0011 03       		.byte	3
 11128 0012 03       		.byte	3
 11129 0013 03       		.byte	3
 11130 0014 03       		.byte	3
 11131 0015 03       		.byte	3
 11132 0016 03       		.byte	3
ARM GAS  /tmp/cciZhAVO.s 			page 192


 11133 0017 03       		.byte	3
 11134 0018 03       		.byte	3
 11135 0019 03       		.byte	3
 11136 001a 03       		.byte	3
 11137 001b 03       		.byte	3
 11138 001c 03       		.byte	3
 11139 001d 03       		.byte	3
 11140 001e 03       		.byte	3
 11141 001f 03       		.byte	3
 11142 0020 03       		.byte	3
 11143 0021 03       		.byte	3
 11144 0022 03       		.byte	3
 11145 0023 03       		.byte	3
 11146 0024 03       		.byte	3
 11147 0025 03       		.byte	3
 11148 0026 03       		.byte	3
 11149 0027 03       		.byte	3
 11150 0028 03       		.byte	3
 11151 0029 03       		.byte	3
 11152 002a 02       		.byte	2
 11153              		.section	.rodata.END_CERT,"a"
 11154              		.set	.LANCHOR90,. + 0
 11157              	END_CERT:
 11158 0000 2D2D2D2D 		.ascii	"-----END CERTIFICATE-----\000"
 11158      2D454E44 
 11158      20434552 
 11158      54494649 
 11158      43415445 
 11159              		.section	.rodata.END_DSA_PRIV,"a"
 11160              		.set	.LANCHOR108,. + 0
 11163              	END_DSA_PRIV:
 11164 0000 2D2D2D2D 		.ascii	"-----END DSA PRIVATE KEY-----\000"
 11164      2D454E44 
 11164      20445341 
 11164      20505249 
 11164      56415445 
 11165              		.section	.rodata.END_EC_PRIV,"a"
 11166              		.set	.LANCHOR94,. + 0
 11169              	END_EC_PRIV:
 11170 0000 2D2D2D2D 		.ascii	"-----END EC PRIVATE KEY-----\000"
 11170      2D454E44 
 11170      20454320 
 11170      50524956 
 11170      41544520 
 11171              		.section	.rodata.END_ENC_PRIV_KEY,"a"
 11172              		.set	.LANCHOR104,. + 0
 11175              	END_ENC_PRIV_KEY:
 11176 0000 2D2D2D2D 		.ascii	"-----END ENCRYPTED PRIVATE KEY-----\000"
 11176      2D454E44 
 11176      20454E43 
 11176      52595054 
 11176      45442050 
 11177              		.section	.rodata.END_PRIV_KEY,"a"
 11178              		.set	.LANCHOR102,. + 0
 11181              	END_PRIV_KEY:
 11182 0000 2D2D2D2D 		.ascii	"-----END PRIVATE KEY-----\000"
 11182      2D454E44 
ARM GAS  /tmp/cciZhAVO.s 			page 193


 11182      20505249 
 11182      56415445 
 11182      204B4559 
 11183              		.section	.rodata.END_PUB_KEY,"a"
 11184              		.set	.LANCHOR98,. + 0
 11187              	END_PUB_KEY:
 11188 0000 2D2D2D2D 		.ascii	"-----END PUBLIC KEY-----\000"
 11188      2D454E44 
 11188      20505542 
 11188      4C494320 
 11188      4B45592D 
 11189              		.section	.rodata.END_RSA_PRIV,"a"
 11190              		.set	.LANCHOR96,. + 0
 11193              	END_RSA_PRIV:
 11194 0000 2D2D2D2D 		.ascii	"-----END RSA PRIVATE KEY-----\000"
 11194      2D454E44 
 11194      20525341 
 11194      20505249 
 11194      56415445 
 11195              		.section	.rodata.END_RSA_PUB,"a"
 11196              		.set	.LANCHOR100,. + 0
 11199              	END_RSA_PUB:
 11200 0000 2D2D2D2D 		.ascii	"-----END RSA PUBLIC KEY-----\000"
 11200      2D454E44 
 11200      20525341 
 11200      20505542 
 11200      4C494320 
 11201              		.section	.rodata.END_TRUSTED_CERT,"a"
 11202              		.set	.LANCHOR106,. + 0
 11205              	END_TRUSTED_CERT:
 11206 0000 2D2D2D2D 		.ascii	"-----END TRUSTED CERTIFICATE-----\000"
 11206      2D454E44 
 11206      20545255 
 11206      53544544 
 11206      20434552 
 11207              		.section	.rodata.END_X509_CRL,"a"
 11208              		.set	.LANCHOR92,. + 0
 11211              	END_X509_CRL:
 11212 0000 2D2D2D2D 		.ascii	"-----END X509 CRL-----\000"
 11212      2D454E44 
 11212      20583530 
 11212      39204352 
 11212      4C2D2D2D 
 11213              		.section	.rodata.accessDescASN,"a"
 11214              		.set	.LANCHOR81,. + 0
 11217              	accessDescASN:
 11218 0000 00       		.byte	0
 11219 0001 10       		.byte	16
 11220 0002 03       		.byte	3
 11221 0003 00       		.byte	0
 11222 0004 01       		.byte	1
 11223 0005 06       		.byte	6
 11224 0006 00       		.byte	0
 11225 0007 00       		.byte	0
 11226 0008 01       		.byte	1
 11227 0009 80       		.byte	-128
 11228 000a 00       		.byte	0
ARM GAS  /tmp/cciZhAVO.s 			page 194


 11229 000b 00       		.byte	0
 11230              		.section	.rodata.algoIdASN,"a"
 11231              		.set	.LANCHOR54,. + 0
 11234              	algoIdASN:
 11235 0000 00       		.byte	0
 11236 0001 10       		.byte	16
 11237 0002 03       		.byte	3
 11238 0003 00       		.byte	0
 11239 0004 01       		.byte	1
 11240 0005 06       		.byte	6
 11241 0006 00       		.byte	0
 11242 0007 00       		.byte	0
 11243 0008 01       		.byte	1
 11244 0009 05       		.byte	5
 11245 000a 00       		.byte	0
 11246 000b 01       		.byte	1
 11247              		.section	.rodata.altNameASN,"a"
 11248              		.set	.LANCHOR82,. + 0
 11251              	altNameASN:
 11252 0000 00       		.byte	0
 11253 0001 80       		.byte	-128
 11254 0002 02       		.byte	2
 11255 0003 00       		.byte	0
 11256              		.section	.rodata.attrEmailOid,"a"
 11257              		.set	.LANCHOR60,. + 0
 11260              	attrEmailOid:
 11261 0000 2A864886 		.ascii	"*\206H\206\367\015\001\011\001"
 11261      F70D0109 
 11261      01
 11262              		.section	.rodata.authKeyIdASN,"a"
 11263              		.set	.LANCHOR77,. + 0
 11266              	authKeyIdASN:
 11267 0000 00       		.byte	0
 11268 0001 10       		.byte	16
 11269 0002 03       		.byte	3
 11270 0003 00       		.byte	0
 11271 0004 01       		.byte	1
 11272 0005 80       		.byte	-128
 11273 0006 00       		.byte	0
 11274 0007 01       		.byte	1
 11275 0008 01       		.byte	1
 11276 0009 81       		.byte	-127
 11277 000a 01       		.byte	1
 11278 000b 01       		.byte	1
 11279 000c 01       		.byte	1
 11280 000d 82       		.byte	-126
 11281 000e 00       		.byte	0
 11282 000f 01       		.byte	1
 11283              		.section	.rodata.basicConsASN,"a"
 11284              		.set	.LANCHOR76,. + 0
 11287              	basicConsASN:
 11288 0000 00       		.byte	0
 11289 0001 10       		.byte	16
 11290 0002 03       		.byte	3
 11291 0003 00       		.byte	0
 11292 0004 01       		.byte	1
 11293 0005 01       		.byte	1
ARM GAS  /tmp/cciZhAVO.s 			page 195


 11294 0006 00       		.byte	0
 11295 0007 01       		.byte	1
 11296 0008 01       		.byte	1
 11297 0009 02       		.byte	2
 11298 000a 00       		.byte	0
 11299 000b 01       		.byte	1
 11300              		.section	.rodata.bitStringASN,"a"
 11301              		.set	.LANCHOR56,. + 0
 11304              	bitStringASN:
 11305 0000 00       		.byte	0
 11306 0001 03       		.byte	3
 11307 0002 02       		.byte	2
 11308 0003 00       		.byte	0
 11309              		.section	.rodata.blkAes128CbcOid,"a"
 11310              		.set	.LANCHOR20,. + 0
 11313              	blkAes128CbcOid:
 11314 0000 60864801 		.ascii	"`\206H\001e\003\004\001\002"
 11314      65030401 
 11314      02
 11315              		.section	.rodata.blkAes192CbcOid,"a"
 11316              		.set	.LANCHOR21,. + 0
 11319              	blkAes192CbcOid:
 11320 0000 60864801 		.ascii	"`\206H\001e\003\004\001\026"
 11320      65030401 
 11320      16
 11321              		.section	.rodata.blkAes256CbcOid,"a"
 11322              		.set	.LANCHOR22,. + 0
 11325              	blkAes256CbcOid:
 11326 0000 60864801 		.ascii	"`\206H\001e\003\004\001*"
 11326      65030401 
 11326      2A
 11327              		.section	.rodata.certExtASN,"a"
 11328              		.set	.LANCHOR87,. + 0
 11331              	certExtASN:
 11332 0000 00       		.byte	0
 11333 0001 10       		.byte	16
 11334 0002 03       		.byte	3
 11335 0003 00       		.byte	0
 11336 0004 01       		.byte	1
 11337 0005 06       		.byte	6
 11338 0006 00       		.byte	0
 11339 0007 00       		.byte	0
 11340 0008 01       		.byte	1
 11341 0009 01       		.byte	1
 11342 000a 00       		.byte	0
 11343 000b 01       		.byte	1
 11344 000c 01       		.byte	1
 11345 000d 04       		.byte	4
 11346 000e 02       		.byte	2
 11347 000f 00       		.byte	0
 11348              		.section	.rodata.certExtHdrASN,"a"
 11349              		.set	.LANCHOR86,. + 0
 11352              	certExtHdrASN:
 11353 0000 00       		.byte	0
 11354 0001 83       		.byte	-125
 11355 0002 03       		.byte	3
 11356 0003 00       		.byte	0
ARM GAS  /tmp/cciZhAVO.s 			page 196


 11357 0004 01       		.byte	1
 11358 0005 10       		.byte	16
 11359 0006 03       		.byte	3
 11360 0007 00       		.byte	0
 11361              		.section	.rodata.certNameASN,"a"
 11362              		.set	.LANCHOR72,. + 0
 11365              	certNameASN:
 11366 0000 00       		.byte	0
 11367 0001 06       		.byte	6
 11368 0002 00       		.byte	0
 11369 0003 01       		.byte	1
 11370 0004 00       		.byte	0
 11371 0005 10       		.byte	16
 11372 0006 01       		.byte	1
 11373 0007 00       		.byte	0
 11374              		.section	.rodata.certNameSubject,"a"
 11375              		.align	2
 11376              		.set	.LANCHOR59,. + 0
 11379              	certNameSubject:
 11380 0000 00000000 		.word	.LC11
 11381 0004 04       		.byte	4
 11382 0005 000000   		.space	3
 11383 0008 05000000 		.word	.LC12
 11384 000c 04       		.byte	4
 11385 000d 000000   		.space	3
 11386 0010 0A000000 		.word	.LC13
 11387 0014 0E       		.byte	14
 11388 0015 000000   		.space	3
 11389 0018 19000000 		.word	.LC14
 11390 001c 03       		.byte	3
 11391 001d 000000   		.space	3
 11392 0020 1D000000 		.word	.LC15
 11393 0024 03       		.byte	3
 11394 0025 000000   		.space	3
 11395 0028 21000000 		.word	.LC16
 11396 002c 04       		.byte	4
 11397 002d 000000   		.space	3
 11398 0030 26000000 		.word	.LC17
 11399 0034 08       		.byte	8
 11400 0035 000000   		.space	3
 11401 0038 2F000000 		.word	.LC18
 11402 003c 03       		.byte	3
 11403 003d 000000   		.space	3
 11404 0040 33000000 		.word	.LC19
 11405 0044 04       		.byte	4
 11406 0045 000000   		.space	3
 11407 0048 00000000 		.word	0
 11408 004c 00       		.byte	0
 11409 004d 000000   		.space	3
 11410 0050 00000000 		.word	0
 11411 0054 00       		.byte	0
 11412 0055 000000   		.space	3
 11413 0058 00000000 		.word	0
 11414 005c 00       		.byte	0
 11415 005d 000000   		.space	3
 11416 0060 38000000 		.word	.LC20
 11417 0064 12       		.byte	18
ARM GAS  /tmp/cciZhAVO.s 			page 197


 11418 0065 000000   		.space	3
 11419 0068 00000000 		.word	0
 11420 006c 00       		.byte	0
 11421 006d 000000   		.space	3
 11422 0070 4B000000 		.word	.LC21
 11423 0074 0C       		.byte	12
 11424 0075 000000   		.space	3
 11425 0078 58000000 		.word	.LC22
 11426 007c 08       		.byte	8
 11427 007d 000000   		.space	3
 11428              		.section	.rodata.crlDistASN,"a"
 11429              		.set	.LANCHOR80,. + 0
 11432              	crlDistASN:
 11433 0000 00       		.byte	0
 11434 0001 10       		.byte	16
 11435 0002 03       		.byte	3
 11436 0003 00       		.byte	0
 11437 0004 01       		.byte	1
 11438 0005 10       		.byte	16
 11439 0006 03       		.byte	3
 11440 0007 00       		.byte	0
 11441 0008 02       		.byte	2
 11442 0009 80       		.byte	-128
 11443 000a 03       		.byte	3
 11444 000b 01       		.byte	1
 11445 000c 03       		.byte	3
 11446 000d 80       		.byte	-128
 11447 000e 03       		.byte	3
 11448 000f 02       		.byte	2
 11449 0010 04       		.byte	4
 11450 0011 86       		.byte	-122
 11451 0012 00       		.byte	0
 11452 0013 00       		.byte	0
 11453 0014 03       		.byte	3
 11454 0015 81       		.byte	-127
 11455 0016 01       		.byte	1
 11456 0017 02       		.byte	2
 11457 0018 02       		.byte	2
 11458 0019 81       		.byte	-127
 11459 001a 00       		.byte	0
 11460 001b 01       		.byte	1
 11461 001c 02       		.byte	2
 11462 001d 82       		.byte	-126
 11463 001e 01       		.byte	1
 11464 001f 01       		.byte	1
 11465              		.section	.rodata.dateASN,"a"
 11466              		.set	.LANCHOR73,. + 0
 11469              	dateASN:
 11470 0000 00       		.byte	0
 11471 0001 17       		.byte	23
 11472 0002 00       		.byte	0
 11473 0003 02       		.byte	2
 11474 0004 00       		.byte	0
 11475 0005 18       		.byte	24
 11476 0006 00       		.byte	0
 11477 0007 02       		.byte	2
 11478              		.section	.rodata.dcOid,"a"
ARM GAS  /tmp/cciZhAVO.s 			page 198


 11479              		.set	.LANCHOR62,. + 0
 11482              	dcOid:
 11483 0000 09922689 		.ascii	"\011\222&\211\223\362,d\001\031"
 11483      93F22C64 
 11483      0119
 11484              		.section	.rodata.dhSinglePass_stdDH_sha1kdf_Oid,"a"
 11485              		.set	.LANCHOR51,. + 0
 11488              	dhSinglePass_stdDH_sha1kdf_Oid:
 11489 0000 2B810510 		.ascii	"+\201\005\020\206H?\000\002"
 11489      86483F00 
 11489      02
 11490              		.section	.rodata.dhSinglePass_stdDH_sha256kdf_Oid,"a"
 11491              		.set	.LANCHOR52,. + 0
 11494              	dhSinglePass_stdDH_sha256kdf_Oid:
 11495 0000 2B810401 		.ascii	"+\201\004\001\013\001"
 11495      0B01
 11496              		.section	.rodata.digestInfoASN,"a"
 11497              		.set	.LANCHOR75,. + 0
 11500              	digestInfoASN:
 11501 0000 00       		.byte	0
 11502 0001 10       		.byte	16
 11503 0002 03       		.byte	3
 11504 0003 00       		.byte	0
 11505 0004 01       		.byte	1
 11506 0005 10       		.byte	16
 11507 0006 03       		.byte	3
 11508 0007 00       		.byte	0
 11509 0008 02       		.byte	2
 11510 0009 06       		.byte	6
 11511 000a 00       		.byte	0
 11512 000b 00       		.byte	0
 11513 000c 02       		.byte	2
 11514 000d 05       		.byte	5
 11515 000e 00       		.byte	0
 11516 000f 00       		.byte	0
 11517 0010 01       		.byte	1
 11518 0011 04       		.byte	4
 11519 0012 00       		.byte	0
 11520 0013 00       		.byte	0
 11521              		.section	.rodata.dsaSigASN,"a"
 11522              		.set	.LANCHOR109,. + 0
 11525              	dsaSigASN:
 11526 0000 00       		.byte	0
 11527 0001 10       		.byte	16
 11528 0002 03       		.byte	3
 11529 0003 00       		.byte	0
 11530 0004 01       		.byte	1
 11531 0005 02       		.byte	2
 11532 0006 00       		.byte	0
 11533 0007 00       		.byte	0
 11534 0008 01       		.byte	1
 11535 0009 02       		.byte	2
 11536 000a 00       		.byte	0
 11537 000b 00       		.byte	0
 11538              		.section	.rodata.eccCertKeyASN,"a"
 11539              		.set	.LANCHOR85,. + 0
 11542              	eccCertKeyASN:
ARM GAS  /tmp/cciZhAVO.s 			page 199


 11543 0000 01       		.byte	1
 11544 0001 06       		.byte	6
 11545 0002 00       		.byte	0
 11546 0003 02       		.byte	2
 11547 0004 01       		.byte	1
 11548 0005 10       		.byte	16
 11549 0006 01       		.byte	1
 11550 0007 02       		.byte	2
 11551 0008 00       		.byte	0
 11552 0009 03       		.byte	3
 11553 000a 00       		.byte	0
 11554 000b 00       		.byte	0
 11555              		.section	.rodata.eccKeyASN,"a"
 11556              		.set	.LANCHOR110,. + 0
 11559              	eccKeyASN:
 11560 0000 00       		.byte	0
 11561 0001 10       		.byte	16
 11562 0002 03       		.byte	3
 11563 0003 00       		.byte	0
 11564 0004 01       		.byte	1
 11565 0005 02       		.byte	2
 11566 0006 00       		.byte	0
 11567 0007 00       		.byte	0
 11568 0008 01       		.byte	1
 11569 0009 04       		.byte	4
 11570 000a 00       		.byte	0
 11571 000b 00       		.byte	0
 11572 000c 01       		.byte	1
 11573 000d 80       		.byte	-128
 11574 000e 03       		.byte	3
 11575 000f 01       		.byte	1
 11576 0010 02       		.byte	2
 11577 0011 06       		.byte	6
 11578 0012 00       		.byte	0
 11579 0013 02       		.byte	2
 11580 0014 02       		.byte	2
 11581 0015 10       		.byte	16
 11582 0016 01       		.byte	1
 11583 0017 02       		.byte	2
 11584 0018 01       		.byte	1
 11585 0019 81       		.byte	-127
 11586 001a 03       		.byte	3
 11587 001b 01       		.byte	1
 11588 001c 02       		.byte	2
 11589 001d 03       		.byte	3
 11590 001e 00       		.byte	0
 11591 001f 00       		.byte	0
 11592              		.section	.rodata.eccPublicKeyASN,"a"
 11593              		.set	.LANCHOR74,. + 0
 11596              	eccPublicKeyASN:
 11597 0000 00       		.byte	0
 11598 0001 10       		.byte	16
 11599 0002 03       		.byte	3
 11600 0003 00       		.byte	0
 11601 0004 01       		.byte	1
 11602 0005 10       		.byte	16
 11603 0006 03       		.byte	3
ARM GAS  /tmp/cciZhAVO.s 			page 200


 11604 0007 00       		.byte	0
 11605 0008 02       		.byte	2
 11606 0009 06       		.byte	6
 11607 000a 00       		.byte	0
 11608 000b 00       		.byte	0
 11609 000c 02       		.byte	2
 11610 000d 06       		.byte	6
 11611 000e 00       		.byte	0
 11612 000f 02       		.byte	2
 11613 0010 02       		.byte	2
 11614 0011 10       		.byte	16
 11615 0012 01       		.byte	1
 11616 0013 02       		.byte	2
 11617 0014 01       		.byte	1
 11618 0015 03       		.byte	3
 11619 0016 00       		.byte	0
 11620 0017 00       		.byte	0
 11621              		.section	.rodata.extAltNamesHwNameOid,"a"
 11622              		.set	.LANCHOR38,. + 0
 11625              	extAltNamesHwNameOid:
 11626 0000 2B060105 		.ascii	"+\006\001\005\005\007\010\004"
 11626      05070804 
 11627              		.section	.rodata.extAltNamesOid,"a"
 11628              		.set	.LANCHOR24,. + 0
 11631              	extAltNamesOid:
 11632 0000 551D11   		.ascii	"U\035\021"
 11633              		.section	.rodata.extAuthInfoCaIssuerOid,"a"
 11634              		.set	.LANCHOR35,. + 0
 11637              	extAuthInfoCaIssuerOid:
 11638 0000 2B060105 		.ascii	"+\006\001\005\005\0070\002"
 11638      05073002 
 11639              		.section	.rodata.extAuthInfoOcspOid,"a"
 11640              		.set	.LANCHOR34,. + 0
 11643              	extAuthInfoOcspOid:
 11644 0000 2B060105 		.ascii	"+\006\001\005\005\0070\001"
 11644      05073001 
 11645              		.section	.rodata.extAuthInfoOid,"a"
 11646              		.set	.LANCHOR26,. + 0
 11649              	extAuthInfoOid:
 11650 0000 2B060105 		.ascii	"+\006\001\005\005\007\001\001"
 11650      05070101 
 11651              		.section	.rodata.extAuthKeyOid,"a"
 11652              		.set	.LANCHOR27,. + 0
 11655              	extAuthKeyOid:
 11656 0000 551D23   		.ascii	"U\035#"
 11657              		.section	.rodata.extBasicCaOid,"a"
 11658              		.set	.LANCHOR23,. + 0
 11661              	extBasicCaOid:
 11662 0000 551D13   		.ascii	"U\035\023"
 11663              		.section	.rodata.extCertPolicyAnyOid,"a"
 11664              		.set	.LANCHOR36,. + 0
 11667              	extCertPolicyAnyOid:
 11668 0000 551D2000 		.ascii	"U\035 \000"
 11669              		.section	.rodata.extCertPolicyIsrgDomainValid,"a"
 11670              		.set	.LANCHOR37,. + 0
 11673              	extCertPolicyIsrgDomainValid:
 11674 0000 2B060104 		.ascii	"+\006\001\004\001\202\337\023\001\001\001"
ARM GAS  /tmp/cciZhAVO.s 			page 201


 11674      0182DF13 
 11674      010101
 11675              		.section	.rodata.extCertPolicyOid,"a"
 11676              		.set	.LANCHOR29,. + 0
 11679              	extCertPolicyOid:
 11680 0000 551D20   		.ascii	"U\035 "
 11681              		.section	.rodata.extCrlDistOid,"a"
 11682              		.set	.LANCHOR25,. + 0
 11685              	extCrlDistOid:
 11686 0000 551D1F   		.ascii	"U\035\037"
 11687              		.section	.rodata.extExtKeyUsageAnyOid,"a"
 11688              		.set	.LANCHOR39,. + 0
 11691              	extExtKeyUsageAnyOid:
 11692 0000 551D2500 		.ascii	"U\035%\000"
 11693              		.section	.rodata.extExtKeyUsageClientAuthOid,"a"
 11694              		.set	.LANCHOR41,. + 0
 11697              	extExtKeyUsageClientAuthOid:
 11698 0000 2B060105 		.ascii	"+\006\001\005\005\007\003\002"
 11698      05070302 
 11699              		.section	.rodata.extExtKeyUsageCodeSigningOid,"a"
 11700              		.set	.LANCHOR42,. + 0
 11703              	extExtKeyUsageCodeSigningOid:
 11704 0000 2B060105 		.ascii	"+\006\001\005\005\007\003\003"
 11704      05070303 
 11705              		.section	.rodata.extExtKeyUsageEmailProtectOid,"a"
 11706              		.set	.LANCHOR43,. + 0
 11709              	extExtKeyUsageEmailProtectOid:
 11710 0000 2B060105 		.ascii	"+\006\001\005\005\007\003\004"
 11710      05070304 
 11711              		.section	.rodata.extExtKeyUsageOcspSignOid,"a"
 11712              		.set	.LANCHOR45,. + 0
 11715              	extExtKeyUsageOcspSignOid:
 11716 0000 2B060105 		.ascii	"+\006\001\005\005\007\003\011"
 11716      05070309 
 11717              		.section	.rodata.extExtKeyUsageOid,"a"
 11718              		.set	.LANCHOR32,. + 0
 11721              	extExtKeyUsageOid:
 11722 0000 551D25   		.ascii	"U\035%"
 11723              		.section	.rodata.extExtKeyUsageServerAuthOid,"a"
 11724              		.set	.LANCHOR40,. + 0
 11727              	extExtKeyUsageServerAuthOid:
 11728 0000 2B060105 		.ascii	"+\006\001\005\005\007\003\001"
 11728      05070301 
 11729              		.section	.rodata.extExtKeyUsageTimestampOid,"a"
 11730              		.set	.LANCHOR44,. + 0
 11733              	extExtKeyUsageTimestampOid:
 11734 0000 2B060105 		.ascii	"+\006\001\005\005\007\003\010"
 11734      05070308 
 11735              		.section	.rodata.extInhibitAnyOid,"a"
 11736              		.set	.LANCHOR31,. + 0
 11739              	extInhibitAnyOid:
 11740 0000 551D36   		.ascii	"U\0356"
 11741              		.section	.rodata.extKeyUsageOid,"a"
 11742              		.set	.LANCHOR30,. + 0
 11745              	extKeyUsageOid:
 11746 0000 551D0F   		.ascii	"U\035\017"
 11747              		.section	.rodata.extNameConsOid,"a"
ARM GAS  /tmp/cciZhAVO.s 			page 202


 11748              		.set	.LANCHOR33,. + 0
 11751              	extNameConsOid:
 11752 0000 551D1E   		.ascii	"U\035\036"
 11753              		.section	.rodata.extSubjKeyOid,"a"
 11754              		.set	.LANCHOR28,. + 0
 11757              	extSubjKeyOid:
 11758 0000 551D0E   		.ascii	"U\035\016"
 11759              		.section	.rodata.fvrtDrk,"a"
 11760              		.set	.LANCHOR64,. + 0
 11763              	fvrtDrk:
 11764 0000 09922689 		.ascii	"\011\222&\211\223\362,d\001\005"
 11764      93F22C64 
 11764      0105
 11765              		.section	.rodata.generalNameChoice,"a"
 11766              		.set	.LANCHOR65,. + 0
 11769              	generalNameChoice:
 11770 0000 A0818283 		.ascii	"\240\201\202\203\244\245\206\207\210\000"
 11770      A4A58687 
 11770      8800
 11771              		.section	.rodata.hashSha1hOid,"a"
 11772              		.set	.LANCHOR7,. + 0
 11775              	hashSha1hOid:
 11776 0000 2B0E0302 		.ascii	"+\016\003\002\032"
 11776      1A
 11777              		.section	.rodata.hashSha256hOid,"a"
 11778              		.set	.LANCHOR8,. + 0
 11781              	hashSha256hOid:
 11782 0000 60864801 		.ascii	"`\206H\001e\003\004\002\001"
 11782      65030402 
 11782      01
 11783              		.section	.rodata.hashSha3_224hOid,"a"
 11784              		.set	.LANCHOR9,. + 0
 11787              	hashSha3_224hOid:
 11788 0000 60864801 		.ascii	"`\206H\001e\003\004\002\007"
 11788      65030402 
 11788      07
 11789              		.section	.rodata.hashSha3_256hOid,"a"
 11790              		.set	.LANCHOR10,. + 0
 11793              	hashSha3_256hOid:
 11794 0000 60864801 		.ascii	"`\206H\001e\003\004\002\010"
 11794      65030402 
 11794      08
 11795              		.section	.rodata.hashSha3_384hOid,"a"
 11796              		.set	.LANCHOR11,. + 0
 11799              	hashSha3_384hOid:
 11800 0000 60864801 		.ascii	"`\206H\001e\003\004\002\011"
 11800      65030402 
 11800      09
 11801              		.section	.rodata.hashSha3_512hOid,"a"
 11802              		.set	.LANCHOR12,. + 0
 11805              	hashSha3_512hOid:
 11806 0000 60864801 		.ascii	"`\206H\001e\003\004\002\012"
 11806      65030402 
 11806      0A
 11807              		.section	.rodata.hmacSha256Oid,"a"
 11808              		.set	.LANCHOR53,. + 0
 11811              	hmacSha256Oid:
ARM GAS  /tmp/cciZhAVO.s 			page 203


 11812 0000 2A864886 		.ascii	"*\206H\206\367\015\002\011"
 11812      F70D0209 
 11813              		.section	.rodata.intASN,"a"
 11814              		.set	.LANCHOR55,. + 0
 11817              	intASN:
 11818 0000 00       		.byte	0
 11819 0001 02       		.byte	2
 11820 0002 00       		.byte	0
 11821 0003 00       		.byte	0
 11822              		.section	.rodata.keyEcdsaOid,"a"
 11823              		.set	.LANCHOR19,. + 0
 11826              	keyEcdsaOid:
 11827 0000 2A8648CE 		.ascii	"*\206H\316=\002\001"
 11827      3D0201
 11828              		.section	.rodata.keyPurposeIdASN,"a"
 11829              		.set	.LANCHOR79,. + 0
 11832              	keyPurposeIdASN:
 11833 0000 00       		.byte	0
 11834 0001 06       		.byte	6
 11835 0002 00       		.byte	0
 11836 0003 00       		.byte	0
 11837              		.section	.rodata.keyUsageASN,"a"
 11838              		.set	.LANCHOR78,. + 0
 11841              	keyUsageASN:
 11842 0000 00       		.byte	0
 11843 0001 03       		.byte	3
 11844 0002 00       		.byte	0
 11845 0003 00       		.byte	0
 11846              		.section	.rodata.nameConstraintsASN,"a"
 11847              		.set	.LANCHOR83,. + 0
 11850              	nameConstraintsASN:
 11851 0000 00       		.byte	0
 11852 0001 10       		.byte	16
 11853 0002 03       		.byte	3
 11854 0003 00       		.byte	0
 11855 0004 01       		.byte	1
 11856 0005 80       		.byte	-128
 11857 0006 01       		.byte	1
 11858 0007 01       		.byte	1
 11859 0008 01       		.byte	1
 11860 0009 81       		.byte	-127
 11861 000a 01       		.byte	1
 11862 000b 01       		.byte	1
 11863              		.section	.rodata.nameHashASN,"a"
 11864              		.set	.LANCHOR111,. + 0
 11867              	nameHashASN:
 11868 0000 00       		.byte	0
 11869 0001 06       		.byte	6
 11870 0002 00       		.byte	0
 11871 0003 01       		.byte	1
 11872 0004 00       		.byte	0
 11873 0005 10       		.byte	16
 11874 0006 01       		.byte	1
 11875 0007 00       		.byte	0
 11876              		.section	.rodata.objectIdASN,"a"
 11877              		.set	.LANCHOR67,. + 0
 11880              	objectIdASN:
ARM GAS  /tmp/cciZhAVO.s 			page 204


 11881 0000 00       		.byte	0
 11882 0001 06       		.byte	6
 11883 0002 00       		.byte	0
 11884 0003 00       		.byte	0
 11885              		.section	.rodata.p8EncPbes2ASN,"a"
 11886              		.set	.LANCHOR71,. + 0
 11889              	p8EncPbes2ASN:
 11890 0000 00       		.byte	0
 11891 0001 10       		.byte	16
 11892 0002 03       		.byte	3
 11893 0003 00       		.byte	0
 11894 0004 01       		.byte	1
 11895 0005 10       		.byte	16
 11896 0006 03       		.byte	3
 11897 0007 00       		.byte	0
 11898 0008 02       		.byte	2
 11899 0009 06       		.byte	6
 11900 000a 00       		.byte	0
 11901 000b 00       		.byte	0
 11902 000c 02       		.byte	2
 11903 000d 10       		.byte	16
 11904 000e 03       		.byte	3
 11905 000f 00       		.byte	0
 11906 0010 03       		.byte	3
 11907 0011 10       		.byte	16
 11908 0012 03       		.byte	3
 11909 0013 00       		.byte	0
 11910 0014 04       		.byte	4
 11911 0015 06       		.byte	6
 11912 0016 00       		.byte	0
 11913 0017 00       		.byte	0
 11914 0018 04       		.byte	4
 11915 0019 10       		.byte	16
 11916 001a 03       		.byte	3
 11917 001b 00       		.byte	0
 11918 001c 05       		.byte	5
 11919 001d 04       		.byte	4
 11920 001e 00       		.byte	0
 11921 001f 00       		.byte	0
 11922 0020 05       		.byte	5
 11923 0021 02       		.byte	2
 11924 0022 00       		.byte	0
 11925 0023 00       		.byte	0
 11926 0024 05       		.byte	5
 11927 0025 02       		.byte	2
 11928 0026 00       		.byte	0
 11929 0027 01       		.byte	1
 11930 0028 05       		.byte	5
 11931 0029 10       		.byte	16
 11932 002a 03       		.byte	3
 11933 002b 01       		.byte	1
 11934 002c 06       		.byte	6
 11935 002d 06       		.byte	6
 11936 002e 00       		.byte	0
 11937 002f 00       		.byte	0
 11938 0030 06       		.byte	6
 11939 0031 05       		.byte	5
ARM GAS  /tmp/cciZhAVO.s 			page 205


 11940 0032 00       		.byte	0
 11941 0033 01       		.byte	1
 11942 0034 03       		.byte	3
 11943 0035 10       		.byte	16
 11944 0036 03       		.byte	3
 11945 0037 00       		.byte	0
 11946 0038 04       		.byte	4
 11947 0039 06       		.byte	6
 11948 003a 00       		.byte	0
 11949 003b 00       		.byte	0
 11950 003c 04       		.byte	4
 11951 003d 04       		.byte	4
 11952 003e 00       		.byte	0
 11953 003f 00       		.byte	0
 11954 0040 01       		.byte	1
 11955 0041 80       		.byte	-128
 11956 0042 00       		.byte	0
 11957 0043 00       		.byte	0
 11958              		.section	.rodata.pbes2,"a"
 11959              		.set	.LANCHOR47,. + 0
 11962              	pbes2:
 11963 0000 2A864886 		.ascii	"*\206H\206\367\015\001\005\015"
 11963      F70D0105 
 11963      0D
 11964              		.section	.rodata.pbes2ParamsASN,"a"
 11965              		.set	.LANCHOR70,. + 0
 11968              	pbes2ParamsASN:
 11969 0000 00       		.byte	0
 11970 0001 10       		.byte	16
 11971 0002 03       		.byte	3
 11972 0003 00       		.byte	0
 11973 0004 01       		.byte	1
 11974 0005 06       		.byte	6
 11975 0006 00       		.byte	0
 11976 0007 00       		.byte	0
 11977 0008 01       		.byte	1
 11978 0009 10       		.byte	16
 11979 000a 03       		.byte	3
 11980 000b 00       		.byte	0
 11981 000c 02       		.byte	2
 11982 000d 04       		.byte	4
 11983 000e 00       		.byte	0
 11984 000f 00       		.byte	0
 11985 0010 02       		.byte	2
 11986 0011 02       		.byte	2
 11987 0012 00       		.byte	0
 11988 0013 00       		.byte	0
 11989 0014 02       		.byte	2
 11990 0015 02       		.byte	2
 11991 0016 00       		.byte	0
 11992 0017 01       		.byte	1
 11993 0018 02       		.byte	2
 11994 0019 10       		.byte	16
 11995 001a 03       		.byte	3
 11996 001b 01       		.byte	1
 11997 001c 03       		.byte	3
 11998 001d 06       		.byte	6
ARM GAS  /tmp/cciZhAVO.s 			page 206


 11999 001e 00       		.byte	0
 12000 001f 00       		.byte	0
 12001 0020 03       		.byte	3
 12002 0021 05       		.byte	5
 12003 0022 00       		.byte	0
 12004 0023 01       		.byte	1
 12005 0024 00       		.byte	0
 12006 0025 10       		.byte	16
 12007 0026 03       		.byte	3
 12008 0027 00       		.byte	0
 12009 0028 01       		.byte	1
 12010 0029 06       		.byte	6
 12011 002a 00       		.byte	0
 12012 002b 00       		.byte	0
 12013 002c 01       		.byte	1
 12014 002d 04       		.byte	4
 12015 002e 00       		.byte	0
 12016 002f 00       		.byte	0
 12017              		.section	.rodata.pbkdf2Oid,"a"
 12018              		.set	.LANCHOR46,. + 0
 12021              	pbkdf2Oid:
 12022 0000 2A864886 		.ascii	"*\206H\206\367\015\001\005\014"
 12022      F70D0105 
 12022      0C
 12023              		.section	.rodata.pem_struct_min_sz,"a"
 12024              		.align	2
 12027              	pem_struct_min_sz:
 12028 0000 2E000000 		.word	46
 12029              		.section	.rodata.pkcs8DecASN,"a"
 12030              		.set	.LANCHOR69,. + 0
 12033              	pkcs8DecASN:
 12034 0000 01       		.byte	1
 12035 0001 10       		.byte	16
 12036 0002 03       		.byte	3
 12037 0003 00       		.byte	0
 12038 0004 02       		.byte	2
 12039 0005 06       		.byte	6
 12040 0006 00       		.byte	0
 12041 0007 00       		.byte	0
 12042 0008 02       		.byte	2
 12043 0009 10       		.byte	16
 12044 000a 01       		.byte	1
 12045 000b 00       		.byte	0
 12046 000c 01       		.byte	1
 12047 000d 80       		.byte	-128
 12048 000e 00       		.byte	0
 12049 000f 02       		.byte	2
 12050 0010 01       		.byte	1
 12051 0011 04       		.byte	4
 12052 0012 00       		.byte	0
 12053 0013 02       		.byte	2
 12054              		.section	.rodata.pkcs8KeyASN,"a"
 12055              		.set	.LANCHOR68,. + 0
 12058              	pkcs8KeyASN:
 12059 0000 00       		.byte	0
 12060 0001 10       		.byte	16
 12061 0002 03       		.byte	3
ARM GAS  /tmp/cciZhAVO.s 			page 207


 12062 0003 00       		.byte	0
 12063 0004 01       		.byte	1
 12064 0005 02       		.byte	2
 12065 0006 00       		.byte	0
 12066 0007 00       		.byte	0
 12067 0008 01       		.byte	1
 12068 0009 10       		.byte	16
 12069 000a 03       		.byte	3
 12070 000b 00       		.byte	0
 12071 000c 02       		.byte	2
 12072 000d 06       		.byte	6
 12073 000e 00       		.byte	0
 12074 000f 00       		.byte	0
 12075 0010 02       		.byte	2
 12076 0011 06       		.byte	6
 12077 0012 00       		.byte	0
 12078 0013 01       		.byte	1
 12079 0014 02       		.byte	2
 12080 0015 05       		.byte	5
 12081 0016 00       		.byte	0
 12082 0017 01       		.byte	1
 12083 0018 01       		.byte	1
 12084 0019 04       		.byte	4
 12085 001a 00       		.byte	0
 12086 001b 00       		.byte	0
 12087 001c 01       		.byte	1
 12088 001d 80       		.byte	-128
 12089 001e 01       		.byte	1
 12090 001f 01       		.byte	1
 12091              		.section	.rodata.rdnASN,"a"
 12092              		.set	.LANCHOR58,. + 0
 12095              	rdnASN:
 12096 0000 01       		.byte	1
 12097 0001 11       		.byte	17
 12098 0002 03       		.byte	3
 12099 0003 00       		.byte	0
 12100 0004 02       		.byte	2
 12101 0005 10       		.byte	16
 12102 0006 03       		.byte	3
 12103 0007 00       		.byte	0
 12104 0008 03       		.byte	3
 12105 0009 06       		.byte	6
 12106 000a 00       		.byte	0
 12107 000b 00       		.byte	0
 12108 000c 03       		.byte	3
 12109 000d 00       		.byte	0
 12110 000e 00       		.byte	0
 12111 000f 00       		.byte	0
 12112              		.section	.rodata.rdnChoice,"a"
 12113              		.set	.LANCHOR57,. + 0
 12116              	rdnChoice:
 12117 0000 13160C14 		.ascii	"\023\026\014\024\034\036\000"
 12117      1C1E00
 12118              		.section	.rodata.rfc822Mlbx,"a"
 12119              		.set	.LANCHOR63,. + 0
 12122              	rfc822Mlbx:
 12123 0000 09922689 		.ascii	"\011\222&\211\223\362,d\001\003"
ARM GAS  /tmp/cciZhAVO.s 			page 208


 12123      93F22C64 
 12123      0103
 12124              		.section	.rodata.sigSha1wEcdsaName,"a"
 12125              		.set	.LANCHOR1,. + 0
 12128              	sigSha1wEcdsaName:
 12129 0000 53484177 		.ascii	"SHAwECDSA\000"
 12129      45434453 
 12129      4100
 12130              		.section	.rodata.sigSha1wEcdsaOid,"a"
 12131              		.set	.LANCHOR13,. + 0
 12134              	sigSha1wEcdsaOid:
 12135 0000 2A8648CE 		.ascii	"*\206H\316=\004\001"
 12135      3D0401
 12136              		.section	.rodata.sigSha256wEcdsaName,"a"
 12137              		.set	.LANCHOR2,. + 0
 12140              	sigSha256wEcdsaName:
 12141 0000 53484132 		.ascii	"SHA256wECDSA\000"
 12141      35367745 
 12141      43445341 
 12141      00
 12142              		.section	.rodata.sigSha256wEcdsaOid,"a"
 12143              		.set	.LANCHOR14,. + 0
 12146              	sigSha256wEcdsaOid:
 12147 0000 2A8648CE 		.ascii	"*\206H\316=\004\003\002"
 12147      3D040302 
 12148              		.section	.rodata.sigSha3_224wEcdsaName,"a"
 12149              		.set	.LANCHOR6,. + 0
 12152              	sigSha3_224wEcdsaName:
 12153 0000 53484133 		.ascii	"SHA3_224wECDSA\000"
 12153      5F323234 
 12153      77454344 
 12153      534100
 12154              		.section	.rodata.sigSha3_224wEcdsaOid,"a"
 12155              		.set	.LANCHOR15,. + 0
 12158              	sigSha3_224wEcdsaOid:
 12159 0000 60864801 		.ascii	"`\206H\001e\003\004\003\011"
 12159      65030403 
 12159      09
 12160              		.section	.rodata.sigSha3_256wEcdsaName,"a"
 12161              		.set	.LANCHOR3,. + 0
 12164              	sigSha3_256wEcdsaName:
 12165 0000 53484133 		.ascii	"SHA3_256wECDSA\000"
 12165      5F323536 
 12165      77454344 
 12165      534100
 12166              		.section	.rodata.sigSha3_256wEcdsaOid,"a"
 12167              		.set	.LANCHOR16,. + 0
 12170              	sigSha3_256wEcdsaOid:
 12171 0000 60864801 		.ascii	"`\206H\001e\003\004\003\012"
 12171      65030403 
 12171      0A
 12172              		.section	.rodata.sigSha3_384wEcdsaName,"a"
 12173              		.set	.LANCHOR4,. + 0
 12176              	sigSha3_384wEcdsaName:
 12177 0000 53484133 		.ascii	"SHA3_384wECDSA\000"
 12177      5F333834 
 12177      77454344 
ARM GAS  /tmp/cciZhAVO.s 			page 209


 12177      534100
 12178              		.section	.rodata.sigSha3_384wEcdsaOid,"a"
 12179              		.set	.LANCHOR17,. + 0
 12182              	sigSha3_384wEcdsaOid:
 12183 0000 60864801 		.ascii	"`\206H\001e\003\004\003\013"
 12183      65030403 
 12183      0B
 12184              		.section	.rodata.sigSha3_512wEcdsaName,"a"
 12185              		.set	.LANCHOR5,. + 0
 12188              	sigSha3_512wEcdsaName:
 12189 0000 53484133 		.ascii	"SHA3_512wECDSA\000"
 12189      5F353132 
 12189      77454344 
 12189      534100
 12190              		.section	.rodata.sigSha3_512wEcdsaOid,"a"
 12191              		.set	.LANCHOR18,. + 0
 12194              	sigSha3_512wEcdsaOid:
 12195 0000 60864801 		.ascii	"`\206H\001e\003\004\003\014"
 12195      65030403 
 12195      0C
 12196              		.section	.rodata.sigUnknownName,"a"
 12197              		.set	.LANCHOR0,. + 0
 12200              	sigUnknownName:
 12201 0000 556E6B6E 		.ascii	"Unknown\000"
 12201      6F776E00 
 12202              		.section	.rodata.subTreeASN,"a"
 12203              		.set	.LANCHOR66,. + 0
 12206              	subTreeASN:
 12207 0000 00       		.byte	0
 12208 0001 10       		.byte	16
 12209 0002 03       		.byte	3
 12210 0003 00       		.byte	0
 12211 0004 01       		.byte	1
 12212 0005 80       		.byte	-128
 12213 0006 00       		.byte	0
 12214 0007 00       		.byte	0
 12215 0008 01       		.byte	1
 12216 0009 80       		.byte	-128
 12217 000a 00       		.byte	0
 12218 000b 01       		.byte	1
 12219 000c 01       		.byte	1
 12220 000d 81       		.byte	-127
 12221 000e 00       		.byte	0
 12222 000f 01       		.byte	1
 12223              		.section	.rodata.uidOid,"a"
 12224              		.set	.LANCHOR61,. + 0
 12227              	uidOid:
 12228 0000 09922689 		.ascii	"\011\222&\211\223\362,d\001\001"
 12228      93F22C64 
 12228      0101
 12229              		.section	.rodata.wrapAes128Oid,"a"
 12230              		.set	.LANCHOR48,. + 0
 12233              	wrapAes128Oid:
 12234 0000 60864801 		.ascii	"`\206H\001e\003\004\001\005"
 12234      65030401 
 12234      05
 12235              		.section	.rodata.wrapAes192Oid,"a"
ARM GAS  /tmp/cciZhAVO.s 			page 210


 12236              		.set	.LANCHOR49,. + 0
 12239              	wrapAes192Oid:
 12240 0000 60864801 		.ascii	"`\206H\001e\003\004\001\031"
 12240      65030401 
 12240      19
 12241              		.section	.rodata.wrapAes256Oid,"a"
 12242              		.set	.LANCHOR50,. + 0
 12245              	wrapAes256Oid:
 12246 0000 60864801 		.ascii	"`\206H\001e\003\004\001-"
 12246      65030401 
 12246      2D
 12247              		.section	.rodata.x509CertASN,"a"
 12248              		.set	.LANCHOR84,. + 0
 12251              	x509CertASN:
 12252 0000 00       		.byte	0
 12253 0001 10       		.byte	16
 12254 0002 03       		.byte	3
 12255 0003 00       		.byte	0
 12256 0004 01       		.byte	1
 12257 0005 10       		.byte	16
 12258 0006 03       		.byte	3
 12259 0007 00       		.byte	0
 12260 0008 02       		.byte	2
 12261 0009 80       		.byte	-128
 12262 000a 03       		.byte	3
 12263 000b 01       		.byte	1
 12264 000c 03       		.byte	3
 12265 000d 02       		.byte	2
 12266 000e 00       		.byte	0
 12267 000f 00       		.byte	0
 12268 0010 02       		.byte	2
 12269 0011 02       		.byte	2
 12270 0012 00       		.byte	0
 12271 0013 00       		.byte	0
 12272 0014 02       		.byte	2
 12273 0015 10       		.byte	16
 12274 0016 03       		.byte	3
 12275 0017 00       		.byte	0
 12276 0018 03       		.byte	3
 12277 0019 06       		.byte	6
 12278 001a 00       		.byte	0
 12279 001b 00       		.byte	0
 12280 001c 03       		.byte	3
 12281 001d 05       		.byte	5
 12282 001e 00       		.byte	0
 12283 001f 02       		.byte	2
 12284 0020 02       		.byte	2
 12285 0021 10       		.byte	16
 12286 0022 01       		.byte	1
 12287 0023 00       		.byte	0
 12288 0024 02       		.byte	2
 12289 0025 10       		.byte	16
 12290 0026 03       		.byte	3
 12291 0027 00       		.byte	0
 12292 0028 03       		.byte	3
 12293 0029 17       		.byte	23
 12294 002a 00       		.byte	0
ARM GAS  /tmp/cciZhAVO.s 			page 211


 12295 002b 02       		.byte	2
 12296 002c 03       		.byte	3
 12297 002d 18       		.byte	24
 12298 002e 00       		.byte	0
 12299 002f 02       		.byte	2
 12300 0030 03       		.byte	3
 12301 0031 17       		.byte	23
 12302 0032 00       		.byte	0
 12303 0033 03       		.byte	3
 12304 0034 03       		.byte	3
 12305 0035 18       		.byte	24
 12306 0036 00       		.byte	0
 12307 0037 03       		.byte	3
 12308 0038 02       		.byte	2
 12309 0039 10       		.byte	16
 12310 003a 01       		.byte	1
 12311 003b 00       		.byte	0
 12312 003c 02       		.byte	2
 12313 003d 10       		.byte	16
 12314 003e 03       		.byte	3
 12315 003f 00       		.byte	0
 12316 0040 03       		.byte	3
 12317 0041 10       		.byte	16
 12318 0042 03       		.byte	3
 12319 0043 00       		.byte	0
 12320 0044 04       		.byte	4
 12321 0045 06       		.byte	6
 12322 0046 00       		.byte	0
 12323 0047 00       		.byte	0
 12324 0048 04       		.byte	4
 12325 0049 05       		.byte	5
 12326 004a 00       		.byte	0
 12327 004b 02       		.byte	2
 12328 004c 04       		.byte	4
 12329 004d 06       		.byte	6
 12330 004e 00       		.byte	0
 12331 004f 02       		.byte	2
 12332 0050 03       		.byte	3
 12333 0051 03       		.byte	3
 12334 0052 00       		.byte	0
 12335 0053 00       		.byte	0
 12336 0054 02       		.byte	2
 12337 0055 81       		.byte	-127
 12338 0056 00       		.byte	0
 12339 0057 01       		.byte	1
 12340 0058 02       		.byte	2
 12341 0059 82       		.byte	-126
 12342 005a 00       		.byte	0
 12343 005b 01       		.byte	1
 12344 005c 02       		.byte	2
 12345 005d 83       		.byte	-125
 12346 005e 03       		.byte	3
 12347 005f 01       		.byte	1
 12348 0060 03       		.byte	3
 12349 0061 10       		.byte	16
 12350 0062 01       		.byte	1
 12351 0063 00       		.byte	0
ARM GAS  /tmp/cciZhAVO.s 			page 212


 12352 0064 01       		.byte	1
 12353 0065 10       		.byte	16
 12354 0066 03       		.byte	3
 12355 0067 00       		.byte	0
 12356 0068 02       		.byte	2
 12357 0069 06       		.byte	6
 12358 006a 00       		.byte	0
 12359 006b 00       		.byte	0
 12360 006c 02       		.byte	2
 12361 006d 05       		.byte	5
 12362 006e 00       		.byte	0
 12363 006f 02       		.byte	2
 12364 0070 01       		.byte	1
 12365 0071 03       		.byte	3
 12366 0072 00       		.byte	0
 12367 0073 00       		.byte	0
 12368              		.ident	"GCC: (15:10.3-2021.07-4) 10.3.1 20210621 (release)"
ARM GAS  /tmp/cciZhAVO.s 			page 213


DEFINED SYMBOLS
                            *ABS*:0000000000000000 asn.c
     /tmp/cciZhAVO.s:16     .text.BytePrecision:0000000000000000 $t
     /tmp/cciZhAVO.s:24     .text.BytePrecision:0000000000000000 BytePrecision
     /tmp/cciZhAVO.s:49     .text.SizeASN_Num:0000000000000000 $t
     /tmp/cciZhAVO.s:55     .text.SizeASN_Num:0000000000000000 SizeASN_Num
     /tmp/cciZhAVO.s:84     .text.SetASN_Num:0000000000000000 $t
     /tmp/cciZhAVO.s:90     .text.SetASN_Num:0000000000000000 SetASN_Num
     /tmp/cciZhAVO.s:154    .text.ForceZero:0000000000000000 $t
     /tmp/cciZhAVO.s:160    .text.ForceZero:0000000000000000 ForceZero
     /tmp/cciZhAVO.s:195    .text.MatchBaseName:0000000000000000 $t
     /tmp/cciZhAVO.s:201    .text.MatchBaseName:0000000000000000 MatchBaseName
     /tmp/cciZhAVO.s:315    .text.MatchBaseName:00000000000000c8 $d
     /tmp/cciZhAVO.s:318    .text.IsInExcludedList:0000000000000000 $t
     /tmp/cciZhAVO.s:324    .text.IsInExcludedList:0000000000000000 IsInExcludedList
     /tmp/cciZhAVO.s:360    .text.PermittedListOk:0000000000000000 $t
     /tmp/cciZhAVO.s:366    .text.PermittedListOk:0000000000000000 PermittedListOk
     /tmp/cciZhAVO.s:405    .text.CheckCurve:0000000000000000 $t
     /tmp/cciZhAVO.s:411    .text.CheckCurve:0000000000000000 CheckCurve
     /tmp/cciZhAVO.s:433    .text.SetASNLength:0000000000000000 $t
     /tmp/cciZhAVO.s:440    .text.SetASNLength:0000000000000000 SetASNLength
     /tmp/cciZhAVO.s:468    .text.wc_AsnSetSkipDateCheck:0000000000000000 $t
     /tmp/cciZhAVO.s:475    .text.wc_AsnSetSkipDateCheck:0000000000000000 wc_AsnSetSkipDateCheck
     /tmp/cciZhAVO.s:483    .text.wc_AsnGetSkipDateCheck:0000000000000000 $t
     /tmp/cciZhAVO.s:490    .text.wc_AsnGetSkipDateCheck:0000000000000000 wc_AsnGetSkipDateCheck
     /tmp/cciZhAVO.s:498    .text.SizeASN_Items:0000000000000000 $t
     /tmp/cciZhAVO.s:505    .text.SizeASN_Items:0000000000000000 SizeASN_Items
     /tmp/cciZhAVO.s:548    .text.SizeASN_Items:0000000000000066 $d
     /tmp/cciZhAVO.s:705    .text.SetASN_Items:0000000000000000 $t
     /tmp/cciZhAVO.s:712    .text.SetASN_Items:0000000000000000 SetASN_Items
     /tmp/cciZhAVO.s:751    .text.SetASN_Items:000000000000004c $d
     /tmp/cciZhAVO.s:879    .text.GetASN_BitString:0000000000000000 $t
     /tmp/cciZhAVO.s:886    .text.GetASN_BitString:0000000000000000 GetASN_BitString
     /tmp/cciZhAVO.s:911    .text.GetLength_ex:0000000000000000 $t
     /tmp/cciZhAVO.s:918    .text.GetLength_ex:0000000000000000 GetLength_ex
     /tmp/cciZhAVO.s:991    .text.GetLength:0000000000000000 $t
     /tmp/cciZhAVO.s:998    .text.GetLength:0000000000000000 GetLength
     /tmp/cciZhAVO.s:1010   .text.GetASN_Sequence:0000000000000000 $t
     /tmp/cciZhAVO.s:1016   .text.GetASN_Sequence:0000000000000000 GetASN_Sequence
     /tmp/cciZhAVO.s:1061   .text.GetASNTag:0000000000000000 $t
     /tmp/cciZhAVO.s:1068   .text.GetASNTag:0000000000000000 GetASNTag
     /tmp/cciZhAVO.s:1093   .text.GetASNHeader_ex:0000000000000000 $t
     /tmp/cciZhAVO.s:1099   .text.GetASNHeader_ex:0000000000000000 GetASNHeader_ex
     /tmp/cciZhAVO.s:1154   .text.GetASNHeader:0000000000000000 $t
     /tmp/cciZhAVO.s:1161   .text.GetASNHeader:0000000000000000 GetASNHeader
     /tmp/cciZhAVO.s:1175   .text.GetSequence:0000000000000000 $t
     /tmp/cciZhAVO.s:1182   .text.GetSequence:0000000000000000 GetSequence
     /tmp/cciZhAVO.s:1196   .text.GetSequence_ex:0000000000000000 $t
     /tmp/cciZhAVO.s:1203   .text.GetSequence_ex:0000000000000000 GetSequence_ex
     /tmp/cciZhAVO.s:1218   .text.wc_IndexSequenceOf:0000000000000000 $t
     /tmp/cciZhAVO.s:1225   .text.wc_IndexSequenceOf:0000000000000000 wc_IndexSequenceOf
     /tmp/cciZhAVO.s:1284   .text.wc_IndexSequenceOf:0000000000000078 $d
     /tmp/cciZhAVO.s:1287   .text.GetSet:0000000000000000 $t
     /tmp/cciZhAVO.s:1294   .text.GetSet:0000000000000000 GetSet
     /tmp/cciZhAVO.s:1308   .text.GetSet_ex:0000000000000000 $t
     /tmp/cciZhAVO.s:1315   .text.GetSet_ex:0000000000000000 GetSet_ex
     /tmp/cciZhAVO.s:1330   .text.GetOctetString:0000000000000000 $t
ARM GAS  /tmp/cciZhAVO.s 			page 214


     /tmp/cciZhAVO.s:1337   .text.GetOctetString:0000000000000000 GetOctetString
     /tmp/cciZhAVO.s:1351   .text.GetASNInt:0000000000000000 $t
     /tmp/cciZhAVO.s:1358   .text.GetASNInt:0000000000000000 GetASNInt
     /tmp/cciZhAVO.s:1409   .text.GetSigName:0000000000000000 $t
     /tmp/cciZhAVO.s:1416   .text.GetSigName:0000000000000000 GetSigName
     /tmp/cciZhAVO.s:1444   .text.GetSigName:000000000000002e $d
     /tmp/cciZhAVO.s:1473   .text.GetSigName:0000000000000050 $d
     /tmp/cciZhAVO.s:1486   .text.SetShortInt:0000000000000000 $t
     /tmp/cciZhAVO.s:1493   .text.SetShortInt:0000000000000000 SetShortInt
     /tmp/cciZhAVO.s:1551   .text.OidFromId:0000000000000000 $t
     /tmp/cciZhAVO.s:1558   .text.OidFromId:0000000000000000 OidFromId
     /tmp/cciZhAVO.s:1569   .text.OidFromId:0000000000000010 $d
     /tmp/cciZhAVO.s:1585   .text.OidFromId:0000000000000030 $t
     /tmp/cciZhAVO.s:1599   .text.OidFromId:0000000000000048 $d
     /tmp/cciZhAVO.s:1613   .text.OidFromId:0000000000000056 $t
     /tmp/cciZhAVO.s:1670   .text.OidFromId:00000000000000b4 $d
     /tmp/cciZhAVO.s:1677   .text.OidFromId:00000000000000d0 $t
     /tmp/cciZhAVO.s:1898   .text.OidFromId:0000000000000258 $d
     /tmp/cciZhAVO.s:1962   .text.OidFromId:0000000000000354 $t
     /tmp/cciZhAVO.s:2002   .text.OidFromId:000000000000039c $d
     /tmp/cciZhAVO.s:2014   .text.SetAlgoIDImpl:0000000000000000 $t
     /tmp/cciZhAVO.s:2020   .text.SetAlgoIDImpl:0000000000000000 SetAlgoIDImpl
     /tmp/cciZhAVO.s:2146   .text.SetAlgoIDImpl:000000000000010c $d
     /tmp/cciZhAVO.s:2152   .text.GetASNObjectId:0000000000000000 $t
     /tmp/cciZhAVO.s:2159   .text.GetASNObjectId:0000000000000000 GetASNObjectId
     /tmp/cciZhAVO.s:2174   .text.wc_oid_sum:0000000000000000 $t
     /tmp/cciZhAVO.s:2181   .text.wc_oid_sum:0000000000000000 wc_oid_sum
     /tmp/cciZhAVO.s:2211   .text.GetASN_Items:0000000000000000 $t
     /tmp/cciZhAVO.s:2218   .text.GetASN_Items:0000000000000000 GetASN_Items
     /tmp/cciZhAVO.s:2534   .text.GetASN_Items:00000000000002bc $d
     /tmp/cciZhAVO.s:2546   .text.GetASN_Items:00000000000002c8 $t
     /tmp/cciZhAVO.s:2770   .text.GetMyVersion:0000000000000000 $t
     /tmp/cciZhAVO.s:2777   .text.GetMyVersion:0000000000000000 GetMyVersion
     /tmp/cciZhAVO.s:2812   .text.GetMyVersion:0000000000000048 $d
     /tmp/cciZhAVO.s:2815   .text.GetShortInt:0000000000000000 $t
     /tmp/cciZhAVO.s:2822   .text.GetShortInt:0000000000000000 GetShortInt
     /tmp/cciZhAVO.s:2858   .text.GetShortInt:0000000000000040 $d
     /tmp/cciZhAVO.s:2861   .text.GetInt:0000000000000000 $t
     /tmp/cciZhAVO.s:2868   .text.GetInt:0000000000000000 GetInt
     /tmp/cciZhAVO.s:2897   .text.GetInt:0000000000000034 $d
     /tmp/cciZhAVO.s:2900   .text.CheckBitString:0000000000000000 $t
     /tmp/cciZhAVO.s:2907   .text.CheckBitString:0000000000000000 CheckBitString
     /tmp/cciZhAVO.s:2950   .text.CheckBitString:0000000000000050 $d
     /tmp/cciZhAVO.s:2953   .text.GetAlgoIdImpl:0000000000000000 $t
     /tmp/cciZhAVO.s:2959   .text.GetAlgoIdImpl:0000000000000000 GetAlgoIdImpl
     /tmp/cciZhAVO.s:3009   .text.GetAlgoIdImpl:000000000000006c $d
     /tmp/cciZhAVO.s:3029   .text.GetCertName:0000000000000000 $t
     /tmp/cciZhAVO.s:3035   .text.GetCertName:0000000000000000 GetCertName
     /tmp/cciZhAVO.s:3267   .text.GetCertName:0000000000000214 $d
     /tmp/cciZhAVO.s:3285   .text.DecodeSubtree.constprop.0.isra.0:0000000000000000 $t
     /tmp/cciZhAVO.s:3291   .text.DecodeSubtree.constprop.0.isra.0:0000000000000000 DecodeSubtree.constprop.0.isra.0
     /tmp/cciZhAVO.s:3418   .text.DecodeSubtree.constprop.0.isra.0:0000000000000120 $d
     /tmp/cciZhAVO.s:3422   .text.GetObjectId:0000000000000000 $t
     /tmp/cciZhAVO.s:3429   .text.GetObjectId:0000000000000000 GetObjectId
     /tmp/cciZhAVO.s:3461   .text.GetObjectId:0000000000000038 $d
     /tmp/cciZhAVO.s:3464   .text.GetAlgoId:0000000000000000 $t
     /tmp/cciZhAVO.s:3471   .text.GetAlgoId:0000000000000000 GetAlgoId
ARM GAS  /tmp/cciZhAVO.s 			page 215


     /tmp/cciZhAVO.s:3485   .text.GetAlgoIdEx:0000000000000000 $t
     /tmp/cciZhAVO.s:3492   .text.GetAlgoIdEx:0000000000000000 GetAlgoIdEx
     /tmp/cciZhAVO.s:3507   .text.ToTraditionalInline_ex2:0000000000000000 $t
     /tmp/cciZhAVO.s:3514   .text.ToTraditionalInline_ex2:0000000000000000 ToTraditionalInline_ex2
     /tmp/cciZhAVO.s:3604   .text.ToTraditionalInline_ex2:00000000000000c8 $d
     /tmp/cciZhAVO.s:3608   .text.ToTraditionalInline_ex:0000000000000000 $t
     /tmp/cciZhAVO.s:3615   .text.ToTraditionalInline_ex:0000000000000000 ToTraditionalInline_ex
     /tmp/cciZhAVO.s:3627   .text.ToTraditionalInline:0000000000000000 $t
     /tmp/cciZhAVO.s:3634   .text.ToTraditionalInline:0000000000000000 ToTraditionalInline
     /tmp/cciZhAVO.s:3645   .text.ToTraditional_ex:0000000000000000 $t
     /tmp/cciZhAVO.s:3652   .text.ToTraditional_ex:0000000000000000 ToTraditional_ex
     /tmp/cciZhAVO.s:3688   .text.ToTraditional:0000000000000000 $t
     /tmp/cciZhAVO.s:3695   .text.ToTraditional:0000000000000000 ToTraditional
     /tmp/cciZhAVO.s:3706   .text.wc_GetPkcs8TraditionalOffset:0000000000000000 $t
     /tmp/cciZhAVO.s:3713   .text.wc_GetPkcs8TraditionalOffset:0000000000000000 wc_GetPkcs8TraditionalOffset
     /tmp/cciZhAVO.s:3733   .text.wc_CreatePKCS8Key:0000000000000000 $t
     /tmp/cciZhAVO.s:3740   .text.wc_CreatePKCS8Key:0000000000000000 wc_CreatePKCS8Key
     /tmp/cciZhAVO.s:3846   .text.wc_CreatePKCS8Key:00000000000000ec $d
     /tmp/cciZhAVO.s:3850   .text.DecryptContent:0000000000000000 $t
     /tmp/cciZhAVO.s:3857   .text.DecryptContent:0000000000000000 DecryptContent
     /tmp/cciZhAVO.s:4014   .text.DecryptContent:0000000000000164 $d
     /tmp/cciZhAVO.s:4021   .text.wc_DecryptPKCS8Key:0000000000000000 $t
     /tmp/cciZhAVO.s:4028   .text.wc_DecryptPKCS8Key:0000000000000000 wc_DecryptPKCS8Key
     /tmp/cciZhAVO.s:4083   .text.ToTraditionalEnc:0000000000000000 $t
     /tmp/cciZhAVO.s:4090   .text.ToTraditionalEnc:0000000000000000 ToTraditionalEnc
     /tmp/cciZhAVO.s:4107   .text.wc_PkcsPad:0000000000000000 $t
     /tmp/cciZhAVO.s:4114   .text.wc_PkcsPad:0000000000000000 wc_PkcsPad
     /tmp/cciZhAVO.s:4135   .text.EncryptContent:0000000000000000 $t
     /tmp/cciZhAVO.s:4142   .text.EncryptContent:0000000000000000 EncryptContent
     /tmp/cciZhAVO.s:4348   .text.EncryptContent:00000000000001e0 $d
     /tmp/cciZhAVO.s:4355   .text.FreeAltNames:0000000000000000 $t
     /tmp/cciZhAVO.s:4362   .text.FreeAltNames:0000000000000000 FreeAltNames
     /tmp/cciZhAVO.s:4382   .text.AltNameNew:0000000000000000 $t
     /tmp/cciZhAVO.s:4389   .text.AltNameNew:0000000000000000 AltNameNew
     /tmp/cciZhAVO.s:4405   .text.SetDNSEntry:0000000000000000 $t
     /tmp/cciZhAVO.s:4411   .text.SetDNSEntry:0000000000000000 SetDNSEntry
     /tmp/cciZhAVO.s:4446   .text.AltNameDup:0000000000000000 $t
     /tmp/cciZhAVO.s:4453   .text.AltNameDup:0000000000000000 AltNameDup
     /tmp/cciZhAVO.s:4502   .text.FreeNameSubtrees:0000000000000000 $t
     /tmp/cciZhAVO.s:4509   .text.FreeNameSubtrees:0000000000000000 FreeNameSubtrees
     /tmp/cciZhAVO.s:4528   .text.HashIdAlg:0000000000000000 $t
     /tmp/cciZhAVO.s:4535   .text.HashIdAlg:0000000000000000 HashIdAlg
     /tmp/cciZhAVO.s:4543   .text.CalcHashId:0000000000000000 $t
     /tmp/cciZhAVO.s:4550   .text.CalcHashId:0000000000000000 CalcHashId
     /tmp/cciZhAVO.s:4557   .text.CalcHashId_ex:0000000000000000 $t
     /tmp/cciZhAVO.s:4564   .text.CalcHashId_ex:0000000000000000 CalcHashId_ex
     /tmp/cciZhAVO.s:4576   .text.GetHashId:0000000000000000 $t
     /tmp/cciZhAVO.s:4583   .text.GetHashId:0000000000000000 GetHashId
     /tmp/cciZhAVO.s:4604   .text.GetName:0000000000000000 $t
     /tmp/cciZhAVO.s:4611   .text.GetName:0000000000000000 GetName
     /tmp/cciZhAVO.s:4664   .text.GetName:0000000000000070 $d
     /tmp/cciZhAVO.s:4667   .text.wc_GetDateInfo:0000000000000000 $t
     /tmp/cciZhAVO.s:4674   .text.wc_GetDateInfo:0000000000000000 wc_GetDateInfo
     /tmp/cciZhAVO.s:4733   .text.wc_GetDateInfo:0000000000000080 $d
     /tmp/cciZhAVO.s:4736   .text.SetLength:0000000000000000 $t
     /tmp/cciZhAVO.s:4743   .text.SetLength:0000000000000000 SetLength
     /tmp/cciZhAVO.s:4781   .text.SetBitString:0000000000000000 $t
ARM GAS  /tmp/cciZhAVO.s 			page 216


     /tmp/cciZhAVO.s:4788   .text.SetBitString:0000000000000000 SetBitString
     /tmp/cciZhAVO.s:4814   .text.SetObjectId:0000000000000000 $t
     /tmp/cciZhAVO.s:4821   .text.SetObjectId:0000000000000000 SetObjectId
     /tmp/cciZhAVO.s:4834   .text.SetCurve:0000000000000000 $t
     /tmp/cciZhAVO.s:4840   .text.SetCurve:0000000000000000 SetCurve
     /tmp/cciZhAVO.s:4876   .text.SetEccPublicKey:0000000000000000 $t
     /tmp/cciZhAVO.s:4882   .text.SetEccPublicKey:0000000000000000 SetEccPublicKey
     /tmp/cciZhAVO.s:5025   .text.SetEccPublicKey:000000000000012c $d
     /tmp/cciZhAVO.s:5029   .text.wc_EccPublicKeyToDer:0000000000000000 $t
     /tmp/cciZhAVO.s:5036   .text.wc_EccPublicKeyToDer:0000000000000000 wc_EccPublicKeyToDer
     /tmp/cciZhAVO.s:5051   .text.wc_EccPublicKeyToDer_ex:0000000000000000 $t
     /tmp/cciZhAVO.s:5058   .text.wc_EccPublicKeyToDer_ex:0000000000000000 wc_EccPublicKeyToDer_ex
     /tmp/cciZhAVO.s:5070   .text.wc_EccPublicKeyDerSize:0000000000000000 $t
     /tmp/cciZhAVO.s:5077   .text.wc_EccPublicKeyDerSize:0000000000000000 wc_EccPublicKeyDerSize
     /tmp/cciZhAVO.s:5092   .text.SetLengthEx:0000000000000000 $t
     /tmp/cciZhAVO.s:5099   .text.SetLengthEx:0000000000000000 SetLengthEx
     /tmp/cciZhAVO.s:5114   .text.SetHeader:0000000000000000 $t
     /tmp/cciZhAVO.s:5121   .text.SetHeader:0000000000000000 SetHeader
     /tmp/cciZhAVO.s:5137   .text.SetSequence:0000000000000000 $t
     /tmp/cciZhAVO.s:5144   .text.SetSequence:0000000000000000 SetSequence
     /tmp/cciZhAVO.s:5155   .text.SetSequenceEx:0000000000000000 $t
     /tmp/cciZhAVO.s:5162   .text.SetSequenceEx:0000000000000000 SetSequenceEx
     /tmp/cciZhAVO.s:5173   .text.SetOctetString:0000000000000000 $t
     /tmp/cciZhAVO.s:5180   .text.SetOctetString:0000000000000000 SetOctetString
     /tmp/cciZhAVO.s:5196   .text.wc_EncryptPKCS8Key_ex:0000000000000000 $t
     /tmp/cciZhAVO.s:5203   .text.wc_EncryptPKCS8Key_ex:0000000000000000 wc_EncryptPKCS8Key_ex
     /tmp/cciZhAVO.s:5574   .text.wc_EncryptPKCS8Key_ex:0000000000000340 $d
     /tmp/cciZhAVO.s:5581   .text.wc_EncryptPKCS8Key:0000000000000000 $t
     /tmp/cciZhAVO.s:5588   .text.wc_EncryptPKCS8Key:0000000000000000 wc_EncryptPKCS8Key
     /tmp/cciZhAVO.s:5621   .text.SetOctetStringEx:0000000000000000 $t
     /tmp/cciZhAVO.s:5628   .text.SetOctetStringEx:0000000000000000 SetOctetStringEx
     /tmp/cciZhAVO.s:5645   .text.SetSet:0000000000000000 $t
     /tmp/cciZhAVO.s:5652   .text.SetSet:0000000000000000 SetSet
     /tmp/cciZhAVO.s:5663   .text.SetImplicit:0000000000000000 $t
     /tmp/cciZhAVO.s:5670   .text.SetImplicit:0000000000000000 SetImplicit
     /tmp/cciZhAVO.s:5706   .text.SetExplicit:0000000000000000 $t
     /tmp/cciZhAVO.s:5713   .text.SetExplicit:0000000000000000 SetExplicit
     /tmp/cciZhAVO.s:5721   .text.SetAlgoID:0000000000000000 $t
     /tmp/cciZhAVO.s:5728   .text.SetAlgoID:0000000000000000 SetAlgoID
     /tmp/cciZhAVO.s:5740   .text.SetAlgoIDEx:0000000000000000 $t
     /tmp/cciZhAVO.s:5747   .text.SetAlgoIDEx:0000000000000000 SetAlgoIDEx
     /tmp/cciZhAVO.s:5758   .text.wc_EncodeSignature:0000000000000000 $t
     /tmp/cciZhAVO.s:5765   .text.wc_EncodeSignature:0000000000000000 wc_EncodeSignature
     /tmp/cciZhAVO.s:5826   .text.wc_EncodeSignature:0000000000000078 $d
     /tmp/cciZhAVO.s:5829   .text.wc_GetCTC_HashOID:0000000000000000 $t
     /tmp/cciZhAVO.s:5836   .text.wc_GetCTC_HashOID:0000000000000000 wc_GetCTC_HashOID
     /tmp/cciZhAVO.s:5846   .text.InitSignatureCtx:0000000000000000 $t
     /tmp/cciZhAVO.s:5853   .text.InitSignatureCtx:0000000000000000 InitSignatureCtx
     /tmp/cciZhAVO.s:5871   .text.InitDecodedCert_ex:0000000000000000 $t
     /tmp/cciZhAVO.s:5878   .text.InitDecodedCert_ex:0000000000000000 InitDecodedCert_ex
     /tmp/cciZhAVO.s:5906   .text.InitDecodedCert:0000000000000000 $t
     /tmp/cciZhAVO.s:5913   .text.InitDecodedCert:0000000000000000 InitDecodedCert
     /tmp/cciZhAVO.s:5925   .text.wc_InitDecodedCert:0000000000000000 $t
     /tmp/cciZhAVO.s:5932   .text.wc_InitDecodedCert:0000000000000000 wc_InitDecodedCert
     /tmp/cciZhAVO.s:5939   .text.FreeSignatureCtx:0000000000000000 $t
     /tmp/cciZhAVO.s:5946   .text.FreeSignatureCtx:0000000000000000 FreeSignatureCtx
     /tmp/cciZhAVO.s:5979   .text.FreeSignatureCtx:0000000000000034 $d
ARM GAS  /tmp/cciZhAVO.s 			page 217


     /tmp/cciZhAVO.s:5982   .text.FreeDecodedCert:0000000000000000 $t
     /tmp/cciZhAVO.s:5989   .text.FreeDecodedCert:0000000000000000 FreeDecodedCert
     /tmp/cciZhAVO.s:6045   .text.wc_FreeDecodedCert:0000000000000000 $t
     /tmp/cciZhAVO.s:6052   .text.wc_FreeDecodedCert:0000000000000000 wc_FreeDecodedCert
     /tmp/cciZhAVO.s:6059   .text.DecodeBasicCaConstraint:0000000000000000 $t
     /tmp/cciZhAVO.s:6066   .text.DecodeBasicCaConstraint:0000000000000000 DecodeBasicCaConstraint
     /tmp/cciZhAVO.s:6139   .text.DecodeBasicCaConstraint:000000000000009c $d
     /tmp/cciZhAVO.s:6142   .text.DecodeAuthKeyId:0000000000000000 $t
     /tmp/cciZhAVO.s:6149   .text.DecodeAuthKeyId:0000000000000000 DecodeAuthKeyId
     /tmp/cciZhAVO.s:6224   .text.DecodeAuthKeyId:000000000000008c $d
     /tmp/cciZhAVO.s:6227   .text.DecodeSubjKeyId:0000000000000000 $t
     /tmp/cciZhAVO.s:6234   .text.DecodeSubjKeyId:0000000000000000 DecodeSubjKeyId
     /tmp/cciZhAVO.s:6261   .text.DecodeKeyUsage:0000000000000000 $t
     /tmp/cciZhAVO.s:6268   .text.DecodeKeyUsage:0000000000000000 DecodeKeyUsage
     /tmp/cciZhAVO.s:6315   .text.DecodeKeyUsage:0000000000000064 $d
     /tmp/cciZhAVO.s:6318   .text.DecodeExtKeyUsage:0000000000000000 $t
     /tmp/cciZhAVO.s:6325   .text.DecodeExtKeyUsage:0000000000000000 DecodeExtKeyUsage
     /tmp/cciZhAVO.s:6430   .text.DecodeExtKeyUsage:00000000000000d8 $d
     /tmp/cciZhAVO.s:6439   .text.DecodeExtensionType:0000000000000000 $t
     /tmp/cciZhAVO.s:6446   .text.DecodeExtensionType:0000000000000000 DecodeExtensionType
     /tmp/cciZhAVO.s:6753   .text.DecodeExtensionType:0000000000000300 $d
     /tmp/cciZhAVO.s:6764   .text.DecodeExtensionType:0000000000000328 $t
     /tmp/cciZhAVO.s:7107   .text.DecodeExtensionType:00000000000006a4 $d
     /tmp/cciZhAVO.s:7112   .text.DecodeExtensionType:00000000000006b4 $t
     /tmp/cciZhAVO.s:7186   .text.DecodeExtensionType:0000000000000778 $d
     /tmp/cciZhAVO.s:7191   .text.DecodeCertInternal:0000000000000000 $t
     /tmp/cciZhAVO.s:7197   .text.DecodeCertInternal:0000000000000000 DecodeCertInternal
     /tmp/cciZhAVO.s:7444   .text.DecodeCertInternal:000000000000026c $d
     /tmp/cciZhAVO.s:7446   .text.DecodeCertInternal:0000000000000270 $t
     /tmp/cciZhAVO.s:7731   .text.DecodeCertInternal:0000000000000504 $d
     /tmp/cciZhAVO.s:7738   .text.wc_GetPubX509:0000000000000000 $t
     /tmp/cciZhAVO.s:7745   .text.wc_GetPubX509:0000000000000000 wc_GetPubX509
     /tmp/cciZhAVO.s:7765   .text.DecodeToKey:0000000000000000 $t
     /tmp/cciZhAVO.s:7772   .text.DecodeToKey:0000000000000000 DecodeToKey
     /tmp/cciZhAVO.s:7790   .text.DecodeCert:0000000000000000 $t
     /tmp/cciZhAVO.s:7797   .text.DecodeCert:0000000000000000 DecodeCert
     /tmp/cciZhAVO.s:7809   .text.wc_GetSubjectPubKeyInfoDerFromCert:0000000000000000 $t
     /tmp/cciZhAVO.s:7816   .text.wc_GetSubjectPubKeyInfoDerFromCert:0000000000000000 wc_GetSubjectPubKeyInfoDerFromCert
     /tmp/cciZhAVO.s:7893   .text.findSignerByName:0000000000000000 $t
     /tmp/cciZhAVO.s:7900   .text.findSignerByName:0000000000000000 findSignerByName
     /tmp/cciZhAVO.s:7922   .text.FillSigner:0000000000000000 $t
     /tmp/cciZhAVO.s:7929   .text.FillSigner:0000000000000000 FillSigner
     /tmp/cciZhAVO.s:8001   .text.MakeSigner:0000000000000000 $t
     /tmp/cciZhAVO.s:8008   .text.MakeSigner:0000000000000000 MakeSigner
     /tmp/cciZhAVO.s:8024   .text.FreeSigner:0000000000000000 $t
     /tmp/cciZhAVO.s:8031   .text.FreeSigner:0000000000000000 FreeSigner
     /tmp/cciZhAVO.s:8060   .text.FreeSignerTable:0000000000000000 $t
     /tmp/cciZhAVO.s:8067   .text.FreeSignerTable:0000000000000000 FreeSignerTable
     /tmp/cciZhAVO.s:8094   .text.FreeSignerTableType:0000000000000000 $t
     /tmp/cciZhAVO.s:8101   .text.FreeSignerTableType:0000000000000000 FreeSignerTableType
     /tmp/cciZhAVO.s:8138   .text.SetMyVersion:0000000000000000 $t
     /tmp/cciZhAVO.s:8145   .text.SetMyVersion:0000000000000000 SetMyVersion
     /tmp/cciZhAVO.s:8172   .text.AllocDer:0000000000000000 $t
     /tmp/cciZhAVO.s:8179   .text.AllocDer:0000000000000000 AllocDer
     /tmp/cciZhAVO.s:8222   .text.AllocDer:0000000000000058 $d
     /tmp/cciZhAVO.s:8225   .text.AllocCopyDer:0000000000000000 $t
     /tmp/cciZhAVO.s:8232   .text.AllocCopyDer:0000000000000000 AllocCopyDer
ARM GAS  /tmp/cciZhAVO.s 			page 218


     /tmp/cciZhAVO.s:8255   .text.FreeDer:0000000000000000 $t
     /tmp/cciZhAVO.s:8262   .text.FreeDer:0000000000000000 FreeDer
     /tmp/cciZhAVO.s:8289   .text.wc_AllocDer:0000000000000000 $t
     /tmp/cciZhAVO.s:8296   .text.wc_AllocDer:0000000000000000 wc_AllocDer
     /tmp/cciZhAVO.s:8303   .text.wc_FreeDer:0000000000000000 $t
     /tmp/cciZhAVO.s:8310   .text.wc_FreeDer:0000000000000000 wc_FreeDer
     /tmp/cciZhAVO.s:8317   .text.wc_PemGetHeaderFooter:0000000000000000 $t
     /tmp/cciZhAVO.s:8324   .text.wc_PemGetHeaderFooter:0000000000000000 wc_PemGetHeaderFooter
     /tmp/cciZhAVO.s:8332   .text.wc_PemGetHeaderFooter:0000000000000008 $d
     /tmp/cciZhAVO.s:8470   .text.wc_PemGetHeaderFooter:00000000000000c0 $d
     /tmp/cciZhAVO.s:8490   .text.PemToDer:0000000000000000 $t
     /tmp/cciZhAVO.s:8497   .text.PemToDer:0000000000000000 PemToDer
     /tmp/cciZhAVO.s:8719   .text.PemToDer:00000000000001c0 $d
     /tmp/cciZhAVO.s:8734   .text.wc_PemToDer:0000000000000000 $t
     /tmp/cciZhAVO.s:8741   .text.wc_PemToDer:0000000000000000 wc_PemToDer
     /tmp/cciZhAVO.s:8772   .text.wc_KeyPemToDer:0000000000000000 $t
     /tmp/cciZhAVO.s:8779   .text.wc_KeyPemToDer:0000000000000000 wc_KeyPemToDer
     /tmp/cciZhAVO.s:8845   .text.wc_CertPemToDer:0000000000000000 $t
     /tmp/cciZhAVO.s:8852   .text.wc_CertPemToDer:0000000000000000 wc_CertPemToDer
     /tmp/cciZhAVO.s:8909   .text.wc_GetPubKeyDerFromCert:0000000000000000 $t
     /tmp/cciZhAVO.s:8916   .text.wc_GetPubKeyDerFromCert:0000000000000000 wc_GetPubKeyDerFromCert
     /tmp/cciZhAVO.s:8953   .text.StoreECC_DSA_Sig:0000000000000000 $t
     /tmp/cciZhAVO.s:8960   .text.StoreECC_DSA_Sig:0000000000000000 StoreECC_DSA_Sig
     /tmp/cciZhAVO.s:9017   .text.StoreECC_DSA_Sig:000000000000006c $d
     /tmp/cciZhAVO.s:9020   .text.StoreECC_DSA_Sig_Bin:0000000000000000 $t
     /tmp/cciZhAVO.s:9027   .text.StoreECC_DSA_Sig_Bin:0000000000000000 StoreECC_DSA_Sig_Bin
     /tmp/cciZhAVO.s:9100   .text.StoreECC_DSA_Sig_Bin:0000000000000088 $d
     /tmp/cciZhAVO.s:9103   .text.DecodeECC_DSA_Sig_Bin:0000000000000000 $t
     /tmp/cciZhAVO.s:9110   .text.DecodeECC_DSA_Sig_Bin:0000000000000000 DecodeECC_DSA_Sig_Bin
     /tmp/cciZhAVO.s:9146   .text.DecodeECC_DSA_Sig_Bin:0000000000000048 $d
     /tmp/cciZhAVO.s:9149   .text.DecodeECC_DSA_Sig_Ex:0000000000000000 $t
     /tmp/cciZhAVO.s:9156   .text.DecodeECC_DSA_Sig_Ex:0000000000000000 DecodeECC_DSA_Sig_Ex
     /tmp/cciZhAVO.s:9206   .text.DecodeECC_DSA_Sig_Ex:0000000000000060 $d
     /tmp/cciZhAVO.s:9209   .text.DecodeECC_DSA_Sig:0000000000000000 $t
     /tmp/cciZhAVO.s:9216   .text.DecodeECC_DSA_Sig:0000000000000000 DecodeECC_DSA_Sig
     /tmp/cciZhAVO.s:9228   .text.wc_EccPrivateKeyDecode:0000000000000000 $t
     /tmp/cciZhAVO.s:9235   .text.wc_EccPrivateKeyDecode:0000000000000000 wc_EccPrivateKeyDecode
     /tmp/cciZhAVO.s:9336   .text.wc_EccPrivateKeyDecode:00000000000000e4 $d
     /tmp/cciZhAVO.s:9339   .text.wc_CheckPrivateKey:0000000000000000 $t
     /tmp/cciZhAVO.s:9346   .text.wc_CheckPrivateKey:0000000000000000 wc_CheckPrivateKey
     /tmp/cciZhAVO.s:9446   .text.wc_CheckPrivateKey:00000000000000dc $d
     /tmp/cciZhAVO.s:9449   .text.wc_CheckPrivateKeyCert:0000000000000000 $t
     /tmp/cciZhAVO.s:9456   .text.wc_CheckPrivateKeyCert:0000000000000000 wc_CheckPrivateKeyCert
     /tmp/cciZhAVO.s:9477   .text.wc_GetKeyOID:0000000000000000 $t
     /tmp/cciZhAVO.s:9484   .text.wc_GetKeyOID:0000000000000000 wc_GetKeyOID
     /tmp/cciZhAVO.s:9547   .text.wc_GetKeyOID:000000000000008c $d
     /tmp/cciZhAVO.s:9550   .text.TraditionalEnc_ex:0000000000000000 $t
     /tmp/cciZhAVO.s:9557   .text.TraditionalEnc_ex:0000000000000000 TraditionalEnc_ex
     /tmp/cciZhAVO.s:9656   .text.TraditionalEnc:0000000000000000 $t
     /tmp/cciZhAVO.s:9663   .text.TraditionalEnc:0000000000000000 TraditionalEnc
     /tmp/cciZhAVO.s:9696   .text.UnTraditionalEnc:0000000000000000 $t
     /tmp/cciZhAVO.s:9703   .text.UnTraditionalEnc:0000000000000000 UnTraditionalEnc
     /tmp/cciZhAVO.s:9734   .text.wc_CreateEncryptedPKCS8Key:0000000000000000 $t
     /tmp/cciZhAVO.s:9741   .text.wc_CreateEncryptedPKCS8Key:0000000000000000 wc_CreateEncryptedPKCS8Key
     /tmp/cciZhAVO.s:9748   .text.wc_EccPublicKeyDecode:0000000000000000 $t
     /tmp/cciZhAVO.s:9755   .text.wc_EccPublicKeyDecode:0000000000000000 wc_EccPublicKeyDecode
     /tmp/cciZhAVO.s:9848   .text.wc_EccPublicKeyDecode:00000000000000cc $d
ARM GAS  /tmp/cciZhAVO.s 			page 219


     /tmp/cciZhAVO.s:9853   .text.ConfirmSignature:0000000000000000 $t
     /tmp/cciZhAVO.s:9860   .text.ConfirmSignature:0000000000000000 ConfirmSignature
     /tmp/cciZhAVO.s:9891   .text.ConfirmSignature:0000000000000056 $d
     /tmp/cciZhAVO.s:9896   .text.ConfirmSignature:0000000000000060 $t
     /tmp/cciZhAVO.s:9941   .text.ConfirmSignature:00000000000000cc $d
     /tmp/cciZhAVO.s:9956   .text.ConfirmSignature:0000000000000108 $t
     /tmp/cciZhAVO.s:10111  .text.ConfirmSignature:0000000000000234 $d
     /tmp/cciZhAVO.s:10127  .text.ParseCertRelative:0000000000000000 $t
     /tmp/cciZhAVO.s:10134  .text.ParseCertRelative:0000000000000000 ParseCertRelative
     /tmp/cciZhAVO.s:10468  .text.ParseCertRelative:00000000000002f4 $d
     /tmp/cciZhAVO.s:10472  .text.ParseCert:0000000000000000 $t
     /tmp/cciZhAVO.s:10479  .text.ParseCert:0000000000000000 ParseCert
     /tmp/cciZhAVO.s:10536  .text.ParseCert:0000000000000074 $d
     /tmp/cciZhAVO.s:10539  .text.wc_ParseCert:0000000000000000 $t
     /tmp/cciZhAVO.s:10546  .text.wc_ParseCert:0000000000000000 wc_ParseCert
     /tmp/cciZhAVO.s:10553  .text.wc_BuildEccKeyDer:0000000000000000 $t
     /tmp/cciZhAVO.s:10560  .text.wc_BuildEccKeyDer:0000000000000000 wc_BuildEccKeyDer
     /tmp/cciZhAVO.s:10729  .text.wc_BuildEccKeyDer:000000000000017c $d
     /tmp/cciZhAVO.s:10732  .text.eccToPKCS8:0000000000000000 $t
     /tmp/cciZhAVO.s:10738  .text.eccToPKCS8:0000000000000000 eccToPKCS8
     /tmp/cciZhAVO.s:10847  .text.eccToPKCS8:00000000000000ec $d
     /tmp/cciZhAVO.s:10850  .text.wc_EccKeyToDer:0000000000000000 $t
     /tmp/cciZhAVO.s:10857  .text.wc_EccKeyToDer:0000000000000000 wc_EccKeyToDer
     /tmp/cciZhAVO.s:10871  .text.wc_EccKeyDerSize:0000000000000000 $t
     /tmp/cciZhAVO.s:10878  .text.wc_EccKeyDerSize:0000000000000000 wc_EccKeyDerSize
     /tmp/cciZhAVO.s:10897  .text.wc_EccPrivateKeyToDer:0000000000000000 $t
     /tmp/cciZhAVO.s:10904  .text.wc_EccPrivateKeyToDer:0000000000000000 wc_EccPrivateKeyToDer
     /tmp/cciZhAVO.s:10922  .text.wc_EccPrivateKeyToPKCS8:0000000000000000 $t
     /tmp/cciZhAVO.s:10929  .text.wc_EccPrivateKeyToPKCS8:0000000000000000 wc_EccPrivateKeyToPKCS8
     /tmp/cciZhAVO.s:10937  .text.wc_EccKeyToPKCS8:0000000000000000 $t
     /tmp/cciZhAVO.s:10944  .text.wc_EccKeyToPKCS8:0000000000000000 wc_EccKeyToPKCS8
     /tmp/cciZhAVO.s:10952  .text.GetNameHash_ex:0000000000000000 $t
     /tmp/cciZhAVO.s:10959  .text.GetNameHash_ex:0000000000000000 GetNameHash_ex
     /tmp/cciZhAVO.s:10998  .text.GetNameHash_ex:0000000000000048 $d
     /tmp/cciZhAVO.s:11001  .text.GetNameHash:0000000000000000 $t
     /tmp/cciZhAVO.s:11008  .text.GetNameHash:0000000000000000 GetNameHash
     /tmp/cciZhAVO.s:12027  .rodata.pem_struct_min_sz:0000000000000000 pem_struct_min_sz
     /tmp/cciZhAVO.s:11049  .rodata.BEGIN_CERT:0000000000000000 BEGIN_CERT
     /tmp/cciZhAVO.s:11055  .rodata.BEGIN_DSA_PRIV:0000000000000000 BEGIN_DSA_PRIV
     /tmp/cciZhAVO.s:11061  .rodata.BEGIN_EC_PRIV:0000000000000000 BEGIN_EC_PRIV
     /tmp/cciZhAVO.s:11067  .rodata.BEGIN_ENC_PRIV_KEY:0000000000000000 BEGIN_ENC_PRIV_KEY
     /tmp/cciZhAVO.s:11073  .rodata.BEGIN_PRIV_KEY:0000000000000000 BEGIN_PRIV_KEY
     /tmp/cciZhAVO.s:11079  .rodata.BEGIN_PUB_KEY:0000000000000000 BEGIN_PUB_KEY
     /tmp/cciZhAVO.s:11085  .rodata.BEGIN_RSA_PRIV:0000000000000000 BEGIN_RSA_PRIV
     /tmp/cciZhAVO.s:11091  .rodata.BEGIN_RSA_PUB:0000000000000000 BEGIN_RSA_PUB
     /tmp/cciZhAVO.s:11097  .rodata.BEGIN_TRUSTED_CERT:0000000000000000 BEGIN_TRUSTED_CERT
     /tmp/cciZhAVO.s:11103  .rodata.BEGIN_X509_CRL:0000000000000000 BEGIN_X509_CRL
     /tmp/cciZhAVO.s:11109  .rodata.CSWTCH.863:0000000000000000 CSWTCH.863
     /tmp/cciZhAVO.s:11157  .rodata.END_CERT:0000000000000000 END_CERT
     /tmp/cciZhAVO.s:11163  .rodata.END_DSA_PRIV:0000000000000000 END_DSA_PRIV
     /tmp/cciZhAVO.s:11169  .rodata.END_EC_PRIV:0000000000000000 END_EC_PRIV
     /tmp/cciZhAVO.s:11175  .rodata.END_ENC_PRIV_KEY:0000000000000000 END_ENC_PRIV_KEY
     /tmp/cciZhAVO.s:11181  .rodata.END_PRIV_KEY:0000000000000000 END_PRIV_KEY
     /tmp/cciZhAVO.s:11187  .rodata.END_PUB_KEY:0000000000000000 END_PUB_KEY
     /tmp/cciZhAVO.s:11193  .rodata.END_RSA_PRIV:0000000000000000 END_RSA_PRIV
     /tmp/cciZhAVO.s:11199  .rodata.END_RSA_PUB:0000000000000000 END_RSA_PUB
     /tmp/cciZhAVO.s:11205  .rodata.END_TRUSTED_CERT:0000000000000000 END_TRUSTED_CERT
ARM GAS  /tmp/cciZhAVO.s 			page 220


     /tmp/cciZhAVO.s:11211  .rodata.END_X509_CRL:0000000000000000 END_X509_CRL
     /tmp/cciZhAVO.s:11217  .rodata.accessDescASN:0000000000000000 accessDescASN
     /tmp/cciZhAVO.s:11234  .rodata.algoIdASN:0000000000000000 algoIdASN
     /tmp/cciZhAVO.s:11251  .rodata.altNameASN:0000000000000000 altNameASN
     /tmp/cciZhAVO.s:11260  .rodata.attrEmailOid:0000000000000000 attrEmailOid
     /tmp/cciZhAVO.s:11266  .rodata.authKeyIdASN:0000000000000000 authKeyIdASN
     /tmp/cciZhAVO.s:11287  .rodata.basicConsASN:0000000000000000 basicConsASN
     /tmp/cciZhAVO.s:11304  .rodata.bitStringASN:0000000000000000 bitStringASN
     /tmp/cciZhAVO.s:11313  .rodata.blkAes128CbcOid:0000000000000000 blkAes128CbcOid
     /tmp/cciZhAVO.s:11319  .rodata.blkAes192CbcOid:0000000000000000 blkAes192CbcOid
     /tmp/cciZhAVO.s:11325  .rodata.blkAes256CbcOid:0000000000000000 blkAes256CbcOid
     /tmp/cciZhAVO.s:11331  .rodata.certExtASN:0000000000000000 certExtASN
     /tmp/cciZhAVO.s:11352  .rodata.certExtHdrASN:0000000000000000 certExtHdrASN
     /tmp/cciZhAVO.s:11365  .rodata.certNameASN:0000000000000000 certNameASN
     /tmp/cciZhAVO.s:11375  .rodata.certNameSubject:0000000000000000 $d
     /tmp/cciZhAVO.s:11379  .rodata.certNameSubject:0000000000000000 certNameSubject
     /tmp/cciZhAVO.s:11432  .rodata.crlDistASN:0000000000000000 crlDistASN
     /tmp/cciZhAVO.s:11469  .rodata.dateASN:0000000000000000 dateASN
     /tmp/cciZhAVO.s:11482  .rodata.dcOid:0000000000000000 dcOid
     /tmp/cciZhAVO.s:11488  .rodata.dhSinglePass_stdDH_sha1kdf_Oid:0000000000000000 dhSinglePass_stdDH_sha1kdf_Oid
     /tmp/cciZhAVO.s:11494  .rodata.dhSinglePass_stdDH_sha256kdf_Oid:0000000000000000 dhSinglePass_stdDH_sha256kdf_Oid
     /tmp/cciZhAVO.s:11500  .rodata.digestInfoASN:0000000000000000 digestInfoASN
     /tmp/cciZhAVO.s:11525  .rodata.dsaSigASN:0000000000000000 dsaSigASN
     /tmp/cciZhAVO.s:11542  .rodata.eccCertKeyASN:0000000000000000 eccCertKeyASN
     /tmp/cciZhAVO.s:11559  .rodata.eccKeyASN:0000000000000000 eccKeyASN
     /tmp/cciZhAVO.s:11596  .rodata.eccPublicKeyASN:0000000000000000 eccPublicKeyASN
     /tmp/cciZhAVO.s:11625  .rodata.extAltNamesHwNameOid:0000000000000000 extAltNamesHwNameOid
     /tmp/cciZhAVO.s:11631  .rodata.extAltNamesOid:0000000000000000 extAltNamesOid
     /tmp/cciZhAVO.s:11637  .rodata.extAuthInfoCaIssuerOid:0000000000000000 extAuthInfoCaIssuerOid
     /tmp/cciZhAVO.s:11643  .rodata.extAuthInfoOcspOid:0000000000000000 extAuthInfoOcspOid
     /tmp/cciZhAVO.s:11649  .rodata.extAuthInfoOid:0000000000000000 extAuthInfoOid
     /tmp/cciZhAVO.s:11655  .rodata.extAuthKeyOid:0000000000000000 extAuthKeyOid
     /tmp/cciZhAVO.s:11661  .rodata.extBasicCaOid:0000000000000000 extBasicCaOid
     /tmp/cciZhAVO.s:11667  .rodata.extCertPolicyAnyOid:0000000000000000 extCertPolicyAnyOid
     /tmp/cciZhAVO.s:11673  .rodata.extCertPolicyIsrgDomainValid:0000000000000000 extCertPolicyIsrgDomainValid
     /tmp/cciZhAVO.s:11679  .rodata.extCertPolicyOid:0000000000000000 extCertPolicyOid
     /tmp/cciZhAVO.s:11685  .rodata.extCrlDistOid:0000000000000000 extCrlDistOid
     /tmp/cciZhAVO.s:11691  .rodata.extExtKeyUsageAnyOid:0000000000000000 extExtKeyUsageAnyOid
     /tmp/cciZhAVO.s:11697  .rodata.extExtKeyUsageClientAuthOid:0000000000000000 extExtKeyUsageClientAuthOid
     /tmp/cciZhAVO.s:11703  .rodata.extExtKeyUsageCodeSigningOid:0000000000000000 extExtKeyUsageCodeSigningOid
     /tmp/cciZhAVO.s:11709  .rodata.extExtKeyUsageEmailProtectOid:0000000000000000 extExtKeyUsageEmailProtectOid
     /tmp/cciZhAVO.s:11715  .rodata.extExtKeyUsageOcspSignOid:0000000000000000 extExtKeyUsageOcspSignOid
     /tmp/cciZhAVO.s:11721  .rodata.extExtKeyUsageOid:0000000000000000 extExtKeyUsageOid
     /tmp/cciZhAVO.s:11727  .rodata.extExtKeyUsageServerAuthOid:0000000000000000 extExtKeyUsageServerAuthOid
     /tmp/cciZhAVO.s:11733  .rodata.extExtKeyUsageTimestampOid:0000000000000000 extExtKeyUsageTimestampOid
     /tmp/cciZhAVO.s:11739  .rodata.extInhibitAnyOid:0000000000000000 extInhibitAnyOid
     /tmp/cciZhAVO.s:11745  .rodata.extKeyUsageOid:0000000000000000 extKeyUsageOid
     /tmp/cciZhAVO.s:11751  .rodata.extNameConsOid:0000000000000000 extNameConsOid
     /tmp/cciZhAVO.s:11757  .rodata.extSubjKeyOid:0000000000000000 extSubjKeyOid
     /tmp/cciZhAVO.s:11763  .rodata.fvrtDrk:0000000000000000 fvrtDrk
     /tmp/cciZhAVO.s:11769  .rodata.generalNameChoice:0000000000000000 generalNameChoice
     /tmp/cciZhAVO.s:11775  .rodata.hashSha1hOid:0000000000000000 hashSha1hOid
     /tmp/cciZhAVO.s:11781  .rodata.hashSha256hOid:0000000000000000 hashSha256hOid
     /tmp/cciZhAVO.s:11787  .rodata.hashSha3_224hOid:0000000000000000 hashSha3_224hOid
     /tmp/cciZhAVO.s:11793  .rodata.hashSha3_256hOid:0000000000000000 hashSha3_256hOid
     /tmp/cciZhAVO.s:11799  .rodata.hashSha3_384hOid:0000000000000000 hashSha3_384hOid
     /tmp/cciZhAVO.s:11805  .rodata.hashSha3_512hOid:0000000000000000 hashSha3_512hOid
ARM GAS  /tmp/cciZhAVO.s 			page 221


     /tmp/cciZhAVO.s:11811  .rodata.hmacSha256Oid:0000000000000000 hmacSha256Oid
     /tmp/cciZhAVO.s:11817  .rodata.intASN:0000000000000000 intASN
     /tmp/cciZhAVO.s:11826  .rodata.keyEcdsaOid:0000000000000000 keyEcdsaOid
     /tmp/cciZhAVO.s:11832  .rodata.keyPurposeIdASN:0000000000000000 keyPurposeIdASN
     /tmp/cciZhAVO.s:11841  .rodata.keyUsageASN:0000000000000000 keyUsageASN
     /tmp/cciZhAVO.s:11850  .rodata.nameConstraintsASN:0000000000000000 nameConstraintsASN
     /tmp/cciZhAVO.s:11867  .rodata.nameHashASN:0000000000000000 nameHashASN
     /tmp/cciZhAVO.s:11880  .rodata.objectIdASN:0000000000000000 objectIdASN
     /tmp/cciZhAVO.s:11889  .rodata.p8EncPbes2ASN:0000000000000000 p8EncPbes2ASN
     /tmp/cciZhAVO.s:11962  .rodata.pbes2:0000000000000000 pbes2
     /tmp/cciZhAVO.s:11968  .rodata.pbes2ParamsASN:0000000000000000 pbes2ParamsASN
     /tmp/cciZhAVO.s:12021  .rodata.pbkdf2Oid:0000000000000000 pbkdf2Oid
     /tmp/cciZhAVO.s:12024  .rodata.pem_struct_min_sz:0000000000000000 $d
     /tmp/cciZhAVO.s:12033  .rodata.pkcs8DecASN:0000000000000000 pkcs8DecASN
     /tmp/cciZhAVO.s:12058  .rodata.pkcs8KeyASN:0000000000000000 pkcs8KeyASN
     /tmp/cciZhAVO.s:12095  .rodata.rdnASN:0000000000000000 rdnASN
     /tmp/cciZhAVO.s:12116  .rodata.rdnChoice:0000000000000000 rdnChoice
     /tmp/cciZhAVO.s:12122  .rodata.rfc822Mlbx:0000000000000000 rfc822Mlbx
     /tmp/cciZhAVO.s:12128  .rodata.sigSha1wEcdsaName:0000000000000000 sigSha1wEcdsaName
     /tmp/cciZhAVO.s:12134  .rodata.sigSha1wEcdsaOid:0000000000000000 sigSha1wEcdsaOid
     /tmp/cciZhAVO.s:12140  .rodata.sigSha256wEcdsaName:0000000000000000 sigSha256wEcdsaName
     /tmp/cciZhAVO.s:12146  .rodata.sigSha256wEcdsaOid:0000000000000000 sigSha256wEcdsaOid
     /tmp/cciZhAVO.s:12152  .rodata.sigSha3_224wEcdsaName:0000000000000000 sigSha3_224wEcdsaName
     /tmp/cciZhAVO.s:12158  .rodata.sigSha3_224wEcdsaOid:0000000000000000 sigSha3_224wEcdsaOid
     /tmp/cciZhAVO.s:12164  .rodata.sigSha3_256wEcdsaName:0000000000000000 sigSha3_256wEcdsaName
     /tmp/cciZhAVO.s:12170  .rodata.sigSha3_256wEcdsaOid:0000000000000000 sigSha3_256wEcdsaOid
     /tmp/cciZhAVO.s:12176  .rodata.sigSha3_384wEcdsaName:0000000000000000 sigSha3_384wEcdsaName
     /tmp/cciZhAVO.s:12182  .rodata.sigSha3_384wEcdsaOid:0000000000000000 sigSha3_384wEcdsaOid
     /tmp/cciZhAVO.s:12188  .rodata.sigSha3_512wEcdsaName:0000000000000000 sigSha3_512wEcdsaName
     /tmp/cciZhAVO.s:12194  .rodata.sigSha3_512wEcdsaOid:0000000000000000 sigSha3_512wEcdsaOid
     /tmp/cciZhAVO.s:12200  .rodata.sigUnknownName:0000000000000000 sigUnknownName
     /tmp/cciZhAVO.s:12206  .rodata.subTreeASN:0000000000000000 subTreeASN
     /tmp/cciZhAVO.s:12227  .rodata.uidOid:0000000000000000 uidOid
     /tmp/cciZhAVO.s:12233  .rodata.wrapAes128Oid:0000000000000000 wrapAes128Oid
     /tmp/cciZhAVO.s:12239  .rodata.wrapAes192Oid:0000000000000000 wrapAes192Oid
     /tmp/cciZhAVO.s:12245  .rodata.wrapAes256Oid:0000000000000000 wrapAes256Oid
     /tmp/cciZhAVO.s:12251  .rodata.x509CertASN:0000000000000000 x509CertASN
     /tmp/cciZhAVO.s:557    .text.SizeASN_Items:000000000000006f $d
     /tmp/cciZhAVO.s:557    .text.SizeASN_Items:0000000000000070 $t
     /tmp/cciZhAVO.s:760    .text.SetASN_Items:0000000000000055 $d
     /tmp/cciZhAVO.s:760    .text.SetASN_Items:0000000000000056 $t
     /tmp/cciZhAVO.s:1451   .text.GetSigName:0000000000000035 $d
     /tmp/cciZhAVO.s:1451   .text.GetSigName:0000000000000036 $t
     /tmp/cciZhAVO.s:8377   .text.wc_PemGetHeaderFooter:0000000000000035 $d
     /tmp/cciZhAVO.s:8377   .text.wc_PemGetHeaderFooter:0000000000000036 $t

UNDEFINED SYMBOLS
memset
memcmp
_ctype_
wc_ecc_get_oid
sp_unsigned_bin_size
sp_leading_bit
sp_to_unsigned_bin
memcpy
memmove
wolfSSL_Malloc
ARM GAS  /tmp/cciZhAVO.s 			page 222


wolfSSL_Free
sp_init
sp_read_unsigned_bin
sp_clear
wc_ShaHash
wc_CryptKey
wc_RNG_GenerateBlock
strlen
wc_ecc_export_x963_ex
wc_HashTypeConvert
wc_HashGetOID
wc_ecc_free
wolfSSL_strnstr
Base64_Decode_nonCT
Base64_Decode
wc_ecc_import_private_key_ex
wc_ecc_init_ex
wc_ecc_export_private_only
wc_ecc_import_private_key
wc_ecc_check_key
wc_ecc_import_x963_ex
wc_Sha256Hash_ex
wc_ShaHash_ex
wc_Sha3_224Hash_ex
wc_Sha3_256Hash_ex
wc_Sha3_384Hash_ex
wc_Sha3_512Hash_ex
wc_ecc_verify_hash
GetCAByName
GetCA
wc_ecc_export_x963
