ARM GAS  /tmp/ccqDDmMm.s 			page 1


   1              		.cpu cortex-m33
   2              		.eabi_attribute 27, 1
   3              		.eabi_attribute 28, 1
   4              		.eabi_attribute 20, 1
   5              		.eabi_attribute 21, 1
   6              		.eabi_attribute 23, 3
   7              		.eabi_attribute 24, 1
   8              		.eabi_attribute 25, 1
   9              		.eabi_attribute 26, 1
  10              		.eabi_attribute 30, 4
  11              		.eabi_attribute 34, 1
  12              		.eabi_attribute 18, 4
  13              		.file	"ecc.c"
  14              		.text
  15              		.section	.text.ForceZero,"ax",%progbits
  16              		.align	1
  17              		.arch armv8-m.main
  18              		.arch_extension dsp
  19              		.syntax unified
  20              		.thumb
  21              		.thumb_func
  22              		.fpu fpv4-sp-d16
  24              	ForceZero:
  25              		@ args = 0, pretend = 0, frame = 8
  26              		@ frame_needed = 0, uses_anonymous_args = 0
  27 0000 73B5     		push	{r0, r1, r4, r5, r6, lr}
  28 0002 0346     		mov	r3, r0
  29 0004 0C46     		mov	r4, r1
  30 0006 BFF35B8F 		dmb	ish
  31 000a 0022     		movs	r2, #0
  32              	.L2:
  33 000c 13F00301 		ands	r1, r3, #3
  34 0010 13D1     		bne	.L4
  35 0012 24F00305 		bic	r5, r4, #3
  36 0016 2A46     		mov	r2, r5
  37 0018 1846     		mov	r0, r3
  38 001a 0191     		str	r1, [sp, #4]
  39 001c FFF7FEFF 		bl	memset
  40 0020 6FF00302 		mvn	r2, #3
  41 0024 A608     		lsrs	r6, r4, #2
  42 0026 02FB0642 		mla	r2, r2, r6, r4
  43 002a 0199     		ldr	r1, [sp, #4]
  44 002c 2844     		add	r0, r0, r5
  45 002e FFF7FEFF 		bl	memset
  46 0032 BFF35B8F 		dmb	ish
  47              	.L1:
  48 0036 02B0     		add	sp, sp, #8
  49              		@ sp needed
  50 0038 70BD     		pop	{r4, r5, r6, pc}
  51              	.L4:
  52 003a 002C     		cmp	r4, #0
  53 003c FBD0     		beq	.L1
  54 003e 03F8012B 		strb	r2, [r3], #1
  55 0042 013C     		subs	r4, r4, #1
  56 0044 E2E7     		b	.L2
  58              		.section	.text.wc_ecc_cmp_param,"ax",%progbits
  59              		.align	1
ARM GAS  /tmp/ccqDDmMm.s 			page 2


  60              		.syntax unified
  61              		.thumb
  62              		.thumb_func
  63              		.fpu fpv4-sp-d16
  65              	wc_ecc_cmp_param:
  66              		@ args = 0, pretend = 0, frame = 0
  67              		@ frame_needed = 0, uses_anonymous_args = 0
  68 0000 2DE9F743 		push	{r0, r1, r2, r4, r5, r6, r7, r8, r9, lr}
  69 0004 0746     		mov	r7, r0
  70 0006 9146     		mov	r9, r2
  71 0008 8846     		mov	r8, r1
  72 000a 0029     		cmp	r1, #0
  73 000c 56D0     		beq	.L16
  74 000e 0028     		cmp	r0, #0
  75 0010 54D0     		beq	.L16
  76 0012 012B     		cmp	r3, #1
  77 0014 10D1     		bne	.L11
  78 0016 FFF7FEFF 		bl	strlen
  79 001a 4845     		cmp	r0, r9
  80 001c 0246     		mov	r2, r0
  81 001e 50D1     		bne	.L17
  82 0020 4146     		mov	r1, r8
  83 0022 3846     		mov	r0, r7
  84 0024 FFF7FEFF 		bl	strncmp
  85 0028 0038     		subs	r0, r0, #0
  86 002a 18BF     		it	ne
  87 002c 0120     		movne	r0, #1
  88 002e 4442     		rsbs	r4, r0, #0
  89              	.L9:
  90 0030 2046     		mov	r0, r4
  91 0032 03B0     		add	sp, sp, #12
  92              		@ sp needed
  93 0034 BDE8F083 		pop	{r4, r5, r6, r7, r8, r9, pc}
  94              	.L11:
  95 0038 9020     		movs	r0, #144
  96 003a FFF7FEFF 		bl	wolfSSL_Malloc
  97 003e 0546     		mov	r5, r0
  98 0040 38B1     		cbz	r0, .L18
  99 0042 9020     		movs	r0, #144
 100 0044 FFF7FEFF 		bl	wolfSSL_Malloc
 101 0048 0646     		mov	r6, r0
 102 004a 28B9     		cbnz	r0, .L12
 103 004c 2846     		mov	r0, r5
 104 004e FFF7FEFF 		bl	wolfSSL_Free
 105              	.L18:
 106 0052 6FF07C04 		mvn	r4, #124
 107 0056 EBE7     		b	.L9
 108              	.L12:
 109 0058 0023     		movs	r3, #0
 110 005a 0146     		mov	r1, r0
 111 005c 1A46     		mov	r2, r3
 112 005e 2846     		mov	r0, r5
 113 0060 CDE90033 		strd	r3, r3, [sp]
 114 0064 FFF7FEFF 		bl	sp_init_multi
 115 0068 0446     		mov	r4, r0
 116 006a 30B1     		cbz	r0, .L13
 117 006c 2846     		mov	r0, r5
ARM GAS  /tmp/ccqDDmMm.s 			page 3


 118 006e FFF7FEFF 		bl	wolfSSL_Free
 119 0072 3046     		mov	r0, r6
 120              	.L19:
 121 0074 FFF7FEFF 		bl	wolfSSL_Free
 122 0078 DAE7     		b	.L9
 123              	.L13:
 124 007a 4A46     		mov	r2, r9
 125 007c 4146     		mov	r1, r8
 126 007e 2846     		mov	r0, r5
 127 0080 FFF7FEFF 		bl	sp_read_unsigned_bin
 128 0084 0446     		mov	r4, r0
 129 0086 70B9     		cbnz	r0, .L14
 130 0088 1022     		movs	r2, #16
 131 008a 3946     		mov	r1, r7
 132 008c 3046     		mov	r0, r6
 133 008e FFF7FEFF 		bl	sp_read_radix
 134 0092 0446     		mov	r4, r0
 135 0094 38B9     		cbnz	r0, .L14
 136 0096 3146     		mov	r1, r6
 137 0098 2846     		mov	r0, r5
 138 009a FFF7FEFF 		bl	sp_cmp
 139 009e 041E     		subs	r4, r0, #0
 140 00a0 18BF     		it	ne
 141 00a2 0124     		movne	r4, #1
 142 00a4 6442     		rsbs	r4, r4, #0
 143              	.L14:
 144 00a6 2846     		mov	r0, r5
 145 00a8 FFF7FEFF 		bl	sp_clear
 146 00ac 3046     		mov	r0, r6
 147 00ae FFF7FEFF 		bl	sp_clear
 148 00b2 3046     		mov	r0, r6
 149 00b4 FFF7FEFF 		bl	wolfSSL_Free
 150 00b8 2846     		mov	r0, r5
 151 00ba DBE7     		b	.L19
 152              	.L16:
 153 00bc 6FF0AC04 		mvn	r4, #172
 154 00c0 B6E7     		b	.L9
 155              	.L17:
 156 00c2 4FF0FF34 		mov	r4, #-1
 157 00c6 B3E7     		b	.L9
 159              		.section	.text._ecc_is_point.constprop.0,"ax",%progbits
 160              		.align	1
 161              		.syntax unified
 162              		.thumb
 163              		.thumb_func
 164              		.fpu fpv4-sp-d16
 166              	_ecc_is_point.constprop.0:
 167              		@ args = 0, pretend = 0, frame = 0
 168              		@ frame_needed = 0, uses_anonymous_args = 0
 169 0000 2DE9F743 		push	{r0, r1, r2, r4, r5, r6, r7, r8, r9, lr}
 170 0004 8146     		mov	r9, r0
 171 0006 9020     		movs	r0, #144
 172 0008 8846     		mov	r8, r1
 173 000a 1746     		mov	r7, r2
 174 000c FFF7FEFF 		bl	wolfSSL_Malloc
 175 0010 0546     		mov	r5, r0
 176 0012 38B1     		cbz	r0, .L28
ARM GAS  /tmp/ccqDDmMm.s 			page 4


 177 0014 9020     		movs	r0, #144
 178 0016 FFF7FEFF 		bl	wolfSSL_Malloc
 179 001a 0646     		mov	r6, r0
 180 001c 28B9     		cbnz	r0, .L22
 181 001e 2846     		mov	r0, r5
 182 0020 FFF7FEFF 		bl	wolfSSL_Free
 183              	.L28:
 184 0024 6FF07C04 		mvn	r4, #124
 185 0028 0FE0     		b	.L20
 186              	.L22:
 187 002a 0023     		movs	r3, #0
 188 002c 0146     		mov	r1, r0
 189 002e 1A46     		mov	r2, r3
 190 0030 2846     		mov	r0, r5
 191 0032 CDE90033 		strd	r3, r3, [sp]
 192 0036 FFF7FEFF 		bl	sp_init_multi
 193 003a 0446     		mov	r4, r0
 194 003c 48B1     		cbz	r0, .L23
 195              	.L32:
 196 003e 3046     		mov	r0, r6
 197 0040 FFF7FEFF 		bl	wolfSSL_Free
 198 0044 2846     		mov	r0, r5
 199 0046 FFF7FEFF 		bl	wolfSSL_Free
 200              	.L20:
 201 004a 2046     		mov	r0, r4
 202 004c 03B0     		add	sp, sp, #12
 203              		@ sp needed
 204 004e BDE8F083 		pop	{r4, r5, r6, r7, r8, r9, pc}
 205              	.L23:
 206 0052 2946     		mov	r1, r5
 207 0054 09F19000 		add	r0, r9, #144
 208 0058 FFF7FEFF 		bl	sp_sqr
 209 005c 0446     		mov	r4, r0
 210 005e 0028     		cmp	r0, #0
 211 0060 46D1     		bne	.L24
 212 0062 3146     		mov	r1, r6
 213 0064 4846     		mov	r0, r9
 214 0066 FFF7FEFF 		bl	sp_sqr
 215 006a 0446     		mov	r4, r0
 216 006c 0028     		cmp	r0, #0
 217 006e 3FD1     		bne	.L24
 218 0070 3246     		mov	r2, r6
 219 0072 3946     		mov	r1, r7
 220 0074 3046     		mov	r0, r6
 221 0076 FFF7FEFF 		bl	sp_mod
 222 007a 0446     		mov	r4, r0
 223 007c C0BB     		cbnz	r0, .L24
 224 007e 3246     		mov	r2, r6
 225 0080 3146     		mov	r1, r6
 226 0082 4846     		mov	r0, r9
 227 0084 FFF7FEFF 		bl	sp_mul
 228 0088 0446     		mov	r4, r0
 229 008a 88BB     		cbnz	r0, .L24
 230 008c 2B46     		mov	r3, r5
 231 008e 3A46     		mov	r2, r7
 232 0090 3146     		mov	r1, r6
 233 0092 2846     		mov	r0, r5
ARM GAS  /tmp/ccqDDmMm.s 			page 5


 234 0094 FFF7FEFF 		bl	sp_submod
 235 0098 0446     		mov	r4, r0
 236 009a 48BB     		cbnz	r0, .L24
 237 009c 2A46     		mov	r2, r5
 238 009e 4946     		mov	r1, r9
 239 00a0 2846     		mov	r0, r5
 240 00a2 FFF7FEFF 		bl	sp_add
 241 00a6 0446     		mov	r4, r0
 242 00a8 10BB     		cbnz	r0, .L24
 243 00aa 2A46     		mov	r2, r5
 244 00ac 4946     		mov	r1, r9
 245 00ae 2846     		mov	r0, r5
 246 00b0 FFF7FEFF 		bl	sp_add
 247 00b4 0446     		mov	r4, r0
 248 00b6 D8B9     		cbnz	r0, .L24
 249 00b8 2A46     		mov	r2, r5
 250 00ba 4946     		mov	r1, r9
 251 00bc 2846     		mov	r0, r5
 252 00be FFF7FEFF 		bl	sp_add
 253 00c2 0446     		mov	r4, r0
 254 00c4 A0B9     		cbnz	r0, .L24
 255 00c6 2A46     		mov	r2, r5
 256 00c8 3946     		mov	r1, r7
 257 00ca 2846     		mov	r0, r5
 258 00cc FFF7FEFF 		bl	sp_mod
 259              	.L31:
 260 00d0 0446     		mov	r4, r0
 261 00d2 68B9     		cbnz	r0, .L24
 262 00d4 3946     		mov	r1, r7
 263 00d6 2846     		mov	r0, r5
 264 00d8 FFF7FEFF 		bl	sp_cmp
 265 00dc 0130     		adds	r0, r0, #1
 266 00de 0ED1     		bne	.L26
 267 00e0 4146     		mov	r1, r8
 268 00e2 2846     		mov	r0, r5
 269 00e4 FFF7FEFF 		bl	sp_cmp
 270 00e8 041E     		subs	r4, r0, #0
 271 00ea 18BF     		it	ne
 272 00ec 6FF0D504 		mvnne	r4, #213
 273              	.L24:
 274 00f0 2846     		mov	r0, r5
 275 00f2 FFF7FEFF 		bl	sp_clear
 276 00f6 3046     		mov	r0, r6
 277 00f8 FFF7FEFF 		bl	sp_clear
 278 00fc 9FE7     		b	.L32
 279              	.L26:
 280 00fe 2A46     		mov	r2, r5
 281 0100 3946     		mov	r1, r7
 282 0102 2846     		mov	r0, r5
 283 0104 FFF7FEFF 		bl	sp_sub
 284 0108 E2E7     		b	.L31
 286              		.section	.text.wc_ecc_new_point_ex.constprop.0,"ax",%progbits
 287              		.align	1
 288              		.syntax unified
 289              		.thumb
 290              		.thumb_func
 291              		.fpu fpv4-sp-d16
ARM GAS  /tmp/ccqDDmMm.s 			page 6


 293              	wc_ecc_new_point_ex.constprop.0:
 294              		@ args = 0, pretend = 0, frame = 0
 295              		@ frame_needed = 0, uses_anonymous_args = 0
 296 0000 F7B5     		push	{r0, r1, r2, r4, r5, r6, r7, lr}
 297 0002 0468     		ldr	r4, [r0]
 298 0004 0646     		mov	r6, r0
 299 0006 2CB9     		cbnz	r4, .L34
 300 0008 4FF4DC70 		mov	r0, #440
 301 000c FFF7FEFF 		bl	wolfSSL_Malloc
 302 0010 0446     		mov	r4, r0
 303 0012 48B3     		cbz	r0, .L38
 304              	.L34:
 305 0014 4FF4DC72 		mov	r2, #440
 306 0018 0021     		movs	r1, #0
 307 001a 2046     		mov	r0, r4
 308 001c FFF7FEFF 		bl	memset
 309 0020 3368     		ldr	r3, [r6]
 310 0022 2BB9     		cbnz	r3, .L36
 311 0024 94F8B431 		ldrb	r3, [r4, #436]	@ zero_extendqisi2
 312 0028 43F00103 		orr	r3, r3, #1
 313 002c 84F8B431 		strb	r3, [r4, #436]
 314              	.L36:
 315 0030 0027     		movs	r7, #0
 316 0032 2046     		mov	r0, r4
 317 0034 3B46     		mov	r3, r7
 318 0036 CDE90077 		strd	r7, r7, [sp]
 319 003a 04F59072 		add	r2, r4, #288
 320 003e 04F19001 		add	r1, r4, #144
 321 0042 FFF7FEFF 		bl	sp_init_multi
 322 0046 0546     		mov	r5, r0
 323 0048 40B1     		cbz	r0, .L37
 324 004a 94F8B421 		ldrb	r2, [r4, #436]	@ zero_extendqisi2
 325 004e 12F00102 		ands	r2, r2, #1
 326 0052 07D0     		beq	.L39
 327 0054 2046     		mov	r0, r4
 328 0056 FFF7FEFF 		bl	wolfSSL_Free
 329 005a 3C46     		mov	r4, r7
 330              	.L37:
 331 005c 3460     		str	r4, [r6]
 332              	.L33:
 333 005e 2846     		mov	r0, r5
 334 0060 03B0     		add	sp, sp, #12
 335              		@ sp needed
 336 0062 F0BD     		pop	{r4, r5, r6, r7, pc}
 337              	.L39:
 338 0064 1446     		mov	r4, r2
 339 0066 F9E7     		b	.L37
 340              	.L38:
 341 0068 6FF07C05 		mvn	r5, #124
 342 006c F7E7     		b	.L33
 344              		.section	.text.wc_ecc_del_point_ex.constprop.0,"ax",%progbits
 345              		.align	1
 346              		.syntax unified
 347              		.thumb
 348              		.thumb_func
 349              		.fpu fpv4-sp-d16
 351              	wc_ecc_del_point_ex.constprop.0:
ARM GAS  /tmp/ccqDDmMm.s 			page 7


 352              		@ args = 0, pretend = 0, frame = 0
 353              		@ frame_needed = 0, uses_anonymous_args = 0
 354 0000 10B5     		push	{r4, lr}
 355 0002 0446     		mov	r4, r0
 356 0004 90B1     		cbz	r0, .L43
 357 0006 FFF7FEFF 		bl	sp_clear
 358 000a 04F19000 		add	r0, r4, #144
 359 000e FFF7FEFF 		bl	sp_clear
 360 0012 04F59070 		add	r0, r4, #288
 361 0016 FFF7FEFF 		bl	sp_clear
 362 001a 94F8B431 		ldrb	r3, [r4, #436]	@ zero_extendqisi2
 363 001e DB07     		lsls	r3, r3, #31
 364 0020 04D5     		bpl	.L43
 365 0022 2046     		mov	r0, r4
 366 0024 BDE81040 		pop	{r4, lr}
 367 0028 FFF7FEBF 		b	wolfSSL_Free
 368              	.L43:
 369 002c 10BD     		pop	{r4, pc}
 371              		.section	.text.ecc_key_tmp_init.constprop.0,"ax",%progbits
 372              		.align	1
 373              		.syntax unified
 374              		.thumb
 375              		.thumb_func
 376              		.fpu fpv4-sp-d16
 378              	ecc_key_tmp_init.constprop.0:
 379              		@ args = 0, pretend = 0, frame = 0
 380              		@ frame_needed = 0, uses_anonymous_args = 0
 381 0000 10B5     		push	{r4, lr}
 382 0002 0446     		mov	r4, r0
 383 0004 0028     		cmp	r0, #0
 384 0006 61D0     		beq	.L59
 385 0008 4FF41B72 		mov	r2, #620
 386 000c 0021     		movs	r1, #0
 387 000e FFF7FEFF 		bl	memset
 388 0012 4820     		movs	r0, #72
 389 0014 FFF7FEFF 		bl	wolfSSL_Malloc
 390 0018 C4F86002 		str	r0, [r4, #608]
 391 001c 60B1     		cbz	r0, .L52
 392 001e 2369     		ldr	r3, [r4, #16]
 393 0020 002B     		cmp	r3, #0
 394 0022 43D0     		beq	.L60
 395 0024 1A68     		ldr	r2, [r3]
 396 0026 D200     		lsls	r2, r2, #3
 397 0028 1F32     		adds	r2, r2, #31
 398 002a 5209     		lsrs	r2, r2, #5
 399 002c 40D0     		beq	.L61
 400 002e 0132     		adds	r2, r2, #1
 401 0030 D200     		lsls	r2, r2, #3
 402              	.L53:
 403 0032 0021     		movs	r1, #0
 404 0034 FFF7FEFF 		bl	memset
 405              	.L52:
 406 0038 2369     		ldr	r3, [r4, #16]
 407 003a 002B     		cmp	r3, #0
 408 003c 3AD0     		beq	.L62
 409 003e 1B68     		ldr	r3, [r3]
 410 0040 DB00     		lsls	r3, r3, #3
ARM GAS  /tmp/ccqDDmMm.s 			page 8


 411 0042 1F33     		adds	r3, r3, #31
 412 0044 5809     		lsrs	r0, r3, #5
 413 0046 37D0     		beq	.L63
 414 0048 0130     		adds	r0, r0, #1
 415 004a C000     		lsls	r0, r0, #3
 416              	.L54:
 417 004c FFF7FEFF 		bl	wolfSSL_Malloc
 418 0050 C4F86402 		str	r0, [r4, #612]
 419 0054 58B1     		cbz	r0, .L55
 420 0056 2369     		ldr	r3, [r4, #16]
 421 0058 83B3     		cbz	r3, .L64
 422 005a 1A68     		ldr	r2, [r3]
 423 005c D200     		lsls	r2, r2, #3
 424 005e 1F32     		adds	r2, r2, #31
 425 0060 5209     		lsrs	r2, r2, #5
 426 0062 2DD0     		beq	.L65
 427 0064 0132     		adds	r2, r2, #1
 428 0066 D200     		lsls	r2, r2, #3
 429              	.L56:
 430 0068 0021     		movs	r1, #0
 431 006a FFF7FEFF 		bl	memset
 432              	.L55:
 433 006e D4F86002 		ldr	r0, [r4, #608]
 434 0072 70B3     		cbz	r0, .L67
 435 0074 D4F86432 		ldr	r3, [r4, #612]
 436 0078 5BB3     		cbz	r3, .L67
 437 007a 2369     		ldr	r3, [r4, #16]
 438 007c 13B3     		cbz	r3, .L68
 439 007e 1968     		ldr	r1, [r3]
 440 0080 C900     		lsls	r1, r1, #3
 441 0082 1F31     		adds	r1, r1, #31
 442 0084 4909     		lsrs	r1, r1, #5
 443 0086 4900     		lsls	r1, r1, #1
 444 0088 0131     		adds	r1, r1, #1
 445              	.L57:
 446 008a FFF7FEFF 		bl	sp_init_size
 447 008e F8B9     		cbnz	r0, .L50
 448 0090 2369     		ldr	r3, [r4, #16]
 449 0092 D4F86402 		ldr	r0, [r4, #612]
 450 0096 BBB1     		cbz	r3, .L69
 451 0098 1968     		ldr	r1, [r3]
 452 009a C900     		lsls	r1, r1, #3
 453 009c 1F31     		adds	r1, r1, #31
 454 009e 4909     		lsrs	r1, r1, #5
 455 00a0 4900     		lsls	r1, r1, #1
 456 00a2 0131     		adds	r1, r1, #1
 457              	.L58:
 458 00a4 BDE81040 		pop	{r4, lr}
 459 00a8 FFF7FEBF 		b	sp_init_size
 460              	.L60:
 461 00ac 4822     		movs	r2, #72
 462 00ae C0E7     		b	.L53
 463              	.L61:
 464 00b0 0822     		movs	r2, #8
 465 00b2 BEE7     		b	.L53
 466              	.L62:
 467 00b4 4820     		movs	r0, #72
ARM GAS  /tmp/ccqDDmMm.s 			page 9


 468 00b6 C9E7     		b	.L54
 469              	.L63:
 470 00b8 0820     		movs	r0, #8
 471 00ba C7E7     		b	.L54
 472              	.L64:
 473 00bc 4822     		movs	r2, #72
 474 00be D3E7     		b	.L56
 475              	.L65:
 476 00c0 0822     		movs	r2, #8
 477 00c2 D1E7     		b	.L56
 478              	.L68:
 479 00c4 1121     		movs	r1, #17
 480 00c6 E0E7     		b	.L57
 481              	.L69:
 482 00c8 1121     		movs	r1, #17
 483 00ca EBE7     		b	.L58
 484              	.L59:
 485 00cc 6FF0A900 		mvn	r0, #169
 486              	.L50:
 487 00d0 10BD     		pop	{r4, pc}
 488              	.L67:
 489 00d2 6FF07C00 		mvn	r0, #124
 490 00d6 FBE7     		b	.L50
 492              		.section	.text.ecc_point_to_mont.constprop.0,"ax",%progbits
 493              		.align	1
 494              		.syntax unified
 495              		.thumb
 496              		.thumb_func
 497              		.fpu fpv4-sp-d16
 499              	ecc_point_to_mont.constprop.0:
 500              		@ args = 0, pretend = 0, frame = 0
 501              		@ frame_needed = 0, uses_anonymous_args = 0
 502 0000 2DE9F041 		push	{r4, r5, r6, r7, r8, lr}
 503 0004 0646     		mov	r6, r0
 504 0006 1088     		ldrh	r0, [r2]
 505 0008 0F46     		mov	r7, r1
 506 000a 0130     		adds	r0, r0, #1
 507 000c C000     		lsls	r0, r0, #3
 508 000e 9046     		mov	r8, r2
 509 0010 FFF7FEFF 		bl	wolfSSL_Malloc
 510 0014 0546     		mov	r5, r0
 511 0016 0028     		cmp	r0, #0
 512 0018 53D0     		beq	.L81
 513 001a B8F80020 		ldrh	r2, [r8]
 514 001e 0021     		movs	r1, #0
 515 0020 0132     		adds	r2, r2, #1
 516 0022 D200     		lsls	r2, r2, #3
 517 0024 FFF7FEFF 		bl	memset
 518 0028 B8F80010 		ldrh	r1, [r8]
 519 002c 2846     		mov	r0, r5
 520 002e 4900     		lsls	r1, r1, #1
 521 0030 0131     		adds	r1, r1, #1
 522 0032 FFF7FEFF 		bl	sp_init_size
 523 0036 0446     		mov	r4, r0
 524 0038 10BB     		cbnz	r0, .L78
 525 003a 4146     		mov	r1, r8
 526 003c 2846     		mov	r0, r5
ARM GAS  /tmp/ccqDDmMm.s 			page 10


 527 003e FFF7FEFF 		bl	sp_mont_norm
 528 0042 0446     		mov	r4, r0
 529 0044 C8B9     		cbnz	r0, .L79
 530 0046 0121     		movs	r1, #1
 531 0048 2846     		mov	r0, r5
 532 004a FFF7FEFF 		bl	sp_cmp_d
 533 004e D8B9     		cbnz	r0, .L80
 534 0050 3946     		mov	r1, r7
 535 0052 3046     		mov	r0, r6
 536 0054 FFF7FEFF 		bl	sp_copy
 537 0058 0446     		mov	r4, r0
 538 005a 70B9     		cbnz	r0, .L79
 539 005c 07F19001 		add	r1, r7, #144
 540 0060 06F19000 		add	r0, r6, #144
 541 0064 FFF7FEFF 		bl	sp_copy
 542 0068 0446     		mov	r4, r0
 543 006a 30B9     		cbnz	r0, .L79
 544 006c 07F59071 		add	r1, r7, #288
 545 0070 06F59070 		add	r0, r6, #288
 546 0074 FFF7FEFF 		bl	sp_copy
 547              	.L82:
 548 0078 0446     		mov	r4, r0
 549              	.L79:
 550 007a 2846     		mov	r0, r5
 551 007c FFF7FEFF 		bl	sp_clear
 552              	.L78:
 553 0080 2846     		mov	r0, r5
 554 0082 FFF7FEFF 		bl	wolfSSL_Free
 555 0086 1EE0     		b	.L76
 556              	.L80:
 557 0088 3B46     		mov	r3, r7
 558 008a 4246     		mov	r2, r8
 559 008c 2946     		mov	r1, r5
 560 008e 3046     		mov	r0, r6
 561 0090 FFF7FEFF 		bl	sp_mulmod
 562 0094 0446     		mov	r4, r0
 563 0096 0028     		cmp	r0, #0
 564 0098 EFD1     		bne	.L79
 565 009a 4246     		mov	r2, r8
 566 009c 2946     		mov	r1, r5
 567 009e 07F19003 		add	r3, r7, #144
 568 00a2 06F19000 		add	r0, r6, #144
 569 00a6 FFF7FEFF 		bl	sp_mulmod
 570 00aa 0446     		mov	r4, r0
 571 00ac 0028     		cmp	r0, #0
 572 00ae E4D1     		bne	.L79
 573 00b0 4246     		mov	r2, r8
 574 00b2 2946     		mov	r1, r5
 575 00b4 07F59073 		add	r3, r7, #288
 576 00b8 06F59070 		add	r0, r6, #288
 577 00bc FFF7FEFF 		bl	sp_mulmod
 578 00c0 DAE7     		b	.L82
 579              	.L81:
 580 00c2 6FF07C04 		mvn	r4, #124
 581              	.L76:
 582 00c6 2046     		mov	r0, r4
 583 00c8 BDE8F081 		pop	{r4, r5, r6, r7, r8, pc}
ARM GAS  /tmp/ccqDDmMm.s 			page 11


 585              		.section	.text._ecc_projective_dbl_point.constprop.0,"ax",%progbits
 586              		.align	1
 587              		.syntax unified
 588              		.thumb
 589              		.thumb_func
 590              		.fpu fpv4-sp-d16
 592              	_ecc_projective_dbl_point.constprop.0:
 593              		@ args = 0, pretend = 0, frame = 8
 594              		@ frame_needed = 0, uses_anonymous_args = 0
 595 0000 2DE9F74F 		push	{r0, r1, r2, r4, r5, r6, r7, r8, r9, r10, fp, lr}
 596 0004 D1F8B061 		ldr	r6, [r1, #432]
 597 0008 8346     		mov	fp, r0
 598 000a 8846     		mov	r8, r1
 599 000c 1446     		mov	r4, r2
 600 000e 9946     		mov	r9, r3
 601 0010 FEB1     		cbz	r6, .L84
 602 0012 D6E99856 		ldrd	r5, r6, [r6, #608]
 603              	.L85:
 604 0016 2188     		ldrh	r1, [r4]
 605 0018 2846     		mov	r0, r5
 606 001a 4900     		lsls	r1, r1, #1
 607 001c 0131     		adds	r1, r1, #1
 608 001e FFF7FEFF 		bl	sp_init_size
 609 0022 0346     		mov	r3, r0
 610 0024 38B9     		cbnz	r0, .L90
 611 0026 2188     		ldrh	r1, [r4]
 612 0028 3046     		mov	r0, r6
 613 002a 4900     		lsls	r1, r1, #1
 614 002c 0131     		adds	r1, r1, #1
 615 002e FFF7FEFF 		bl	sp_init_size
 616 0032 0346     		mov	r3, r0
 617 0034 68B3     		cbz	r0, .L91
 618              	.L90:
 619 0036 D8F8B021 		ldr	r2, [r8, #432]
 620 003a 002A     		cmp	r2, #0
 621 003c 40F03981 		bne	.L83
 622 0040 002E     		cmp	r6, #0
 623 0042 00F03081 		beq	.L94
 624 0046 0193     		str	r3, [sp, #4]
 625              	.L117:
 626 0048 3046     		mov	r0, r6
 627 004a FFF7FEFF 		bl	wolfSSL_Free
 628 004e 019B     		ldr	r3, [sp, #4]
 629 0050 29E1     		b	.L94
 630              	.L84:
 631 0052 1088     		ldrh	r0, [r2]
 632 0054 0130     		adds	r0, r0, #1
 633 0056 C000     		lsls	r0, r0, #3
 634 0058 FFF7FEFF 		bl	wolfSSL_Malloc
 635 005c 0546     		mov	r5, r0
 636 005e 28B1     		cbz	r0, .L86
 637 0060 2288     		ldrh	r2, [r4]
 638 0062 3146     		mov	r1, r6
 639 0064 0132     		adds	r2, r2, #1
 640 0066 D200     		lsls	r2, r2, #3
 641 0068 FFF7FEFF 		bl	memset
 642              	.L86:
ARM GAS  /tmp/ccqDDmMm.s 			page 12


 643 006c 2088     		ldrh	r0, [r4]
 644 006e 0130     		adds	r0, r0, #1
 645 0070 C000     		lsls	r0, r0, #3
 646 0072 FFF7FEFF 		bl	wolfSSL_Malloc
 647 0076 0646     		mov	r6, r0
 648 0078 0028     		cmp	r0, #0
 649 007a 00F01E81 		beq	.L87
 650 007e 2288     		ldrh	r2, [r4]
 651 0080 0021     		movs	r1, #0
 652 0082 0132     		adds	r2, r2, #1
 653 0084 D200     		lsls	r2, r2, #3
 654 0086 FFF7FEFF 		bl	memset
 655 008a 002D     		cmp	r5, #0
 656 008c C3D1     		bne	.L85
 657 008e 3046     		mov	r0, r6
 658 0090 15E1     		b	.L113
 659              	.L91:
 660 0092 4146     		mov	r1, r8
 661 0094 5846     		mov	r0, fp
 662 0096 FFF7FEFF 		bl	sp_copy
 663 009a 0346     		mov	r3, r0
 664 009c 0028     		cmp	r0, #0
 665 009e 40F0F480 		bne	.L93
 666 00a2 08F19007 		add	r7, r8, #144
 667 00a6 3946     		mov	r1, r7
 668 00a8 0BF19000 		add	r0, fp, #144
 669 00ac FFF7FEFF 		bl	sp_copy
 670 00b0 0346     		mov	r3, r0
 671 00b2 0028     		cmp	r0, #0
 672 00b4 40F0E980 		bne	.L93
 673 00b8 08F5907A 		add	r10, r8, #288
 674 00bc 5146     		mov	r1, r10
 675 00be 0BF59070 		add	r0, fp, #288
 676 00c2 FFF7FEFF 		bl	sp_copy
 677 00c6 0346     		mov	r3, r0
 678 00c8 0028     		cmp	r0, #0
 679 00ca 40F0DE80 		bne	.L93
 680 00ce 2946     		mov	r1, r5
 681 00d0 5046     		mov	r0, r10
 682 00d2 FFF7FEFF 		bl	sp_sqr
 683 00d6 0346     		mov	r3, r0
 684 00d8 0028     		cmp	r0, #0
 685 00da 40F0D680 		bne	.L93
 686 00de 4A46     		mov	r2, r9
 687 00e0 2146     		mov	r1, r4
 688 00e2 2846     		mov	r0, r5
 689 00e4 FFF7FEFF 		bl	sp_mont_red_ex
 690 00e8 0346     		mov	r3, r0
 691 00ea 0028     		cmp	r0, #0
 692 00ec 40F0CD80 		bne	.L93
 693 00f0 5246     		mov	r2, r10
 694 00f2 3946     		mov	r1, r7
 695 00f4 5046     		mov	r0, r10
 696 00f6 FFF7FEFF 		bl	sp_mul
 697 00fa 0346     		mov	r3, r0
 698 00fc 0028     		cmp	r0, #0
 699 00fe 40F0C480 		bne	.L93
ARM GAS  /tmp/ccqDDmMm.s 			page 13


 700 0102 4A46     		mov	r2, r9
 701 0104 2146     		mov	r1, r4
 702 0106 5046     		mov	r0, r10
 703 0108 FFF7FEFF 		bl	sp_mont_red_ex
 704 010c 0346     		mov	r3, r0
 705 010e 0028     		cmp	r0, #0
 706 0110 40F0BB80 		bne	.L93
 707 0114 5346     		mov	r3, r10
 708 0116 2246     		mov	r2, r4
 709 0118 5146     		mov	r1, r10
 710 011a 5046     		mov	r0, r10
 711 011c FFF7FEFF 		bl	sp_addmod_ct
 712 0120 0346     		mov	r3, r0
 713 0122 0028     		cmp	r0, #0
 714 0124 40F0B180 		bne	.L93
 715 0128 3346     		mov	r3, r6
 716 012a 2246     		mov	r2, r4
 717 012c 2946     		mov	r1, r5
 718 012e 4046     		mov	r0, r8
 719 0130 FFF7FEFF 		bl	sp_submod_ct
 720 0134 0346     		mov	r3, r0
 721 0136 0028     		cmp	r0, #0
 722 0138 40F0A780 		bne	.L93
 723 013c 2B46     		mov	r3, r5
 724 013e 2246     		mov	r2, r4
 725 0140 4146     		mov	r1, r8
 726 0142 2846     		mov	r0, r5
 727 0144 FFF7FEFF 		bl	sp_addmod_ct
 728 0148 0346     		mov	r3, r0
 729 014a 0028     		cmp	r0, #0
 730 014c 40F09D80 		bne	.L93
 731 0150 3246     		mov	r2, r6
 732 0152 3146     		mov	r1, r6
 733 0154 2846     		mov	r0, r5
 734 0156 FFF7FEFF 		bl	sp_mul
 735 015a 0346     		mov	r3, r0
 736 015c 0028     		cmp	r0, #0
 737 015e 40F09480 		bne	.L93
 738 0162 4A46     		mov	r2, r9
 739 0164 2146     		mov	r1, r4
 740 0166 3046     		mov	r0, r6
 741 0168 FFF7FEFF 		bl	sp_mont_red_ex
 742 016c 0346     		mov	r3, r0
 743 016e 0028     		cmp	r0, #0
 744 0170 40F08B80 		bne	.L93
 745 0174 2B46     		mov	r3, r5
 746 0176 2246     		mov	r2, r4
 747 0178 3146     		mov	r1, r6
 748 017a 3046     		mov	r0, r6
 749 017c FFF7FEFF 		bl	sp_addmod_ct
 750 0180 0346     		mov	r3, r0
 751 0182 0028     		cmp	r0, #0
 752 0184 40F08180 		bne	.L93
 753 0188 2B46     		mov	r3, r5
 754 018a 2246     		mov	r2, r4
 755 018c 3146     		mov	r1, r6
 756 018e 2846     		mov	r0, r5
ARM GAS  /tmp/ccqDDmMm.s 			page 14


 757 0190 FFF7FEFF 		bl	sp_addmod_ct
 758 0194 0346     		mov	r3, r0
 759 0196 0028     		cmp	r0, #0
 760 0198 77D1     		bne	.L93
 761 019a 3B46     		mov	r3, r7
 762 019c 2246     		mov	r2, r4
 763 019e 3946     		mov	r1, r7
 764 01a0 3846     		mov	r0, r7
 765 01a2 FFF7FEFF 		bl	sp_addmod_ct
 766 01a6 0346     		mov	r3, r0
 767 01a8 0028     		cmp	r0, #0
 768 01aa 6ED1     		bne	.L93
 769 01ac 3946     		mov	r1, r7
 770 01ae 3846     		mov	r0, r7
 771 01b0 FFF7FEFF 		bl	sp_sqr
 772 01b4 0346     		mov	r3, r0
 773 01b6 0028     		cmp	r0, #0
 774 01b8 67D1     		bne	.L93
 775 01ba 4A46     		mov	r2, r9
 776 01bc 2146     		mov	r1, r4
 777 01be 3846     		mov	r0, r7
 778 01c0 FFF7FEFF 		bl	sp_mont_red_ex
 779 01c4 0346     		mov	r3, r0
 780 01c6 0028     		cmp	r0, #0
 781 01c8 5FD1     		bne	.L93
 782 01ca 3146     		mov	r1, r6
 783 01cc 3846     		mov	r0, r7
 784 01ce FFF7FEFF 		bl	sp_sqr
 785 01d2 0346     		mov	r3, r0
 786 01d4 0028     		cmp	r0, #0
 787 01d6 58D1     		bne	.L93
 788 01d8 4A46     		mov	r2, r9
 789 01da 2146     		mov	r1, r4
 790 01dc 3046     		mov	r0, r6
 791 01de FFF7FEFF 		bl	sp_mont_red_ex
 792 01e2 0346     		mov	r3, r0
 793 01e4 0028     		cmp	r0, #0
 794 01e6 50D1     		bne	.L93
 795 01e8 3246     		mov	r2, r6
 796 01ea 2146     		mov	r1, r4
 797 01ec 3046     		mov	r0, r6
 798 01ee FFF7FEFF 		bl	sp_div_2_mod_ct
 799 01f2 0346     		mov	r3, r0
 800 01f4 0028     		cmp	r0, #0
 801 01f6 48D1     		bne	.L93
 802 01f8 3A46     		mov	r2, r7
 803 01fa 4146     		mov	r1, r8
 804 01fc 3846     		mov	r0, r7
 805 01fe FFF7FEFF 		bl	sp_mul
 806 0202 0346     		mov	r3, r0
 807 0204 0028     		cmp	r0, #0
 808 0206 40D1     		bne	.L93
 809 0208 4A46     		mov	r2, r9
 810 020a 2146     		mov	r1, r4
 811 020c 3846     		mov	r0, r7
 812 020e FFF7FEFF 		bl	sp_mont_red_ex
 813 0212 0346     		mov	r3, r0
ARM GAS  /tmp/ccqDDmMm.s 			page 15


 814 0214 C8BB     		cbnz	r0, .L93
 815 0216 4146     		mov	r1, r8
 816 0218 2846     		mov	r0, r5
 817 021a FFF7FEFF 		bl	sp_sqr
 818 021e 0346     		mov	r3, r0
 819 0220 98BB     		cbnz	r0, .L93
 820 0222 4A46     		mov	r2, r9
 821 0224 2146     		mov	r1, r4
 822 0226 4046     		mov	r0, r8
 823 0228 FFF7FEFF 		bl	sp_mont_red_ex
 824 022c 0346     		mov	r3, r0
 825 022e 60BB     		cbnz	r0, .L93
 826 0230 4346     		mov	r3, r8
 827 0232 2246     		mov	r2, r4
 828 0234 3946     		mov	r1, r7
 829 0236 4046     		mov	r0, r8
 830 0238 FFF7FEFF 		bl	sp_submod_ct
 831 023c 0346     		mov	r3, r0
 832 023e 20BB     		cbnz	r0, .L93
 833 0240 4346     		mov	r3, r8
 834 0242 2246     		mov	r2, r4
 835 0244 3946     		mov	r1, r7
 836 0246 4046     		mov	r0, r8
 837 0248 FFF7FEFF 		bl	sp_submod_ct
 838 024c 0346     		mov	r3, r0
 839 024e E0B9     		cbnz	r0, .L93
 840 0250 3B46     		mov	r3, r7
 841 0252 2246     		mov	r2, r4
 842 0254 4146     		mov	r1, r8
 843 0256 3846     		mov	r0, r7
 844 0258 FFF7FEFF 		bl	sp_submod_ct
 845 025c 0346     		mov	r3, r0
 846 025e A0B9     		cbnz	r0, .L93
 847 0260 3A46     		mov	r2, r7
 848 0262 2946     		mov	r1, r5
 849 0264 3846     		mov	r0, r7
 850 0266 FFF7FEFF 		bl	sp_mul
 851 026a 0346     		mov	r3, r0
 852 026c 68B9     		cbnz	r0, .L93
 853 026e 4A46     		mov	r2, r9
 854 0270 2146     		mov	r1, r4
 855 0272 3846     		mov	r0, r7
 856 0274 FFF7FEFF 		bl	sp_mont_red_ex
 857 0278 0346     		mov	r3, r0
 858 027a 30B9     		cbnz	r0, .L93
 859 027c 3B46     		mov	r3, r7
 860 027e 2246     		mov	r2, r4
 861 0280 3146     		mov	r1, r6
 862 0282 3846     		mov	r0, r7
 863 0284 FFF7FEFF 		bl	sp_submod_ct
 864 0288 0346     		mov	r3, r0
 865              	.L93:
 866 028a 2846     		mov	r0, r5
 867 028c 0193     		str	r3, [sp, #4]
 868 028e FFF7FEFF 		bl	sp_clear
 869 0292 3046     		mov	r0, r6
 870 0294 FFF7FEFF 		bl	sp_clear
ARM GAS  /tmp/ccqDDmMm.s 			page 16


 871 0298 D8F8B021 		ldr	r2, [r8, #432]
 872 029c 019B     		ldr	r3, [sp, #4]
 873 029e 42B9     		cbnz	r2, .L83
 874 02a0 002E     		cmp	r6, #0
 875 02a2 7FF4D1AE 		bne	.L117
 876              	.L94:
 877 02a6 25B1     		cbz	r5, .L83
 878 02a8 2846     		mov	r0, r5
 879 02aa 0193     		str	r3, [sp, #4]
 880 02ac FFF7FEFF 		bl	wolfSSL_Free
 881 02b0 019B     		ldr	r3, [sp, #4]
 882              	.L83:
 883 02b2 1846     		mov	r0, r3
 884 02b4 03B0     		add	sp, sp, #12
 885              		@ sp needed
 886 02b6 BDE8F08F 		pop	{r4, r5, r6, r7, r8, r9, r10, fp, pc}
 887              	.L87:
 888 02ba 15B1     		cbz	r5, .L114
 889 02bc 2846     		mov	r0, r5
 890              	.L113:
 891 02be FFF7FEFF 		bl	wolfSSL_Free
 892              	.L114:
 893 02c2 6FF07C03 		mvn	r3, #124
 894 02c6 F4E7     		b	.L83
 896              		.section	.text.wc_ecc_curve_cache_load_item,"ax",%progbits
 897              		.align	1
 898              		.syntax unified
 899              		.thumb
 900              		.thumb_func
 901              		.fpu fpv4-sp-d16
 903              	wc_ecc_curve_cache_load_item:
 904              		@ args = 0, pretend = 0, frame = 0
 905              		@ frame_needed = 0, uses_anonymous_args = 0
 906 0000 F8B5     		push	{r3, r4, r5, r6, r7, lr}
 907 0002 1646     		mov	r6, r2
 908 0004 1D46     		mov	r5, r3
 909 0006 D0E90723 		ldrd	r2, r3, [r0, #28]
 910 000a 9342     		cmp	r3, r2
 911 000c 0446     		mov	r4, r0
 912 000e 0F46     		mov	r7, r1
 913 0010 16D2     		bcs	.L120
 914 0012 5A1C     		adds	r2, r3, #1
 915 0014 8069     		ldr	r0, [r0, #24]
 916 0016 2262     		str	r2, [r4, #32]
 917 0018 4822     		movs	r2, #72
 918 001a 02FB0300 		mla	r0, r2, r3, r0
 919 001e 1121     		movs	r1, #17
 920 0020 3060     		str	r0, [r6]
 921 0022 FFF7FEFF 		bl	sp_init_size
 922 0026 68B9     		cbnz	r0, .L118
 923 0028 94F82430 		ldrb	r3, [r4, #36]	@ zero_extendqisi2
 924 002c 3068     		ldr	r0, [r6]
 925 002e 1D43     		orrs	r5, r5, r3
 926 0030 3946     		mov	r1, r7
 927 0032 84F82450 		strb	r5, [r4, #36]
 928 0036 1022     		movs	r2, #16
 929 0038 BDE8F840 		pop	{r3, r4, r5, r6, r7, lr}
ARM GAS  /tmp/ccqDDmMm.s 			page 17


 930 003c FFF7FEBF 		b	sp_read_radix
 931              	.L120:
 932 0040 6FF0A900 		mvn	r0, #169
 933              	.L118:
 934 0044 F8BD     		pop	{r3, r4, r5, r6, r7, pc}
 936              		.section	.text._ecc_projective_add_point.isra.0,"ax",%progbits
 937              		.align	1
 938              		.syntax unified
 939              		.thumb
 940              		.thumb_func
 941              		.fpu fpv4-sp-d16
 943              	_ecc_projective_add_point.isra.0:
 944              		@ args = 4, pretend = 0, frame = 8
 945              		@ frame_needed = 0, uses_anonymous_args = 0
 946 0000 2DE9F04F 		push	{r4, r5, r6, r7, r8, r9, r10, fp, lr}
 947 0004 2DED028B 		vpush.64	{d8}
 948 0008 8146     		mov	r9, r0
 949 000a D2F8B061 		ldr	r6, [r2, #432]
 950 000e 83B0     		sub	sp, sp, #12
 951 0010 9142     		cmp	r1, r2
 952 0012 0091     		str	r1, [sp]
 953 0014 1746     		mov	r7, r2
 954 0016 08BF     		it	eq
 955 0018 CDF80090 		streq	r9, [sp]
 956 001c 1D46     		mov	r5, r3
 957 001e 08BF     		it	eq
 958 0020 9146     		moveq	r9, r2
 959 0022 DDF83880 		ldr	r8, [sp, #56]
 960 0026 FEB1     		cbz	r6, .L123
 961 0028 D6E99846 		ldrd	r4, r6, [r6, #608]
 962              	.L124:
 963 002c 2988     		ldrh	r1, [r5]
 964 002e 2046     		mov	r0, r4
 965 0030 4900     		lsls	r1, r1, #1
 966 0032 0131     		adds	r1, r1, #1
 967 0034 FFF7FEFF 		bl	sp_init_size
 968 0038 0346     		mov	r3, r0
 969 003a 38B9     		cbnz	r0, .L129
 970 003c 2988     		ldrh	r1, [r5]
 971 003e 3046     		mov	r0, r6
 972 0040 4900     		lsls	r1, r1, #1
 973 0042 0131     		adds	r1, r1, #1
 974 0044 FFF7FEFF 		bl	sp_init_size
 975 0048 0346     		mov	r3, r0
 976 004a 68B3     		cbz	r0, .L130
 977              	.L129:
 978 004c D7F8B021 		ldr	r2, [r7, #432]
 979 0050 002A     		cmp	r2, #0
 980 0052 40F0AB80 		bne	.L121
 981 0056 002E     		cmp	r6, #0
 982 0058 00F0A280 		beq	.L146
 983 005c 0093     		str	r3, [sp]
 984              	.L188:
 985 005e 3046     		mov	r0, r6
 986 0060 FFF7FEFF 		bl	wolfSSL_Free
 987 0064 009B     		ldr	r3, [sp]
 988 0066 9BE0     		b	.L146
ARM GAS  /tmp/ccqDDmMm.s 			page 18


 989              	.L123:
 990 0068 1888     		ldrh	r0, [r3]
 991 006a 0130     		adds	r0, r0, #1
 992 006c C000     		lsls	r0, r0, #3
 993 006e FFF7FEFF 		bl	wolfSSL_Malloc
 994 0072 0446     		mov	r4, r0
 995 0074 28B1     		cbz	r0, .L125
 996 0076 2A88     		ldrh	r2, [r5]
 997 0078 3146     		mov	r1, r6
 998 007a 0132     		adds	r2, r2, #1
 999 007c D200     		lsls	r2, r2, #3
 1000 007e FFF7FEFF 		bl	memset
 1001              	.L125:
 1002 0082 2888     		ldrh	r0, [r5]
 1003 0084 0130     		adds	r0, r0, #1
 1004 0086 C000     		lsls	r0, r0, #3
 1005 0088 FFF7FEFF 		bl	wolfSSL_Malloc
 1006 008c 0646     		mov	r6, r0
 1007 008e 0028     		cmp	r0, #0
 1008 0090 00F01382 		beq	.L126
 1009 0094 2A88     		ldrh	r2, [r5]
 1010 0096 0021     		movs	r1, #0
 1011 0098 0132     		adds	r2, r2, #1
 1012 009a D200     		lsls	r2, r2, #3
 1013 009c FFF7FEFF 		bl	memset
 1014 00a0 002C     		cmp	r4, #0
 1015 00a2 C3D1     		bne	.L124
 1016 00a4 3046     		mov	r0, r6
 1017 00a6 0AE2     		b	.L184
 1018              	.L130:
 1019 00a8 009B     		ldr	r3, [sp]
 1020 00aa 2A46     		mov	r2, r5
 1021 00ac 9033     		adds	r3, r3, #144
 1022 00ae 08EE103A 		vmov	s16, r3	@ int
 1023 00b2 2846     		mov	r0, r5
 1024 00b4 2346     		mov	r3, r4
 1025 00b6 18EE101A 		vmov	r1, s16	@ int
 1026 00ba FFF7FEFF 		bl	sp_submod_ct
 1027 00be 0346     		mov	r3, r0
 1028 00c0 0028     		cmp	r0, #0
 1029 00c2 5FD1     		bne	.L132
 1030 00c4 4846     		mov	r0, r9
 1031 00c6 0099     		ldr	r1, [sp]
 1032 00c8 FFF7FEFF 		bl	sp_cmp
 1033 00cc B8BB     		cbnz	r0, .L133
 1034 00ce 009B     		ldr	r3, [sp]
 1035 00d0 03F59071 		add	r1, r3, #288
 1036 00d4 0846     		mov	r0, r1
 1037 00d6 0191     		str	r1, [sp, #4]
 1038 00d8 FFF7FEFF 		bl	mp_get_digit_count
 1039 00dc 0199     		ldr	r1, [sp, #4]
 1040 00de 70B3     		cbz	r0, .L133
 1041 00e0 09F59070 		add	r0, r9, #288
 1042 00e4 FFF7FEFF 		bl	sp_cmp
 1043 00e8 48BB     		cbnz	r0, .L133
 1044 00ea 09F1900A 		add	r10, r9, #144
 1045 00ee 18EE101A 		vmov	r1, s16	@ int
ARM GAS  /tmp/ccqDDmMm.s 			page 19


 1046 00f2 5046     		mov	r0, r10
 1047 00f4 FFF7FEFF 		bl	sp_cmp
 1048 00f8 D8B9     		cbnz	r0, .L134
 1049              	.L137:
 1050 00fa 2046     		mov	r0, r4
 1051 00fc FFF7FEFF 		bl	sp_clear
 1052 0100 3046     		mov	r0, r6
 1053 0102 FFF7FEFF 		bl	sp_clear
 1054 0106 D7F8B031 		ldr	r3, [r7, #432]
 1055 010a 3BB9     		cbnz	r3, .L138
 1056 010c 16B1     		cbz	r6, .L139
 1057 010e 3046     		mov	r0, r6
 1058 0110 FFF7FEFF 		bl	wolfSSL_Free
 1059              	.L139:
 1060 0114 14B1     		cbz	r4, .L138
 1061 0116 2046     		mov	r0, r4
 1062 0118 FFF7FEFF 		bl	wolfSSL_Free
 1063              	.L138:
 1064 011c 4346     		mov	r3, r8
 1065 011e 2A46     		mov	r2, r5
 1066 0120 3946     		mov	r1, r7
 1067 0122 4846     		mov	r0, r9
 1068 0124 03B0     		add	sp, sp, #12
 1069              		@ sp needed
 1070 0126 BDEC028B 		vldm	sp!, {d8}
 1071 012a BDE8F04F 		pop	{r4, r5, r6, r7, r8, r9, r10, fp, lr}
 1072 012e FFF7FEBF 		b	_ecc_projective_dbl_point.constprop.0
 1073              	.L134:
 1074 0132 2146     		mov	r1, r4
 1075 0134 5046     		mov	r0, r10
 1076 0136 FFF7FEFF 		bl	sp_cmp
 1077 013a 0028     		cmp	r0, #0
 1078 013c DDD0     		beq	.L137
 1079              	.L133:
 1080 013e 3946     		mov	r1, r7
 1081 0140 4846     		mov	r0, r9
 1082 0142 FFF7FEFF 		bl	sp_copy
 1083 0146 0346     		mov	r3, r0
 1084 0148 E0B9     		cbnz	r0, .L132
 1085 014a 07F1900A 		add	r10, r7, #144
 1086 014e 5146     		mov	r1, r10
 1087 0150 09F19000 		add	r0, r9, #144
 1088 0154 FFF7FEFF 		bl	sp_copy
 1089 0158 0346     		mov	r3, r0
 1090 015a 98B9     		cbnz	r0, .L132
 1091 015c 07F5907B 		add	fp, r7, #288
 1092 0160 5946     		mov	r1, fp
 1093 0162 09F59070 		add	r0, r9, #288
 1094 0166 FFF7FEFF 		bl	sp_copy
 1095 016a 0346     		mov	r3, r0
 1096 016c 50B9     		cbnz	r0, .L132
 1097 016e 009B     		ldr	r3, [sp]
 1098 0170 B3F82031 		ldrh	r3, [r3, #288]
 1099 0174 03BB     		cbnz	r3, .L140
 1100              	.L142:
 1101 0176 2146     		mov	r1, r4
 1102 0178 5846     		mov	r0, fp
ARM GAS  /tmp/ccqDDmMm.s 			page 20


 1103 017a FFF7FEFF 		bl	sp_sqr
 1104 017e 0346     		mov	r3, r0
 1105 0180 0028     		cmp	r0, #0
 1106 0182 5CD0     		beq	.L141
 1107              	.L132:
 1108 0184 2046     		mov	r0, r4
 1109 0186 0093     		str	r3, [sp]
 1110 0188 FFF7FEFF 		bl	sp_clear
 1111 018c 3046     		mov	r0, r6
 1112 018e FFF7FEFF 		bl	sp_clear
 1113 0192 D7F8B021 		ldr	r2, [r7, #432]
 1114 0196 009B     		ldr	r3, [sp]
 1115 0198 42B9     		cbnz	r2, .L121
 1116 019a 002E     		cmp	r6, #0
 1117 019c 7FF45FAF 		bne	.L188
 1118              	.L146:
 1119 01a0 24B1     		cbz	r4, .L121
 1120 01a2 2046     		mov	r0, r4
 1121 01a4 0093     		str	r3, [sp]
 1122 01a6 FFF7FEFF 		bl	wolfSSL_Free
 1123 01aa 009B     		ldr	r3, [sp]
 1124              	.L121:
 1125 01ac 1846     		mov	r0, r3
 1126 01ae 03B0     		add	sp, sp, #12
 1127              		@ sp needed
 1128 01b0 BDEC028B 		vldm	sp!, {d8}
 1129 01b4 BDE8F08F 		pop	{r4, r5, r6, r7, r8, r9, r10, fp, pc}
 1130              	.L140:
 1131 01b8 009B     		ldr	r3, [sp]
 1132 01ba 2146     		mov	r1, r4
 1133 01bc 03F59079 		add	r9, r3, #288
 1134 01c0 4846     		mov	r0, r9
 1135 01c2 FFF7FEFF 		bl	sp_sqr
 1136 01c6 0346     		mov	r3, r0
 1137 01c8 0028     		cmp	r0, #0
 1138 01ca DBD1     		bne	.L132
 1139 01cc 4246     		mov	r2, r8
 1140 01ce 2946     		mov	r1, r5
 1141 01d0 2046     		mov	r0, r4
 1142 01d2 FFF7FEFF 		bl	sp_mont_red_ex
 1143 01d6 0346     		mov	r3, r0
 1144 01d8 0028     		cmp	r0, #0
 1145 01da D3D1     		bne	.L132
 1146 01dc 3A46     		mov	r2, r7
 1147 01de 3946     		mov	r1, r7
 1148 01e0 2046     		mov	r0, r4
 1149 01e2 FFF7FEFF 		bl	sp_mul
 1150 01e6 0346     		mov	r3, r0
 1151 01e8 0028     		cmp	r0, #0
 1152 01ea CBD1     		bne	.L132
 1153 01ec 4246     		mov	r2, r8
 1154 01ee 2946     		mov	r1, r5
 1155 01f0 3846     		mov	r0, r7
 1156 01f2 FFF7FEFF 		bl	sp_mont_red_ex
 1157 01f6 0346     		mov	r3, r0
 1158 01f8 0028     		cmp	r0, #0
 1159 01fa C3D1     		bne	.L132
ARM GAS  /tmp/ccqDDmMm.s 			page 21


 1160 01fc 2246     		mov	r2, r4
 1161 01fe 2146     		mov	r1, r4
 1162 0200 4846     		mov	r0, r9
 1163 0202 FFF7FEFF 		bl	sp_mul
 1164 0206 0346     		mov	r3, r0
 1165 0208 0028     		cmp	r0, #0
 1166 020a BBD1     		bne	.L132
 1167 020c 4246     		mov	r2, r8
 1168 020e 2946     		mov	r1, r5
 1169 0210 2046     		mov	r0, r4
 1170 0212 FFF7FEFF 		bl	sp_mont_red_ex
 1171 0216 0346     		mov	r3, r0
 1172 0218 0028     		cmp	r0, #0
 1173 021a B3D1     		bne	.L132
 1174 021c 5246     		mov	r2, r10
 1175 021e 5146     		mov	r1, r10
 1176 0220 2046     		mov	r0, r4
 1177 0222 FFF7FEFF 		bl	sp_mul
 1178 0226 0346     		mov	r3, r0
 1179 0228 0028     		cmp	r0, #0
 1180 022a ABD1     		bne	.L132
 1181 022c 4246     		mov	r2, r8
 1182 022e 2946     		mov	r1, r5
 1183 0230 5046     		mov	r0, r10
 1184 0232 FFF7FEFF 		bl	sp_mont_red_ex
 1185 0236 0346     		mov	r3, r0
 1186 0238 0028     		cmp	r0, #0
 1187 023a 9CD0     		beq	.L142
 1188 023c A2E7     		b	.L132
 1189              	.L141:
 1190 023e 4246     		mov	r2, r8
 1191 0240 2946     		mov	r1, r5
 1192 0242 2046     		mov	r0, r4
 1193 0244 FFF7FEFF 		bl	sp_mont_red_ex
 1194 0248 0346     		mov	r3, r0
 1195 024a 0028     		cmp	r0, #0
 1196 024c 9AD1     		bne	.L132
 1197 024e 3246     		mov	r2, r6
 1198 0250 2146     		mov	r1, r4
 1199 0252 0098     		ldr	r0, [sp]
 1200 0254 FFF7FEFF 		bl	sp_mul
 1201 0258 0346     		mov	r3, r0
 1202 025a 0028     		cmp	r0, #0
 1203 025c 92D1     		bne	.L132
 1204 025e 4246     		mov	r2, r8
 1205 0260 2946     		mov	r1, r5
 1206 0262 3046     		mov	r0, r6
 1207 0264 FFF7FEFF 		bl	sp_mont_red_ex
 1208 0268 0346     		mov	r3, r0
 1209 026a 0028     		cmp	r0, #0
 1210 026c 8AD1     		bne	.L132
 1211 026e 2246     		mov	r2, r4
 1212 0270 2146     		mov	r1, r4
 1213 0272 5846     		mov	r0, fp
 1214 0274 FFF7FEFF 		bl	sp_mul
 1215 0278 0346     		mov	r3, r0
 1216 027a 0028     		cmp	r0, #0
ARM GAS  /tmp/ccqDDmMm.s 			page 22


 1217 027c 82D1     		bne	.L132
 1218 027e 4246     		mov	r2, r8
 1219 0280 2946     		mov	r1, r5
 1220 0282 2046     		mov	r0, r4
 1221 0284 FFF7FEFF 		bl	sp_mont_red_ex
 1222 0288 0346     		mov	r3, r0
 1223 028a 0028     		cmp	r0, #0
 1224 028c 7FF47AAF 		bne	.L132
 1225 0290 2246     		mov	r2, r4
 1226 0292 2146     		mov	r1, r4
 1227 0294 18EE100A 		vmov	r0, s16	@ int
 1228 0298 FFF7FEFF 		bl	sp_mul
 1229 029c 0346     		mov	r3, r0
 1230 029e 0028     		cmp	r0, #0
 1231 02a0 7FF470AF 		bne	.L132
 1232 02a4 4246     		mov	r2, r8
 1233 02a6 2946     		mov	r1, r5
 1234 02a8 2046     		mov	r0, r4
 1235 02aa FFF7FEFF 		bl	sp_mont_red_ex
 1236 02ae 0346     		mov	r3, r0
 1237 02b0 0028     		cmp	r0, #0
 1238 02b2 7FF467AF 		bne	.L132
 1239 02b6 5346     		mov	r3, r10
 1240 02b8 2A46     		mov	r2, r5
 1241 02ba 2146     		mov	r1, r4
 1242 02bc 5046     		mov	r0, r10
 1243 02be FFF7FEFF 		bl	sp_submod_ct
 1244 02c2 0346     		mov	r3, r0
 1245 02c4 0028     		cmp	r0, #0
 1246 02c6 7FF45DAF 		bne	.L132
 1247 02ca 2346     		mov	r3, r4
 1248 02cc 2A46     		mov	r2, r5
 1249 02ce 2146     		mov	r1, r4
 1250 02d0 2046     		mov	r0, r4
 1251 02d2 FFF7FEFF 		bl	sp_addmod_ct
 1252 02d6 0346     		mov	r3, r0
 1253 02d8 0028     		cmp	r0, #0
 1254 02da 7FF453AF 		bne	.L132
 1255 02de 2346     		mov	r3, r4
 1256 02e0 2A46     		mov	r2, r5
 1257 02e2 5146     		mov	r1, r10
 1258 02e4 2046     		mov	r0, r4
 1259 02e6 FFF7FEFF 		bl	sp_addmod_ct
 1260 02ea 0346     		mov	r3, r0
 1261 02ec 0028     		cmp	r0, #0
 1262 02ee 7FF449AF 		bne	.L132
 1263 02f2 3B46     		mov	r3, r7
 1264 02f4 2A46     		mov	r2, r5
 1265 02f6 3146     		mov	r1, r6
 1266 02f8 3846     		mov	r0, r7
 1267 02fa FFF7FEFF 		bl	sp_submod_ct
 1268 02fe 0346     		mov	r3, r0
 1269 0300 0028     		cmp	r0, #0
 1270 0302 7FF43FAF 		bne	.L132
 1271 0306 3346     		mov	r3, r6
 1272 0308 2A46     		mov	r2, r5
 1273 030a 3146     		mov	r1, r6
ARM GAS  /tmp/ccqDDmMm.s 			page 23


 1274 030c 3046     		mov	r0, r6
 1275 030e FFF7FEFF 		bl	sp_addmod_ct
 1276 0312 0346     		mov	r3, r0
 1277 0314 0028     		cmp	r0, #0
 1278 0316 7FF435AF 		bne	.L132
 1279 031a 3346     		mov	r3, r6
 1280 031c 2A46     		mov	r2, r5
 1281 031e 3946     		mov	r1, r7
 1282 0320 3046     		mov	r0, r6
 1283 0322 FFF7FEFF 		bl	sp_addmod_ct
 1284 0326 0346     		mov	r3, r0
 1285 0328 0028     		cmp	r0, #0
 1286 032a 7FF42BAF 		bne	.L132
 1287 032e 009B     		ldr	r3, [sp]
 1288 0330 B3F82031 		ldrh	r3, [r3, #288]
 1289 0334 002B     		cmp	r3, #0
 1290 0336 40F0AB80 		bne	.L143
 1291              	.L145:
 1292 033a 5A46     		mov	r2, fp
 1293 033c 3946     		mov	r1, r7
 1294 033e 5846     		mov	r0, fp
 1295 0340 FFF7FEFF 		bl	sp_mul
 1296 0344 0346     		mov	r3, r0
 1297 0346 0028     		cmp	r0, #0
 1298 0348 7FF41CAF 		bne	.L132
 1299 034c 4246     		mov	r2, r8
 1300 034e 2946     		mov	r1, r5
 1301 0350 5846     		mov	r0, fp
 1302 0352 FFF7FEFF 		bl	sp_mont_red_ex
 1303 0356 0346     		mov	r3, r0
 1304 0358 0028     		cmp	r0, #0
 1305 035a 7FF413AF 		bne	.L132
 1306 035e 2246     		mov	r2, r4
 1307 0360 3946     		mov	r1, r7
 1308 0362 2046     		mov	r0, r4
 1309 0364 FFF7FEFF 		bl	sp_mul
 1310 0368 0346     		mov	r3, r0
 1311 036a 0028     		cmp	r0, #0
 1312 036c 7FF40AAF 		bne	.L132
 1313 0370 4246     		mov	r2, r8
 1314 0372 2946     		mov	r1, r5
 1315 0374 2046     		mov	r0, r4
 1316 0376 FFF7FEFF 		bl	sp_mont_red_ex
 1317 037a 0346     		mov	r3, r0
 1318 037c 0028     		cmp	r0, #0
 1319 037e 7FF401AF 		bne	.L132
 1320 0382 3946     		mov	r1, r7
 1321 0384 3846     		mov	r0, r7
 1322 0386 FFF7FEFF 		bl	sp_sqr
 1323 038a 0346     		mov	r3, r0
 1324 038c 0028     		cmp	r0, #0
 1325 038e 7FF4F9AE 		bne	.L132
 1326 0392 4246     		mov	r2, r8
 1327 0394 2946     		mov	r1, r5
 1328 0396 3846     		mov	r0, r7
 1329 0398 FFF7FEFF 		bl	sp_mont_red_ex
 1330 039c 0346     		mov	r3, r0
ARM GAS  /tmp/ccqDDmMm.s 			page 24


 1331 039e 0028     		cmp	r0, #0
 1332 03a0 7FF4F0AE 		bne	.L132
 1333 03a4 3246     		mov	r2, r6
 1334 03a6 3946     		mov	r1, r7
 1335 03a8 3046     		mov	r0, r6
 1336 03aa FFF7FEFF 		bl	sp_mul
 1337 03ae 0346     		mov	r3, r0
 1338 03b0 0028     		cmp	r0, #0
 1339 03b2 7FF4E7AE 		bne	.L132
 1340 03b6 4246     		mov	r2, r8
 1341 03b8 2946     		mov	r1, r5
 1342 03ba 3046     		mov	r0, r6
 1343 03bc FFF7FEFF 		bl	sp_mont_red_ex
 1344 03c0 0346     		mov	r3, r0
 1345 03c2 0028     		cmp	r0, #0
 1346 03c4 7FF4DEAE 		bne	.L132
 1347 03c8 2246     		mov	r2, r4
 1348 03ca 3946     		mov	r1, r7
 1349 03cc 2046     		mov	r0, r4
 1350 03ce FFF7FEFF 		bl	sp_mul
 1351 03d2 0346     		mov	r3, r0
 1352 03d4 0028     		cmp	r0, #0
 1353 03d6 7FF4D5AE 		bne	.L132
 1354 03da 4246     		mov	r2, r8
 1355 03dc 2946     		mov	r1, r5
 1356 03de 2046     		mov	r0, r4
 1357 03e0 FFF7FEFF 		bl	sp_mont_red_ex
 1358 03e4 0346     		mov	r3, r0
 1359 03e6 0028     		cmp	r0, #0
 1360 03e8 7FF4CCAE 		bne	.L132
 1361 03ec 3946     		mov	r1, r7
 1362 03ee 5046     		mov	r0, r10
 1363 03f0 FFF7FEFF 		bl	sp_sqr
 1364 03f4 0346     		mov	r3, r0
 1365 03f6 0028     		cmp	r0, #0
 1366 03f8 7FF4C4AE 		bne	.L132
 1367 03fc 4246     		mov	r2, r8
 1368 03fe 2946     		mov	r1, r5
 1369 0400 3846     		mov	r0, r7
 1370 0402 FFF7FEFF 		bl	sp_mont_red_ex
 1371 0406 0346     		mov	r3, r0
 1372 0408 0028     		cmp	r0, #0
 1373 040a 7FF4BBAE 		bne	.L132
 1374 040e 3B46     		mov	r3, r7
 1375 0410 2A46     		mov	r2, r5
 1376 0412 3146     		mov	r1, r6
 1377 0414 3846     		mov	r0, r7
 1378 0416 FFF7FEFF 		bl	sp_submod_ct
 1379 041a 0346     		mov	r3, r0
 1380 041c 0028     		cmp	r0, #0
 1381 041e 7FF4B1AE 		bne	.L132
 1382 0422 3346     		mov	r3, r6
 1383 0424 2A46     		mov	r2, r5
 1384 0426 3946     		mov	r1, r7
 1385 0428 3046     		mov	r0, r6
 1386 042a FFF7FEFF 		bl	sp_submod_ct
 1387 042e 0346     		mov	r3, r0
ARM GAS  /tmp/ccqDDmMm.s 			page 25


 1388 0430 0028     		cmp	r0, #0
 1389 0432 7FF4A7AE 		bne	.L132
 1390 0436 3346     		mov	r3, r6
 1391 0438 2A46     		mov	r2, r5
 1392 043a 3946     		mov	r1, r7
 1393 043c 3046     		mov	r0, r6
 1394 043e FFF7FEFF 		bl	sp_submod_ct
 1395 0442 0346     		mov	r3, r0
 1396 0444 0028     		cmp	r0, #0
 1397 0446 7FF49DAE 		bne	.L132
 1398 044a 3246     		mov	r2, r6
 1399 044c 5146     		mov	r1, r10
 1400 044e 3046     		mov	r0, r6
 1401 0450 FFF7FEFF 		bl	sp_mul
 1402 0454 0346     		mov	r3, r0
 1403 0456 0028     		cmp	r0, #0
 1404 0458 7FF494AE 		bne	.L132
 1405 045c 4246     		mov	r2, r8
 1406 045e 2946     		mov	r1, r5
 1407 0460 3046     		mov	r0, r6
 1408 0462 FFF7FEFF 		bl	sp_mont_red_ex
 1409 0466 0346     		mov	r3, r0
 1410 0468 0028     		cmp	r0, #0
 1411 046a 7FF48BAE 		bne	.L132
 1412 046e 5346     		mov	r3, r10
 1413 0470 2A46     		mov	r2, r5
 1414 0472 2146     		mov	r1, r4
 1415 0474 3046     		mov	r0, r6
 1416 0476 FFF7FEFF 		bl	sp_submod_ct
 1417 047a 0346     		mov	r3, r0
 1418 047c 0028     		cmp	r0, #0
 1419 047e 7FF481AE 		bne	.L132
 1420 0482 5246     		mov	r2, r10
 1421 0484 2946     		mov	r1, r5
 1422 0486 5046     		mov	r0, r10
 1423 0488 FFF7FEFF 		bl	sp_div_2_mod_ct
 1424 048c 0346     		mov	r3, r0
 1425 048e 79E6     		b	.L132
 1426              	.L143:
 1427 0490 009B     		ldr	r3, [sp]
 1428 0492 5A46     		mov	r2, fp
 1429 0494 03F59071 		add	r1, r3, #288
 1430 0498 5846     		mov	r0, fp
 1431 049a FFF7FEFF 		bl	sp_mul
 1432 049e 0346     		mov	r3, r0
 1433 04a0 0028     		cmp	r0, #0
 1434 04a2 7FF46FAE 		bne	.L132
 1435 04a6 4246     		mov	r2, r8
 1436 04a8 2946     		mov	r1, r5
 1437 04aa 5846     		mov	r0, fp
 1438 04ac FFF7FEFF 		bl	sp_mont_red_ex
 1439 04b0 0346     		mov	r3, r0
 1440 04b2 0028     		cmp	r0, #0
 1441 04b4 3FF441AF 		beq	.L145
 1442 04b8 64E6     		b	.L132
 1443              	.L126:
 1444 04ba 14B1     		cbz	r4, .L185
ARM GAS  /tmp/ccqDDmMm.s 			page 26


 1445 04bc 2046     		mov	r0, r4
 1446              	.L184:
 1447 04be FFF7FEFF 		bl	wolfSSL_Free
 1448              	.L185:
 1449 04c2 6FF07C03 		mvn	r3, #124
 1450 04c6 71E6     		b	.L121
 1452              		.section	.text.wc_ecc_curve_free,"ax",%progbits
 1453              		.align	1
 1454              		.syntax unified
 1455              		.thumb
 1456              		.thumb_func
 1457              		.fpu fpv4-sp-d16
 1459              	wc_ecc_curve_free:
 1460              		@ args = 0, pretend = 0, frame = 0
 1461              		@ frame_needed = 0, uses_anonymous_args = 0
 1462 0000 10B5     		push	{r4, lr}
 1463 0002 0446     		mov	r4, r0
 1464 0004 0028     		cmp	r0, #0
 1465 0006 42D0     		beq	.L189
 1466 0008 90F82430 		ldrb	r3, [r0, #36]	@ zero_extendqisi2
 1467 000c DB07     		lsls	r3, r3, #31
 1468 000e 09D5     		bpl	.L191
 1469 0010 4068     		ldr	r0, [r0, #4]
 1470 0012 08B1     		cbz	r0, .L192
 1471 0014 FFF7FEFF 		bl	sp_clear
 1472              	.L192:
 1473 0018 94F82430 		ldrb	r3, [r4, #36]	@ zero_extendqisi2
 1474 001c 23F00103 		bic	r3, r3, #1
 1475 0020 84F82430 		strb	r3, [r4, #36]
 1476              	.L191:
 1477 0024 94F82430 		ldrb	r3, [r4, #36]	@ zero_extendqisi2
 1478 0028 9807     		lsls	r0, r3, #30
 1479 002a 09D5     		bpl	.L193
 1480 002c A068     		ldr	r0, [r4, #8]
 1481 002e 08B1     		cbz	r0, .L194
 1482 0030 FFF7FEFF 		bl	sp_clear
 1483              	.L194:
 1484 0034 94F82430 		ldrb	r3, [r4, #36]	@ zero_extendqisi2
 1485 0038 23F00203 		bic	r3, r3, #2
 1486 003c 84F82430 		strb	r3, [r4, #36]
 1487              	.L193:
 1488 0040 94F82430 		ldrb	r3, [r4, #36]	@ zero_extendqisi2
 1489 0044 1907     		lsls	r1, r3, #28
 1490 0046 09D5     		bpl	.L195
 1491 0048 E068     		ldr	r0, [r4, #12]
 1492 004a 08B1     		cbz	r0, .L196
 1493 004c FFF7FEFF 		bl	sp_clear
 1494              	.L196:
 1495 0050 94F82430 		ldrb	r3, [r4, #36]	@ zero_extendqisi2
 1496 0054 23F00803 		bic	r3, r3, #8
 1497 0058 84F82430 		strb	r3, [r4, #36]
 1498              	.L195:
 1499 005c 94F82430 		ldrb	r3, [r4, #36]	@ zero_extendqisi2
 1500 0060 DA06     		lsls	r2, r3, #27
 1501 0062 09D5     		bpl	.L197
 1502 0064 2069     		ldr	r0, [r4, #16]
 1503 0066 08B1     		cbz	r0, .L198
ARM GAS  /tmp/ccqDDmMm.s 			page 27


 1504 0068 FFF7FEFF 		bl	sp_clear
 1505              	.L198:
 1506 006c 94F82430 		ldrb	r3, [r4, #36]	@ zero_extendqisi2
 1507 0070 23F01003 		bic	r3, r3, #16
 1508 0074 84F82430 		strb	r3, [r4, #36]
 1509              	.L197:
 1510 0078 94F82430 		ldrb	r3, [r4, #36]	@ zero_extendqisi2
 1511 007c 9B06     		lsls	r3, r3, #26
 1512 007e 03D5     		bpl	.L199
 1513 0080 6069     		ldr	r0, [r4, #20]
 1514 0082 08B1     		cbz	r0, .L199
 1515 0084 FFF7FEFF 		bl	sp_clear
 1516              	.L199:
 1517 0088 0023     		movs	r3, #0
 1518 008a 84F82430 		strb	r3, [r4, #36]
 1519              	.L189:
 1520 008e 10BD     		pop	{r4, pc}
 1522              		.section	.text.wc_ecc_curve_load,"ax",%progbits
 1523              		.align	1
 1524              		.syntax unified
 1525              		.thumb
 1526              		.thumb_func
 1527              		.fpu fpv4-sp-d16
 1529              	wc_ecc_curve_load:
 1530              		@ args = 0, pretend = 0, frame = 0
 1531              		@ frame_needed = 0, uses_anonymous_args = 0
 1532 0000 F8B5     		push	{r3, r4, r5, r6, r7, lr}
 1533 0002 0646     		mov	r6, r0
 1534 0004 0028     		cmp	r0, #0
 1535 0006 48D0     		beq	.L241
 1536 0008 0D68     		ldr	r5, [r1]
 1537 000a 2B68     		ldr	r3, [r5]
 1538 000c 2860     		str	r0, [r5]
 1539 000e 8342     		cmp	r3, r0
 1540 0010 1CBF     		itt	ne
 1541 0012 0023     		movne	r3, #0
 1542 0014 85F82430 		strbne	r3, [r5, #36]
 1543 0018 95F82430 		ldrb	r3, [r5, #36]	@ zero_extendqisi2
 1544 001c 22EA0307 		bic	r7, r2, r3
 1545 0020 17F00104 		ands	r4, r7, #1
 1546 0024 43EA0203 		orr	r3, r3, r2
 1547 0028 85F82430 		strb	r3, [r5, #36]
 1548 002c 06D0     		beq	.L236
 1549 002e C168     		ldr	r1, [r0, #12]
 1550 0030 0123     		movs	r3, #1
 1551 0032 2846     		mov	r0, r5
 1552 0034 2A1D     		adds	r2, r5, #4
 1553 0036 FFF7FEFF 		bl	wc_ecc_curve_cache_load_item
 1554 003a 0446     		mov	r4, r0
 1555              	.L236:
 1556 003c B807     		lsls	r0, r7, #30
 1557 003e 07D5     		bpl	.L237
 1558 0040 0223     		movs	r3, #2
 1559 0042 2846     		mov	r0, r5
 1560 0044 3169     		ldr	r1, [r6, #16]
 1561 0046 05F10802 		add	r2, r5, #8
 1562 004a FFF7FEFF 		bl	wc_ecc_curve_cache_load_item
ARM GAS  /tmp/ccqDDmMm.s 			page 28


 1563 004e 0444     		add	r4, r4, r0
 1564              	.L237:
 1565 0050 3907     		lsls	r1, r7, #28
 1566 0052 07D5     		bpl	.L238
 1567 0054 0823     		movs	r3, #8
 1568 0056 2846     		mov	r0, r5
 1569 0058 B169     		ldr	r1, [r6, #24]
 1570 005a 05F10C02 		add	r2, r5, #12
 1571 005e FFF7FEFF 		bl	wc_ecc_curve_cache_load_item
 1572 0062 0444     		add	r4, r4, r0
 1573              	.L238:
 1574 0064 FA06     		lsls	r2, r7, #27
 1575 0066 06D5     		bpl	.L239
 1576 0068 1023     		movs	r3, #16
 1577 006a 2846     		mov	r0, r5
 1578 006c F169     		ldr	r1, [r6, #28]
 1579 006e EA18     		adds	r2, r5, r3
 1580 0070 FFF7FEFF 		bl	wc_ecc_curve_cache_load_item
 1581 0074 0444     		add	r4, r4, r0
 1582              	.L239:
 1583 0076 BB06     		lsls	r3, r7, #26
 1584 0078 07D5     		bpl	.L240
 1585 007a 2023     		movs	r3, #32
 1586 007c 2846     		mov	r0, r5
 1587 007e 316A     		ldr	r1, [r6, #32]
 1588 0080 05F11402 		add	r2, r5, #20
 1589 0084 FFF7FEFF 		bl	wc_ecc_curve_cache_load_item
 1590 0088 0444     		add	r4, r4, r0
 1591              	.L240:
 1592 008a 24B1     		cbz	r4, .L233
 1593 008c 2846     		mov	r0, r5
 1594 008e FFF7FEFF 		bl	wc_ecc_curve_free
 1595 0092 6FF06E04 		mvn	r4, #110
 1596              	.L233:
 1597 0096 2046     		mov	r0, r4
 1598 0098 F8BD     		pop	{r3, r4, r5, r6, r7, pc}
 1599              	.L241:
 1600 009a 6FF0AC04 		mvn	r4, #172
 1601 009e FAE7     		b	.L233
 1603              		.section	.text.wc_ecc_get_sets,"ax",%progbits
 1604              		.align	1
 1605              		.global	wc_ecc_get_sets
 1606              		.syntax unified
 1607              		.thumb
 1608              		.thumb_func
 1609              		.fpu fpv4-sp-d16
 1611              	wc_ecc_get_sets:
 1612              		@ args = 0, pretend = 0, frame = 0
 1613              		@ frame_needed = 0, uses_anonymous_args = 0
 1614              		@ link register save eliminated.
 1615 0000 0048     		ldr	r0, .L259
 1616 0002 7047     		bx	lr
 1617              	.L260:
 1618              		.align	2
 1619              	.L259:
 1620 0004 00000000 		.word	.LANCHOR0
 1622              		.section	.text.wc_ecc_get_sets_count,"ax",%progbits
ARM GAS  /tmp/ccqDDmMm.s 			page 29


 1623              		.align	1
 1624              		.global	wc_ecc_get_sets_count
 1625              		.syntax unified
 1626              		.thumb
 1627              		.thumb_func
 1628              		.fpu fpv4-sp-d16
 1630              	wc_ecc_get_sets_count:
 1631              		@ args = 0, pretend = 0, frame = 0
 1632              		@ frame_needed = 0, uses_anonymous_args = 0
 1633              		@ link register save eliminated.
 1634 0000 0120     		movs	r0, #1
 1635 0002 7047     		bx	lr
 1637              		.section	.text.wc_ecc_set_curve,"ax",%progbits
 1638              		.align	1
 1639              		.global	wc_ecc_set_curve
 1640              		.syntax unified
 1641              		.thumb
 1642              		.thumb_func
 1643              		.fpu fpv4-sp-d16
 1645              	wc_ecc_set_curve:
 1646              		@ args = 0, pretend = 0, frame = 0
 1647              		@ frame_needed = 0, uses_anonymous_args = 0
 1648              		@ link register save eliminated.
 1649 0000 18B1     		cbz	r0, .L269
 1650 0002 0029     		cmp	r1, #0
 1651 0004 04DC     		bgt	.L264
 1652 0006 002A     		cmp	r2, #0
 1653 0008 04DA     		bge	.L265
 1654              	.L269:
 1655 000a 6FF0AC00 		mvn	r0, #172
 1656 000e 7047     		bx	lr
 1657              	.L264:
 1658 0010 4229     		cmp	r1, #66
 1659 0012 13DC     		bgt	.L270
 1660              	.L265:
 1661 0014 4368     		ldr	r3, [r0, #4]
 1662 0016 0133     		adds	r3, r3, #1
 1663 0018 4FF00003 		mov	r3, #0
 1664 001c 0CD0     		beq	.L273
 1665 001e 9A42     		cmp	r2, r3
 1666 0020 4360     		str	r3, [r0, #4]
 1667 0022 0361     		str	r3, [r0, #16]
 1668 0024 04DC     		bgt	.L266
 1669 0026 2029     		cmp	r1, #32
 1670 0028 04DD     		ble	.L267
 1671              	.L272:
 1672 002a 6FF0AB00 		mvn	r0, #171
 1673 002e 7047     		bx	lr
 1674              	.L266:
 1675 0030 072A     		cmp	r2, #7
 1676 0032 FAD1     		bne	.L272
 1677              	.L267:
 1678 0034 034B     		ldr	r3, .L274
 1679 0036 0361     		str	r3, [r0, #16]
 1680              	.L273:
 1681 0038 0020     		movs	r0, #0
 1682 003a 7047     		bx	lr
ARM GAS  /tmp/ccqDDmMm.s 			page 30


 1683              	.L270:
 1684 003c 6FF0A900 		mvn	r0, #169
 1685 0040 7047     		bx	lr
 1686              	.L275:
 1687 0042 00BF     		.align	2
 1688              	.L274:
 1689 0044 00000000 		.word	.LANCHOR0
 1691              		.section	.text.wc_ecc_import_raw_private,"ax",%progbits
 1692              		.align	1
 1693              		.syntax unified
 1694              		.thumb
 1695              		.thumb_func
 1696              		.fpu fpv4-sp-d16
 1698              	wc_ecc_import_raw_private:
 1699              		@ args = 8, pretend = 0, frame = 0
 1700              		@ frame_needed = 0, uses_anonymous_args = 0
 1701 0000 2DE9F04F 		push	{r4, r5, r6, r7, r8, r9, r10, fp, lr}
 1702 0004 2DED028B 		vpush.64	{d8}
 1703 0008 8946     		mov	r9, r1
 1704 000a 9046     		mov	r8, r2
 1705 000c 08EE103A 		vmov	s16, r3	@ int
 1706 0010 0446     		mov	r4, r0
 1707 0012 83B0     		sub	sp, sp, #12
 1708 0014 0028     		cmp	r0, #0
 1709 0016 00F09380 		beq	.L292
 1710 001a 0029     		cmp	r1, #0
 1711 001c 00F09080 		beq	.L292
 1712 0020 002A     		cmp	r2, #0
 1713 0022 00F08D80 		beq	.L292
 1714 0026 0021     		movs	r1, #0
 1715 0028 0E9A     		ldr	r2, [sp, #56]
 1716 002a 8160     		str	r1, [r0, #8]
 1717 002c FFF7FEFF 		bl	wc_ecc_set_curve
 1718 0030 0746     		mov	r7, r0
 1719 0032 0028     		cmp	r0, #0
 1720 0034 7BD1     		bne	.L276
 1721 0036 04F5E87A 		add	r10, r4, #464
 1722 003a 04F11806 		add	r6, r4, #24
 1723 003e 04F1A805 		add	r5, r4, #168
 1724 0042 04F59C7B 		add	fp, r4, #312
 1725 0046 CDE90000 		strd	r0, r0, [sp]
 1726 004a 5B46     		mov	r3, fp
 1727 004c 2A46     		mov	r2, r5
 1728 004e 3146     		mov	r1, r6
 1729 0050 5046     		mov	r0, r10
 1730 0052 FFF7FEFF 		bl	sp_init_multi
 1731 0056 0028     		cmp	r0, #0
 1732 0058 75D1     		bne	.L293
 1733 005a 0F9B     		ldr	r3, [sp, #60]
 1734 005c 012B     		cmp	r3, #1
 1735 005e 1BD1     		bne	.L278
 1736 0060 1022     		movs	r2, #16
 1737 0062 4946     		mov	r1, r9
 1738 0064 3046     		mov	r0, r6
 1739 0066 FFF7FEFF 		bl	sp_read_radix
 1740              	.L302:
 1741 006a 0746     		mov	r7, r0
ARM GAS  /tmp/ccqDDmMm.s 			page 31


 1742 006c 3046     		mov	r0, r6
 1743 006e FFF7FEFF 		bl	sp_unsigned_bin_size
 1744 0072 2269     		ldr	r2, [r4, #16]
 1745 0074 1268     		ldr	r2, [r2]
 1746 0076 9042     		cmp	r0, r2
 1747 0078 15DD     		ble	.L280
 1748              	.L284:
 1749 007a 6FF0AC07 		mvn	r7, #172
 1750              	.L281:
 1751 007e 3046     		mov	r0, r6
 1752 0080 FFF7FEFF 		bl	sp_clear
 1753 0084 2846     		mov	r0, r5
 1754 0086 FFF7FEFF 		bl	sp_clear
 1755 008a 5846     		mov	r0, fp
 1756 008c FFF7FEFF 		bl	sp_clear
 1757 0090 5046     		mov	r0, r10
 1758 0092 FFF7FEFF 		bl	sp_clear
 1759 0096 4AE0     		b	.L276
 1760              	.L278:
 1761 0098 2369     		ldr	r3, [r4, #16]
 1762 009a 4946     		mov	r1, r9
 1763 009c 3046     		mov	r0, r6
 1764 009e 1A68     		ldr	r2, [r3]
 1765 00a0 FFF7FEFF 		bl	sp_read_unsigned_bin
 1766 00a4 E1E7     		b	.L302
 1767              	.L280:
 1768 00a6 002F     		cmp	r7, #0
 1769 00a8 E9D1     		bne	.L281
 1770 00aa 0F9B     		ldr	r3, [sp, #60]
 1771 00ac 012B     		cmp	r3, #1
 1772 00ae 2FD1     		bne	.L282
 1773 00b0 1022     		movs	r2, #16
 1774 00b2 4146     		mov	r1, r8
 1775 00b4 2846     		mov	r0, r5
 1776 00b6 FFF7FEFF 		bl	sp_read_radix
 1777              	.L303:
 1778 00ba 0746     		mov	r7, r0
 1779 00bc 2846     		mov	r0, r5
 1780 00be FFF7FEFF 		bl	sp_unsigned_bin_size
 1781 00c2 2269     		ldr	r2, [r4, #16]
 1782 00c4 1268     		ldr	r2, [r2]
 1783 00c6 9042     		cmp	r0, r2
 1784 00c8 D7DC     		bgt	.L284
 1785 00ca 002F     		cmp	r7, #0
 1786 00cc D7D1     		bne	.L281
 1787 00ce 238B     		ldrh	r3, [r4, #24]
 1788 00d0 13B9     		cbnz	r3, .L285
 1789 00d2 B4F8A830 		ldrh	r3, [r4, #168]
 1790 00d6 83B3     		cbz	r3, .L294
 1791              	.L285:
 1792 00d8 0121     		movs	r1, #1
 1793 00da 5846     		mov	r0, fp
 1794 00dc FFF7FEFF 		bl	sp_set
 1795 00e0 0746     		mov	r7, r0
 1796 00e2 0028     		cmp	r0, #0
 1797 00e4 CBD1     		bne	.L281
 1798 00e6 18EE103A 		vmov	r3, s16	@ int
ARM GAS  /tmp/ccqDDmMm.s 			page 32


 1799 00ea F3B1     		cbz	r3, .L286
 1800 00ec 0223     		movs	r3, #2
 1801 00ee 2360     		str	r3, [r4]
 1802 00f0 0F9B     		ldr	r3, [sp, #60]
 1803 00f2 012B     		cmp	r3, #1
 1804 00f4 11D1     		bne	.L287
 1805 00f6 1022     		movs	r2, #16
 1806 00f8 18EE101A 		vmov	r1, s16	@ int
 1807 00fc 5046     		mov	r0, r10
 1808 00fe FFF7FEFF 		bl	sp_read_radix
 1809              	.L304:
 1810 0102 B4F8D021 		ldrh	r2, [r4, #464]
 1811 0106 0746     		mov	r7, r0
 1812 0108 002A     		cmp	r2, #0
 1813 010a B6D0     		beq	.L284
 1814 010c 78B1     		cbz	r0, .L276
 1815 010e B6E7     		b	.L281
 1816              	.L282:
 1817 0110 4146     		mov	r1, r8
 1818 0112 2846     		mov	r0, r5
 1819 0114 FFF7FEFF 		bl	sp_read_unsigned_bin
 1820 0118 CFE7     		b	.L303
 1821              	.L287:
 1822 011a 2369     		ldr	r3, [r4, #16]
 1823 011c 18EE101A 		vmov	r1, s16	@ int
 1824 0120 5046     		mov	r0, r10
 1825 0122 1A68     		ldr	r2, [r3]
 1826 0124 FFF7FEFF 		bl	sp_read_unsigned_bin
 1827 0128 EBE7     		b	.L304
 1828              	.L286:
 1829 012a 0122     		movs	r2, #1
 1830 012c 2260     		str	r2, [r4]
 1831              	.L276:
 1832 012e 3846     		mov	r0, r7
 1833 0130 03B0     		add	sp, sp, #12
 1834              		@ sp needed
 1835 0132 BDEC028B 		vldm	sp!, {d8}
 1836 0136 BDE8F08F 		pop	{r4, r5, r6, r7, r8, r9, r10, fp, pc}
 1837              	.L294:
 1838 013a 6FF0D607 		mvn	r7, #214
 1839 013e 9EE7     		b	.L281
 1840              	.L292:
 1841 0140 6FF0AC07 		mvn	r7, #172
 1842 0144 F3E7     		b	.L276
 1843              	.L293:
 1844 0146 6FF07C07 		mvn	r7, #124
 1845 014a F0E7     		b	.L276
 1847              		.section	.text.ecc_projective_add_point,"ax",%progbits
 1848              		.align	1
 1849              		.global	ecc_projective_add_point
 1850              		.syntax unified
 1851              		.thumb
 1852              		.thumb_func
 1853              		.fpu fpv4-sp-d16
 1855              	ecc_projective_add_point:
 1856              		@ args = 8, pretend = 0, frame = 0
 1857              		@ frame_needed = 0, uses_anonymous_args = 0
ARM GAS  /tmp/ccqDDmMm.s 			page 33


 1858 0000 2DE9F041 		push	{r4, r5, r6, r7, r8, lr}
 1859 0004 0D46     		mov	r5, r1
 1860 0006 DDE90648 		ldrd	r4, r8, [sp, #24]
 1861 000a 1746     		mov	r7, r2
 1862 000c 0646     		mov	r6, r0
 1863 000e B8B3     		cbz	r0, .L312
 1864 0010 B1B3     		cbz	r1, .L312
 1865 0012 AAB3     		cbz	r2, .L312
 1866 0014 A4B3     		cbz	r4, .L312
 1867 0016 2146     		mov	r1, r4
 1868 0018 FFF7FEFF 		bl	sp_cmp
 1869 001c 0130     		adds	r0, r0, #1
 1870 001e 03D0     		beq	.L307
 1871              	.L308:
 1872 0020 6FF0D800 		mvn	r0, #216
 1873              	.L305:
 1874 0024 BDE8F081 		pop	{r4, r5, r6, r7, r8, pc}
 1875              	.L307:
 1876 0028 2146     		mov	r1, r4
 1877 002a 06F19000 		add	r0, r6, #144
 1878 002e FFF7FEFF 		bl	sp_cmp
 1879 0032 0130     		adds	r0, r0, #1
 1880 0034 F4D1     		bne	.L308
 1881 0036 2146     		mov	r1, r4
 1882 0038 06F59070 		add	r0, r6, #288
 1883 003c FFF7FEFF 		bl	sp_cmp
 1884 0040 0130     		adds	r0, r0, #1
 1885 0042 EDD1     		bne	.L308
 1886 0044 2146     		mov	r1, r4
 1887 0046 2846     		mov	r0, r5
 1888 0048 FFF7FEFF 		bl	sp_cmp
 1889 004c 0130     		adds	r0, r0, #1
 1890 004e E7D1     		bne	.L308
 1891 0050 2146     		mov	r1, r4
 1892 0052 05F19000 		add	r0, r5, #144
 1893 0056 FFF7FEFF 		bl	sp_cmp
 1894 005a 0130     		adds	r0, r0, #1
 1895 005c E0D1     		bne	.L308
 1896 005e 2146     		mov	r1, r4
 1897 0060 05F59070 		add	r0, r5, #288
 1898 0064 FFF7FEFF 		bl	sp_cmp
 1899 0068 0130     		adds	r0, r0, #1
 1900 006a D9D1     		bne	.L308
 1901 006c 2346     		mov	r3, r4
 1902 006e 3A46     		mov	r2, r7
 1903 0070 2946     		mov	r1, r5
 1904 0072 3046     		mov	r0, r6
 1905 0074 CDF81880 		str	r8, [sp, #24]
 1906 0078 BDE8F041 		pop	{r4, r5, r6, r7, r8, lr}
 1907 007c FFF7FEBF 		b	_ecc_projective_add_point.isra.0
 1908              	.L312:
 1909 0080 6FF0A900 		mvn	r0, #169
 1910 0084 CEE7     		b	.L305
 1912              		.section	.text.ecc_projective_dbl_point,"ax",%progbits
 1913              		.align	1
 1914              		.global	ecc_projective_dbl_point
 1915              		.syntax unified
ARM GAS  /tmp/ccqDDmMm.s 			page 34


 1916              		.thumb
 1917              		.thumb_func
 1918              		.fpu fpv4-sp-d16
 1920              	ecc_projective_dbl_point:
 1921              		@ args = 4, pretend = 0, frame = 0
 1922              		@ frame_needed = 0, uses_anonymous_args = 0
 1923 0000 2DE9F041 		push	{r4, r5, r6, r7, r8, lr}
 1924 0004 069F     		ldr	r7, [sp, #24]
 1925 0006 0E46     		mov	r6, r1
 1926 0008 1C46     		mov	r4, r3
 1927 000a 0546     		mov	r5, r0
 1928 000c 00B3     		cbz	r0, .L319
 1929 000e F9B1     		cbz	r1, .L319
 1930 0010 F3B1     		cbz	r3, .L319
 1931 0012 1946     		mov	r1, r3
 1932 0014 FFF7FEFF 		bl	sp_cmp
 1933 0018 0130     		adds	r0, r0, #1
 1934 001a 03D0     		beq	.L315
 1935              	.L316:
 1936 001c 6FF0D800 		mvn	r0, #216
 1937              	.L313:
 1938 0020 BDE8F081 		pop	{r4, r5, r6, r7, r8, pc}
 1939              	.L315:
 1940 0024 2146     		mov	r1, r4
 1941 0026 05F19000 		add	r0, r5, #144
 1942 002a FFF7FEFF 		bl	sp_cmp
 1943 002e 0130     		adds	r0, r0, #1
 1944 0030 F4D1     		bne	.L316
 1945 0032 2146     		mov	r1, r4
 1946 0034 05F59070 		add	r0, r5, #288
 1947 0038 FFF7FEFF 		bl	sp_cmp
 1948 003c 0130     		adds	r0, r0, #1
 1949 003e EDD1     		bne	.L316
 1950 0040 3B46     		mov	r3, r7
 1951 0042 2246     		mov	r2, r4
 1952 0044 3146     		mov	r1, r6
 1953 0046 2846     		mov	r0, r5
 1954 0048 BDE8F041 		pop	{r4, r5, r6, r7, r8, lr}
 1955 004c FFF7FEBF 		b	_ecc_projective_dbl_point.constprop.0
 1956              	.L319:
 1957 0050 6FF0A900 		mvn	r0, #169
 1958 0054 E4E7     		b	.L313
 1960              		.section	.text.ecc_map_ex,"ax",%progbits
 1961              		.align	1
 1962              		.global	ecc_map_ex
 1963              		.syntax unified
 1964              		.thumb
 1965              		.thumb_func
 1966              		.fpu fpv4-sp-d16
 1968              	ecc_map_ex:
 1969              		@ args = 0, pretend = 0, frame = 0
 1970              		@ frame_needed = 0, uses_anonymous_args = 0
 1971 0000 2DE9F84F 		push	{r3, r4, r5, r6, r7, r8, r9, r10, fp, lr}
 1972 0004 0E46     		mov	r6, r1
 1973 0006 9146     		mov	r9, r2
 1974 0008 1C46     		mov	r4, r3
 1975 000a 8046     		mov	r8, r0
ARM GAS  /tmp/ccqDDmMm.s 			page 35


 1976 000c 0028     		cmp	r0, #0
 1977 000e 00F0D880 		beq	.L340
 1978 0012 0029     		cmp	r1, #0
 1979 0014 00F0D580 		beq	.L340
 1980 0018 00F5907A 		add	r10, r0, #288
 1981 001c 0021     		movs	r1, #0
 1982 001e 5046     		mov	r0, r10
 1983 0020 FFF7FEFF 		bl	sp_cmp_d
 1984 0024 0146     		mov	r1, r0
 1985 0026 A8B9     		cbnz	r0, .L322
 1986 0028 4046     		mov	r0, r8
 1987 002a FFF7FEFF 		bl	sp_set
 1988 002e 0446     		mov	r4, r0
 1989 0030 0028     		cmp	r0, #0
 1990 0032 40F0B480 		bne	.L320
 1991 0036 0146     		mov	r1, r0
 1992 0038 08F19000 		add	r0, r8, #144
 1993 003c FFF7FEFF 		bl	sp_set
 1994 0040 0446     		mov	r4, r0
 1995 0042 0028     		cmp	r0, #0
 1996 0044 40F0AB80 		bne	.L320
 1997 0048 5046     		mov	r0, r10
 1998 004a BDE8F84F 		pop	{r3, r4, r5, r6, r7, r8, r9, r10, fp, lr}
 1999 004e 0121     		movs	r1, #1
 2000 0050 FFF7FEBF 		b	sp_set
 2001              	.L322:
 2002 0054 D8F8B071 		ldr	r7, [r8, #432]
 2003 0058 B7B1     		cbz	r7, .L323
 2004 005a D7E99857 		ldrd	r5, r7, [r7, #608]
 2005              	.L324:
 2006 005e 3188     		ldrh	r1, [r6]
 2007 0060 2846     		mov	r0, r5
 2008 0062 4900     		lsls	r1, r1, #1
 2009 0064 0131     		adds	r1, r1, #1
 2010 0066 FFF7FEFF 		bl	sp_init_size
 2011 006a 60B3     		cbz	r0, .L328
 2012              	.L331:
 2013 006c D8F8B031 		ldr	r3, [r8, #432]
 2014 0070 3BB9     		cbnz	r3, .L363
 2015 0072 17B1     		cbz	r7, .L333
 2016 0074 3846     		mov	r0, r7
 2017 0076 FFF7FEFF 		bl	wolfSSL_Free
 2018              	.L333:
 2019 007a 15B1     		cbz	r5, .L363
 2020 007c 2846     		mov	r0, r5
 2021              	.L362:
 2022 007e FFF7FEFF 		bl	wolfSSL_Free
 2023              	.L363:
 2024 0082 6FF07C04 		mvn	r4, #124
 2025 0086 8AE0     		b	.L320
 2026              	.L323:
 2027 0088 3088     		ldrh	r0, [r6]
 2028 008a 0130     		adds	r0, r0, #1
 2029 008c C000     		lsls	r0, r0, #3
 2030 008e FFF7FEFF 		bl	wolfSSL_Malloc
 2031 0092 0546     		mov	r5, r0
 2032 0094 28B1     		cbz	r0, .L325
ARM GAS  /tmp/ccqDDmMm.s 			page 36


 2033 0096 3288     		ldrh	r2, [r6]
 2034 0098 3946     		mov	r1, r7
 2035 009a 0132     		adds	r2, r2, #1
 2036 009c D200     		lsls	r2, r2, #3
 2037 009e FFF7FEFF 		bl	memset
 2038              	.L325:
 2039 00a2 3088     		ldrh	r0, [r6]
 2040 00a4 0130     		adds	r0, r0, #1
 2041 00a6 C000     		lsls	r0, r0, #3
 2042 00a8 FFF7FEFF 		bl	wolfSSL_Malloc
 2043 00ac 0746     		mov	r7, r0
 2044 00ae 0028     		cmp	r0, #0
 2045 00b0 E3D0     		beq	.L333
 2046 00b2 3288     		ldrh	r2, [r6]
 2047 00b4 0021     		movs	r1, #0
 2048 00b6 0132     		adds	r2, r2, #1
 2049 00b8 D200     		lsls	r2, r2, #3
 2050 00ba FFF7FEFF 		bl	memset
 2051 00be 002D     		cmp	r5, #0
 2052 00c0 CDD1     		bne	.L324
 2053 00c2 3846     		mov	r0, r7
 2054 00c4 DBE7     		b	.L362
 2055              	.L328:
 2056 00c6 3188     		ldrh	r1, [r6]
 2057 00c8 3846     		mov	r0, r7
 2058 00ca 4900     		lsls	r1, r1, #1
 2059 00cc 0131     		adds	r1, r1, #1
 2060 00ce FFF7FEFF 		bl	sp_init_size
 2061 00d2 0028     		cmp	r0, #0
 2062 00d4 CAD1     		bne	.L331
 2063 00d6 002C     		cmp	r4, #0
 2064 00d8 64D0     		beq	.L334
 2065 00da 4B46     		mov	r3, r9
 2066 00dc 2A46     		mov	r2, r5
 2067 00de 3146     		mov	r1, r6
 2068 00e0 5046     		mov	r0, r10
 2069 00e2 FFF7FEFF 		bl	sp_invmod_mont_ct
 2070 00e6 0446     		mov	r4, r0
 2071 00e8 0028     		cmp	r0, #0
 2072 00ea 47D1     		bne	.L335
 2073 00ec 0346     		mov	r3, r0
 2074 00ee 4A46     		mov	r2, r9
 2075 00f0 3146     		mov	r1, r6
 2076 00f2 2846     		mov	r0, r5
 2077 00f4 FFF7FEFF 		bl	sp_mont_red_ex
 2078              	.L361:
 2079 00f8 0446     		mov	r4, r0
 2080 00fa F8BB     		cbnz	r0, .L335
 2081 00fc 3946     		mov	r1, r7
 2082 00fe 2846     		mov	r0, r5
 2083 0100 FFF7FEFF 		bl	sp_sqr
 2084 0104 0446     		mov	r4, r0
 2085 0106 C8BB     		cbnz	r0, .L335
 2086 0108 3A46     		mov	r2, r7
 2087 010a 3146     		mov	r1, r6
 2088 010c 3846     		mov	r0, r7
 2089 010e FFF7FEFF 		bl	sp_mod
ARM GAS  /tmp/ccqDDmMm.s 			page 37


 2090 0112 0446     		mov	r4, r0
 2091 0114 90BB     		cbnz	r0, .L335
 2092 0116 2A46     		mov	r2, r5
 2093 0118 3946     		mov	r1, r7
 2094 011a 2846     		mov	r0, r5
 2095 011c FFF7FEFF 		bl	sp_mul
 2096 0120 0446     		mov	r4, r0
 2097 0122 58BB     		cbnz	r0, .L335
 2098 0124 2A46     		mov	r2, r5
 2099 0126 3146     		mov	r1, r6
 2100 0128 2846     		mov	r0, r5
 2101 012a FFF7FEFF 		bl	sp_mod
 2102 012e 0446     		mov	r4, r0
 2103 0130 20BB     		cbnz	r0, .L335
 2104 0132 4246     		mov	r2, r8
 2105 0134 3946     		mov	r1, r7
 2106 0136 4046     		mov	r0, r8
 2107 0138 FFF7FEFF 		bl	sp_mul
 2108 013c 0446     		mov	r4, r0
 2109 013e E8B9     		cbnz	r0, .L335
 2110 0140 0346     		mov	r3, r0
 2111 0142 4A46     		mov	r2, r9
 2112 0144 3146     		mov	r1, r6
 2113 0146 4046     		mov	r0, r8
 2114 0148 FFF7FEFF 		bl	sp_mont_red_ex
 2115 014c 0446     		mov	r4, r0
 2116 014e A8B9     		cbnz	r0, .L335
 2117 0150 08F1900B 		add	fp, r8, #144
 2118 0154 5A46     		mov	r2, fp
 2119 0156 2946     		mov	r1, r5
 2120 0158 5846     		mov	r0, fp
 2121 015a FFF7FEFF 		bl	sp_mul
 2122 015e 0446     		mov	r4, r0
 2123 0160 60B9     		cbnz	r0, .L335
 2124 0162 0346     		mov	r3, r0
 2125 0164 4A46     		mov	r2, r9
 2126 0166 3146     		mov	r1, r6
 2127 0168 5846     		mov	r0, fp
 2128 016a FFF7FEFF 		bl	sp_mont_red_ex
 2129 016e 0446     		mov	r4, r0
 2130 0170 20B9     		cbnz	r0, .L335
 2131 0172 0121     		movs	r1, #1
 2132 0174 5046     		mov	r0, r10
 2133 0176 FFF7FEFF 		bl	sp_set
 2134 017a 0446     		mov	r4, r0
 2135              	.L335:
 2136 017c 2846     		mov	r0, r5
 2137 017e FFF7FEFF 		bl	sp_clear
 2138 0182 3846     		mov	r0, r7
 2139 0184 FFF7FEFF 		bl	sp_clear
 2140 0188 D8F8B031 		ldr	r3, [r8, #432]
 2141 018c 3BB9     		cbnz	r3, .L320
 2142 018e 17B1     		cbz	r7, .L337
 2143 0190 3846     		mov	r0, r7
 2144 0192 FFF7FEFF 		bl	wolfSSL_Free
 2145              	.L337:
 2146 0196 15B1     		cbz	r5, .L320
ARM GAS  /tmp/ccqDDmMm.s 			page 38


 2147 0198 2846     		mov	r0, r5
 2148 019a FFF7FEFF 		bl	wolfSSL_Free
 2149              	.L320:
 2150 019e 2046     		mov	r0, r4
 2151 01a0 BDE8F88F 		pop	{r3, r4, r5, r6, r7, r8, r9, r10, fp, pc}
 2152              	.L334:
 2153 01a4 2346     		mov	r3, r4
 2154 01a6 4A46     		mov	r2, r9
 2155 01a8 3146     		mov	r1, r6
 2156 01aa 5046     		mov	r0, r10
 2157 01ac FFF7FEFF 		bl	sp_mont_red_ex
 2158 01b0 0446     		mov	r4, r0
 2159 01b2 0028     		cmp	r0, #0
 2160 01b4 E2D1     		bne	.L335
 2161 01b6 2A46     		mov	r2, r5
 2162 01b8 3146     		mov	r1, r6
 2163 01ba 5046     		mov	r0, r10
 2164 01bc FFF7FEFF 		bl	sp_invmod
 2165 01c0 9AE7     		b	.L361
 2166              	.L340:
 2167 01c2 6FF0A904 		mvn	r4, #169
 2168 01c6 EAE7     		b	.L320
 2170              		.section	.text.ecc_map,"ax",%progbits
 2171              		.align	1
 2172              		.global	ecc_map
 2173              		.syntax unified
 2174              		.thumb
 2175              		.thumb_func
 2176              		.fpu fpv4-sp-d16
 2178              	ecc_map:
 2179              		@ args = 0, pretend = 0, frame = 0
 2180              		@ frame_needed = 0, uses_anonymous_args = 0
 2181              		@ link register save eliminated.
 2182 0000 0023     		movs	r3, #0
 2183 0002 FFF7FEBF 		b	ecc_map_ex
 2185              		.section	.text.wc_ecc_new_point_h,"ax",%progbits
 2186              		.align	1
 2187              		.global	wc_ecc_new_point_h
 2188              		.syntax unified
 2189              		.thumb
 2190              		.thumb_func
 2191              		.fpu fpv4-sp-d16
 2193              	wc_ecc_new_point_h:
 2194              		@ args = 0, pretend = 0, frame = 8
 2195              		@ frame_needed = 0, uses_anonymous_args = 0
 2196 0000 0023     		movs	r3, #0
 2197 0002 07B5     		push	{r0, r1, r2, lr}
 2198 0004 01A8     		add	r0, sp, #4
 2199 0006 0193     		str	r3, [sp, #4]
 2200 0008 FFF7FEFF 		bl	wc_ecc_new_point_ex.constprop.0
 2201 000c 0198     		ldr	r0, [sp, #4]
 2202 000e 03B0     		add	sp, sp, #12
 2203              		@ sp needed
 2204 0010 5DF804FB 		ldr	pc, [sp], #4
 2206              		.section	.text.wc_ecc_new_point,"ax",%progbits
 2207              		.align	1
 2208              		.global	wc_ecc_new_point
ARM GAS  /tmp/ccqDDmMm.s 			page 39


 2209              		.syntax unified
 2210              		.thumb
 2211              		.thumb_func
 2212              		.fpu fpv4-sp-d16
 2214              	wc_ecc_new_point:
 2215              		@ args = 0, pretend = 0, frame = 8
 2216              		@ frame_needed = 0, uses_anonymous_args = 0
 2217 0000 0023     		movs	r3, #0
 2218 0002 07B5     		push	{r0, r1, r2, lr}
 2219 0004 01A8     		add	r0, sp, #4
 2220 0006 0193     		str	r3, [sp, #4]
 2221 0008 FFF7FEFF 		bl	wc_ecc_new_point_ex.constprop.0
 2222 000c 0198     		ldr	r0, [sp, #4]
 2223 000e 03B0     		add	sp, sp, #12
 2224              		@ sp needed
 2225 0010 5DF804FB 		ldr	pc, [sp], #4
 2227              		.section	.text.wc_ecc_del_point_h,"ax",%progbits
 2228              		.align	1
 2229              		.global	wc_ecc_del_point_h
 2230              		.syntax unified
 2231              		.thumb
 2232              		.thumb_func
 2233              		.fpu fpv4-sp-d16
 2235              	wc_ecc_del_point_h:
 2236              		@ args = 0, pretend = 0, frame = 0
 2237              		@ frame_needed = 0, uses_anonymous_args = 0
 2238              		@ link register save eliminated.
 2239 0000 FFF7FEBF 		b	wc_ecc_del_point_ex.constprop.0
 2241              		.section	.text.wc_ecc_del_point,"ax",%progbits
 2242              		.align	1
 2243              		.global	wc_ecc_del_point
 2244              		.syntax unified
 2245              		.thumb
 2246              		.thumb_func
 2247              		.fpu fpv4-sp-d16
 2249              	wc_ecc_del_point:
 2250              		@ args = 0, pretend = 0, frame = 0
 2251              		@ frame_needed = 0, uses_anonymous_args = 0
 2252              		@ link register save eliminated.
 2253 0000 FFF7FEBF 		b	wc_ecc_del_point_ex.constprop.0
 2255              		.section	.text.wc_ecc_forcezero_point,"ax",%progbits
 2256              		.align	1
 2257              		.global	wc_ecc_forcezero_point
 2258              		.syntax unified
 2259              		.thumb
 2260              		.thumb_func
 2261              		.fpu fpv4-sp-d16
 2263              	wc_ecc_forcezero_point:
 2264              		@ args = 0, pretend = 0, frame = 0
 2265              		@ frame_needed = 0, uses_anonymous_args = 0
 2266 0000 10B5     		push	{r4, lr}
 2267 0002 0446     		mov	r4, r0
 2268 0004 58B1     		cbz	r0, .L371
 2269 0006 FFF7FEFF 		bl	sp_forcezero
 2270 000a 04F19000 		add	r0, r4, #144
 2271 000e FFF7FEFF 		bl	sp_forcezero
 2272 0012 04F59070 		add	r0, r4, #288
ARM GAS  /tmp/ccqDDmMm.s 			page 40


 2273 0016 BDE81040 		pop	{r4, lr}
 2274 001a FFF7FEBF 		b	sp_forcezero
 2275              	.L371:
 2276 001e 10BD     		pop	{r4, pc}
 2278              		.section	.text.wc_ecc_copy_point,"ax",%progbits
 2279              		.align	1
 2280              		.global	wc_ecc_copy_point
 2281              		.syntax unified
 2282              		.thumb
 2283              		.thumb_func
 2284              		.fpu fpv4-sp-d16
 2286              	wc_ecc_copy_point:
 2287              		@ args = 0, pretend = 0, frame = 0
 2288              		@ frame_needed = 0, uses_anonymous_args = 0
 2289 0000 38B5     		push	{r3, r4, r5, lr}
 2290 0002 0D46     		mov	r5, r1
 2291 0004 0446     		mov	r4, r0
 2292 0006 90B1     		cbz	r0, .L376
 2293 0008 89B1     		cbz	r1, .L376
 2294 000a FFF7FEFF 		bl	sp_copy
 2295 000e 80B9     		cbnz	r0, .L373
 2296 0010 05F19001 		add	r1, r5, #144
 2297 0014 04F19000 		add	r0, r4, #144
 2298 0018 FFF7FEFF 		bl	sp_copy
 2299 001c 48B9     		cbnz	r0, .L373
 2300 001e 05F59071 		add	r1, r5, #288
 2301 0022 04F59070 		add	r0, r4, #288
 2302 0026 BDE83840 		pop	{r3, r4, r5, lr}
 2303 002a FFF7FEBF 		b	sp_copy
 2304              	.L376:
 2305 002e 6FF0A900 		mvn	r0, #169
 2306              	.L373:
 2307 0032 38BD     		pop	{r3, r4, r5, pc}
 2309              		.section	.text.wc_ecc_cmp_point,"ax",%progbits
 2310              		.align	1
 2311              		.global	wc_ecc_cmp_point
 2312              		.syntax unified
 2313              		.thumb
 2314              		.thumb_func
 2315              		.fpu fpv4-sp-d16
 2317              	wc_ecc_cmp_point:
 2318              		@ args = 0, pretend = 0, frame = 0
 2319              		@ frame_needed = 0, uses_anonymous_args = 0
 2320 0000 38B5     		push	{r3, r4, r5, lr}
 2321 0002 0D46     		mov	r5, r1
 2322 0004 0446     		mov	r4, r0
 2323 0006 90B1     		cbz	r0, .L380
 2324 0008 89B1     		cbz	r1, .L380
 2325 000a FFF7FEFF 		bl	sp_cmp
 2326 000e 80B9     		cbnz	r0, .L377
 2327 0010 05F19001 		add	r1, r5, #144
 2328 0014 04F19000 		add	r0, r4, #144
 2329 0018 FFF7FEFF 		bl	sp_cmp
 2330 001c 48B9     		cbnz	r0, .L377
 2331 001e 05F59071 		add	r1, r5, #288
 2332 0022 04F59070 		add	r0, r4, #288
 2333 0026 BDE83840 		pop	{r3, r4, r5, lr}
ARM GAS  /tmp/ccqDDmMm.s 			page 41


 2334 002a FFF7FEBF 		b	sp_cmp
 2335              	.L380:
 2336 002e 6FF0AC00 		mvn	r0, #172
 2337              	.L377:
 2338 0032 38BD     		pop	{r3, r4, r5, pc}
 2340              		.section	.text.wc_ecc_is_valid_idx,"ax",%progbits
 2341              		.align	1
 2342              		.global	wc_ecc_is_valid_idx
 2343              		.syntax unified
 2344              		.thumb
 2345              		.thumb_func
 2346              		.fpu fpv4-sp-d16
 2348              	wc_ecc_is_valid_idx:
 2349              		@ args = 0, pretend = 0, frame = 0
 2350              		@ frame_needed = 0, uses_anonymous_args = 0
 2351              		@ link register save eliminated.
 2352 0000 0130     		adds	r0, r0, #1
 2353 0002 0128     		cmp	r0, #1
 2354 0004 8CBF     		ite	hi
 2355 0006 0020     		movhi	r0, #0
 2356 0008 0120     		movls	r0, #1
 2357 000a 7047     		bx	lr
 2359              		.section	.text.wc_ecc_get_curve_idx,"ax",%progbits
 2360              		.align	1
 2361              		.global	wc_ecc_get_curve_idx
 2362              		.syntax unified
 2363              		.thumb
 2364              		.thumb_func
 2365              		.fpu fpv4-sp-d16
 2367              	wc_ecc_get_curve_idx:
 2368              		@ args = 0, pretend = 0, frame = 0
 2369              		@ frame_needed = 0, uses_anonymous_args = 0
 2370              		@ link register save eliminated.
 2371 0000 0738     		subs	r0, r0, #7
 2372 0002 18BF     		it	ne
 2373 0004 4FF0FF30 		movne	r0, #-1
 2374 0008 7047     		bx	lr
 2376              		.section	.text.wc_ecc_get_name,"ax",%progbits
 2377              		.align	1
 2378              		.global	wc_ecc_get_name
 2379              		.syntax unified
 2380              		.thumb
 2381              		.thumb_func
 2382              		.fpu fpv4-sp-d16
 2384              	wc_ecc_get_name:
 2385              		@ args = 0, pretend = 0, frame = 0
 2386              		@ frame_needed = 0, uses_anonymous_args = 0
 2387 0000 08B5     		push	{r3, lr}
 2388 0002 FFF7FEFF 		bl	wc_ecc_get_curve_idx
 2389 0006 431C     		adds	r3, r0, #1
 2390 0008 1BBF     		ittet	ne
 2391 000a 3422     		movne	r2, #52
 2392 000c 034B     		ldrne	r3, .L386
 2393 000e 0020     		moveq	r0, #0
 2394 0010 02FB0030 		mlane	r0, r2, r0, r3
 2395 0014 18BF     		it	ne
 2396 0016 8068     		ldrne	r0, [r0, #8]
ARM GAS  /tmp/ccqDDmMm.s 			page 42


 2397 0018 08BD     		pop	{r3, pc}
 2398              	.L387:
 2399 001a 00BF     		.align	2
 2400              	.L386:
 2401 001c 00000000 		.word	.LANCHOR0
 2403              		.section	.text.wc_ecc_get_curve_id,"ax",%progbits
 2404              		.align	1
 2405              		.global	wc_ecc_get_curve_id
 2406              		.syntax unified
 2407              		.thumb
 2408              		.thumb_func
 2409              		.fpu fpv4-sp-d16
 2411              	wc_ecc_get_curve_id:
 2412              		@ args = 0, pretend = 0, frame = 0
 2413              		@ frame_needed = 0, uses_anonymous_args = 0
 2414 0000 08B5     		push	{r3, lr}
 2415 0002 0346     		mov	r3, r0
 2416 0004 FFF7FEFF 		bl	wc_ecc_is_valid_idx
 2417 0008 38B1     		cbz	r0, .L391
 2418 000a 002B     		cmp	r3, #0
 2419 000c 05DB     		blt	.L391
 2420 000e 3422     		movs	r2, #52
 2421 0010 0348     		ldr	r0, .L392
 2422 0012 02FB0303 		mla	r3, r2, r3, r0
 2423 0016 5868     		ldr	r0, [r3, #4]
 2424              	.L388:
 2425 0018 08BD     		pop	{r3, pc}
 2426              	.L391:
 2427 001a 4FF0FF30 		mov	r0, #-1
 2428 001e FBE7     		b	.L388
 2429              	.L393:
 2430              		.align	2
 2431              	.L392:
 2432 0020 00000000 		.word	.LANCHOR0
 2434              		.section	.text.wc_ecc_get_curve_size_from_id,"ax",%progbits
 2435              		.align	1
 2436              		.global	wc_ecc_get_curve_size_from_id
 2437              		.syntax unified
 2438              		.thumb
 2439              		.thumb_func
 2440              		.fpu fpv4-sp-d16
 2442              	wc_ecc_get_curve_size_from_id:
 2443              		@ args = 0, pretend = 0, frame = 0
 2444              		@ frame_needed = 0, uses_anonymous_args = 0
 2445 0000 08B5     		push	{r3, lr}
 2446 0002 FFF7FEFF 		bl	wc_ecc_get_curve_idx
 2447 0006 431C     		adds	r3, r0, #1
 2448 0008 1DBF     		ittte	ne
 2449 000a 3423     		movne	r3, #52
 2450 000c 5843     		mulne	r0, r3, r0
 2451 000e 034B     		ldrne	r3, .L397
 2452 0010 6FF0A900 		mvneq	r0, #169
 2453 0014 18BF     		it	ne
 2454 0016 1858     		ldrne	r0, [r3, r0]
 2455 0018 08BD     		pop	{r3, pc}
 2456              	.L398:
 2457 001a 00BF     		.align	2
ARM GAS  /tmp/ccqDDmMm.s 			page 43


 2458              	.L397:
 2459 001c 00000000 		.word	.LANCHOR0
 2461              		.section	.rodata.wc_ecc_get_curve_idx_from_name.str1.1,"aMS",%progbits,1
 2462              	.LC0:
 2463 0000 53454350 		.ascii	"SECP256R1\000"
 2463      32353652 
 2463      3100
 2464              		.section	.text.wc_ecc_get_curve_idx_from_name,"ax",%progbits
 2465              		.align	1
 2466              		.global	wc_ecc_get_curve_idx_from_name
 2467              		.syntax unified
 2468              		.thumb
 2469              		.thumb_func
 2470              		.fpu fpv4-sp-d16
 2472              	wc_ecc_get_curve_idx_from_name:
 2473              		@ args = 0, pretend = 0, frame = 0
 2474              		@ frame_needed = 0, uses_anonymous_args = 0
 2475 0000 0146     		mov	r1, r0
 2476 0002 08B5     		push	{r3, lr}
 2477 0004 38B1     		cbz	r0, .L401
 2478 0006 0548     		ldr	r0, .L402
 2479 0008 FFF7FEFF 		bl	strcasecmp
 2480 000c 0038     		subs	r0, r0, #0
 2481 000e 18BF     		it	ne
 2482 0010 0120     		movne	r0, #1
 2483 0012 4042     		rsbs	r0, r0, #0
 2484              	.L399:
 2485 0014 08BD     		pop	{r3, pc}
 2486              	.L401:
 2487 0016 6FF0AC00 		mvn	r0, #172
 2488 001a FBE7     		b	.L399
 2489              	.L403:
 2490              		.align	2
 2491              	.L402:
 2492 001c 00000000 		.word	.LC0
 2494              		.section	.text.wc_ecc_get_curve_size_from_name,"ax",%progbits
 2495              		.align	1
 2496              		.global	wc_ecc_get_curve_size_from_name
 2497              		.syntax unified
 2498              		.thumb
 2499              		.thumb_func
 2500              		.fpu fpv4-sp-d16
 2502              	wc_ecc_get_curve_size_from_name:
 2503              		@ args = 0, pretend = 0, frame = 0
 2504              		@ frame_needed = 0, uses_anonymous_args = 0
 2505 0000 08B5     		push	{r3, lr}
 2506 0002 40B1     		cbz	r0, .L406
 2507 0004 FFF7FEFF 		bl	wc_ecc_get_curve_idx_from_name
 2508 0008 0028     		cmp	r0, #0
 2509 000a 03DB     		blt	.L404
 2510 000c 3423     		movs	r3, #52
 2511 000e 5843     		muls	r0, r3, r0
 2512 0010 024B     		ldr	r3, .L407
 2513 0012 1858     		ldr	r0, [r3, r0]
 2514              	.L404:
 2515 0014 08BD     		pop	{r3, pc}
 2516              	.L406:
ARM GAS  /tmp/ccqDDmMm.s 			page 44


 2517 0016 6FF0AC00 		mvn	r0, #172
 2518 001a FBE7     		b	.L404
 2519              	.L408:
 2520              		.align	2
 2521              	.L407:
 2522 001c 00000000 		.word	.LANCHOR0
 2524              		.section	.text.wc_ecc_get_curve_id_from_name,"ax",%progbits
 2525              		.align	1
 2526              		.global	wc_ecc_get_curve_id_from_name
 2527              		.syntax unified
 2528              		.thumb
 2529              		.thumb_func
 2530              		.fpu fpv4-sp-d16
 2532              	wc_ecc_get_curve_id_from_name:
 2533              		@ args = 0, pretend = 0, frame = 0
 2534              		@ frame_needed = 0, uses_anonymous_args = 0
 2535 0000 08B5     		push	{r3, lr}
 2536 0002 48B1     		cbz	r0, .L411
 2537 0004 FFF7FEFF 		bl	wc_ecc_get_curve_idx_from_name
 2538 0008 0028     		cmp	r0, #0
 2539 000a 04DB     		blt	.L409
 2540 000c 3422     		movs	r2, #52
 2541 000e 044B     		ldr	r3, .L412
 2542 0010 02FB0030 		mla	r0, r2, r0, r3
 2543 0014 4068     		ldr	r0, [r0, #4]
 2544              	.L409:
 2545 0016 08BD     		pop	{r3, pc}
 2546              	.L411:
 2547 0018 6FF0AC00 		mvn	r0, #172
 2548 001c FBE7     		b	.L409
 2549              	.L413:
 2550 001e 00BF     		.align	2
 2551              	.L412:
 2552 0020 00000000 		.word	.LANCHOR0
 2554              		.section	.text.wc_ecc_get_curve_id_from_params,"ax",%progbits
 2555              		.align	1
 2556              		.global	wc_ecc_get_curve_id_from_params
 2557              		.syntax unified
 2558              		.thumb
 2559              		.thumb_func
 2560              		.fpu fpv4-sp-d16
 2562              	wc_ecc_get_curve_id_from_params:
 2563              		@ args = 40, pretend = 0, frame = 0
 2564              		@ frame_needed = 0, uses_anonymous_args = 0
 2565 0000 2DE9F84F 		push	{r3, r4, r5, r6, r7, r8, r9, r10, fp, lr}
 2566 0004 DDF83CA0 		ldr	r10, [sp, #60]
 2567 0008 9146     		mov	r9, r2
 2568 000a 1F46     		mov	r7, r3
 2569 000c 0E46     		mov	r6, r1
 2570 000e DDF844B0 		ldr	fp, [sp, #68]
 2571 0012 0029     		cmp	r1, #0
 2572 0014 59D0     		beq	.L426
 2573 0016 002B     		cmp	r3, #0
 2574 0018 57D0     		beq	.L426
 2575 001a 0B9B     		ldr	r3, [sp, #44]
 2576 001c 002B     		cmp	r3, #0
 2577 001e 54D0     		beq	.L426
ARM GAS  /tmp/ccqDDmMm.s 			page 45


 2578 0020 0D9B     		ldr	r3, [sp, #52]
 2579 0022 002B     		cmp	r3, #0
 2580 0024 51D0     		beq	.L426
 2581 0026 BAF1000F 		cmp	r10, #0
 2582 002a 4ED0     		beq	.L426
 2583 002c BBF1000F 		cmp	fp, #0
 2584 0030 4BD0     		beq	.L426
 2585 0032 4FF00008 		mov	r8, #0
 2586 0036 0130     		adds	r0, r0, #1
 2587 0038 254C     		ldr	r4, .L427
 2588 003a C510     		asrs	r5, r0, #3
 2589              	.L416:
 2590 003c 2368     		ldr	r3, [r4]
 2591 003e 1BB9     		cbnz	r3, .L420
 2592 0040 4FF0FF30 		mov	r0, #-1
 2593              	.L414:
 2594 0044 BDE8F88F 		pop	{r3, r4, r5, r6, r7, r8, r9, r10, fp, pc}
 2595              	.L420:
 2596 0048 AB42     		cmp	r3, r5
 2597 004a 03D0     		beq	.L417
 2598              	.L418:
 2599 004c 08F10108 		add	r8, r8, #1
 2600 0050 3434     		adds	r4, r4, #52
 2601 0052 F3E7     		b	.L416
 2602              	.L417:
 2603 0054 0223     		movs	r3, #2
 2604 0056 4A46     		mov	r2, r9
 2605 0058 3146     		mov	r1, r6
 2606 005a E068     		ldr	r0, [r4, #12]
 2607 005c FFF7FEFF 		bl	wc_ecc_cmp_param
 2608 0060 0028     		cmp	r0, #0
 2609 0062 F3D1     		bne	.L418
 2610 0064 0223     		movs	r3, #2
 2611 0066 3946     		mov	r1, r7
 2612 0068 0A9A     		ldr	r2, [sp, #40]
 2613 006a 2069     		ldr	r0, [r4, #16]
 2614 006c FFF7FEFF 		bl	wc_ecc_cmp_param
 2615 0070 0028     		cmp	r0, #0
 2616 0072 EBD1     		bne	.L418
 2617 0074 DDE90B12 		ldrd	r1, r2, [sp, #44]
 2618 0078 0223     		movs	r3, #2
 2619 007a 6069     		ldr	r0, [r4, #20]
 2620 007c FFF7FEFF 		bl	wc_ecc_cmp_param
 2621 0080 0028     		cmp	r0, #0
 2622 0082 E3D1     		bne	.L418
 2623 0084 DDE90D12 		ldrd	r1, r2, [sp, #52]
 2624 0088 0223     		movs	r3, #2
 2625 008a A069     		ldr	r0, [r4, #24]
 2626 008c FFF7FEFF 		bl	wc_ecc_cmp_param
 2627 0090 0028     		cmp	r0, #0
 2628 0092 DBD1     		bne	.L418
 2629 0094 0223     		movs	r3, #2
 2630 0096 5146     		mov	r1, r10
 2631 0098 109A     		ldr	r2, [sp, #64]
 2632 009a E069     		ldr	r0, [r4, #28]
 2633 009c FFF7FEFF 		bl	wc_ecc_cmp_param
 2634 00a0 0028     		cmp	r0, #0
ARM GAS  /tmp/ccqDDmMm.s 			page 46


 2635 00a2 D3D1     		bne	.L418
 2636 00a4 0223     		movs	r3, #2
 2637 00a6 5946     		mov	r1, fp
 2638 00a8 129A     		ldr	r2, [sp, #72]
 2639 00aa 206A     		ldr	r0, [r4, #32]
 2640 00ac FFF7FEFF 		bl	wc_ecc_cmp_param
 2641 00b0 0028     		cmp	r0, #0
 2642 00b2 CBD1     		bne	.L418
 2643 00b4 236B     		ldr	r3, [r4, #48]
 2644 00b6 139A     		ldr	r2, [sp, #76]
 2645 00b8 9342     		cmp	r3, r2
 2646 00ba C7D1     		bne	.L418
 2647 00bc 3422     		movs	r2, #52
 2648 00be 044B     		ldr	r3, .L427
 2649 00c0 02FB0838 		mla	r8, r2, r8, r3
 2650 00c4 D8F80400 		ldr	r0, [r8, #4]
 2651 00c8 BCE7     		b	.L414
 2652              	.L426:
 2653 00ca 6FF0AC00 		mvn	r0, #172
 2654 00ce B9E7     		b	.L414
 2655              	.L428:
 2656              		.align	2
 2657              	.L427:
 2658 00d0 00000000 		.word	.LANCHOR0
 2660              		.section	.text.wc_ecc_get_curve_id_from_dp_params,"ax",%progbits
 2661              		.align	1
 2662              		.global	wc_ecc_get_curve_id_from_dp_params
 2663              		.syntax unified
 2664              		.thumb
 2665              		.thumb_func
 2666              		.fpu fpv4-sp-d16
 2668              	wc_ecc_get_curve_id_from_dp_params:
 2669              		@ args = 0, pretend = 0, frame = 8
 2670              		@ frame_needed = 0, uses_anonymous_args = 0
 2671 0000 F7B5     		push	{r0, r1, r2, r4, r5, r6, r7, lr}
 2672 0002 0446     		mov	r4, r0
 2673 0004 0028     		cmp	r0, #0
 2674 0006 77D0     		beq	.L442
 2675 0008 C368     		ldr	r3, [r0, #12]
 2676 000a 002B     		cmp	r3, #0
 2677 000c 74D0     		beq	.L442
 2678 000e 0369     		ldr	r3, [r0, #16]
 2679 0010 002B     		cmp	r3, #0
 2680 0012 71D0     		beq	.L442
 2681 0014 4369     		ldr	r3, [r0, #20]
 2682 0016 002B     		cmp	r3, #0
 2683 0018 6ED0     		beq	.L442
 2684 001a 8369     		ldr	r3, [r0, #24]
 2685 001c 002B     		cmp	r3, #0
 2686 001e 6BD0     		beq	.L442
 2687 0020 C369     		ldr	r3, [r0, #28]
 2688 0022 002B     		cmp	r3, #0
 2689 0024 68D0     		beq	.L442
 2690 0026 036A     		ldr	r3, [r0, #32]
 2691 0028 002B     		cmp	r3, #0
 2692 002a 65D0     		beq	.L442
 2693 002c 344D     		ldr	r5, .L443
ARM GAS  /tmp/ccqDDmMm.s 			page 47


 2694 002e 0027     		movs	r7, #0
 2695 0030 2E46     		mov	r6, r5
 2696              	.L431:
 2697 0032 2B68     		ldr	r3, [r5]
 2698 0034 1BB9     		cbnz	r3, .L435
 2699 0036 4FF0FF30 		mov	r0, #-1
 2700              	.L429:
 2701 003a 03B0     		add	sp, sp, #12
 2702              		@ sp needed
 2703 003c F0BD     		pop	{r4, r5, r6, r7, pc}
 2704              	.L435:
 2705 003e 2268     		ldr	r2, [r4]
 2706 0040 9A42     		cmp	r2, r3
 2707 0042 02D0     		beq	.L432
 2708              	.L433:
 2709 0044 0137     		adds	r7, r7, #1
 2710 0046 3435     		adds	r5, r5, #52
 2711 0048 F3E7     		b	.L431
 2712              	.L432:
 2713 004a E168     		ldr	r1, [r4, #12]
 2714 004c 0846     		mov	r0, r1
 2715 004e 0191     		str	r1, [sp, #4]
 2716 0050 FFF7FEFF 		bl	strlen
 2717 0054 0123     		movs	r3, #1
 2718 0056 0246     		mov	r2, r0
 2719 0058 0199     		ldr	r1, [sp, #4]
 2720 005a E868     		ldr	r0, [r5, #12]
 2721 005c FFF7FEFF 		bl	wc_ecc_cmp_param
 2722 0060 0028     		cmp	r0, #0
 2723 0062 EFD1     		bne	.L433
 2724 0064 2169     		ldr	r1, [r4, #16]
 2725 0066 0846     		mov	r0, r1
 2726 0068 0191     		str	r1, [sp, #4]
 2727 006a FFF7FEFF 		bl	strlen
 2728 006e 0123     		movs	r3, #1
 2729 0070 0246     		mov	r2, r0
 2730 0072 0199     		ldr	r1, [sp, #4]
 2731 0074 2869     		ldr	r0, [r5, #16]
 2732 0076 FFF7FEFF 		bl	wc_ecc_cmp_param
 2733 007a 0028     		cmp	r0, #0
 2734 007c E2D1     		bne	.L433
 2735 007e 6169     		ldr	r1, [r4, #20]
 2736 0080 0846     		mov	r0, r1
 2737 0082 0191     		str	r1, [sp, #4]
 2738 0084 FFF7FEFF 		bl	strlen
 2739 0088 0123     		movs	r3, #1
 2740 008a 0246     		mov	r2, r0
 2741 008c 0199     		ldr	r1, [sp, #4]
 2742 008e 6869     		ldr	r0, [r5, #20]
 2743 0090 FFF7FEFF 		bl	wc_ecc_cmp_param
 2744 0094 0028     		cmp	r0, #0
 2745 0096 D5D1     		bne	.L433
 2746 0098 A169     		ldr	r1, [r4, #24]
 2747 009a 0846     		mov	r0, r1
 2748 009c 0191     		str	r1, [sp, #4]
 2749 009e FFF7FEFF 		bl	strlen
 2750 00a2 0123     		movs	r3, #1
ARM GAS  /tmp/ccqDDmMm.s 			page 48


 2751 00a4 0246     		mov	r2, r0
 2752 00a6 0199     		ldr	r1, [sp, #4]
 2753 00a8 A869     		ldr	r0, [r5, #24]
 2754 00aa FFF7FEFF 		bl	wc_ecc_cmp_param
 2755 00ae 0028     		cmp	r0, #0
 2756 00b0 C8D1     		bne	.L433
 2757 00b2 E169     		ldr	r1, [r4, #28]
 2758 00b4 0846     		mov	r0, r1
 2759 00b6 0191     		str	r1, [sp, #4]
 2760 00b8 FFF7FEFF 		bl	strlen
 2761 00bc 0123     		movs	r3, #1
 2762 00be 0246     		mov	r2, r0
 2763 00c0 0199     		ldr	r1, [sp, #4]
 2764 00c2 E869     		ldr	r0, [r5, #28]
 2765 00c4 FFF7FEFF 		bl	wc_ecc_cmp_param
 2766 00c8 0028     		cmp	r0, #0
 2767 00ca BBD1     		bne	.L433
 2768 00cc 216A     		ldr	r1, [r4, #32]
 2769 00ce 0846     		mov	r0, r1
 2770 00d0 0191     		str	r1, [sp, #4]
 2771 00d2 FFF7FEFF 		bl	strlen
 2772 00d6 0123     		movs	r3, #1
 2773 00d8 0246     		mov	r2, r0
 2774 00da 0199     		ldr	r1, [sp, #4]
 2775 00dc 286A     		ldr	r0, [r5, #32]
 2776 00de FFF7FEFF 		bl	wc_ecc_cmp_param
 2777 00e2 0028     		cmp	r0, #0
 2778 00e4 AED1     		bne	.L433
 2779 00e6 226B     		ldr	r2, [r4, #48]
 2780 00e8 2B6B     		ldr	r3, [r5, #48]
 2781 00ea 9A42     		cmp	r2, r3
 2782 00ec AAD1     		bne	.L433
 2783 00ee 3423     		movs	r3, #52
 2784 00f0 03FB0766 		mla	r6, r3, r7, r6
 2785 00f4 7068     		ldr	r0, [r6, #4]
 2786 00f6 A0E7     		b	.L429
 2787              	.L442:
 2788 00f8 6FF0AC00 		mvn	r0, #172
 2789 00fc 9DE7     		b	.L429
 2790              	.L444:
 2791 00fe 00BF     		.align	2
 2792              	.L443:
 2793 0100 00000000 		.word	.LANCHOR0
 2795              		.section	.text.wc_ecc_get_curve_id_from_oid,"ax",%progbits
 2796              		.align	1
 2797              		.global	wc_ecc_get_curve_id_from_oid
 2798              		.syntax unified
 2799              		.thumb
 2800              		.thumb_func
 2801              		.fpu fpv4-sp-d16
 2803              	wc_ecc_get_curve_id_from_oid:
 2804              		@ args = 0, pretend = 0, frame = 0
 2805              		@ frame_needed = 0, uses_anonymous_args = 0
 2806 0000 0A46     		mov	r2, r1
 2807 0002 08B5     		push	{r3, lr}
 2808 0004 58B1     		cbz	r0, .L447
 2809 0006 0829     		cmp	r1, #8
ARM GAS  /tmp/ccqDDmMm.s 			page 49


 2810 0008 0CD1     		bne	.L448
 2811 000a 0146     		mov	r1, r0
 2812 000c 0748     		ldr	r0, .L450
 2813 000e FFF7FEFF 		bl	memcmp
 2814 0012 0028     		cmp	r0, #0
 2815 0014 14BF     		ite	ne
 2816 0016 4FF0FF30 		movne	r0, #-1
 2817 001a 0720     		moveq	r0, #7
 2818              	.L445:
 2819 001c 08BD     		pop	{r3, pc}
 2820              	.L447:
 2821 001e 6FF0AC00 		mvn	r0, #172
 2822 0022 FBE7     		b	.L445
 2823              	.L448:
 2824 0024 4FF0FF30 		mov	r0, #-1
 2825 0028 F8E7     		b	.L445
 2826              	.L451:
 2827 002a 00BF     		.align	2
 2828              	.L450:
 2829 002c 00000000 		.word	.LANCHOR1
 2831              		.section	.text.wc_ecc_get_curve_params,"ax",%progbits
 2832              		.align	1
 2833              		.global	wc_ecc_get_curve_params
 2834              		.syntax unified
 2835              		.thumb
 2836              		.thumb_func
 2837              		.fpu fpv4-sp-d16
 2839              	wc_ecc_get_curve_params:
 2840              		@ args = 0, pretend = 0, frame = 0
 2841              		@ frame_needed = 0, uses_anonymous_args = 0
 2842              		@ link register save eliminated.
 2843 0000 0128     		cmp	r0, #1
 2844 0002 9DBF     		ittte	ls
 2845 0004 3422     		movls	r2, #52
 2846 0006 024B     		ldrls	r3, .L455
 2847 0008 02FB0030 		mlals	r0, r2, r0, r3
 2848 000c 0020     		movhi	r0, #0
 2849 000e 7047     		bx	lr
 2850              	.L456:
 2851              		.align	2
 2852              	.L455:
 2853 0010 00000000 		.word	.LANCHOR0
 2855              		.section	.text.wc_ecc_point_is_at_infinity,"ax",%progbits
 2856              		.align	1
 2857              		.global	wc_ecc_point_is_at_infinity
 2858              		.syntax unified
 2859              		.thumb
 2860              		.thumb_func
 2861              		.fpu fpv4-sp-d16
 2863              	wc_ecc_point_is_at_infinity:
 2864              		@ args = 0, pretend = 0, frame = 0
 2865              		@ frame_needed = 0, uses_anonymous_args = 0
 2866              		@ link register save eliminated.
 2867 0000 38B1     		cbz	r0, .L459
 2868 0002 0388     		ldrh	r3, [r0]
 2869 0004 43B9     		cbnz	r3, .L460
 2870 0006 B0F89000 		ldrh	r0, [r0, #144]
ARM GAS  /tmp/ccqDDmMm.s 			page 50


 2871 000a B0FA80F0 		clz	r0, r0
 2872 000e 4009     		lsrs	r0, r0, #5
 2873 0010 7047     		bx	lr
 2874              	.L459:
 2875 0012 6FF0AC00 		mvn	r0, #172
 2876 0016 7047     		bx	lr
 2877              	.L460:
 2878 0018 0020     		movs	r0, #0
 2879 001a 7047     		bx	lr
 2881              		.section	.text.wc_ecc_gen_k,"ax",%progbits
 2882              		.align	1
 2883              		.global	wc_ecc_gen_k
 2884              		.syntax unified
 2885              		.thumb
 2886              		.thumb_func
 2887              		.fpu fpv4-sp-d16
 2889              	wc_ecc_gen_k:
 2890              		@ args = 0, pretend = 0, frame = 88
 2891              		@ frame_needed = 0, uses_anonymous_args = 0
 2892 0000 70B5     		push	{r4, r5, r6, lr}
 2893 0002 1546     		mov	r5, r2
 2894 0004 1E46     		mov	r6, r3
 2895 0006 96B0     		sub	sp, sp, #88
 2896 0008 68B3     		cbz	r0, .L469
 2897 000a 4229     		cmp	r1, #66
 2898 000c 2BD8     		bhi	.L469
 2899 000e 52B3     		cbz	r2, .L469
 2900 0010 4BB3     		cbz	r3, .L469
 2901 0012 01F10802 		add	r2, r1, #8
 2902 0016 03A9     		add	r1, sp, #12
 2903 0018 0192     		str	r2, [sp, #4]
 2904 001a FFF7FEFF 		bl	wc_RNG_GenerateBlock
 2905 001e 019A     		ldr	r2, [sp, #4]
 2906 0020 0446     		mov	r4, r0
 2907 0022 80B9     		cbnz	r0, .L463
 2908 0024 2846     		mov	r0, r5
 2909 0026 03A9     		add	r1, sp, #12
 2910 0028 FFF7FEFF 		bl	sp_read_unsigned_bin
 2911 002c 0446     		mov	r4, r0
 2912 002e 50B9     		cbnz	r0, .L463
 2913 0030 3146     		mov	r1, r6
 2914 0032 2846     		mov	r0, r5
 2915 0034 FFF7FEFF 		bl	sp_cmp
 2916 0038 0130     		adds	r0, r0, #1
 2917 003a 0BD1     		bne	.L464
 2918              	.L465:
 2919 003c 2B88     		ldrh	r3, [r5]
 2920 003e 002B     		cmp	r3, #0
 2921 0040 08BF     		it	eq
 2922 0042 6FF07804 		mvneq	r4, #120
 2923              	.L463:
 2924 0046 4A21     		movs	r1, #74
 2925 0048 03A8     		add	r0, sp, #12
 2926 004a FFF7FEFF 		bl	ForceZero
 2927              	.L461:
 2928 004e 2046     		mov	r0, r4
 2929 0050 16B0     		add	sp, sp, #88
ARM GAS  /tmp/ccqDDmMm.s 			page 51


 2930              		@ sp needed
 2931 0052 70BD     		pop	{r4, r5, r6, pc}
 2932              	.L464:
 2933 0054 2A46     		mov	r2, r5
 2934 0056 3146     		mov	r1, r6
 2935 0058 2846     		mov	r0, r5
 2936 005a FFF7FEFF 		bl	sp_mod
 2937 005e 0028     		cmp	r0, #0
 2938 0060 ECD0     		beq	.L465
 2939 0062 0446     		mov	r4, r0
 2940 0064 EFE7     		b	.L463
 2941              	.L469:
 2942 0066 6FF0AC04 		mvn	r4, #172
 2943 006a F0E7     		b	.L461
 2945              		.section	.text.wc_ecc_gen_z,"ax",%progbits
 2946              		.align	1
 2947              		.syntax unified
 2948              		.thumb
 2949              		.thumb_func
 2950              		.fpu fpv4-sp-d16
 2952              	wc_ecc_gen_z:
 2953              		@ args = 16, pretend = 0, frame = 0
 2954              		@ frame_needed = 0, uses_anonymous_args = 0
 2955 0000 2DE9F14F 		push	{r0, r4, r5, r6, r7, r8, r9, r10, fp, lr}
 2956 0004 8146     		mov	r9, r0
 2957 0006 DDE90C6B 		ldrd	r6, fp, [sp, #48]
 2958 000a DDE90A78 		ldrd	r7, r8, [sp, #40]
 2959 000e 8A46     		mov	r10, r1
 2960 0010 5846     		mov	r0, fp
 2961 0012 1946     		mov	r1, r3
 2962 0014 1446     		mov	r4, r2
 2963 0016 1D46     		mov	r5, r3
 2964 0018 FFF7FEFF 		bl	sp_mont_norm
 2965 001c 0028     		cmp	r0, #0
 2966 001e 54D1     		bne	.L473
 2967 0020 2B46     		mov	r3, r5
 2968 0022 3246     		mov	r2, r6
 2969 0024 5146     		mov	r1, r10
 2970 0026 4846     		mov	r0, r9
 2971 0028 FFF7FEFF 		bl	wc_ecc_gen_k
 2972 002c 0028     		cmp	r0, #0
 2973 002e 4CD1     		bne	.L473
 2974 0030 3346     		mov	r3, r6
 2975 0032 2A46     		mov	r2, r5
 2976 0034 5946     		mov	r1, fp
 2977 0036 3046     		mov	r0, r6
 2978 0038 FFF7FEFF 		bl	sp_mulmod
 2979 003c 0028     		cmp	r0, #0
 2980 003e 44D1     		bne	.L473
 2981 0040 04F59079 		add	r9, r4, #288
 2982 0044 4A46     		mov	r2, r9
 2983 0046 3146     		mov	r1, r6
 2984 0048 4846     		mov	r0, r9
 2985 004a FFF7FEFF 		bl	sp_mul
 2986 004e E0BB     		cbnz	r0, .L473
 2987 0050 0346     		mov	r3, r0
 2988 0052 3A46     		mov	r2, r7
ARM GAS  /tmp/ccqDDmMm.s 			page 52


 2989 0054 2946     		mov	r1, r5
 2990 0056 4846     		mov	r0, r9
 2991 0058 FFF7FEFF 		bl	sp_mont_red_ex
 2992 005c A8BB     		cbnz	r0, .L473
 2993 005e 4146     		mov	r1, r8
 2994 0060 3046     		mov	r0, r6
 2995 0062 FFF7FEFF 		bl	sp_sqr
 2996 0066 80BB     		cbnz	r0, .L473
 2997 0068 0346     		mov	r3, r0
 2998 006a 3A46     		mov	r2, r7
 2999 006c 2946     		mov	r1, r5
 3000 006e 4046     		mov	r0, r8
 3001 0070 FFF7FEFF 		bl	sp_mont_red_ex
 3002 0074 48BB     		cbnz	r0, .L473
 3003 0076 3246     		mov	r2, r6
 3004 0078 4146     		mov	r1, r8
 3005 007a 3046     		mov	r0, r6
 3006 007c FFF7FEFF 		bl	sp_mul
 3007 0080 18BB     		cbnz	r0, .L473
 3008 0082 0346     		mov	r3, r0
 3009 0084 3A46     		mov	r2, r7
 3010 0086 2946     		mov	r1, r5
 3011 0088 3046     		mov	r0, r6
 3012 008a FFF7FEFF 		bl	sp_mont_red_ex
 3013 008e E0B9     		cbnz	r0, .L473
 3014 0090 2246     		mov	r2, r4
 3015 0092 4146     		mov	r1, r8
 3016 0094 2046     		mov	r0, r4
 3017 0096 FFF7FEFF 		bl	sp_mul
 3018 009a B0B9     		cbnz	r0, .L473
 3019 009c 0023     		movs	r3, #0
 3020 009e 3A46     		mov	r2, r7
 3021 00a0 2946     		mov	r1, r5
 3022 00a2 2046     		mov	r0, r4
 3023 00a4 FFF7FEFF 		bl	sp_mont_red_ex
 3024 00a8 78B9     		cbnz	r0, .L473
 3025 00aa 9034     		adds	r4, r4, #144
 3026 00ac 2246     		mov	r2, r4
 3027 00ae 3146     		mov	r1, r6
 3028 00b0 2046     		mov	r0, r4
 3029 00b2 FFF7FEFF 		bl	sp_mul
 3030 00b6 40B9     		cbnz	r0, .L473
 3031 00b8 0346     		mov	r3, r0
 3032 00ba 3A46     		mov	r2, r7
 3033 00bc 2946     		mov	r1, r5
 3034 00be 2046     		mov	r0, r4
 3035 00c0 01B0     		add	sp, sp, #4
 3036              		@ sp needed
 3037 00c2 BDE8F04F 		pop	{r4, r5, r6, r7, r8, r9, r10, fp, lr}
 3038 00c6 FFF7FEBF 		b	sp_mont_red_ex
 3039              	.L473:
 3040 00ca 01B0     		add	sp, sp, #4
 3041              		@ sp needed
 3042 00cc BDE8F08F 		pop	{r4, r5, r6, r7, r8, r9, r10, fp, pc}
 3044              		.section	.text.wc_ecc_init_ex,"ax",%progbits
 3045              		.align	1
 3046              		.global	wc_ecc_init_ex
ARM GAS  /tmp/ccqDDmMm.s 			page 53


 3047              		.syntax unified
 3048              		.thumb
 3049              		.thumb_func
 3050              		.fpu fpv4-sp-d16
 3052              	wc_ecc_init_ex:
 3053              		@ args = 0, pretend = 0, frame = 0
 3054              		@ frame_needed = 0, uses_anonymous_args = 0
 3055 0000 37B5     		push	{r0, r1, r2, r4, r5, lr}
 3056 0002 0D46     		mov	r5, r1
 3057 0004 0446     		mov	r4, r0
 3058 0006 A8B1     		cbz	r0, .L477
 3059 0008 4FF41B72 		mov	r2, #620
 3060 000c 0021     		movs	r1, #0
 3061 000e FFF7FEFF 		bl	memset
 3062 0012 0023     		movs	r3, #0
 3063 0014 04F1A802 		add	r2, r4, #168
 3064 0018 CDE90033 		strd	r3, r3, [sp]
 3065 001c 04F11801 		add	r1, r4, #24
 3066 0020 04F59C73 		add	r3, r4, #312
 3067 0024 04F5E870 		add	r0, r4, #464
 3068 0028 FFF7FEFF 		bl	sp_init_multi
 3069 002c 28B9     		cbnz	r0, .L478
 3070 002e 6561     		str	r5, [r4, #20]
 3071              	.L475:
 3072 0030 03B0     		add	sp, sp, #12
 3073              		@ sp needed
 3074 0032 30BD     		pop	{r4, r5, pc}
 3075              	.L477:
 3076 0034 6FF0AC00 		mvn	r0, #172
 3077 0038 FAE7     		b	.L475
 3078              	.L478:
 3079 003a 6FF07C00 		mvn	r0, #124
 3080 003e F7E7     		b	.L475
 3082              		.section	.text.wc_ecc_key_new,"ax",%progbits
 3083              		.align	1
 3084              		.global	wc_ecc_key_new
 3085              		.syntax unified
 3086              		.thumb
 3087              		.thumb_func
 3088              		.fpu fpv4-sp-d16
 3090              	wc_ecc_key_new:
 3091              		@ args = 0, pretend = 0, frame = 8
 3092              		@ frame_needed = 0, uses_anonymous_args = 0
 3093 0000 13B5     		push	{r0, r1, r4, lr}
 3094 0002 0190     		str	r0, [sp, #4]
 3095 0004 4FF41B70 		mov	r0, #620
 3096 0008 FFF7FEFF 		bl	wolfSSL_Malloc
 3097 000c 0446     		mov	r4, r0
 3098 000e 48B1     		cbz	r0, .L479
 3099 0010 6FF00102 		mvn	r2, #1
 3100 0014 0199     		ldr	r1, [sp, #4]
 3101 0016 FFF7FEFF 		bl	wc_ecc_init_ex
 3102 001a 18B1     		cbz	r0, .L479
 3103 001c 2046     		mov	r0, r4
 3104 001e FFF7FEFF 		bl	wolfSSL_Free
 3105 0022 0024     		movs	r4, #0
 3106              	.L479:
ARM GAS  /tmp/ccqDDmMm.s 			page 54


 3107 0024 2046     		mov	r0, r4
 3108 0026 02B0     		add	sp, sp, #8
 3109              		@ sp needed
 3110 0028 10BD     		pop	{r4, pc}
 3112              		.section	.text.wc_ecc_init,"ax",%progbits
 3113              		.align	1
 3114              		.global	wc_ecc_init
 3115              		.syntax unified
 3116              		.thumb
 3117              		.thumb_func
 3118              		.fpu fpv4-sp-d16
 3120              	wc_ecc_init:
 3121              		@ args = 0, pretend = 0, frame = 0
 3122              		@ frame_needed = 0, uses_anonymous_args = 0
 3123              		@ link register save eliminated.
 3124 0000 6FF00102 		mvn	r2, #1
 3125 0004 0021     		movs	r1, #0
 3126 0006 FFF7FEBF 		b	wc_ecc_init_ex
 3128              		.section	.text.wc_ecc_set_flags,"ax",%progbits
 3129              		.align	1
 3130              		.global	wc_ecc_set_flags
 3131              		.syntax unified
 3132              		.thumb
 3133              		.thumb_func
 3134              		.fpu fpv4-sp-d16
 3136              	wc_ecc_set_flags:
 3137              		@ args = 0, pretend = 0, frame = 0
 3138              		@ frame_needed = 0, uses_anonymous_args = 0
 3139              		@ link register save eliminated.
 3140 0000 20B1     		cbz	r0, .L490
 3141 0002 C368     		ldr	r3, [r0, #12]
 3142 0004 0B43     		orrs	r3, r3, r1
 3143 0006 C360     		str	r3, [r0, #12]
 3144 0008 0020     		movs	r0, #0
 3145 000a 7047     		bx	lr
 3146              	.L490:
 3147 000c 6FF0AC00 		mvn	r0, #172
 3148 0010 7047     		bx	lr
 3150              		.section	.text.wc_ecc_free,"ax",%progbits
 3151              		.align	1
 3152              		.global	wc_ecc_free
 3153              		.syntax unified
 3154              		.thumb
 3155              		.thumb_func
 3156              		.fpu fpv4-sp-d16
 3158              	wc_ecc_free:
 3159              		@ args = 0, pretend = 0, frame = 0
 3160              		@ frame_needed = 0, uses_anonymous_args = 0
 3161 0000 10B5     		push	{r4, lr}
 3162 0002 0446     		mov	r4, r0
 3163 0004 70B1     		cbz	r0, .L492
 3164 0006 1830     		adds	r0, r0, #24
 3165 0008 FFF7FEFF 		bl	sp_clear
 3166 000c 04F1A800 		add	r0, r4, #168
 3167 0010 FFF7FEFF 		bl	sp_clear
 3168 0014 04F59C70 		add	r0, r4, #312
 3169 0018 FFF7FEFF 		bl	sp_clear
ARM GAS  /tmp/ccqDDmMm.s 			page 55


 3170 001c 04F5E870 		add	r0, r4, #464
 3171 0020 FFF7FEFF 		bl	sp_forcezero
 3172              	.L492:
 3173 0024 0020     		movs	r0, #0
 3174 0026 10BD     		pop	{r4, pc}
 3176              		.section	.text.wc_ecc_key_free,"ax",%progbits
 3177              		.align	1
 3178              		.global	wc_ecc_key_free
 3179              		.syntax unified
 3180              		.thumb
 3181              		.thumb_func
 3182              		.fpu fpv4-sp-d16
 3184              	wc_ecc_key_free:
 3185              		@ args = 0, pretend = 0, frame = 0
 3186              		@ frame_needed = 0, uses_anonymous_args = 0
 3187 0000 10B5     		push	{r4, lr}
 3188 0002 0446     		mov	r4, r0
 3189 0004 58B1     		cbz	r0, .L496
 3190 0006 FFF7FEFF 		bl	wc_ecc_free
 3191 000a 2046     		mov	r0, r4
 3192 000c 4FF41B71 		mov	r1, #620
 3193 0010 FFF7FEFF 		bl	ForceZero
 3194 0014 2046     		mov	r0, r4
 3195 0016 BDE81040 		pop	{r4, lr}
 3196 001a FFF7FEBF 		b	wolfSSL_Free
 3197              	.L496:
 3198 001e 10BD     		pop	{r4, pc}
 3200              		.section	.text.ecc_projective_add_point_safe,"ax",%progbits
 3201              		.align	1
 3202              		.global	ecc_projective_add_point_safe
 3203              		.syntax unified
 3204              		.thumb
 3205              		.thumb_func
 3206              		.fpu fpv4-sp-d16
 3208              	ecc_projective_add_point_safe:
 3209              		@ args = 12, pretend = 0, frame = 0
 3210              		@ frame_needed = 0, uses_anonymous_args = 0
 3211 0000 2DE9F347 		push	{r0, r1, r4, r5, r6, r7, r8, r9, r10, lr}
 3212 0004 0388     		ldrh	r3, [r0]
 3213 0006 8146     		mov	r9, r0
 3214 0008 DDE90A67 		ldrd	r6, r7, [sp, #40]
 3215 000c 8846     		mov	r8, r1
 3216 000e 1446     		mov	r4, r2
 3217 0010 0C9D     		ldr	r5, [sp, #48]
 3218 0012 4BB9     		cbnz	r3, .L499
 3219 0014 B0F89030 		ldrh	r3, [r0, #144]
 3220 0018 33B9     		cbnz	r3, .L499
 3221 001a 1146     		mov	r1, r2
 3222 001c 4046     		mov	r0, r8
 3223              	.L514:
 3224 001e 02B0     		add	sp, sp, #8
 3225              		@ sp needed
 3226 0020 BDE8F047 		pop	{r4, r5, r6, r7, r8, r9, r10, lr}
 3227 0024 FFF7FEBF 		b	wc_ecc_copy_point
 3228              	.L499:
 3229 0028 B8F80030 		ldrh	r3, [r8]
 3230 002c 2BB9     		cbnz	r3, .L500
ARM GAS  /tmp/ccqDDmMm.s 			page 56


 3231 002e B8F89030 		ldrh	r3, [r8, #144]
 3232 0032 13B9     		cbnz	r3, .L500
 3233 0034 2146     		mov	r1, r4
 3234 0036 4846     		mov	r0, r9
 3235 0038 F1E7     		b	.L514
 3236              	.L500:
 3237 003a 4146     		mov	r1, r8
 3238 003c 4846     		mov	r0, r9
 3239 003e FFF7FEFF 		bl	sp_cmp
 3240 0042 60BB     		cbnz	r0, .L501
 3241 0044 08F59071 		add	r1, r8, #288
 3242 0048 09F59070 		add	r0, r9, #288
 3243 004c FFF7FEFF 		bl	sp_cmp
 3244 0050 8246     		mov	r10, r0
 3245 0052 20BB     		cbnz	r0, .L501
 3246 0054 08F19001 		add	r1, r8, #144
 3247 0058 09F19000 		add	r0, r9, #144
 3248 005c FFF7FEFF 		bl	sp_cmp
 3249 0060 20B9     		cbnz	r0, .L502
 3250              	.L507:
 3251 0062 3B46     		mov	r3, r7
 3252 0064 3246     		mov	r2, r6
 3253 0066 2146     		mov	r1, r4
 3254 0068 4046     		mov	r0, r8
 3255 006a 3FE0     		b	.L515
 3256              	.L502:
 3257 006c 5146     		mov	r1, r10
 3258              	.L519:
 3259 006e 2046     		mov	r0, r4
 3260 0070 FFF7FEFF 		bl	sp_set
 3261 0074 68B9     		cbnz	r0, .L498
 3262 0076 0146     		mov	r1, r0
 3263 0078 04F19000 		add	r0, r4, #144
 3264 007c FFF7FEFF 		bl	sp_set
 3265 0080 38B9     		cbnz	r0, .L498
 3266 0082 0121     		movs	r1, #1
 3267 0084 04F59070 		add	r0, r4, #288
 3268 0088 FFF7FEFF 		bl	sp_set
 3269 008c 08B9     		cbnz	r0, .L498
 3270 008e 1DB9     		cbnz	r5, .L504
 3271              	.L513:
 3272 0090 0020     		movs	r0, #0
 3273              	.L498:
 3274 0092 02B0     		add	sp, sp, #8
 3275              		@ sp needed
 3276 0094 BDE8F087 		pop	{r4, r5, r6, r7, r8, r9, r10, pc}
 3277              	.L504:
 3278 0098 0123     		movs	r3, #1
 3279 009a 2B60     		str	r3, [r5]
 3280 009c F8E7     		b	.L513
 3281              	.L501:
 3282 009e 3346     		mov	r3, r6
 3283 00a0 2246     		mov	r2, r4
 3284 00a2 4146     		mov	r1, r8
 3285 00a4 4846     		mov	r0, r9
 3286 00a6 0097     		str	r7, [sp]
 3287 00a8 FFF7FEFF 		bl	_ecc_projective_add_point.isra.0
ARM GAS  /tmp/ccqDDmMm.s 			page 57


 3288 00ac 0028     		cmp	r0, #0
 3289 00ae F0D1     		bne	.L498
 3290 00b0 B4F82031 		ldrh	r3, [r4, #288]
 3291 00b4 002B     		cmp	r3, #0
 3292 00b6 EBD1     		bne	.L513
 3293 00b8 2388     		ldrh	r3, [r4]
 3294 00ba E3B9     		cbnz	r3, .L506
 3295 00bc B4F89030 		ldrh	r3, [r4, #144]
 3296 00c0 CBB9     		cbnz	r3, .L506
 3297 00c2 B8F82031 		ldrh	r3, [r8, #288]
 3298 00c6 002B     		cmp	r3, #0
 3299 00c8 CBD1     		bne	.L507
 3300 00ca 2146     		mov	r1, r4
 3301 00cc 4046     		mov	r0, r8
 3302 00ce FFF7FEFF 		bl	wc_ecc_copy_point
 3303 00d2 0028     		cmp	r0, #0
 3304 00d4 DDD1     		bne	.L498
 3305 00d6 3146     		mov	r1, r6
 3306 00d8 04F59070 		add	r0, r4, #288
 3307 00dc FFF7FEFF 		bl	sp_mont_norm
 3308 00e0 0028     		cmp	r0, #0
 3309 00e2 D6D1     		bne	.L498
 3310 00e4 3B46     		mov	r3, r7
 3311 00e6 3246     		mov	r2, r6
 3312 00e8 2146     		mov	r1, r4
 3313 00ea 2046     		mov	r0, r4
 3314              	.L515:
 3315 00ec 02B0     		add	sp, sp, #8
 3316              		@ sp needed
 3317 00ee BDE8F047 		pop	{r4, r5, r6, r7, r8, r9, r10, lr}
 3318 00f2 FFF7FEBF 		b	_ecc_projective_dbl_point.constprop.0
 3319              	.L506:
 3320 00f6 0021     		movs	r1, #0
 3321 00f8 B9E7     		b	.L519
 3323              		.section	.text.ecc_projective_dbl_point_safe,"ax",%progbits
 3324              		.align	1
 3325              		.global	ecc_projective_dbl_point_safe
 3326              		.syntax unified
 3327              		.thumb
 3328              		.thumb_func
 3329              		.fpu fpv4-sp-d16
 3331              	ecc_projective_dbl_point_safe:
 3332              		@ args = 4, pretend = 0, frame = 0
 3333              		@ frame_needed = 0, uses_anonymous_args = 0
 3334 0000 70B5     		push	{r4, r5, r6, lr}
 3335 0002 0688     		ldrh	r6, [r0]
 3336 0004 1A46     		mov	r2, r3
 3337 0006 0546     		mov	r5, r0
 3338 0008 0C46     		mov	r4, r1
 3339 000a 049B     		ldr	r3, [sp, #16]
 3340 000c 36B9     		cbnz	r6, .L521
 3341 000e B0F89060 		ldrh	r6, [r0, #144]
 3342 0012 1EB9     		cbnz	r6, .L521
 3343 0014 BDE87040 		pop	{r4, r5, r6, lr}
 3344 0018 FFF7FEBF 		b	wc_ecc_copy_point
 3345              	.L521:
 3346 001c 2146     		mov	r1, r4
ARM GAS  /tmp/ccqDDmMm.s 			page 58


 3347 001e 2846     		mov	r0, r5
 3348 0020 FFF7FEFF 		bl	_ecc_projective_dbl_point.constprop.0
 3349 0024 98B9     		cbnz	r0, .L520
 3350 0026 B4F82011 		ldrh	r1, [r4, #288]
 3351 002a 81B9     		cbnz	r1, .L520
 3352 002c 2046     		mov	r0, r4
 3353 002e FFF7FEFF 		bl	sp_set
 3354 0032 60B9     		cbnz	r0, .L520
 3355 0034 0146     		mov	r1, r0
 3356 0036 04F19000 		add	r0, r4, #144
 3357 003a FFF7FEFF 		bl	sp_set
 3358 003e 30B9     		cbnz	r0, .L520
 3359 0040 04F59070 		add	r0, r4, #288
 3360 0044 0121     		movs	r1, #1
 3361 0046 BDE87040 		pop	{r4, r5, r6, lr}
 3362 004a FFF7FEBF 		b	sp_set
 3363              	.L520:
 3364 004e 70BD     		pop	{r4, r5, r6, pc}
 3366              		.section	.text.ecc_mulmod,"ax",%progbits
 3367              		.align	1
 3368              		.syntax unified
 3369              		.thumb
 3370              		.thumb_func
 3371              		.fpu fpv4-sp-d16
 3373              	ecc_mulmod:
 3374              		@ args = 16, pretend = 0, frame = 32
 3375              		@ frame_needed = 0, uses_anonymous_args = 0
 3376 0000 2DE9F04F 		push	{r4, r5, r6, r7, r8, r9, r10, fp, lr}
 3377 0004 8DB0     		sub	sp, sp, #52
 3378 0006 179D     		ldr	r5, [sp, #92]
 3379 0008 1C46     		mov	r4, r3
 3380 000a 0590     		str	r0, [sp, #20]
 3381 000c 2846     		mov	r0, r5
 3382 000e 0F46     		mov	r7, r1
 3383 0010 0692     		str	r2, [sp, #24]
 3384 0012 DDF86490 		ldr	r9, [sp, #100]
 3385 0016 FFF7FEFF 		bl	sp_count_bits
 3386 001a A368     		ldr	r3, [r4, #8]
 3387 001c 8046     		mov	r8, r0
 3388 001e 9020     		movs	r0, #144
 3389 0020 0493     		str	r3, [sp, #16]
 3390 0022 FFF7FEFF 		bl	wolfSSL_Malloc
 3391 0026 0646     		mov	r6, r0
 3392 0028 0028     		cmp	r0, #0
 3393 002a 00F09781 		beq	.L537
 3394 002e FFF7FEFF 		bl	sp_init
 3395 0032 0246     		mov	r2, r0
 3396 0034 0028     		cmp	r0, #0
 3397 0036 47D1     		bne	.L535
 3398 0038 3846     		mov	r0, r7
 3399 003a 2168     		ldr	r1, [r4]
 3400 003c FFF7FEFF 		bl	sp_copy
 3401 0040 0246     		mov	r2, r0
 3402 0042 0028     		cmp	r0, #0
 3403 0044 40D1     		bne	.L535
 3404 0046 2168     		ldr	r1, [r4]
 3405 0048 07F1900B 		add	fp, r7, #144
ARM GAS  /tmp/ccqDDmMm.s 			page 59


 3406 004c 5846     		mov	r0, fp
 3407 004e 9031     		adds	r1, r1, #144
 3408 0050 FFF7FEFF 		bl	sp_copy
 3409 0054 0246     		mov	r2, r0
 3410 0056 0028     		cmp	r0, #0
 3411 0058 36D1     		bne	.L535
 3412 005a 2168     		ldr	r1, [r4]
 3413 005c 07F5907A 		add	r10, r7, #288
 3414 0060 5046     		mov	r0, r10
 3415 0062 01F59071 		add	r1, r1, #288
 3416 0066 FFF7FEFF 		bl	sp_copy
 3417 006a 0246     		mov	r2, r0
 3418 006c 60BB     		cbnz	r0, .L535
 3419 006e 3846     		mov	r0, r7
 3420 0070 6168     		ldr	r1, [r4, #4]
 3421 0072 FFF7FEFF 		bl	sp_copy
 3422 0076 0246     		mov	r2, r0
 3423 0078 30BB     		cbnz	r0, .L535
 3424 007a 6168     		ldr	r1, [r4, #4]
 3425 007c 5846     		mov	r0, fp
 3426 007e 9031     		adds	r1, r1, #144
 3427 0080 FFF7FEFF 		bl	sp_copy
 3428 0084 0246     		mov	r2, r0
 3429 0086 F8B9     		cbnz	r0, .L535
 3430 0088 6168     		ldr	r1, [r4, #4]
 3431 008a 5046     		mov	r0, r10
 3432 008c 01F59071 		add	r1, r1, #288
 3433 0090 FFF7FEFF 		bl	sp_copy
 3434 0094 0246     		mov	r2, r0
 3435 0096 B8B9     		cbnz	r0, .L535
 3436 0098 B9F1000F 		cmp	r9, #0
 3437 009c 1AD1     		bne	.L526
 3438              	.L529:
 3439 009e 2846     		mov	r0, r5
 3440 00a0 FFF7FEFF 		bl	sp_count_bits
 3441 00a4 431C     		adds	r3, r0, #1
 3442 00a6 0793     		str	r3, [sp, #28]
 3443 00a8 059B     		ldr	r3, [sp, #20]
 3444 00aa DDE90410 		ldrd	r1, r0, [sp, #16]
 3445 00ae 5B68     		ldr	r3, [r3, #4]
 3446 00b0 4FEA5308 		lsr	r8, r3, #1
 3447 00b4 079B     		ldr	r3, [sp, #28]
 3448 00b6 202B     		cmp	r3, #32
 3449 00b8 A8BF     		it	ge
 3450 00ba 2023     		movge	r3, #32
 3451 00bc 9A46     		mov	r10, r3
 3452 00be FFF7FEFF 		bl	sp_copy
 3453 00c2 0246     		mov	r2, r0
 3454 00c4 0028     		cmp	r0, #0
 3455 00c6 2DD0     		beq	.L541
 3456              	.L535:
 3457 00c8 3046     		mov	r0, r6
 3458 00ca 0492     		str	r2, [sp, #16]
 3459 00cc FFF7FEFF 		bl	wolfSSL_Free
 3460 00d0 049A     		ldr	r2, [sp, #16]
 3461 00d2 45E1     		b	.L523
 3462              	.L526:
ARM GAS  /tmp/ccqDDmMm.s 			page 60


 3463 00d4 A368     		ldr	r3, [r4, #8]
 3464 00d6 049A     		ldr	r2, [sp, #16]
 3465 00d8 08F10701 		add	r1, r8, #7
 3466 00dc 0392     		str	r2, [sp, #12]
 3467 00de 03F19002 		add	r2, r3, #144
 3468 00e2 CDE90132 		strd	r3, r2, [sp, #4]
 3469 00e6 189B     		ldr	r3, [sp, #96]
 3470 00e8 2268     		ldr	r2, [r4]
 3471 00ea C910     		asrs	r1, r1, #3
 3472 00ec 0093     		str	r3, [sp]
 3473 00ee 4846     		mov	r0, r9
 3474 00f0 2B46     		mov	r3, r5
 3475 00f2 0791     		str	r1, [sp, #28]
 3476 00f4 FFF7FEFF 		bl	wc_ecc_gen_z
 3477 00f8 0246     		mov	r2, r0
 3478 00fa 0028     		cmp	r0, #0
 3479 00fc E4D1     		bne	.L535
 3480 00fe A368     		ldr	r3, [r4, #8]
 3481 0100 049A     		ldr	r2, [sp, #16]
 3482 0102 4846     		mov	r0, r9
 3483 0104 0392     		str	r2, [sp, #12]
 3484 0106 03F19002 		add	r2, r3, #144
 3485 010a CDE90132 		strd	r3, r2, [sp, #4]
 3486 010e 189B     		ldr	r3, [sp, #96]
 3487 0110 6268     		ldr	r2, [r4, #4]
 3488 0112 0093     		str	r3, [sp]
 3489 0114 0799     		ldr	r1, [sp, #28]
 3490 0116 2B46     		mov	r3, r5
 3491 0118 FFF7FEFF 		bl	wc_ecc_gen_z
 3492 011c 0246     		mov	r2, r0
 3493 011e 0028     		cmp	r0, #0
 3494 0120 D2D1     		bne	.L535
 3495 0122 BCE7     		b	.L529
 3496              	.L541:
 3497 0124 2988     		ldrh	r1, [r5]
 3498 0126 0498     		ldr	r0, [sp, #16]
 3499 0128 0131     		adds	r1, r1, #1
 3500 012a FFF7FEFF 		bl	sp_grow
 3501 012e 0123     		movs	r3, #1
 3502 0130 0246     		mov	r2, r0
 3503 0132 9946     		mov	r9, r3
 3504 0134 9B46     		mov	fp, r3
 3505              	.L530:
 3506 0136 002A     		cmp	r2, #0
 3507 0138 C6D1     		bne	.L535
 3508 013a 079A     		ldr	r2, [sp, #28]
 3509 013c 9345     		cmp	fp, r2
 3510 013e C0F2C080 		blt	.L533
 3511 0142 0096     		str	r6, [sp]
 3512 0144 83F00103 		eor	r3, r3, #1
 3513 0148 2A88     		ldrh	r2, [r5]
 3514 014a D4E90001 		ldrd	r0, r1, [r4]
 3515 014e 0493     		str	r3, [sp, #16]
 3516 0150 FFF7FEFF 		bl	sp_cond_swap_ct_ex
 3517 0154 049B     		ldr	r3, [sp, #16]
 3518 0156 0246     		mov	r2, r0
 3519 0158 0028     		cmp	r0, #0
ARM GAS  /tmp/ccqDDmMm.s 			page 61


 3520 015a B5D1     		bne	.L535
 3521 015c D4E90001 		ldrd	r0, r1, [r4]
 3522 0160 0096     		str	r6, [sp]
 3523 0162 2A88     		ldrh	r2, [r5]
 3524 0164 9031     		adds	r1, r1, #144
 3525 0166 9030     		adds	r0, r0, #144
 3526 0168 0493     		str	r3, [sp, #16]
 3527 016a FFF7FEFF 		bl	sp_cond_swap_ct_ex
 3528 016e 0246     		mov	r2, r0
 3529 0170 0028     		cmp	r0, #0
 3530 0172 A9D1     		bne	.L535
 3531 0174 D4E90001 		ldrd	r0, r1, [r4]
 3532 0178 0096     		str	r6, [sp]
 3533 017a 2A88     		ldrh	r2, [r5]
 3534 017c 049B     		ldr	r3, [sp, #16]
 3535 017e 01F59071 		add	r1, r1, #288
 3536 0182 00F59070 		add	r0, r0, #288
 3537 0186 FFF7FEFF 		bl	sp_cond_swap_ct_ex
 3538 018a 0246     		mov	r2, r0
 3539 018c 0028     		cmp	r0, #0
 3540 018e 9BD1     		bne	.L535
 3541 0190 3846     		mov	r0, r7
 3542 0192 A168     		ldr	r1, [r4, #8]
 3543 0194 FFF7FEFF 		bl	sp_copy
 3544 0198 0246     		mov	r2, r0
 3545 019a 0028     		cmp	r0, #0
 3546 019c 94D1     		bne	.L535
 3547 019e A268     		ldr	r2, [r4, #8]
 3548 01a0 2846     		mov	r0, r5
 3549 01a2 9032     		adds	r2, r2, #144
 3550 01a4 07F19001 		add	r1, r7, #144
 3551 01a8 FFF7FEFF 		bl	sp_sub
 3552 01ac 0246     		mov	r2, r0
 3553 01ae 0028     		cmp	r0, #0
 3554 01b0 8AD1     		bne	.L535
 3555 01b2 A168     		ldr	r1, [r4, #8]
 3556 01b4 07F59070 		add	r0, r7, #288
 3557 01b8 01F59071 		add	r1, r1, #288
 3558 01bc FFF7FEFF 		bl	sp_copy
 3559 01c0 0246     		mov	r2, r0
 3560 01c2 0028     		cmp	r0, #0
 3561 01c4 80D1     		bne	.L535
 3562 01c6 D4E90001 		ldrd	r0, r1, [r4]
 3563 01ca 059B     		ldr	r3, [sp, #20]
 3564 01cc 5F68     		ldr	r7, [r3, #4]
 3565 01ce 0096     		str	r6, [sp]
 3566 01d0 07F00107 		and	r7, r7, #1
 3567 01d4 2A88     		ldrh	r2, [r5]
 3568 01d6 3B46     		mov	r3, r7
 3569 01d8 FFF7FEFF 		bl	sp_cond_swap_ct_ex
 3570 01dc 0246     		mov	r2, r0
 3571 01de 0028     		cmp	r0, #0
 3572 01e0 7FF472AF 		bne	.L535
 3573 01e4 D4E90001 		ldrd	r0, r1, [r4]
 3574 01e8 0096     		str	r6, [sp]
 3575 01ea 2A88     		ldrh	r2, [r5]
 3576 01ec 3B46     		mov	r3, r7
ARM GAS  /tmp/ccqDDmMm.s 			page 62


 3577 01ee 9031     		adds	r1, r1, #144
 3578 01f0 9030     		adds	r0, r0, #144
 3579 01f2 FFF7FEFF 		bl	sp_cond_swap_ct_ex
 3580 01f6 0246     		mov	r2, r0
 3581 01f8 0028     		cmp	r0, #0
 3582 01fa 7FF465AF 		bne	.L535
 3583 01fe D4E90001 		ldrd	r0, r1, [r4]
 3584 0202 0096     		str	r6, [sp]
 3585 0204 2A88     		ldrh	r2, [r5]
 3586 0206 3B46     		mov	r3, r7
 3587 0208 01F59071 		add	r1, r1, #288
 3588 020c 00F59070 		add	r0, r0, #288
 3589 0210 FFF7FEFF 		bl	sp_cond_swap_ct_ex
 3590 0214 0246     		mov	r2, r0
 3591 0216 0028     		cmp	r0, #0
 3592 0218 7FF456AF 		bne	.L535
 3593 021c 0BAB     		add	r3, sp, #44
 3594 021e 2268     		ldr	r2, [r4]
 3595 0220 0293     		str	r3, [sp, #8]
 3596 0222 189B     		ldr	r3, [sp, #96]
 3597 0224 1046     		mov	r0, r2
 3598 0226 CDE90053 		strd	r5, r3, [sp]
 3599 022a A168     		ldr	r1, [r4, #8]
 3600 022c 169B     		ldr	r3, [sp, #88]
 3601 022e FFF7FEFF 		bl	ecc_projective_add_point_safe
 3602 0232 0246     		mov	r2, r0
 3603 0234 0028     		cmp	r0, #0
 3604 0236 7FF447AF 		bne	.L535
 3605 023a D4E90001 		ldrd	r0, r1, [r4]
 3606 023e 0096     		str	r6, [sp]
 3607 0240 2A88     		ldrh	r2, [r5]
 3608 0242 3B46     		mov	r3, r7
 3609 0244 FFF7FEFF 		bl	sp_cond_swap_ct_ex
 3610 0248 0246     		mov	r2, r0
 3611 024a 0028     		cmp	r0, #0
 3612 024c 7FF43CAF 		bne	.L535
 3613 0250 D4E90001 		ldrd	r0, r1, [r4]
 3614 0254 0096     		str	r6, [sp]
 3615 0256 2A88     		ldrh	r2, [r5]
 3616 0258 3B46     		mov	r3, r7
 3617 025a 9031     		adds	r1, r1, #144
 3618 025c 9030     		adds	r0, r0, #144
 3619 025e FFF7FEFF 		bl	sp_cond_swap_ct_ex
 3620 0262 0246     		mov	r2, r0
 3621 0264 0028     		cmp	r0, #0
 3622 0266 7FF42FAF 		bne	.L535
 3623 026a D4E90001 		ldrd	r0, r1, [r4]
 3624 026e 0096     		str	r6, [sp]
 3625 0270 2A88     		ldrh	r2, [r5]
 3626 0272 3B46     		mov	r3, r7
 3627 0274 01F59071 		add	r1, r1, #288
 3628 0278 00F59070 		add	r0, r0, #288
 3629 027c FFF7FEFF 		bl	sp_cond_swap_ct_ex
 3630 0280 0246     		mov	r2, r0
 3631 0282 0028     		cmp	r0, #0
 3632 0284 7FF420AF 		bne	.L535
 3633 0288 0699     		ldr	r1, [sp, #24]
ARM GAS  /tmp/ccqDDmMm.s 			page 63


 3634 028a 2068     		ldr	r0, [r4]
 3635 028c FFF7FEFF 		bl	sp_copy
 3636 0290 0246     		mov	r2, r0
 3637 0292 0028     		cmp	r0, #0
 3638 0294 7FF418AF 		bne	.L535
 3639 0298 2068     		ldr	r0, [r4]
 3640 029a 069B     		ldr	r3, [sp, #24]
 3641 029c 9030     		adds	r0, r0, #144
 3642 029e 03F19001 		add	r1, r3, #144
 3643 02a2 FFF7FEFF 		bl	sp_copy
 3644 02a6 0246     		mov	r2, r0
 3645 02a8 0028     		cmp	r0, #0
 3646 02aa 7FF40DAF 		bne	.L535
 3647 02ae 2068     		ldr	r0, [r4]
 3648 02b0 069B     		ldr	r3, [sp, #24]
 3649 02b2 00F59070 		add	r0, r0, #288
 3650 02b6 03F59071 		add	r1, r3, #288
 3651 02ba FFF7FEFF 		bl	sp_copy
 3652 02be 0246     		mov	r2, r0
 3653 02c0 02E7     		b	.L535
 3654              	.L533:
 3655 02c2 BAF1010A 		subs	r10, r10, #1
 3656 02c6 08D1     		bne	.L531
 3657 02c8 4FF0200A 		mov	r10, #32
 3658 02cc 049A     		ldr	r2, [sp, #16]
 3659 02ce 02EB8902 		add	r2, r2, r9, lsl #2
 3660 02d2 D2F80480 		ldr	r8, [r2, #4]
 3661 02d6 09F10109 		add	r9, r9, #1
 3662              	.L531:
 3663 02da 08F00102 		and	r2, r8, #1
 3664 02de 0096     		str	r6, [sp]
 3665 02e0 5340     		eors	r3, r3, r2
 3666 02e2 0892     		str	r2, [sp, #32]
 3667 02e4 D4E90001 		ldrd	r0, r1, [r4]
 3668 02e8 2A88     		ldrh	r2, [r5]
 3669 02ea 0993     		str	r3, [sp, #36]
 3670 02ec FFF7FEFF 		bl	sp_cond_swap_ct_ex
 3671 02f0 4FEA5808 		lsr	r8, r8, #1
 3672 02f4 0246     		mov	r2, r0
 3673 02f6 099B     		ldr	r3, [sp, #36]
 3674 02f8 60BB     		cbnz	r0, .L532
 3675 02fa D4E90001 		ldrd	r0, r1, [r4]
 3676 02fe 0096     		str	r6, [sp]
 3677 0300 2A88     		ldrh	r2, [r5]
 3678 0302 9031     		adds	r1, r1, #144
 3679 0304 9030     		adds	r0, r0, #144
 3680 0306 FFF7FEFF 		bl	sp_cond_swap_ct_ex
 3681 030a 0246     		mov	r2, r0
 3682 030c 10BB     		cbnz	r0, .L532
 3683 030e D4E90001 		ldrd	r0, r1, [r4]
 3684 0312 0096     		str	r6, [sp]
 3685 0314 2A88     		ldrh	r2, [r5]
 3686 0316 099B     		ldr	r3, [sp, #36]
 3687 0318 01F59071 		add	r1, r1, #288
 3688 031c 00F59070 		add	r0, r0, #288
 3689 0320 FFF7FEFF 		bl	sp_cond_swap_ct_ex
 3690 0324 0246     		mov	r2, r0
ARM GAS  /tmp/ccqDDmMm.s 			page 64


 3691 0326 A8B9     		cbnz	r0, .L532
 3692 0328 189B     		ldr	r3, [sp, #96]
 3693 032a 2168     		ldr	r1, [r4]
 3694 032c 169A     		ldr	r2, [sp, #88]
 3695 032e 0093     		str	r3, [sp]
 3696 0330 0846     		mov	r0, r1
 3697 0332 2B46     		mov	r3, r5
 3698 0334 FFF7FEFF 		bl	ecc_projective_dbl_point_safe
 3699 0338 0246     		mov	r2, r0
 3700 033a 58B9     		cbnz	r0, .L532
 3701 033c D4E90021 		ldrd	r2, r1, [r4]
 3702 0340 0BAB     		add	r3, sp, #44
 3703 0342 0293     		str	r3, [sp, #8]
 3704 0344 189B     		ldr	r3, [sp, #96]
 3705 0346 1046     		mov	r0, r2
 3706 0348 CDE90053 		strd	r5, r3, [sp]
 3707 034c 169B     		ldr	r3, [sp, #88]
 3708 034e FFF7FEFF 		bl	ecc_projective_add_point_safe
 3709 0352 0246     		mov	r2, r0
 3710              	.L532:
 3711 0354 089B     		ldr	r3, [sp, #32]
 3712 0356 0BF1010B 		add	fp, fp, #1
 3713 035a ECE6     		b	.L530
 3714              	.L537:
 3715 035c 6FF07C02 		mvn	r2, #124
 3716              	.L523:
 3717 0360 1046     		mov	r0, r2
 3718 0362 0DB0     		add	sp, sp, #52
 3719              		@ sp needed
 3720 0364 BDE8F08F 		pop	{r4, r5, r6, r7, r8, r9, r10, fp, pc}
 3722              		.section	.text.wc_ecc_mulmod_ex,"ax",%progbits
 3723              		.align	1
 3724              		.global	wc_ecc_mulmod_ex
 3725              		.syntax unified
 3726              		.thumb
 3727              		.thumb_func
 3728              		.fpu fpv4-sp-d16
 3730              	wc_ecc_mulmod_ex:
 3731              		@ args = 12, pretend = 0, frame = 32
 3732              		@ frame_needed = 0, uses_anonymous_args = 0
 3733 0000 2DE9F04F 		push	{r4, r5, r6, r7, r8, r9, r10, fp, lr}
 3734 0004 8046     		mov	r8, r0
 3735 0006 8DB0     		sub	sp, sp, #52
 3736 0008 4FF41B70 		mov	r0, #620
 3737 000c 0493     		str	r3, [sp, #16]
 3738 000e 8A46     		mov	r10, r1
 3739 0010 1546     		mov	r5, r2
 3740 0012 169E     		ldr	r6, [sp, #88]
 3741 0014 FFF7FEFF 		bl	wolfSSL_Malloc
 3742 0018 0023     		movs	r3, #0
 3743 001a 0446     		mov	r4, r0
 3744 001c CDE90933 		strd	r3, r3, [sp, #36]
 3745 0020 0793     		str	r3, [sp, #28]
 3746 0022 0B93     		str	r3, [sp, #44]
 3747 0024 B8F1000F 		cmp	r8, #0
 3748 0028 7AD0     		beq	.L555
 3749 002a BAF1000F 		cmp	r10, #0
ARM GAS  /tmp/ccqDDmMm.s 			page 65


 3750 002e 77D0     		beq	.L555
 3751 0030 002D     		cmp	r5, #0
 3752 0032 75D0     		beq	.L555
 3753 0034 002E     		cmp	r6, #0
 3754 0036 73D0     		beq	.L555
 3755 0038 4046     		mov	r0, r8
 3756 003a FFF7FEFF 		bl	sp_count_bits
 3757 003e 8146     		mov	r9, r0
 3758 0040 3046     		mov	r0, r6
 3759 0042 FFF7FEFF 		bl	sp_count_bits
 3760 0046 431C     		adds	r3, r0, #1
 3761 0048 9945     		cmp	r9, r3
 3762 004a 6CDC     		bgt	.L556
 3763 004c 002C     		cmp	r4, #0
 3764 004e 6DD0     		beq	.L557
 3765 0050 2046     		mov	r0, r4
 3766 0052 FFF7FEFF 		bl	ecc_key_tmp_init.constprop.0
 3767 0056 0746     		mov	r7, r0
 3768 0058 0028     		cmp	r0, #0
 3769 005a 3ED1     		bne	.L544
 3770 005c 4FF00309 		mov	r9, #3
 3771 0060 C5F8B041 		str	r4, [r5, #432]
 3772 0064 09AA     		add	r2, sp, #36
 3773              	.L545:
 3774 0066 1046     		mov	r0, r2
 3775 0068 9346     		mov	fp, r2
 3776 006a 0592     		str	r2, [sp, #20]
 3777 006c FFF7FEFF 		bl	wc_ecc_new_point_ex.constprop.0
 3778 0070 0746     		mov	r7, r0
 3779 0072 90BB     		cbnz	r0, .L544
 3780 0074 059A     		ldr	r2, [sp, #20]
 3781 0076 DBF80030 		ldr	r3, [fp]
 3782 007a B9F10109 		subs	r9, r9, #1
 3783 007e 02F10402 		add	r2, r2, #4
 3784 0082 C3F8B041 		str	r4, [r3, #432]
 3785 0086 EED1     		bne	.L545
 3786 0088 07A8     		add	r0, sp, #28
 3787 008a FFF7FEFF 		bl	wc_ecc_new_point_ex.constprop.0
 3788 008e 0746     		mov	r7, r0
 3789 0090 18BB     		cbnz	r0, .L544
 3790 0092 3246     		mov	r2, r6
 3791 0094 5046     		mov	r0, r10
 3792 0096 0799     		ldr	r1, [sp, #28]
 3793 0098 FFF7FEFF 		bl	ecc_point_to_mont.constprop.0
 3794 009c 0746     		mov	r7, r0
 3795 009e E0B9     		cbnz	r0, .L544
 3796 00a0 3046     		mov	r0, r6
 3797 00a2 08A9     		add	r1, sp, #32
 3798 00a4 FFF7FEFF 		bl	sp_mont_setup
 3799 00a8 0746     		mov	r7, r0
 3800 00aa B0B9     		cbnz	r0, .L544
 3801 00ac 089B     		ldr	r3, [sp, #32]
 3802 00ae 2A46     		mov	r2, r5
 3803 00b0 CDE90163 		strd	r6, r3, [sp, #4]
 3804 00b4 049B     		ldr	r3, [sp, #16]
 3805 00b6 4046     		mov	r0, r8
 3806 00b8 0093     		str	r3, [sp]
ARM GAS  /tmp/ccqDDmMm.s 			page 66


 3807 00ba 0799     		ldr	r1, [sp, #28]
 3808 00bc CDF80C90 		str	r9, [sp, #12]
 3809 00c0 09AB     		add	r3, sp, #36
 3810 00c2 FFF7FEFF 		bl	ecc_mulmod
 3811 00c6 0746     		mov	r7, r0
 3812 00c8 38B9     		cbnz	r0, .L544
 3813 00ca 179B     		ldr	r3, [sp, #92]
 3814 00cc 2BB1     		cbz	r3, .L544
 3815 00ce 3146     		mov	r1, r6
 3816 00d0 2846     		mov	r0, r5
 3817 00d2 089A     		ldr	r2, [sp, #32]
 3818 00d4 FFF7FEFF 		bl	ecc_map
 3819 00d8 0746     		mov	r7, r0
 3820              	.L544:
 3821 00da 0798     		ldr	r0, [sp, #28]
 3822 00dc FFF7FEFF 		bl	wc_ecc_del_point_ex.constprop.0
 3823 00e0 0998     		ldr	r0, [sp, #36]
 3824 00e2 FFF7FEFF 		bl	wc_ecc_del_point_ex.constprop.0
 3825 00e6 0A98     		ldr	r0, [sp, #40]
 3826 00e8 FFF7FEFF 		bl	wc_ecc_del_point_ex.constprop.0
 3827 00ec 0B98     		ldr	r0, [sp, #44]
 3828 00ee FFF7FEFF 		bl	wc_ecc_del_point_ex.constprop.0
 3829 00f2 8CB1     		cbz	r4, .L543
 3830 00f4 15B1     		cbz	r5, .L547
 3831 00f6 0022     		movs	r2, #0
 3832 00f8 C5F8B021 		str	r2, [r5, #432]
 3833              	.L547:
 3834 00fc 4FB9     		cbnz	r7, .L549
 3835 00fe D4F86402 		ldr	r0, [r4, #612]
 3836 0102 08B1     		cbz	r0, .L550
 3837 0104 FFF7FEFF 		bl	wolfSSL_Free
 3838              	.L550:
 3839 0108 D4F86002 		ldr	r0, [r4, #608]
 3840 010c 08B1     		cbz	r0, .L549
 3841 010e FFF7FEFF 		bl	wolfSSL_Free
 3842              	.L549:
 3843 0112 2046     		mov	r0, r4
 3844 0114 FFF7FEFF 		bl	wolfSSL_Free
 3845              	.L543:
 3846 0118 3846     		mov	r0, r7
 3847 011a 0DB0     		add	sp, sp, #52
 3848              		@ sp needed
 3849 011c BDE8F08F 		pop	{r4, r5, r6, r7, r8, r9, r10, fp, pc}
 3850              	.L555:
 3851 0120 6FF0A907 		mvn	r7, #169
 3852 0124 D9E7     		b	.L544
 3853              	.L556:
 3854 0126 6FF0D807 		mvn	r7, #216
 3855 012a D6E7     		b	.L544
 3856              	.L557:
 3857 012c 6FF06007 		mvn	r7, #96
 3858 0130 D3E7     		b	.L544
 3860              		.section	.text.wc_ecc_mulmod,"ax",%progbits
 3861              		.align	1
 3862              		.global	wc_ecc_mulmod
 3863              		.syntax unified
 3864              		.thumb
ARM GAS  /tmp/ccqDDmMm.s 			page 67


 3865              		.thumb_func
 3866              		.fpu fpv4-sp-d16
 3868              	wc_ecc_mulmod:
 3869              		@ args = 8, pretend = 0, frame = 0
 3870              		@ frame_needed = 0, uses_anonymous_args = 0
 3871 0000 30B5     		push	{r4, r5, lr}
 3872 0002 1546     		mov	r5, r2
 3873 0004 85B0     		sub	sp, sp, #20
 3874 0006 88B1     		cbz	r0, .L576
 3875 0008 82B1     		cbz	r2, .L576
 3876 000a 0488     		ldrh	r4, [r0]
 3877 000c 74B9     		cbnz	r4, .L576
 3878 000e 1046     		mov	r0, r2
 3879 0010 FFF7FEFF 		bl	sp_zero
 3880 0014 05F19000 		add	r0, r5, #144
 3881 0018 FFF7FEFF 		bl	sp_zero
 3882 001c 0121     		movs	r1, #1
 3883 001e 05F59070 		add	r0, r5, #288
 3884 0022 FFF7FEFF 		bl	sp_set
 3885 0026 2046     		mov	r0, r4
 3886              	.L575:
 3887 0028 05B0     		add	sp, sp, #20
 3888              		@ sp needed
 3889 002a 30BD     		pop	{r4, r5, pc}
 3890              	.L576:
 3891 002c 0022     		movs	r2, #0
 3892 002e 0292     		str	r2, [sp, #8]
 3893 0030 099A     		ldr	r2, [sp, #36]
 3894 0032 0192     		str	r2, [sp, #4]
 3895 0034 089A     		ldr	r2, [sp, #32]
 3896 0036 0092     		str	r2, [sp]
 3897 0038 2A46     		mov	r2, r5
 3898 003a FFF7FEFF 		bl	wc_ecc_mulmod_ex
 3899 003e F3E7     		b	.L575
 3901              		.section	.text.wc_ecc_mulmod_ex2,"ax",%progbits
 3902              		.align	1
 3903              		.global	wc_ecc_mulmod_ex2
 3904              		.syntax unified
 3905              		.thumb
 3906              		.thumb_func
 3907              		.fpu fpv4-sp-d16
 3909              	wc_ecc_mulmod_ex2:
 3910              		@ args = 20, pretend = 0, frame = 32
 3911              		@ frame_needed = 0, uses_anonymous_args = 0
 3912 0000 2DE9F04F 		push	{r4, r5, r6, r7, r8, r9, r10, fp, lr}
 3913 0004 8DB0     		sub	sp, sp, #52
 3914 0006 0D46     		mov	r5, r1
 3915 0008 1446     		mov	r4, r2
 3916 000a 8046     		mov	r8, r0
 3917 000c 169E     		ldr	r6, [sp, #88]
 3918 000e 0493     		str	r3, [sp, #16]
 3919 0010 0028     		cmp	r0, #0
 3920 0012 00F0DC80 		beq	.L596
 3921 0016 0029     		cmp	r1, #0
 3922 0018 00F0D980 		beq	.L596
 3923 001c 002A     		cmp	r2, #0
 3924 001e 00F0D680 		beq	.L596
ARM GAS  /tmp/ccqDDmMm.s 			page 68


 3925 0022 002E     		cmp	r6, #0
 3926 0024 00F0D380 		beq	.L596
 3927 0028 FFF7FEFF 		bl	sp_count_bits
 3928 002c 0746     		mov	r7, r0
 3929 002e 1798     		ldr	r0, [sp, #92]
 3930 0030 FFF7FEFF 		bl	sp_count_bits
 3931 0034 8742     		cmp	r7, r0
 3932 0036 00F3CD80 		bgt	.L597
 3933 003a 0023     		movs	r3, #0
 3934 003c 4FF41B70 		mov	r0, #620
 3935 0040 CDE90933 		strd	r3, r3, [sp, #36]
 3936 0044 0793     		str	r3, [sp, #28]
 3937 0046 0B93     		str	r3, [sp, #44]
 3938 0048 FFF7FEFF 		bl	wolfSSL_Malloc
 3939 004c 0746     		mov	r7, r0
 3940 004e 0028     		cmp	r0, #0
 3941 0050 00F0C380 		beq	.L598
 3942 0054 FFF7FEFF 		bl	ecc_key_tmp_init.constprop.0
 3943 0058 8246     		mov	r10, r0
 3944 005a 0028     		cmp	r0, #0
 3945 005c 40F09480 		bne	.L586
 3946 0060 4FF00309 		mov	r9, #3
 3947 0064 C4F8B071 		str	r7, [r4, #432]
 3948 0068 09AA     		add	r2, sp, #36
 3949              	.L587:
 3950 006a 1046     		mov	r0, r2
 3951 006c 9346     		mov	fp, r2
 3952 006e 0592     		str	r2, [sp, #20]
 3953 0070 FFF7FEFF 		bl	wc_ecc_new_point_ex.constprop.0
 3954 0074 8246     		mov	r10, r0
 3955 0076 0028     		cmp	r0, #0
 3956 0078 40F08680 		bne	.L586
 3957 007c 059A     		ldr	r2, [sp, #20]
 3958 007e DBF80030 		ldr	r3, [fp]
 3959 0082 B9F10109 		subs	r9, r9, #1
 3960 0086 02F10402 		add	r2, r2, #4
 3961 008a C3F8B071 		str	r7, [r3, #432]
 3962 008e ECD1     		bne	.L587
 3963 0090 07A8     		add	r0, sp, #28
 3964 0092 FFF7FEFF 		bl	wc_ecc_new_point_ex.constprop.0
 3965 0096 8246     		mov	r10, r0
 3966 0098 0028     		cmp	r0, #0
 3967 009a 75D1     		bne	.L586
 3968 009c 3246     		mov	r2, r6
 3969 009e 2846     		mov	r0, r5
 3970 00a0 0799     		ldr	r1, [sp, #28]
 3971 00a2 FFF7FEFF 		bl	ecc_point_to_mont.constprop.0
 3972 00a6 8246     		mov	r10, r0
 3973 00a8 0028     		cmp	r0, #0
 3974 00aa 6DD1     		bne	.L586
 3975 00ac 3046     		mov	r0, r6
 3976 00ae 08A9     		add	r1, sp, #32
 3977 00b0 FFF7FEFF 		bl	sp_mont_setup
 3978 00b4 8246     		mov	r10, r0
 3979 00b6 0028     		cmp	r0, #0
 3980 00b8 66D1     		bne	.L586
 3981 00ba 189B     		ldr	r3, [sp, #96]
ARM GAS  /tmp/ccqDDmMm.s 			page 69


 3982 00bc 2246     		mov	r2, r4
 3983 00be 0393     		str	r3, [sp, #12]
 3984 00c0 089B     		ldr	r3, [sp, #32]
 3985 00c2 4046     		mov	r0, r8
 3986 00c4 CDE90163 		strd	r6, r3, [sp, #4]
 3987 00c8 049B     		ldr	r3, [sp, #16]
 3988 00ca 0799     		ldr	r1, [sp, #28]
 3989 00cc 0093     		str	r3, [sp]
 3990 00ce 09AB     		add	r3, sp, #36
 3991 00d0 FFF7FEFF 		bl	ecc_mulmod
 3992 00d4 8246     		mov	r10, r0
 3993 00d6 0028     		cmp	r0, #0
 3994 00d8 56D1     		bne	.L586
 3995 00da 3088     		ldrh	r0, [r6]
 3996 00dc DDF81CB0 		ldr	fp, [sp, #28]
 3997 00e0 0130     		adds	r0, r0, #1
 3998 00e2 C000     		lsls	r0, r0, #3
 3999 00e4 FFF7FEFF 		bl	wolfSSL_Malloc
 4000 00e8 0546     		mov	r5, r0
 4001 00ea 0028     		cmp	r0, #0
 4002 00ec 6CD0     		beq	.L599
 4003 00ee 3288     		ldrh	r2, [r6]
 4004 00f0 4946     		mov	r1, r9
 4005 00f2 0132     		adds	r2, r2, #1
 4006 00f4 D200     		lsls	r2, r2, #3
 4007 00f6 FFF7FEFF 		bl	memset
 4008 00fa 3188     		ldrh	r1, [r6]
 4009 00fc 2846     		mov	r0, r5
 4010 00fe 4900     		lsls	r1, r1, #1
 4011 0100 0131     		adds	r1, r1, #1
 4012 0102 FFF7FEFF 		bl	sp_init_size
 4013 0106 8246     		mov	r10, r0
 4014 0108 80BB     		cbnz	r0, .L588
 4015 010a 2A46     		mov	r2, r5
 4016 010c 0121     		movs	r1, #1
 4017 010e 1798     		ldr	r0, [sp, #92]
 4018 0110 FFF7FEFF 		bl	sp_sub_d
 4019 0114 8246     		mov	r10, r0
 4020 0116 30BB     		cbnz	r0, .L589
 4021 0118 2946     		mov	r1, r5
 4022 011a 4046     		mov	r0, r8
 4023 011c FFF7FEFF 		bl	sp_cmp
 4024 0120 B0FA80F8 		clz	r8, r0
 4025 0124 4FEA5818 		lsr	r8, r8, #5
 4026 0128 2246     		mov	r2, r4
 4027 012a 4146     		mov	r1, r8
 4028 012c 5846     		mov	r0, fp
 4029 012e FFF7FEFF 		bl	mp_cond_copy
 4030 0132 8246     		mov	r10, r0
 4031 0134 B8B9     		cbnz	r0, .L589
 4032 0136 2A46     		mov	r2, r5
 4033 0138 3046     		mov	r0, r6
 4034 013a 0BF19001 		add	r1, fp, #144
 4035 013e FFF7FEFF 		bl	sp_sub
 4036 0142 8246     		mov	r10, r0
 4037 0144 78B9     		cbnz	r0, .L589
 4038 0146 4146     		mov	r1, r8
ARM GAS  /tmp/ccqDDmMm.s 			page 70


 4039 0148 2846     		mov	r0, r5
 4040 014a 04F19002 		add	r2, r4, #144
 4041 014e FFF7FEFF 		bl	mp_cond_copy
 4042 0152 8246     		mov	r10, r0
 4043 0154 38B9     		cbnz	r0, .L589
 4044 0156 4146     		mov	r1, r8
 4045 0158 04F59072 		add	r2, r4, #288
 4046 015c 0BF59070 		add	r0, fp, #288
 4047 0160 FFF7FEFF 		bl	mp_cond_copy
 4048 0164 8246     		mov	r10, r0
 4049              	.L589:
 4050 0166 2846     		mov	r0, r5
 4051 0168 FFF7FEFF 		bl	sp_free
 4052              	.L588:
 4053 016c 2846     		mov	r0, r5
 4054 016e FFF7FEFF 		bl	wolfSSL_Free
 4055 0172 BAF1000F 		cmp	r10, #0
 4056 0176 07D1     		bne	.L586
 4057 0178 199B     		ldr	r3, [sp, #100]
 4058 017a 2BB1     		cbz	r3, .L586
 4059 017c 3146     		mov	r1, r6
 4060 017e 2046     		mov	r0, r4
 4061 0180 089A     		ldr	r2, [sp, #32]
 4062 0182 FFF7FEFF 		bl	ecc_map
 4063 0186 8246     		mov	r10, r0
 4064              	.L586:
 4065 0188 0798     		ldr	r0, [sp, #28]
 4066 018a FFF7FEFF 		bl	wc_ecc_del_point_ex.constprop.0
 4067 018e 0998     		ldr	r0, [sp, #36]
 4068 0190 FFF7FEFF 		bl	wc_ecc_del_point_ex.constprop.0
 4069 0194 0A98     		ldr	r0, [sp, #40]
 4070 0196 FFF7FEFF 		bl	wc_ecc_del_point_ex.constprop.0
 4071 019a 0B98     		ldr	r0, [sp, #44]
 4072 019c FFF7FEFF 		bl	wc_ecc_del_point_ex.constprop.0
 4073 01a0 0022     		movs	r2, #0
 4074 01a2 D7F86402 		ldr	r0, [r7, #612]
 4075 01a6 C4F8B021 		str	r2, [r4, #432]
 4076 01aa 08B1     		cbz	r0, .L590
 4077 01ac FFF7FEFF 		bl	wolfSSL_Free
 4078              	.L590:
 4079 01b0 D7F86002 		ldr	r0, [r7, #608]
 4080 01b4 08B1     		cbz	r0, .L591
 4081 01b6 FFF7FEFF 		bl	wolfSSL_Free
 4082              	.L591:
 4083 01ba 3846     		mov	r0, r7
 4084 01bc FFF7FEFF 		bl	wolfSSL_Free
 4085              	.L584:
 4086 01c0 5046     		mov	r0, r10
 4087 01c2 0DB0     		add	sp, sp, #52
 4088              		@ sp needed
 4089 01c4 BDE8F08F 		pop	{r4, r5, r6, r7, r8, r9, r10, fp, pc}
 4090              	.L599:
 4091 01c8 6FF07C0A 		mvn	r10, #124
 4092 01cc DCE7     		b	.L586
 4093              	.L596:
 4094 01ce 6FF0A90A 		mvn	r10, #169
 4095 01d2 F5E7     		b	.L584
ARM GAS  /tmp/ccqDDmMm.s 			page 71


 4096              	.L597:
 4097 01d4 6FF0D80A 		mvn	r10, #216
 4098 01d8 F2E7     		b	.L584
 4099              	.L598:
 4100 01da 6FF07C0A 		mvn	r10, #124
 4101 01de EFE7     		b	.L584
 4103              		.section	.text.wc_ecc_shared_secret_gen_sync,"ax",%progbits
 4104              		.align	1
 4105              		.global	wc_ecc_shared_secret_gen_sync
 4106              		.syntax unified
 4107              		.thumb
 4108              		.thumb_func
 4109              		.fpu fpv4-sp-d16
 4111              	wc_ecc_shared_secret_gen_sync:
 4112              		@ args = 0, pretend = 0, frame = 56
 4113              		@ frame_needed = 0, uses_anonymous_args = 0
 4114 0000 2DE9F04F 		push	{r4, r5, r6, r7, r8, r9, r10, fp, lr}
 4115 0004 4468     		ldr	r4, [r0, #4]
 4116 0006 0546     		mov	r5, r0
 4117 0008 00F5E87B 		add	fp, r0, #464
 4118 000c 601C     		adds	r0, r4, #1
 4119 000e 8A46     		mov	r10, r1
 4120 0010 1746     		mov	r7, r2
 4121 0012 9846     		mov	r8, r3
 4122 0014 95B0     		sub	sp, sp, #84
 4123 0016 10D0     		beq	.L612
 4124 0018 3426     		movs	r6, #52
 4125 001a 4C48     		ldr	r0, .L626
 4126 001c 06FB0400 		mla	r0, r6, r4, r0
 4127 0020 4068     		ldr	r0, [r0, #4]
 4128 0022 0728     		cmp	r0, #7
 4129 0024 09D1     		bne	.L612
 4130 0026 6869     		ldr	r0, [r5, #20]
 4131 0028 0090     		str	r0, [sp]
 4132 002a 5846     		mov	r0, fp
 4133 002c FFF7FEFF 		bl	sp_ecc_secret_gen_256
 4134 0030 0446     		mov	r4, r0
 4135              	.L611:
 4136 0032 2046     		mov	r0, r4
 4137 0034 15B0     		add	sp, sp, #84
 4138              		@ sp needed
 4139 0036 BDE8F08F 		pop	{r4, r5, r6, r7, r8, r9, r10, fp, pc}
 4140              	.L612:
 4141 003a 4FF00009 		mov	r9, #0
 4142 003e 2822     		movs	r2, #40
 4143 0040 4946     		mov	r1, r9
 4144 0042 0AA8     		add	r0, sp, #40
 4145 0044 CDE90799 		strd	r9, r9, [sp, #28]
 4146 0048 0990     		str	r0, [sp, #36]
 4147 004a FFF7FEFF 		bl	memset
 4148 004e 0323     		movs	r3, #3
 4149 0050 D820     		movs	r0, #216
 4150 0052 1193     		str	r3, [sp, #68]
 4151 0054 FFF7FEFF 		bl	wolfSSL_Malloc
 4152 0058 0646     		mov	r6, r0
 4153 005a 0028     		cmp	r0, #0
 4154 005c 63D0     		beq	.L619
ARM GAS  /tmp/ccqDDmMm.s 			page 72


 4155 005e 099B     		ldr	r3, [sp, #36]
 4156 0060 0B22     		movs	r2, #11
 4157 0062 9861     		str	r0, [r3, #24]
 4158 0064 09A9     		add	r1, sp, #36
 4159 0066 2869     		ldr	r0, [r5, #16]
 4160 0068 FFF7FEFF 		bl	wc_ecc_curve_load
 4161 006c 0446     		mov	r4, r0
 4162 006e 38B9     		cbnz	r0, .L615
 4163 0070 07A8     		add	r0, sp, #28
 4164 0072 FFF7FEFF 		bl	wc_ecc_new_point_ex.constprop.0
 4165 0076 0446     		mov	r4, r0
 4166 0078 30B1     		cbz	r0, .L616
 4167 007a 0998     		ldr	r0, [sp, #36]
 4168 007c FFF7FEFF 		bl	wc_ecc_curve_free
 4169              	.L615:
 4170 0080 3046     		mov	r0, r6
 4171 0082 FFF7FEFF 		bl	wolfSSL_Free
 4172 0086 D4E7     		b	.L611
 4173              	.L616:
 4174 0088 D5F86822 		ldr	r2, [r5, #616]
 4175 008c 002A     		cmp	r2, #0
 4176 008e 31D0     		beq	.L620
 4177 0090 6969     		ldr	r1, [r5, #20]
 4178 0092 099B     		ldr	r3, [sp, #36]
 4179 0094 CDE90301 		strd	r0, r1, [sp, #12]
 4180 0098 0292     		str	r2, [sp, #8]
 4181 009a DA68     		ldr	r2, [r3, #12]
 4182 009c 5146     		mov	r1, r10
 4183 009e 0192     		str	r2, [sp, #4]
 4184 00a0 5A68     		ldr	r2, [r3, #4]
 4185 00a2 5846     		mov	r0, fp
 4186 00a4 0092     		str	r2, [sp]
 4187 00a6 9B68     		ldr	r3, [r3, #8]
 4188 00a8 079A     		ldr	r2, [sp, #28]
 4189 00aa FFF7FEFF 		bl	wc_ecc_mulmod_ex2
 4190 00ae 0546     		mov	r5, r0
 4191 00b0 10BB     		cbnz	r0, .L617
 4192 00b2 099B     		ldr	r3, [sp, #36]
 4193 00b4 08A9     		add	r1, sp, #32
 4194 00b6 5868     		ldr	r0, [r3, #4]
 4195 00b8 FFF7FEFF 		bl	sp_mont_setup
 4196 00bc 0446     		mov	r4, r0
 4197 00be 78BB     		cbnz	r0, .L621
 4198 00c0 DDE90821 		ldrd	r2, r1, [sp, #32]
 4199 00c4 0123     		movs	r3, #1
 4200 00c6 4968     		ldr	r1, [r1, #4]
 4201 00c8 0798     		ldr	r0, [sp, #28]
 4202 00ca FFF7FEFF 		bl	ecc_map_ex
 4203 00ce 0546     		mov	r5, r0
 4204 00d0 90B9     		cbnz	r0, .L617
 4205 00d2 099B     		ldr	r3, [sp, #36]
 4206 00d4 5868     		ldr	r0, [r3, #4]
 4207 00d6 FFF7FEFF 		bl	sp_unsigned_bin_size
 4208 00da D8F80030 		ldr	r3, [r8]
 4209 00de 0446     		mov	r4, r0
 4210 00e0 8342     		cmp	r3, r0
 4211 00e2 04D3     		bcc	.L622
ARM GAS  /tmp/ccqDDmMm.s 			page 73


 4212 00e4 0798     		ldr	r0, [sp, #28]
 4213 00e6 FFF7FEFF 		bl	sp_unsigned_bin_size
 4214 00ea A042     		cmp	r0, r4
 4215 00ec 1EDD     		ble	.L618
 4216              	.L622:
 4217 00ee 6FF08305 		mvn	r5, #131
 4218 00f2 01E0     		b	.L617
 4219              	.L620:
 4220 00f4 6FF0EB05 		mvn	r5, #235
 4221              	.L617:
 4222 00f8 0798     		ldr	r0, [sp, #28]
 4223 00fa C8F80040 		str	r4, [r8]
 4224 00fe FFF7FEFF 		bl	sp_forcezero
 4225 0102 0798     		ldr	r0, [sp, #28]
 4226 0104 2C46     		mov	r4, r5
 4227 0106 9030     		adds	r0, r0, #144
 4228 0108 FFF7FEFF 		bl	sp_forcezero
 4229 010c 0798     		ldr	r0, [sp, #28]
 4230 010e FFF7FEFF 		bl	wc_ecc_del_point_ex.constprop.0
 4231 0112 0998     		ldr	r0, [sp, #36]
 4232 0114 FFF7FEFF 		bl	wc_ecc_curve_free
 4233 0118 3046     		mov	r0, r6
 4234 011a FFF7FEFF 		bl	wolfSSL_Free
 4235 011e 88E7     		b	.L611
 4236              	.L621:
 4237 0120 0546     		mov	r5, r0
 4238 0122 4C46     		mov	r4, r9
 4239 0124 E8E7     		b	.L617
 4240              	.L619:
 4241              	.L613:
 4242 0126 6FF07C04 		mvn	r4, #124
 4243 012a 82E7     		b	.L611
 4244              	.L618:
 4245 012c 2946     		mov	r1, r5
 4246 012e 2246     		mov	r2, r4
 4247 0130 3846     		mov	r0, r7
 4248 0132 FFF7FEFF 		bl	memset
 4249 0136 079D     		ldr	r5, [sp, #28]
 4250 0138 2846     		mov	r0, r5
 4251 013a FFF7FEFF 		bl	sp_unsigned_bin_size
 4252 013e 201A     		subs	r0, r4, r0
 4253 0140 3918     		adds	r1, r7, r0
 4254 0142 2846     		mov	r0, r5
 4255 0144 FFF7FEFF 		bl	sp_to_unsigned_bin
 4256 0148 0546     		mov	r5, r0
 4257 014a D5E7     		b	.L617
 4258              	.L627:
 4259              		.align	2
 4260              	.L626:
 4261 014c 00000000 		.word	.LANCHOR0
 4263              		.section	.text.wc_ecc_shared_secret_ex,"ax",%progbits
 4264              		.align	1
 4265              		.global	wc_ecc_shared_secret_ex
 4266              		.syntax unified
 4267              		.thumb
 4268              		.thumb_func
 4269              		.fpu fpv4-sp-d16
ARM GAS  /tmp/ccqDDmMm.s 			page 74


 4271              	wc_ecc_shared_secret_ex:
 4272              		@ args = 0, pretend = 0, frame = 0
 4273              		@ frame_needed = 0, uses_anonymous_args = 0
 4274 0000 F8B5     		push	{r3, r4, r5, r6, r7, lr}
 4275 0002 0446     		mov	r4, r0
 4276 0004 48B3     		cbz	r0, .L636
 4277 0006 41B3     		cbz	r1, .L636
 4278 0008 3AB3     		cbz	r2, .L636
 4279 000a 33B3     		cbz	r3, .L636
 4280 000c 0068     		ldr	r0, [r0]
 4281 000e 0238     		subs	r0, r0, #2
 4282 0010 0128     		cmp	r0, #1
 4283 0012 25D8     		bhi	.L639
 4284 0014 6068     		ldr	r0, [r4, #4]
 4285 0016 FFF7FEFF 		bl	wc_ecc_is_valid_idx
 4286 001a 08B3     		cbz	r0, .L639
 4287 001c 2069     		ldr	r0, [r4, #16]
 4288 001e F8B1     		cbz	r0, .L639
 4289 0020 A068     		ldr	r0, [r4, #8]
 4290 0022 0128     		cmp	r0, #1
 4291 0024 06DC     		bgt	.L630
 4292 0026 0028     		cmp	r0, #0
 4293 0028 0ADA     		bge	.L631
 4294 002a 6FF0BF00 		mvn	r0, #191
 4295              	.L632:
 4296 002e 0023     		movs	r3, #0
 4297 0030 A360     		str	r3, [r4, #8]
 4298 0032 0FE0     		b	.L628
 4299              	.L630:
 4300 0034 0228     		cmp	r0, #2
 4301 0036 14BF     		ite	ne
 4302 0038 6FF0BF00 		mvnne	r0, #191
 4303 003c 0020     		moveq	r0, #0
 4304 003e F6E7     		b	.L632
 4305              	.L631:
 4306 0040 0120     		movs	r0, #1
 4307 0042 A060     		str	r0, [r4, #8]
 4308 0044 2046     		mov	r0, r4
 4309 0046 FFF7FEFF 		bl	wc_ecc_shared_secret_gen_sync
 4310 004a 0028     		cmp	r0, #0
 4311 004c 03DA     		bge	.L641
 4312 004e 10F16C0F 		cmn	r0, #108
 4313 0052 ECD1     		bne	.L632
 4314              	.L628:
 4315 0054 F8BD     		pop	{r3, r4, r5, r6, r7, pc}
 4316              	.L641:
 4317 0056 0020     		movs	r0, #0
 4318 0058 E9E7     		b	.L632
 4319              	.L636:
 4320 005a 6FF0AC00 		mvn	r0, #172
 4321 005e F9E7     		b	.L628
 4322              	.L639:
 4323 0060 6FF0A900 		mvn	r0, #169
 4324 0064 F6E7     		b	.L628
 4326              		.section	.text.wc_ecc_shared_secret,"ax",%progbits
 4327              		.align	1
 4328              		.global	wc_ecc_shared_secret
ARM GAS  /tmp/ccqDDmMm.s 			page 75


 4329              		.syntax unified
 4330              		.thumb
 4331              		.thumb_func
 4332              		.fpu fpv4-sp-d16
 4334              	wc_ecc_shared_secret:
 4335              		@ args = 0, pretend = 0, frame = 0
 4336              		@ frame_needed = 0, uses_anonymous_args = 0
 4337 0000 70B5     		push	{r4, r5, r6, lr}
 4338 0002 0446     		mov	r4, r0
 4339 0004 E0B1     		cbz	r0, .L650
 4340 0006 D9B1     		cbz	r1, .L650
 4341 0008 D2B1     		cbz	r2, .L650
 4342 000a CBB1     		cbz	r3, .L650
 4343 000c 0068     		ldr	r0, [r0]
 4344 000e 0238     		subs	r0, r0, #2
 4345 0010 0128     		cmp	r0, #1
 4346 0012 18D8     		bhi	.L656
 4347 0014 6068     		ldr	r0, [r4, #4]
 4348 0016 FFF7FEFF 		bl	wc_ecc_is_valid_idx
 4349 001a A0B1     		cbz	r0, .L656
 4350 001c 2569     		ldr	r5, [r4, #16]
 4351 001e 95B1     		cbz	r5, .L656
 4352 0020 4868     		ldr	r0, [r1, #4]
 4353 0022 FFF7FEFF 		bl	wc_ecc_is_valid_idx
 4354 0026 70B1     		cbz	r0, .L656
 4355 0028 0869     		ldr	r0, [r1, #16]
 4356 002a 60B1     		cbz	r0, .L656
 4357 002c 6D68     		ldr	r5, [r5, #4]
 4358 002e 4068     		ldr	r0, [r0, #4]
 4359 0030 8542     		cmp	r5, r0
 4360 0032 08D1     		bne	.L656
 4361 0034 2046     		mov	r0, r4
 4362 0036 BDE87040 		pop	{r4, r5, r6, lr}
 4363 003a 1831     		adds	r1, r1, #24
 4364 003c FFF7FEBF 		b	wc_ecc_shared_secret_ex
 4365              	.L650:
 4366 0040 6FF0AC00 		mvn	r0, #172
 4367              	.L645:
 4368 0044 70BD     		pop	{r4, r5, r6, pc}
 4369              	.L656:
 4370 0046 6FF0A900 		mvn	r0, #169
 4371 004a FBE7     		b	.L645
 4373              		.section	.text.ecc_make_pub_ex,"ax",%progbits
 4374              		.align	1
 4375              		.syntax unified
 4376              		.thumb
 4377              		.thumb_func
 4378              		.fpu fpv4-sp-d16
 4380              	ecc_make_pub_ex:
 4381              		@ args = 0, pretend = 0, frame = 16
 4382              		@ frame_needed = 0, uses_anonymous_args = 0
 4383 0000 2DE9F04F 		push	{r4, r5, r6, r7, r8, r9, r10, fp, lr}
 4384 0004 8BB0     		sub	sp, sp, #44
 4385 0006 0E46     		mov	r6, r1
 4386 0008 1746     		mov	r7, r2
 4387 000a 0446     		mov	r4, r0
 4388 000c 0793     		str	r3, [sp, #28]
ARM GAS  /tmp/ccqDDmMm.s 			page 76


 4389 000e 0028     		cmp	r0, #0
 4390 0010 00F09180 		beq	.L667
 4391 0014 B2B9     		cbnz	r2, .L668
 4392 0016 0546     		mov	r5, r0
 4393 0018 0323     		movs	r3, #3
 4394 001a 45F8183B 		str	r3, [r5], #24
 4395              	.L659:
 4396 001e B4F8D031 		ldrh	r3, [r4, #464]
 4397 0022 05F1900B 		add	fp, r5, #144
 4398 0026 05F5907A 		add	r10, r5, #288
 4399 002a 6BB9     		cbnz	r3, .L660
 4400              	.L662:
 4401 002c 6FF0D709 		mvn	r9, #215
 4402              	.L661:
 4403 0030 2846     		mov	r0, r5
 4404 0032 FFF7FEFF 		bl	sp_clear
 4405 0036 5846     		mov	r0, fp
 4406 0038 FFF7FEFF 		bl	sp_clear
 4407 003c 5046     		mov	r0, r10
 4408 003e FFF7FEFF 		bl	sp_clear
 4409 0042 28E0     		b	.L666
 4410              	.L668:
 4411 0044 1546     		mov	r5, r2
 4412 0046 EAE7     		b	.L659
 4413              	.L660:
 4414 0048 04F5E878 		add	r8, r4, #464
 4415 004c 4046     		mov	r0, r8
 4416 004e F168     		ldr	r1, [r6, #12]
 4417 0050 FFF7FEFF 		bl	sp_cmp
 4418 0054 0130     		adds	r0, r0, #1
 4419 0056 E9D1     		bne	.L662
 4420 0058 0023     		movs	r3, #0
 4421 005a 5246     		mov	r2, r10
 4422 005c 5946     		mov	r1, fp
 4423 005e 2846     		mov	r0, r5
 4424 0060 CDE90033 		strd	r3, r3, [sp]
 4425 0064 FFF7FEFF 		bl	sp_init_multi
 4426 0068 8146     		mov	r9, r0
 4427 006a 0028     		cmp	r0, #0
 4428 006c E0D1     		bne	.L661
 4429 006e 6268     		ldr	r2, [r4, #4]
 4430 0070 531C     		adds	r3, r2, #1
 4431 0072 1AD0     		beq	.L663
 4432 0074 3421     		movs	r1, #52
 4433 0076 314B     		ldr	r3, .L676
 4434 0078 01FB0233 		mla	r3, r1, r2, r3
 4435 007c 5B68     		ldr	r3, [r3, #4]
 4436 007e 072B     		cmp	r3, #7
 4437 0080 13D1     		bne	.L663
 4438 0082 0122     		movs	r2, #1
 4439 0084 2946     		mov	r1, r5
 4440 0086 4046     		mov	r0, r8
 4441 0088 6369     		ldr	r3, [r4, #20]
 4442 008a FFF7FEFF 		bl	sp_ecc_mulmod_base_256
 4443 008e 8146     		mov	r9, r0
 4444              	.L664:
 4445 0090 B9F1000F 		cmp	r9, #0
ARM GAS  /tmp/ccqDDmMm.s 			page 77


 4446 0094 CCD1     		bne	.L661
 4447              	.L666:
 4448 0096 2268     		ldr	r2, [r4]
 4449 0098 032A     		cmp	r2, #3
 4450 009a 02D1     		bne	.L657
 4451 009c 0FB9     		cbnz	r7, .L657
 4452 009e 0222     		movs	r2, #2
 4453 00a0 2260     		str	r2, [r4]
 4454              	.L657:
 4455 00a2 4846     		mov	r0, r9
 4456 00a4 0BB0     		add	sp, sp, #44
 4457              		@ sp needed
 4458 00a6 BDE8F08F 		pop	{r4, r5, r6, r7, r8, r9, r10, fp, pc}
 4459              	.L663:
 4460 00aa 0023     		movs	r3, #0
 4461 00ac 09A8     		add	r0, sp, #36
 4462 00ae CDE90833 		strd	r3, r3, [sp, #32]
 4463 00b2 FFF7FEFF 		bl	wc_ecc_new_point_ex.constprop.0
 4464 00b6 8146     		mov	r9, r0
 4465 00b8 0028     		cmp	r0, #0
 4466 00ba 35D1     		bne	.L665
 4467 00bc 0999     		ldr	r1, [sp, #36]
 4468 00be 3069     		ldr	r0, [r6, #16]
 4469 00c0 FFF7FEFF 		bl	sp_copy
 4470 00c4 8146     		mov	r9, r0
 4471 00c6 78BB     		cbnz	r0, .L665
 4472 00c8 0999     		ldr	r1, [sp, #36]
 4473 00ca 7069     		ldr	r0, [r6, #20]
 4474 00cc 9031     		adds	r1, r1, #144
 4475 00ce FFF7FEFF 		bl	sp_copy
 4476 00d2 8146     		mov	r9, r0
 4477 00d4 40BB     		cbnz	r0, .L665
 4478 00d6 7068     		ldr	r0, [r6, #4]
 4479 00d8 08A9     		add	r1, sp, #32
 4480 00da FFF7FEFF 		bl	sp_mont_setup
 4481 00de 8146     		mov	r9, r0
 4482 00e0 10BB     		cbnz	r0, .L665
 4483 00e2 0998     		ldr	r0, [sp, #36]
 4484 00e4 0121     		movs	r1, #1
 4485 00e6 00F59070 		add	r0, r0, #288
 4486 00ea FFF7FEFF 		bl	sp_set
 4487 00ee 8146     		mov	r9, r0
 4488 00f0 D0B9     		cbnz	r0, .L665
 4489 00f2 079B     		ldr	r3, [sp, #28]
 4490 00f4 6269     		ldr	r2, [r4, #20]
 4491 00f6 0293     		str	r3, [sp, #8]
 4492 00f8 F368     		ldr	r3, [r6, #12]
 4493 00fa CDE90302 		strd	r0, r2, [sp, #12]
 4494 00fe 0193     		str	r3, [sp, #4]
 4495 0100 7368     		ldr	r3, [r6, #4]
 4496 0102 2A46     		mov	r2, r5
 4497 0104 0093     		str	r3, [sp]
 4498 0106 4046     		mov	r0, r8
 4499 0108 B368     		ldr	r3, [r6, #8]
 4500 010a 0999     		ldr	r1, [sp, #36]
 4501 010c FFF7FEFF 		bl	wc_ecc_mulmod_ex2
 4502 0110 10F1610F 		cmn	r0, #97
ARM GAS  /tmp/ccqDDmMm.s 			page 78


 4503 0114 8146     		mov	r9, r0
 4504 0116 0BD0     		beq	.L669
 4505 0118 30B9     		cbnz	r0, .L665
 4506 011a 0123     		movs	r3, #1
 4507 011c 2846     		mov	r0, r5
 4508 011e 089A     		ldr	r2, [sp, #32]
 4509 0120 7168     		ldr	r1, [r6, #4]
 4510 0122 FFF7FEFF 		bl	ecc_map_ex
 4511 0126 8146     		mov	r9, r0
 4512              	.L665:
 4513 0128 0998     		ldr	r0, [sp, #36]
 4514 012a FFF7FEFF 		bl	wc_ecc_del_point_ex.constprop.0
 4515 012e AFE7     		b	.L664
 4516              	.L669:
 4517 0130 6FF07C09 		mvn	r9, #124
 4518 0134 F8E7     		b	.L665
 4519              	.L667:
 4520 0136 6FF0AC09 		mvn	r9, #172
 4521 013a B2E7     		b	.L657
 4522              	.L677:
 4523              		.align	2
 4524              	.L676:
 4525 013c 00000000 		.word	.LANCHOR0
 4527              		.section	.text.wc_ecc_make_pub_ex,"ax",%progbits
 4528              		.align	1
 4529              		.global	wc_ecc_make_pub_ex
 4530              		.syntax unified
 4531              		.thumb
 4532              		.thumb_func
 4533              		.fpu fpv4-sp-d16
 4535              	wc_ecc_make_pub_ex:
 4536              		@ args = 0, pretend = 0, frame = 48
 4537              		@ frame_needed = 0, uses_anonymous_args = 0
 4538 0000 2DE9F041 		push	{r4, r5, r6, r7, r8, lr}
 4539 0004 8CB0     		sub	sp, sp, #48
 4540 0006 0646     		mov	r6, r0
 4541 0008 0F46     		mov	r7, r1
 4542 000a 02A8     		add	r0, sp, #8
 4543 000c 9046     		mov	r8, r2
 4544 000e 0021     		movs	r1, #0
 4545 0010 2822     		movs	r2, #40
 4546 0012 0190     		str	r0, [sp, #4]
 4547 0014 FFF7FEFF 		bl	memset
 4548 0018 0523     		movs	r3, #5
 4549 001a 0993     		str	r3, [sp, #36]
 4550 001c 1EB3     		cbz	r6, .L681
 4551 001e 4FF4B470 		mov	r0, #360
 4552 0022 FFF7FEFF 		bl	wolfSSL_Malloc
 4553 0026 0546     		mov	r5, r0
 4554 0028 D0B1     		cbz	r0, .L682
 4555 002a 019B     		ldr	r3, [sp, #4]
 4556 002c 3B22     		movs	r2, #59
 4557 002e 9861     		str	r0, [r3, #24]
 4558 0030 01A9     		add	r1, sp, #4
 4559 0032 3069     		ldr	r0, [r6, #16]
 4560 0034 FFF7FEFF 		bl	wc_ecc_curve_load
 4561 0038 0446     		mov	r4, r0
ARM GAS  /tmp/ccqDDmMm.s 			page 79


 4562 003a 30B9     		cbnz	r0, .L680
 4563 003c 4346     		mov	r3, r8
 4564 003e 3A46     		mov	r2, r7
 4565 0040 3046     		mov	r0, r6
 4566 0042 0199     		ldr	r1, [sp, #4]
 4567 0044 FFF7FEFF 		bl	ecc_make_pub_ex
 4568 0048 0446     		mov	r4, r0
 4569              	.L680:
 4570 004a 0198     		ldr	r0, [sp, #4]
 4571 004c FFF7FEFF 		bl	wc_ecc_curve_free
 4572 0050 15B1     		cbz	r5, .L678
 4573 0052 2846     		mov	r0, r5
 4574 0054 FFF7FEFF 		bl	wolfSSL_Free
 4575              	.L678:
 4576 0058 2046     		mov	r0, r4
 4577 005a 0CB0     		add	sp, sp, #48
 4578              		@ sp needed
 4579 005c BDE8F081 		pop	{r4, r5, r6, r7, r8, pc}
 4580              	.L682:
 4581 0060 6FF07C04 		mvn	r4, #124
 4582 0064 F1E7     		b	.L680
 4583              	.L681:
 4584 0066 6FF0AC04 		mvn	r4, #172
 4585 006a F5E7     		b	.L678
 4587              		.section	.text.wc_ecc_make_pub,"ax",%progbits
 4588              		.align	1
 4589              		.global	wc_ecc_make_pub
 4590              		.syntax unified
 4591              		.thumb
 4592              		.thumb_func
 4593              		.fpu fpv4-sp-d16
 4595              	wc_ecc_make_pub:
 4596              		@ args = 0, pretend = 0, frame = 0
 4597              		@ frame_needed = 0, uses_anonymous_args = 0
 4598              		@ link register save eliminated.
 4599 0000 0022     		movs	r2, #0
 4600 0002 FFF7FEBF 		b	wc_ecc_make_pub_ex
 4602              		.section	.text._ecc_make_key_ex,"ax",%progbits
 4603              		.align	1
 4604              		.syntax unified
 4605              		.thumb
 4606              		.thumb_func
 4607              		.fpu fpv4-sp-d16
 4609              	_ecc_make_key_ex:
 4610              		@ args = 4, pretend = 0, frame = 48
 4611              		@ frame_needed = 0, uses_anonymous_args = 0
 4612 0000 2DE9F041 		push	{r4, r5, r6, r7, r8, lr}
 4613 0004 0646     		mov	r6, r0
 4614 0006 1546     		mov	r5, r2
 4615 0008 8CB0     		sub	sp, sp, #48
 4616 000a 002A     		cmp	r2, #0
 4617 000c 6AD0     		beq	.L694
 4618 000e 0028     		cmp	r0, #0
 4619 0010 68D0     		beq	.L694
 4620 0012 0022     		movs	r2, #0
 4621 0014 2846     		mov	r0, r5
 4622 0016 AA60     		str	r2, [r5, #8]
ARM GAS  /tmp/ccqDDmMm.s 			page 80


 4623 0018 1A46     		mov	r2, r3
 4624 001a FFF7FEFF 		bl	wc_ecc_set_curve
 4625 001e 0446     		mov	r4, r0
 4626 0020 C8B9     		cbnz	r0, .L687
 4627 0022 9DF84830 		ldrb	r3, [sp, #72]	@ zero_extendqisi2
 4628 0026 6A68     		ldr	r2, [r5, #4]
 4629 0028 EB60     		str	r3, [r5, #12]
 4630 002a 531C     		adds	r3, r2, #1
 4631 002c 05F5E877 		add	r7, r5, #464
 4632 0030 15D0     		beq	.L689
 4633 0032 3421     		movs	r1, #52
 4634 0034 2D4B     		ldr	r3, .L703
 4635 0036 01FB0233 		mla	r3, r1, r2, r3
 4636 003a 5B68     		ldr	r3, [r3, #4]
 4637 003c 072B     		cmp	r3, #7
 4638 003e 0ED1     		bne	.L689
 4639 0040 3946     		mov	r1, r7
 4640 0042 3046     		mov	r0, r6
 4641 0044 6B69     		ldr	r3, [r5, #20]
 4642 0046 05F11802 		add	r2, r5, #24
 4643 004a FFF7FEFF 		bl	sp_ecc_make_key_256
 4644 004e 0446     		mov	r4, r0
 4645 0050 08B9     		cbnz	r0, .L687
 4646 0052 0223     		movs	r3, #2
 4647 0054 2B60     		str	r3, [r5]
 4648              	.L687:
 4649 0056 2046     		mov	r0, r4
 4650 0058 0CB0     		add	sp, sp, #48
 4651              		@ sp needed
 4652 005a BDE8F081 		pop	{r4, r5, r6, r7, r8, pc}
 4653              	.L689:
 4654 005e 2822     		movs	r2, #40
 4655 0060 0021     		movs	r1, #0
 4656 0062 02A8     		add	r0, sp, #8
 4657 0064 0190     		str	r0, [sp, #4]
 4658 0066 FFF7FEFF 		bl	memset
 4659 006a 0523     		movs	r3, #5
 4660 006c 3846     		mov	r0, r7
 4661 006e 0993     		str	r3, [sp, #36]
 4662 0070 FFF7FEFF 		bl	sp_init
 4663 0074 0446     		mov	r4, r0
 4664 0076 60BB     		cbnz	r0, .L695
 4665 0078 4FF4B470 		mov	r0, #360
 4666 007c FFF7FEFF 		bl	wolfSSL_Malloc
 4667 0080 8046     		mov	r8, r0
 4668 0082 60B3     		cbz	r0, .L696
 4669 0084 019B     		ldr	r3, [sp, #4]
 4670 0086 3B22     		movs	r2, #59
 4671 0088 9861     		str	r0, [r3, #24]
 4672 008a 01A9     		add	r1, sp, #4
 4673 008c 2869     		ldr	r0, [r5, #16]
 4674 008e FFF7FEFF 		bl	wc_ecc_curve_load
 4675 0092 0446     		mov	r4, r0
 4676 0094 F8B9     		cbnz	r0, .L690
 4677 0096 2969     		ldr	r1, [r5, #16]
 4678 0098 019B     		ldr	r3, [sp, #4]
 4679 009a 3A46     		mov	r2, r7
ARM GAS  /tmp/ccqDDmMm.s 			page 81


 4680 009c 3046     		mov	r0, r6
 4681 009e DB68     		ldr	r3, [r3, #12]
 4682 00a0 0968     		ldr	r1, [r1]
 4683 00a2 FFF7FEFF 		bl	wc_ecc_gen_k
 4684 00a6 0446     		mov	r4, r0
 4685 00a8 A8B9     		cbnz	r0, .L690
 4686 00aa 0246     		mov	r2, r0
 4687 00ac 3346     		mov	r3, r6
 4688 00ae 2846     		mov	r0, r5
 4689 00b0 0199     		ldr	r1, [sp, #4]
 4690 00b2 FFF7FEFF 		bl	ecc_make_pub_ex
 4691 00b6 0446     		mov	r4, r0
 4692 00b8 68B9     		cbnz	r0, .L690
 4693 00ba 0223     		movs	r3, #2
 4694 00bc 2B60     		str	r3, [r5]
 4695              	.L691:
 4696 00be 0198     		ldr	r0, [sp, #4]
 4697 00c0 FFF7FEFF 		bl	wc_ecc_curve_free
 4698 00c4 B8F1000F 		cmp	r8, #0
 4699 00c8 C5D0     		beq	.L687
 4700 00ca 4046     		mov	r0, r8
 4701 00cc FFF7FEFF 		bl	wolfSSL_Free
 4702 00d0 C1E7     		b	.L687
 4703              	.L695:
 4704 00d2 4FF00008 		mov	r8, #0
 4705              	.L690:
 4706 00d6 3846     		mov	r0, r7
 4707 00d8 FFF7FEFF 		bl	sp_forcezero
 4708 00dc EFE7     		b	.L691
 4709              	.L696:
 4710 00de 6FF07C04 		mvn	r4, #124
 4711 00e2 F8E7     		b	.L690
 4712              	.L694:
 4713 00e4 6FF0AC04 		mvn	r4, #172
 4714 00e8 B5E7     		b	.L687
 4715              	.L704:
 4716 00ea 00BF     		.align	2
 4717              	.L703:
 4718 00ec 00000000 		.word	.LANCHOR0
 4720              		.section	.text.wc_ecc_make_key_ex2,"ax",%progbits
 4721              		.align	1
 4722              		.global	wc_ecc_make_key_ex2
 4723              		.syntax unified
 4724              		.thumb
 4725              		.thumb_func
 4726              		.fpu fpv4-sp-d16
 4728              	wc_ecc_make_key_ex2:
 4729              		@ args = 4, pretend = 0, frame = 0
 4730              		@ frame_needed = 0, uses_anonymous_args = 0
 4731              		@ link register save eliminated.
 4732 0000 FFF7FEBF 		b	_ecc_make_key_ex
 4734              		.section	.text.wc_ecc_make_key_ex,"ax",%progbits
 4735              		.align	1
 4736              		.global	wc_ecc_make_key_ex
 4737              		.syntax unified
 4738              		.thumb
 4739              		.thumb_func
ARM GAS  /tmp/ccqDDmMm.s 			page 82


 4740              		.fpu fpv4-sp-d16
 4742              	wc_ecc_make_key_ex:
 4743              		@ args = 0, pretend = 0, frame = 0
 4744              		@ frame_needed = 0, uses_anonymous_args = 0
 4745 0000 13B5     		push	{r0, r1, r4, lr}
 4746 0002 0024     		movs	r4, #0
 4747 0004 0094     		str	r4, [sp]
 4748 0006 FFF7FEFF 		bl	_ecc_make_key_ex
 4749 000a 02B0     		add	sp, sp, #8
 4750              		@ sp needed
 4751 000c 10BD     		pop	{r4, pc}
 4753              		.section	.text.wc_ecc_make_key,"ax",%progbits
 4754              		.align	1
 4755              		.global	wc_ecc_make_key
 4756              		.syntax unified
 4757              		.thumb
 4758              		.thumb_func
 4759              		.fpu fpv4-sp-d16
 4761              	wc_ecc_make_key:
 4762              		@ args = 0, pretend = 0, frame = 0
 4763              		@ frame_needed = 0, uses_anonymous_args = 0
 4764              		@ link register save eliminated.
 4765 0000 0023     		movs	r3, #0
 4766 0002 FFF7FEBF 		b	wc_ecc_make_key_ex
 4768              		.section	.text.wc_ecc_sign_hash_ex,"ax",%progbits
 4769              		.align	1
 4770              		.global	wc_ecc_sign_hash_ex
 4771              		.syntax unified
 4772              		.thumb
 4773              		.thumb_func
 4774              		.fpu fpv4-sp-d16
 4776              	wc_ecc_sign_hash_ex:
 4777              		@ args = 8, pretend = 0, frame = 64
 4778              		@ frame_needed = 0, uses_anonymous_args = 0
 4779 0000 2DE9F04F 		push	{r4, r5, r6, r7, r8, r9, r10, fp, lr}
 4780 0004 2DED048B 		vpush.64	{d8, d9}
 4781 0008 95B0     		sub	sp, sp, #84
 4782 000a 0746     		mov	r7, r0
 4783 000c 0E46     		mov	r6, r1
 4784 000e 0AA8     		add	r0, sp, #40
 4785 0010 08EE102A 		vmov	s16, r2	@ int
 4786 0014 0021     		movs	r1, #0
 4787 0016 2822     		movs	r2, #40
 4788 0018 1C46     		mov	r4, r3
 4789 001a DDF88C80 		ldr	r8, [sp, #140]
 4790 001e 0990     		str	r0, [sp, #36]
 4791 0020 FFF7FEFF 		bl	memset
 4792 0024 0123     		movs	r3, #1
 4793 0026 1193     		str	r3, [sp, #68]
 4794 0028 002F     		cmp	r7, #0
 4795 002a 00F0B081 		beq	.L743
 4796 002e 229B     		ldr	r3, [sp, #136]
 4797 0030 002B     		cmp	r3, #0
 4798 0032 00F0AC81 		beq	.L743
 4799 0036 B8F1000F 		cmp	r8, #0
 4800 003a 00F0A881 		beq	.L743
 4801 003e 002C     		cmp	r4, #0
ARM GAS  /tmp/ccqDDmMm.s 			page 83


 4802 0040 00F0A581 		beq	.L743
 4803 0044 18EE103A 		vmov	r3, s16	@ int
 4804 0048 002B     		cmp	r3, #0
 4805 004a 00F0A081 		beq	.L743
 4806 004e 2368     		ldr	r3, [r4]
 4807 0050 023B     		subs	r3, r3, #2
 4808 0052 012B     		cmp	r3, #1
 4809 0054 00F29B81 		bhi	.L743
 4810 0058 6368     		ldr	r3, [r4, #4]
 4811 005a 1846     		mov	r0, r3
 4812 005c FFF7FEFF 		bl	wc_ecc_is_valid_idx
 4813 0060 0028     		cmp	r0, #0
 4814 0062 00F09481 		beq	.L743
 4815 0066 2269     		ldr	r2, [r4, #16]
 4816 0068 002A     		cmp	r2, #0
 4817 006a 00F09081 		beq	.L743
 4818 006e 5A1C     		adds	r2, r3, #1
 4819 0070 03D1     		bne	.L710
 4820              	.L713:
 4821 0072 2369     		ldr	r3, [r4, #16]
 4822 0074 0BBB     		cbnz	r3, .L774
 4823 0076 4820     		movs	r0, #72
 4824 0078 26E0     		b	.L711
 4825              	.L710:
 4826 007a 3422     		movs	r2, #52
 4827 007c 9748     		ldr	r0, .L778
 4828 007e 02FB0300 		mla	r0, r2, r3, r0
 4829 0082 4368     		ldr	r3, [r0, #4]
 4830 0084 072B     		cmp	r3, #7
 4831 0086 F4D1     		bne	.L713
 4832 0088 6369     		ldr	r3, [r4, #20]
 4833 008a 18EE102A 		vmov	r2, s16	@ int
 4834 008e 0393     		str	r3, [sp, #12]
 4835 0090 0023     		movs	r3, #0
 4836 0092 CDE90183 		strd	r8, r3, [sp, #4]
 4837 0096 229B     		ldr	r3, [sp, #136]
 4838 0098 3146     		mov	r1, r6
 4839 009a 0093     		str	r3, [sp]
 4840 009c 3846     		mov	r0, r7
 4841 009e 04F5E873 		add	r3, r4, #464
 4842 00a2 FFF7FEFF 		bl	sp_ecc_sign_256
 4843 00a6 10F1EA0F 		cmn	r0, #234
 4844 00aa 8346     		mov	fp, r0
 4845 00ac E1D0     		beq	.L713
 4846              	.L708:
 4847 00ae 5846     		mov	r0, fp
 4848 00b0 15B0     		add	sp, sp, #84
 4849              		@ sp needed
 4850 00b2 BDEC048B 		vldm	sp!, {d8-d9}
 4851 00b6 BDE8F08F 		pop	{r4, r5, r6, r7, r8, r9, r10, fp, pc}
 4852              	.L774:
 4853 00ba 1868     		ldr	r0, [r3]
 4854 00bc C000     		lsls	r0, r0, #3
 4855 00be 1F30     		adds	r0, r0, #31
 4856 00c0 4009     		lsrs	r0, r0, #5
 4857 00c2 25D0     		beq	.L745
 4858 00c4 0130     		adds	r0, r0, #1
ARM GAS  /tmp/ccqDDmMm.s 			page 84


 4859 00c6 C000     		lsls	r0, r0, #3
 4860              	.L711:
 4861 00c8 FFF7FEFF 		bl	wolfSSL_Malloc
 4862 00cc 0546     		mov	r5, r0
 4863 00ce 0028     		cmp	r0, #0
 4864 00d0 00F06081 		beq	.L746
 4865 00d4 2369     		ldr	r3, [r4, #16]
 4866 00d6 EBB1     		cbz	r3, .L747
 4867 00d8 1A68     		ldr	r2, [r3]
 4868 00da D200     		lsls	r2, r2, #3
 4869 00dc 1F32     		adds	r2, r2, #31
 4870 00de 5209     		lsrs	r2, r2, #5
 4871 00e0 1AD0     		beq	.L748
 4872 00e2 0132     		adds	r2, r2, #1
 4873 00e4 D200     		lsls	r2, r2, #3
 4874              	.L714:
 4875 00e6 0021     		movs	r1, #0
 4876 00e8 2846     		mov	r0, r5
 4877 00ea FFF7FEFF 		bl	memset
 4878 00ee 2369     		ldr	r3, [r4, #16]
 4879 00f0 A3B1     		cbz	r3, .L749
 4880 00f2 1968     		ldr	r1, [r3]
 4881 00f4 C900     		lsls	r1, r1, #3
 4882 00f6 1F31     		adds	r1, r1, #31
 4883 00f8 4909     		lsrs	r1, r1, #5
 4884 00fa 4900     		lsls	r1, r1, #1
 4885 00fc 0131     		adds	r1, r1, #1
 4886              	.L715:
 4887 00fe 2846     		mov	r0, r5
 4888 0100 FFF7FEFF 		bl	sp_init_size
 4889 0104 8346     		mov	fp, r0
 4890 0106 58B1     		cbz	r0, .L716
 4891 0108 2846     		mov	r0, r5
 4892              	.L777:
 4893 010a FFF7FEFF 		bl	wolfSSL_Free
 4894 010e CEE7     		b	.L708
 4895              	.L745:
 4896 0110 0820     		movs	r0, #8
 4897 0112 D9E7     		b	.L711
 4898              	.L747:
 4899 0114 4822     		movs	r2, #72
 4900 0116 E6E7     		b	.L714
 4901              	.L748:
 4902 0118 0822     		movs	r2, #8
 4903 011a E4E7     		b	.L714
 4904              	.L749:
 4905 011c 1121     		movs	r1, #17
 4906 011e EEE7     		b	.L715
 4907              	.L716:
 4908 0120 4820     		movs	r0, #72
 4909 0122 FFF7FEFF 		bl	wolfSSL_Malloc
 4910 0126 0590     		str	r0, [sp, #20]
 4911 0128 78B9     		cbnz	r0, .L717
 4912              	.L721:
 4913 012a 6FF07C0B 		mvn	fp, #124
 4914              	.L718:
 4915 012e 2846     		mov	r0, r5
ARM GAS  /tmp/ccqDDmMm.s 			page 85


 4916 0130 FFF7FEFF 		bl	sp_clear
 4917 0134 0998     		ldr	r0, [sp, #36]
 4918 0136 FFF7FEFF 		bl	wc_ecc_curve_free
 4919 013a 2846     		mov	r0, r5
 4920 013c FFF7FEFF 		bl	wolfSSL_Free
 4921 0140 059B     		ldr	r3, [sp, #20]
 4922 0142 002B     		cmp	r3, #0
 4923 0144 B3D0     		beq	.L708
 4924 0146 1846     		mov	r0, r3
 4925 0148 DFE7     		b	.L777
 4926              	.L717:
 4927 014a 059A     		ldr	r2, [sp, #20]
 4928 014c 099B     		ldr	r3, [sp, #36]
 4929 014e 2069     		ldr	r0, [r4, #16]
 4930 0150 9A61     		str	r2, [r3, #24]
 4931 0152 09A9     		add	r1, sp, #36
 4932 0154 0822     		movs	r2, #8
 4933 0156 FFF7FEFF 		bl	wc_ecc_curve_load
 4934 015a 8346     		mov	fp, r0
 4935 015c 0028     		cmp	r0, #0
 4936 015e E6D1     		bne	.L718
 4937 0160 099B     		ldr	r3, [sp, #36]
 4938 0162 D868     		ldr	r0, [r3, #12]
 4939 0164 FFF7FEFF 		bl	sp_count_bits
 4940 0168 B0EBC60F 		cmp	r0, r6, lsl #3
 4941 016c 3CBF     		itt	cc
 4942 016e C61D     		addcc	r6, r0, #7
 4943 0170 F608     		lsrcc	r6, r6, #3
 4944 0172 8146     		mov	r9, r0
 4945 0174 3246     		mov	r2, r6
 4946 0176 3946     		mov	r1, r7
 4947 0178 2846     		mov	r0, r5
 4948 017a FFF7FEFF 		bl	sp_read_unsigned_bin
 4949 017e 8346     		mov	fp, r0
 4950 0180 0028     		cmp	r0, #0
 4951 0182 D4D1     		bne	.L718
 4952 0184 B9EBC60F 		cmp	r9, r6, lsl #3
 4953 0188 07D2     		bcs	.L720
 4954 018a 09F00701 		and	r1, r9, #7
 4955 018e 2A46     		mov	r2, r5
 4956 0190 2846     		mov	r0, r5
 4957 0192 C1F10801 		rsb	r1, r1, #8
 4958 0196 FFF7FEFF 		bl	sp_rshb
 4959              	.L720:
 4960 019a 4FF41B70 		mov	r0, #620
 4961 019e FFF7FEFF 		bl	wolfSSL_Malloc
 4962 01a2 0746     		mov	r7, r0
 4963 01a4 0028     		cmp	r0, #0
 4964 01a6 C0D0     		beq	.L721
 4965 01a8 6FF00102 		mvn	r2, #1
 4966 01ac 6169     		ldr	r1, [r4, #20]
 4967 01ae FFF7FEFF 		bl	wc_ecc_init_ex
 4968 01b2 8346     		mov	fp, r0
 4969 01b4 0028     		cmp	r0, #0
 4970 01b6 BAD1     		bne	.L718
 4971 01b8 2369     		ldr	r3, [r4, #16]
 4972 01ba DDF82490 		ldr	r9, [sp, #36]
ARM GAS  /tmp/ccqDDmMm.s 			page 86


 4973 01be 002B     		cmp	r3, #0
 4974 01c0 3BD0     		beq	.L750
 4975 01c2 1868     		ldr	r0, [r3]
 4976 01c4 C000     		lsls	r0, r0, #3
 4977 01c6 1F30     		adds	r0, r0, #31
 4978 01c8 4009     		lsrs	r0, r0, #5
 4979 01ca 38D0     		beq	.L751
 4980 01cc 0130     		adds	r0, r0, #1
 4981 01ce C000     		lsls	r0, r0, #3
 4982              	.L723:
 4983 01d0 FFF7FEFF 		bl	wolfSSL_Malloc
 4984 01d4 0646     		mov	r6, r0
 4985 01d6 0028     		cmp	r0, #0
 4986 01d8 00F0D680 		beq	.L752
 4987 01dc 2369     		ldr	r3, [r4, #16]
 4988 01de 83B3     		cbz	r3, .L753
 4989 01e0 1A68     		ldr	r2, [r3]
 4990 01e2 D200     		lsls	r2, r2, #3
 4991 01e4 1F32     		adds	r2, r2, #31
 4992 01e6 5209     		lsrs	r2, r2, #5
 4993 01e8 2DD0     		beq	.L754
 4994 01ea 0132     		adds	r2, r2, #1
 4995 01ec D200     		lsls	r2, r2, #3
 4996              	.L725:
 4997 01ee 0021     		movs	r1, #0
 4998 01f0 3046     		mov	r0, r6
 4999 01f2 FFF7FEFF 		bl	memset
 5000 01f6 2369     		ldr	r3, [r4, #16]
 5001 01f8 3BB3     		cbz	r3, .L755
 5002 01fa 1968     		ldr	r1, [r3]
 5003 01fc C900     		lsls	r1, r1, #3
 5004 01fe 1F31     		adds	r1, r1, #31
 5005 0200 4909     		lsrs	r1, r1, #5
 5006 0202 4900     		lsls	r1, r1, #1
 5007 0204 0131     		adds	r1, r1, #1
 5008              	.L726:
 5009 0206 3046     		mov	r0, r6
 5010 0208 FFF7FEFF 		bl	sp_init_size
 5011 020c 8346     		mov	fp, r0
 5012 020e 30B9     		cbnz	r0, .L724
 5013 0210 4FF0410A 		mov	r10, #65
 5014              	.L729:
 5015 0214 BAF1010A 		subs	r10, r10, #1
 5016 0218 19D1     		bne	.L727
 5017              	.L731:
 5018 021a 6FF0C60B 		mvn	fp, #198
 5019              	.L724:
 5020 021e 3046     		mov	r0, r6
 5021 0220 FFF7FEFF 		bl	sp_forcezero
 5022 0224 16B1     		cbz	r6, .L734
 5023 0226 3046     		mov	r0, r6
 5024 0228 FFF7FEFF 		bl	wolfSSL_Free
 5025              	.L734:
 5026 022c 3846     		mov	r0, r7
 5027 022e FFF7FEFF 		bl	wc_ecc_free
 5028 0232 3846     		mov	r0, r7
 5029 0234 FFF7FEFF 		bl	wolfSSL_Free
ARM GAS  /tmp/ccqDDmMm.s 			page 87


 5030 0238 79E7     		b	.L718
 5031              	.L750:
 5032 023a 4820     		movs	r0, #72
 5033 023c C8E7     		b	.L723
 5034              	.L751:
 5035 023e 0820     		movs	r0, #8
 5036 0240 C6E7     		b	.L723
 5037              	.L753:
 5038 0242 4822     		movs	r2, #72
 5039 0244 D3E7     		b	.L725
 5040              	.L754:
 5041 0246 0822     		movs	r2, #8
 5042 0248 D1E7     		b	.L725
 5043              	.L755:
 5044 024a 1121     		movs	r1, #17
 5045 024c DBE7     		b	.L726
 5046              	.L727:
 5047 024e 2169     		ldr	r1, [r4, #16]
 5048 0250 3246     		mov	r2, r6
 5049 0252 18EE100A 		vmov	r0, s16	@ int
 5050 0256 D9F80C30 		ldr	r3, [r9, #12]
 5051 025a 0968     		ldr	r1, [r1]
 5052 025c FFF7FEFF 		bl	wc_ecc_gen_k
 5053 0260 10F1790F 		cmn	r0, #121
 5054 0264 8346     		mov	fp, r0
 5055 0266 D5D0     		beq	.L729
 5056 0268 BBF1000F 		cmp	fp, #0
 5057 026c D7D1     		bne	.L724
 5058 026e 4123     		movs	r3, #65
 5059 0270 CDE9063B 		strd	r3, fp, [sp, #24]
 5060 0274 07F11803 		add	r3, r7, #24
 5061 0278 08EE903A 		vmov	s17, r3	@ int
 5062 027c 07F5E87A 		add	r10, r7, #464
 5063              	.L728:
 5064 0280 069B     		ldr	r3, [sp, #24]
 5065 0282 013B     		subs	r3, r3, #1
 5066 0284 0693     		str	r3, [sp, #24]
 5067 0286 C8D0     		beq	.L731
 5068 0288 079B     		ldr	r3, [sp, #28]
 5069 028a 2169     		ldr	r1, [r4, #16]
 5070 028c 0093     		str	r3, [sp]
 5071 028e 4B68     		ldr	r3, [r1, #4]
 5072 0290 3A46     		mov	r2, r7
 5073 0292 18EE100A 		vmov	r0, s16	@ int
 5074 0296 0968     		ldr	r1, [r1]
 5075 0298 FFF7FEFF 		bl	_ecc_make_key_ex
 5076 029c 8346     		mov	fp, r0
 5077 029e 0028     		cmp	r0, #0
 5078 02a0 BDD1     		bne	.L724
 5079 02a2 18EE900A 		vmov	r0, s17	@ int
 5080 02a6 229A     		ldr	r2, [sp, #136]
 5081 02a8 D9F80C10 		ldr	r1, [r9, #12]
 5082 02ac FFF7FEFF 		bl	sp_mod
 5083 02b0 8346     		mov	fp, r0
 5084 02b2 0028     		cmp	r0, #0
 5085 02b4 B3D1     		bne	.L724
 5086 02b6 229B     		ldr	r3, [sp, #136]
ARM GAS  /tmp/ccqDDmMm.s 			page 88


 5087 02b8 1B88     		ldrh	r3, [r3]
 5088 02ba 8BB9     		cbnz	r3, .L732
 5089              	.L733:
 5090 02bc 18EE900A 		vmov	r0, s17	@ int
 5091 02c0 FFF7FEFF 		bl	sp_clear
 5092 02c4 07F1A800 		add	r0, r7, #168
 5093 02c8 FFF7FEFF 		bl	sp_clear
 5094 02cc 07F59C70 		add	r0, r7, #312
 5095 02d0 FFF7FEFF 		bl	sp_clear
 5096 02d4 5046     		mov	r0, r10
 5097 02d6 FFF7FEFF 		bl	sp_forcezero
 5098 02da D1E7     		b	.L728
 5099              	.L779:
 5100              		.align	2
 5101              	.L778:
 5102 02dc 00000000 		.word	.LANCHOR0
 5103              	.L732:
 5104 02e0 04F5E873 		add	r3, r4, #464
 5105 02e4 09EE103A 		vmov	s18, r3	@ int
 5106 02e8 3146     		mov	r1, r6
 5107 02ea 5346     		mov	r3, r10
 5108 02ec 5046     		mov	r0, r10
 5109 02ee D9F80C20 		ldr	r2, [r9, #12]
 5110 02f2 FFF7FEFF 		bl	sp_mulmod
 5111 02f6 8346     		mov	fp, r0
 5112 02f8 0028     		cmp	r0, #0
 5113 02fa 90D1     		bne	.L724
 5114 02fc 5246     		mov	r2, r10
 5115 02fe 5046     		mov	r0, r10
 5116 0300 D9F80C10 		ldr	r1, [r9, #12]
 5117 0304 FFF7FEFF 		bl	sp_invmod
 5118 0308 8346     		mov	fp, r0
 5119 030a 0028     		cmp	r0, #0
 5120 030c 87D1     		bne	.L724
 5121 030e 4346     		mov	r3, r8
 5122 0310 19EE100A 		vmov	r0, s18	@ int
 5123 0314 D9F80C20 		ldr	r2, [r9, #12]
 5124 0318 2299     		ldr	r1, [sp, #136]
 5125 031a FFF7FEFF 		bl	sp_mulmod
 5126 031e 8346     		mov	fp, r0
 5127 0320 0028     		cmp	r0, #0
 5128 0322 7FF47CAF 		bne	.L724
 5129 0326 4346     		mov	r3, r8
 5130 0328 4146     		mov	r1, r8
 5131 032a 5046     		mov	r0, r10
 5132 032c D9F80C20 		ldr	r2, [r9, #12]
 5133 0330 FFF7FEFF 		bl	sp_mulmod
 5134 0334 8346     		mov	fp, r0
 5135 0336 0028     		cmp	r0, #0
 5136 0338 7FF471AF 		bne	.L724
 5137 033c 5346     		mov	r3, r10
 5138 033e 2946     		mov	r1, r5
 5139 0340 5046     		mov	r0, r10
 5140 0342 D9F80C20 		ldr	r2, [r9, #12]
 5141 0346 FFF7FEFF 		bl	sp_mulmod
 5142 034a 8346     		mov	fp, r0
 5143 034c 0028     		cmp	r0, #0
ARM GAS  /tmp/ccqDDmMm.s 			page 89


 5144 034e 7FF466AF 		bne	.L724
 5145 0352 4346     		mov	r3, r8
 5146 0354 4146     		mov	r1, r8
 5147 0356 5046     		mov	r0, r10
 5148 0358 D9F80C20 		ldr	r2, [r9, #12]
 5149 035c FFF7FEFF 		bl	sp_addmod_ct
 5150 0360 8346     		mov	fp, r0
 5151 0362 0028     		cmp	r0, #0
 5152 0364 7FF45BAF 		bne	.L724
 5153 0368 4346     		mov	r3, r8
 5154 036a 3146     		mov	r1, r6
 5155 036c 4046     		mov	r0, r8
 5156 036e D9F80C20 		ldr	r2, [r9, #12]
 5157 0372 FFF7FEFF 		bl	sp_mulmod
 5158 0376 8346     		mov	fp, r0
 5159 0378 0028     		cmp	r0, #0
 5160 037a 7FF450AF 		bne	.L724
 5161 037e B8F80020 		ldrh	r2, [r8]
 5162 0382 002A     		cmp	r2, #0
 5163 0384 9AD0     		beq	.L733
 5164 0386 4AE7     		b	.L724
 5165              	.L752:
 5166 0388 6FF07C0B 		mvn	fp, #124
 5167 038c 47E7     		b	.L724
 5168              	.L743:
 5169 038e 6FF0A90B 		mvn	fp, #169
 5170 0392 8CE6     		b	.L708
 5171              	.L746:
 5172 0394 6FF07C0B 		mvn	fp, #124
 5173 0398 89E6     		b	.L708
 5175 039a 00BF     		.section	.text.wc_ecc_sign_hash,"ax",%progbits
 5176              		.align	1
 5177              		.global	wc_ecc_sign_hash
 5178              		.syntax unified
 5179              		.thumb
 5180              		.thumb_func
 5181              		.fpu fpv4-sp-d16
 5183              	wc_ecc_sign_hash:
 5184              		@ args = 8, pretend = 0, frame = 0
 5185              		@ frame_needed = 0, uses_anonymous_args = 0
 5186 0000 2DE9F74F 		push	{r0, r1, r2, r4, r5, r6, r7, r8, r9, r10, fp, lr}
 5187 0004 0D9E     		ldr	r6, [sp, #52]
 5188 0006 8A46     		mov	r10, r1
 5189 0008 1746     		mov	r7, r2
 5190 000a 9846     		mov	r8, r3
 5191 000c 8146     		mov	r9, r0
 5192 000e 0028     		cmp	r0, #0
 5193 0010 00F09A80 		beq	.L796
 5194 0014 002A     		cmp	r2, #0
 5195 0016 00F09780 		beq	.L796
 5196 001a 002B     		cmp	r3, #0
 5197 001c 00F09480 		beq	.L796
 5198 0020 002E     		cmp	r6, #0
 5199 0022 00F09180 		beq	.L796
 5200 0026 0C9B     		ldr	r3, [sp, #48]
 5201 0028 002B     		cmp	r3, #0
 5202 002a 00F08D80 		beq	.L796
ARM GAS  /tmp/ccqDDmMm.s 			page 90


 5203 002e 3369     		ldr	r3, [r6, #16]
 5204 0030 002B     		cmp	r3, #0
 5205 0032 4DD0     		beq	.L797
 5206 0034 1868     		ldr	r0, [r3]
 5207 0036 C000     		lsls	r0, r0, #3
 5208 0038 1F30     		adds	r0, r0, #31
 5209 003a 4009     		lsrs	r0, r0, #5
 5210 003c 4AD0     		beq	.L798
 5211 003e 0130     		adds	r0, r0, #1
 5212 0040 C000     		lsls	r0, r0, #3
 5213              	.L782:
 5214 0042 FFF7FEFF 		bl	wolfSSL_Malloc
 5215 0046 0446     		mov	r4, r0
 5216 0048 0028     		cmp	r0, #0
 5217 004a 00F08380 		beq	.L809
 5218 004e 3369     		ldr	r3, [r6, #16]
 5219 0050 002B     		cmp	r3, #0
 5220 0052 41D0     		beq	.L800
 5221 0054 1A68     		ldr	r2, [r3]
 5222 0056 D200     		lsls	r2, r2, #3
 5223 0058 1F32     		adds	r2, r2, #31
 5224 005a 5209     		lsrs	r2, r2, #5
 5225 005c 3ED0     		beq	.L801
 5226 005e 0132     		adds	r2, r2, #1
 5227 0060 D200     		lsls	r2, r2, #3
 5228              	.L783:
 5229 0062 0021     		movs	r1, #0
 5230 0064 2046     		mov	r0, r4
 5231 0066 FFF7FEFF 		bl	memset
 5232 006a 3369     		ldr	r3, [r6, #16]
 5233 006c 002B     		cmp	r3, #0
 5234 006e 37D0     		beq	.L802
 5235 0070 1868     		ldr	r0, [r3]
 5236 0072 C000     		lsls	r0, r0, #3
 5237 0074 1F30     		adds	r0, r0, #31
 5238 0076 4009     		lsrs	r0, r0, #5
 5239 0078 34D0     		beq	.L803
 5240 007a 0130     		adds	r0, r0, #1
 5241 007c C000     		lsls	r0, r0, #3
 5242              	.L784:
 5243 007e FFF7FEFF 		bl	wolfSSL_Malloc
 5244 0082 0546     		mov	r5, r0
 5245 0084 0028     		cmp	r0, #0
 5246 0086 62D0     		beq	.L785
 5247 0088 3369     		ldr	r3, [r6, #16]
 5248 008a 6BB3     		cbz	r3, .L804
 5249 008c 1A68     		ldr	r2, [r3]
 5250 008e D200     		lsls	r2, r2, #3
 5251 0090 1F32     		adds	r2, r2, #31
 5252 0092 5209     		lsrs	r2, r2, #5
 5253 0094 2AD0     		beq	.L805
 5254 0096 0132     		adds	r2, r2, #1
 5255 0098 D200     		lsls	r2, r2, #3
 5256              	.L786:
 5257 009a 0021     		movs	r1, #0
 5258 009c 2846     		mov	r0, r5
 5259 009e FFF7FEFF 		bl	memset
ARM GAS  /tmp/ccqDDmMm.s 			page 91


 5260 00a2 3369     		ldr	r3, [r6, #16]
 5261 00a4 23B3     		cbz	r3, .L806
 5262 00a6 1968     		ldr	r1, [r3]
 5263 00a8 C900     		lsls	r1, r1, #3
 5264 00aa 1F31     		adds	r1, r1, #31
 5265 00ac 4909     		lsrs	r1, r1, #5
 5266 00ae 4900     		lsls	r1, r1, #1
 5267 00b0 0131     		adds	r1, r1, #1
 5268              	.L787:
 5269 00b2 2046     		mov	r0, r4
 5270 00b4 FFF7FEFF 		bl	sp_init_size
 5271 00b8 8346     		mov	fp, r0
 5272 00ba D8B1     		cbz	r0, .L788
 5273              	.L810:
 5274 00bc 2846     		mov	r0, r5
 5275 00be FFF7FEFF 		bl	wolfSSL_Free
 5276 00c2 2046     		mov	r0, r4
 5277 00c4 FFF7FEFF 		bl	wolfSSL_Free
 5278              	.L780:
 5279 00c8 5846     		mov	r0, fp
 5280 00ca 03B0     		add	sp, sp, #12
 5281              		@ sp needed
 5282 00cc BDE8F08F 		pop	{r4, r5, r6, r7, r8, r9, r10, fp, pc}
 5283              	.L797:
 5284 00d0 4820     		movs	r0, #72
 5285 00d2 B6E7     		b	.L782
 5286              	.L798:
 5287 00d4 0820     		movs	r0, #8
 5288 00d6 B4E7     		b	.L782
 5289              	.L800:
 5290 00d8 4822     		movs	r2, #72
 5291 00da C2E7     		b	.L783
 5292              	.L801:
 5293 00dc 0822     		movs	r2, #8
 5294 00de C0E7     		b	.L783
 5295              	.L802:
 5296 00e0 4820     		movs	r0, #72
 5297 00e2 CCE7     		b	.L784
 5298              	.L803:
 5299 00e4 0820     		movs	r0, #8
 5300 00e6 CAE7     		b	.L784
 5301              	.L804:
 5302 00e8 4822     		movs	r2, #72
 5303 00ea D6E7     		b	.L786
 5304              	.L805:
 5305 00ec 0822     		movs	r2, #8
 5306 00ee D4E7     		b	.L786
 5307              	.L806:
 5308 00f0 1121     		movs	r1, #17
 5309 00f2 DEE7     		b	.L787
 5310              	.L788:
 5311 00f4 3369     		ldr	r3, [r6, #16]
 5312 00f6 EBB1     		cbz	r3, .L807
 5313 00f8 1968     		ldr	r1, [r3]
 5314 00fa C900     		lsls	r1, r1, #3
 5315 00fc 1F31     		adds	r1, r1, #31
 5316 00fe 4909     		lsrs	r1, r1, #5
ARM GAS  /tmp/ccqDDmMm.s 			page 92


 5317 0100 4900     		lsls	r1, r1, #1
 5318 0102 0131     		adds	r1, r1, #1
 5319              	.L789:
 5320 0104 2846     		mov	r0, r5
 5321 0106 FFF7FEFF 		bl	sp_init_size
 5322 010a 8346     		mov	fp, r0
 5323 010c 0028     		cmp	r0, #0
 5324 010e D5D1     		bne	.L810
 5325 0110 3346     		mov	r3, r6
 5326 0112 5146     		mov	r1, r10
 5327 0114 4846     		mov	r0, r9
 5328 0116 CDE90045 		strd	r4, r5, [sp]
 5329 011a 0C9A     		ldr	r2, [sp, #48]
 5330 011c FFF7FEFF 		bl	wc_ecc_sign_hash_ex
 5331 0120 B0F1000B 		subs	fp, r0, #0
 5332 0124 08DA     		bge	.L791
 5333              	.L811:
 5334 0126 2046     		mov	r0, r4
 5335 0128 FFF7FEFF 		bl	sp_clear
 5336 012c 2846     		mov	r0, r5
 5337 012e FFF7FEFF 		bl	sp_clear
 5338 0132 C3E7     		b	.L810
 5339              	.L807:
 5340 0134 1121     		movs	r1, #17
 5341 0136 E5E7     		b	.L789
 5342              	.L791:
 5343 0138 2B46     		mov	r3, r5
 5344 013a 2246     		mov	r2, r4
 5345 013c 4146     		mov	r1, r8
 5346 013e 3846     		mov	r0, r7
 5347 0140 FFF7FEFF 		bl	StoreECC_DSA_Sig
 5348 0144 8346     		mov	fp, r0
 5349 0146 EEE7     		b	.L811
 5350              	.L796:
 5351 0148 6FF0A90B 		mvn	fp, #169
 5352 014c BCE7     		b	.L780
 5353              	.L785:
 5354 014e 2046     		mov	r0, r4
 5355 0150 FFF7FEFF 		bl	wolfSSL_Free
 5356              	.L809:
 5357 0154 6FF07C0B 		mvn	fp, #124
 5358 0158 B6E7     		b	.L780
 5360              		.section	.text.wc_ecc_verify_hash_ex,"ax",%progbits
 5361              		.align	1
 5362              		.global	wc_ecc_verify_hash_ex
 5363              		.syntax unified
 5364              		.thumb
 5365              		.thumb_func
 5366              		.fpu fpv4-sp-d16
 5368              	wc_ecc_verify_hash_ex:
 5369              		@ args = 8, pretend = 0, frame = 104
 5370              		@ frame_needed = 0, uses_anonymous_args = 0
 5371 0000 2DE9F04F 		push	{r4, r5, r6, r7, r8, r9, r10, fp, lr}
 5372 0004 2DED028B 		vpush.64	{d8}
 5373 0008 A1B0     		sub	sp, sp, #132
 5374 000a 8146     		mov	r9, r0
 5375 000c 8A46     		mov	r10, r1
ARM GAS  /tmp/ccqDDmMm.s 			page 93


 5376 000e 0CA8     		add	r0, sp, #48
 5377 0010 08EE102A 		vmov	s16, r2	@ int
 5378 0014 0021     		movs	r1, #0
 5379 0016 2822     		movs	r2, #40
 5380 0018 9846     		mov	r8, r3
 5381 001a 2D9C     		ldr	r4, [sp, #180]
 5382 001c 0990     		str	r0, [sp, #36]
 5383 001e FFF7FEFF 		bl	memset
 5384 0022 0523     		movs	r3, #5
 5385 0024 1393     		str	r3, [sp, #76]
 5386 0026 B9F1000F 		cmp	r9, #0
 5387 002a 07D1     		bne	.L813
 5388              	.L815:
 5389 002c 6FF0A90B 		mvn	fp, #169
 5390              	.L812:
 5391 0030 5846     		mov	r0, fp
 5392 0032 21B0     		add	sp, sp, #132
 5393              		@ sp needed
 5394 0034 BDEC028B 		vldm	sp!, {d8}
 5395 0038 BDE8F08F 		pop	{r4, r5, r6, r7, r8, r9, r10, fp, pc}
 5396              	.L813:
 5397 003c BAF1000F 		cmp	r10, #0
 5398 0040 F4D0     		beq	.L815
 5399 0042 18EE103A 		vmov	r3, s16	@ int
 5400 0046 002B     		cmp	r3, #0
 5401 0048 F0D0     		beq	.L815
 5402 004a 2C9B     		ldr	r3, [sp, #176]
 5403 004c 002B     		cmp	r3, #0
 5404 004e EDD0     		beq	.L815
 5405 0050 002C     		cmp	r4, #0
 5406 0052 EBD0     		beq	.L815
 5407 0054 0021     		movs	r1, #0
 5408 0056 1960     		str	r1, [r3]
 5409 0058 6068     		ldr	r0, [r4, #4]
 5410 005a FFF7FEFF 		bl	wc_ecc_is_valid_idx
 5411 005e 0028     		cmp	r0, #0
 5412 0060 E4D0     		beq	.L815
 5413 0062 2369     		ldr	r3, [r4, #16]
 5414 0064 002B     		cmp	r3, #0
 5415 0066 E1D0     		beq	.L815
 5416 0068 2822     		movs	r2, #40
 5417 006a 16A8     		add	r0, sp, #88
 5418 006c 0B90     		str	r0, [sp, #44]
 5419 006e FFF7FEFF 		bl	memset
 5420 0072 0123     		movs	r3, #1
 5421 0074 4820     		movs	r0, #72
 5422 0076 1D93     		str	r3, [sp, #116]
 5423 0078 FFF7FEFF 		bl	wolfSSL_Malloc
 5424 007c 0546     		mov	r5, r0
 5425 007e 50B3     		cbz	r0, .L844
 5426 0080 0B9B     		ldr	r3, [sp, #44]
 5427 0082 0822     		movs	r2, #8
 5428 0084 9861     		str	r0, [r3, #24]
 5429 0086 0BA9     		add	r1, sp, #44
 5430 0088 2069     		ldr	r0, [r4, #16]
 5431 008a FFF7FEFF 		bl	wc_ecc_curve_load
 5432 008e 8346     		mov	fp, r0
ARM GAS  /tmp/ccqDDmMm.s 			page 94


 5433 0090 0028     		cmp	r0, #0
 5434 0092 37D1     		bne	.L817
 5435 0094 B9F80020 		ldrh	r2, [r9]
 5436 0098 42B3     		cbz	r2, .L846
 5437 009a BAF80020 		ldrh	r2, [r10]
 5438 009e 2AB3     		cbz	r2, .L846
 5439 00a0 0B9A     		ldr	r2, [sp, #44]
 5440 00a2 4846     		mov	r0, r9
 5441 00a4 D168     		ldr	r1, [r2, #12]
 5442 00a6 FFF7FEFF 		bl	sp_cmp
 5443 00aa 0130     		adds	r0, r0, #1
 5444 00ac 16D0     		beq	.L819
 5445              	.L820:
 5446 00ae 6FF0610B 		mvn	fp, #97
 5447              	.L818:
 5448 00b2 0B98     		ldr	r0, [sp, #44]
 5449 00b4 FFF7FEFF 		bl	wc_ecc_curve_free
 5450 00b8 2846     		mov	r0, r5
 5451 00ba FFF7FEFF 		bl	wolfSSL_Free
 5452 00be BBF1000F 		cmp	fp, #0
 5453 00c2 B5D1     		bne	.L812
 5454 00c4 2268     		ldr	r2, [r4]
 5455 00c6 032A     		cmp	r2, #3
 5456 00c8 2CD1     		bne	.L847
 5457 00ca 4FF4B470 		mov	r0, #360
 5458 00ce FFF7FEFF 		bl	wolfSSL_Malloc
 5459 00d2 0546     		mov	r5, r0
 5460 00d4 68B9     		cbnz	r0, .L822
 5461              	.L844:
 5462 00d6 6FF07C0B 		mvn	fp, #124
 5463 00da A9E7     		b	.L812
 5464              	.L819:
 5465 00dc 0B9A     		ldr	r2, [sp, #44]
 5466 00de 5046     		mov	r0, r10
 5467 00e0 D168     		ldr	r1, [r2, #12]
 5468 00e2 FFF7FEFF 		bl	sp_cmp
 5469 00e6 0130     		adds	r0, r0, #1
 5470 00e8 E1D1     		bne	.L820
 5471 00ea E2E7     		b	.L818
 5472              	.L846:
 5473 00ec 6FF0780B 		mvn	fp, #120
 5474 00f0 DFE7     		b	.L818
 5475              	.L822:
 5476 00f2 099B     		ldr	r3, [sp, #36]
 5477 00f4 3B22     		movs	r2, #59
 5478 00f6 9861     		str	r0, [r3, #24]
 5479 00f8 09A9     		add	r1, sp, #36
 5480 00fa 2069     		ldr	r0, [r4, #16]
 5481 00fc FFF7FEFF 		bl	wc_ecc_curve_load
 5482 0100 8346     		mov	fp, r0
 5483 0102 18B1     		cbz	r0, .L823
 5484              	.L817:
 5485 0104 2846     		mov	r0, r5
 5486 0106 FFF7FEFF 		bl	wolfSSL_Free
 5487 010a 91E7     		b	.L812
 5488              	.L823:
 5489 010c 0346     		mov	r3, r0
ARM GAS  /tmp/ccqDDmMm.s 			page 95


 5490 010e 0246     		mov	r2, r0
 5491 0110 0999     		ldr	r1, [sp, #36]
 5492 0112 2046     		mov	r0, r4
 5493 0114 FFF7FEFF 		bl	ecc_make_pub_ex
 5494 0118 8346     		mov	fp, r0
 5495 011a 78B3     		cbz	r0, .L848
 5496 011c 0998     		ldr	r0, [sp, #36]
 5497 011e FFF7FEFF 		bl	wc_ecc_curve_free
 5498 0122 EFE7     		b	.L817
 5499              	.L847:
 5500 0124 5E46     		mov	r6, fp
 5501 0126 5D46     		mov	r5, fp
 5502              	.L821:
 5503 0128 6268     		ldr	r2, [r4, #4]
 5504 012a 531C     		adds	r3, r2, #1
 5505 012c 28D0     		beq	.L824
 5506 012e 3421     		movs	r1, #52
 5507 0130 684B     		ldr	r3, .L904
 5508 0132 01FB0233 		mla	r3, r1, r2, r3
 5509 0136 5B68     		ldr	r3, [r3, #4]
 5510 0138 072B     		cmp	r3, #7
 5511 013a 21D1     		bne	.L824
 5512 013c 6369     		ldr	r3, [r4, #20]
 5513 013e 4146     		mov	r1, r8
 5514 0140 0493     		str	r3, [sp, #16]
 5515 0142 2C9B     		ldr	r3, [sp, #176]
 5516 0144 18EE100A 		vmov	r0, s16	@ int
 5517 0148 CDE902A3 		strd	r10, r3, [sp, #8]
 5518 014c 04F59C73 		add	r3, r4, #312
 5519 0150 0093     		str	r3, [sp]
 5520 0152 CDF80490 		str	r9, [sp, #4]
 5521 0156 04F1A803 		add	r3, r4, #168
 5522 015a 04F11802 		add	r2, r4, #24
 5523 015e FFF7FEFF 		bl	sp_ecc_verify_256
 5524 0162 10F1AE0F 		cmn	r0, #174
 5525 0166 8346     		mov	fp, r0
 5526 0168 0AD0     		beq	.L824
 5527 016a 002E     		cmp	r6, #0
 5528 016c 3FF460AF 		beq	.L812
 5529              	.L828:
 5530 0170 0998     		ldr	r0, [sp, #36]
 5531 0172 FFF7FEFF 		bl	wc_ecc_curve_free
 5532 0176 002D     		cmp	r5, #0
 5533 0178 C4D1     		bne	.L817
 5534 017a 59E7     		b	.L812
 5535              	.L848:
 5536 017c 0126     		movs	r6, #1
 5537 017e D3E7     		b	.L821
 5538              	.L824:
 5539 0180 86B9     		cbnz	r6, .L825
 5540 0182 4FF4B470 		mov	r0, #360
 5541 0186 FFF7FEFF 		bl	wolfSSL_Malloc
 5542 018a 0546     		mov	r5, r0
 5543 018c 0028     		cmp	r0, #0
 5544 018e A2D0     		beq	.L844
 5545 0190 099B     		ldr	r3, [sp, #36]
 5546 0192 3B22     		movs	r2, #59
ARM GAS  /tmp/ccqDDmMm.s 			page 96


 5547 0194 9861     		str	r0, [r3, #24]
 5548 0196 09A9     		add	r1, sp, #36
 5549 0198 2069     		ldr	r0, [r4, #16]
 5550 019a FFF7FEFF 		bl	wc_ecc_curve_load
 5551 019e 8346     		mov	fp, r0
 5552 01a0 0028     		cmp	r0, #0
 5553 01a2 AFD1     		bne	.L817
 5554              	.L825:
 5555 01a4 0023     		movs	r3, #0
 5556 01a6 CDE90A33 		strd	r3, r3, [sp, #40]
 5557 01aa 2369     		ldr	r3, [r4, #16]
 5558 01ac 099E     		ldr	r6, [sp, #36]
 5559 01ae 4BB3     		cbz	r3, .L849
 5560 01b0 1868     		ldr	r0, [r3]
 5561 01b2 C000     		lsls	r0, r0, #3
 5562 01b4 1F30     		adds	r0, r0, #31
 5563 01b6 4009     		lsrs	r0, r0, #5
 5564 01b8 26D0     		beq	.L850
 5565 01ba 0130     		adds	r0, r0, #1
 5566 01bc C000     		lsls	r0, r0, #3
 5567              	.L827:
 5568 01be FFF7FEFF 		bl	wolfSSL_Malloc
 5569 01c2 0746     		mov	r7, r0
 5570 01c4 D8B1     		cbz	r0, .L851
 5571 01c6 2369     		ldr	r3, [r4, #16]
 5572 01c8 03B3     		cbz	r3, .L852
 5573 01ca 1A68     		ldr	r2, [r3]
 5574 01cc D200     		lsls	r2, r2, #3
 5575 01ce 1F32     		adds	r2, r2, #31
 5576 01d0 5209     		lsrs	r2, r2, #5
 5577 01d2 1DD0     		beq	.L853
 5578 01d4 0132     		adds	r2, r2, #1
 5579 01d6 D200     		lsls	r2, r2, #3
 5580              	.L829:
 5581 01d8 0021     		movs	r1, #0
 5582 01da 3846     		mov	r0, r7
 5583 01dc FFF7FEFF 		bl	memset
 5584 01e0 2369     		ldr	r3, [r4, #16]
 5585 01e2 BBB1     		cbz	r3, .L854
 5586 01e4 1968     		ldr	r1, [r3]
 5587 01e6 C900     		lsls	r1, r1, #3
 5588 01e8 1F31     		adds	r1, r1, #31
 5589 01ea 4909     		lsrs	r1, r1, #5
 5590 01ec 4900     		lsls	r1, r1, #1
 5591 01ee 0131     		adds	r1, r1, #1
 5592              	.L830:
 5593 01f0 3846     		mov	r0, r7
 5594 01f2 FFF7FEFF 		bl	sp_init_size
 5595 01f6 78B1     		cbz	r0, .L831
 5596 01f8 3846     		mov	r0, r7
 5597 01fa FFF7FEFF 		bl	wolfSSL_Free
 5598              	.L851:
 5599 01fe 6FF07C0B 		mvn	fp, #124
 5600 0202 B5E7     		b	.L828
 5601              	.L849:
 5602 0204 4820     		movs	r0, #72
 5603 0206 DAE7     		b	.L827
ARM GAS  /tmp/ccqDDmMm.s 			page 97


 5604              	.L850:
 5605 0208 0820     		movs	r0, #8
 5606 020a D8E7     		b	.L827
 5607              	.L852:
 5608 020c 4822     		movs	r2, #72
 5609 020e E3E7     		b	.L829
 5610              	.L853:
 5611 0210 0822     		movs	r2, #8
 5612 0212 E1E7     		b	.L829
 5613              	.L854:
 5614 0214 1121     		movs	r1, #17
 5615 0216 EBE7     		b	.L830
 5616              	.L831:
 5617 0218 F068     		ldr	r0, [r6, #12]
 5618 021a FFF7FEFF 		bl	sp_count_bits
 5619 021e B0EBC80F 		cmp	r0, r8, lsl #3
 5620 0222 3CBF     		itt	cc
 5621 0224 00F10708 		addcc	r8, r0, #7
 5622 0228 4FEAD808 		lsrcc	r8, r8, #3
 5623 022c 0790     		str	r0, [sp, #28]
 5624 022e 4246     		mov	r2, r8
 5625 0230 18EE101A 		vmov	r1, s16	@ int
 5626 0234 3846     		mov	r0, r7
 5627 0236 FFF7FEFF 		bl	sp_read_unsigned_bin
 5628 023a 8346     		mov	fp, r0
 5629 023c 58B9     		cbnz	r0, .L833
 5630 023e 079B     		ldr	r3, [sp, #28]
 5631 0240 B3EBC80F 		cmp	r3, r8, lsl #3
 5632 0244 07D2     		bcs	.L833
 5633 0246 03F00701 		and	r1, r3, #7
 5634 024a 3A46     		mov	r2, r7
 5635 024c 3846     		mov	r0, r7
 5636 024e C1F10801 		rsb	r1, r1, #8
 5637 0252 FFF7FEFF 		bl	sp_rshb
 5638              	.L833:
 5639 0256 2269     		ldr	r2, [r4, #16]
 5640 0258 9AB3     		cbz	r2, .L855
 5641 025a 1068     		ldr	r0, [r2]
 5642 025c C000     		lsls	r0, r0, #3
 5643 025e 1F30     		adds	r0, r0, #31
 5644 0260 4009     		lsrs	r0, r0, #5
 5645 0262 30D0     		beq	.L856
 5646 0264 0130     		adds	r0, r0, #1
 5647 0266 C000     		lsls	r0, r0, #3
 5648              	.L834:
 5649 0268 FFF7FEFF 		bl	wolfSSL_Malloc
 5650 026c 8046     		mov	r8, r0
 5651 026e 0028     		cmp	r0, #0
 5652 0270 00F0FE80 		beq	.L857
 5653 0274 2269     		ldr	r2, [r4, #16]
 5654 0276 42B3     		cbz	r2, .L858
 5655 0278 1268     		ldr	r2, [r2]
 5656 027a D200     		lsls	r2, r2, #3
 5657 027c 1F32     		adds	r2, r2, #31
 5658 027e 5209     		lsrs	r2, r2, #5
 5659 0280 25D0     		beq	.L859
 5660 0282 0132     		adds	r2, r2, #1
ARM GAS  /tmp/ccqDDmMm.s 			page 98


 5661 0284 D200     		lsls	r2, r2, #3
 5662              	.L836:
 5663 0286 0021     		movs	r1, #0
 5664 0288 4046     		mov	r0, r8
 5665 028a FFF7FEFF 		bl	memset
 5666 028e BBF1000F 		cmp	fp, #0
 5667 0292 00F0F080 		beq	.L837
 5668              	.L835:
 5669 0296 0A98     		ldr	r0, [sp, #40]
 5670 0298 FFF7FEFF 		bl	wc_ecc_del_point_ex.constprop.0
 5671 029c 0B98     		ldr	r0, [sp, #44]
 5672 029e FFF7FEFF 		bl	wc_ecc_del_point_ex.constprop.0
 5673 02a2 3846     		mov	r0, r7
 5674 02a4 FFF7FEFF 		bl	sp_clear
 5675 02a8 4046     		mov	r0, r8
 5676 02aa FFF7FEFF 		bl	sp_clear
 5677 02ae B8F1000F 		cmp	r8, #0
 5678 02b2 02D0     		beq	.L841
 5679 02b4 4046     		mov	r0, r8
 5680 02b6 FFF7FEFF 		bl	wolfSSL_Free
 5681              	.L841:
 5682 02ba 3846     		mov	r0, r7
 5683 02bc FFF7FEFF 		bl	wolfSSL_Free
 5684 02c0 56E7     		b	.L828
 5685              	.L855:
 5686 02c2 4820     		movs	r0, #72
 5687 02c4 D0E7     		b	.L834
 5688              	.L856:
 5689 02c6 0820     		movs	r0, #8
 5690 02c8 CEE7     		b	.L834
 5691              	.L858:
 5692 02ca 4822     		movs	r2, #72
 5693 02cc DBE7     		b	.L836
 5694              	.L859:
 5695 02ce 0822     		movs	r2, #8
 5696 02d0 D9E7     		b	.L836
 5697              	.L905:
 5698 02d2 00BF     		.align	2
 5699              	.L904:
 5700 02d4 00000000 		.word	.LANCHOR0
 5701              	.L842:
 5702 02d8 1968     		ldr	r1, [r3]
 5703 02da C900     		lsls	r1, r1, #3
 5704 02dc 1F31     		adds	r1, r1, #31
 5705 02de 4909     		lsrs	r1, r1, #5
 5706 02e0 4900     		lsls	r1, r1, #1
 5707 02e2 0131     		adds	r1, r1, #1
 5708              	.L843:
 5709 02e4 4046     		mov	r0, r8
 5710 02e6 FFF7FEFF 		bl	sp_init_size
 5711 02ea 8346     		mov	fp, r0
 5712 02ec 0028     		cmp	r0, #0
 5713 02ee D2D1     		bne	.L835
 5714 02f0 0AA8     		add	r0, sp, #40
 5715 02f2 FFF7FEFF 		bl	wc_ecc_new_point_ex.constprop.0
 5716 02f6 8346     		mov	fp, r0
 5717 02f8 0028     		cmp	r0, #0
ARM GAS  /tmp/ccqDDmMm.s 			page 99


 5718 02fa CCD1     		bne	.L835
 5719 02fc 0BA8     		add	r0, sp, #44
 5720 02fe FFF7FEFF 		bl	wc_ecc_new_point_ex.constprop.0
 5721 0302 8346     		mov	fp, r0
 5722 0304 0028     		cmp	r0, #0
 5723 0306 C6D1     		bne	.L835
 5724 0308 4246     		mov	r2, r8
 5725 030a 5046     		mov	r0, r10
 5726 030c F168     		ldr	r1, [r6, #12]
 5727 030e FFF7FEFF 		bl	sp_invmod
 5728 0312 8346     		mov	fp, r0
 5729 0314 0028     		cmp	r0, #0
 5730 0316 BED1     		bne	.L835
 5731 0318 3B46     		mov	r3, r7
 5732 031a 4146     		mov	r1, r8
 5733 031c 3846     		mov	r0, r7
 5734 031e F268     		ldr	r2, [r6, #12]
 5735 0320 FFF7FEFF 		bl	sp_mulmod
 5736 0324 8346     		mov	fp, r0
 5737 0326 0028     		cmp	r0, #0
 5738 0328 B5D1     		bne	.L835
 5739 032a 4346     		mov	r3, r8
 5740 032c 4146     		mov	r1, r8
 5741 032e 4846     		mov	r0, r9
 5742 0330 F268     		ldr	r2, [r6, #12]
 5743 0332 FFF7FEFF 		bl	sp_mulmod
 5744 0336 8346     		mov	fp, r0
 5745 0338 0028     		cmp	r0, #0
 5746 033a ACD1     		bne	.L835
 5747 033c 0A99     		ldr	r1, [sp, #40]
 5748 033e 3069     		ldr	r0, [r6, #16]
 5749 0340 FFF7FEFF 		bl	sp_copy
 5750 0344 8346     		mov	fp, r0
 5751 0346 0028     		cmp	r0, #0
 5752 0348 A5D1     		bne	.L835
 5753 034a 0A99     		ldr	r1, [sp, #40]
 5754 034c 7069     		ldr	r0, [r6, #20]
 5755 034e 9031     		adds	r1, r1, #144
 5756 0350 FFF7FEFF 		bl	sp_copy
 5757 0354 8346     		mov	fp, r0
 5758 0356 0028     		cmp	r0, #0
 5759 0358 9DD1     		bne	.L835
 5760 035a 0A98     		ldr	r0, [sp, #40]
 5761 035c 0121     		movs	r1, #1
 5762 035e 00F59070 		add	r0, r0, #288
 5763 0362 FFF7FEFF 		bl	sp_set
 5764 0366 8346     		mov	fp, r0
 5765 0368 0028     		cmp	r0, #0
 5766 036a 94D1     		bne	.L835
 5767 036c 0B99     		ldr	r1, [sp, #44]
 5768 036e 04F11800 		add	r0, r4, #24
 5769 0372 FFF7FEFF 		bl	sp_copy
 5770 0376 8346     		mov	fp, r0
 5771 0378 0028     		cmp	r0, #0
 5772 037a 8CD1     		bne	.L835
 5773 037c 0B99     		ldr	r1, [sp, #44]
 5774 037e 04F1A800 		add	r0, r4, #168
ARM GAS  /tmp/ccqDDmMm.s 			page 100


 5775 0382 9031     		adds	r1, r1, #144
 5776 0384 FFF7FEFF 		bl	sp_copy
 5777 0388 8346     		mov	fp, r0
 5778 038a 0028     		cmp	r0, #0
 5779 038c 83D1     		bne	.L835
 5780 038e 0B99     		ldr	r1, [sp, #44]
 5781 0390 04F59C70 		add	r0, r4, #312
 5782 0394 01F59071 		add	r1, r1, #288
 5783 0398 FFF7FEFF 		bl	sp_copy
 5784 039c 8346     		mov	fp, r0
 5785 039e 0028     		cmp	r0, #0
 5786 03a0 7FF479AF 		bne	.L835
 5787 03a4 6169     		ldr	r1, [r4, #20]
 5788 03a6 B7F800E0 		ldrh	lr, [r7]
 5789 03aa 1690     		str	r0, [sp, #88]
 5790 03ac 0A9A     		ldr	r2, [sp, #40]
 5791 03ae D6E90103 		ldrd	r0, r3, [r6, #4]
 5792 03b2 CDE901B1 		strd	fp, r1, [sp, #4]
 5793 03b6 0090     		str	r0, [sp]
 5794 03b8 BEF1000F 		cmp	lr, #0
 5795 03bc 4BD0     		beq	.L838
 5796 03be 1146     		mov	r1, r2
 5797 03c0 3846     		mov	r0, r7
 5798 03c2 FFF7FEFF 		bl	wc_ecc_mulmod_ex
 5799 03c6 8346     		mov	fp, r0
 5800 03c8 0028     		cmp	r0, #0
 5801 03ca 7FF464AF 		bne	.L835
 5802 03ce 6269     		ldr	r2, [r4, #20]
 5803 03d0 CDE90102 		strd	r0, r2, [sp, #4]
 5804 03d4 7368     		ldr	r3, [r6, #4]
 5805 03d6 0B9A     		ldr	r2, [sp, #44]
 5806 03d8 0093     		str	r3, [sp]
 5807 03da 1146     		mov	r1, r2
 5808 03dc 4046     		mov	r0, r8
 5809 03de B368     		ldr	r3, [r6, #8]
 5810 03e0 FFF7FEFF 		bl	wc_ecc_mulmod_ex
 5811 03e4 8346     		mov	fp, r0
 5812 03e6 0028     		cmp	r0, #0
 5813 03e8 7FF455AF 		bne	.L835
 5814 03ec 7068     		ldr	r0, [r6, #4]
 5815 03ee 16A9     		add	r1, sp, #88
 5816 03f0 FFF7FEFF 		bl	sp_mont_setup
 5817 03f4 8346     		mov	fp, r0
 5818 03f6 0028     		cmp	r0, #0
 5819 03f8 7FF44DAF 		bne	.L835
 5820 03fc 169B     		ldr	r3, [sp, #88]
 5821 03fe 0290     		str	r0, [sp, #8]
 5822 0400 0193     		str	r3, [sp, #4]
 5823 0402 7368     		ldr	r3, [r6, #4]
 5824 0404 0A9A     		ldr	r2, [sp, #40]
 5825 0406 0093     		str	r3, [sp]
 5826 0408 1146     		mov	r1, r2
 5827 040a B368     		ldr	r3, [r6, #8]
 5828 040c 0B98     		ldr	r0, [sp, #44]
 5829 040e FFF7FEFF 		bl	ecc_projective_add_point_safe
 5830              	.L902:
 5831 0412 8346     		mov	fp, r0
ARM GAS  /tmp/ccqDDmMm.s 			page 101


 5832 0414 0A98     		ldr	r0, [sp, #40]
 5833 0416 BBF1000F 		cmp	fp, #0
 5834 041a 7FF43CAF 		bne	.L835
 5835 041e 169A     		ldr	r2, [sp, #88]
 5836 0420 7168     		ldr	r1, [r6, #4]
 5837 0422 FFF7FEFF 		bl	ecc_map
 5838 0426 8346     		mov	fp, r0
 5839 0428 0028     		cmp	r0, #0
 5840 042a 7FF434AF 		bne	.L835
 5841 042e 4246     		mov	r2, r8
 5842 0430 F168     		ldr	r1, [r6, #12]
 5843 0432 0A98     		ldr	r0, [sp, #40]
 5844 0434 FFF7FEFF 		bl	sp_mod
 5845 0438 8346     		mov	fp, r0
 5846 043a 0028     		cmp	r0, #0
 5847 043c 7FF42BAF 		bne	.L835
 5848 0440 4946     		mov	r1, r9
 5849 0442 4046     		mov	r0, r8
 5850 0444 FFF7FEFF 		bl	sp_cmp
 5851 0448 0028     		cmp	r0, #0
 5852 044a 7FF424AF 		bne	.L835
 5853 044e 0122     		movs	r2, #1
 5854 0450 2C9B     		ldr	r3, [sp, #176]
 5855 0452 1A60     		str	r2, [r3]
 5856 0454 1FE7     		b	.L835
 5857              	.L838:
 5858 0456 4046     		mov	r0, r8
 5859 0458 0B99     		ldr	r1, [sp, #44]
 5860 045a FFF7FEFF 		bl	wc_ecc_mulmod_ex
 5861 045e 8346     		mov	fp, r0
 5862 0460 0028     		cmp	r0, #0
 5863 0462 7FF418AF 		bne	.L835
 5864 0466 7068     		ldr	r0, [r6, #4]
 5865 0468 16A9     		add	r1, sp, #88
 5866 046a FFF7FEFF 		bl	sp_mont_setup
 5867 046e D0E7     		b	.L902
 5868              	.L857:
 5869 0470 6FF07C0B 		mvn	fp, #124
 5870 0474 0FE7     		b	.L835
 5871              	.L837:
 5872 0476 2369     		ldr	r3, [r4, #16]
 5873 0478 002B     		cmp	r3, #0
 5874 047a 7FF42DAF 		bne	.L842
 5875 047e 1121     		movs	r1, #17
 5876 0480 30E7     		b	.L843
 5878 0482 00BF     		.section	.text.wc_ecc_verify_hash,"ax",%progbits
 5879              		.align	1
 5880              		.global	wc_ecc_verify_hash
 5881              		.syntax unified
 5882              		.thumb
 5883              		.thumb_func
 5884              		.fpu fpv4-sp-d16
 5886              	wc_ecc_verify_hash:
 5887              		@ args = 8, pretend = 0, frame = 0
 5888              		@ frame_needed = 0, uses_anonymous_args = 0
 5889 0000 2DE9F74F 		push	{r0, r1, r2, r4, r5, r6, r7, r8, r9, r10, fp, lr}
 5890 0004 0D9E     		ldr	r6, [sp, #52]
ARM GAS  /tmp/ccqDDmMm.s 			page 102


 5891 0006 8B46     		mov	fp, r1
 5892 0008 1746     		mov	r7, r2
 5893 000a 9946     		mov	r9, r3
 5894 000c 8046     		mov	r8, r0
 5895 000e 0028     		cmp	r0, #0
 5896 0010 00F0C580 		beq	.L928
 5897 0014 002A     		cmp	r2, #0
 5898 0016 00F0C280 		beq	.L928
 5899 001a 0C9B     		ldr	r3, [sp, #48]
 5900 001c 002B     		cmp	r3, #0
 5901 001e 00F0BE80 		beq	.L928
 5902 0022 002E     		cmp	r6, #0
 5903 0024 00F0BB80 		beq	.L928
 5904 0028 3369     		ldr	r3, [r6, #16]
 5905 002a 002B     		cmp	r3, #0
 5906 002c 4ED0     		beq	.L929
 5907 002e 1868     		ldr	r0, [r3]
 5908 0030 C000     		lsls	r0, r0, #3
 5909 0032 1F30     		adds	r0, r0, #31
 5910 0034 4009     		lsrs	r0, r0, #5
 5911 0036 4BD0     		beq	.L930
 5912 0038 0130     		adds	r0, r0, #1
 5913 003a C000     		lsls	r0, r0, #3
 5914              	.L908:
 5915 003c FFF7FEFF 		bl	wolfSSL_Malloc
 5916 0040 0446     		mov	r4, r0
 5917 0042 0028     		cmp	r0, #0
 5918 0044 00F0B180 		beq	.L948
 5919 0048 3369     		ldr	r3, [r6, #16]
 5920 004a 002B     		cmp	r3, #0
 5921 004c 42D0     		beq	.L932
 5922 004e 1A68     		ldr	r2, [r3]
 5923 0050 D200     		lsls	r2, r2, #3
 5924 0052 1F32     		adds	r2, r2, #31
 5925 0054 5209     		lsrs	r2, r2, #5
 5926 0056 3FD0     		beq	.L933
 5927 0058 0132     		adds	r2, r2, #1
 5928 005a D200     		lsls	r2, r2, #3
 5929              	.L909:
 5930 005c 0021     		movs	r1, #0
 5931 005e 2046     		mov	r0, r4
 5932 0060 FFF7FEFF 		bl	memset
 5933 0064 3369     		ldr	r3, [r6, #16]
 5934 0066 002B     		cmp	r3, #0
 5935 0068 38D0     		beq	.L934
 5936 006a 1868     		ldr	r0, [r3]
 5937 006c C000     		lsls	r0, r0, #3
 5938 006e 1F30     		adds	r0, r0, #31
 5939 0070 4009     		lsrs	r0, r0, #5
 5940 0072 35D0     		beq	.L935
 5941 0074 0130     		adds	r0, r0, #1
 5942 0076 C000     		lsls	r0, r0, #3
 5943              	.L910:
 5944 0078 FFF7FEFF 		bl	wolfSSL_Malloc
 5945 007c 0546     		mov	r5, r0
 5946 007e 0028     		cmp	r0, #0
 5947 0080 00F09080 		beq	.L911
ARM GAS  /tmp/ccqDDmMm.s 			page 103


 5948 0084 3369     		ldr	r3, [r6, #16]
 5949 0086 6BB3     		cbz	r3, .L936
 5950 0088 1A68     		ldr	r2, [r3]
 5951 008a D200     		lsls	r2, r2, #3
 5952 008c 1F32     		adds	r2, r2, #31
 5953 008e 5209     		lsrs	r2, r2, #5
 5954 0090 2AD0     		beq	.L937
 5955 0092 0132     		adds	r2, r2, #1
 5956 0094 D200     		lsls	r2, r2, #3
 5957              	.L912:
 5958 0096 0021     		movs	r1, #0
 5959 0098 2846     		mov	r0, r5
 5960 009a FFF7FEFF 		bl	memset
 5961 009e 3369     		ldr	r3, [r6, #16]
 5962 00a0 23B3     		cbz	r3, .L938
 5963 00a2 1968     		ldr	r1, [r3]
 5964 00a4 C900     		lsls	r1, r1, #3
 5965 00a6 1F31     		adds	r1, r1, #31
 5966 00a8 4909     		lsrs	r1, r1, #5
 5967 00aa 4900     		lsls	r1, r1, #1
 5968 00ac 0131     		adds	r1, r1, #1
 5969              	.L913:
 5970 00ae 2046     		mov	r0, r4
 5971 00b0 FFF7FEFF 		bl	sp_init_size
 5972 00b4 8246     		mov	r10, r0
 5973 00b6 D8B1     		cbz	r0, .L914
 5974              	.L947:
 5975 00b8 2846     		mov	r0, r5
 5976 00ba FFF7FEFF 		bl	wolfSSL_Free
 5977 00be 2046     		mov	r0, r4
 5978 00c0 FFF7FEFF 		bl	wolfSSL_Free
 5979              	.L906:
 5980 00c4 5046     		mov	r0, r10
 5981 00c6 03B0     		add	sp, sp, #12
 5982              		@ sp needed
 5983 00c8 BDE8F08F 		pop	{r4, r5, r6, r7, r8, r9, r10, fp, pc}
 5984              	.L929:
 5985 00cc 4820     		movs	r0, #72
 5986 00ce B5E7     		b	.L908
 5987              	.L930:
 5988 00d0 0820     		movs	r0, #8
 5989 00d2 B3E7     		b	.L908
 5990              	.L932:
 5991 00d4 4822     		movs	r2, #72
 5992 00d6 C1E7     		b	.L909
 5993              	.L933:
 5994 00d8 0822     		movs	r2, #8
 5995 00da BFE7     		b	.L909
 5996              	.L934:
 5997 00dc 4820     		movs	r0, #72
 5998 00de CBE7     		b	.L910
 5999              	.L935:
 6000 00e0 0820     		movs	r0, #8
 6001 00e2 C9E7     		b	.L910
 6002              	.L936:
 6003 00e4 4822     		movs	r2, #72
 6004 00e6 D6E7     		b	.L912
ARM GAS  /tmp/ccqDDmMm.s 			page 104


 6005              	.L937:
 6006 00e8 0822     		movs	r2, #8
 6007 00ea D4E7     		b	.L912
 6008              	.L938:
 6009 00ec 1121     		movs	r1, #17
 6010 00ee DEE7     		b	.L913
 6011              	.L914:
 6012 00f0 3369     		ldr	r3, [r6, #16]
 6013 00f2 A3B1     		cbz	r3, .L939
 6014 00f4 1968     		ldr	r1, [r3]
 6015 00f6 C900     		lsls	r1, r1, #3
 6016 00f8 1F31     		adds	r1, r1, #31
 6017 00fa 4909     		lsrs	r1, r1, #5
 6018 00fc 4900     		lsls	r1, r1, #1
 6019 00fe 0131     		adds	r1, r1, #1
 6020              	.L915:
 6021 0100 2846     		mov	r0, r5
 6022 0102 FFF7FEFF 		bl	sp_init_size
 6023 0106 8246     		mov	r10, r0
 6024 0108 0028     		cmp	r0, #0
 6025 010a D5D1     		bne	.L947
 6026 010c B368     		ldr	r3, [r6, #8]
 6027 010e 072B     		cmp	r3, #7
 6028 0110 42D8     		bhi	.L940
 6029 0112 DFE803F0 		tbb	[pc, r3]
 6030              	.L919:
 6031 0116 06       		.byte	(.L921-.L919)/2
 6032 0117 41       		.byte	(.L940-.L919)/2
 6033 0118 41       		.byte	(.L940-.L919)/2
 6034 0119 41       		.byte	(.L940-.L919)/2
 6035 011a 41       		.byte	(.L940-.L919)/2
 6036 011b 06       		.byte	(.L921-.L919)/2
 6037 011c 15       		.byte	(.L920-.L919)/2
 6038 011d 32       		.byte	(.L918-.L919)/2
 6039              		.p2align 1
 6040              	.L939:
 6041 011e 1121     		movs	r1, #17
 6042 0120 EEE7     		b	.L915
 6043              	.L921:
 6044 0122 0523     		movs	r3, #5
 6045 0124 B360     		str	r3, [r6, #8]
 6046 0126 0023     		movs	r3, #0
 6047 0128 0C9A     		ldr	r2, [sp, #48]
 6048 012a 5946     		mov	r1, fp
 6049 012c 1360     		str	r3, [r2]
 6050 012e 4046     		mov	r0, r8
 6051 0130 0093     		str	r3, [sp]
 6052 0132 2246     		mov	r2, r4
 6053 0134 2B46     		mov	r3, r5
 6054 0136 FFF7FEFF 		bl	DecodeECC_DSA_Sig_Ex
 6055 013a B0F1000A 		subs	r10, r0, #0
 6056 013e 21DB     		blt	.L922
 6057              	.L920:
 6058 0140 0623     		movs	r3, #6
 6059 0142 B360     		str	r3, [r6, #8]
 6060 0144 0C9B     		ldr	r3, [sp, #48]
 6061 0146 3A46     		mov	r2, r7
ARM GAS  /tmp/ccqDDmMm.s 			page 105


 6062 0148 2946     		mov	r1, r5
 6063 014a 0093     		str	r3, [sp]
 6064 014c 2046     		mov	r0, r4
 6065 014e 4B46     		mov	r3, r9
 6066 0150 0196     		str	r6, [sp, #4]
 6067 0152 FFF7FEFF 		bl	wc_ecc_verify_hash_ex
 6068 0156 8246     		mov	r10, r0
 6069 0158 2046     		mov	r0, r4
 6070 015a FFF7FEFF 		bl	sp_clear
 6071 015e 2846     		mov	r0, r5
 6072 0160 FFF7FEFF 		bl	sp_clear
 6073 0164 2846     		mov	r0, r5
 6074 0166 FFF7FEFF 		bl	wolfSSL_Free
 6075 016a 2046     		mov	r0, r4
 6076 016c FFF7FEFF 		bl	wolfSSL_Free
 6077 0170 BAF1000F 		cmp	r10, #0
 6078 0174 0DDB     		blt	.L923
 6079 0176 0025     		movs	r5, #0
 6080 0178 2C46     		mov	r4, r5
 6081              	.L918:
 6082 017a 0723     		movs	r3, #7
 6083 017c 4FF0000A 		mov	r10, #0
 6084 0180 B360     		str	r3, [r6, #8]
 6085              	.L917:
 6086 0182 15B1     		cbz	r5, .L924
 6087              	.L922:
 6088 0184 2846     		mov	r0, r5
 6089 0186 FFF7FEFF 		bl	wolfSSL_Free
 6090              	.L924:
 6091 018a 14B1     		cbz	r4, .L923
 6092 018c 2046     		mov	r0, r4
 6093 018e FFF7FEFF 		bl	wolfSSL_Free
 6094              	.L923:
 6095 0192 0023     		movs	r3, #0
 6096 0194 B360     		str	r3, [r6, #8]
 6097 0196 95E7     		b	.L906
 6098              	.L940:
 6099 0198 6FF0BF0A 		mvn	r10, #191
 6100 019c F1E7     		b	.L917
 6101              	.L928:
 6102 019e 6FF0A90A 		mvn	r10, #169
 6103 01a2 8FE7     		b	.L906
 6104              	.L911:
 6105 01a4 2046     		mov	r0, r4
 6106 01a6 FFF7FEFF 		bl	wolfSSL_Free
 6107              	.L948:
 6108 01aa 6FF07C0A 		mvn	r10, #124
 6109 01ae 89E7     		b	.L906
 6111              		.section	.text.wc_ecc_import_point_der_ex,"ax",%progbits
 6112              		.align	1
 6113              		.global	wc_ecc_import_point_der_ex
 6114              		.syntax unified
 6115              		.thumb
 6116              		.thumb_func
 6117              		.fpu fpv4-sp-d16
 6119              	wc_ecc_import_point_der_ex:
 6120              		@ args = 4, pretend = 0, frame = 8
ARM GAS  /tmp/ccqDDmMm.s 			page 106


 6121              		@ frame_needed = 0, uses_anonymous_args = 0
 6122 0000 2DE9F043 		push	{r4, r5, r6, r7, r8, r9, lr}
 6123 0004 8846     		mov	r8, r1
 6124 0006 1D46     		mov	r5, r3
 6125 0008 8146     		mov	r9, r0
 6126 000a 85B0     		sub	sp, sp, #20
 6127 000c 0028     		cmp	r0, #0
 6128 000e 5AD0     		beq	.L957
 6129 0010 002B     		cmp	r3, #0
 6130 0012 58D0     		beq	.L957
 6131 0014 002A     		cmp	r2, #0
 6132 0016 56DB     		blt	.L957
 6133 0018 1046     		mov	r0, r2
 6134 001a FFF7FEFF 		bl	wc_ecc_is_valid_idx
 6135 001e 0028     		cmp	r0, #0
 6136 0020 51D0     		beq	.L957
 6137 0022 11F0010F 		tst	r1, #1
 6138 0026 4ED0     		beq	.L957
 6139 0028 1846     		mov	r0, r3
 6140 002a 05F19007 		add	r7, r5, #144
 6141 002e FFF7FEFF 		bl	sp_clear
 6142 0032 05F59076 		add	r6, r5, #288
 6143 0036 3846     		mov	r0, r7
 6144 0038 FFF7FEFF 		bl	sp_clear
 6145 003c 3046     		mov	r0, r6
 6146 003e FFF7FEFF 		bl	sp_clear
 6147 0042 0023     		movs	r3, #0
 6148 0044 3246     		mov	r2, r6
 6149 0046 3946     		mov	r1, r7
 6150 0048 2846     		mov	r0, r5
 6151 004a CDE90033 		strd	r3, r3, [sp]
 6152 004e FFF7FEFF 		bl	sp_init_multi
 6153 0052 0446     		mov	r4, r0
 6154 0054 D0BB     		cbnz	r0, .L958
 6155 0056 99F80030 		ldrb	r3, [r9]	@ zero_extendqisi2
 6156 005a 042B     		cmp	r3, #4
 6157 005c 05D0     		beq	.L951
 6158 005e 022B     		cmp	r3, #2
 6159 0060 03D0     		beq	.L951
 6160 0062 032B     		cmp	r3, #3
 6161 0064 18BF     		it	ne
 6162 0066 6FF08B04 		mvnne	r4, #139
 6163              	.L951:
 6164 006a 023B     		subs	r3, r3, #2
 6165 006c 012B     		cmp	r3, #1
 6166 006e 27D9     		bls	.L960
 6167 0070 CCB9     		cbnz	r4, .L952
 6168 0072 09F10109 		add	r9, r9, #1
 6169 0076 08F1FF32 		add	r2, r8, #-1
 6170 007a 5208     		lsrs	r2, r2, #1
 6171 007c 4946     		mov	r1, r9
 6172 007e 2846     		mov	r0, r5
 6173 0080 0392     		str	r2, [sp, #12]
 6174 0082 FFF7FEFF 		bl	sp_read_unsigned_bin
 6175 0086 0446     		mov	r4, r0
 6176 0088 68B9     		cbnz	r0, .L952
 6177 008a 039A     		ldr	r2, [sp, #12]
ARM GAS  /tmp/ccqDDmMm.s 			page 107


 6178 008c 3846     		mov	r0, r7
 6179 008e 09EB0201 		add	r1, r9, r2
 6180 0092 FFF7FEFF 		bl	sp_read_unsigned_bin
 6181 0096 0446     		mov	r4, r0
 6182 0098 28B9     		cbnz	r0, .L952
 6183 009a 0121     		movs	r1, #1
 6184 009c 3046     		mov	r0, r6
 6185 009e FFF7FEFF 		bl	sp_set
 6186 00a2 0446     		mov	r4, r0
 6187 00a4 40B1     		cbz	r0, .L949
 6188              	.L952:
 6189 00a6 2846     		mov	r0, r5
 6190 00a8 FFF7FEFF 		bl	sp_clear
 6191 00ac 3846     		mov	r0, r7
 6192 00ae FFF7FEFF 		bl	sp_clear
 6193 00b2 3046     		mov	r0, r6
 6194 00b4 FFF7FEFF 		bl	sp_clear
 6195              	.L949:
 6196 00b8 2046     		mov	r0, r4
 6197 00ba 05B0     		add	sp, sp, #20
 6198              		@ sp needed
 6199 00bc BDE8F083 		pop	{r4, r5, r6, r7, r8, r9, pc}
 6200              	.L960:
 6201 00c0 6FF0AD04 		mvn	r4, #173
 6202 00c4 EFE7     		b	.L952
 6203              	.L957:
 6204 00c6 6FF0A904 		mvn	r4, #169
 6205 00ca F5E7     		b	.L949
 6206              	.L958:
 6207 00cc 6FF07C04 		mvn	r4, #124
 6208 00d0 F2E7     		b	.L949
 6210              		.section	.text.wc_ecc_import_point_der,"ax",%progbits
 6211              		.align	1
 6212              		.global	wc_ecc_import_point_der
 6213              		.syntax unified
 6214              		.thumb
 6215              		.thumb_func
 6216              		.fpu fpv4-sp-d16
 6218              	wc_ecc_import_point_der:
 6219              		@ args = 0, pretend = 0, frame = 0
 6220              		@ frame_needed = 0, uses_anonymous_args = 0
 6221 0000 13B5     		push	{r0, r1, r4, lr}
 6222 0002 0124     		movs	r4, #1
 6223 0004 0094     		str	r4, [sp]
 6224 0006 FFF7FEFF 		bl	wc_ecc_import_point_der_ex
 6225 000a 02B0     		add	sp, sp, #8
 6226              		@ sp needed
 6227 000c 10BD     		pop	{r4, pc}
 6229              		.section	.text.wc_ecc_export_point_der,"ax",%progbits
 6230              		.align	1
 6231              		.global	wc_ecc_export_point_der
 6232              		.syntax unified
 6233              		.thumb
 6234              		.thumb_func
 6235              		.fpu fpv4-sp-d16
 6237              	wc_ecc_export_point_der:
 6238              		@ args = 0, pretend = 0, frame = 0
ARM GAS  /tmp/ccqDDmMm.s 			page 108


 6239              		@ frame_needed = 0, uses_anonymous_args = 0
 6240 0000 2DE9F047 		push	{r4, r5, r6, r7, r8, r9, r10, lr}
 6241 0004 1F46     		mov	r7, r3
 6242 0006 031E     		subs	r3, r0, #0
 6243 0008 0D46     		mov	r5, r1
 6244 000a 9046     		mov	r8, r2
 6245 000c 04DA     		bge	.L972
 6246              	.L974:
 6247 000e 6FF0A905 		mvn	r5, #169
 6248              	.L971:
 6249 0012 2846     		mov	r0, r5
 6250 0014 BDE8F087 		pop	{r4, r5, r6, r7, r8, r9, r10, pc}
 6251              	.L972:
 6252 0018 FFF7FEFF 		bl	wc_ecc_is_valid_idx
 6253 001c 0028     		cmp	r0, #0
 6254 001e F6D0     		beq	.L974
 6255 0020 0029     		cmp	r1, #0
 6256 0022 F4D0     		beq	.L974
 6257 0024 3420     		movs	r0, #52
 6258 0026 5843     		muls	r0, r3, r0
 6259 0028 304B     		ldr	r3, .L991
 6260 002a 1C58     		ldr	r4, [r3, r0]
 6261 002c 3AB9     		cbnz	r2, .L975
 6262 002e 002F     		cmp	r7, #0
 6263 0030 EDD0     		beq	.L974
 6264 0032 6400     		lsls	r4, r4, #1
 6265 0034 0134     		adds	r4, r4, #1
 6266 0036 6FF0C905 		mvn	r5, #201
 6267 003a 3C60     		str	r4, [r7]
 6268 003c E9E7     		b	.L971
 6269              	.L975:
 6270 003e 002F     		cmp	r7, #0
 6271 0040 E5D0     		beq	.L974
 6272 0042 3B68     		ldr	r3, [r7]
 6273 0044 4FEA4409 		lsl	r9, r4, #1
 6274 0048 09F10109 		add	r9, r9, #1
 6275 004c 4B45     		cmp	r3, r9
 6276 004e 04D2     		bcs	.L976
 6277 0050 6FF08305 		mvn	r5, #131
 6278 0054 C7F80090 		str	r9, [r7]
 6279 0058 DBE7     		b	.L971
 6280              	.L976:
 6281 005a 0846     		mov	r0, r1
 6282 005c FFF7FEFF 		bl	sp_unsigned_bin_size
 6283 0060 A042     		cmp	r0, r4
 6284 0062 D4D8     		bhi	.L974
 6285 0064 05F1900A 		add	r10, r5, #144
 6286 0068 5046     		mov	r0, r10
 6287 006a FFF7FEFF 		bl	sp_unsigned_bin_size
 6288 006e A042     		cmp	r0, r4
 6289 0070 CDD8     		bhi	.L974
 6290 0072 0423     		movs	r3, #4
 6291 0074 40F20110 		movw	r0, #257
 6292 0078 88F80030 		strb	r3, [r8]
 6293 007c FFF7FEFF 		bl	wolfSSL_Malloc
 6294 0080 0646     		mov	r6, r0
 6295 0082 80B3     		cbz	r0, .L978
ARM GAS  /tmp/ccqDDmMm.s 			page 109


 6296 0084 40F20112 		movw	r2, #257
 6297 0088 0021     		movs	r1, #0
 6298 008a FFF7FEFF 		bl	memset
 6299 008e 2846     		mov	r0, r5
 6300 0090 FFF7FEFF 		bl	sp_unsigned_bin_size
 6301 0094 201A     		subs	r0, r4, r0
 6302 0096 3118     		adds	r1, r6, r0
 6303 0098 2846     		mov	r0, r5
 6304 009a FFF7FEFF 		bl	sp_to_unsigned_bin
 6305 009e 0546     		mov	r5, r0
 6306 00a0 E8B9     		cbnz	r0, .L977
 6307 00a2 2246     		mov	r2, r4
 6308 00a4 3146     		mov	r1, r6
 6309 00a6 08F10100 		add	r0, r8, #1
 6310 00aa FFF7FEFF 		bl	memcpy
 6311 00ae 40F20112 		movw	r2, #257
 6312 00b2 0021     		movs	r1, #0
 6313 00b4 3046     		mov	r0, r6
 6314 00b6 FFF7FEFF 		bl	memset
 6315 00ba 5046     		mov	r0, r10
 6316 00bc FFF7FEFF 		bl	sp_unsigned_bin_size
 6317 00c0 201A     		subs	r0, r4, r0
 6318 00c2 3118     		adds	r1, r6, r0
 6319 00c4 5046     		mov	r0, r10
 6320 00c6 FFF7FEFF 		bl	sp_to_unsigned_bin
 6321 00ca 0546     		mov	r5, r0
 6322 00cc 38B9     		cbnz	r0, .L977
 6323 00ce 601C     		adds	r0, r4, #1
 6324 00d0 2246     		mov	r2, r4
 6325 00d2 3146     		mov	r1, r6
 6326 00d4 4044     		add	r0, r0, r8
 6327 00d6 FFF7FEFF 		bl	memcpy
 6328 00da C7F80090 		str	r9, [r7]
 6329              	.L977:
 6330 00de 3046     		mov	r0, r6
 6331 00e0 FFF7FEFF 		bl	wolfSSL_Free
 6332 00e4 95E7     		b	.L971
 6333              	.L978:
 6334 00e6 6FF07C05 		mvn	r5, #124
 6335 00ea 92E7     		b	.L971
 6336              	.L992:
 6337              		.align	2
 6338              	.L991:
 6339 00ec 00000000 		.word	.LANCHOR0
 6341              		.section	.text.wc_ecc_export_point_der_ex,"ax",%progbits
 6342              		.align	1
 6343              		.global	wc_ecc_export_point_der_ex
 6344              		.syntax unified
 6345              		.thumb
 6346              		.thumb_func
 6347              		.fpu fpv4-sp-d16
 6349              	wc_ecc_export_point_der_ex:
 6350              		@ args = 4, pretend = 0, frame = 0
 6351              		@ frame_needed = 0, uses_anonymous_args = 0
 6352              		@ link register save eliminated.
 6353 0000 10B4     		push	{r4}
 6354 0002 019C     		ldr	r4, [sp, #4]
ARM GAS  /tmp/ccqDDmMm.s 			page 110


 6355 0004 1CB9     		cbnz	r4, .L994
 6356 0006 5DF8044B 		ldr	r4, [sp], #4
 6357 000a FFF7FEBF 		b	wc_ecc_export_point_der
 6358              	.L994:
 6359 000e 6FF0AD00 		mvn	r0, #173
 6360 0012 5DF8044B 		ldr	r4, [sp], #4
 6361 0016 7047     		bx	lr
 6363              		.section	.text.wc_ecc_export_x963,"ax",%progbits
 6364              		.align	1
 6365              		.global	wc_ecc_export_x963
 6366              		.syntax unified
 6367              		.thumb
 6368              		.thumb_func
 6369              		.fpu fpv4-sp-d16
 6371              	wc_ecc_export_x963:
 6372              		@ args = 0, pretend = 0, frame = 8
 6373              		@ frame_needed = 0, uses_anonymous_args = 0
 6374 0000 2DE9F74F 		push	{r0, r1, r2, r4, r5, r6, r7, r8, r9, r10, fp, lr}
 6375 0004 8846     		mov	r8, r1
 6376 0006 1646     		mov	r6, r2
 6377 0008 0446     		mov	r4, r0
 6378 000a 0028     		cmp	r0, #0
 6379 000c 74D0     		beq	.L1008
 6380 000e 79B9     		cbnz	r1, .L997
 6381 0010 002A     		cmp	r2, #0
 6382 0012 71D0     		beq	.L1008
 6383 0014 0369     		ldr	r3, [r0, #16]
 6384 0016 4BB1     		cbz	r3, .L1003
 6385 0018 1B68     		ldr	r3, [r3]
 6386              	.L998:
 6387 001a 6FF0C909 		mvn	r9, #201
 6388 001e 5B00     		lsls	r3, r3, #1
 6389 0020 0133     		adds	r3, r3, #1
 6390 0022 3360     		str	r3, [r6]
 6391              	.L995:
 6392 0024 4846     		mov	r0, r9
 6393 0026 03B0     		add	sp, sp, #12
 6394              		@ sp needed
 6395 0028 BDE8F08F 		pop	{r4, r5, r6, r7, r8, r9, r10, fp, pc}
 6396              	.L1003:
 6397 002c 2023     		movs	r3, #32
 6398 002e F4E7     		b	.L998
 6399              	.L997:
 6400 0030 002A     		cmp	r2, #0
 6401 0032 61D0     		beq	.L1008
 6402 0034 0368     		ldr	r3, [r0]
 6403 0036 032B     		cmp	r3, #3
 6404 0038 5BD0     		beq	.L1005
 6405 003a 002B     		cmp	r3, #0
 6406 003c 5CD0     		beq	.L1008
 6407 003e 4068     		ldr	r0, [r0, #4]
 6408 0040 FFF7FEFF 		bl	wc_ecc_is_valid_idx
 6409 0044 0028     		cmp	r0, #0
 6410 0046 57D0     		beq	.L1008
 6411 0048 2369     		ldr	r3, [r4, #16]
 6412 004a 002B     		cmp	r3, #0
 6413 004c 54D0     		beq	.L1008
ARM GAS  /tmp/ccqDDmMm.s 			page 111


 6414 004e 1F68     		ldr	r7, [r3]
 6415 0050 1368     		ldr	r3, [r2]
 6416 0052 4FEA470A 		lsl	r10, r7, #1
 6417 0056 0AF1010A 		add	r10, r10, #1
 6418 005a 5345     		cmp	r3, r10
 6419 005c 04D2     		bcs	.L999
 6420 005e C2F800A0 		str	r10, [r2]
 6421              	.L1010:
 6422 0062 6FF08309 		mvn	r9, #131
 6423 0066 DDE7     		b	.L995
 6424              	.L999:
 6425 0068 04F1180B 		add	fp, r4, #24
 6426 006c 5846     		mov	r0, fp
 6427 006e FFF7FEFF 		bl	sp_unsigned_bin_size
 6428 0072 A834     		adds	r4, r4, #168
 6429 0074 8146     		mov	r9, r0
 6430 0076 2046     		mov	r0, r4
 6431 0078 FFF7FEFF 		bl	sp_unsigned_bin_size
 6432 007c 4F45     		cmp	r7, r9
 6433 007e 0190     		str	r0, [sp, #4]
 6434 0080 EFD3     		bcc	.L1010
 6435 0082 8742     		cmp	r7, r0
 6436 0084 EDD3     		bcc	.L1010
 6437 0086 0423     		movs	r3, #4
 6438 0088 40F20110 		movw	r0, #257
 6439 008c 88F80030 		strb	r3, [r8]
 6440 0090 FFF7FEFF 		bl	wolfSSL_Malloc
 6441 0094 0546     		mov	r5, r0
 6442 0096 90B3     		cbz	r0, .L1011
 6443 0098 40F20112 		movw	r2, #257
 6444 009c 0021     		movs	r1, #0
 6445 009e FFF7FEFF 		bl	memset
 6446 00a2 A7EB0901 		sub	r1, r7, r9
 6447 00a6 5846     		mov	r0, fp
 6448 00a8 2944     		add	r1, r1, r5
 6449 00aa FFF7FEFF 		bl	sp_to_unsigned_bin
 6450 00ae 8146     		mov	r9, r0
 6451 00b0 D8B9     		cbnz	r0, .L1000
 6452 00b2 3A46     		mov	r2, r7
 6453 00b4 2946     		mov	r1, r5
 6454 00b6 08F10100 		add	r0, r8, #1
 6455 00ba FFF7FEFF 		bl	memcpy
 6456 00be 4946     		mov	r1, r9
 6457 00c0 40F20112 		movw	r2, #257
 6458 00c4 2846     		mov	r0, r5
 6459 00c6 FFF7FEFF 		bl	memset
 6460 00ca 019B     		ldr	r3, [sp, #4]
 6461 00cc 2046     		mov	r0, r4
 6462 00ce F91A     		subs	r1, r7, r3
 6463 00d0 2944     		add	r1, r1, r5
 6464 00d2 FFF7FEFF 		bl	sp_to_unsigned_bin
 6465 00d6 8146     		mov	r9, r0
 6466 00d8 38B9     		cbnz	r0, .L1000
 6467 00da 781C     		adds	r0, r7, #1
 6468 00dc 3A46     		mov	r2, r7
 6469 00de 2946     		mov	r1, r5
 6470 00e0 4044     		add	r0, r0, r8
ARM GAS  /tmp/ccqDDmMm.s 			page 112


 6471 00e2 FFF7FEFF 		bl	memcpy
 6472 00e6 C6F800A0 		str	r10, [r6]
 6473              	.L1000:
 6474 00ea 2846     		mov	r0, r5
 6475 00ec FFF7FEFF 		bl	wolfSSL_Free
 6476 00f0 98E7     		b	.L995
 6477              	.L1005:
 6478 00f2 6FF0F509 		mvn	r9, #245
 6479 00f6 95E7     		b	.L995
 6480              	.L1008:
 6481 00f8 6FF0A909 		mvn	r9, #169
 6482 00fc 92E7     		b	.L995
 6483              	.L1011:
 6484 00fe 6FF07C09 		mvn	r9, #124
 6485 0102 8FE7     		b	.L995
 6487              		.section	.text.wc_ecc_export_x963_ex,"ax",%progbits
 6488              		.align	1
 6489              		.global	wc_ecc_export_x963_ex
 6490              		.syntax unified
 6491              		.thumb
 6492              		.thumb_func
 6493              		.fpu fpv4-sp-d16
 6495              	wc_ecc_export_x963_ex:
 6496              		@ args = 0, pretend = 0, frame = 0
 6497              		@ frame_needed = 0, uses_anonymous_args = 0
 6498              		@ link register save eliminated.
 6499 0000 0BB9     		cbnz	r3, .L1013
 6500 0002 FFF7FEBF 		b	wc_ecc_export_x963
 6501              	.L1013:
 6502 0006 6FF0AD00 		mvn	r0, #173
 6503 000a 7047     		bx	lr
 6505              		.section	.text.wc_ecc_is_point,"ax",%progbits
 6506              		.align	1
 6507              		.global	wc_ecc_is_point
 6508              		.syntax unified
 6509              		.thumb
 6510              		.thumb_func
 6511              		.fpu fpv4-sp-d16
 6513              	wc_ecc_is_point:
 6514              		@ args = 0, pretend = 0, frame = 0
 6515              		@ frame_needed = 0, uses_anonymous_args = 0
 6516 0000 70B5     		push	{r4, r5, r6, lr}
 6517 0002 1646     		mov	r6, r2
 6518 0004 1D46     		mov	r5, r3
 6519 0006 0446     		mov	r4, r0
 6520 0008 00B3     		cbz	r0, .L1021
 6521 000a F9B1     		cbz	r1, .L1021
 6522 000c F2B1     		cbz	r2, .L1021
 6523 000e EBB1     		cbz	r3, .L1021
 6524 0010 1946     		mov	r1, r3
 6525 0012 FFF7FEFF 		bl	sp_cmp
 6526 0016 0130     		adds	r0, r0, #1
 6527 0018 02D0     		beq	.L1016
 6528              	.L1017:
 6529 001a 6FF0D800 		mvn	r0, #216
 6530              	.L1014:
 6531 001e 70BD     		pop	{r4, r5, r6, pc}
ARM GAS  /tmp/ccqDDmMm.s 			page 113


 6532              	.L1016:
 6533 0020 2946     		mov	r1, r5
 6534 0022 04F19000 		add	r0, r4, #144
 6535 0026 FFF7FEFF 		bl	sp_cmp
 6536 002a 0130     		adds	r0, r0, #1
 6537 002c F5D1     		bne	.L1017
 6538 002e B4F82031 		ldrh	r3, [r4, #288]
 6539 0032 012B     		cmp	r3, #1
 6540 0034 0DD1     		bne	.L1023
 6541 0036 D4F82431 		ldr	r3, [r4, #292]
 6542 003a 012B     		cmp	r3, #1
 6543 003c 09D1     		bne	.L1023
 6544 003e 2A46     		mov	r2, r5
 6545 0040 3146     		mov	r1, r6
 6546 0042 2046     		mov	r0, r4
 6547 0044 BDE87040 		pop	{r4, r5, r6, lr}
 6548 0048 FFF7FEBF 		b	_ecc_is_point.constprop.0
 6549              	.L1021:
 6550 004c 6FF0AC00 		mvn	r0, #172
 6551 0050 E5E7     		b	.L1014
 6552              	.L1023:
 6553 0052 6FF0A900 		mvn	r0, #169
 6554 0056 E2E7     		b	.L1014
 6556              		.section	.text.wc_ecc_check_key,"ax",%progbits
 6557              		.align	1
 6558              		.global	wc_ecc_check_key
 6559              		.syntax unified
 6560              		.thumb
 6561              		.thumb_func
 6562              		.fpu fpv4-sp-d16
 6564              	wc_ecc_check_key:
 6565              		@ args = 0, pretend = 0, frame = 48
 6566              		@ frame_needed = 0, uses_anonymous_args = 0
 6567 0000 2DE9F04F 		push	{r4, r5, r6, r7, r8, r9, r10, fp, lr}
 6568 0004 2DED028B 		vpush.64	{d8}
 6569 0008 91B0     		sub	sp, sp, #68
 6570 000a 0446     		mov	r4, r0
 6571 000c 2822     		movs	r2, #40
 6572 000e 06A8     		add	r0, sp, #24
 6573 0010 0021     		movs	r1, #0
 6574 0012 0490     		str	r0, [sp, #16]
 6575 0014 FFF7FEFF 		bl	memset
 6576 0018 0323     		movs	r3, #3
 6577 001a 0D93     		str	r3, [sp, #52]
 6578 001c 002C     		cmp	r4, #0
 6579 001e 00F0D180 		beq	.L1043
 6580 0022 6268     		ldr	r2, [r4, #4]
 6581 0024 511C     		adds	r1, r2, #1
 6582 0026 1BD0     		beq	.L1026
 6583 0028 3421     		movs	r1, #52
 6584 002a 7B4B     		ldr	r3, .L1059
 6585 002c 01FB0233 		mla	r3, r1, r2, r3
 6586 0030 5B68     		ldr	r3, [r3, #4]
 6587 0032 072B     		cmp	r3, #7
 6588 0034 14D1     		bne	.L1026
 6589 0036 2146     		mov	r1, r4
 6590 0038 51F8A83B 		ldr	r3, [r1], #168
ARM GAS  /tmp/ccqDDmMm.s 			page 114


 6591 003c 04F11800 		add	r0, r4, #24
 6592 0040 022B     		cmp	r3, #2
 6593 0042 18BF     		it	ne
 6594 0044 0022     		movne	r2, #0
 6595 0046 6369     		ldr	r3, [r4, #20]
 6596 0048 08BF     		it	eq
 6597 004a 04F5E872 		addeq	r2, r4, #464
 6598 004e FFF7FEFF 		bl	sp_ecc_check_key_256
 6599 0052 8346     		mov	fp, r0
 6600              	.L1024:
 6601 0054 5846     		mov	r0, fp
 6602 0056 11B0     		add	sp, sp, #68
 6603              		@ sp needed
 6604 0058 BDEC028B 		vldm	sp!, {d8}
 6605 005c BDE8F08F 		pop	{r4, r5, r6, r7, r8, r9, r10, fp, pc}
 6606              	.L1026:
 6607 0060 D820     		movs	r0, #216
 6608 0062 FFF7FEFF 		bl	wolfSSL_Malloc
 6609 0066 0546     		mov	r5, r0
 6610 0068 78B1     		cbz	r0, .L1045
 6611 006a 4FF0000B 		mov	fp, #0
 6612 006e 049B     		ldr	r3, [sp, #16]
 6613 0070 9861     		str	r0, [r3, #24]
 6614              	.L1028:
 6615 0072 9020     		movs	r0, #144
 6616 0074 FFF7FEFF 		bl	wolfSSL_Malloc
 6617 0078 0646     		mov	r6, r0
 6618 007a 48B9     		cbnz	r0, .L1029
 6619 007c 15B1     		cbz	r5, .L1046
 6620 007e 2846     		mov	r0, r5
 6621 0080 FFF7FEFF 		bl	wolfSSL_Free
 6622              	.L1046:
 6623 0084 6FF07C0B 		mvn	fp, #124
 6624 0088 E4E7     		b	.L1024
 6625              	.L1045:
 6626 008a 6FF07C0B 		mvn	fp, #124
 6627 008e F0E7     		b	.L1028
 6628              	.L1029:
 6629 0090 9022     		movs	r2, #144
 6630 0092 0021     		movs	r1, #0
 6631 0094 04F11807 		add	r7, r4, #24
 6632 0098 FFF7FEFF 		bl	memset
 6633 009c 3846     		mov	r0, r7
 6634 009e FFF7FEFF 		bl	wc_ecc_point_is_at_infinity
 6635 00a2 48B1     		cbz	r0, .L1030
 6636 00a4 3046     		mov	r0, r6
 6637 00a6 FFF7FEFF 		bl	wolfSSL_Free
 6638 00aa 15B1     		cbz	r5, .L1047
 6639 00ac 2846     		mov	r0, r5
 6640 00ae FFF7FEFF 		bl	wolfSSL_Free
 6641              	.L1047:
 6642 00b2 6FF0D60B 		mvn	fp, #214
 6643 00b6 CDE7     		b	.L1024
 6644              	.L1030:
 6645 00b8 BBF1000F 		cmp	fp, #0
 6646 00bc 1CD1     		bne	.L1031
 6647 00be 0B22     		movs	r2, #11
ARM GAS  /tmp/ccqDDmMm.s 			page 115


 6648 00c0 2069     		ldr	r0, [r4, #16]
 6649 00c2 04A9     		add	r1, sp, #16
 6650 00c4 FFF7FEFF 		bl	wc_ecc_curve_load
 6651 00c8 8346     		mov	fp, r0
 6652 00ca A8B9     		cbnz	r0, .L1031
 6653 00cc 3046     		mov	r0, r6
 6654 00ce FFF7FEFF 		bl	sp_init
 6655 00d2 8346     		mov	fp, r0
 6656 00d4 80B9     		cbnz	r0, .L1031
 6657 00d6 2369     		ldr	r3, [r4, #16]
 6658 00d8 1022     		movs	r2, #16
 6659 00da 3046     		mov	r0, r6
 6660 00dc 5969     		ldr	r1, [r3, #20]
 6661 00de FFF7FEFF 		bl	sp_read_radix
 6662 00e2 8346     		mov	fp, r0
 6663 00e4 40B9     		cbnz	r0, .L1031
 6664 00e6 049B     		ldr	r3, [sp, #16]
 6665 00e8 3846     		mov	r0, r7
 6666 00ea 5968     		ldr	r1, [r3, #4]
 6667 00ec FFF7FEFF 		bl	sp_cmp
 6668 00f0 0130     		adds	r0, r0, #1
 6669 00f2 6AD0     		beq	.L1032
 6670              	.L1041:
 6671 00f4 6FF0D80B 		mvn	fp, #216
 6672              	.L1031:
 6673 00f8 0498     		ldr	r0, [sp, #16]
 6674 00fa FFF7FEFF 		bl	wc_ecc_curve_free
 6675 00fe 3046     		mov	r0, r6
 6676 0100 FFF7FEFF 		bl	sp_clear
 6677 0104 3046     		mov	r0, r6
 6678 0106 FFF7FEFF 		bl	wolfSSL_Free
 6679 010a 002D     		cmp	r5, #0
 6680 010c A2D0     		beq	.L1024
 6681 010e 2846     		mov	r0, r5
 6682 0110 FFF7FEFF 		bl	wolfSSL_Free
 6683 0114 9EE7     		b	.L1024
 6684              	.L1033:
 6685 0116 4846     		mov	r0, r9
 6686 0118 FFF7FEFF 		bl	sp_count_bits
 6687 011c 8146     		mov	r9, r0
 6688 011e 4046     		mov	r0, r8
 6689 0120 FFF7FEFF 		bl	sp_count_bits
 6690 0124 8145     		cmp	r9, r0
 6691 0126 74DC     		bgt	.L1034
 6692 0128 04F59C70 		add	r0, r4, #312
 6693 012c FFF7FEFF 		bl	sp_count_bits
 6694 0130 8146     		mov	r9, r0
 6695 0132 4046     		mov	r0, r8
 6696 0134 FFF7FEFF 		bl	sp_count_bits
 6697 0138 8145     		cmp	r9, r0
 6698 013a 6ADC     		bgt	.L1034
 6699 013c 05A8     		add	r0, sp, #20
 6700 013e FFF7FEFF 		bl	wc_ecc_new_point_ex.constprop.0
 6701 0142 8346     		mov	fp, r0
 6702 0144 D8B9     		cbnz	r0, .L1035
 6703 0146 6068     		ldr	r0, [r4, #4]
 6704 0148 059A     		ldr	r2, [sp, #20]
ARM GAS  /tmp/ccqDDmMm.s 			page 116


 6705 014a 431C     		adds	r3, r0, #1
 6706 014c 6169     		ldr	r1, [r4, #20]
 6707 014e 25D0     		beq	.L1036
 6708 0150 4FF0340C 		mov	ip, #52
 6709 0154 304B     		ldr	r3, .L1059
 6710 0156 0CFB0033 		mla	r3, ip, r0, r3
 6711 015a 5B68     		ldr	r3, [r3, #4]
 6712 015c 072B     		cmp	r3, #7
 6713 015e 1DD1     		bne	.L1036
 6714 0160 0091     		str	r1, [sp]
 6715 0162 0123     		movs	r3, #1
 6716 0164 3946     		mov	r1, r7
 6717 0166 5046     		mov	r0, r10
 6718 0168 FFF7FEFF 		bl	sp_ecc_mulmod_256
 6719              	.L1058:
 6720 016c 8346     		mov	fp, r0
 6721 016e 30B9     		cbnz	r0, .L1035
 6722 0170 0598     		ldr	r0, [sp, #20]
 6723 0172 FFF7FEFF 		bl	wc_ecc_point_is_at_infinity
 6724 0176 0028     		cmp	r0, #0
 6725 0178 08BF     		it	eq
 6726 017a 6FF0D60B 		mvneq	fp, #214
 6727              	.L1035:
 6728 017e 0598     		ldr	r0, [sp, #20]
 6729 0180 FFF7FEFF 		bl	wc_ecc_del_point_ex.constprop.0
 6730 0184 BBF1000F 		cmp	fp, #0
 6731 0188 B6D1     		bne	.L1031
 6732 018a 2268     		ldr	r2, [r4]
 6733 018c 022A     		cmp	r2, #2
 6734 018e B3D1     		bne	.L1031
 6735 0190 B4F8D021 		ldrh	r2, [r4, #464]
 6736 0194 6AB9     		cbnz	r2, .L1039
 6737              	.L1040:
 6738 0196 6FF0D70B 		mvn	fp, #215
 6739 019a ADE7     		b	.L1031
 6740              	.L1036:
 6741 019c 0123     		movs	r3, #1
 6742 019e 0291     		str	r1, [sp, #8]
 6743 01a0 CDE90083 		strd	r8, r3, [sp]
 6744 01a4 3946     		mov	r1, r7
 6745 01a6 18EE103A 		vmov	r3, s16	@ int
 6746 01aa 5046     		mov	r0, r10
 6747 01ac FFF7FEFF 		bl	wc_ecc_mulmod_ex
 6748 01b0 DCE7     		b	.L1058
 6749              	.L1039:
 6750 01b2 049A     		ldr	r2, [sp, #16]
 6751 01b4 04F5E870 		add	r0, r4, #464
 6752 01b8 D168     		ldr	r1, [r2, #12]
 6753 01ba FFF7FEFF 		bl	sp_cmp
 6754 01be 0130     		adds	r0, r0, #1
 6755 01c0 E9D1     		bne	.L1040
 6756 01c2 99E7     		b	.L1031
 6757              	.L1043:
 6758 01c4 6FF0AC0B 		mvn	fp, #172
 6759 01c8 44E7     		b	.L1024
 6760              	.L1032:
 6761 01ca 049B     		ldr	r3, [sp, #16]
ARM GAS  /tmp/ccqDDmMm.s 			page 117


 6762 01cc 04F1A809 		add	r9, r4, #168
 6763 01d0 4846     		mov	r0, r9
 6764 01d2 5968     		ldr	r1, [r3, #4]
 6765 01d4 FFF7FEFF 		bl	sp_cmp
 6766 01d8 0130     		adds	r0, r0, #1
 6767 01da 8BD1     		bne	.L1041
 6768 01dc 049B     		ldr	r3, [sp, #16]
 6769 01de 3146     		mov	r1, r6
 6770 01e0 3846     		mov	r0, r7
 6771 01e2 5A68     		ldr	r2, [r3, #4]
 6772 01e4 FFF7FEFF 		bl	_ecc_is_point.constprop.0
 6773 01e8 8346     		mov	fp, r0
 6774 01ea 0028     		cmp	r0, #0
 6775 01ec 84D1     		bne	.L1031
 6776 01ee 049A     		ldr	r2, [sp, #16]
 6777 01f0 0590     		str	r0, [sp, #20]
 6778 01f2 9368     		ldr	r3, [r2, #8]
 6779 01f4 3846     		mov	r0, r7
 6780 01f6 D2F80480 		ldr	r8, [r2, #4]
 6781 01fa 08EE103A 		vmov	s16, r3	@ int
 6782 01fe D2F80CA0 		ldr	r10, [r2, #12]
 6783 0202 FFF7FEFF 		bl	sp_count_bits
 6784 0206 8346     		mov	fp, r0
 6785 0208 4046     		mov	r0, r8
 6786 020a FFF7FEFF 		bl	sp_count_bits
 6787 020e 8345     		cmp	fp, r0
 6788 0210 81DD     		ble	.L1033
 6789              	.L1034:
 6790 0212 6FF0D50B 		mvn	fp, #213
 6791 0216 6FE7     		b	.L1031
 6792              	.L1060:
 6793              		.align	2
 6794              	.L1059:
 6795 0218 00000000 		.word	.LANCHOR0
 6797              		.section	.text.wc_ecc_import_x963_ex,"ax",%progbits
 6798              		.align	1
 6799              		.global	wc_ecc_import_x963_ex
 6800              		.syntax unified
 6801              		.thumb
 6802              		.thumb_func
 6803              		.fpu fpv4-sp-d16
 6805              	wc_ecc_import_x963_ex:
 6806              		@ args = 0, pretend = 0, frame = 8
 6807              		@ frame_needed = 0, uses_anonymous_args = 0
 6808 0000 2DE9F04F 		push	{r4, r5, r6, r7, r8, r9, r10, fp, lr}
 6809 0004 0C46     		mov	r4, r1
 6810 0006 1546     		mov	r5, r2
 6811 0008 9A46     		mov	r10, r3
 6812 000a 0646     		mov	r6, r0
 6813 000c 85B0     		sub	sp, sp, #20
 6814 000e 0028     		cmp	r0, #0
 6815 0010 5CD0     		beq	.L1066
 6816 0012 002A     		cmp	r2, #0
 6817 0014 5AD0     		beq	.L1066
 6818 0016 CB07     		lsls	r3, r1, #31
 6819 0018 5BD5     		bpl	.L1067
 6820 001a 0023     		movs	r3, #0
ARM GAS  /tmp/ccqDDmMm.s 			page 118


 6821 001c 02F5E87B 		add	fp, r2, #464
 6822 0020 02F11809 		add	r9, r2, #24
 6823 0024 02F59C77 		add	r7, r2, #312
 6824 0028 02F1A808 		add	r8, r2, #168
 6825 002c 9360     		str	r3, [r2, #8]
 6826 002e 4946     		mov	r1, r9
 6827 0030 CDE90033 		strd	r3, r3, [sp]
 6828 0034 4246     		mov	r2, r8
 6829 0036 3B46     		mov	r3, r7
 6830 0038 5846     		mov	r0, fp
 6831 003a FFF7FEFF 		bl	sp_init_multi
 6832 003e 0346     		mov	r3, r0
 6833 0040 0028     		cmp	r0, #0
 6834 0042 49D1     		bne	.L1068
 6835 0044 3278     		ldrb	r2, [r6]	@ zero_extendqisi2
 6836 0046 042A     		cmp	r2, #4
 6837 0048 05D0     		beq	.L1063
 6838 004a 022A     		cmp	r2, #2
 6839 004c 03D0     		beq	.L1063
 6840 004e 032A     		cmp	r2, #3
 6841 0050 18BF     		it	ne
 6842 0052 6FF08B03 		mvnne	r3, #139
 6843              	.L1063:
 6844 0056 023A     		subs	r2, r2, #2
 6845 0058 012A     		cmp	r2, #1
 6846 005a 34D9     		bls	.L1070
 6847 005c 0BBB     		cbnz	r3, .L1064
 6848 005e 013C     		subs	r4, r4, #1
 6849 0060 6408     		lsrs	r4, r4, #1
 6850 0062 5246     		mov	r2, r10
 6851 0064 2146     		mov	r1, r4
 6852 0066 2846     		mov	r0, r5
 6853 0068 FFF7FEFF 		bl	wc_ecc_set_curve
 6854 006c 4FF0010A 		mov	r10, #1
 6855 0070 0346     		mov	r3, r0
 6856 0072 C5F800A0 		str	r10, [r5]
 6857 0076 A0B9     		cbnz	r0, .L1064
 6858 0078 5644     		add	r6, r6, r10
 6859 007a 2246     		mov	r2, r4
 6860 007c 3146     		mov	r1, r6
 6861 007e 4846     		mov	r0, r9
 6862 0080 FFF7FEFF 		bl	sp_read_unsigned_bin
 6863 0084 0346     		mov	r3, r0
 6864 0086 60B9     		cbnz	r0, .L1064
 6865 0088 2246     		mov	r2, r4
 6866 008a 4046     		mov	r0, r8
 6867 008c 3119     		adds	r1, r6, r4
 6868 008e FFF7FEFF 		bl	sp_read_unsigned_bin
 6869 0092 0346     		mov	r3, r0
 6870 0094 28B9     		cbnz	r0, .L1064
 6871 0096 5146     		mov	r1, r10
 6872 0098 3846     		mov	r0, r7
 6873 009a FFF7FEFF 		bl	sp_set
 6874 009e 0346     		mov	r3, r0
 6875 00a0 68B1     		cbz	r0, .L1061
 6876              	.L1064:
 6877 00a2 4846     		mov	r0, r9
ARM GAS  /tmp/ccqDDmMm.s 			page 119


 6878 00a4 0393     		str	r3, [sp, #12]
 6879 00a6 FFF7FEFF 		bl	sp_clear
 6880 00aa 4046     		mov	r0, r8
 6881 00ac FFF7FEFF 		bl	sp_clear
 6882 00b0 3846     		mov	r0, r7
 6883 00b2 FFF7FEFF 		bl	sp_clear
 6884 00b6 5846     		mov	r0, fp
 6885 00b8 FFF7FEFF 		bl	sp_clear
 6886 00bc 039B     		ldr	r3, [sp, #12]
 6887              	.L1061:
 6888 00be 1846     		mov	r0, r3
 6889 00c0 05B0     		add	sp, sp, #20
 6890              		@ sp needed
 6891 00c2 BDE8F08F 		pop	{r4, r5, r6, r7, r8, r9, r10, fp, pc}
 6892              	.L1070:
 6893 00c6 6FF0AD03 		mvn	r3, #173
 6894 00ca EAE7     		b	.L1064
 6895              	.L1066:
 6896 00cc 6FF0AC03 		mvn	r3, #172
 6897 00d0 F5E7     		b	.L1061
 6898              	.L1067:
 6899 00d2 6FF0A903 		mvn	r3, #169
 6900 00d6 F2E7     		b	.L1061
 6901              	.L1068:
 6902 00d8 6FF07C03 		mvn	r3, #124
 6903 00dc EFE7     		b	.L1061
 6905              		.section	.text.wc_ecc_import_x963,"ax",%progbits
 6906              		.align	1
 6907              		.global	wc_ecc_import_x963
 6908              		.syntax unified
 6909              		.thumb
 6910              		.thumb_func
 6911              		.fpu fpv4-sp-d16
 6913              	wc_ecc_import_x963:
 6914              		@ args = 0, pretend = 0, frame = 0
 6915              		@ frame_needed = 0, uses_anonymous_args = 0
 6916              		@ link register save eliminated.
 6917 0000 0023     		movs	r3, #0
 6918 0002 FFF7FEBF 		b	wc_ecc_import_x963_ex
 6920              		.section	.text.wc_ecc_export_ex,"ax",%progbits
 6921              		.align	1
 6922              		.global	wc_ecc_export_ex
 6923              		.syntax unified
 6924              		.thumb
 6925              		.thumb_func
 6926              		.fpu fpv4-sp-d16
 6928              	wc_ecc_export_ex:
 6929              		@ args = 16, pretend = 0, frame = 8
 6930              		@ frame_needed = 0, uses_anonymous_args = 0
 6931 0000 2DE9F043 		push	{r4, r5, r6, r7, r8, r9, lr}
 6932 0004 85B0     		sub	sp, sp, #20
 6933 0006 0E46     		mov	r6, r1
 6934 0008 DDE90C91 		ldrd	r9, r1, [sp, #48]
 6935 000c 1746     		mov	r7, r2
 6936 000e DDE90E28 		ldrd	r2, r8, [sp, #56]
