ARM GAS  /tmp/ccwGYw5D.s 			page 1


   1              		.cpu cortex-m33
   2              		.eabi_attribute 27, 1
   3              		.eabi_attribute 28, 1
   4              		.eabi_attribute 20, 1
   5              		.eabi_attribute 21, 1
   6              		.eabi_attribute 23, 3
   7              		.eabi_attribute 24, 1
   8              		.eabi_attribute 25, 1
   9              		.eabi_attribute 26, 1
  10              		.eabi_attribute 30, 4
  11              		.eabi_attribute 34, 1
  12              		.eabi_attribute 18, 4
  13              		.file	"sp_cortexm.c"
  14              		.text
  15              		.section	.text.sp_256_mul_8,"ax",%progbits
  16              		.align	1
  17              		.arch armv8-m.main
  18              		.arch_extension dsp
  19              		.syntax unified
  20              		.thumb
  21              		.thumb_func
  22              		.fpu fpv4-sp-d16
  24              	sp_256_mul_8:
  25              		@ args = 0, pretend = 0, frame = 0
  26              		@ frame_needed = 0, uses_anonymous_args = 0
  27 0000 2DE9F04F 		push	{r4, r5, r6, r7, r8, r9, r10, fp, lr}
  28              		.syntax unified
  29              	@ 32000 "../wolfssl/wolfcrypt/src/sp_cortexm.c" 1
  30 0004 8BB0     		SUB	sp, sp, #0x2c
  31 0006 CDE90901 		STRD	r0, r1, [sp, #36]
  32 000a 9646     		MOV	lr, r2
  33 000c 0FC9     		LDM	r1, {r0, r1, r2, r3}
  34 000e BEE87000 		LDM	lr!, {r4, r5, r6}
  35 0012 A0FB04AB 		UMULL	r10, r11, r0, r4
  36 0016 A1FB04C7 		UMULL	r12, r7, r1, r4
  37 001a E0FB65BC 		UMAAL	r11, r12, r0, r5
  38 001e A2FB0489 		UMULL	r8, r9, r2, r4
  39 0022 E1FB65C8 		UMAAL	r12, r8, r1, r5
  40 0026 E0FB66C7 		UMAAL	r12, r7, r0, r6
  41 002a E3FB6489 		UMAAL	r8, r9, r3, r4
  42 002e 8DE8001C 		STM	sp, {r10, r11, r12}
  43 0032 E2FB6578 		UMAAL	r7, r8, r2, r5
  44 0036 5EF8044B 		LDM	lr!, {r4}
  45 003a A1FB06AB 		UMULL	r10, r11, r1, r6
  46 003e E2FB6689 		UMAAL	r8, r9, r2, r6
  47 0042 E0FB647A 		UMAAL	r7, r10, r0, r4
  48 0046 E3FB658B 		UMAAL	r8, r11, r3, r5
  49 004a 0397     		STR	r7, [sp, #12]
  50 004c E1FB648A 		UMAAL	r8, r10, r1, r4
  51 0050 E3FB669B 		UMAAL	r9, r11, r3, r6
  52 0054 E2FB649A 		UMAAL	r9, r10, r2, r4
  53 0058 E3FB64AB 		UMAAL	r10, r11, r3, r4
  54 005c 9EE8F000 		LDM	lr, {r4, r5, r6, r7}
  55 0060 4FF0000C 		MOV	r12, #0x0
  56 0064 E0FB048C 		UMLAL	r8, r12, r0, r4
  57 0068 E1FB649C 		UMAAL	r9, r12, r1, r4
  58 006c E2FB64AC 		UMAAL	r10, r12, r2, r4
ARM GAS  /tmp/ccwGYw5D.s 			page 2


  59 0070 E3FB64BC 		UMAAL	r11, r12, r3, r4
  60 0074 4FF00004 		MOV	r4, #0x0
  61 0078 E0FB0594 		UMLAL	r9, r4, r0, r5
  62 007c E1FB65A4 		UMAAL	r10, r4, r1, r5
  63 0080 E2FB65B4 		UMAAL	r11, r4, r2, r5
  64 0084 E3FB65C4 		UMAAL	r12, r4, r3, r5
  65 0088 4FF00005 		MOV	r5, #0x0
  66 008c E0FB06A5 		UMLAL	r10, r5, r0, r6
  67 0090 E1FB66B5 		UMAAL	r11, r5, r1, r6
  68 0094 E2FB66C5 		UMAAL	r12, r5, r2, r6
  69 0098 E3FB6645 		UMAAL	r4, r5, r3, r6
  70 009c 4FF00006 		MOV	r6, #0x0
  71 00a0 E0FB07B6 		UMLAL	r11, r6, r0, r7
  72 00a4 0A98     		LDR	r0, [sp, #40]
  73 00a6 E1FB67C6 		UMAAL	r12, r6, r1, r7
  74 00aa 00F11000 		ADD	r0, r0, #0x10
  75 00ae E2FB6746 		UMAAL	r4, r6, r2, r7
  76 00b2 AEF1100E 		SUB	lr, lr, #0x10
  77 00b6 E3FB6756 		UMAAL	r5, r6, r3, r7
  78 00ba 0FC8     		LDM	r0, {r0, r1, r2, r3}
  79 00bc 0896     		STR	r6, [sp, #32]
  80 00be 5EF8046B 		LDM	lr!, {r6}
  81 00c2 4FF00007 		MOV	r7, #0x0
  82 00c6 E0FB0687 		UMLAL	r8, r7, r0, r6
  83 00ca E1FB6697 		UMAAL	r9, r7, r1, r6
  84 00ce CDF81080 		STR	r8, [sp, #16]
  85 00d2 E2FB66A7 		UMAAL	r10, r7, r2, r6
  86 00d6 E3FB66B7 		UMAAL	r11, r7, r3, r6
  87 00da 5EF8046B 		LDM	lr!, {r6}
  88 00de 4FF00008 		MOV	r8, #0x0
  89 00e2 E0FB0698 		UMLAL	r9, r8, r0, r6
  90 00e6 E1FB66A8 		UMAAL	r10, r8, r1, r6
  91 00ea CDF81490 		STR	r9, [sp, #20]
  92 00ee E2FB66B8 		UMAAL	r11, r8, r2, r6
  93 00f2 E3FB66C8 		UMAAL	r12, r8, r3, r6
  94 00f6 5EF8046B 		LDM	lr!, {r6}
  95 00fa 4FF00009 		MOV	r9, #0x0
  96 00fe E0FB06A9 		UMLAL	r10, r9, r0, r6
  97 0102 E1FB66B9 		UMAAL	r11, r9, r1, r6
  98 0106 CDF818A0 		STR	r10, [sp, #24]
  99 010a E2FB66C9 		UMAAL	r12, r9, r2, r6
 100 010e E3FB6649 		UMAAL	r4, r9, r3, r6
 101 0112 5EF8046B 		LDM	lr!, {r6}
 102 0116 4FF0000A 		MOV	r10, #0x0
 103 011a E0FB06BA 		UMLAL	r11, r10, r0, r6
 104 011e E1FB66CA 		UMAAL	r12, r10, r1, r6
 105 0122 CDF81CB0 		STR	r11, [sp, #28]
 106 0126 E2FB664A 		UMAAL	r4, r10, r2, r6
 107 012a E3FB665A 		UMAAL	r5, r10, r3, r6
 108 012e 5EF804BB 		LDM	lr!, {r11}
 109 0132 E0FB6BC7 		UMAAL	r12, r7, r0, r11
 110 0136 E1FB6B47 		UMAAL	r4, r7, r1, r11
 111 013a 089E     		LDR	r6, [sp, #32]
 112 013c E2FB6B57 		UMAAL	r5, r7, r2, r11
 113 0140 E3FB6B67 		UMAAL	r6, r7, r3, r11
 114 0144 5EF804BB 		LDM	lr!, {r11}
 115 0148 E0FB6B48 		UMAAL	r4, r8, r0, r11
ARM GAS  /tmp/ccwGYw5D.s 			page 3


 116 014c E1FB6B58 		UMAAL	r5, r8, r1, r11
 117 0150 E2FB6B68 		UMAAL	r6, r8, r2, r11
 118 0154 E3FB6B78 		UMAAL	r7, r8, r3, r11
 119 0158 9EE80048 		LDM	lr, {r11, lr}
 120 015c E0FB6B59 		UMAAL	r5, r9, r0, r11
 121 0160 E0FB6E6A 		UMAAL	r6, r10, r0, lr
 122 0164 E1FB6B69 		UMAAL	r6, r9, r1, r11
 123 0168 E1FB6E7A 		UMAAL	r7, r10, r1, lr
 124 016c E2FB6B79 		UMAAL	r7, r9, r2, r11
 125 0170 E2FB6E8A 		UMAAL	r8, r10, r2, lr
 126 0174 E3FB6B89 		UMAAL	r8, r9, r3, r11
 127 0178 E3FB6E9A 		UMAAL	r9, r10, r3, lr
 128 017c 6346     		MOV	r3, r12
 129 017e DDF824E0 		LDR	lr, [sp, #36]
 130 0182 0EF1200E 		ADD	lr, lr, #0x20
 131 0186 8EE8F807 		STM	lr, {r3, r4, r5, r6, r7, r8, r9, r10}
 132 018a AEF1200E 		SUB	lr, lr, #0x20
 133 018e 9DE8F807 		LDM	sp, {r3, r4, r5, r6, r7, r8, r9, r10}
 134 0192 8EE8F807 		STM	lr, {r3, r4, r5, r6, r7, r8, r9, r10}
 135 0196 0BB0     		ADD	sp, sp, #0x2c
 136              		
 137              	@ 0 "" 2
 138              		.thumb
 139              		.syntax unified
 140 0198 BDE8F08F 		pop	{r4, r5, r6, r7, r8, r9, r10, fp, pc}
 142              		.section	.text.sp_256_sqr_8,"ax",%progbits
 143              		.align	1
 144              		.syntax unified
 145              		.thumb
 146              		.thumb_func
 147              		.fpu fpv4-sp-d16
 149              	sp_256_sqr_8:
 150              		@ args = 0, pretend = 0, frame = 0
 151              		@ frame_needed = 0, uses_anonymous_args = 0
 152 0000 2DE9F04F 		push	{r4, r5, r6, r7, r8, r9, r10, fp, lr}
 153              		.syntax unified
 154              	@ 32513 "../wolfssl/wolfcrypt/src/sp_cortexm.c" 1
 155 0004 88B0     		SUB	sp, sp, #0x20
 156 0006 0790     		STR	r0, [sp, #28]
 157 0008 FFC9     		LDM	r1, {r0, r1, r2, r3, r4, r5, r6, r7}
 158 000a A0FB009A 		UMULL	r9, r10, r0, r0
 159 000e A0FB01BC 		UMULL	r11, r12, r0, r1
 160 0012 1BEB0B0B 		ADDS	r11, r11, r11
 161 0016 4FF0000E 		MOV	lr, #0x0
 162 001a EEFB6EAB 		UMAAL	r10, r11, lr, lr
 163 001e 8DE80006 		STM	sp, {r9, r10}
 164 0022 F046     		MOV	r8, lr
 165 0024 E0FB628C 		UMAAL	r8, r12, r0, r2
 166 0028 58EB0808 		ADCS	r8, r8, r8
 167 002c E1FB618B 		UMAAL	r8, r11, r1, r1
 168 0030 A0FB039A 		UMULL	r9, r10, r0, r3
 169 0034 E1FB629C 		UMAAL	r9, r12, r1, r2
 170 0038 59EB0909 		ADCS	r9, r9, r9
 171 003c EEFB6E9B 		UMAAL	r9, r11, lr, lr
 172 0040 CDE90289 		STRD	r8, r9, [sp, #8]
 173 0044 F146     		MOV	r9, lr
 174 0046 E0FB649A 		UMAAL	r9, r10, r0, r4
ARM GAS  /tmp/ccwGYw5D.s 			page 4


 175 004a E1FB639C 		UMAAL	r9, r12, r1, r3
 176 004e 59EB0909 		ADCS	r9, r9, r9
 177 0052 E2FB629B 		UMAAL	r9, r11, r2, r2
 178 0056 CDF81090 		STR	r9, [sp, #16]
 179 005a A0FB0598 		UMULL	r9, r8, r0, r5
 180 005e E1FB649C 		UMAAL	r9, r12, r1, r4
 181 0062 E2FB639A 		UMAAL	r9, r10, r2, r3
 182 0066 59EB0909 		ADCS	r9, r9, r9
 183 006a EEFB6E9B 		UMAAL	r9, r11, lr, lr
 184 006e CDF81490 		STR	r9, [sp, #20]
 185 0072 F146     		MOV	r9, lr
 186 0074 E0FB6698 		UMAAL	r9, r8, r0, r6
 187 0078 E1FB659C 		UMAAL	r9, r12, r1, r5
 188 007c E2FB649A 		UMAAL	r9, r10, r2, r4
 189 0080 59EB0909 		ADCS	r9, r9, r9
 190 0084 E3FB639B 		UMAAL	r9, r11, r3, r3
 191 0088 CDF81890 		STR	r9, [sp, #24]
 192 008c A0FB0709 		UMULL	r0, r9, r0, r7
 193 0090 E1FB6608 		UMAAL	r0, r8, r1, r6
 194 0094 E2FB650C 		UMAAL	r0, r12, r2, r5
 195 0098 E3FB640A 		UMAAL	r0, r10, r3, r4
 196 009c 4041     		ADCS	r0, r0, r0
 197 009e EEFB6E0B 		UMAAL	r0, r11, lr, lr
 198 00a2 E1FB6798 		UMAAL	r9, r8, r1, r7
 199 00a6 E2FB669A 		UMAAL	r9, r10, r2, r6
 200 00aa E3FB65C9 		UMAAL	r12, r9, r3, r5
 201 00ae 5CEB0C0C 		ADCS	r12, r12, r12
 202 00b2 E4FB64CB 		UMAAL	r12, r11, r4, r4
 203 00b6 E2FB6798 		UMAAL	r9, r8, r2, r7
 204 00ba E3FB66A9 		UMAAL	r10, r9, r3, r6
 205 00be 7246     		MOV	r2, lr
 206 00c0 E4FB65A2 		UMAAL	r10, r2, r4, r5
 207 00c4 5AEB0A0A 		ADCS	r10, r10, r10
 208 00c8 EEFB6EBA 		UMAAL	r11, r10, lr, lr
 209 00cc E3FB6728 		UMAAL	r2, r8, r3, r7
 210 00d0 E4FB6629 		UMAAL	r2, r9, r4, r6
 211 00d4 52EB0203 		ADCS	r3, r2, r2
 212 00d8 E5FB65A3 		UMAAL	r10, r3, r5, r5
 213 00dc 7146     		MOV	r1, lr
 214 00de E4FB6718 		UMAAL	r1, r8, r4, r7
 215 00e2 E5FB6619 		UMAAL	r1, r9, r5, r6
 216 00e6 51EB0104 		ADCS	r4, r1, r1
 217 00ea EEFB6E34 		UMAAL	r3, r4, lr, lr
 218 00ee E5FB6789 		UMAAL	r8, r9, r5, r7
 219 00f2 58EB0808 		ADCS	r8, r8, r8
 220 00f6 E6FB6648 		UMAAL	r4, r8, r6, r6
 221 00fa 7546     		MOV	r5, lr
 222 00fc E6FB6759 		UMAAL	r5, r9, r6, r7
 223 0100 6D41     		ADCS	r5, r5, r5
 224 0102 EEFB6E85 		UMAAL	r8, r5, lr, lr
 225 0106 59EB0909 		ADCS	r9, r9, r9
 226 010a E7FB6795 		UMAAL	r9, r5, r7, r7
 227 010e 55EB0E07 		ADCS	r7, r5, lr
 228 0112 DDF81CE0 		LDR	lr, [sp, #28]
 229 0116 0EF11C0E 		ADD	lr, lr, #0x1c
 230 011a AEE80110 		STM	lr!, {r0, r12}
 231 011e 4EF804BB 		STM	lr!, {r11}
ARM GAS  /tmp/ccwGYw5D.s 			page 5


 232 0122 4EF804AB 		STM	lr!, {r10}
 233 0126 AEE81803 		STM	lr!, {r3, r4, r8, r9}
 234 012a 4EF8047B 		STM	lr!, {r7}
 235 012e AEF1400E 		SUB	lr, lr, #0x40
 236 0132 9DE87F00 		LDM	sp, {r0, r1, r2, r3, r4, r5, r6}
 237 0136 8EE87F00 		STM	lr, {r0, r1, r2, r3, r4, r5, r6}
 238 013a 08B0     		ADD	sp, sp, #0x20
 239              		
 240              	@ 0 "" 2
 241              		.thumb
 242              		.syntax unified
 243 013c BDE8F08F 		pop	{r4, r5, r6, r7, r8, r9, r10, fp, pc}
 245              		.section	.text.sp_256_add_8,"ax",%progbits
 246              		.align	1
 247              		.syntax unified
 248              		.thumb
 249              		.thumb_func
 250              		.fpu fpv4-sp-d16
 252              	sp_256_add_8:
 253              		@ args = 0, pretend = 0, frame = 0
 254              		@ frame_needed = 0, uses_anonymous_args = 0
 255 0000 2DE9F047 		push	{r4, r5, r6, r7, r8, r9, r10, lr}
 256              		.syntax unified
 257              	@ 32694 "../wolfssl/wolfcrypt/src/sp_cortexm.c" 1
 258 0004 78C9     		LDM	r1!, {r3, r4, r5, r6}
 259 0006 B2E88007 		LDM	r2!, {r7, r8, r9, r10}
 260 000a DB19     		ADDS	r3, r3, r7
 261 000c 54EB0804 		ADCS	r4, r4, r8
 262 0010 55EB0905 		ADCS	r5, r5, r9
 263 0014 56EB0A06 		ADCS	r6, r6, r10
 264 0018 78C0     		STM	r0!, {r3, r4, r5, r6}
 265 001a 78C9     		LDM	r1!, {r3, r4, r5, r6}
 266 001c B2E88007 		LDM	r2!, {r7, r8, r9, r10}
 267 0020 7B41     		ADCS	r3, r3, r7
 268 0022 54EB0804 		ADCS	r4, r4, r8
 269 0026 55EB0905 		ADCS	r5, r5, r9
 270 002a 56EB0A06 		ADCS	r6, r6, r10
 271 002e 78C0     		STM	r0!, {r3, r4, r5, r6}
 272 0030 4FF00000 		MOV	r0, #0x0
 273 0034 40F10000 		ADC	r0, r0, #0x0
 274              		
 275              	@ 0 "" 2
 276              		.thumb
 277              		.syntax unified
 278 0038 BDE8F087 		pop	{r4, r5, r6, r7, r8, r9, r10, pc}
 280              		.section	.text.sp_256_cmp_8,"ax",%progbits
 281              		.align	1
 282              		.syntax unified
 283              		.thumb
 284              		.thumb_func
 285              		.fpu fpv4-sp-d16
 287              	sp_256_cmp_8:
 288              		@ args = 0, pretend = 0, frame = 0
 289              		@ frame_needed = 0, uses_anonymous_args = 0
 290 0000 2DE9F041 		push	{r4, r5, r6, r7, r8, lr}
 291              		.syntax unified
 292              	@ 34684 "../wolfssl/wolfcrypt/src/sp_cortexm.c" 1
ARM GAS  /tmp/ccwGYw5D.s 			page 6


 293 0004 4FF0FF32 		MOV	r2, #0xffffffff
 294 0008 4FF00108 		MOV	r8, #0x1
 295 000c 4FF00007 		MOV	r7, #0x0
 296 0010 4FF0FF33 		MOV	r3, #0xffffffff
 297 0014 C469     		LDR	r4, [r0, #28]
 298 0016 CD69     		LDR	r5, [r1, #28]
 299 0018 04EA0304 		AND	r4, r4, r3
 300 001c 05EA0305 		AND	r5, r5, r3
 301 0020 641B     		SUBS	r4, r4, r5
 302 0022 88BF     		IT	hi
 303 0024 4246     		movhi	r2, r8
 304 0026 38BF     		IT	lo
 305 0028 1A46     		movlo	r2, r3
 306 002a 18BF     		IT	ne
 307 002c 3B46     		movne	r3, r7
 308 002e 8469     		LDR	r4, [r0, #24]
 309 0030 8D69     		LDR	r5, [r1, #24]
 310 0032 04EA0304 		AND	r4, r4, r3
 311 0036 05EA0305 		AND	r5, r5, r3
 312 003a 641B     		SUBS	r4, r4, r5
 313 003c 88BF     		IT	hi
 314 003e 4246     		movhi	r2, r8
 315 0040 38BF     		IT	lo
 316 0042 1A46     		movlo	r2, r3
 317 0044 18BF     		IT	ne
 318 0046 3B46     		movne	r3, r7
 319 0048 4469     		LDR	r4, [r0, #20]
 320 004a 4D69     		LDR	r5, [r1, #20]
 321 004c 04EA0304 		AND	r4, r4, r3
 322 0050 05EA0305 		AND	r5, r5, r3
 323 0054 641B     		SUBS	r4, r4, r5
 324 0056 88BF     		IT	hi
 325 0058 4246     		movhi	r2, r8
 326 005a 38BF     		IT	lo
 327 005c 1A46     		movlo	r2, r3
 328 005e 18BF     		IT	ne
 329 0060 3B46     		movne	r3, r7
 330 0062 0469     		LDR	r4, [r0, #16]
 331 0064 0D69     		LDR	r5, [r1, #16]
 332 0066 04EA0304 		AND	r4, r4, r3
 333 006a 05EA0305 		AND	r5, r5, r3
 334 006e 641B     		SUBS	r4, r4, r5
 335 0070 88BF     		IT	hi
 336 0072 4246     		movhi	r2, r8
 337 0074 38BF     		IT	lo
 338 0076 1A46     		movlo	r2, r3
 339 0078 18BF     		IT	ne
 340 007a 3B46     		movne	r3, r7
 341 007c C468     		LDR	r4, [r0, #12]
 342 007e CD68     		LDR	r5, [r1, #12]
 343 0080 04EA0304 		AND	r4, r4, r3
 344 0084 05EA0305 		AND	r5, r5, r3
 345 0088 641B     		SUBS	r4, r4, r5
 346 008a 88BF     		IT	hi
 347 008c 4246     		movhi	r2, r8
 348 008e 38BF     		IT	lo
 349 0090 1A46     		movlo	r2, r3
ARM GAS  /tmp/ccwGYw5D.s 			page 7


 350 0092 18BF     		IT	ne
 351 0094 3B46     		movne	r3, r7
 352 0096 8468     		LDR	r4, [r0, #8]
 353 0098 8D68     		LDR	r5, [r1, #8]
 354 009a 04EA0304 		AND	r4, r4, r3
 355 009e 05EA0305 		AND	r5, r5, r3
 356 00a2 641B     		SUBS	r4, r4, r5
 357 00a4 88BF     		IT	hi
 358 00a6 4246     		movhi	r2, r8
 359 00a8 38BF     		IT	lo
 360 00aa 1A46     		movlo	r2, r3
 361 00ac 18BF     		IT	ne
 362 00ae 3B46     		movne	r3, r7
 363 00b0 4468     		LDR	r4, [r0, #4]
 364 00b2 4D68     		LDR	r5, [r1, #4]
 365 00b4 04EA0304 		AND	r4, r4, r3
 366 00b8 05EA0305 		AND	r5, r5, r3
 367 00bc 641B     		SUBS	r4, r4, r5
 368 00be 88BF     		IT	hi
 369 00c0 4246     		movhi	r2, r8
 370 00c2 38BF     		IT	lo
 371 00c4 1A46     		movlo	r2, r3
 372 00c6 18BF     		IT	ne
 373 00c8 3B46     		movne	r3, r7
 374 00ca 0468     		LDR	r4, [r0]
 375 00cc 0D68     		LDR	r5, [r1]
 376 00ce 04EA0304 		AND	r4, r4, r3
 377 00d2 05EA0305 		AND	r5, r5, r3
 378 00d6 641B     		SUBS	r4, r4, r5
 379 00d8 88BF     		IT	hi
 380 00da 4246     		movhi	r2, r8
 381 00dc 38BF     		IT	lo
 382 00de 1A46     		movlo	r2, r3
 383 00e0 18BF     		IT	ne
 384 00e2 3B46     		movne	r3, r7
 385 00e4 82EA0302 		EOR	r2, r2, r3
 386 00e8 1046     		MOV	r0, r2
 387              		
 388              	@ 0 "" 2
 389              		.thumb
 390              		.syntax unified
 391 00ea BDE8F081 		pop	{r4, r5, r6, r7, r8, pc}
 393              		.section	.text.sp_256_cmp_equal_8,"ax",%progbits
 394              		.align	1
 395              		.syntax unified
 396              		.thumb
 397              		.thumb_func
 398              		.fpu fpv4-sp-d16
 400              	sp_256_cmp_equal_8:
 401              		@ args = 0, pretend = 0, frame = 0
 402              		@ frame_needed = 0, uses_anonymous_args = 0
 403 0000 0368     		ldr	r3, [r0]
 404 0002 0A68     		ldr	r2, [r1]
 405 0004 10B5     		push	{r4, lr}
 406 0006 5340     		eors	r3, r3, r2
 407 0008 4C68     		ldr	r4, [r1, #4]
 408 000a 4268     		ldr	r2, [r0, #4]
ARM GAS  /tmp/ccwGYw5D.s 			page 8


 409 000c 6240     		eors	r2, r2, r4
 410 000e 1343     		orrs	r3, r3, r2
 411 0010 8C68     		ldr	r4, [r1, #8]
 412 0012 8268     		ldr	r2, [r0, #8]
 413 0014 6240     		eors	r2, r2, r4
 414 0016 1343     		orrs	r3, r3, r2
 415 0018 CC68     		ldr	r4, [r1, #12]
 416 001a C268     		ldr	r2, [r0, #12]
 417 001c 6240     		eors	r2, r2, r4
 418 001e 1343     		orrs	r3, r3, r2
 419 0020 0C69     		ldr	r4, [r1, #16]
 420 0022 0269     		ldr	r2, [r0, #16]
 421 0024 6240     		eors	r2, r2, r4
 422 0026 1343     		orrs	r3, r3, r2
 423 0028 4C69     		ldr	r4, [r1, #20]
 424 002a 4269     		ldr	r2, [r0, #20]
 425 002c 6240     		eors	r2, r2, r4
 426 002e 1343     		orrs	r3, r3, r2
 427 0030 8C69     		ldr	r4, [r1, #24]
 428 0032 8269     		ldr	r2, [r0, #24]
 429 0034 C969     		ldr	r1, [r1, #28]
 430 0036 6240     		eors	r2, r2, r4
 431 0038 1343     		orrs	r3, r3, r2
 432 003a C269     		ldr	r2, [r0, #28]
 433 003c 4A40     		eors	r2, r2, r1
 434 003e 1343     		orrs	r3, r3, r2
 435 0040 0CBF     		ite	eq
 436 0042 0120     		moveq	r0, #1
 437 0044 0020     		movne	r0, #0
 438 0046 10BD     		pop	{r4, pc}
 440              		.section	.text.sp_256_iszero_8,"ax",%progbits
 441              		.align	1
 442              		.syntax unified
 443              		.thumb
 444              		.thumb_func
 445              		.fpu fpv4-sp-d16
 447              	sp_256_iszero_8:
 448              		@ args = 0, pretend = 0, frame = 0
 449              		@ frame_needed = 0, uses_anonymous_args = 0
 450              		@ link register save eliminated.
 451 0000 D0E90032 		ldrd	r3, r2, [r0]
 452 0004 1343     		orrs	r3, r3, r2
 453 0006 8268     		ldr	r2, [r0, #8]
 454 0008 1343     		orrs	r3, r3, r2
 455 000a C268     		ldr	r2, [r0, #12]
 456 000c 1343     		orrs	r3, r3, r2
 457 000e 0269     		ldr	r2, [r0, #16]
 458 0010 1343     		orrs	r3, r3, r2
 459 0012 4269     		ldr	r2, [r0, #20]
 460 0014 1343     		orrs	r3, r3, r2
 461 0016 8269     		ldr	r2, [r0, #24]
 462 0018 1343     		orrs	r3, r3, r2
 463 001a C269     		ldr	r2, [r0, #28]
 464 001c 1343     		orrs	r3, r3, r2
 465 001e 0CBF     		ite	eq
 466 0020 0120     		moveq	r0, #1
 467 0022 0020     		movne	r0, #0
ARM GAS  /tmp/ccwGYw5D.s 			page 9


 468 0024 7047     		bx	lr
 470              		.section	.text.sp_256_get_point_16_8,"ax",%progbits
 471              		.align	1
 472              		.syntax unified
 473              		.thumb
 474              		.thumb_func
 475              		.fpu fpv4-sp-d16
 477              	sp_256_get_point_16_8:
 478              		@ args = 0, pretend = 0, frame = 0
 479              		@ frame_needed = 0, uses_anonymous_args = 0
 480 0000 0023     		movs	r3, #0
 481 0002 70B5     		push	{r4, r5, r6, lr}
 482 0004 0124     		movs	r4, #1
 483 0006 C0E90033 		strd	r3, r3, [r0]
 484 000a C0E90233 		strd	r3, r3, [r0, #8]
 485 000e C0E90433 		strd	r3, r3, [r0, #16]
 486 0012 C0E90633 		strd	r3, r3, [r0, #24]
 487 0016 C0E91033 		strd	r3, r3, [r0, #64]
 488 001a C0E91233 		strd	r3, r3, [r0, #72]
 489 001e C0E91433 		strd	r3, r3, [r0, #80]
 490 0022 C0E91633 		strd	r3, r3, [r0, #88]
 491 0026 C0E92033 		strd	r3, r3, [r0, #128]
 492 002a C0E92233 		strd	r3, r3, [r0, #136]
 493 002e C0E92433 		strd	r3, r3, [r0, #144]
 494 0032 C0E92633 		strd	r3, r3, [r0, #152]
 495              	.L12:
 496 0036 A242     		cmp	r2, r4
 497 0038 4FF0FF33 		mov	r3, #-1
 498 003c 18BF     		it	ne
 499 003e 0023     		movne	r3, #0
 500 0040 D1F8C450 		ldr	r5, [r1, #196]
 501 0044 0134     		adds	r4, r4, #1
 502 0046 03EA0506 		and	r6, r3, r5
 503 004a 0568     		ldr	r5, [r0]
 504 004c 102C     		cmp	r4, #16
 505 004e 45EA0605 		orr	r5, r5, r6
 506 0052 0560     		str	r5, [r0]
 507 0054 D1F8C850 		ldr	r5, [r1, #200]
 508 0058 01F1C401 		add	r1, r1, #196
 509 005c 03EA0506 		and	r6, r3, r5
 510 0060 4568     		ldr	r5, [r0, #4]
 511 0062 45EA0605 		orr	r5, r5, r6
 512 0066 4560     		str	r5, [r0, #4]
 513 0068 8D68     		ldr	r5, [r1, #8]
 514 006a 03EA0506 		and	r6, r3, r5
 515 006e 8568     		ldr	r5, [r0, #8]
 516 0070 45EA0605 		orr	r5, r5, r6
 517 0074 8560     		str	r5, [r0, #8]
 518 0076 CD68     		ldr	r5, [r1, #12]
 519 0078 03EA0506 		and	r6, r3, r5
 520 007c C568     		ldr	r5, [r0, #12]
 521 007e 45EA0605 		orr	r5, r5, r6
 522 0082 C560     		str	r5, [r0, #12]
 523 0084 0D69     		ldr	r5, [r1, #16]
 524 0086 03EA0506 		and	r6, r3, r5
 525 008a 0569     		ldr	r5, [r0, #16]
 526 008c 45EA0605 		orr	r5, r5, r6
ARM GAS  /tmp/ccwGYw5D.s 			page 10


 527 0090 0561     		str	r5, [r0, #16]
 528 0092 4D69     		ldr	r5, [r1, #20]
 529 0094 03EA0506 		and	r6, r3, r5
 530 0098 4569     		ldr	r5, [r0, #20]
 531 009a 45EA0605 		orr	r5, r5, r6
 532 009e 4561     		str	r5, [r0, #20]
 533 00a0 8D69     		ldr	r5, [r1, #24]
 534 00a2 03EA0506 		and	r6, r3, r5
 535 00a6 8569     		ldr	r5, [r0, #24]
 536 00a8 45EA0605 		orr	r5, r5, r6
 537 00ac 8561     		str	r5, [r0, #24]
 538 00ae CD69     		ldr	r5, [r1, #28]
 539 00b0 03EA0506 		and	r6, r3, r5
 540 00b4 C569     		ldr	r5, [r0, #28]
 541 00b6 45EA0605 		orr	r5, r5, r6
 542 00ba C561     		str	r5, [r0, #28]
 543 00bc 0D6C     		ldr	r5, [r1, #64]
 544 00be 03EA0506 		and	r6, r3, r5
 545 00c2 056C     		ldr	r5, [r0, #64]
 546 00c4 45EA0605 		orr	r5, r5, r6
 547 00c8 0564     		str	r5, [r0, #64]
 548 00ca 4D6C     		ldr	r5, [r1, #68]
 549 00cc 03EA0506 		and	r6, r3, r5
 550 00d0 456C     		ldr	r5, [r0, #68]
 551 00d2 45EA0605 		orr	r5, r5, r6
 552 00d6 4564     		str	r5, [r0, #68]
 553 00d8 8D6C     		ldr	r5, [r1, #72]
 554 00da 03EA0506 		and	r6, r3, r5
 555 00de 856C     		ldr	r5, [r0, #72]
 556 00e0 45EA0605 		orr	r5, r5, r6
 557 00e4 8564     		str	r5, [r0, #72]
 558 00e6 CD6C     		ldr	r5, [r1, #76]
 559 00e8 03EA0506 		and	r6, r3, r5
 560 00ec C56C     		ldr	r5, [r0, #76]
 561 00ee 45EA0605 		orr	r5, r5, r6
 562 00f2 C564     		str	r5, [r0, #76]
 563 00f4 0D6D     		ldr	r5, [r1, #80]
 564 00f6 03EA0506 		and	r6, r3, r5
 565 00fa 056D     		ldr	r5, [r0, #80]
 566 00fc 45EA0605 		orr	r5, r5, r6
 567 0100 0565     		str	r5, [r0, #80]
 568 0102 4D6D     		ldr	r5, [r1, #84]
 569 0104 03EA0506 		and	r6, r3, r5
 570 0108 456D     		ldr	r5, [r0, #84]
 571 010a 45EA0605 		orr	r5, r5, r6
 572 010e 4565     		str	r5, [r0, #84]
 573 0110 8D6D     		ldr	r5, [r1, #88]
 574 0112 03EA0506 		and	r6, r3, r5
 575 0116 856D     		ldr	r5, [r0, #88]
 576 0118 45EA0605 		orr	r5, r5, r6
 577 011c 8565     		str	r5, [r0, #88]
 578 011e CD6D     		ldr	r5, [r1, #92]
 579 0120 03EA0506 		and	r6, r3, r5
 580 0124 C56D     		ldr	r5, [r0, #92]
 581 0126 45EA0605 		orr	r5, r5, r6
 582 012a C565     		str	r5, [r0, #92]
 583 012c D1F88050 		ldr	r5, [r1, #128]
ARM GAS  /tmp/ccwGYw5D.s 			page 11


 584 0130 03EA0506 		and	r6, r3, r5
 585 0134 D0F88050 		ldr	r5, [r0, #128]
 586 0138 45EA0605 		orr	r5, r5, r6
 587 013c C0F88050 		str	r5, [r0, #128]
 588 0140 D1F88450 		ldr	r5, [r1, #132]
 589 0144 03EA0506 		and	r6, r3, r5
 590 0148 D0F88450 		ldr	r5, [r0, #132]
 591 014c 45EA0605 		orr	r5, r5, r6
 592 0150 C0F88450 		str	r5, [r0, #132]
 593 0154 D1F88850 		ldr	r5, [r1, #136]
 594 0158 03EA0506 		and	r6, r3, r5
 595 015c D0F88850 		ldr	r5, [r0, #136]
 596 0160 45EA0605 		orr	r5, r5, r6
 597 0164 C0F88850 		str	r5, [r0, #136]
 598 0168 D1F88C50 		ldr	r5, [r1, #140]
 599 016c 03EA0506 		and	r6, r3, r5
 600 0170 D0F88C50 		ldr	r5, [r0, #140]
 601 0174 45EA0605 		orr	r5, r5, r6
 602 0178 C0F88C50 		str	r5, [r0, #140]
 603 017c D1F89050 		ldr	r5, [r1, #144]
 604 0180 03EA0506 		and	r6, r3, r5
 605 0184 D0F89050 		ldr	r5, [r0, #144]
 606 0188 45EA0605 		orr	r5, r5, r6
 607 018c C0F89050 		str	r5, [r0, #144]
 608 0190 D1F89450 		ldr	r5, [r1, #148]
 609 0194 03EA0506 		and	r6, r3, r5
 610 0198 D0F89450 		ldr	r5, [r0, #148]
 611 019c 45EA0605 		orr	r5, r5, r6
 612 01a0 C0F89450 		str	r5, [r0, #148]
 613 01a4 D1F89850 		ldr	r5, [r1, #152]
 614 01a8 03EA0506 		and	r6, r3, r5
 615 01ac D0F89850 		ldr	r5, [r0, #152]
 616 01b0 45EA0605 		orr	r5, r5, r6
 617 01b4 C0F89850 		str	r5, [r0, #152]
 618 01b8 D1F89C50 		ldr	r5, [r1, #156]
 619 01bc 03EA0503 		and	r3, r3, r5
 620 01c0 D0F89C50 		ldr	r5, [r0, #156]
 621 01c4 43EA0503 		orr	r3, r3, r5
 622 01c8 C0F89C30 		str	r3, [r0, #156]
 623 01cc 7FF433AF 		bne	.L12
 624 01d0 70BD     		pop	{r4, r5, r6, pc}
 626              		.section	.text.sp_256_add_one_8,"ax",%progbits
 627              		.align	1
 628              		.syntax unified
 629              		.thumb
 630              		.thumb_func
 631              		.fpu fpv4-sp-d16
 633              	sp_256_add_one_8:
 634              		@ args = 0, pretend = 0, frame = 0
 635              		@ frame_needed = 0, uses_anonymous_args = 0
 636 0000 10B5     		push	{r4, lr}
 637              		.syntax unified
 638              	@ 39276 "../wolfssl/wolfcrypt/src/sp_cortexm.c" 1
 639 0002 90E81E00 		LDM	r0, {r1, r2, r3, r4}
 640 0006 0131     		ADDS	r1, r1, #0x1
 641 0008 52F10002 		ADCS	r2, r2, #0x0
 642 000c 53F10003 		ADCS	r3, r3, #0x0
ARM GAS  /tmp/ccwGYw5D.s 			page 12


 643 0010 54F10004 		ADCS	r4, r4, #0x0
 644 0014 1EC0     		STM	r0!, {r1, r2, r3, r4}
 645 0016 90E81E00 		LDM	r0, {r1, r2, r3, r4}
 646 001a 51F10001 		ADCS	r1, r1, #0x0
 647 001e 52F10002 		ADCS	r2, r2, #0x0
 648 0022 53F10003 		ADCS	r3, r3, #0x0
 649 0026 54F10004 		ADCS	r4, r4, #0x0
 650 002a 1EC0     		STM	r0!, {r1, r2, r3, r4}
 651              		
 652              	@ 0 "" 2
 653              		.thumb
 654              		.syntax unified
 655 002c 10BD     		pop	{r4, pc}
 657              		.section	.text.sp_256_sub_in_place_8,"ax",%progbits
 658              		.align	1
 659              		.syntax unified
 660              		.thumb
 661              		.thumb_func
 662              		.fpu fpv4-sp-d16
 664              	sp_256_sub_in_place_8:
 665              		@ args = 0, pretend = 0, frame = 0
 666              		@ frame_needed = 0, uses_anonymous_args = 0
 667 0000 2DE9F043 		push	{r4, r5, r6, r7, r8, r9, lr}
 668              		.syntax unified
 669              	@ 39711 "../wolfssl/wolfcrypt/src/sp_cortexm.c" 1
 670 0004 90E83C00 		LDM	r0, {r2, r3, r4, r5}
 671 0008 B1E8C003 		LDM	r1!, {r6, r7, r8, r9}
 672 000c 921B     		SUBS	r2, r2, r6
 673 000e BB41     		SBCS	r3, r3, r7
 674 0010 74EB0804 		SBCS	r4, r4, r8
 675 0014 75EB0905 		SBCS	r5, r5, r9
 676 0018 3CC0     		STM	r0!, {r2, r3, r4, r5}
 677 001a 90E83C00 		LDM	r0, {r2, r3, r4, r5}
 678 001e B1E8C003 		LDM	r1!, {r6, r7, r8, r9}
 679 0022 B241     		SBCS	r2, r2, r6
 680 0024 BB41     		SBCS	r3, r3, r7
 681 0026 74EB0804 		SBCS	r4, r4, r8
 682 002a 75EB0905 		SBCS	r5, r5, r9
 683 002e 3CC0     		STM	r0!, {r2, r3, r4, r5}
 684 0030 69EB0900 		SBC	r0, r9, r9
 685              		
 686              	@ 0 "" 2
 687              		.thumb
 688              		.syntax unified
 689 0034 BDE8F083 		pop	{r4, r5, r6, r7, r8, r9, pc}
 691              		.section	.text.sp_256_mul_d_8,"ax",%progbits
 692              		.align	1
 693              		.syntax unified
 694              		.thumb
 695              		.thumb_func
 696              		.fpu fpv4-sp-d16
 698              	sp_256_mul_d_8:
 699              		@ args = 0, pretend = 0, frame = 0
 700              		@ frame_needed = 0, uses_anonymous_args = 0
 701 0000 2DE9F041 		push	{r4, r5, r6, r7, r8, lr}
 702              		.syntax unified
 703              	@ 39817 "../wolfssl/wolfcrypt/src/sp_cortexm.c" 1
ARM GAS  /tmp/ccwGYw5D.s 			page 13


 704 0004 51F8048B 		LDM	r1!, {r8}
 705 0008 A2FB0834 		UMULL	r3, r4, r2, r8
 706 000c 08C0     		STM	r0!, {r3}
 707 000e 4FF00005 		MOV	r5, #0x0
 708 0012 51F8048B 		LDM	r1!, {r8}
 709 0016 E2FB0845 		UMLAL	r4, r5, r2, r8
 710 001a 10C0     		STM	r0!, {r4}
 711 001c 4FF00003 		MOV	r3, #0x0
 712 0020 51F8048B 		LDM	r1!, {r8}
 713 0024 E2FB0853 		UMLAL	r5, r3, r2, r8
 714 0028 20C0     		STM	r0!, {r5}
 715 002a 4FF00004 		MOV	r4, #0x0
 716 002e 51F8048B 		LDM	r1!, {r8}
 717 0032 E2FB0834 		UMLAL	r3, r4, r2, r8
 718 0036 08C0     		STM	r0!, {r3}
 719 0038 4FF00005 		MOV	r5, #0x0
 720 003c 51F8048B 		LDM	r1!, {r8}
 721 0040 E2FB0845 		UMLAL	r4, r5, r2, r8
 722 0044 10C0     		STM	r0!, {r4}
 723 0046 4FF00003 		MOV	r3, #0x0
 724 004a 51F8048B 		LDM	r1!, {r8}
 725 004e E2FB0853 		UMLAL	r5, r3, r2, r8
 726 0052 20C0     		STM	r0!, {r5}
 727 0054 4FF00004 		MOV	r4, #0x0
 728 0058 51F8048B 		LDM	r1!, {r8}
 729 005c E2FB0834 		UMLAL	r3, r4, r2, r8
 730 0060 08C0     		STM	r0!, {r3}
 731 0062 4FF00005 		MOV	r5, #0x0
 732 0066 51F8048B 		LDM	r1!, {r8}
 733 006a E2FB0845 		UMLAL	r4, r5, r2, r8
 734 006e 10C0     		STM	r0!, {r4}
 735 0070 0560     		STR	r5, [r0]
 736              		
 737              	@ 0 "" 2
 738              		.thumb
 739              		.syntax unified
 740 0072 BDE8F081 		pop	{r4, r5, r6, r7, r8, pc}
 742              		.section	.text.div_256_word_8,"ax",%progbits
 743              		.align	1
 744              		.syntax unified
 745              		.thumb
 746              		.thumb_func
 747              		.fpu fpv4-sp-d16
 749              	div_256_word_8:
 750              		@ args = 0, pretend = 0, frame = 0
 751              		@ frame_needed = 0, uses_anonymous_args = 0
 752 0000 2DE9F047 		push	{r4, r5, r6, r7, r8, r9, r10, lr}
 753              		.syntax unified
 754              	@ 39956 "../wolfssl/wolfcrypt/src/sp_cortexm.c" 1
 755 0004 4FEA5205 		LSR	r5, r2, #1
 756 0008 05F10105 		ADD	r5, r5, #0x1
 757 000c 0E46     		MOV	r6, r1
 758 000e 0746     		MOV	r7, r0
 759 0010 B5EB0708 		SUBS	r8, r5, r7
 760 0014 68EB0808 		SBC	r8, r8, r8
 761 0018 4FF00003 		MOV	r3, #0x0
 762 001c A3EB0803 		SUB	r3, r3, r8
ARM GAS  /tmp/ccwGYw5D.s 			page 14


 763 0020 08EA0508 		AND	r8, r8, r5
 764 0024 B7EB0807 		SUBS	r7, r7, r8
 765 0028 4FF01D04 		MOV	r4, #0x1d
 766              		
 767              	L_div_256_word_8_bit_307:
 768 002c 7600     		LSLS	r6, r6, #1
 769 002e 47EB0707 		ADC	r7, r7, r7
 770 0032 B5EB0708 		SUBS	r8, r5, r7
 771 0036 68EB0808 		SBC	r8, r8, r8
 772 003a 1B44     		ADD	r3, r3, r3
 773 003c A3EB0803 		SUB	r3, r3, r8
 774 0040 08EA0508 		AND	r8, r8, r5
 775 0044 B7EB0807 		SUBS	r7, r7, r8
 776 0048 013C     		SUBS	r4, r4, #0x1
 777 004a EFD5     		BPL	L_div_256_word_8_bit_307
 778 004c 1B44     		ADD	r3, r3, r3
 779 004e 03F10103 		ADD	r3, r3, #0x1
 780 0052 A3FB0267 		UMULL	r6, r7, r3, r2
 781 0056 B1EB0609 		SUBS	r9, r1, r6
 782 005a 60EB070A 		SBC	r10, r0, r7
 783 005e 5344     		ADD	r3, r3, r10
 784 0060 A3FB0267 		UMULL	r6, r7, r3, r2
 785 0064 B1EB0609 		SUBS	r9, r1, r6
 786 0068 60EB070A 		SBC	r10, r0, r7
 787 006c 5344     		ADD	r3, r3, r10
 788 006e A3FB0267 		UMULL	r6, r7, r3, r2
 789 0072 B1EB0609 		SUBS	r9, r1, r6
 790 0076 60EB070A 		SBC	r10, r0, r7
 791 007a 5344     		ADD	r3, r3, r10
 792 007c B2EB0908 		SUBS	r8, r2, r9
 793 0080 68EB0808 		SBC	r8, r8, r8
 794 0084 A3EB0800 		SUB	r0, r3, r8
 795              		
 796              	@ 0 "" 2
 797              		.thumb
 798              		.syntax unified
 799 0088 BDE8F087 		pop	{r4, r5, r6, r7, r8, r9, r10, pc}
 801              		.section	.text.sp_256_sub_8,"ax",%progbits
 802              		.align	1
 803              		.syntax unified
 804              		.thumb
 805              		.thumb_func
 806              		.fpu fpv4-sp-d16
 808              	sp_256_sub_8:
 809              		@ args = 0, pretend = 0, frame = 0
 810              		@ frame_needed = 0, uses_anonymous_args = 0
 811 0000 2DE9F047 		push	{r4, r5, r6, r7, r8, r9, r10, lr}
 812              		.syntax unified
 813              	@ 40705 "../wolfssl/wolfcrypt/src/sp_cortexm.c" 1
 814 0004 78C9     		LDM	r1!, {r3, r4, r5, r6}
 815 0006 B2E88007 		LDM	r2!, {r7, r8, r9, r10}
 816 000a DB1B     		SUBS	r3, r3, r7
 817 000c 74EB0804 		SBCS	r4, r4, r8
 818 0010 75EB0905 		SBCS	r5, r5, r9
 819 0014 76EB0A06 		SBCS	r6, r6, r10
 820 0018 78C0     		STM	r0!, {r3, r4, r5, r6}
 821 001a 78C9     		LDM	r1!, {r3, r4, r5, r6}
ARM GAS  /tmp/ccwGYw5D.s 			page 15


 822 001c B2E88007 		LDM	r2!, {r7, r8, r9, r10}
 823 0020 BB41     		SBCS	r3, r3, r7
 824 0022 74EB0804 		SBCS	r4, r4, r8
 825 0026 75EB0905 		SBCS	r5, r5, r9
 826 002a 76EB0A06 		SBCS	r6, r6, r10
 827 002e 78C0     		STM	r0!, {r3, r4, r5, r6}
 828 0030 66EB0600 		SBC	r0, r6, r6
 829              		
 830              	@ 0 "" 2
 831              		.thumb
 832              		.syntax unified
 833 0034 BDE8F087 		pop	{r4, r5, r6, r7, r8, r9, r10, pc}
 835              		.section	.text.sp_256_rshift1_8,"ax",%progbits
 836              		.align	1
 837              		.syntax unified
 838              		.thumb
 839              		.thumb_func
 840              		.fpu fpv4-sp-d16
 842              	sp_256_rshift1_8:
 843              		@ args = 0, pretend = 0, frame = 0
 844              		@ frame_needed = 0, uses_anonymous_args = 0
 845 0000 2DE9F04F 		push	{r4, r5, r6, r7, r8, r9, r10, fp, lr}
 846              		.syntax unified
 847              	@ 40742 "../wolfssl/wolfcrypt/src/sp_cortexm.c" 1
 848 0004 4FF0000A 		MOV	r10, #0x0
 849 0008 D1E90423 		LDRD	r2, r3, [r1, #16]
 850 000c D1E90645 		LDRD	r4, r5, [r1, #24]
 851 0010 4FEA5206 		LSR	r6, r2, #1
 852 0014 4FEA5307 		LSR	r7, r3, #1
 853 0018 4FEA5408 		LSR	r8, r4, #1
 854 001c 4FEA5509 		LSR	r9, r5, #1
 855 0020 46EAC376 		ORR	r6, r6, r3, lsl #31
 856 0024 47EAC477 		ORR	r7, r7, r4, lsl #31
 857 0028 48EAC578 		ORR	r8, r8, r5, lsl #31
 858 002c 49EACA79 		ORR	r9, r9, r10, lsl #31
 859 0030 9246     		MOV	r10, r2
 860 0032 C0E90467 		STRD	r6, r7, [r0, #16]
 861 0036 C0E90689 		STRD	r8, r9, [r0, #24]
 862 003a D1E90023 		LDRD	r2, r3, [r1]
 863 003e D1E90245 		LDRD	r4, r5, [r1, #8]
 864 0042 4FEA5206 		LSR	r6, r2, #1
 865 0046 4FEA5307 		LSR	r7, r3, #1
 866 004a 4FEA5408 		LSR	r8, r4, #1
 867 004e 4FEA5509 		LSR	r9, r5, #1
 868 0052 46EAC376 		ORR	r6, r6, r3, lsl #31
 869 0056 47EAC477 		ORR	r7, r7, r4, lsl #31
 870 005a 48EAC578 		ORR	r8, r8, r5, lsl #31
 871 005e 49EACA79 		ORR	r9, r9, r10, lsl #31
 872 0062 C0E90067 		STRD	r6, r7, [r0]
 873 0066 C0E90289 		STRD	r8, r9, [r0, #8]
 874              		
 875              	@ 0 "" 2
 876              		.thumb
 877              		.syntax unified
 878 006a BDE8F08F 		pop	{r4, r5, r6, r7, r8, r9, r10, fp, pc}
 880              		.section	.text.sp_256_num_bits_8,"ax",%progbits
 881              		.align	1
ARM GAS  /tmp/ccwGYw5D.s 			page 16


 882              		.syntax unified
 883              		.thumb
 884              		.thumb_func
 885              		.fpu fpv4-sp-d16
 887              	sp_256_num_bits_8:
 888              		@ args = 0, pretend = 0, frame = 0
 889              		@ frame_needed = 0, uses_anonymous_args = 0
 890 0000 30B5     		push	{r4, r5, lr}
 891              		.syntax unified
 892              	@ 40881 "../wolfssl/wolfcrypt/src/sp_cortexm.c" 1
 893 0002 C169     		LDR	r1, [r0, #28]
 894 0004 0029     		CMP	r1, #0x0
 895 0006 06D0     		BEQ	L_sp_256_num_bits_8_7_339
 896 0008 4FF48072 		MOV	r2, #0x100
 897 000c B1FA81F4 		CLZ	r4, r1
 898 0010 A2EB0404 		SUB	r4, r2, r4
 899 0014 42E0     		B	L_sp_256_num_bits_8_9_339
 900              		
 901              	L_sp_256_num_bits_8_7_339:
 902 0016 8169     		LDR	r1, [r0, #24]
 903 0018 0029     		CMP	r1, #0x0
 904 001a 06D0     		BEQ	L_sp_256_num_bits_8_6_339
 905 001c 4FF0E002 		MOV	r2, #0xe0
 906 0020 B1FA81F4 		CLZ	r4, r1
 907 0024 A2EB0404 		SUB	r4, r2, r4
 908 0028 38E0     		B	L_sp_256_num_bits_8_9_339
 909              		
 910              	L_sp_256_num_bits_8_6_339:
 911 002a 4169     		LDR	r1, [r0, #20]
 912 002c 0029     		CMP	r1, #0x0
 913 002e 06D0     		BEQ	L_sp_256_num_bits_8_5_339
 914 0030 4FF0C002 		MOV	r2, #0xc0
 915 0034 B1FA81F4 		CLZ	r4, r1
 916 0038 A2EB0404 		SUB	r4, r2, r4
 917 003c 2EE0     		B	L_sp_256_num_bits_8_9_339
 918              		
 919              	L_sp_256_num_bits_8_5_339:
 920 003e 0169     		LDR	r1, [r0, #16]
 921 0040 0029     		CMP	r1, #0x0
 922 0042 06D0     		BEQ	L_sp_256_num_bits_8_4_339
 923 0044 4FF0A002 		MOV	r2, #0xa0
 924 0048 B1FA81F4 		CLZ	r4, r1
 925 004c A2EB0404 		SUB	r4, r2, r4
 926 0050 24E0     		B	L_sp_256_num_bits_8_9_339
 927              		
 928              	L_sp_256_num_bits_8_4_339:
 929 0052 C168     		LDR	r1, [r0, #12]
 930 0054 0029     		CMP	r1, #0x0
 931 0056 06D0     		BEQ	L_sp_256_num_bits_8_3_339
 932 0058 4FF08002 		MOV	r2, #0x80
 933 005c B1FA81F4 		CLZ	r4, r1
 934 0060 A2EB0404 		SUB	r4, r2, r4
 935 0064 1AE0     		B	L_sp_256_num_bits_8_9_339
 936              		
 937              	L_sp_256_num_bits_8_3_339:
 938 0066 8168     		LDR	r1, [r0, #8]
 939 0068 0029     		CMP	r1, #0x0
ARM GAS  /tmp/ccwGYw5D.s 			page 17


 940 006a 06D0     		BEQ	L_sp_256_num_bits_8_2_339
 941 006c 4FF06002 		MOV	r2, #0x60
 942 0070 B1FA81F4 		CLZ	r4, r1
 943 0074 A2EB0404 		SUB	r4, r2, r4
 944 0078 10E0     		B	L_sp_256_num_bits_8_9_339
 945              		
 946              	L_sp_256_num_bits_8_2_339:
 947 007a 4168     		LDR	r1, [r0, #4]
 948 007c 0029     		CMP	r1, #0x0
 949 007e 06D0     		BEQ	L_sp_256_num_bits_8_1_339
 950 0080 4FF04002 		MOV	r2, #0x40
 951 0084 B1FA81F4 		CLZ	r4, r1
 952 0088 A2EB0404 		SUB	r4, r2, r4
 953 008c 06E0     		B	L_sp_256_num_bits_8_9_339
 954              		
 955              	L_sp_256_num_bits_8_1_339:
 956 008e 0168     		LDR	r1, [r0]
 957 0090 4FF02002 		MOV	r2, #0x20
 958 0094 B1FA81F4 		CLZ	r4, r1
 959 0098 A2EB0404 		SUB	r4, r2, r4
 960              		
 961              	L_sp_256_num_bits_8_9_339:
 962 009c 2046     		MOV	r0, r4
 963              		
 964              	@ 0 "" 2
 965              		.thumb
 966              		.syntax unified
 967 009e 30BD     		pop	{r4, r5, pc}
 969              		.section	.text.ForceZero,"ax",%progbits
 970              		.align	1
 971              		.syntax unified
 972              		.thumb
 973              		.thumb_func
 974              		.fpu fpv4-sp-d16
 976              	ForceZero:
 977              		@ args = 0, pretend = 0, frame = 8
 978              		@ frame_needed = 0, uses_anonymous_args = 0
 979 0000 73B5     		push	{r0, r1, r4, r5, r6, lr}
 980 0002 0346     		mov	r3, r0
 981 0004 0C46     		mov	r4, r1
 982 0006 BFF35B8F 		dmb	ish
 983 000a 0022     		movs	r2, #0
 984              	.L29:
 985 000c 13F00301 		ands	r1, r3, #3
 986 0010 13D1     		bne	.L31
 987 0012 24F00305 		bic	r5, r4, #3
 988 0016 2A46     		mov	r2, r5
 989 0018 1846     		mov	r0, r3
 990 001a 0191     		str	r1, [sp, #4]
 991 001c FFF7FEFF 		bl	memset
 992 0020 6FF00302 		mvn	r2, #3
 993 0024 A608     		lsrs	r6, r4, #2
 994 0026 02FB0642 		mla	r2, r2, r6, r4
 995 002a 0199     		ldr	r1, [sp, #4]
 996 002c 2844     		add	r0, r0, r5
 997 002e FFF7FEFF 		bl	memset
 998 0032 BFF35B8F 		dmb	ish
ARM GAS  /tmp/ccwGYw5D.s 			page 18


 999              	.L28:
 1000 0036 02B0     		add	sp, sp, #8
 1001              		@ sp needed
 1002 0038 70BD     		pop	{r4, r5, r6, pc}
 1003              	.L31:
 1004 003a 002C     		cmp	r4, #0
 1005 003c FBD0     		beq	.L28
 1006 003e 03F8012B 		strb	r2, [r3], #1
 1007 0042 013C     		subs	r4, r4, #1
 1008 0044 E2E7     		b	.L29
 1010              		.section	.text.sp_256_to_mp,"ax",%progbits
 1011              		.align	1
 1012              		.syntax unified
 1013              		.thumb
 1014              		.thumb_func
 1015              		.fpu fpv4-sp-d16
 1017              	sp_256_to_mp:
 1018              		@ args = 0, pretend = 0, frame = 0
 1019              		@ frame_needed = 0, uses_anonymous_args = 0
 1020 0000 38B5     		push	{r3, r4, r5, lr}
 1021 0002 0D46     		mov	r5, r1
 1022 0004 0446     		mov	r4, r0
 1023 0006 0821     		movs	r1, #8
 1024 0008 2846     		mov	r0, r5
 1025 000a FFF7FEFF 		bl	sp_grow
 1026 000e 98B9     		cbnz	r0, .L36
 1027 0010 2346     		mov	r3, r4
 1028 0012 2A1D     		adds	r2, r5, #4
 1029 0014 04F12001 		add	r1, r4, #32
 1030              	.L38:
 1031 0018 53F8044B 		ldr	r4, [r3], #4	@ unaligned
 1032 001c 8B42     		cmp	r3, r1
 1033 001e 42F8044B 		str	r4, [r2], #4	@ unaligned
 1034 0022 F9D1     		bne	.L38
 1035 0024 0723     		movs	r3, #7
 1036 0026 05F12002 		add	r2, r5, #32
 1037              	.L40:
 1038 002a 52F80419 		ldr	r1, [r2], #-4
 1039 002e 09B9     		cbnz	r1, .L39
 1040 0030 013B     		subs	r3, r3, #1
 1041 0032 FAD2     		bcs	.L40
 1042              	.L39:
 1043 0034 0133     		adds	r3, r3, #1
 1044 0036 2B80     		strh	r3, [r5]	@ movhi
 1045              	.L36:
 1046 0038 38BD     		pop	{r3, r4, r5, pc}
 1048              		.section	.text.sp_256_point_to_ecc_point_8,"ax",%progbits
 1049              		.align	1
 1050              		.syntax unified
 1051              		.thumb
 1052              		.thumb_func
 1053              		.fpu fpv4-sp-d16
 1055              	sp_256_point_to_ecc_point_8:
 1056              		@ args = 0, pretend = 0, frame = 0
 1057              		@ frame_needed = 0, uses_anonymous_args = 0
 1058 0000 38B5     		push	{r3, r4, r5, lr}
 1059 0002 0446     		mov	r4, r0
ARM GAS  /tmp/ccwGYw5D.s 			page 19


 1060 0004 0D46     		mov	r5, r1
 1061 0006 FFF7FEFF 		bl	sp_256_to_mp
 1062 000a 70B9     		cbnz	r0, .L43
 1063 000c 05F19001 		add	r1, r5, #144
 1064 0010 04F14000 		add	r0, r4, #64
 1065 0014 FFF7FEFF 		bl	sp_256_to_mp
 1066 0018 38B9     		cbnz	r0, .L43
 1067 001a 05F59071 		add	r1, r5, #288
 1068 001e 04F18000 		add	r0, r4, #128
 1069 0022 BDE83840 		pop	{r3, r4, r5, lr}
 1070 0026 FFF7FEBF 		b	sp_256_to_mp
 1071              	.L43:
 1072 002a 38BD     		pop	{r3, r4, r5, pc}
 1074              		.section	.text.sp_256_div2_mod_8.constprop.0,"ax",%progbits
 1075              		.align	1
 1076              		.syntax unified
 1077              		.thumb
 1078              		.thumb_func
 1079              		.fpu fpv4-sp-d16
 1081              	sp_256_div2_mod_8.constprop.0:
 1082              		@ args = 0, pretend = 0, frame = 0
 1083              		@ frame_needed = 0, uses_anonymous_args = 0
 1084 0000 2DE9F04F 		push	{r4, r5, r6, r7, r8, r9, r10, fp, lr}
 1085 0004 294A     		ldr	r2, .L47
 1086              		.syntax unified
 1087              	@ 40796 "../wolfssl/wolfcrypt/src/sp_cortexm.c" 1
 1088 0006 4FF0000C 		MOV	r12, #0x0
 1089 000a 10C9     		LDM	r1!, {r4}
 1090 000c 14F00103 		ANDS	r3, r4, #0x1
 1091 0010 1AD0     		BEQ	L_sp_256_div2_mod_8_even_479
 1092 0012 E0C9     		LDM	r1!, {r5, r6, r7}
 1093 0014 B2E8000F 		LDM	r2!, {r8, r9, r10, r11}
 1094 0018 14EB0804 		ADDS	r4, r4, r8
 1095 001c 55EB0905 		ADCS	r5, r5, r9
 1096 0020 56EB0A06 		ADCS	r6, r6, r10
 1097 0024 57EB0B07 		ADCS	r7, r7, r11
 1098 0028 80E8F000 		STM	r0, {r4, r5, r6, r7}
 1099 002c F0C9     		LDM	r1!, {r4, r5, r6, r7}
 1100 002e B2E8000F 		LDM	r2!, {r8, r9, r10, r11}
 1101 0032 54EB0804 		ADCS	r4, r4, r8
 1102 0036 55EB0905 		ADCS	r5, r5, r9
 1103 003a 56EB0A06 		ADCS	r6, r6, r10
 1104 003e 57EB0B07 		ADCS	r7, r7, r11
 1105 0042 4CEB0C03 		ADC	r3, r12, r12
 1106 0046 03E0     		B	L_sp_256_div2_mod_8_div2_479
 1107              		
 1108              	L_sp_256_div2_mod_8_even_479:
 1109 0048 D1E90345 		LDRD	r4, r5, [r1, #12]
 1110 004c D1E90567 		LDRD	r6, r7, [r1, #20]
 1111              		
 1112              	L_sp_256_div2_mod_8_div2_479:
 1113 0050 4FEA5408 		LSR	r8, r4, #1
 1114 0054 04F00104 		AND	r4, r4, #0x1
 1115 0058 4FEA5509 		LSR	r9, r5, #1
 1116 005c 4FEA560A 		LSR	r10, r6, #1
 1117 0060 4FEA570B 		LSR	r11, r7, #1
 1118 0064 48EAC578 		ORR	r8, r8, r5, lsl #31
ARM GAS  /tmp/ccwGYw5D.s 			page 20


 1119 0068 49EAC679 		ORR	r9, r9, r6, lsl #31
 1120 006c 4AEAC77A 		ORR	r10, r10, r7, lsl #31
 1121 0070 4BEAC37B 		ORR	r11, r11, r3, lsl #31
 1122 0074 2346     		MOV	r3, r4
 1123 0076 C0E90489 		STRD	r8, r9, [r0, #16]
 1124 007a C0E906AB 		STRD	r10, r11, [r0, #24]
 1125 007e 90E8F000 		LDM	r0, {r4, r5, r6, r7}
 1126 0082 4FEA5408 		LSR	r8, r4, #1
 1127 0086 4FEA5509 		LSR	r9, r5, #1
 1128 008a 4FEA560A 		LSR	r10, r6, #1
 1129 008e 4FEA570B 		LSR	r11, r7, #1
 1130 0092 48EAC578 		ORR	r8, r8, r5, lsl #31
 1131 0096 49EAC679 		ORR	r9, r9, r6, lsl #31
 1132 009a 4AEAC77A 		ORR	r10, r10, r7, lsl #31
 1133 009e 4BEAC37B 		ORR	r11, r11, r3, lsl #31
 1134 00a2 80E8000F 		STM	r0, {r8, r9, r10, r11}
 1135              		
 1136              	@ 0 "" 2
 1137              		.thumb
 1138              		.syntax unified
 1139 00a6 BDE8F08F 		pop	{r4, r5, r6, r7, r8, r9, r10, fp, pc}
 1140              	.L48:
 1141 00aa 00BF     		.align	2
 1142              	.L47:
 1143 00ac 00000000 		.word	.LANCHOR0
 1145              		.section	.text.sp_256_from_bin.constprop.0,"ax",%progbits
 1146              		.align	1
 1147              		.syntax unified
 1148              		.thumb
 1149              		.thumb_func
 1150              		.fpu fpv4-sp-d16
 1152              	sp_256_from_bin.constprop.0:
 1153              		@ args = 0, pretend = 0, frame = 0
 1154              		@ frame_needed = 0, uses_anonymous_args = 0
 1155              		@ link register save eliminated.
 1156 0000 0023     		movs	r3, #0
 1157 0002 70B4     		push	{r4, r5, r6}
 1158 0004 551E     		subs	r5, r2, #1
 1159 0006 0A44     		add	r2, r2, r1
 1160              	.L50:
 1161 0008 022D     		cmp	r5, #2
 1162 000a 23DC     		bgt	.L51
 1163 000c 002D     		cmp	r5, #0
 1164 000e 13DB     		blt	.L52
 1165 0010 0026     		movs	r6, #0
 1166 0012 012D     		cmp	r5, #1
 1167 0014 4FEA8304 		lsl	r4, r3, #2
 1168 0018 00EB8302 		add	r2, r0, r3, lsl #2
 1169 001c 40F82360 		str	r6, [r0, r3, lsl #2]
 1170 0020 03D0     		beq	.L53
 1171 0022 022D     		cmp	r5, #2
 1172 0024 05D1     		bne	.L54
 1173 0026 8E78     		ldrb	r6, [r1, #2]	@ zero_extendqisi2
 1174 0028 0655     		strb	r6, [r0, r4]
 1175              	.L53:
 1176 002a 4E78     		ldrb	r6, [r1, #1]	@ zero_extendqisi2
 1177 002c 5419     		adds	r4, r2, r5
ARM GAS  /tmp/ccwGYw5D.s 			page 21


 1178 002e 04F8016C 		strb	r6, [r4, #-1]
 1179              	.L54:
 1180 0032 0978     		ldrb	r1, [r1]	@ zero_extendqisi2
 1181 0034 0133     		adds	r3, r3, #1
 1182 0036 5155     		strb	r1, [r2, r5]
 1183              	.L52:
 1184 0038 C3F10802 		rsb	r2, r3, #8
 1185 003c 082B     		cmp	r3, #8
 1186 003e 4FEA8202 		lsl	r2, r2, #2
 1187 0042 4FF00001 		mov	r1, #0
 1188 0046 70BC     		pop	{r4, r5, r6}
 1189 0048 C8BF     		it	gt
 1190 004a 0022     		movgt	r2, #0
 1191 004c 00EB8300 		add	r0, r0, r3, lsl #2
 1192 0050 FFF7FEBF 		b	memset
 1193              	.L51:
 1194 0054 12F8034C 		ldrb	r4, [r2, #-3]	@ zero_extendqisi2
 1195 0058 12F8026C 		ldrb	r6, [r2, #-2]	@ zero_extendqisi2
 1196 005c 2404     		lsls	r4, r4, #16
 1197 005e 44EA0624 		orr	r4, r4, r6, lsl #8
 1198 0062 12F8016C 		ldrb	r6, [r2, #-1]	@ zero_extendqisi2
 1199 0066 043D     		subs	r5, r5, #4
 1200 0068 3443     		orrs	r4, r4, r6
 1201 006a 12F8046D 		ldrb	r6, [r2, #-4]!	@ zero_extendqisi2
 1202 006e 44EA0664 		orr	r4, r4, r6, lsl #24
 1203 0072 40F82340 		str	r4, [r0, r3, lsl #2]
 1204 0076 0133     		adds	r3, r3, #1
 1205 0078 C6E7     		b	.L50
 1207              		.section	.text.sp_256_ecc_gen_k_8,"ax",%progbits
 1208              		.align	1
 1209              		.syntax unified
 1210              		.thumb
 1211              		.thumb_func
 1212              		.fpu fpv4-sp-d16
 1214              	sp_256_ecc_gen_k_8:
 1215              		@ args = 0, pretend = 0, frame = 32
 1216              		@ frame_needed = 0, uses_anonymous_args = 0
 1217 0000 F0B5     		push	{r4, r5, r6, r7, lr}
 1218 0002 0646     		mov	r6, r0
 1219 0004 0C46     		mov	r4, r1
 1220 0006 0D4F     		ldr	r7, .L62
 1221 0008 89B0     		sub	sp, sp, #36
 1222              	.L60:
 1223 000a 2022     		movs	r2, #32
 1224 000c 6946     		mov	r1, sp
 1225 000e 3046     		mov	r0, r6
 1226 0010 FFF7FEFF 		bl	wc_RNG_GenerateBlock
 1227 0014 0546     		mov	r5, r0
 1228 0016 68B9     		cbnz	r0, .L58
 1229 0018 2022     		movs	r2, #32
 1230 001a 6946     		mov	r1, sp
 1231 001c 2046     		mov	r0, r4
 1232 001e FFF7FEFF 		bl	sp_256_from_bin.constprop.0
 1233 0022 3946     		mov	r1, r7
 1234 0024 2046     		mov	r0, r4
 1235 0026 FFF7FEFF 		bl	sp_256_cmp_8
 1236 002a 0028     		cmp	r0, #0
ARM GAS  /tmp/ccwGYw5D.s 			page 22


 1237 002c EDDC     		bgt	.L60
 1238 002e 2046     		mov	r0, r4
 1239 0030 FFF7FEFF 		bl	sp_256_add_one_8
 1240              	.L58:
 1241 0034 2846     		mov	r0, r5
 1242 0036 09B0     		add	sp, sp, #36
 1243              		@ sp needed
 1244 0038 F0BD     		pop	{r4, r5, r6, r7, pc}
 1245              	.L63:
 1246 003a 00BF     		.align	2
 1247              	.L62:
 1248 003c 00000000 		.word	.LANCHOR1
 1250              		.section	.text.sp_256_get_entry_256_8.constprop.0,"ax",%progbits
 1251              		.align	1
 1252              		.syntax unified
 1253              		.thumb
 1254              		.thumb_func
 1255              		.fpu fpv4-sp-d16
 1257              	sp_256_get_entry_256_8.constprop.0:
 1258              		@ args = 0, pretend = 0, frame = 40
 1259              		@ frame_needed = 0, uses_anonymous_args = 0
 1260 0000 0023     		movs	r3, #0
 1261 0002 2DE9F04F 		push	{r4, r5, r6, r7, r8, r9, r10, fp, lr}
 1262 0006 9C46     		mov	ip, r3
 1263 0008 1E46     		mov	r6, r3
 1264 000a 9E46     		mov	lr, r3
 1265 000c 9846     		mov	r8, r3
 1266 000e 9946     		mov	r9, r3
 1267 0010 9A46     		mov	r10, r3
 1268 0012 9B46     		mov	fp, r3
 1269 0014 0124     		movs	r4, #1
 1270 0016 8BB0     		sub	sp, sp, #44
 1271 0018 C0E90033 		strd	r3, r3, [r0]
 1272 001c C0E90233 		strd	r3, r3, [r0, #8]
 1273 0020 C0E90433 		strd	r3, r3, [r0, #16]
 1274 0024 C0E90633 		strd	r3, r3, [r0, #24]
 1275 0028 C0E91033 		strd	r3, r3, [r0, #64]
 1276 002c C0E91233 		strd	r3, r3, [r0, #72]
 1277 0030 C0E91433 		strd	r3, r3, [r0, #80]
 1278 0034 C0E91633 		strd	r3, r3, [r0, #88]
 1279 0038 CDE90633 		strd	r3, r3, [sp, #24]
 1280 003c CDE90433 		strd	r3, r3, [sp, #16]
 1281 0040 CDE90133 		strd	r3, r3, [sp, #4]
 1282 0044 3C4A     		ldr	r2, .L67
 1283 0046 0991     		str	r1, [sp, #36]
 1284 0048 0893     		str	r3, [sp, #32]
 1285 004a 0393     		str	r3, [sp, #12]
 1286              	.L65:
 1287 004c 0999     		ldr	r1, [sp, #36]
 1288 004e 176C     		ldr	r7, [r2, #64]
 1289 0050 A142     		cmp	r1, r4
 1290 0052 4FF0FF31 		mov	r1, #-1
 1291 0056 18BF     		it	ne
 1292 0058 0021     		movne	r1, #0
 1293 005a 029D     		ldr	r5, [sp, #8]
 1294 005c 0F40     		ands	r7, r7, r1
 1295 005e 3D43     		orrs	r5, r5, r7
ARM GAS  /tmp/ccwGYw5D.s 			page 23


 1296 0060 576C     		ldr	r7, [r2, #68]
 1297 0062 0295     		str	r5, [sp, #8]
 1298 0064 019D     		ldr	r5, [sp, #4]
 1299 0066 0F40     		ands	r7, r7, r1
 1300 0068 3D43     		orrs	r5, r5, r7
 1301 006a 976C     		ldr	r7, [r2, #72]
 1302 006c 0195     		str	r5, [sp, #4]
 1303 006e 039D     		ldr	r5, [sp, #12]
 1304 0070 0F40     		ands	r7, r7, r1
 1305 0072 3D43     		orrs	r5, r5, r7
 1306 0074 D76C     		ldr	r7, [r2, #76]
 1307 0076 0395     		str	r5, [sp, #12]
 1308 0078 049D     		ldr	r5, [sp, #16]
 1309 007a 0F40     		ands	r7, r7, r1
 1310 007c 3D43     		orrs	r5, r5, r7
 1311 007e 176D     		ldr	r7, [r2, #80]
 1312 0080 0495     		str	r5, [sp, #16]
 1313 0082 059D     		ldr	r5, [sp, #20]
 1314 0084 0F40     		ands	r7, r7, r1
 1315 0086 3D43     		orrs	r5, r5, r7
 1316 0088 576D     		ldr	r7, [r2, #84]
 1317 008a 0595     		str	r5, [sp, #20]
 1318 008c 069D     		ldr	r5, [sp, #24]
 1319 008e 0F40     		ands	r7, r7, r1
 1320 0090 3D43     		orrs	r5, r5, r7
 1321 0092 976D     		ldr	r7, [r2, #88]
 1322 0094 0695     		str	r5, [sp, #24]
 1323 0096 079D     		ldr	r5, [sp, #28]
 1324 0098 0F40     		ands	r7, r7, r1
 1325 009a 3D43     		orrs	r5, r5, r7
 1326 009c D76D     		ldr	r7, [r2, #92]
 1327 009e 0795     		str	r5, [sp, #28]
 1328 00a0 0F40     		ands	r7, r7, r1
 1329 00a2 4BEA070B 		orr	fp, fp, r7
 1330 00a6 176E     		ldr	r7, [r2, #96]
 1331 00a8 089D     		ldr	r5, [sp, #32]
 1332 00aa 0F40     		ands	r7, r7, r1
 1333 00ac 4AEA070A 		orr	r10, r10, r7
 1334 00b0 576E     		ldr	r7, [r2, #100]
 1335 00b2 0134     		adds	r4, r4, #1
 1336 00b4 0F40     		ands	r7, r7, r1
 1337 00b6 49EA0709 		orr	r9, r9, r7
 1338 00ba 976E     		ldr	r7, [r2, #104]
 1339 00bc B4F5807F 		cmp	r4, #256
 1340 00c0 07EA0107 		and	r7, r7, r1
 1341 00c4 48EA0708 		orr	r8, r8, r7
 1342 00c8 D76E     		ldr	r7, [r2, #108]
 1343 00ca 02F14002 		add	r2, r2, #64
 1344 00ce 07EA0107 		and	r7, r7, r1
 1345 00d2 4EEA070E 		orr	lr, lr, r7
 1346 00d6 176B     		ldr	r7, [r2, #48]
 1347 00d8 07EA0107 		and	r7, r7, r1
 1348 00dc 4CEA070C 		orr	ip, ip, r7
 1349 00e0 576B     		ldr	r7, [r2, #52]
 1350 00e2 07EA0107 		and	r7, r7, r1
 1351 00e6 46EA0706 		orr	r6, r6, r7
 1352 00ea 976B     		ldr	r7, [r2, #56]
ARM GAS  /tmp/ccwGYw5D.s 			page 24


 1353 00ec 07EA0107 		and	r7, r7, r1
 1354 00f0 45EA0705 		orr	r5, r5, r7
 1355 00f4 0895     		str	r5, [sp, #32]
 1356 00f6 D76B     		ldr	r7, [r2, #60]
 1357 00f8 01EA0701 		and	r1, r1, r7
 1358 00fc 43EA0103 		orr	r3, r3, r1
 1359 0100 A4D1     		bne	.L65
 1360 0102 029A     		ldr	r2, [sp, #8]
 1361 0104 C0E910A9 		strd	r10, r9, [r0, #64]
 1362 0108 0260     		str	r2, [r0]
 1363 010a 019A     		ldr	r2, [sp, #4]
 1364 010c C0E9128E 		strd	r8, lr, [r0, #72]
 1365 0110 4260     		str	r2, [r0, #4]
 1366 0112 039A     		ldr	r2, [sp, #12]
 1367 0114 C0E914C6 		strd	ip, r6, [r0, #80]
 1368 0118 8260     		str	r2, [r0, #8]
 1369 011a 049A     		ldr	r2, [sp, #16]
 1370 011c C0E91653 		strd	r5, r3, [r0, #88]
 1371 0120 C260     		str	r2, [r0, #12]
 1372 0122 059A     		ldr	r2, [sp, #20]
 1373 0124 0261     		str	r2, [r0, #16]
 1374 0126 069A     		ldr	r2, [sp, #24]
 1375 0128 4261     		str	r2, [r0, #20]
 1376 012a 079A     		ldr	r2, [sp, #28]
 1377 012c C0E9062B 		strd	r2, fp, [r0, #24]
 1378 0130 0BB0     		add	sp, sp, #44
 1379              		@ sp needed
 1380 0132 BDE8F08F 		pop	{r4, r5, r6, r7, r8, r9, r10, fp, pc}
 1381              	.L68:
 1382 0136 00BF     		.align	2
 1383              	.L67:
 1384 0138 00000000 		.word	p256_table
 1386              		.section	.text.sp_256_mont_div2_8.constprop.0,"ax",%progbits
 1387              		.align	1
 1388              		.syntax unified
 1389              		.thumb
 1390              		.thumb_func
 1391              		.fpu fpv4-sp-d16
 1393              	sp_256_mont_div2_8.constprop.0:
 1394              		@ args = 0, pretend = 0, frame = 0
 1395              		@ frame_needed = 0, uses_anonymous_args = 0
 1396 0000 2DE9F04F 		push	{r4, r5, r6, r7, r8, r9, r10, fp, lr}
 1397 0004 254A     		ldr	r2, .L71
 1398              		.syntax unified
 1399              	@ 35921 "../wolfssl/wolfcrypt/src/sp_cortexm.c" 1
 1400 0006 91E8F000 		LDM	r1, {r4, r5, r6, r7}
 1401 000a 04F00103 		AND	r3, r4, #0x1
 1402 000e C3F10008 		RSB	r8, r3, #0x0
 1403 0012 14EB0804 		ADDS	r4, r4, r8
 1404 0016 55EB0805 		ADCS	r5, r5, r8
 1405 001a 56EB0806 		ADCS	r6, r6, r8
 1406 001e 57F10007 		ADCS	r7, r7, #0x0
 1407 0022 80E8F000 		STM	r0, {r4, r5, r6, r7}
 1408 0026 D1E90445 		LDRD	r4, r5, [r1, #16]
 1409 002a D1E90667 		LDRD	r6, r7, [r1, #24]
 1410 002e 54F10004 		ADCS	r4, r4, #0x0
 1411 0032 55F10005 		ADCS	r5, r5, #0x0
ARM GAS  /tmp/ccwGYw5D.s 			page 25


 1412 0036 56EBD876 		ADCS	r6, r6, r8, LSR #31
 1413 003a 57EB0807 		ADCS	r7, r7, r8
 1414 003e 4FF00003 		MOV	r3, #0x0
 1415 0042 43F10003 		ADC	r3, r3, #0x0
 1416 0046 4FEA5408 		LSR	r8, r4, #1
 1417 004a 4FEA5509 		LSR	r9, r5, #1
 1418 004e 4FEA560A 		LSR	r10, r6, #1
 1419 0052 4FEA570B 		LSR	r11, r7, #1
 1420 0056 48EAC578 		ORR	r8, r8, r5, LSL #31
 1421 005a 49EAC679 		ORR	r9, r9, r6, LSL #31
 1422 005e 4AEAC77A 		ORR	r10, r10, r7, LSL #31
 1423 0062 4BEAC37B 		ORR	r11, r11, r3, LSL #31
 1424 0066 2346     		MOV	r3, r4
 1425 0068 C0E90489 		STRD	r8, r9, [r0, #16]
 1426 006c C0E906AB 		STRD	r10, r11, [r0, #24]
 1427 0070 90E8F000 		LDM	r0, {r4, r5, r6, r7}
 1428 0074 4FEA5408 		LSR	r8, r4, #1
 1429 0078 4FEA5509 		LSR	r9, r5, #1
 1430 007c 4FEA560A 		LSR	r10, r6, #1
 1431 0080 4FEA570B 		LSR	r11, r7, #1
 1432 0084 48EAC578 		ORR	r8, r8, r5, LSL #31
 1433 0088 49EAC679 		ORR	r9, r9, r6, LSL #31
 1434 008c 4AEAC77A 		ORR	r10, r10, r7, LSL #31
 1435 0090 4BEAC37B 		ORR	r11, r11, r3, LSL #31
 1436 0094 80E8000F 		STM	r0, {r8, r9, r10, r11}
 1437              		
 1438              	@ 0 "" 2
 1439              		.thumb
 1440              		.syntax unified
 1441 0098 BDE8F08F 		pop	{r4, r5, r6, r7, r8, r9, r10, fp, pc}
 1442              	.L72:
 1443              		.align	2
 1444              	.L71:
 1445 009c 00000000 		.word	.LANCHOR2
 1447              		.section	.text.sp_256_mont_sub_8.constprop.0,"ax",%progbits
 1448              		.align	1
 1449              		.syntax unified
 1450              		.thumb
 1451              		.thumb_func
 1452              		.fpu fpv4-sp-d16
 1454              	sp_256_mont_sub_8.constprop.0:
 1455              		@ args = 0, pretend = 0, frame = 0
 1456              		@ frame_needed = 0, uses_anonymous_args = 0
 1457 0000 2DE9F04F 		push	{r4, r5, r6, r7, r8, r9, r10, fp, lr}
 1458              		.syntax unified
 1459              	@ 35855 "../wolfssl/wolfcrypt/src/sp_cortexm.c" 1
 1460 0004 4FF0000E 		MOV	lr, #0x0
 1461 0008 91E8E01F 		LDM	r1, {r5, r6, r7, r8, r9, r10, r11, r12}
 1462 000c 18CA     		LDM	r2!, {r3, r4}
 1463 000e ED1A     		SUBS	r5, r5, r3
 1464 0010 A641     		SBCS	r6, r6, r4
 1465 0012 18CA     		LDM	r2!, {r3, r4}
 1466 0014 9F41     		SBCS	r7, r7, r3
 1467 0016 78EB0408 		SBCS	r8, r8, r4
 1468 001a 18CA     		LDM	r2!, {r3, r4}
 1469 001c 79EB0309 		SBCS	r9, r9, r3
 1470 0020 7AEB040A 		SBCS	r10, r10, r4
ARM GAS  /tmp/ccwGYw5D.s 			page 26


 1471 0024 18CA     		LDM	r2!, {r3, r4}
 1472 0026 7BEB030B 		SBCS	r11, r11, r3
 1473 002a 7CEB040C 		SBCS	r12, r12, r4
 1474 002e 6EF1000E 		SBC	lr, lr, #0x0
 1475 0032 15EB0E05 		ADDS	r5, r5, lr
 1476 0036 56EB0E06 		ADCS	r6, r6, lr
 1477 003a 57EB0E07 		ADCS	r7, r7, lr
 1478 003e 58F10008 		ADCS	r8, r8, #0x0
 1479 0042 59F10009 		ADCS	r9, r9, #0x0
 1480 0046 5AF1000A 		ADCS	r10, r10, #0x0
 1481 004a 5BEBDE7B 		ADCS	r11, r11, lr, LSR #31
 1482 004e 5CEB0E0C 		ADCS	r12, r12, lr
 1483 0052 4EF1000E 		ADC	lr, lr, #0x0
 1484 0056 15EB0E05 		ADDS	r5, r5, lr
 1485 005a 56EB0E06 		ADCS	r6, r6, lr
 1486 005e 57EB0E07 		ADCS	r7, r7, lr
 1487 0062 58F10008 		ADCS	r8, r8, #0x0
 1488 0066 59F10009 		ADCS	r9, r9, #0x0
 1489 006a 5AF1000A 		ADCS	r10, r10, #0x0
 1490 006e 5BEBDE7B 		ADCS	r11, r11, lr, LSR #31
 1491 0072 4CEB0E0C 		ADC	r12, r12, lr
 1492 0076 80E8E01F 		STM	r0, {r5, r6, r7, r8, r9, r10, r11, r12}
 1493              		
 1494              	@ 0 "" 2
 1495              		.thumb
 1496              		.syntax unified
 1497 007a BDE8F08F 		pop	{r4, r5, r6, r7, r8, r9, r10, fp, pc}
 1499              		.section	.text.sp_256_mont_tpl_8.constprop.0,"ax",%progbits
 1500              		.align	1
 1501              		.syntax unified
 1502              		.thumb
 1503              		.thumb_func
 1504              		.fpu fpv4-sp-d16
 1506              	sp_256_mont_tpl_8.constprop.0:
 1507              		@ args = 0, pretend = 0, frame = 0
 1508              		@ frame_needed = 0, uses_anonymous_args = 0
 1509 0000 2DE9F04F 		push	{r4, r5, r6, r7, r8, r9, r10, fp, lr}
 1510              		.syntax unified
 1511              	@ 35758 "../wolfssl/wolfcrypt/src/sp_cortexm.c" 1
 1512 0004 4FF0000C 		MOV	r12, #0x0
 1513 0008 91E8F00F 		LDM	r1, {r4, r5, r6, r7, r8, r9, r10, r11}
 1514 000c 2419     		ADDS	r4, r4, r4
 1515 000e 6D41     		ADCS	r5, r5, r5
 1516 0010 7641     		ADCS	r6, r6, r6
 1517 0012 7F41     		ADCS	r7, r7, r7
 1518 0014 58EB0808 		ADCS	r8, r8, r8
 1519 0018 59EB0909 		ADCS	r9, r9, r9
 1520 001c 5AEB0A0A 		ADCS	r10, r10, r10
 1521 0020 5BEB0B0B 		ADCS	r11, r11, r11
 1522 0024 4CF1000C 		ADC	r12, r12, #0x0
 1523 0028 CCF1000C 		RSB	r12, r12, #0x0
 1524 002c B4EB0C04 		SUBS	r4, r4, r12
 1525 0030 75EB0C05 		SBCS	r5, r5, r12
 1526 0034 76EB0C06 		SBCS	r6, r6, r12
 1527 0038 77F10007 		SBCS	r7, r7, #0x0
 1528 003c 78F10008 		SBCS	r8, r8, #0x0
 1529 0040 79F10009 		SBCS	r9, r9, #0x0
ARM GAS  /tmp/ccwGYw5D.s 			page 27


 1530 0044 7AEBDC7A 		SBCS	r10, r10, r12, LSR #31
 1531 0048 7BEB0C0B 		SBCS	r11, r11, r12
 1532 004c 62EB0202 		SBC	r2, r2, r2
 1533 0050 ACEB020C 		SUB	r12, r12, r2
 1534 0054 B4EB0C04 		SUBS	r4, r4, r12
 1535 0058 75EB0C05 		SBCS	r5, r5, r12
 1536 005c 76EB0C06 		SBCS	r6, r6, r12
 1537 0060 77F10007 		SBCS	r7, r7, #0x0
 1538 0064 78F10008 		SBCS	r8, r8, #0x0
 1539 0068 79F10009 		SBCS	r9, r9, #0x0
 1540 006c 7AEBDC7A 		SBCS	r10, r10, r12, LSR #31
 1541 0070 6BEB0C0B 		SBC	r11, r11, r12
 1542 0074 0CC9     		LDM	r1!, {r2, r3}
 1543 0076 A418     		ADDS	r4, r4, r2
 1544 0078 5D41     		ADCS	r5, r5, r3
 1545 007a 0CC9     		LDM	r1!, {r2, r3}
 1546 007c 5641     		ADCS	r6, r6, r2
 1547 007e 5F41     		ADCS	r7, r7, r3
 1548 0080 0CC9     		LDM	r1!, {r2, r3}
 1549 0082 58EB0208 		ADCS	r8, r8, r2
 1550 0086 59EB0309 		ADCS	r9, r9, r3
 1551 008a 0CC9     		LDM	r1!, {r2, r3}
 1552 008c 5AEB020A 		ADCS	r10, r10, r2
 1553 0090 5BEB030B 		ADCS	r11, r11, r3
 1554 0094 4CF1000C 		ADC	r12, r12, #0x0
 1555 0098 CCF1000C 		RSB	r12, r12, #0x0
 1556 009c B4EB0C04 		SUBS	r4, r4, r12
 1557 00a0 75EB0C05 		SBCS	r5, r5, r12
 1558 00a4 76EB0C06 		SBCS	r6, r6, r12
 1559 00a8 77F10007 		SBCS	r7, r7, #0x0
 1560 00ac 78F10008 		SBCS	r8, r8, #0x0
 1561 00b0 79F10009 		SBCS	r9, r9, #0x0
 1562 00b4 7AEBDC7A 		SBCS	r10, r10, r12, LSR #31
 1563 00b8 7BEB0C0B 		SBCS	r11, r11, r12
 1564 00bc 62EB0202 		SBC	r2, r2, r2
 1565 00c0 ACEB020C 		SUB	r12, r12, r2
 1566 00c4 B4EB0C04 		SUBS	r4, r4, r12
 1567 00c8 75EB0C05 		SBCS	r5, r5, r12
 1568 00cc 76EB0C06 		SBCS	r6, r6, r12
 1569 00d0 77F10007 		SBCS	r7, r7, #0x0
 1570 00d4 78F10008 		SBCS	r8, r8, #0x0
 1571 00d8 79F10009 		SBCS	r9, r9, #0x0
 1572 00dc 7AEBDC7A 		SBCS	r10, r10, r12, LSR #31
 1573 00e0 6BEB0C0B 		SBC	r11, r11, r12
 1574 00e4 80E8F00F 		STM	r0, {r4, r5, r6, r7, r8, r9, r10, r11}
 1575              		
 1576              	@ 0 "" 2
 1577              		.thumb
 1578              		.syntax unified
 1579 00e8 BDE8F08F 		pop	{r4, r5, r6, r7, r8, r9, r10, fp, pc}
 1581              		.section	.text.sp_256_mont_dbl_8.constprop.0,"ax",%progbits
 1582              		.align	1
 1583              		.syntax unified
 1584              		.thumb
 1585              		.thumb_func
 1586              		.fpu fpv4-sp-d16
 1588              	sp_256_mont_dbl_8.constprop.0:
ARM GAS  /tmp/ccwGYw5D.s 			page 28


 1589              		@ args = 0, pretend = 0, frame = 0
 1590              		@ frame_needed = 0, uses_anonymous_args = 0
 1591 0000 2DE9F04F 		push	{r4, r5, r6, r7, r8, r9, r10, fp, lr}
 1592              		.syntax unified
 1593              	@ 35695 "../wolfssl/wolfcrypt/src/sp_cortexm.c" 1
 1594 0004 4FF00002 		MOV	r2, #0x0
 1595 0008 91E8F00F 		LDM	r1, {r4, r5, r6, r7, r8, r9, r10, r11}
 1596 000c 2419     		ADDS	r4, r4, r4
 1597 000e 6D41     		ADCS	r5, r5, r5
 1598 0010 7641     		ADCS	r6, r6, r6
 1599 0012 7F41     		ADCS	r7, r7, r7
 1600 0014 58EB0808 		ADCS	r8, r8, r8
 1601 0018 59EB0909 		ADCS	r9, r9, r9
 1602 001c 5AEB0A0A 		ADCS	r10, r10, r10
 1603 0020 5BEB0B0B 		ADCS	r11, r11, r11
 1604 0024 42F10002 		ADC	r2, r2, #0x0
 1605 0028 C2F10002 		RSB	r2, r2, #0x0
 1606 002c A41A     		SUBS	r4, r4, r2
 1607 002e 9541     		SBCS	r5, r5, r2
 1608 0030 9641     		SBCS	r6, r6, r2
 1609 0032 77F10007 		SBCS	r7, r7, #0x0
 1610 0036 78F10008 		SBCS	r8, r8, #0x0
 1611 003a 79F10009 		SBCS	r9, r9, #0x0
 1612 003e 7AEBD27A 		SBCS	r10, r10, r2, LSR #31
 1613 0042 7BEB020B 		SBCS	r11, r11, r2
 1614 0046 61EB0101 		SBC	r1, r1, r1
 1615 004a A2EB0102 		SUB	r2, r2, r1
 1616 004e A41A     		SUBS	r4, r4, r2
 1617 0050 9541     		SBCS	r5, r5, r2
 1618 0052 9641     		SBCS	r6, r6, r2
 1619 0054 77F10007 		SBCS	r7, r7, #0x0
 1620 0058 78F10008 		SBCS	r8, r8, #0x0
 1621 005c 79F10009 		SBCS	r9, r9, #0x0
 1622 0060 7AEBD27A 		SBCS	r10, r10, r2, LSR #31
 1623 0064 6BEB020B 		SBC	r11, r11, r2
 1624 0068 80E8F00F 		STM	r0, {r4, r5, r6, r7, r8, r9, r10, r11}
 1625              		
 1626              	@ 0 "" 2
 1627              		.thumb
 1628              		.syntax unified
 1629 006c BDE8F08F 		pop	{r4, r5, r6, r7, r8, r9, r10, fp, pc}
 1631              		.section	.text.sp_256_mont_add_8.constprop.0,"ax",%progbits
 1632              		.align	1
 1633              		.syntax unified
 1634              		.thumb
 1635              		.thumb_func
 1636              		.fpu fpv4-sp-d16
 1638              	sp_256_mont_add_8.constprop.0:
 1639              		@ args = 0, pretend = 0, frame = 0
 1640              		@ frame_needed = 0, uses_anonymous_args = 0
 1641 0000 2DE9F04F 		push	{r4, r5, r6, r7, r8, r9, r10, fp, lr}
 1642              		.syntax unified
 1643              	@ 35628 "../wolfssl/wolfcrypt/src/sp_cortexm.c" 1
 1644 0004 4FF0000E 		MOV	lr, #0x0
 1645 0008 91E8E01F 		LDM	r1, {r5, r6, r7, r8, r9, r10, r11, r12}
 1646 000c 18CA     		LDM	r2!, {r3, r4}
 1647 000e ED18     		ADDS	r5, r5, r3
ARM GAS  /tmp/ccwGYw5D.s 			page 29


 1648 0010 6641     		ADCS	r6, r6, r4
 1649 0012 18CA     		LDM	r2!, {r3, r4}
 1650 0014 5F41     		ADCS	r7, r7, r3
 1651 0016 58EB0408 		ADCS	r8, r8, r4
 1652 001a 18CA     		LDM	r2!, {r3, r4}
 1653 001c 59EB0309 		ADCS	r9, r9, r3
 1654 0020 5AEB040A 		ADCS	r10, r10, r4
 1655 0024 18CA     		LDM	r2!, {r3, r4}
 1656 0026 5BEB030B 		ADCS	r11, r11, r3
 1657 002a 5CEB040C 		ADCS	r12, r12, r4
 1658 002e 4EF1000E 		ADC	lr, lr, #0x0
 1659 0032 CEF1000E 		RSB	lr, lr, #0x0
 1660 0036 B5EB0E05 		SUBS	r5, r5, lr
 1661 003a 76EB0E06 		SBCS	r6, r6, lr
 1662 003e 77EB0E07 		SBCS	r7, r7, lr
 1663 0042 78F10008 		SBCS	r8, r8, #0x0
 1664 0046 79F10009 		SBCS	r9, r9, #0x0
 1665 004a 7AF1000A 		SBCS	r10, r10, #0x0
 1666 004e 7BEBDE7B 		SBCS	r11, r11, lr, LSR #31
 1667 0052 7CEB0E0C 		SBCS	r12, r12, lr
 1668 0056 62EB0202 		SBC	r2, r2, r2
 1669 005a AEEB020E 		SUB	lr, lr, r2
 1670 005e B5EB0E05 		SUBS	r5, r5, lr
 1671 0062 76EB0E06 		SBCS	r6, r6, lr
 1672 0066 77EB0E07 		SBCS	r7, r7, lr
 1673 006a 78F10008 		SBCS	r8, r8, #0x0
 1674 006e 79F10009 		SBCS	r9, r9, #0x0
 1675 0072 7AF1000A 		SBCS	r10, r10, #0x0
 1676 0076 7BEBDE7B 		SBCS	r11, r11, lr, LSR #31
 1677 007a 6CEB0E0C 		SBC	r12, r12, lr
 1678 007e 80E8E01F 		STM	r0, {r5, r6, r7, r8, r9, r10, r11, r12}
 1679              		
 1680              	@ 0 "" 2
 1681              		.thumb
 1682              		.syntax unified
 1683 0082 BDE8F08F 		pop	{r4, r5, r6, r7, r8, r9, r10, fp, pc}
 1685              		.section	.text.sp_256_mont_sqr_8.constprop.0,"ax",%progbits
 1686              		.align	1
 1687              		.syntax unified
 1688              		.thumb
 1689              		.thumb_func
 1690              		.fpu fpv4-sp-d16
 1692              	sp_256_mont_sqr_8.constprop.0:
 1693              		@ args = 0, pretend = 0, frame = 0
 1694              		@ frame_needed = 0, uses_anonymous_args = 0
 1695 0000 2DE9F04F 		push	{r4, r5, r6, r7, r8, r9, r10, fp, lr}
 1696              		.syntax unified
 1697              	@ 34336 "../wolfssl/wolfcrypt/src/sp_cortexm.c" 1
 1698 0004 91B0     		SUB	sp, sp, #0x44
 1699 0006 1090     		STR	r0, [sp, #64]
 1700 0008 FFC9     		LDM	r1, {r0, r1, r2, r3, r4, r5, r6, r7}
 1701 000a A0FB009A 		UMULL	r9, r10, r0, r0
 1702 000e A0FB01BC 		UMULL	r11, r12, r0, r1
 1703 0012 1BEB0B0B 		ADDS	r11, r11, r11
 1704 0016 4FF0000E 		MOV	lr, #0x0
 1705 001a EEFB6EAB 		UMAAL	r10, r11, lr, lr
 1706 001e 8DE80006 		STM	sp, {r9, r10}
ARM GAS  /tmp/ccwGYw5D.s 			page 30


 1707 0022 F046     		MOV	r8, lr
 1708 0024 E0FB628C 		UMAAL	r8, r12, r0, r2
 1709 0028 58EB0808 		ADCS	r8, r8, r8
 1710 002c E1FB618B 		UMAAL	r8, r11, r1, r1
 1711 0030 A0FB039A 		UMULL	r9, r10, r0, r3
 1712 0034 E1FB629C 		UMAAL	r9, r12, r1, r2
 1713 0038 59EB0909 		ADCS	r9, r9, r9
 1714 003c EEFB6E9B 		UMAAL	r9, r11, lr, lr
 1715 0040 CDE90289 		STRD	r8, r9, [sp, #8]
 1716 0044 F146     		MOV	r9, lr
 1717 0046 E0FB649A 		UMAAL	r9, r10, r0, r4
 1718 004a E1FB639C 		UMAAL	r9, r12, r1, r3
 1719 004e 59EB0909 		ADCS	r9, r9, r9
 1720 0052 E2FB629B 		UMAAL	r9, r11, r2, r2
 1721 0056 CDF81090 		STR	r9, [sp, #16]
 1722 005a A0FB0598 		UMULL	r9, r8, r0, r5
 1723 005e E1FB649C 		UMAAL	r9, r12, r1, r4
 1724 0062 E2FB639A 		UMAAL	r9, r10, r2, r3
 1725 0066 59EB0909 		ADCS	r9, r9, r9
 1726 006a EEFB6E9B 		UMAAL	r9, r11, lr, lr
 1727 006e CDF81490 		STR	r9, [sp, #20]
 1728 0072 F146     		MOV	r9, lr
 1729 0074 E0FB6698 		UMAAL	r9, r8, r0, r6
 1730 0078 E1FB659C 		UMAAL	r9, r12, r1, r5
 1731 007c E2FB649A 		UMAAL	r9, r10, r2, r4
 1732 0080 59EB0909 		ADCS	r9, r9, r9
 1733 0084 E3FB639B 		UMAAL	r9, r11, r3, r3
 1734 0088 CDF81890 		STR	r9, [sp, #24]
 1735 008c A0FB0709 		UMULL	r0, r9, r0, r7
 1736 0090 E1FB6608 		UMAAL	r0, r8, r1, r6
 1737 0094 E2FB650C 		UMAAL	r0, r12, r2, r5
 1738 0098 E3FB640A 		UMAAL	r0, r10, r3, r4
 1739 009c 4041     		ADCS	r0, r0, r0
 1740 009e EEFB6E0B 		UMAAL	r0, r11, lr, lr
 1741 00a2 E1FB6798 		UMAAL	r9, r8, r1, r7
 1742 00a6 E2FB669A 		UMAAL	r9, r10, r2, r6
 1743 00aa E3FB65C9 		UMAAL	r12, r9, r3, r5
 1744 00ae 5CEB0C0C 		ADCS	r12, r12, r12
 1745 00b2 E4FB64CB 		UMAAL	r12, r11, r4, r4
 1746 00b6 E2FB6798 		UMAAL	r9, r8, r2, r7
 1747 00ba E3FB66A9 		UMAAL	r10, r9, r3, r6
 1748 00be 7246     		MOV	r2, lr
 1749 00c0 E4FB65A2 		UMAAL	r10, r2, r4, r5
 1750 00c4 5AEB0A0A 		ADCS	r10, r10, r10
 1751 00c8 EEFB6EBA 		UMAAL	r11, r10, lr, lr
 1752 00cc E3FB6728 		UMAAL	r2, r8, r3, r7
 1753 00d0 E4FB6629 		UMAAL	r2, r9, r4, r6
 1754 00d4 52EB0203 		ADCS	r3, r2, r2
 1755 00d8 E5FB65A3 		UMAAL	r10, r3, r5, r5
 1756 00dc 7146     		MOV	r1, lr
 1757 00de E4FB6718 		UMAAL	r1, r8, r4, r7
 1758 00e2 E5FB6619 		UMAAL	r1, r9, r5, r6
 1759 00e6 51EB0104 		ADCS	r4, r1, r1
 1760 00ea EEFB6E34 		UMAAL	r3, r4, lr, lr
 1761 00ee E5FB6789 		UMAAL	r8, r9, r5, r7
 1762 00f2 58EB0808 		ADCS	r8, r8, r8
 1763 00f6 E6FB6648 		UMAAL	r4, r8, r6, r6
ARM GAS  /tmp/ccwGYw5D.s 			page 31


 1764 00fa 7546     		MOV	r5, lr
 1765 00fc E6FB6759 		UMAAL	r5, r9, r6, r7
 1766 0100 6D41     		ADCS	r5, r5, r5
 1767 0102 EEFB6E85 		UMAAL	r8, r5, lr, lr
 1768 0106 59EB0909 		ADCS	r9, r9, r9
 1769 010a E7FB6795 		UMAAL	r9, r5, r7, r7
 1770 010e 55EB0E07 		ADCS	r7, r5, lr
 1771 0112 EE46     		MOV	lr, sp
 1772 0114 0EF11C0E 		ADD	lr, lr, #0x1c
 1773 0118 AEE80110 		STM	lr!, {r0, r12}
 1774 011c 4EF804BB 		STM	lr!, {r11}
 1775 0120 4EF804AB 		STM	lr!, {r10}
 1776 0124 AEE81803 		STM	lr!, {r3, r4, r8, r9}
 1777 0128 4EF8047B 		STM	lr!, {r7}
 1778 012c 9DE8E01F 		LDM	sp, {r5, r6, r7, r8, r9, r10, r11, r12}
 1779 0130 5B46     		MOV	r3, r11
 1780 0132 6446     		MOV	r4, r12
 1781 0134 1BEB050B 		ADDS	r11, r11, r5
 1782 0138 4CEB060C 		ADC	r12, r12, r6
 1783 013c 1BEB050B 		ADDS	r11, r11, r5
 1784 0140 4CEB060C 		ADC	r12, r12, r6
 1785 0144 ACEB050C 		SUB	r12, r12, r5
 1786 0148 4046     		MOV	r0, r8
 1787 014a 4946     		MOV	r1, r9
 1788 014c 5246     		MOV	r2, r10
 1789 014e 18EB0508 		ADDS	r8, r8, r5
 1790 0152 59EB0609 		ADCS	r9, r9, r6
 1791 0156 5AEB070A 		ADCS	r10, r10, r7
 1792 015a 5BEB000B 		ADCS	r11, r11, r0
 1793 015e 4CEB010C 		ADC	r12, r12, r1
 1794 0162 4019     		ADDS	r0, r0, r5
 1795 0164 7141     		ADCS	r1, r1, r6
 1796 0166 7A41     		ADCS	r2, r2, r7
 1797 0168 53EB0803 		ADCS	r3, r3, r8
 1798 016c 54EB0904 		ADCS	r4, r4, r9
 1799 0170 4FF0000E 		MOV	lr, #0x0
 1800 0174 4EF1000E 		ADC	lr, lr, #0x0
 1801 0178 5B19     		ADDS	r3, r3, r5
 1802 017a 7441     		ADCS	r4, r4, r6
 1803 017c 4EF1000E 		ADC	lr, lr, #0x0
 1804 0180 0794     		STR	r4, [sp, #28]
 1805 0182 08A8     		ADD	r0, sp, #0x20
 1806 0184 90E81C00 		LDM	r0, {r2, r3, r4}
 1807 0188 12EB0E02 		ADDS	r2, r2, lr
 1808 018c 53F10003 		ADCS	r3, r3, #0x0
 1809 0190 54F10004 		ADCS	r4, r4, #0x0
 1810 0194 4FF0000E 		MOV	lr, #0x0
 1811 0198 4EF1000E 		ADC	lr, lr, #0x0
 1812 019c 5219     		ADDS	r2, r2, r5
 1813 019e 7341     		ADCS	r3, r3, r6
 1814 01a0 7C41     		ADCS	r4, r4, r7
 1815 01a2 4EF1000E 		ADC	lr, lr, #0x0
 1816 01a6 D219     		ADDS	r2, r2, r7
 1817 01a8 53EB0803 		ADCS	r3, r3, r8
 1818 01ac 54EB0904 		ADCS	r4, r4, r9
 1819 01b0 4EF1000E 		ADC	lr, lr, #0x0
 1820 01b4 12EB0A02 		ADDS	r2, r2, r10
ARM GAS  /tmp/ccwGYw5D.s 			page 32


 1821 01b8 53EB0B03 		ADCS	r3, r3, r11
 1822 01bc 54EB0C04 		ADCS	r4, r4, r12
 1823 01c0 4EF1000E 		ADC	lr, lr, #0x0
 1824 01c4 1CC0     		STM	r0!, {r2, r3, r4}
 1825 01c6 1FC8     		LDM	r0, {r0, r1, r2, r3, r4}
 1826 01c8 10EB0E00 		ADDS	r0, r0, lr
 1827 01cc 51F10001 		ADCS	r1, r1, #0x0
 1828 01d0 52F10002 		ADCS	r2, r2, #0x0
 1829 01d4 53F10003 		ADCS	r3, r3, #0x0
 1830 01d8 54F10004 		ADCS	r4, r4, #0x0
 1831 01dc 4FF0000E 		MOV	lr, #0x0
 1832 01e0 4EF1000E 		ADC	lr, lr, #0x0
 1833 01e4 10EB0800 		ADDS	r0, r0, r8
 1834 01e8 51EB0901 		ADCS	r1, r1, r9
 1835 01ec 52EB0A02 		ADCS	r2, r2, r10
 1836 01f0 53EB0B03 		ADCS	r3, r3, r11
 1837 01f4 54EB0C04 		ADCS	r4, r4, r12
 1838 01f8 4EF1000E 		ADC	lr, lr, #0x0
 1839 01fc 10EB0A00 		ADDS	r0, r0, r10
 1840 0200 51EB0B01 		ADCS	r1, r1, r11
 1841 0204 52EB0C02 		ADCS	r2, r2, r12
 1842 0208 53F10003 		ADCS	r3, r3, #0x0
 1843 020c 54F10004 		ADCS	r4, r4, #0x0
 1844 0210 4EF1000E 		ADC	lr, lr, #0x0
 1845 0214 0B90     		STR	r0, [sp, #44]
 1846 0216 0C91     		STR	r1, [sp, #48]
 1847 0218 0D92     		STR	r2, [sp, #52]
 1848 021a 0E93     		STR	r3, [sp, #56]
 1849 021c 07A8     		ADD	r0, sp, #0x1c
 1850 021e 0FC8     		LDM	r0, {r0, r1, r2, r3}
 1851 0220 401B     		SUBS	r0, r0, r5
 1852 0222 B141     		SBCS	r1, r1, r6
 1853 0224 BA41     		SBCS	r2, r2, r7
 1854 0226 73EB0803 		SBCS	r3, r3, r8
 1855 022a 0BA8     		ADD	r0, sp, #0x2c
 1856 022c A046     		MOV	r8, r4
 1857 022e 90E8F000 		LDM	r0, {r4, r5, r6, r7}
 1858 0232 74EB0904 		SBCS	r4, r4, r9
 1859 0236 75EB0A05 		SBCS	r5, r5, r10
 1860 023a 76EB0B06 		SBCS	r6, r6, r11
 1861 023e 77EB0C07 		SBCS	r7, r7, r12
 1862 0242 78F10008 		SBCS	r8, r8, #0x0
 1863 0246 6EF1000E 		SBC	lr, lr, #0x0
 1864 024a CEF1000E 		RSB	lr, lr, #0x0
 1865 024e B1EB0E01 		SUBS	r1, r1, lr
 1866 0252 72EB0E02 		SBCS	r2, r2, lr
 1867 0256 73EB0E03 		SBCS	r3, r3, lr
 1868 025a 74F10004 		SBCS	r4, r4, #0x0
 1869 025e 75F10005 		SBCS	r5, r5, #0x0
 1870 0262 76F10006 		SBCS	r6, r6, #0x0
 1871 0266 77EBDE77 		SBCS	r7, r7, lr, LSR #31
 1872 026a 68EB0E08 		SBC	r8, r8, lr
 1873 026e 1098     		LDR	r0, [sp, #64]
 1874 0270 80E8FE01 		STM	r0, {r1, r2, r3, r4, r5, r6, r7, r8}
 1875 0274 11B0     		ADD	sp, sp, #0x44
 1876              		
 1877              	@ 0 "" 2
ARM GAS  /tmp/ccwGYw5D.s 			page 33


 1878              		.thumb
 1879              		.syntax unified
 1880 0276 BDE8F08F 		pop	{r4, r5, r6, r7, r8, r9, r10, fp, pc}
 1882              		.section	.text.sp_256_mont_sqr_n_8.constprop.0,"ax",%progbits
 1883              		.align	1
 1884              		.syntax unified
 1885              		.thumb
 1886              		.thumb_func
 1887              		.fpu fpv4-sp-d16
 1889              	sp_256_mont_sqr_n_8.constprop.0:
 1890              		@ args = 0, pretend = 0, frame = 0
 1891              		@ frame_needed = 0, uses_anonymous_args = 0
 1892 0000 38B5     		push	{r3, r4, r5, lr}
 1893 0002 0546     		mov	r5, r0
 1894 0004 1446     		mov	r4, r2
 1895 0006 FFF7FEFF 		bl	sp_256_mont_sqr_8.constprop.0
 1896              	.L84:
 1897 000a 2946     		mov	r1, r5
 1898 000c 2846     		mov	r0, r5
 1899 000e 013C     		subs	r4, r4, #1
 1900 0010 FFF7FEFF 		bl	sp_256_mont_sqr_8.constprop.0
 1901 0014 012C     		cmp	r4, #1
 1902 0016 F8D1     		bne	.L84
 1903 0018 38BD     		pop	{r3, r4, r5, pc}
 1905              		.section	.text.sp_256_mont_mul_8.constprop.0,"ax",%progbits
 1906              		.align	1
 1907              		.syntax unified
 1908              		.thumb
 1909              		.thumb_func
 1910              		.fpu fpv4-sp-d16
 1912              	sp_256_mont_mul_8.constprop.0:
 1913              		@ args = 0, pretend = 0, frame = 0
 1914              		@ frame_needed = 0, uses_anonymous_args = 0
 1915 0000 2DE9F04F 		push	{r4, r5, r6, r7, r8, r9, r10, fp, lr}
 1916              		.syntax unified
 1917              	@ 33683 "../wolfssl/wolfcrypt/src/sp_cortexm.c" 1
 1918 0004 93B0     		SUB	sp, sp, #0x4c
 1919 0006 CDE91101 		STRD	r0, r1, [sp, #68]
 1920 000a 9646     		MOV	lr, r2
 1921 000c 0FC9     		LDM	r1, {r0, r1, r2, r3}
 1922 000e BEE87000 		LDM	lr!, {r4, r5, r6}
 1923 0012 A0FB04AB 		UMULL	r10, r11, r0, r4
 1924 0016 A1FB04C7 		UMULL	r12, r7, r1, r4
 1925 001a E0FB65BC 		UMAAL	r11, r12, r0, r5
 1926 001e A2FB0489 		UMULL	r8, r9, r2, r4
 1927 0022 E1FB65C8 		UMAAL	r12, r8, r1, r5
 1928 0026 E0FB66C7 		UMAAL	r12, r7, r0, r6
 1929 002a E3FB6489 		UMAAL	r8, r9, r3, r4
 1930 002e 8DE8001C 		STM	sp, {r10, r11, r12}
 1931 0032 E2FB6578 		UMAAL	r7, r8, r2, r5
 1932 0036 5EF8044B 		LDM	lr!, {r4}
 1933 003a A1FB06AB 		UMULL	r10, r11, r1, r6
 1934 003e E2FB6689 		UMAAL	r8, r9, r2, r6
 1935 0042 E0FB647A 		UMAAL	r7, r10, r0, r4
 1936 0046 E3FB658B 		UMAAL	r8, r11, r3, r5
 1937 004a 0397     		STR	r7, [sp, #12]
 1938 004c E1FB648A 		UMAAL	r8, r10, r1, r4
ARM GAS  /tmp/ccwGYw5D.s 			page 34


 1939 0050 E3FB669B 		UMAAL	r9, r11, r3, r6
 1940 0054 E2FB649A 		UMAAL	r9, r10, r2, r4
 1941 0058 E3FB64AB 		UMAAL	r10, r11, r3, r4
 1942 005c 9EE8F000 		LDM	lr, {r4, r5, r6, r7}
 1943 0060 4FF0000C 		MOV	r12, #0x0
 1944 0064 E0FB048C 		UMLAL	r8, r12, r0, r4
 1945 0068 E1FB649C 		UMAAL	r9, r12, r1, r4
 1946 006c E2FB64AC 		UMAAL	r10, r12, r2, r4
 1947 0070 E3FB64BC 		UMAAL	r11, r12, r3, r4
 1948 0074 4FF00004 		MOV	r4, #0x0
 1949 0078 E0FB0594 		UMLAL	r9, r4, r0, r5
 1950 007c E1FB65A4 		UMAAL	r10, r4, r1, r5
 1951 0080 E2FB65B4 		UMAAL	r11, r4, r2, r5
 1952 0084 E3FB65C4 		UMAAL	r12, r4, r3, r5
 1953 0088 4FF00005 		MOV	r5, #0x0
 1954 008c E0FB06A5 		UMLAL	r10, r5, r0, r6
 1955 0090 E1FB66B5 		UMAAL	r11, r5, r1, r6
 1956 0094 E2FB66C5 		UMAAL	r12, r5, r2, r6
 1957 0098 E3FB6645 		UMAAL	r4, r5, r3, r6
 1958 009c 4FF00006 		MOV	r6, #0x0
 1959 00a0 E0FB07B6 		UMLAL	r11, r6, r0, r7
 1960 00a4 1298     		LDR	r0, [sp, #72]
 1961 00a6 E1FB67C6 		UMAAL	r12, r6, r1, r7
 1962 00aa 00F11000 		ADD	r0, r0, #0x10
 1963 00ae E2FB6746 		UMAAL	r4, r6, r2, r7
 1964 00b2 AEF1100E 		SUB	lr, lr, #0x10
 1965 00b6 E3FB6756 		UMAAL	r5, r6, r3, r7
 1966 00ba 0FC8     		LDM	r0, {r0, r1, r2, r3}
 1967 00bc 1096     		STR	r6, [sp, #64]
 1968 00be 5EF8046B 		LDM	lr!, {r6}
 1969 00c2 4FF00007 		MOV	r7, #0x0
 1970 00c6 E0FB0687 		UMLAL	r8, r7, r0, r6
 1971 00ca E1FB6697 		UMAAL	r9, r7, r1, r6
 1972 00ce CDF81080 		STR	r8, [sp, #16]
 1973 00d2 E2FB66A7 		UMAAL	r10, r7, r2, r6
 1974 00d6 E3FB66B7 		UMAAL	r11, r7, r3, r6
 1975 00da 5EF8046B 		LDM	lr!, {r6}
 1976 00de 4FF00008 		MOV	r8, #0x0
 1977 00e2 E0FB0698 		UMLAL	r9, r8, r0, r6
 1978 00e6 E1FB66A8 		UMAAL	r10, r8, r1, r6
 1979 00ea CDF81490 		STR	r9, [sp, #20]
 1980 00ee E2FB66B8 		UMAAL	r11, r8, r2, r6
 1981 00f2 E3FB66C8 		UMAAL	r12, r8, r3, r6
 1982 00f6 5EF8046B 		LDM	lr!, {r6}
 1983 00fa 4FF00009 		MOV	r9, #0x0
 1984 00fe E0FB06A9 		UMLAL	r10, r9, r0, r6
 1985 0102 E1FB66B9 		UMAAL	r11, r9, r1, r6
 1986 0106 CDF818A0 		STR	r10, [sp, #24]
 1987 010a E2FB66C9 		UMAAL	r12, r9, r2, r6
 1988 010e E3FB6649 		UMAAL	r4, r9, r3, r6
 1989 0112 5EF8046B 		LDM	lr!, {r6}
 1990 0116 4FF0000A 		MOV	r10, #0x0
 1991 011a E0FB06BA 		UMLAL	r11, r10, r0, r6
 1992 011e E1FB66CA 		UMAAL	r12, r10, r1, r6
 1993 0122 CDF81CB0 		STR	r11, [sp, #28]
 1994 0126 E2FB664A 		UMAAL	r4, r10, r2, r6
 1995 012a E3FB665A 		UMAAL	r5, r10, r3, r6
ARM GAS  /tmp/ccwGYw5D.s 			page 35


 1996 012e 5EF804BB 		LDM	lr!, {r11}
 1997 0132 E0FB6BC7 		UMAAL	r12, r7, r0, r11
 1998 0136 E1FB6B47 		UMAAL	r4, r7, r1, r11
 1999 013a 109E     		LDR	r6, [sp, #64]
 2000 013c E2FB6B57 		UMAAL	r5, r7, r2, r11
 2001 0140 E3FB6B67 		UMAAL	r6, r7, r3, r11
 2002 0144 5EF804BB 		LDM	lr!, {r11}
 2003 0148 E0FB6B48 		UMAAL	r4, r8, r0, r11
 2004 014c E1FB6B58 		UMAAL	r5, r8, r1, r11
 2005 0150 E2FB6B68 		UMAAL	r6, r8, r2, r11
 2006 0154 E3FB6B78 		UMAAL	r7, r8, r3, r11
 2007 0158 9EE80048 		LDM	lr, {r11, lr}
 2008 015c E0FB6B59 		UMAAL	r5, r9, r0, r11
 2009 0160 E0FB6E6A 		UMAAL	r6, r10, r0, lr
 2010 0164 E1FB6B69 		UMAAL	r6, r9, r1, r11
 2011 0168 E1FB6E7A 		UMAAL	r7, r10, r1, lr
 2012 016c E2FB6B79 		UMAAL	r7, r9, r2, r11
 2013 0170 E2FB6E8A 		UMAAL	r8, r10, r2, lr
 2014 0174 E3FB6B89 		UMAAL	r8, r9, r3, r11
 2015 0178 E3FB6E9A 		UMAAL	r9, r10, r3, lr
 2016 017c 6346     		MOV	r3, r12
 2017 017e 0DF1200E 		ADD	lr, sp, #0x20
 2018 0182 8EE8F807 		STM	lr, {r3, r4, r5, r6, r7, r8, r9, r10}
 2019 0186 9DE8E01F 		LDM	sp, {r5, r6, r7, r8, r9, r10, r11, r12}
 2020 018a 5B46     		MOV	r3, r11
 2021 018c 6446     		MOV	r4, r12
 2022 018e 1BEB050B 		ADDS	r11, r11, r5
 2023 0192 4CEB060C 		ADC	r12, r12, r6
 2024 0196 1BEB050B 		ADDS	r11, r11, r5
 2025 019a 4CEB060C 		ADC	r12, r12, r6
 2026 019e ACEB050C 		SUB	r12, r12, r5
 2027 01a2 4046     		MOV	r0, r8
 2028 01a4 4946     		MOV	r1, r9
 2029 01a6 5246     		MOV	r2, r10
 2030 01a8 18EB0508 		ADDS	r8, r8, r5
 2031 01ac 59EB0609 		ADCS	r9, r9, r6
 2032 01b0 5AEB070A 		ADCS	r10, r10, r7
 2033 01b4 5BEB000B 		ADCS	r11, r11, r0
 2034 01b8 4CEB010C 		ADC	r12, r12, r1
 2035 01bc 4019     		ADDS	r0, r0, r5
 2036 01be 7141     		ADCS	r1, r1, r6
 2037 01c0 7A41     		ADCS	r2, r2, r7
 2038 01c2 53EB0803 		ADCS	r3, r3, r8
 2039 01c6 54EB0904 		ADCS	r4, r4, r9
 2040 01ca 4FF0000E 		MOV	lr, #0x0
 2041 01ce 4EF1000E 		ADC	lr, lr, #0x0
 2042 01d2 5B19     		ADDS	r3, r3, r5
 2043 01d4 7441     		ADCS	r4, r4, r6
 2044 01d6 4EF1000E 		ADC	lr, lr, #0x0
 2045 01da 0794     		STR	r4, [sp, #28]
 2046 01dc 08A8     		ADD	r0, sp, #0x20
 2047 01de 90E81C00 		LDM	r0, {r2, r3, r4}
 2048 01e2 12EB0E02 		ADDS	r2, r2, lr
 2049 01e6 53F10003 		ADCS	r3, r3, #0x0
 2050 01ea 54F10004 		ADCS	r4, r4, #0x0
 2051 01ee 4FF0000E 		MOV	lr, #0x0
 2052 01f2 4EF1000E 		ADC	lr, lr, #0x0
ARM GAS  /tmp/ccwGYw5D.s 			page 36


 2053 01f6 5219     		ADDS	r2, r2, r5
 2054 01f8 7341     		ADCS	r3, r3, r6
 2055 01fa 7C41     		ADCS	r4, r4, r7
 2056 01fc 4EF1000E 		ADC	lr, lr, #0x0
 2057 0200 D219     		ADDS	r2, r2, r7
 2058 0202 53EB0803 		ADCS	r3, r3, r8
 2059 0206 54EB0904 		ADCS	r4, r4, r9
 2060 020a 4EF1000E 		ADC	lr, lr, #0x0
 2061 020e 12EB0A02 		ADDS	r2, r2, r10
 2062 0212 53EB0B03 		ADCS	r3, r3, r11
 2063 0216 54EB0C04 		ADCS	r4, r4, r12
 2064 021a 4EF1000E 		ADC	lr, lr, #0x0
 2065 021e 1CC0     		STM	r0!, {r2, r3, r4}
 2066 0220 1FC8     		LDM	r0, {r0, r1, r2, r3, r4}
 2067 0222 10EB0E00 		ADDS	r0, r0, lr
 2068 0226 51F10001 		ADCS	r1, r1, #0x0
 2069 022a 52F10002 		ADCS	r2, r2, #0x0
 2070 022e 53F10003 		ADCS	r3, r3, #0x0
 2071 0232 54F10004 		ADCS	r4, r4, #0x0
 2072 0236 4FF0000E 		MOV	lr, #0x0
 2073 023a 4EF1000E 		ADC	lr, lr, #0x0
 2074 023e 10EB0800 		ADDS	r0, r0, r8
 2075 0242 51EB0901 		ADCS	r1, r1, r9
 2076 0246 52EB0A02 		ADCS	r2, r2, r10
 2077 024a 53EB0B03 		ADCS	r3, r3, r11
 2078 024e 54EB0C04 		ADCS	r4, r4, r12
 2079 0252 4EF1000E 		ADC	lr, lr, #0x0
 2080 0256 10EB0A00 		ADDS	r0, r0, r10
 2081 025a 51EB0B01 		ADCS	r1, r1, r11
 2082 025e 52EB0C02 		ADCS	r2, r2, r12
 2083 0262 53F10003 		ADCS	r3, r3, #0x0
 2084 0266 54F10004 		ADCS	r4, r4, #0x0
 2085 026a 4EF1000E 		ADC	lr, lr, #0x0
 2086 026e 0B90     		STR	r0, [sp, #44]
 2087 0270 0C91     		STR	r1, [sp, #48]
 2088 0272 0D92     		STR	r2, [sp, #52]
 2089 0274 0E93     		STR	r3, [sp, #56]
 2090 0276 07A8     		ADD	r0, sp, #0x1c
 2091 0278 0FC8     		LDM	r0, {r0, r1, r2, r3}
 2092 027a 401B     		SUBS	r0, r0, r5
 2093 027c B141     		SBCS	r1, r1, r6
 2094 027e BA41     		SBCS	r2, r2, r7
 2095 0280 73EB0803 		SBCS	r3, r3, r8
 2096 0284 0BA8     		ADD	r0, sp, #0x2c
 2097 0286 A046     		MOV	r8, r4
 2098 0288 90E8F000 		LDM	r0, {r4, r5, r6, r7}
 2099 028c 74EB0904 		SBCS	r4, r4, r9
 2100 0290 75EB0A05 		SBCS	r5, r5, r10
 2101 0294 76EB0B06 		SBCS	r6, r6, r11
 2102 0298 77EB0C07 		SBCS	r7, r7, r12
 2103 029c 78F10008 		SBCS	r8, r8, #0x0
 2104 02a0 6EF1000E 		SBC	lr, lr, #0x0
 2105 02a4 CEF1000E 		RSB	lr, lr, #0x0
 2106 02a8 B1EB0E01 		SUBS	r1, r1, lr
 2107 02ac 72EB0E02 		SBCS	r2, r2, lr
 2108 02b0 73EB0E03 		SBCS	r3, r3, lr
 2109 02b4 74F10004 		SBCS	r4, r4, #0x0
ARM GAS  /tmp/ccwGYw5D.s 			page 37


 2110 02b8 75F10005 		SBCS	r5, r5, #0x0
 2111 02bc 76F10006 		SBCS	r6, r6, #0x0
 2112 02c0 77EBDE77 		SBCS	r7, r7, lr, LSR #31
 2113 02c4 68EB0E08 		SBC	r8, r8, lr
 2114 02c8 1198     		LDR	r0, [sp, #68]
 2115 02ca 80E8FE01 		STM	r0, {r1, r2, r3, r4, r5, r6, r7, r8}
 2116 02ce 13B0     		ADD	sp, sp, #0x4c
 2117              		
 2118              	@ 0 "" 2
 2119              		.thumb
 2120              		.syntax unified
 2121 02d0 BDE8F08F 		pop	{r4, r5, r6, r7, r8, r9, r10, fp, pc}
 2123              		.section	.text.sp_256_proj_point_dbl_8,"ax",%progbits
 2124              		.align	1
 2125              		.syntax unified
 2126              		.thumb
 2127              		.thumb_func
 2128              		.fpu fpv4-sp-d16
 2130              	sp_256_proj_point_dbl_8:
 2131              		@ args = 0, pretend = 0, frame = 8
 2132              		@ frame_needed = 0, uses_anonymous_args = 0
 2133 0000 2DE9F347 		push	{r0, r1, r4, r5, r6, r7, r8, r9, r10, lr}
 2134 0004 1646     		mov	r6, r2
 2135 0006 0F46     		mov	r7, r1
 2136 0008 0546     		mov	r5, r0
 2137 000a 8842     		cmp	r0, r1
 2138 000c 18BF     		it	ne
 2139 000e D1F8C030 		ldrne	r3, [r1, #192]
 2140 0012 02F14008 		add	r8, r2, #64
 2141 0016 01F18002 		add	r2, r1, #128
 2142 001a 18BF     		it	ne
 2143 001c C0F8C030 		strne	r3, [r0, #192]
 2144 0020 00F14004 		add	r4, r0, #64
 2145 0024 00F1800A 		add	r10, r0, #128
 2146 0028 1146     		mov	r1, r2
 2147 002a 3046     		mov	r0, r6
 2148 002c 07F14009 		add	r9, r7, #64
 2149 0030 0192     		str	r2, [sp, #4]
 2150 0032 FFF7FEFF 		bl	sp_256_mont_sqr_8.constprop.0
 2151 0036 019A     		ldr	r2, [sp, #4]
 2152 0038 4946     		mov	r1, r9
 2153 003a 5046     		mov	r0, r10
 2154 003c FFF7FEFF 		bl	sp_256_mont_mul_8.constprop.0
 2155 0040 5146     		mov	r1, r10
 2156 0042 5046     		mov	r0, r10
 2157 0044 FFF7FEFF 		bl	sp_256_mont_dbl_8.constprop.0
 2158 0048 3246     		mov	r2, r6
 2159 004a 3946     		mov	r1, r7
 2160 004c 4046     		mov	r0, r8
 2161 004e FFF7FEFF 		bl	sp_256_mont_sub_8.constprop.0
 2162 0052 3246     		mov	r2, r6
 2163 0054 3946     		mov	r1, r7
 2164 0056 3046     		mov	r0, r6
 2165 0058 FFF7FEFF 		bl	sp_256_mont_add_8.constprop.0
 2166 005c 4246     		mov	r2, r8
 2167 005e 3146     		mov	r1, r6
 2168 0060 4046     		mov	r0, r8
ARM GAS  /tmp/ccwGYw5D.s 			page 38


 2169 0062 FFF7FEFF 		bl	sp_256_mont_mul_8.constprop.0
 2170 0066 4146     		mov	r1, r8
 2171 0068 3046     		mov	r0, r6
 2172 006a FFF7FEFF 		bl	sp_256_mont_tpl_8.constprop.0
 2173 006e 4946     		mov	r1, r9
 2174 0070 2046     		mov	r0, r4
 2175 0072 FFF7FEFF 		bl	sp_256_mont_dbl_8.constprop.0
 2176 0076 2146     		mov	r1, r4
 2177 0078 2046     		mov	r0, r4
 2178 007a FFF7FEFF 		bl	sp_256_mont_sqr_8.constprop.0
 2179 007e 2146     		mov	r1, r4
 2180 0080 4046     		mov	r0, r8
 2181 0082 FFF7FEFF 		bl	sp_256_mont_sqr_8.constprop.0
 2182 0086 4146     		mov	r1, r8
 2183 0088 4046     		mov	r0, r8
 2184 008a FFF7FEFF 		bl	sp_256_mont_div2_8.constprop.0
 2185 008e 3A46     		mov	r2, r7
 2186 0090 2146     		mov	r1, r4
 2187 0092 2046     		mov	r0, r4
 2188 0094 FFF7FEFF 		bl	sp_256_mont_mul_8.constprop.0
 2189 0098 3146     		mov	r1, r6
 2190 009a 2846     		mov	r0, r5
 2191 009c FFF7FEFF 		bl	sp_256_mont_sqr_8.constprop.0
 2192 00a0 2246     		mov	r2, r4
 2193 00a2 2946     		mov	r1, r5
 2194 00a4 2846     		mov	r0, r5
 2195 00a6 FFF7FEFF 		bl	sp_256_mont_sub_8.constprop.0
 2196 00aa 2246     		mov	r2, r4
 2197 00ac 2946     		mov	r1, r5
 2198 00ae 2846     		mov	r0, r5
 2199 00b0 FFF7FEFF 		bl	sp_256_mont_sub_8.constprop.0
 2200 00b4 2A46     		mov	r2, r5
 2201 00b6 2146     		mov	r1, r4
 2202 00b8 2046     		mov	r0, r4
 2203 00ba FFF7FEFF 		bl	sp_256_mont_sub_8.constprop.0
 2204 00be 3246     		mov	r2, r6
 2205 00c0 2146     		mov	r1, r4
 2206 00c2 2046     		mov	r0, r4
 2207 00c4 FFF7FEFF 		bl	sp_256_mont_mul_8.constprop.0
 2208 00c8 4246     		mov	r2, r8
 2209 00ca 2146     		mov	r1, r4
 2210 00cc 2046     		mov	r0, r4
 2211 00ce 02B0     		add	sp, sp, #8
 2212              		@ sp needed
 2213 00d0 BDE8F047 		pop	{r4, r5, r6, r7, r8, r9, r10, lr}
 2214 00d4 FFF7FEBF 		b	sp_256_mont_sub_8.constprop.0
 2216              		.section	.text.sp_256_proj_point_add_8,"ax",%progbits
 2217              		.align	1
 2218              		.syntax unified
 2219              		.thumb
 2220              		.thumb_func
 2221              		.fpu fpv4-sp-d16
 2223              	sp_256_proj_point_add_8:
 2224              		@ args = 0, pretend = 0, frame = 16
 2225              		@ frame_needed = 0, uses_anonymous_args = 0
 2226 0000 2DE9F04F 		push	{r4, r5, r6, r7, r8, r9, r10, fp, lr}
 2227 0004 8846     		mov	r8, r1
ARM GAS  /tmp/ccwGYw5D.s 			page 39


 2228 0006 85B0     		sub	sp, sp, #20
 2229 0008 03F14006 		add	r6, r3, #64
 2230 000c 03F18007 		add	r7, r3, #128
 2231 0010 03F1C00B 		add	fp, r3, #192
 2232 0014 03F58075 		add	r5, r3, #256
 2233 0018 1C46     		mov	r4, r3
 2234 001a 02F18003 		add	r3, r2, #128
 2235 001e 1946     		mov	r1, r3
 2236 0020 0290     		str	r0, [sp, #8]
 2237 0022 3046     		mov	r0, r6
 2238 0024 9146     		mov	r9, r2
 2239 0026 0193     		str	r3, [sp, #4]
 2240 0028 FFF7FEFF 		bl	sp_256_mont_sqr_8.constprop.0
 2241 002c 019B     		ldr	r3, [sp, #4]
 2242 002e 3146     		mov	r1, r6
 2243 0030 1A46     		mov	r2, r3
 2244 0032 5846     		mov	r0, fp
 2245 0034 0393     		str	r3, [sp, #12]
 2246 0036 FFF7FEFF 		bl	sp_256_mont_mul_8.constprop.0
 2247 003a 4246     		mov	r2, r8
 2248 003c 3146     		mov	r1, r6
 2249 003e 3046     		mov	r0, r6
 2250 0040 FFF7FEFF 		bl	sp_256_mont_mul_8.constprop.0
 2251 0044 08F18003 		add	r3, r8, #128
 2252 0048 07EE903A 		vmov	s15, r3	@ int
 2253 004c 1946     		mov	r1, r3
 2254 004e 3846     		mov	r0, r7
 2255 0050 FFF7FEFF 		bl	sp_256_mont_sqr_8.constprop.0
 2256 0054 17EE902A 		vmov	r2, s15	@ int
 2257 0058 3946     		mov	r1, r7
 2258 005a 2846     		mov	r0, r5
 2259 005c FFF7FEFF 		bl	sp_256_mont_mul_8.constprop.0
 2260 0060 4A46     		mov	r2, r9
 2261 0062 3946     		mov	r1, r7
 2262 0064 3846     		mov	r0, r7
 2263 0066 FFF7FEFF 		bl	sp_256_mont_mul_8.constprop.0
 2264 006a 5946     		mov	r1, fp
 2265 006c 5846     		mov	r0, fp
 2266 006e 08F14002 		add	r2, r8, #64
 2267 0072 FFF7FEFF 		bl	sp_256_mont_mul_8.constprop.0
 2268 0076 09F14002 		add	r2, r9, #64
 2269 007a 2946     		mov	r1, r5
 2270 007c 2846     		mov	r0, r5
 2271 007e FFF7FEFF 		bl	sp_256_mont_mul_8.constprop.0
 2272 0082 3146     		mov	r1, r6
 2273 0084 3846     		mov	r0, r7
 2274 0086 FFF7FEFF 		bl	sp_256_cmp_equal_8
 2275 008a 5946     		mov	r1, fp
 2276 008c 8246     		mov	r10, r0
 2277 008e 2846     		mov	r0, r5
 2278 0090 FFF7FEFF 		bl	sp_256_cmp_equal_8
 2279 0094 D8F8C020 		ldr	r2, [r8, #192]
 2280 0098 D9F8C010 		ldr	r1, [r9, #192]
 2281 009c 0AEA0000 		and	r0, r10, r0
 2282 00a0 0A43     		orrs	r2, r2, r1
 2283 00a2 30EA0203 		bics	r3, r0, r2
 2284 00a6 0193     		str	r3, [sp, #4]
ARM GAS  /tmp/ccwGYw5D.s 			page 40


 2285 00a8 039B     		ldr	r3, [sp, #12]
 2286 00aa 07D0     		beq	.L91
 2287 00ac 2246     		mov	r2, r4
 2288 00ae 4146     		mov	r1, r8
 2289 00b0 0298     		ldr	r0, [sp, #8]
 2290 00b2 05B0     		add	sp, sp, #20
 2291              		@ sp needed
 2292 00b4 BDE8F04F 		pop	{r4, r5, r6, r7, r8, r9, r10, fp, lr}
 2293 00b8 FFF7FEBF 		b	sp_256_proj_point_dbl_8
 2294              	.L91:
 2295 00bc 3946     		mov	r1, r7
 2296 00be 3846     		mov	r0, r7
 2297 00c0 3246     		mov	r2, r6
 2298 00c2 04F5A07A 		add	r10, r4, #320
 2299 00c6 0393     		str	r3, [sp, #12]
 2300 00c8 FFF7FEFF 		bl	sp_256_mont_sub_8.constprop.0
 2301 00cc 5A46     		mov	r2, fp
 2302 00ce 2946     		mov	r1, r5
 2303 00d0 2846     		mov	r0, r5
 2304 00d2 FFF7FEFF 		bl	sp_256_mont_sub_8.constprop.0
 2305 00d6 3946     		mov	r1, r7
 2306 00d8 5046     		mov	r0, r10
 2307 00da FFF7FEFF 		bl	sp_256_mont_sqr_8.constprop.0
 2308 00de 5246     		mov	r2, r10
 2309 00e0 3146     		mov	r1, r6
 2310 00e2 3046     		mov	r0, r6
 2311 00e4 FFF7FEFF 		bl	sp_256_mont_mul_8.constprop.0
 2312 00e8 3A46     		mov	r2, r7
 2313 00ea 5146     		mov	r1, r10
 2314 00ec 5046     		mov	r0, r10
 2315 00ee FFF7FEFF 		bl	sp_256_mont_mul_8.constprop.0
 2316 00f2 3A46     		mov	r2, r7
 2317 00f4 3846     		mov	r0, r7
 2318 00f6 17EE901A 		vmov	r1, s15	@ int
 2319 00fa FFF7FEFF 		bl	sp_256_mont_mul_8.constprop.0
 2320 00fe 039B     		ldr	r3, [sp, #12]
 2321 0100 3946     		mov	r1, r7
 2322 0102 1A46     		mov	r2, r3
 2323 0104 3846     		mov	r0, r7
 2324 0106 FFF7FEFF 		bl	sp_256_mont_mul_8.constprop.0
 2325 010a 2946     		mov	r1, r5
 2326 010c 2046     		mov	r0, r4
 2327 010e FFF7FEFF 		bl	sp_256_mont_sqr_8.constprop.0
 2328 0112 5246     		mov	r2, r10
 2329 0114 2146     		mov	r1, r4
 2330 0116 2046     		mov	r0, r4
 2331 0118 FFF7FEFF 		bl	sp_256_mont_sub_8.constprop.0
 2332 011c 5A46     		mov	r2, fp
 2333 011e 5146     		mov	r1, r10
 2334 0120 5046     		mov	r0, r10
 2335 0122 FFF7FEFF 		bl	sp_256_mont_mul_8.constprop.0
 2336 0126 3146     		mov	r1, r6
 2337 0128 5846     		mov	r0, fp
 2338 012a FFF7FEFF 		bl	sp_256_mont_dbl_8.constprop.0
 2339 012e 5A46     		mov	r2, fp
 2340 0130 2146     		mov	r1, r4
 2341 0132 2046     		mov	r0, r4
ARM GAS  /tmp/ccwGYw5D.s 			page 41


 2342 0134 FFF7FEFF 		bl	sp_256_mont_sub_8.constprop.0
 2343 0138 2246     		mov	r2, r4
 2344 013a 3146     		mov	r1, r6
 2345 013c 3046     		mov	r0, r6
 2346 013e FFF7FEFF 		bl	sp_256_mont_sub_8.constprop.0
 2347 0142 2A46     		mov	r2, r5
 2348 0144 3146     		mov	r1, r6
 2349 0146 3046     		mov	r0, r6
 2350 0148 FFF7FEFF 		bl	sp_256_mont_mul_8.constprop.0
 2351 014c 5246     		mov	r2, r10
 2352 014e 3146     		mov	r1, r6
 2353 0150 3046     		mov	r0, r6
 2354 0152 FFF7FEFF 		bl	sp_256_mont_sub_8.constprop.0
 2355 0156 D9F8C020 		ldr	r2, [r9, #192]
 2356 015a D8F8C030 		ldr	r3, [r8, #192]
 2357 015e 002B     		cmp	r3, #0
 2358 0160 14BF     		ite	ne
 2359 0162 0020     		movne	r0, #0
 2360 0164 02F00100 		andeq	r0, r2, #1
 2361 0168 002A     		cmp	r2, #0
 2362 016a 14BF     		ite	ne
 2363 016c 0021     		movne	r1, #0
 2364 016e 03F00101 		andeq	r1, r3, #1
 2365 0172 4042     		rsbs	r0, r0, #0
 2366 0174 4942     		rsbs	r1, r1, #0
 2367 0176 40EA0107 		orr	r7, r0, r1
 2368 017a FF43     		mvns	r7, r7
 2369 017c 1A40     		ands	r2, r2, r3
 2370              	.L92:
 2371 017e 019D     		ldr	r5, [sp, #4]
 2372 0180 019B     		ldr	r3, [sp, #4]
 2373 0182 59F82560 		ldr	r6, [r9, r5, lsl #2]
 2374 0186 58F82330 		ldr	r3, [r8, r3, lsl #2]
 2375 018a 0E40     		ands	r6, r6, r1
 2376 018c 0340     		ands	r3, r3, r0
 2377 018e 3343     		orrs	r3, r3, r6
 2378 0190 54F82560 		ldr	r6, [r4, r5, lsl #2]
 2379 0194 3E40     		ands	r6, r6, r7
 2380 0196 1E43     		orrs	r6, r6, r3
 2381 0198 029B     		ldr	r3, [sp, #8]
 2382 019a 43F82560 		str	r6, [r3, r5, lsl #2]
 2383 019e 2B46     		mov	r3, r5
 2384 01a0 0133     		adds	r3, r3, #1
 2385 01a2 082B     		cmp	r3, #8
 2386 01a4 0193     		str	r3, [sp, #4]
 2387 01a6 EAD1     		bne	.L92
 2388 01a8 4026     		movs	r6, #64
 2389              	.L93:
 2390 01aa 58F80630 		ldr	r3, [r8, r6]
 2391 01ae 59F80650 		ldr	r5, [r9, r6]
 2392 01b2 0340     		ands	r3, r3, r0
 2393 01b4 0D40     		ands	r5, r5, r1
 2394 01b6 2B43     		orrs	r3, r3, r5
 2395 01b8 A559     		ldr	r5, [r4, r6]
 2396 01ba 3D40     		ands	r5, r5, r7
 2397 01bc 1D43     		orrs	r5, r5, r3
 2398 01be 029B     		ldr	r3, [sp, #8]
ARM GAS  /tmp/ccwGYw5D.s 			page 42


 2399 01c0 9D51     		str	r5, [r3, r6]
 2400 01c2 0436     		adds	r6, r6, #4
 2401 01c4 602E     		cmp	r6, #96
 2402 01c6 F0D1     		bne	.L93
 2403 01c8 8026     		movs	r6, #128
 2404              	.L94:
 2405 01ca 58F80630 		ldr	r3, [r8, r6]
 2406 01ce 59F80650 		ldr	r5, [r9, r6]
 2407 01d2 0340     		ands	r3, r3, r0
 2408 01d4 0D40     		ands	r5, r5, r1
 2409 01d6 2B43     		orrs	r3, r3, r5
 2410 01d8 A559     		ldr	r5, [r4, r6]
 2411 01da 3D40     		ands	r5, r5, r7
 2412 01dc 1D43     		orrs	r5, r5, r3
 2413 01de 029B     		ldr	r3, [sp, #8]
 2414 01e0 9D51     		str	r5, [r3, r6]
 2415 01e2 0436     		adds	r6, r6, #4
 2416 01e4 A02E     		cmp	r6, #160
 2417 01e6 F0D1     		bne	.L94
 2418 01e8 D3F88030 		ldr	r3, [r3, #128]
 2419 01ec 0299     		ldr	r1, [sp, #8]
 2420 01ee 1343     		orrs	r3, r3, r2
 2421 01f0 C1F88030 		str	r3, [r1, #128]
 2422 01f4 C1F8C020 		str	r2, [r1, #192]
 2423 01f8 05B0     		add	sp, sp, #20
 2424              		@ sp needed
 2425 01fa BDE8F08F 		pop	{r4, r5, r6, r7, r8, r9, r10, fp, pc}
 2427              		.section	.text.sp_256_from_mp.constprop.0,"ax",%progbits
 2428              		.align	1
 2429              		.syntax unified
 2430              		.thumb
 2431              		.thumb_func
 2432              		.fpu fpv4-sp-d16
 2434              	sp_256_from_mp.constprop.0:
 2435              		@ args = 0, pretend = 0, frame = 0
 2436              		@ frame_needed = 0, uses_anonymous_args = 0
 2437 0000 30B5     		push	{r4, r5, lr}
 2438 0002 0024     		movs	r4, #0
 2439 0004 0A88     		ldrh	r2, [r1]
 2440 0006 0438     		subs	r0, r0, #4
 2441 0008 5342     		rsbs	r3, r2, #0
 2442 000a C2F10802 		rsb	r2, r2, #8
 2443              	.L99:
 2444 000e 01EB8405 		add	r5, r1, r4, lsl #2
 2445 0012 6D68     		ldr	r5, [r5, #4]
 2446 0014 05EAE375 		and	r5, r5, r3, asr #31
 2447 0018 0133     		adds	r3, r3, #1
 2448 001a 9342     		cmp	r3, r2
 2449 001c 40F8045F 		str	r5, [r0, #4]!
 2450 0020 04EBD374 		add	r4, r4, r3, lsr #31
 2451 0024 F3D1     		bne	.L99
 2452 0026 30BD     		pop	{r4, r5, pc}
 2454              		.section	.text.sp_256_point_from_ecc_point_8,"ax",%progbits
 2455              		.align	1
 2456              		.syntax unified
 2457              		.thumb
 2458              		.thumb_func
ARM GAS  /tmp/ccwGYw5D.s 			page 43


 2459              		.fpu fpv4-sp-d16
 2461              	sp_256_point_from_ecc_point_8:
 2462              		@ args = 0, pretend = 0, frame = 0
 2463              		@ frame_needed = 0, uses_anonymous_args = 0
 2464 0000 F8B5     		push	{r3, r4, r5, r6, r7, lr}
 2465 0002 0446     		mov	r4, r0
 2466 0004 0D46     		mov	r5, r1
 2467 0006 4022     		movs	r2, #64
 2468 0008 0021     		movs	r1, #0
 2469 000a 04F14007 		add	r7, r4, #64
 2470 000e FFF7FEFF 		bl	memset
 2471 0012 04F18006 		add	r6, r4, #128
 2472 0016 4022     		movs	r2, #64
 2473 0018 0021     		movs	r1, #0
 2474 001a 3846     		mov	r0, r7
 2475 001c FFF7FEFF 		bl	memset
 2476 0020 4022     		movs	r2, #64
 2477 0022 0021     		movs	r1, #0
 2478 0024 3046     		mov	r0, r6
 2479 0026 FFF7FEFF 		bl	memset
 2480 002a 2946     		mov	r1, r5
 2481 002c 2046     		mov	r0, r4
 2482 002e FFF7FEFF 		bl	sp_256_from_mp.constprop.0
 2483 0032 3846     		mov	r0, r7
 2484 0034 05F19001 		add	r1, r5, #144
 2485 0038 FFF7FEFF 		bl	sp_256_from_mp.constprop.0
 2486 003c 3046     		mov	r0, r6
 2487 003e 05F59071 		add	r1, r5, #288
 2488 0042 FFF7FEFF 		bl	sp_256_from_mp.constprop.0
 2489 0046 0023     		movs	r3, #0
 2490 0048 C4F8C030 		str	r3, [r4, #192]
 2491 004c F8BD     		pop	{r3, r4, r5, r6, r7, pc}
 2493              		.section	.text.sp_256_mod_mul_norm_8.constprop.0,"ax",%progbits
 2494              		.align	1
 2495              		.syntax unified
 2496              		.thumb
 2497              		.thumb_func
 2498              		.fpu fpv4-sp-d16
 2500              	sp_256_mod_mul_norm_8.constprop.0:
 2501              		@ args = 0, pretend = 0, frame = 0
 2502              		@ frame_needed = 0, uses_anonymous_args = 0
 2503 0000 2DE9F04F 		push	{r4, r5, r6, r7, r8, r9, r10, fp, lr}
 2504              		.syntax unified
 2505              	@ 32738 "../wolfssl/wolfcrypt/src/sp_cortexm.c" 1
 2506 0004 86B0     		SUB	sp, sp, #0x18
 2507 0006 91E8FC03 		LDM	r1, {r2, r3, r4, r5, r6, r7, r8, r9}
 2508 000a 4FF0000B 		MOV	r11, #0x0
 2509 000e 4FF0000C 		MOV	r12, #0x0
 2510 0012 12EB030A 		ADDS	r10, r2, r3
 2511 0016 4BF1000B 		ADC	r11, r11, #0x0
 2512 001a BAEB050A 		SUBS	r10, r10, r5
 2513 001e 6CF1000C 		SBC	r12, r12, #0x0
 2514 0022 BAEB060A 		SUBS	r10, r10, r6
 2515 0026 6CF1000C 		SBC	r12, r12, #0x0
 2516 002a BAEB070A 		SUBS	r10, r10, r7
 2517 002e 6CF1000C 		SBC	r12, r12, #0x0
 2518 0032 BAEB080A 		SUBS	r10, r10, r8
ARM GAS  /tmp/ccwGYw5D.s 			page 44


 2519 0036 6CF1000C 		SBC	r12, r12, #0x0
 2520 003a CDF800A0 		STR	r10, [sp]
 2521 003e CCF1000C 		neg	r12, r12
 2522 0042 4FF0000A 		MOV	r10, #0x0
 2523 0046 1BEB030B 		ADDS	r11, r11, r3
 2524 004a 4AF1000A 		ADC	r10, r10, #0x0
 2525 004e 1BEB040B 		ADDS	r11, r11, r4
 2526 0052 4AF1000A 		ADC	r10, r10, #0x0
 2527 0056 BBEB0C0B 		SUBS	r11, r11, r12
 2528 005a 6CEB0C0C 		SBC	r12, r12, r12
 2529 005e BBEB060B 		SUBS	r11, r11, r6
 2530 0062 6CF1000C 		SBC	r12, r12, #0x0
 2531 0066 BBEB070B 		SUBS	r11, r11, r7
 2532 006a 6CF1000C 		SBC	r12, r12, #0x0
 2533 006e BBEB080B 		SUBS	r11, r11, r8
 2534 0072 6CF1000C 		SBC	r12, r12, #0x0
 2535 0076 BBEB090B 		SUBS	r11, r11, r9
 2536 007a 6CF1000C 		SBC	r12, r12, #0x0
 2537 007e CDF804B0 		STR	r11, [sp, #4]
 2538 0082 CCF1000C 		neg	r12, r12
 2539 0086 4FF0000B 		MOV	r11, #0x0
 2540 008a 1AEB040A 		ADDS	r10, r10, r4
 2541 008e 4BF1000B 		ADC	r11, r11, #0x0
 2542 0092 1AEB050A 		ADDS	r10, r10, r5
 2543 0096 4BF1000B 		ADC	r11, r11, #0x0
 2544 009a BAEB0C0A 		SUBS	r10, r10, r12
 2545 009e 6CEB0C0C 		SBC	r12, r12, r12
 2546 00a2 BAEB070A 		SUBS	r10, r10, r7
 2547 00a6 6CF1000C 		SBC	r12, r12, #0x0
 2548 00aa BAEB080A 		SUBS	r10, r10, r8
 2549 00ae 6CF1000C 		SBC	r12, r12, #0x0
 2550 00b2 BAEB090A 		SUBS	r10, r10, r9
 2551 00b6 6CF1000C 		SBC	r12, r12, #0x0
 2552 00ba CDF808A0 		STR	r10, [sp, #8]
 2553 00be CCF1000C 		neg	r12, r12
 2554 00c2 4FF0000A 		MOV	r10, #0x0
 2555 00c6 1BEB050B 		ADDS	r11, r11, r5
 2556 00ca 4AF1000A 		ADC	r10, r10, #0x0
 2557 00ce 1BEB050B 		ADDS	r11, r11, r5
 2558 00d2 4AF1000A 		ADC	r10, r10, #0x0
 2559 00d6 1BEB060B 		ADDS	r11, r11, r6
 2560 00da 4AF1000A 		ADC	r10, r10, #0x0
 2561 00de 1BEB060B 		ADDS	r11, r11, r6
 2562 00e2 4AF1000A 		ADC	r10, r10, #0x0
 2563 00e6 1BEB070B 		ADDS	r11, r11, r7
 2564 00ea 4AF1000A 		ADC	r10, r10, #0x0
 2565 00ee BBEB0C0B 		SUBS	r11, r11, r12
 2566 00f2 6CEB0C0C 		SBC	r12, r12, r12
 2567 00f6 BBEB020B 		SUBS	r11, r11, r2
 2568 00fa 6CF1000C 		SBC	r12, r12, #0x0
 2569 00fe BBEB030B 		SUBS	r11, r11, r3
 2570 0102 6CF1000C 		SBC	r12, r12, #0x0
 2571 0106 BBEB090B 		SUBS	r11, r11, r9
 2572 010a 6CF1000C 		SBC	r12, r12, #0x0
 2573 010e CDF80CB0 		STR	r11, [sp, #12]
 2574 0112 CCF1000C 		neg	r12, r12
 2575 0116 4FF0000B 		MOV	r11, #0x0
ARM GAS  /tmp/ccwGYw5D.s 			page 45


 2576 011a 1AEB060A 		ADDS	r10, r10, r6
 2577 011e 4BF1000B 		ADC	r11, r11, #0x0
 2578 0122 1AEB060A 		ADDS	r10, r10, r6
 2579 0126 4BF1000B 		ADC	r11, r11, #0x0
 2580 012a 1AEB070A 		ADDS	r10, r10, r7
 2581 012e 4BF1000B 		ADC	r11, r11, #0x0
 2582 0132 1AEB070A 		ADDS	r10, r10, r7
 2583 0136 4BF1000B 		ADC	r11, r11, #0x0
 2584 013a 1AEB080A 		ADDS	r10, r10, r8
 2585 013e 4BF1000B 		ADC	r11, r11, #0x0
 2586 0142 BAEB0C0A 		SUBS	r10, r10, r12
 2587 0146 6CEB0C0C 		SBC	r12, r12, r12
 2588 014a BAEB030A 		SUBS	r10, r10, r3
 2589 014e 6CF1000C 		SBC	r12, r12, #0x0
 2590 0152 BAEB040A 		SUBS	r10, r10, r4
 2591 0156 6CF1000C 		SBC	r12, r12, #0x0
 2592 015a CDF810A0 		STR	r10, [sp, #16]
 2593 015e CCF1000C 		neg	r12, r12
 2594 0162 4FF0000A 		MOV	r10, #0x0
 2595 0166 1BEB070B 		ADDS	r11, r11, r7
 2596 016a 4AF1000A 		ADC	r10, r10, #0x0
 2597 016e 1BEB070B 		ADDS	r11, r11, r7
 2598 0172 4AF1000A 		ADC	r10, r10, #0x0
 2599 0176 1BEB080B 		ADDS	r11, r11, r8
 2600 017a 4AF1000A 		ADC	r10, r10, #0x0
 2601 017e 1BEB080B 		ADDS	r11, r11, r8
 2602 0182 4AF1000A 		ADC	r10, r10, #0x0
 2603 0186 1BEB090B 		ADDS	r11, r11, r9
 2604 018a 4AF1000A 		ADC	r10, r10, #0x0
 2605 018e BBEB0C0B 		SUBS	r11, r11, r12
 2606 0192 6CEB0C0C 		SBC	r12, r12, r12
 2607 0196 BBEB040B 		SUBS	r11, r11, r4
 2608 019a 6CF1000C 		SBC	r12, r12, #0x0
 2609 019e BBEB050B 		SUBS	r11, r11, r5
 2610 01a2 6CF1000C 		SBC	r12, r12, #0x0
 2611 01a6 CDF814B0 		STR	r11, [sp, #20]
 2612 01aa CCF1000C 		neg	r12, r12
 2613 01ae 4FF0000B 		MOV	r11, #0x0
 2614 01b2 1AEB070A 		ADDS	r10, r10, r7
 2615 01b6 4BF1000B 		ADC	r11, r11, #0x0
 2616 01ba 1AEB080A 		ADDS	r10, r10, r8
 2617 01be 4BF1000B 		ADC	r11, r11, #0x0
 2618 01c2 1AEB080A 		ADDS	r10, r10, r8
 2619 01c6 4BF1000B 		ADC	r11, r11, #0x0
 2620 01ca 1AEB080A 		ADDS	r10, r10, r8
 2621 01ce 4BF1000B 		ADC	r11, r11, #0x0
 2622 01d2 1AEB090A 		ADDS	r10, r10, r9
 2623 01d6 4BF1000B 		ADC	r11, r11, #0x0
 2624 01da 1AEB090A 		ADDS	r10, r10, r9
 2625 01de 4BF1000B 		ADC	r11, r11, #0x0
 2626 01e2 BAEB0C0A 		SUBS	r10, r10, r12
 2627 01e6 6CEB0C0C 		SBC	r12, r12, r12
 2628 01ea BAEB020A 		SUBS	r10, r10, r2
 2629 01ee 6CF1000C 		SBC	r12, r12, #0x0
 2630 01f2 BAEB030A 		SUBS	r10, r10, r3
 2631 01f6 6CF1000C 		SBC	r12, r12, #0x0
 2632 01fa D046     		MOV	r8, r10
ARM GAS  /tmp/ccwGYw5D.s 			page 46


 2633 01fc CCF1000C 		neg	r12, r12
 2634 0200 4FF0000A 		MOV	r10, #0x0
 2635 0204 1BEB020B 		ADDS	r11, r11, r2
 2636 0208 4AF1000A 		ADC	r10, r10, #0x0
 2637 020c 1BEB090B 		ADDS	r11, r11, r9
 2638 0210 4AF1000A 		ADC	r10, r10, #0x0
 2639 0214 1BEB090B 		ADDS	r11, r11, r9
 2640 0218 4AF1000A 		ADC	r10, r10, #0x0
 2641 021c 1BEB090B 		ADDS	r11, r11, r9
 2642 0220 4AF1000A 		ADC	r10, r10, #0x0
 2643 0224 BBEB0C0B 		SUBS	r11, r11, r12
 2644 0228 6CEB0C0C 		SBC	r12, r12, r12
 2645 022c BBEB040B 		SUBS	r11, r11, r4
 2646 0230 6CF1000C 		SBC	r12, r12, #0x0
 2647 0234 BBEB050B 		SUBS	r11, r11, r5
 2648 0238 6CF1000C 		SBC	r12, r12, #0x0
 2649 023c BBEB060B 		SUBS	r11, r11, r6
 2650 0240 6CF1000C 		SBC	r12, r12, #0x0
 2651 0244 BBEB070B 		SUBS	r11, r11, r7
 2652 0248 6CF1000C 		SBC	r12, r12, #0x0
 2653 024c 9DE8FC00 		LDM	sp, {r2, r3, r4, r5, r6, r7}
 2654 0250 CCF1000C 		neg	r12, r12
 2655 0254 12EB0A02 		ADDS	r2, r2, r10
 2656 0258 53F10003 		ADCS	r3, r3, #0x0
 2657 025c 54F10004 		ADCS	r4, r4, #0x0
 2658 0260 55EB0C05 		ADCS	r5, r5, r12
 2659 0264 56F10006 		ADCS	r6, r6, #0x0
 2660 0268 57F10007 		ADCS	r7, r7, #0x0
 2661 026c 58EB0C08 		ADCS	r8, r8, r12
 2662 0270 5BEB0A0B 		ADCS	r11, r11, r10
 2663 0274 4FF00009 		MOV	r9, #0x0
 2664 0278 49F10009 		ADC	r9, r9, #0x0
 2665 027c B2EB0C02 		SUBS	r2, r2, r12
 2666 0280 73F10003 		SBCS	r3, r3, #0x0
 2667 0284 74F10004 		SBCS	r4, r4, #0x0
 2668 0288 75EB0A05 		SBCS	r5, r5, r10
 2669 028c 76F10006 		SBCS	r6, r6, #0x0
 2670 0290 77F10007 		SBCS	r7, r7, #0x0
 2671 0294 78EB0A08 		SBCS	r8, r8, r10
 2672 0298 7BEB0C0B 		SBCS	r11, r11, r12
 2673 029c 4FF0000C 		MOV	r12, #0x0
 2674 02a0 6CF1000C 		SBC	r12, r12, #0x0
 2675 02a4 CCF1000C 		neg	r12, r12
 2676 02a8 12EB0902 		ADDS	r2, r2, r9
 2677 02ac 53F10003 		ADCS	r3, r3, #0x0
 2678 02b0 54F10004 		ADCS	r4, r4, #0x0
 2679 02b4 55EB0C05 		ADCS	r5, r5, r12
 2680 02b8 56F10006 		ADCS	r6, r6, #0x0
 2681 02bc 57F10007 		ADCS	r7, r7, #0x0
 2682 02c0 58EB0C08 		ADCS	r8, r8, r12
 2683 02c4 4BEB090B 		ADC	r11, r11, r9
 2684 02c8 B2EB0C02 		SUBS	r2, r2, r12
 2685 02cc 73F10003 		SBCS	r3, r3, #0x0
 2686 02d0 74F10004 		SBCS	r4, r4, #0x0
 2687 02d4 75EB0905 		SBCS	r5, r5, r9
 2688 02d8 76F10006 		SBCS	r6, r6, #0x0
 2689 02dc 77F10007 		SBCS	r7, r7, #0x0
ARM GAS  /tmp/ccwGYw5D.s 			page 47


 2690 02e0 78EB0908 		SBCS	r8, r8, r9
 2691 02e4 6BEB0C0B 		SBC	r11, r11, r12
 2692 02e8 80E8FC09 		STM	r0, {r2, r3, r4, r5, r6, r7, r8, r11}
 2693 02ec 4FF00000 		MOV	r0, #0x0
 2694 02f0 06B0     		ADD	sp, sp, #0x18
 2695              		
 2696              	@ 0 "" 2
 2697              		.thumb
 2698              		.syntax unified
 2699 02f2 BDE8F08F 		pop	{r4, r5, r6, r7, r8, r9, r10, fp, pc}
 2701              		.section	.text.sp_256_cond_sub_8.isra.0,"ax",%progbits
 2702              		.align	1
 2703              		.syntax unified
 2704              		.thumb
 2705              		.thumb_func
 2706              		.fpu fpv4-sp-d16
 2708              	sp_256_cond_sub_8.isra.0:
 2709              		@ args = 0, pretend = 0, frame = 0
 2710              		@ frame_needed = 0, uses_anonymous_args = 0
 2711 0000 2DE9F043 		push	{r4, r5, r6, r7, r8, r9, lr}
 2712              		.syntax unified
 2713              	@ 34902 "../wolfssl/wolfcrypt/src/sp_cortexm.c" 1
 2714 0004 4FF00005 		MOV	r5, #0x0
 2715 0008 C0C9     		LDM	r1!, {r6, r7}
 2716 000a B2E80003 		LDM	r2!, {r8, r9}
 2717 000e 08EA0308 		AND	r8, r8, r3
 2718 0012 09EA0309 		AND	r9, r9, r3
 2719 0016 B6EB0806 		SUBS	r6, r6, r8
 2720 001a 77EB0907 		SBCS	r7, r7, r9
 2721 001e C0C0     		STM	r0!, {r6, r7}
 2722 0020 C0C9     		LDM	r1!, {r6, r7}
 2723 0022 B2E80003 		LDM	r2!, {r8, r9}
 2724 0026 08EA0308 		AND	r8, r8, r3
 2725 002a 09EA0309 		AND	r9, r9, r3
 2726 002e 76EB0806 		SBCS	r6, r6, r8
 2727 0032 77EB0907 		SBCS	r7, r7, r9
 2728 0036 C0C0     		STM	r0!, {r6, r7}
 2729 0038 C0C9     		LDM	r1!, {r6, r7}
 2730 003a B2E80003 		LDM	r2!, {r8, r9}
 2731 003e 08EA0308 		AND	r8, r8, r3
 2732 0042 09EA0309 		AND	r9, r9, r3
 2733 0046 76EB0806 		SBCS	r6, r6, r8
 2734 004a 77EB0907 		SBCS	r7, r7, r9
 2735 004e C0C0     		STM	r0!, {r6, r7}
 2736 0050 C0C9     		LDM	r1!, {r6, r7}
 2737 0052 B2E80003 		LDM	r2!, {r8, r9}
 2738 0056 08EA0308 		AND	r8, r8, r3
 2739 005a 09EA0309 		AND	r9, r9, r3
 2740 005e 76EB0806 		SBCS	r6, r6, r8
 2741 0062 77EB0907 		SBCS	r7, r7, r9
 2742 0066 C0C0     		STM	r0!, {r6, r7}
 2743 0068 65EB0500 		SBC	r0, r5, r5
 2744              		
 2745              	@ 0 "" 2
 2746              		.thumb
 2747              		.syntax unified
 2748 006c BDE8F083 		pop	{r4, r5, r6, r7, r8, r9, pc}
ARM GAS  /tmp/ccwGYw5D.s 			page 48


 2750              		.section	.text.sp_256_mont_reduce_8,"ax",%progbits
 2751              		.align	1
 2752              		.syntax unified
 2753              		.thumb
 2754              		.thumb_func
 2755              		.fpu fpv4-sp-d16
 2757              	sp_256_mont_reduce_8:
 2758              		@ args = 0, pretend = 0, frame = 0
 2759              		@ frame_needed = 0, uses_anonymous_args = 0
 2760 0000 2DE9F04F 		push	{r4, r5, r6, r7, r8, r9, r10, fp, lr}
 2761              		.syntax unified
 2762              	@ 35087 "../wolfssl/wolfcrypt/src/sp_cortexm.c" 1
 2763 0004 4FF00004 		MOV	r4, #0x0
 2764 0008 4FF00005 		MOV	r5, #0x0
 2765 000c 0668     		LDR	r6, [r0]
 2766 000e 4768     		LDR	r7, [r0, #4]
 2767 0010 D0F80880 		LDR	r8, [r0, #8]
 2768 0014 D0F80C90 		LDR	r9, [r0, #12]
 2769 0018 D0F810A0 		LDR	r10, [r0, #16]
 2770              		
 2771              	L_sp_256_mont_reduce_8_word_1256:
 2772 001c 02FB06FE 		MUL	lr, r2, r6
 2773 0020 D1F800C0 		LDR	r12, [r1]
 2774 0024 4FF00003 		MOV	r3, #0x0
 2775 0028 EEFB6C63 		UMAAL	r6, r3, lr, r12
 2776 002c D1F804C0 		LDR	r12, [r1, #4]
 2777 0030 3E46     		MOV	r6, r7
 2778 0032 EEFB6C63 		UMAAL	r6, r3, lr, r12
 2779 0036 D1F808C0 		LDR	r12, [r1, #8]
 2780 003a 4746     		MOV	r7, r8
 2781 003c EEFB6C73 		UMAAL	r7, r3, lr, r12
 2782 0040 D1F80CC0 		LDR	r12, [r1, #12]
 2783 0044 C846     		MOV	r8, r9
 2784 0046 EEFB6C83 		UMAAL	r8, r3, lr, r12
 2785 004a D1F810C0 		LDR	r12, [r1, #16]
 2786 004e D146     		MOV	r9, r10
 2787 0050 EEFB6C93 		UMAAL	r9, r3, lr, r12
 2788 0054 D1F814C0 		LDR	r12, [r1, #20]
 2789 0058 D0F814A0 		LDR	r10, [r0, #20]
 2790 005c EEFB6CA3 		UMAAL	r10, r3, lr, r12
 2791 0060 D1F818C0 		LDR	r12, [r1, #24]
 2792 0064 D0F818B0 		LDR	r11, [r0, #24]
 2793 0068 EEFB6CB3 		UMAAL	r11, r3, lr, r12
 2794 006c C0F818B0 		STR	r11, [r0, #24]
 2795 0070 D1F81CC0 		LDR	r12, [r1, #28]
 2796 0074 D0F81CB0 		LDR	r11, [r0, #28]
 2797 0078 EEFB6CB3 		UMAAL	r11, r3, lr, r12
 2798 007c D0F820E0 		LDR	lr, [r0, #32]
 2799 0080 4FF0000C 		MOV	r12, #0x0
 2800 0084 ECFB6C3E 		UMAAL	r3, lr, r12, r12
 2801 0088 C0F81CB0 		STR	r11, [r0, #28]
 2802 008c 5B19     		ADDS	r3, r3, r5
 2803 008e 4EF10005 		ADC	r5, lr, #0x0
 2804 0092 0362     		STR	r3, [r0, #32]
 2805 0094 04F10404 		ADD	r4, r4, #0x4
 2806 0098 00F10400 		ADD	r0, r0, #0x4
 2807 009c 202C     		CMP	r4, #0x20
ARM GAS  /tmp/ccwGYw5D.s 			page 49


 2808 009e BDDB     		BLT	L_sp_256_mont_reduce_8_word_1256
 2809 00a0 0660     		STR	r6, [r0]
 2810 00a2 4760     		STR	r7, [r0, #4]
 2811 00a4 C0F80880 		STR	r8, [r0, #8]
 2812 00a8 C0F80C90 		STR	r9, [r0, #12]
 2813 00ac C0F810A0 		STR	r10, [r0, #16]
 2814 00b0 2A46     		MOV	r2, r5
 2815              		
 2816              	@ 0 "" 2
 2817              		.thumb
 2818              		.syntax unified
 2819 00b2 BDE8F04F 		pop	{r4, r5, r6, r7, r8, r9, r10, fp, lr}
 2820 00b6 5342     		rsbs	r3, r2, #0
 2821 00b8 0A46     		mov	r2, r1
 2822 00ba 0146     		mov	r1, r0
 2823 00bc 2038     		subs	r0, r0, #32
 2824 00be FFF7FEBF 		b	sp_256_cond_sub_8.isra.0
 2826              		.section	.text.sp_256_mont_mul_order_8,"ax",%progbits
 2827              		.align	1
 2828              		.syntax unified
 2829              		.thumb
 2830              		.thumb_func
 2831              		.fpu fpv4-sp-d16
 2833              	sp_256_mont_mul_order_8:
 2834              		@ args = 0, pretend = 0, frame = 0
 2835              		@ frame_needed = 0, uses_anonymous_args = 0
 2836 0000 10B5     		push	{r4, lr}
 2837 0002 0446     		mov	r4, r0
 2838 0004 FFF7FEFF 		bl	sp_256_mul_8
 2839 0008 2046     		mov	r0, r4
 2840 000a BDE81040 		pop	{r4, lr}
 2841 000e 024A     		ldr	r2, .L109
 2842 0010 0249     		ldr	r1, .L109+4
 2843 0012 FFF7FEBF 		b	sp_256_mont_reduce_8
 2844              	.L110:
 2845 0016 00BF     		.align	2
 2846              	.L109:
 2847 0018 4FBC00EE 		.word	-301941681
 2848 001c 00000000 		.word	.LANCHOR0
 2850              		.section	.text.sp_256_mont_sqr_order_8,"ax",%progbits
 2851              		.align	1
 2852              		.syntax unified
 2853              		.thumb
 2854              		.thumb_func
 2855              		.fpu fpv4-sp-d16
 2857              	sp_256_mont_sqr_order_8:
 2858              		@ args = 0, pretend = 0, frame = 0
 2859              		@ frame_needed = 0, uses_anonymous_args = 0
 2860 0000 10B5     		push	{r4, lr}
 2861 0002 0446     		mov	r4, r0
 2862 0004 FFF7FEFF 		bl	sp_256_sqr_8
 2863 0008 2046     		mov	r0, r4
 2864 000a BDE81040 		pop	{r4, lr}
 2865 000e 024A     		ldr	r2, .L112
 2866 0010 0249     		ldr	r1, .L112+4
 2867 0012 FFF7FEBF 		b	sp_256_mont_reduce_8
 2868              	.L113:
ARM GAS  /tmp/ccwGYw5D.s 			page 50


 2869 0016 00BF     		.align	2
 2870              	.L112:
 2871 0018 4FBC00EE 		.word	-301941681
 2872 001c 00000000 		.word	.LANCHOR0
 2874              		.section	.text.sp_256_mont_sqr_n_order_8,"ax",%progbits
 2875              		.align	1
 2876              		.syntax unified
 2877              		.thumb
 2878              		.thumb_func
 2879              		.fpu fpv4-sp-d16
 2881              	sp_256_mont_sqr_n_order_8:
 2882              		@ args = 0, pretend = 0, frame = 0
 2883              		@ frame_needed = 0, uses_anonymous_args = 0
 2884 0000 70B5     		push	{r4, r5, r6, lr}
 2885 0002 0446     		mov	r4, r0
 2886 0004 1646     		mov	r6, r2
 2887 0006 0125     		movs	r5, #1
 2888 0008 FFF7FEFF 		bl	sp_256_mont_sqr_order_8
 2889              	.L115:
 2890 000c 2146     		mov	r1, r4
 2891 000e 2046     		mov	r0, r4
 2892 0010 0135     		adds	r5, r5, #1
 2893 0012 FFF7FEFF 		bl	sp_256_mont_sqr_order_8
 2894 0016 AE42     		cmp	r6, r5
 2895 0018 F8D1     		bne	.L115
 2896 001a 70BD     		pop	{r4, r5, r6, pc}
 2898              		.section	.text.sp_256_map_8,"ax",%progbits
 2899              		.align	1
 2900              		.syntax unified
 2901              		.thumb
 2902              		.thumb_func
 2903              		.fpu fpv4-sp-d16
 2905              	sp_256_map_8:
 2906              		@ args = 0, pretend = 0, frame = 0
 2907              		@ frame_needed = 0, uses_anonymous_args = 0
 2908 0000 2DE9F047 		push	{r4, r5, r6, r7, r8, r9, r10, lr}
 2909 0004 1546     		mov	r5, r2
 2910 0006 02F14004 		add	r4, r2, #64
 2911 000a 01F1800A 		add	r10, r1, #128
 2912 000e 02F18006 		add	r6, r2, #128
 2913 0012 0746     		mov	r7, r0
 2914 0014 8946     		mov	r9, r1
 2915 0016 2046     		mov	r0, r4
 2916 0018 5146     		mov	r1, r10
 2917 001a 02F1C008 		add	r8, r2, #192
 2918 001e FFF7FEFF 		bl	sp_256_mont_sqr_8.constprop.0
 2919 0022 2146     		mov	r1, r4
 2920 0024 3046     		mov	r0, r6
 2921 0026 5246     		mov	r2, r10
 2922 0028 FFF7FEFF 		bl	sp_256_mont_mul_8.constprop.0
 2923 002c 3146     		mov	r1, r6
 2924 002e 2046     		mov	r0, r4
 2925 0030 0222     		movs	r2, #2
 2926 0032 FFF7FEFF 		bl	sp_256_mont_sqr_n_8.constprop.0
 2927 0036 2146     		mov	r1, r4
 2928 0038 4046     		mov	r0, r8
 2929 003a 5246     		mov	r2, r10
ARM GAS  /tmp/ccwGYw5D.s 			page 51


 2930 003c FFF7FEFF 		bl	sp_256_mont_mul_8.constprop.0
 2931 0040 2246     		mov	r2, r4
 2932 0042 3146     		mov	r1, r6
 2933 0044 3046     		mov	r0, r6
 2934 0046 FFF7FEFF 		bl	sp_256_mont_mul_8.constprop.0
 2935 004a 3146     		mov	r1, r6
 2936 004c 2046     		mov	r0, r4
 2937 004e 0422     		movs	r2, #4
 2938 0050 FFF7FEFF 		bl	sp_256_mont_sqr_n_8.constprop.0
 2939 0054 2246     		mov	r2, r4
 2940 0056 4146     		mov	r1, r8
 2941 0058 4046     		mov	r0, r8
 2942 005a FFF7FEFF 		bl	sp_256_mont_mul_8.constprop.0
 2943 005e 2246     		mov	r2, r4
 2944 0060 3146     		mov	r1, r6
 2945 0062 3046     		mov	r0, r6
 2946 0064 FFF7FEFF 		bl	sp_256_mont_mul_8.constprop.0
 2947 0068 3146     		mov	r1, r6
 2948 006a 2046     		mov	r0, r4
 2949 006c 0822     		movs	r2, #8
 2950 006e FFF7FEFF 		bl	sp_256_mont_sqr_n_8.constprop.0
 2951 0072 2246     		mov	r2, r4
 2952 0074 4146     		mov	r1, r8
 2953 0076 4046     		mov	r0, r8
 2954 0078 FFF7FEFF 		bl	sp_256_mont_mul_8.constprop.0
 2955 007c 2246     		mov	r2, r4
 2956 007e 3146     		mov	r1, r6
 2957 0080 3046     		mov	r0, r6
 2958 0082 FFF7FEFF 		bl	sp_256_mont_mul_8.constprop.0
 2959 0086 3146     		mov	r1, r6
 2960 0088 2046     		mov	r0, r4
 2961 008a 1022     		movs	r2, #16
 2962 008c FFF7FEFF 		bl	sp_256_mont_sqr_n_8.constprop.0
 2963 0090 2246     		mov	r2, r4
 2964 0092 4146     		mov	r1, r8
 2965 0094 4046     		mov	r0, r8
 2966 0096 FFF7FEFF 		bl	sp_256_mont_mul_8.constprop.0
 2967 009a 2246     		mov	r2, r4
 2968 009c 3146     		mov	r1, r6
 2969 009e 3046     		mov	r0, r6
 2970 00a0 FFF7FEFF 		bl	sp_256_mont_mul_8.constprop.0
 2971 00a4 3146     		mov	r1, r6
 2972 00a6 2046     		mov	r0, r4
 2973 00a8 2022     		movs	r2, #32
 2974 00aa FFF7FEFF 		bl	sp_256_mont_sqr_n_8.constprop.0
 2975 00ae 2246     		mov	r2, r4
 2976 00b0 3146     		mov	r1, r6
 2977 00b2 3046     		mov	r0, r6
 2978 00b4 FFF7FEFF 		bl	sp_256_mont_mul_8.constprop.0
 2979 00b8 2146     		mov	r1, r4
 2980 00ba 5246     		mov	r2, r10
 2981 00bc 2846     		mov	r0, r5
 2982 00be FFF7FEFF 		bl	sp_256_mont_mul_8.constprop.0
 2983 00c2 A022     		movs	r2, #160
 2984 00c4 2946     		mov	r1, r5
 2985 00c6 2846     		mov	r0, r5
 2986 00c8 FFF7FEFF 		bl	sp_256_mont_sqr_n_8.constprop.0
ARM GAS  /tmp/ccwGYw5D.s 			page 52


 2987 00cc 3246     		mov	r2, r6
 2988 00ce 2946     		mov	r1, r5
 2989 00d0 2846     		mov	r0, r5
 2990 00d2 FFF7FEFF 		bl	sp_256_mont_mul_8.constprop.0
 2991 00d6 2022     		movs	r2, #32
 2992 00d8 2946     		mov	r1, r5
 2993 00da 2846     		mov	r0, r5
 2994 00dc FFF7FEFF 		bl	sp_256_mont_sqr_n_8.constprop.0
 2995 00e0 4246     		mov	r2, r8
 2996 00e2 4FF02008 		mov	r8, #32
 2997 00e6 2946     		mov	r1, r5
 2998 00e8 2846     		mov	r0, r5
 2999 00ea FFF7FEFF 		bl	sp_256_mont_mul_8.constprop.0
 3000 00ee 2046     		mov	r0, r4
 3001 00f0 2946     		mov	r1, r5
 3002 00f2 FFF7FEFF 		bl	sp_256_mont_sqr_8.constprop.0
 3003 00f6 2146     		mov	r1, r4
 3004 00f8 2A46     		mov	r2, r5
 3005 00fa 2846     		mov	r0, r5
 3006 00fc FFF7FEFF 		bl	sp_256_mont_mul_8.constprop.0
 3007 0100 2246     		mov	r2, r4
 3008 0102 4946     		mov	r1, r9
 3009 0104 3846     		mov	r0, r7
 3010 0106 FFF7FEFF 		bl	sp_256_mont_mul_8.constprop.0
 3011 010a 4246     		mov	r2, r8
 3012 010c 1E4C     		ldr	r4, .L118
 3013 010e 0021     		movs	r1, #0
 3014 0110 B818     		adds	r0, r7, r2
 3015 0112 FFF7FEFF 		bl	memset
 3016 0116 0122     		movs	r2, #1
 3017 0118 2146     		mov	r1, r4
 3018 011a 3846     		mov	r0, r7
 3019 011c FFF7FEFF 		bl	sp_256_mont_reduce_8
 3020 0120 2146     		mov	r1, r4
 3021 0122 3846     		mov	r0, r7
 3022 0124 FFF7FEFF 		bl	sp_256_cmp_8
 3023 0128 C017     		asrs	r0, r0, #31
 3024 012a C343     		mvns	r3, r0
 3025 012c 07F14006 		add	r6, r7, #64
 3026 0130 2246     		mov	r2, r4
 3027 0132 3946     		mov	r1, r7
 3028 0134 3846     		mov	r0, r7
 3029 0136 FFF7FEFF 		bl	sp_256_cond_sub_8.isra.0
 3030 013a 2A46     		mov	r2, r5
 3031 013c 3046     		mov	r0, r6
 3032 013e 09F14001 		add	r1, r9, #64
 3033 0142 FFF7FEFF 		bl	sp_256_mont_mul_8.constprop.0
 3034 0146 4246     		mov	r2, r8
 3035 0148 0021     		movs	r1, #0
 3036 014a 07F16000 		add	r0, r7, #96
 3037 014e FFF7FEFF 		bl	memset
 3038 0152 0122     		movs	r2, #1
 3039 0154 2146     		mov	r1, r4
 3040 0156 3046     		mov	r0, r6
 3041 0158 FFF7FEFF 		bl	sp_256_mont_reduce_8
 3042 015c 2146     		mov	r1, r4
 3043 015e 3046     		mov	r0, r6
ARM GAS  /tmp/ccwGYw5D.s 			page 53


 3044 0160 FFF7FEFF 		bl	sp_256_cmp_8
 3045 0164 C017     		asrs	r0, r0, #31
 3046 0166 C343     		mvns	r3, r0
 3047 0168 2246     		mov	r2, r4
 3048 016a 3146     		mov	r1, r6
 3049 016c 3046     		mov	r0, r6
 3050 016e FFF7FEFF 		bl	sp_256_cond_sub_8.isra.0
 3051 0172 1C22     		movs	r2, #28
 3052 0174 0021     		movs	r1, #0
 3053 0176 07F18400 		add	r0, r7, #132
 3054 017a FFF7FEFF 		bl	memset
 3055 017e 0123     		movs	r3, #1
 3056 0180 C7F88030 		str	r3, [r7, #128]
 3057 0184 BDE8F087 		pop	{r4, r5, r6, r7, r8, r9, r10, pc}
 3058              	.L119:
 3059              		.align	2
 3060              	.L118:
 3061 0188 00000000 		.word	.LANCHOR2
 3063              		.section	.text.sp_256_ecc_mulmod_stripe_8.constprop.0,"ax",%progbits
 3064              		.align	1
 3065              		.syntax unified
 3066              		.thumb
 3067              		.thumb_func
 3068              		.fpu fpv4-sp-d16
 3070              	sp_256_ecc_mulmod_stripe_8.constprop.0:
 3071              		@ args = 0, pretend = 0, frame = 24
 3072              		@ frame_needed = 0, uses_anonymous_args = 0
 3073 0000 2DE9F04F 		push	{r4, r5, r6, r7, r8, r9, r10, fp, lr}
 3074 0004 2DED028B 		vpush.64	{d8}
 3075 0008 08EE100A 		vmov	s16, r0	@ int
 3076 000c 87B0     		sub	sp, sp, #28
 3077 000e 4FF4C470 		mov	r0, #392
 3078 0012 CDE90212 		strd	r1, r2, [sp, #8]
 3079 0016 0493     		str	r3, [sp, #16]
 3080 0018 FFF7FEFF 		bl	wolfSSL_Malloc
 3081 001c 0446     		mov	r4, r0
 3082 001e 0028     		cmp	r0, #0
 3083 0020 00F0A781 		beq	.L144
 3084 0024 4FF4C070 		mov	r0, #384
 3085 0028 FFF7FEFF 		bl	wolfSSL_Malloc
 3086 002c 0546     		mov	r5, r0
 3087 002e 0028     		cmp	r0, #0
 3088 0030 00F0A281 		beq	.L145
 3089 0034 D24F     		ldr	r7, .L158
 3090 0036 04F5A272 		add	r2, r4, #324
 3091 003a 07F12006 		add	r6, r7, #32
 3092              	.L123:
 3093 003e 3B46     		mov	r3, r7
 3094 0040 03CB     		ldmia	r3!, {r0, r1}
 3095 0042 B342     		cmp	r3, r6
 3096 0044 1060     		str	r0, [r2]	@ unaligned
 3097 0046 5160     		str	r1, [r2, #4]	@ unaligned
 3098 0048 1F46     		mov	r7, r3
 3099 004a 02F10802 		add	r2, r2, #8
 3100 004e F6D1     		bne	.L123
 3101 0050 04F1800A 		add	r10, r4, #128
 3102 0054 5246     		mov	r2, r10
ARM GAS  /tmp/ccwGYw5D.s 			page 54


 3103 0056 CA4F     		ldr	r7, .L158
 3104              	.L124:
 3105 0058 3B46     		mov	r3, r7
 3106 005a 03CB     		ldmia	r3!, {r0, r1}
 3107 005c B342     		cmp	r3, r6
 3108 005e 1060     		str	r0, [r2]	@ unaligned
 3109 0060 5160     		str	r1, [r2, #4]	@ unaligned
 3110 0062 1F46     		mov	r7, r3
 3111 0064 02F10802 		add	r2, r2, #8
 3112 0068 F6D1     		bne	.L124
 3113 006a 0026     		movs	r6, #0
 3114 006c 3346     		mov	r3, r6
 3115              	.L125:
 3116 006e 0299     		ldr	r1, [sp, #8]
 3117 0070 43F31A02 		sbfx	r2, r3, #0, #27
 3118 0074 51F82220 		ldr	r2, [r1, r2, lsl #2]
 3119 0078 D20F     		lsrs	r2, r2, #31
 3120 007a 9A40     		lsls	r2, r2, r3
 3121 007c 0133     		adds	r3, r3, #1
 3122 007e 082B     		cmp	r3, #8
 3123 0080 46EA0206 		orr	r6, r6, r2
 3124 0084 F3D1     		bne	.L125
 3125 0086 049B     		ldr	r3, [sp, #16]
 3126 0088 04F1400B 		add	fp, r4, #64
 3127 008c 002B     		cmp	r3, #0
 3128 008e 7DD0     		beq	.L126
 3129 0090 3146     		mov	r1, r6
 3130 0092 2046     		mov	r0, r4
 3131 0094 FFF7FEFF 		bl	sp_256_get_entry_256_8.constprop.0
 3132              	.L127:
 3133 0098 1E23     		movs	r3, #30
 3134 009a B6FA86F6 		clz	r6, r6
 3135 009e 0093     		str	r3, [sp]
 3136 00a0 7609     		lsrs	r6, r6, #5
 3137 00a2 04F58273 		add	r3, r4, #260
 3138 00a6 04F1C409 		add	r9, r4, #196
 3139 00aa C4F8C060 		str	r6, [r4, #192]
 3140 00ae 0193     		str	r3, [sp, #4]
 3141              	.L130:
 3142 00b0 0026     		movs	r6, #0
 3143 00b2 3246     		mov	r2, r6
 3144              	.L131:
 3145 00b4 009B     		ldr	r3, [sp]
 3146 00b6 03EB4213 		add	r3, r3, r2, lsl #5
 3147 00ba 5811     		asrs	r0, r3, #5
 3148 00bc 03F01F01 		and	r1, r3, #31
 3149 00c0 029B     		ldr	r3, [sp, #8]
 3150 00c2 53F82030 		ldr	r3, [r3, r0, lsl #2]
 3151 00c6 CB40     		lsrs	r3, r3, r1
 3152 00c8 03F00103 		and	r3, r3, #1
 3153 00cc 9340     		lsls	r3, r3, r2
 3154 00ce 0132     		adds	r2, r2, #1
 3155 00d0 082A     		cmp	r2, #8
 3156 00d2 46EA0306 		orr	r6, r6, r3
 3157 00d6 EDD1     		bne	.L131
 3158 00d8 2A46     		mov	r2, r5
 3159 00da 2146     		mov	r1, r4
ARM GAS  /tmp/ccwGYw5D.s 			page 55


 3160 00dc 2046     		mov	r0, r4
 3161 00de FFF7FEFF 		bl	sp_256_proj_point_dbl_8
 3162 00e2 049B     		ldr	r3, [sp, #16]
 3163 00e4 002B     		cmp	r3, #0
 3164 00e6 70D0     		beq	.L132
 3165 00e8 3146     		mov	r1, r6
 3166 00ea 4846     		mov	r0, r9
 3167 00ec FFF7FEFF 		bl	sp_256_get_entry_256_8.constprop.0
 3168              	.L133:
 3169 00f0 B6FA86F6 		clz	r6, r6
 3170 00f4 7609     		lsrs	r6, r6, #5
 3171 00f6 05F58078 		add	r8, r5, #256
 3172 00fa 5146     		mov	r1, r10
 3173 00fc 2846     		mov	r0, r5
 3174 00fe C4F88461 		str	r6, [r4, #388]
 3175 0102 FFF7FEFF 		bl	sp_256_mont_sqr_8.constprop.0
 3176 0106 5246     		mov	r2, r10
 3177 0108 2946     		mov	r1, r5
 3178 010a 4046     		mov	r0, r8
 3179 010c FFF7FEFF 		bl	sp_256_mont_mul_8.constprop.0
 3180 0110 4A46     		mov	r2, r9
 3181 0112 2946     		mov	r1, r5
 3182 0114 2846     		mov	r0, r5
 3183 0116 FFF7FEFF 		bl	sp_256_mont_mul_8.constprop.0
 3184 011a 019A     		ldr	r2, [sp, #4]
 3185 011c 4146     		mov	r1, r8
 3186 011e 4046     		mov	r0, r8
 3187 0120 FFF7FEFF 		bl	sp_256_mont_mul_8.constprop.0
 3188 0124 2946     		mov	r1, r5
 3189 0126 2046     		mov	r0, r4
 3190 0128 FFF7FEFF 		bl	sp_256_cmp_equal_8
 3191 012c 4146     		mov	r1, r8
 3192 012e 0646     		mov	r6, r0
 3193 0130 5846     		mov	r0, fp
 3194 0132 FFF7FEFF 		bl	sp_256_cmp_equal_8
 3195 0136 D4F8C030 		ldr	r3, [r4, #192]
 3196 013a D4F88421 		ldr	r2, [r4, #388]
 3197 013e 3040     		ands	r0, r0, r6
 3198 0140 1343     		orrs	r3, r3, r2
 3199 0142 30EA0303 		bics	r3, r0, r3
 3200 0146 5FD0     		beq	.L136
 3201 0148 2A46     		mov	r2, r5
 3202 014a 2146     		mov	r1, r4
 3203 014c 2046     		mov	r0, r4
 3204 014e FFF7FEFF 		bl	sp_256_proj_point_dbl_8
 3205              	.L137:
 3206 0152 009B     		ldr	r3, [sp]
 3207 0154 013B     		subs	r3, r3, #1
 3208 0156 0093     		str	r3, [sp]
 3209 0158 0133     		adds	r3, r3, #1
 3210 015a A9D1     		bne	.L130
 3211 015c 039B     		ldr	r3, [sp, #12]
 3212 015e 002B     		cmp	r3, #0
 3213 0160 00F00081 		beq	.L142
 3214 0164 2A46     		mov	r2, r5
 3215 0166 2146     		mov	r1, r4
 3216 0168 18EE100A 		vmov	r0, s16	@ int
ARM GAS  /tmp/ccwGYw5D.s 			page 56


 3217 016c FFF7FEFF 		bl	sp_256_map_8
 3218              	.L157:
 3219 0170 0026     		movs	r6, #0
 3220              	.L122:
 3221 0172 2046     		mov	r0, r4
 3222 0174 FFF7FEFF 		bl	wolfSSL_Free
 3223 0178 15B1     		cbz	r5, .L120
 3224 017a 2846     		mov	r0, r5
 3225 017c FFF7FEFF 		bl	wolfSSL_Free
 3226              	.L120:
 3227 0180 3046     		mov	r0, r6
 3228 0182 07B0     		add	sp, sp, #28
 3229              		@ sp needed
 3230 0184 BDEC028B 		vldm	sp!, {d8}
 3231 0188 BDE8F08F 		pop	{r4, r5, r6, r7, r8, r9, r10, fp, pc}
 3232              	.L126:
 3233 018c 7D4B     		ldr	r3, .L158+4
 3234 018e 2746     		mov	r7, r4
 3235 0190 03EB8613 		add	r3, r3, r6, lsl #6
 3236 0194 9C46     		mov	ip, r3
 3237 0196 03F1200E 		add	lr, r3, #32
 3238              	.L128:
 3239 019a 6246     		mov	r2, ip
 3240 019c 03CA     		ldmia	r2!, {r0, r1}
 3241 019e 7245     		cmp	r2, lr
 3242 01a0 3860     		str	r0, [r7]	@ unaligned
 3243 01a2 7960     		str	r1, [r7, #4]	@ unaligned
 3244 01a4 9446     		mov	ip, r2
 3245 01a6 07F10807 		add	r7, r7, #8
 3246 01aa F6D1     		bne	.L128
 3247 01ac 5A46     		mov	r2, fp
 3248 01ae 03F12007 		add	r7, r3, #32
 3249 01b2 4033     		adds	r3, r3, #64
 3250              	.L129:
 3251 01b4 BC46     		mov	ip, r7
 3252 01b6 BCE80300 		ldmia	ip!, {r0, r1}
 3253 01ba 9C45     		cmp	ip, r3
 3254 01bc 1060     		str	r0, [r2]	@ unaligned
 3255 01be 5160     		str	r1, [r2, #4]	@ unaligned
 3256 01c0 6746     		mov	r7, ip
 3257 01c2 02F10802 		add	r2, r2, #8
 3258 01c6 F5D1     		bne	.L129
 3259 01c8 66E7     		b	.L127
 3260              	.L132:
 3261 01ca 6E4B     		ldr	r3, .L158+4
 3262 01cc 4F46     		mov	r7, r9
 3263 01ce 03EB8613 		add	r3, r3, r6, lsl #6
 3264 01d2 9C46     		mov	ip, r3
 3265 01d4 03F1200E 		add	lr, r3, #32
 3266              	.L134:
 3267 01d8 6246     		mov	r2, ip
 3268 01da 03CA     		ldmia	r2!, {r0, r1}
 3269 01dc 7245     		cmp	r2, lr
 3270 01de 3860     		str	r0, [r7]	@ unaligned
 3271 01e0 7960     		str	r1, [r7, #4]	@ unaligned
 3272 01e2 9446     		mov	ip, r2
 3273 01e4 07F10807 		add	r7, r7, #8
ARM GAS  /tmp/ccwGYw5D.s 			page 57


 3274 01e8 F6D1     		bne	.L134
 3275 01ea 019A     		ldr	r2, [sp, #4]
 3276 01ec 03F12007 		add	r7, r3, #32
 3277 01f0 4033     		adds	r3, r3, #64
 3278              	.L135:
 3279 01f2 BC46     		mov	ip, r7
 3280 01f4 BCE80300 		ldmia	ip!, {r0, r1}
 3281 01f8 9C45     		cmp	ip, r3
 3282 01fa 1060     		str	r0, [r2]	@ unaligned
 3283 01fc 5160     		str	r1, [r2, #4]	@ unaligned
 3284 01fe 6746     		mov	r7, ip
 3285 0200 02F10802 		add	r2, r2, #8
 3286 0204 F5D1     		bne	.L135
 3287 0206 73E7     		b	.L133
 3288              	.L136:
 3289 0208 05F5A073 		add	r3, r5, #320
 3290 020c 2246     		mov	r2, r4
 3291 020e 2946     		mov	r1, r5
 3292 0210 2846     		mov	r0, r5
 3293 0212 0593     		str	r3, [sp, #20]
 3294 0214 FFF7FEFF 		bl	sp_256_mont_sub_8.constprop.0
 3295 0218 5A46     		mov	r2, fp
 3296 021a 4146     		mov	r1, r8
 3297 021c 4046     		mov	r0, r8
 3298 021e 05F1C006 		add	r6, r5, #192
 3299 0222 FFF7FEFF 		bl	sp_256_mont_sub_8.constprop.0
 3300 0226 2A46     		mov	r2, r5
 3301 0228 5146     		mov	r1, r10
 3302 022a 05F18000 		add	r0, r5, #128
 3303 022e 05F14007 		add	r7, r5, #64
 3304 0232 FFF7FEFF 		bl	sp_256_mont_mul_8.constprop.0
 3305 0236 3046     		mov	r0, r6
 3306 0238 2946     		mov	r1, r5
 3307 023a FFF7FEFF 		bl	sp_256_mont_sqr_8.constprop.0
 3308 023e 3246     		mov	r2, r6
 3309 0240 3846     		mov	r0, r7
 3310 0242 2146     		mov	r1, r4
 3311 0244 FFF7FEFF 		bl	sp_256_mont_mul_8.constprop.0
 3312 0248 2A46     		mov	r2, r5
 3313 024a 3146     		mov	r1, r6
 3314 024c 3046     		mov	r0, r6
 3315 024e FFF7FEFF 		bl	sp_256_mont_mul_8.constprop.0
 3316 0252 4146     		mov	r1, r8
 3317 0254 2846     		mov	r0, r5
 3318 0256 FFF7FEFF 		bl	sp_256_mont_sqr_8.constprop.0
 3319 025a 3246     		mov	r2, r6
 3320 025c 2946     		mov	r1, r5
 3321 025e 2846     		mov	r0, r5
 3322 0260 FFF7FEFF 		bl	sp_256_mont_sub_8.constprop.0
 3323 0264 059B     		ldr	r3, [sp, #20]
 3324 0266 3946     		mov	r1, r7
 3325 0268 1846     		mov	r0, r3
 3326 026a FFF7FEFF 		bl	sp_256_mont_dbl_8.constprop.0
 3327 026e 2946     		mov	r1, r5
 3328 0270 2846     		mov	r0, r5
 3329 0272 059A     		ldr	r2, [sp, #20]
 3330 0274 FFF7FEFF 		bl	sp_256_mont_sub_8.constprop.0
ARM GAS  /tmp/ccwGYw5D.s 			page 58


 3331 0278 3946     		mov	r1, r7
 3332 027a 3846     		mov	r0, r7
 3333 027c 2A46     		mov	r2, r5
 3334 027e FFF7FEFF 		bl	sp_256_mont_sub_8.constprop.0
 3335 0282 3946     		mov	r1, r7
 3336 0284 3846     		mov	r0, r7
 3337 0286 4246     		mov	r2, r8
 3338 0288 FFF7FEFF 		bl	sp_256_mont_mul_8.constprop.0
 3339 028c 3146     		mov	r1, r6
 3340 028e 3046     		mov	r0, r6
 3341 0290 5A46     		mov	r2, fp
 3342 0292 FFF7FEFF 		bl	sp_256_mont_mul_8.constprop.0
 3343 0296 3246     		mov	r2, r6
 3344 0298 3946     		mov	r1, r7
 3345 029a 3846     		mov	r0, r7
 3346 029c FFF7FEFF 		bl	sp_256_mont_sub_8.constprop.0
 3347 02a0 D4F88421 		ldr	r2, [r4, #388]
 3348 02a4 D4F8C030 		ldr	r3, [r4, #192]
 3349 02a8 211F     		subs	r1, r4, #4
 3350 02aa 002B     		cmp	r3, #0
 3351 02ac 14BF     		ite	ne
 3352 02ae 0026     		movne	r6, #0
 3353 02b0 02F00106 		andeq	r6, r2, #1
 3354 02b4 002A     		cmp	r2, #0
 3355 02b6 14BF     		ite	ne
 3356 02b8 0020     		movne	r0, #0
 3357 02ba 03F00100 		andeq	r0, r3, #1
 3358 02be 7642     		rsbs	r6, r6, #0
 3359 02c0 4042     		rsbs	r0, r0, #0
 3360 02c2 46EA0007 		orr	r7, r6, r0
 3361 02c6 FF43     		mvns	r7, r7
 3362 02c8 1A40     		ands	r2, r2, r3
 3363 02ca A5F1040C 		sub	ip, r5, #4
 3364 02ce 04F11C0E 		add	lr, r4, #28
 3365              	.L138:
 3366 02d2 51F8043F 		ldr	r3, [r1, #4]!
 3367 02d6 06EA0308 		and	r8, r6, r3
 3368 02da D1F8C430 		ldr	r3, [r1, #196]
 3369 02de 8E45     		cmp	lr, r1
 3370 02e0 03EA0003 		and	r3, r3, r0
 3371 02e4 48EA0303 		orr	r3, r8, r3
 3372 02e8 5CF8048F 		ldr	r8, [ip, #4]!
 3373 02ec 07EA0808 		and	r8, r7, r8
 3374 02f0 43EA0803 		orr	r3, r3, r8
 3375 02f4 0B60     		str	r3, [r1]
 3376 02f6 ECD1     		bne	.L138
 3377 02f8 04F1400C 		add	ip, r4, #64
 3378 02fc 05F13C0E 		add	lr, r5, #60
 3379 0300 04F16008 		add	r8, r4, #96
 3380              	.L139:
 3381 0304 5CF8043B 		ldr	r3, [ip], #4
 3382 0308 5EF8041F 		ldr	r1, [lr, #4]!
 3383 030c 3340     		ands	r3, r3, r6
 3384 030e 3940     		ands	r1, r1, r7
 3385 0310 0B43     		orrs	r3, r3, r1
 3386 0312 DCF8C010 		ldr	r1, [ip, #192]
 3387 0316 E045     		cmp	r8, ip
ARM GAS  /tmp/ccwGYw5D.s 			page 59


 3388 0318 01EA0001 		and	r1, r1, r0
 3389 031c 41EA0301 		orr	r1, r1, r3
 3390 0320 4CF8041C 		str	r1, [ip, #-4]
 3391 0324 EED1     		bne	.L139
 3392 0326 04F1800C 		add	ip, r4, #128
 3393 032a 05F17C0E 		add	lr, r5, #124
 3394 032e 04F1A008 		add	r8, r4, #160
 3395              	.L140:
 3396 0332 5CF8043B 		ldr	r3, [ip], #4
 3397 0336 5EF8041F 		ldr	r1, [lr, #4]!
 3398 033a 3340     		ands	r3, r3, r6
 3399 033c 3940     		ands	r1, r1, r7
 3400 033e 0B43     		orrs	r3, r3, r1
 3401 0340 DCF8C010 		ldr	r1, [ip, #192]
 3402 0344 E045     		cmp	r8, ip
 3403 0346 01EA0001 		and	r1, r1, r0
 3404 034a 41EA0301 		orr	r1, r1, r3
 3405 034e 4CF8041C 		str	r1, [ip, #-4]
 3406 0352 EED1     		bne	.L140
 3407 0354 D4F88030 		ldr	r3, [r4, #128]
 3408 0358 C4F8C020 		str	r2, [r4, #192]
 3409 035c 1343     		orrs	r3, r3, r2
 3410 035e C4F88030 		str	r3, [r4, #128]
 3411 0362 F6E6     		b	.L137
 3412              	.L142:
 3413 0364 C422     		movs	r2, #196
 3414 0366 2146     		mov	r1, r4
 3415 0368 18EE100A 		vmov	r0, s16	@ int
 3416 036c FFF7FEFF 		bl	memcpy
 3417 0370 FEE6     		b	.L157
 3418              	.L144:
 3419 0372 6FF07C06 		mvn	r6, #124
 3420 0376 03E7     		b	.L120
 3421              	.L145:
 3422 0378 6FF07C06 		mvn	r6, #124
 3423 037c F9E6     		b	.L122
 3424              	.L159:
 3425 037e 00BF     		.align	2
 3426              	.L158:
 3427 0380 00000000 		.word	.LANCHOR3
 3428 0384 00000000 		.word	p256_table
 3430              		.section	.text.sp_256_ecc_mulmod_fast_8.constprop.0,"ax",%progbits
 3431              		.align	1
 3432              		.syntax unified
 3433              		.thumb
 3434              		.thumb_func
 3435              		.fpu fpv4-sp-d16
 3437              	sp_256_ecc_mulmod_fast_8.constprop.0:
 3438              		@ args = 4, pretend = 0, frame = 8
 3439              		@ frame_needed = 0, uses_anonymous_args = 0
 3440 0000 2DE9F04F 		push	{r4, r5, r6, r7, r8, r9, r10, fp, lr}
 3441 0004 2DED028B 		vpush.64	{d8}
 3442 0008 08EE900A 		vmov	s17, r0	@ int
 3443 000c 83B0     		sub	sp, sp, #12
 3444 000e 40F60450 		movw	r0, #3332
 3445 0012 0E46     		mov	r6, r1
 3446 0014 CDE90023 		strd	r2, r3, [sp]
ARM GAS  /tmp/ccwGYw5D.s 			page 60


 3447 0018 FFF7FEFF 		bl	wolfSSL_Malloc
 3448 001c 0446     		mov	r4, r0
 3449 001e 0028     		cmp	r0, #0
 3450 0020 00F09980 		beq	.L175
 3451 0024 C420     		movs	r0, #196
 3452 0026 FFF7FEFF 		bl	wolfSSL_Malloc
 3453 002a 08EE100A 		vmov	s16, r0	@ int
 3454 002e 0028     		cmp	r0, #0
 3455 0030 00F08E80 		beq	.L176
 3456 0034 4FF4C070 		mov	r0, #384
 3457 0038 FFF7FEFF 		bl	wolfSSL_Malloc
 3458 003c 8246     		mov	r10, r0
 3459 003e 0028     		cmp	r0, #0
 3460 0040 40F08C80 		bne	.L178
 3461 0044 6FF07C05 		mvn	r5, #124
 3462              	.L163:
 3463 0048 18EE100A 		vmov	r0, s16	@ int
 3464 004c C421     		movs	r1, #196
 3465 004e FFF7FEFF 		bl	ForceZero
 3466 0052 18EE100A 		vmov	r0, s16	@ int
 3467 0056 FFF7FEFF 		bl	wolfSSL_Free
 3468              	.L162:
 3469 005a 2046     		mov	r0, r4
 3470 005c 40F60451 		movw	r1, #3332
 3471 0060 FFF7FEFF 		bl	ForceZero
 3472 0064 2046     		mov	r0, r4
 3473 0066 FFF7FEFF 		bl	wolfSSL_Free
 3474              	.L160:
 3475 006a 2846     		mov	r0, r5
 3476 006c 03B0     		add	sp, sp, #12
 3477              		@ sp needed
 3478 006e BDEC028B 		vldm	sp!, {d8}
 3479 0072 BDE8F08F 		pop	{r4, r5, r6, r7, r8, r9, r10, fp, pc}
 3480              	.L173:
 3481 0076 3A46     		mov	r2, r7
 3482 0078 B7FA87F7 		clz	r7, r7
 3483 007c 2146     		mov	r1, r4
 3484 007e 2846     		mov	r0, r5
 3485 0080 7F09     		lsrs	r7, r7, #5
 3486 0082 FFF7FEFF 		bl	sp_256_get_point_16_8
 3487 0086 C4F8007D 		str	r7, [r4, #3328]
 3488              	.L165:
 3489 008a 4FF01C08 		mov	r8, #28
 3490 008e 4FF00609 		mov	r9, #6
 3491 0092 4FF0C40B 		mov	fp, #196
 3492 0096 3601     		lsls	r6, r6, #4
 3493              	.L166:
 3494 0098 B9F1000F 		cmp	r9, #0
 3495 009c 15DA     		bge	.L170
 3496 009e B8F1030F 		cmp	r8, #3
 3497 00a2 1DDC     		bgt	.L167
 3498 00a4 019B     		ldr	r3, [sp, #4]
 3499 00a6 002B     		cmp	r3, #0
 3500 00a8 4BD0     		beq	.L171
 3501 00aa 5246     		mov	r2, r10
 3502 00ac 2946     		mov	r1, r5
 3503 00ae 18EE900A 		vmov	r0, s17	@ int
ARM GAS  /tmp/ccwGYw5D.s 			page 61


 3504 00b2 FFF7FEFF 		bl	sp_256_map_8
 3505              	.L172:
 3506 00b6 4FF4C071 		mov	r1, #384
 3507 00ba 5046     		mov	r0, r10
 3508 00bc FFF7FEFF 		bl	ForceZero
 3509 00c0 5046     		mov	r0, r10
 3510 00c2 FFF7FEFF 		bl	wolfSSL_Free
 3511 00c6 0025     		movs	r5, #0
 3512 00c8 BEE7     		b	.L163
 3513              	.L170:
 3514 00ca B8F1030F 		cmp	r8, #3
 3515 00ce 07DC     		bgt	.L167
 3516 00d0 009B     		ldr	r3, [sp]
 3517 00d2 08F12008 		add	r8, r8, #32
 3518 00d6 53F82920 		ldr	r2, [r3, r9, lsl #2]
 3519 00da 09F1FF39 		add	r9, r9, #-1
 3520 00de 1643     		orrs	r6, r6, r2
 3521              	.L167:
 3522 00e0 5246     		mov	r2, r10
 3523 00e2 2946     		mov	r1, r5
 3524 00e4 2846     		mov	r0, r5
 3525 00e6 FFF7FEFF 		bl	sp_256_proj_point_dbl_8
 3526 00ea 5246     		mov	r2, r10
 3527 00ec 2946     		mov	r1, r5
 3528 00ee 2846     		mov	r0, r5
 3529 00f0 FFF7FEFF 		bl	sp_256_proj_point_dbl_8
 3530 00f4 5246     		mov	r2, r10
 3531 00f6 2946     		mov	r1, r5
 3532 00f8 2846     		mov	r0, r5
 3533 00fa FFF7FEFF 		bl	sp_256_proj_point_dbl_8
 3534 00fe 5246     		mov	r2, r10
 3535 0100 2946     		mov	r1, r5
 3536 0102 2846     		mov	r0, r5
 3537 0104 FFF7FEFF 		bl	sp_256_proj_point_dbl_8
 3538 0108 0E9B     		ldr	r3, [sp, #56]
 3539 010a 370F     		lsrs	r7, r6, #28
 3540 010c A8F10408 		sub	r8, r8, #4
 3541 0110 3601     		lsls	r6, r6, #4
 3542 0112 93B1     		cbz	r3, .L168
 3543 0114 3A46     		mov	r2, r7
 3544 0116 B7FA87F7 		clz	r7, r7
 3545 011a 18EE100A 		vmov	r0, s16	@ int
 3546 011e 2146     		mov	r1, r4
 3547 0120 FFF7FEFF 		bl	sp_256_get_point_16_8
 3548 0124 5346     		mov	r3, r10
 3549 0126 18EE102A 		vmov	r2, s16	@ int
 3550 012a 7F09     		lsrs	r7, r7, #5
 3551 012c C0F8C070 		str	r7, [r0, #192]
 3552              	.L180:
 3553 0130 2946     		mov	r1, r5
 3554 0132 2846     		mov	r0, r5
 3555 0134 FFF7FEFF 		bl	sp_256_proj_point_add_8
 3556 0138 AEE7     		b	.L166
 3557              	.L168:
 3558 013a 5346     		mov	r3, r10
 3559 013c 0BFB0742 		mla	r2, fp, r7, r4
 3560 0140 F6E7     		b	.L180
ARM GAS  /tmp/ccwGYw5D.s 			page 62


 3561              	.L171:
 3562 0142 C422     		movs	r2, #196
 3563 0144 2946     		mov	r1, r5
 3564 0146 18EE900A 		vmov	r0, s17	@ int
 3565 014a FFF7FEFF 		bl	memcpy
 3566 014e B2E7     		b	.L172
 3567              	.L176:
 3568 0150 6FF07C05 		mvn	r5, #124
 3569 0154 81E7     		b	.L162
 3570              	.L175:
 3571 0156 6FF07C05 		mvn	r5, #124
 3572 015a 86E7     		b	.L160
 3573              	.L178:
 3574 015c C422     		movs	r2, #196
 3575 015e 0021     		movs	r1, #0
 3576 0160 2046     		mov	r0, r4
 3577 0162 FFF7FEFF 		bl	memset
 3578 0166 0122     		movs	r2, #1
 3579 0168 04F1C408 		add	r8, r4, #196
 3580 016c C4F8C020 		str	r2, [r4, #192]
 3581 0170 3146     		mov	r1, r6
 3582 0172 4046     		mov	r0, r8
 3583 0174 FFF7FEFF 		bl	sp_256_mod_mul_norm_8.constprop.0
 3584 0178 06F14001 		add	r1, r6, #64
 3585 017c 04F58270 		add	r0, r4, #260
 3586 0180 FFF7FEFF 		bl	sp_256_mod_mul_norm_8.constprop.0
 3587 0184 06F18001 		add	r1, r6, #128
 3588 0188 0026     		movs	r6, #0
 3589 018a 04F5C477 		add	r7, r4, #392
 3590 018e 04F5A270 		add	r0, r4, #324
 3591 0192 FFF7FEFF 		bl	sp_256_mod_mul_norm_8.constprop.0
 3592 0196 04F5137B 		add	fp, r4, #588
 3593 019a 4146     		mov	r1, r8
 3594 019c 3846     		mov	r0, r7
 3595 019e 5246     		mov	r2, r10
 3596 01a0 C4F88461 		str	r6, [r4, #388]
 3597 01a4 FFF7FEFF 		bl	sp_256_proj_point_dbl_8
 3598 01a8 4246     		mov	r2, r8
 3599 01aa 3946     		mov	r1, r7
 3600 01ac 5846     		mov	r0, fp
 3601 01ae 5346     		mov	r3, r10
 3602 01b0 C4F84862 		str	r6, [r4, #584]
 3603 01b4 FFF7FEFF 		bl	sp_256_proj_point_add_8
 3604 01b8 04F54473 		add	r3, r4, #784
 3605 01bc 07EE103A 		vmov	s14, r3	@ int
 3606 01c0 04F57579 		add	r9, r4, #980
 3607 01c4 3946     		mov	r1, r7
 3608 01c6 1846     		mov	r0, r3
 3609 01c8 5246     		mov	r2, r10
 3610 01ca C4F80C63 		str	r6, [r4, #780]
 3611 01ce FFF7FEFF 		bl	sp_256_proj_point_dbl_8
 3612 01d2 04F59368 		add	r8, r4, #1176
 3613 01d6 5346     		mov	r3, r10
 3614 01d8 3A46     		mov	r2, r7
 3615 01da 5946     		mov	r1, fp
 3616 01dc 4846     		mov	r0, r9
 3617 01de C4F8D063 		str	r6, [r4, #976]
ARM GAS  /tmp/ccwGYw5D.s 			page 63


 3618 01e2 FFF7FEFF 		bl	sp_256_proj_point_add_8
 3619 01e6 04F25C57 		addw	r7, r4, #1372
 3620 01ea 5946     		mov	r1, fp
 3621 01ec 5246     		mov	r2, r10
 3622 01ee 4046     		mov	r0, r8
 3623 01f0 C4F89464 		str	r6, [r4, #1172]
 3624 01f4 FFF7FEFF 		bl	sp_256_proj_point_dbl_8
 3625 01f8 5346     		mov	r3, r10
 3626 01fa 5A46     		mov	r2, fp
 3627 01fc 3846     		mov	r0, r7
 3628 01fe 17EE101A 		vmov	r1, s14	@ int
 3629 0202 C4F85865 		str	r6, [r4, #1368]
 3630 0206 04F5C46B 		add	fp, r4, #1568
 3631 020a FFF7FEFF 		bl	sp_256_proj_point_add_8
 3632 020e 5246     		mov	r2, r10
 3633 0210 17EE101A 		vmov	r1, s14	@ int
 3634 0214 5846     		mov	r0, fp
 3635 0216 C4F81C66 		str	r6, [r4, #1564]
 3636 021a FFF7FEFF 		bl	sp_256_proj_point_dbl_8
 3637 021e 5346     		mov	r3, r10
 3638 0220 17EE102A 		vmov	r2, s14	@ int
 3639 0224 4946     		mov	r1, r9
 3640 0226 C4F8E066 		str	r6, [r4, #1760]
 3641 022a 04F2E460 		addw	r0, r4, #1764
 3642 022e FFF7FEFF 		bl	sp_256_proj_point_add_8
 3643 0232 5246     		mov	r2, r10
 3644 0234 4946     		mov	r1, r9
 3645 0236 C4F8A467 		str	r6, [r4, #1956]
 3646 023a 04F5F560 		add	r0, r4, #1960
 3647 023e FFF7FEFF 		bl	sp_256_proj_point_dbl_8
 3648 0242 5346     		mov	r3, r10
 3649 0244 4A46     		mov	r2, r9
 3650 0246 4146     		mov	r1, r8
 3651 0248 C4F86868 		str	r6, [r4, #2152]
 3652 024c 04F66C00 		addw	r0, r4, #2156
 3653 0250 FFF7FEFF 		bl	sp_256_proj_point_add_8
 3654 0254 5246     		mov	r2, r10
 3655 0256 4146     		mov	r1, r8
 3656 0258 C4F82C69 		str	r6, [r4, #2348]
 3657 025c 04F51360 		add	r0, r4, #2352
 3658 0260 FFF7FEFF 		bl	sp_256_proj_point_dbl_8
 3659 0264 5346     		mov	r3, r10
 3660 0266 3946     		mov	r1, r7
 3661 0268 4246     		mov	r2, r8
 3662 026a C4F8F069 		str	r6, [r4, #2544]
 3663 026e 04F6F410 		addw	r0, r4, #2548
 3664 0272 FFF7FEFF 		bl	sp_256_proj_point_add_8
 3665 0276 3946     		mov	r1, r7
 3666 0278 5246     		mov	r2, r10
 3667 027a C4F8B46A 		str	r6, [r4, #2740]
 3668 027e 04F6B820 		addw	r0, r4, #2744
 3669 0282 FFF7FEFF 		bl	sp_256_proj_point_dbl_8
 3670 0286 5346     		mov	r3, r10
 3671 0288 3A46     		mov	r2, r7
 3672 028a C4F8786B 		str	r6, [r4, #2936]
 3673 028e 5946     		mov	r1, fp
 3674 0290 04F67C30 		addw	r0, r4, #2940
ARM GAS  /tmp/ccwGYw5D.s 			page 64


 3675 0294 FFF7FEFF 		bl	sp_256_proj_point_add_8
 3676 0298 009B     		ldr	r3, [sp]
 3677 029a C4F83C6C 		str	r6, [r4, #3132]
 3678 029e DE69     		ldr	r6, [r3, #28]
 3679 02a0 0E9B     		ldr	r3, [sp, #56]
 3680 02a2 04F54465 		add	r5, r4, #3136
 3681 02a6 370F     		lsrs	r7, r6, #28
 3682 02a8 002B     		cmp	r3, #0
 3683 02aa 7FF4E4AE 		bne	.L173
 3684 02ae C422     		movs	r2, #196
 3685 02b0 2846     		mov	r0, r5
 3686 02b2 02FB0741 		mla	r1, r2, r7, r4
 3687 02b6 FFF7FEFF 		bl	memcpy
 3688 02ba E6E6     		b	.L165
 3690              		.section	.text.sp_256_mod_8,"ax",%progbits
 3691              		.align	1
 3692              		.syntax unified
 3693              		.thumb
 3694              		.thumb_func
 3695              		.fpu fpv4-sp-d16
 3697              	sp_256_mod_8:
 3698              		@ args = 0, pretend = 0, frame = 104
 3699              		@ frame_needed = 0, uses_anonymous_args = 0
 3700 0000 2DE9F043 		push	{r4, r5, r6, r7, r8, r9, lr}
 3701 0004 0B46     		mov	r3, r1
 3702 0006 0646     		mov	r6, r0
 3703 0008 1446     		mov	r4, r2
 3704 000a 9BB0     		sub	sp, sp, #108
 3705 000c D769     		ldr	r7, [r2, #28]
 3706 000e 0AAD     		add	r5, sp, #40
 3707 0010 01F1400C 		add	ip, r1, #64
 3708              	.L182:
 3709 0014 2A46     		mov	r2, r5
 3710 0016 1868     		ldr	r0, [r3]	@ unaligned
 3711 0018 5968     		ldr	r1, [r3, #4]	@ unaligned
 3712 001a 0833     		adds	r3, r3, #8
 3713 001c 03C2     		stmia	r2!, {r0, r1}
 3714 001e 6345     		cmp	r3, ip
 3715 0020 1546     		mov	r5, r2
 3716 0022 F7D1     		bne	.L182
 3717 0024 2146     		mov	r1, r4
 3718 0026 12A8     		add	r0, sp, #72
 3719 0028 FFF7FEFF 		bl	sp_256_cmp_8
 3720 002c C043     		mvns	r0, r0
 3721 002e 12A9     		add	r1, sp, #72
 3722 0030 C00F     		lsrs	r0, r0, #31
 3723 0032 4342     		rsbs	r3, r0, #0
 3724 0034 2246     		mov	r2, r4
 3725 0036 0846     		mov	r0, r1
 3726 0038 FFF7FEFF 		bl	sp_256_cond_sub_8.isra.0
 3727 003c 4FF00709 		mov	r9, #7
 3728 0040 19AD     		add	r5, sp, #100
 3729              	.L183:
 3730 0042 2B68     		ldr	r3, [r5]
 3731 0044 4FF0FF32 		mov	r2, #-1
 3732 0048 9F42     		cmp	r7, r3
 3733 004a 18BF     		it	ne
ARM GAS  /tmp/ccwGYw5D.s 			page 65


 3734 004c 0022     		movne	r2, #0
 3735 004e 0092     		str	r2, [sp]
 3736 0050 0098     		ldr	r0, [sp]
 3737 0052 A846     		mov	r8, r5
 3738 0054 1844     		add	r0, r0, r3
 3739 0056 55F8041D 		ldr	r1, [r5, #-4]!
 3740 005a 3A46     		mov	r2, r7
 3741 005c FFF7FEFF 		bl	div_256_word_8
 3742 0060 009A     		ldr	r2, [sp]
 3743 0062 A8F12008 		sub	r8, r8, #32
 3744 0066 0243     		orrs	r2, r2, r0
 3745 0068 2146     		mov	r1, r4
 3746 006a 01A8     		add	r0, sp, #4
 3747 006c FFF7FEFF 		bl	sp_256_mul_d_8
 3748 0070 01A9     		add	r1, sp, #4
 3749 0072 4046     		mov	r0, r8
 3750 0074 FFF7FEFF 		bl	sp_256_sub_in_place_8
 3751 0078 099B     		ldr	r3, [sp, #36]
 3752 007a 2268     		ldr	r2, [r4]
 3753 007c C01A     		subs	r0, r0, r3
 3754 007e 6B68     		ldr	r3, [r5, #4]
 3755 0080 4146     		mov	r1, r8
 3756 0082 0344     		add	r3, r3, r0
 3757 0084 1A40     		ands	r2, r2, r3
 3758 0086 0192     		str	r2, [sp, #4]
 3759 0088 6268     		ldr	r2, [r4, #4]
 3760 008a 6B60     		str	r3, [r5, #4]
 3761 008c 1A40     		ands	r2, r2, r3
 3762 008e 0292     		str	r2, [sp, #8]
 3763 0090 A268     		ldr	r2, [r4, #8]
 3764 0092 4046     		mov	r0, r8
 3765 0094 1A40     		ands	r2, r2, r3
 3766 0096 0392     		str	r2, [sp, #12]
 3767 0098 E268     		ldr	r2, [r4, #12]
 3768 009a 1A40     		ands	r2, r2, r3
 3769 009c 0492     		str	r2, [sp, #16]
 3770 009e 2269     		ldr	r2, [r4, #16]
 3771 00a0 1A40     		ands	r2, r2, r3
 3772 00a2 0592     		str	r2, [sp, #20]
 3773 00a4 6269     		ldr	r2, [r4, #20]
 3774 00a6 1A40     		ands	r2, r2, r3
 3775 00a8 0692     		str	r2, [sp, #24]
 3776 00aa A269     		ldr	r2, [r4, #24]
 3777 00ac 1A40     		ands	r2, r2, r3
 3778 00ae 0792     		str	r2, [sp, #28]
 3779 00b0 E269     		ldr	r2, [r4, #28]
 3780 00b2 1340     		ands	r3, r3, r2
 3781 00b4 01AA     		add	r2, sp, #4
 3782 00b6 0893     		str	r3, [sp, #32]
 3783 00b8 FFF7FEFF 		bl	sp_256_add_8
 3784 00bc 6A68     		ldr	r2, [r5, #4]
 3785 00be E369     		ldr	r3, [r4, #28]
 3786 00c0 1044     		add	r0, r0, r2
 3787 00c2 2268     		ldr	r2, [r4]
 3788 00c4 6860     		str	r0, [r5, #4]
 3789 00c6 0240     		ands	r2, r2, r0
 3790 00c8 0192     		str	r2, [sp, #4]
ARM GAS  /tmp/ccwGYw5D.s 			page 66


 3791 00ca 6268     		ldr	r2, [r4, #4]
 3792 00cc 4146     		mov	r1, r8
 3793 00ce 0240     		ands	r2, r2, r0
 3794 00d0 0292     		str	r2, [sp, #8]
 3795 00d2 A268     		ldr	r2, [r4, #8]
 3796 00d4 0240     		ands	r2, r2, r0
 3797 00d6 0392     		str	r2, [sp, #12]
 3798 00d8 E268     		ldr	r2, [r4, #12]
 3799 00da 0240     		ands	r2, r2, r0
 3800 00dc 0492     		str	r2, [sp, #16]
 3801 00de 2269     		ldr	r2, [r4, #16]
 3802 00e0 0240     		ands	r2, r2, r0
 3803 00e2 0592     		str	r2, [sp, #20]
 3804 00e4 6269     		ldr	r2, [r4, #20]
 3805 00e6 0240     		ands	r2, r2, r0
 3806 00e8 0692     		str	r2, [sp, #24]
 3807 00ea A269     		ldr	r2, [r4, #24]
 3808 00ec 0240     		ands	r2, r2, r0
 3809 00ee 1840     		ands	r0, r0, r3
 3810 00f0 0792     		str	r2, [sp, #28]
 3811 00f2 0890     		str	r0, [sp, #32]
 3812 00f4 01AA     		add	r2, sp, #4
 3813 00f6 4046     		mov	r0, r8
 3814 00f8 FFF7FEFF 		bl	sp_256_add_8
 3815 00fc 6B68     		ldr	r3, [r5, #4]
 3816 00fe B9F10109 		subs	r9, r9, #1
 3817 0102 1844     		add	r0, r0, r3
 3818 0104 6860     		str	r0, [r5, #4]
 3819 0106 9CD2     		bcs	.L183
 3820 0108 2146     		mov	r1, r4
 3821 010a 0AA8     		add	r0, sp, #40
 3822 010c FFF7FEFF 		bl	sp_256_cmp_8
 3823 0110 C043     		mvns	r0, r0
 3824 0112 C00F     		lsrs	r0, r0, #31
 3825 0114 4342     		rsbs	r3, r0, #0
 3826 0116 2246     		mov	r2, r4
 3827 0118 3046     		mov	r0, r6
 3828 011a 0AA9     		add	r1, sp, #40
 3829 011c FFF7FEFF 		bl	sp_256_cond_sub_8.isra.0
 3830 0120 0020     		movs	r0, #0
 3831 0122 1BB0     		add	sp, sp, #108
 3832              		@ sp needed
 3833 0124 BDE8F083 		pop	{r4, r5, r6, r7, r8, r9, pc}
 3835              		.section	.text.sp_256_ecc_is_point_8.constprop.0,"ax",%progbits
 3836              		.align	1
 3837              		.syntax unified
 3838              		.thumb
 3839              		.thumb_func
 3840              		.fpu fpv4-sp-d16
 3842              	sp_256_ecc_is_point_8.constprop.0:
 3843              		@ args = 0, pretend = 0, frame = 0
 3844              		@ frame_needed = 0, uses_anonymous_args = 0
 3845 0000 70B5     		push	{r4, r5, r6, lr}
 3846 0002 0546     		mov	r5, r0
 3847 0004 8020     		movs	r0, #128
 3848 0006 FFF7FEFF 		bl	wolfSSL_Malloc
 3849 000a 0446     		mov	r4, r0
ARM GAS  /tmp/ccwGYw5D.s 			page 67


 3850 000c 0028     		cmp	r0, #0
 3851 000e 3ED0     		beq	.L189
 3852 0010 05F14001 		add	r1, r5, #64
 3853 0014 00F14006 		add	r6, r0, #64
 3854 0018 FFF7FEFF 		bl	sp_256_sqr_8
 3855 001c 1D4A     		ldr	r2, .L192
 3856 001e 2146     		mov	r1, r4
 3857 0020 2046     		mov	r0, r4
 3858 0022 FFF7FEFF 		bl	sp_256_mod_8
 3859 0026 2946     		mov	r1, r5
 3860 0028 3046     		mov	r0, r6
 3861 002a FFF7FEFF 		bl	sp_256_sqr_8
 3862 002e 3146     		mov	r1, r6
 3863 0030 184A     		ldr	r2, .L192
 3864 0032 3046     		mov	r0, r6
 3865 0034 FFF7FEFF 		bl	sp_256_mod_8
 3866 0038 2A46     		mov	r2, r5
 3867 003a 3146     		mov	r1, r6
 3868 003c 3046     		mov	r0, r6
 3869 003e FFF7FEFF 		bl	sp_256_mul_8
 3870 0042 3146     		mov	r1, r6
 3871 0044 134A     		ldr	r2, .L192
 3872 0046 3046     		mov	r0, r6
 3873 0048 FFF7FEFF 		bl	sp_256_mod_8
 3874 004c 3246     		mov	r2, r6
 3875 004e 2146     		mov	r1, r4
 3876 0050 2046     		mov	r0, r4
 3877 0052 FFF7FEFF 		bl	sp_256_mont_sub_8.constprop.0
 3878 0056 2A46     		mov	r2, r5
 3879 0058 2146     		mov	r1, r4
 3880 005a 2046     		mov	r0, r4
 3881 005c FFF7FEFF 		bl	sp_256_mont_add_8.constprop.0
 3882 0060 2A46     		mov	r2, r5
 3883 0062 2146     		mov	r1, r4
 3884 0064 2046     		mov	r0, r4
 3885 0066 FFF7FEFF 		bl	sp_256_mont_add_8.constprop.0
 3886 006a 2A46     		mov	r2, r5
 3887 006c 2146     		mov	r1, r4
 3888 006e 2046     		mov	r0, r4
 3889 0070 FFF7FEFF 		bl	sp_256_mont_add_8.constprop.0
 3890 0074 2046     		mov	r0, r4
 3891 0076 0849     		ldr	r1, .L192+4
 3892 0078 FFF7FEFF 		bl	sp_256_cmp_8
 3893 007c 051E     		subs	r5, r0, #0
 3894 007e 2046     		mov	r0, r4
 3895 0080 18BF     		it	ne
 3896 0082 6FF06105 		mvnne	r5, #97
 3897 0086 FFF7FEFF 		bl	wolfSSL_Free
 3898              	.L186:
 3899 008a 2846     		mov	r0, r5
 3900 008c 70BD     		pop	{r4, r5, r6, pc}
 3901              	.L189:
 3902 008e 6FF07C05 		mvn	r5, #124
 3903 0092 FAE7     		b	.L186
 3904              	.L193:
 3905              		.align	2
 3906              	.L192:
ARM GAS  /tmp/ccwGYw5D.s 			page 68


 3907 0094 00000000 		.word	.LANCHOR2
 3908 0098 00000000 		.word	.LANCHOR4
 3910              		.section	.text.sp_ecc_mulmod_256,"ax",%progbits
 3911              		.align	1
 3912              		.global	sp_ecc_mulmod_256
 3913              		.syntax unified
 3914              		.thumb
 3915              		.thumb_func
 3916              		.fpu fpv4-sp-d16
 3918              	sp_ecc_mulmod_256:
 3919              		@ args = 4, pretend = 0, frame = 0
 3920              		@ frame_needed = 0, uses_anonymous_args = 0
 3921 0000 2DE9F743 		push	{r0, r1, r2, r4, r5, r6, r7, r8, r9, lr}
 3922 0004 8146     		mov	r9, r0
 3923 0006 C420     		movs	r0, #196
 3924 0008 8846     		mov	r8, r1
 3925 000a 1746     		mov	r7, r2
 3926 000c 1C46     		mov	r4, r3
 3927 000e FFF7FEFF 		bl	wolfSSL_Malloc
 3928 0012 0546     		mov	r5, r0
 3929 0014 08B3     		cbz	r0, .L198
 3930 0016 2020     		movs	r0, #32
 3931 0018 FFF7FEFF 		bl	wolfSSL_Malloc
 3932 001c 0646     		mov	r6, r0
 3933 001e 10B3     		cbz	r0, .L199
 3934 0020 4946     		mov	r1, r9
 3935 0022 FFF7FEFF 		bl	sp_256_from_mp.constprop.0
 3936 0026 4146     		mov	r1, r8
 3937 0028 2846     		mov	r0, r5
 3938 002a FFF7FEFF 		bl	sp_256_point_from_ecc_point_8
 3939 002e 0123     		movs	r3, #1
 3940 0030 3246     		mov	r2, r6
 3941 0032 0093     		str	r3, [sp]
 3942 0034 2946     		mov	r1, r5
 3943 0036 2346     		mov	r3, r4
 3944 0038 2846     		mov	r0, r5
 3945 003a FFF7FEFF 		bl	sp_256_ecc_mulmod_fast_8.constprop.0
 3946 003e 0446     		mov	r4, r0
 3947 0040 20B9     		cbnz	r0, .L197
 3948 0042 3946     		mov	r1, r7
 3949 0044 2846     		mov	r0, r5
 3950 0046 FFF7FEFF 		bl	sp_256_point_to_ecc_point_8
 3951 004a 0446     		mov	r4, r0
 3952              	.L197:
 3953 004c 3046     		mov	r0, r6
 3954 004e FFF7FEFF 		bl	wolfSSL_Free
 3955              	.L196:
 3956 0052 2846     		mov	r0, r5
 3957 0054 FFF7FEFF 		bl	wolfSSL_Free
 3958 0058 01E0     		b	.L194
 3959              	.L198:
 3960 005a 6FF07C04 		mvn	r4, #124
 3961              	.L194:
 3962 005e 2046     		mov	r0, r4
 3963 0060 03B0     		add	sp, sp, #12
 3964              		@ sp needed
 3965 0062 BDE8F083 		pop	{r4, r5, r6, r7, r8, r9, pc}
ARM GAS  /tmp/ccwGYw5D.s 			page 69


 3966              	.L199:
 3967 0066 6FF07C04 		mvn	r4, #124
 3968 006a F2E7     		b	.L196
 3970              		.section	.text.sp_ecc_mulmod_add_256,"ax",%progbits
 3971              		.align	1
 3972              		.global	sp_ecc_mulmod_add_256
 3973              		.syntax unified
 3974              		.thumb
 3975              		.thumb_func
 3976              		.fpu fpv4-sp-d16
 3978              	sp_ecc_mulmod_add_256:
 3979              		@ args = 12, pretend = 0, frame = 0
 3980              		@ frame_needed = 0, uses_anonymous_args = 0
 3981 0000 2DE9F74F 		push	{r0, r1, r2, r4, r5, r6, r7, r8, r9, r10, fp, lr}
 3982 0004 8346     		mov	fp, r0
 3983 0006 4FF4C470 		mov	r0, #392
 3984 000a 8A46     		mov	r10, r1
 3985 000c 9146     		mov	r9, r2
 3986 000e 1C46     		mov	r4, r3
 3987 0010 0D9D     		ldr	r5, [sp, #52]
 3988 0012 FFF7FEFF 		bl	wolfSSL_Malloc
 3989 0016 0646     		mov	r6, r0
 3990 0018 0028     		cmp	r0, #0
 3991 001a 50D0     		beq	.L208
 3992 001c 4FF4D070 		mov	r0, #416
 3993 0020 FFF7FEFF 		bl	wolfSSL_Malloc
 3994 0024 0746     		mov	r7, r0
 3995 0026 0028     		cmp	r0, #0
 3996 0028 4FD0     		beq	.L209
 3997 002a 5946     		mov	r1, fp
 3998 002c FFF7FEFF 		bl	sp_256_from_mp.constprop.0
 3999 0030 06F1C408 		add	r8, r6, #196
 4000 0034 5146     		mov	r1, r10
 4001 0036 3046     		mov	r0, r6
 4002 0038 FFF7FEFF 		bl	sp_256_point_from_ecc_point_8
 4003 003c 4946     		mov	r1, r9
 4004 003e 4046     		mov	r0, r8
 4005 0040 FFF7FEFF 		bl	sp_256_point_from_ecc_point_8
 4006 0044 7CB1     		cbz	r4, .L203
 4007              	.L206:
 4008 0046 0023     		movs	r3, #0
 4009 0048 3A46     		mov	r2, r7
 4010 004a 3146     		mov	r1, r6
 4011 004c 3046     		mov	r0, r6
 4012 004e 0093     		str	r3, [sp]
 4013 0050 FFF7FEFF 		bl	sp_256_ecc_mulmod_fast_8.constprop.0
 4014 0054 0446     		mov	r4, r0
 4015 0056 F0B1     		cbz	r0, .L204
 4016              	.L205:
 4017 0058 3846     		mov	r0, r7
 4018 005a FFF7FEFF 		bl	wolfSSL_Free
 4019              	.L202:
 4020 005e 3046     		mov	r0, r6
 4021 0060 FFF7FEFF 		bl	wolfSSL_Free
 4022 0064 2DE0     		b	.L200
 4023              	.L203:
 4024 0066 4146     		mov	r1, r8
ARM GAS  /tmp/ccwGYw5D.s 			page 70


 4025 0068 4046     		mov	r0, r8
 4026 006a FFF7FEFF 		bl	sp_256_mod_mul_norm_8.constprop.0
 4027 006e 0446     		mov	r4, r0
 4028 0070 0028     		cmp	r0, #0
 4029 0072 F1D1     		bne	.L205
 4030 0074 06F58271 		add	r1, r6, #260
 4031 0078 0846     		mov	r0, r1
 4032 007a FFF7FEFF 		bl	sp_256_mod_mul_norm_8.constprop.0
 4033 007e 0446     		mov	r4, r0
 4034 0080 0028     		cmp	r0, #0
 4035 0082 E9D1     		bne	.L205
 4036 0084 06F5A271 		add	r1, r6, #324
 4037 0088 0846     		mov	r0, r1
 4038 008a FFF7FEFF 		bl	sp_256_mod_mul_norm_8.constprop.0
 4039 008e 0446     		mov	r4, r0
 4040 0090 0028     		cmp	r0, #0
 4041 0092 D8D0     		beq	.L206
 4042 0094 E0E7     		b	.L205
 4043              	.L204:
 4044 0096 07F12004 		add	r4, r7, #32
 4045 009a 2346     		mov	r3, r4
 4046 009c 4246     		mov	r2, r8
 4047 009e 3146     		mov	r1, r6
 4048 00a0 3046     		mov	r0, r6
 4049 00a2 FFF7FEFF 		bl	sp_256_proj_point_add_8
 4050 00a6 25B1     		cbz	r5, .L207
 4051 00a8 2246     		mov	r2, r4
 4052 00aa 3146     		mov	r1, r6
 4053 00ac 3046     		mov	r0, r6
 4054 00ae FFF7FEFF 		bl	sp_256_map_8
 4055              	.L207:
 4056 00b2 3046     		mov	r0, r6
 4057 00b4 0C99     		ldr	r1, [sp, #48]
 4058 00b6 FFF7FEFF 		bl	sp_256_point_to_ecc_point_8
 4059 00ba 0446     		mov	r4, r0
 4060 00bc CCE7     		b	.L205
 4061              	.L208:
 4062 00be 6FF07C04 		mvn	r4, #124
 4063              	.L200:
 4064 00c2 2046     		mov	r0, r4
 4065 00c4 03B0     		add	sp, sp, #12
 4066              		@ sp needed
 4067 00c6 BDE8F08F 		pop	{r4, r5, r6, r7, r8, r9, r10, fp, pc}
 4068              	.L209:
 4069 00ca 6FF07C04 		mvn	r4, #124
 4070 00ce C6E7     		b	.L202
 4072              		.section	.text.sp_ecc_mulmod_base_256,"ax",%progbits
 4073              		.align	1
 4074              		.global	sp_ecc_mulmod_base_256
 4075              		.syntax unified
 4076              		.thumb
 4077              		.thumb_func
 4078              		.fpu fpv4-sp-d16
 4080              	sp_ecc_mulmod_base_256:
 4081              		@ args = 0, pretend = 0, frame = 0
 4082              		@ frame_needed = 0, uses_anonymous_args = 0
 4083 0000 2DE9F041 		push	{r4, r5, r6, r7, r8, lr}
ARM GAS  /tmp/ccwGYw5D.s 			page 71


 4084 0004 8046     		mov	r8, r0
 4085 0006 C420     		movs	r0, #196
 4086 0008 0F46     		mov	r7, r1
 4087 000a 1446     		mov	r4, r2
 4088 000c FFF7FEFF 		bl	wolfSSL_Malloc
 4089 0010 0546     		mov	r5, r0
 4090 0012 D8B1     		cbz	r0, .L220
 4091 0014 2020     		movs	r0, #32
 4092 0016 FFF7FEFF 		bl	wolfSSL_Malloc
 4093 001a 0646     		mov	r6, r0
 4094 001c D8B1     		cbz	r0, .L221
 4095 001e 4146     		mov	r1, r8
 4096 0020 FFF7FEFF 		bl	sp_256_from_mp.constprop.0
 4097 0024 2246     		mov	r2, r4
 4098 0026 0123     		movs	r3, #1
 4099 0028 3146     		mov	r1, r6
 4100 002a 2846     		mov	r0, r5
 4101 002c FFF7FEFF 		bl	sp_256_ecc_mulmod_stripe_8.constprop.0
 4102 0030 0446     		mov	r4, r0
 4103 0032 20B9     		cbnz	r0, .L219
 4104 0034 3946     		mov	r1, r7
 4105 0036 2846     		mov	r0, r5
 4106 0038 FFF7FEFF 		bl	sp_256_point_to_ecc_point_8
 4107 003c 0446     		mov	r4, r0
 4108              	.L219:
 4109 003e 3046     		mov	r0, r6
 4110 0040 FFF7FEFF 		bl	wolfSSL_Free
 4111              	.L218:
 4112 0044 2846     		mov	r0, r5
 4113 0046 FFF7FEFF 		bl	wolfSSL_Free
 4114 004a 01E0     		b	.L216
 4115              	.L220:
 4116 004c 6FF07C04 		mvn	r4, #124
 4117              	.L216:
 4118 0050 2046     		mov	r0, r4
 4119 0052 BDE8F081 		pop	{r4, r5, r6, r7, r8, pc}
 4120              	.L221:
 4121 0056 6FF07C04 		mvn	r4, #124
 4122 005a F3E7     		b	.L218
 4124              		.section	.text.sp_ecc_mulmod_base_add_256,"ax",%progbits
 4125              		.align	1
 4126              		.global	sp_ecc_mulmod_base_add_256
 4127              		.syntax unified
 4128              		.thumb
 4129              		.thumb_func
 4130              		.fpu fpv4-sp-d16
 4132              	sp_ecc_mulmod_base_add_256:
 4133              		@ args = 8, pretend = 0, frame = 0
 4134              		@ frame_needed = 0, uses_anonymous_args = 0
 4135 0000 2DE9F84F 		push	{r3, r4, r5, r6, r7, r8, r9, r10, fp, lr}
 4136 0004 8346     		mov	fp, r0
 4137 0006 4FF4C470 		mov	r0, #392
 4138 000a 8A46     		mov	r10, r1
 4139 000c 1446     		mov	r4, r2
 4140 000e 9946     		mov	r9, r3
 4141 0010 0A9D     		ldr	r5, [sp, #40]
 4142 0012 FFF7FEFF 		bl	wolfSSL_Malloc
ARM GAS  /tmp/ccwGYw5D.s 			page 72


 4143 0016 0646     		mov	r6, r0
 4144 0018 0028     		cmp	r0, #0
 4145 001a 4BD0     		beq	.L230
 4146 001c 4FF4D070 		mov	r0, #416
 4147 0020 FFF7FEFF 		bl	wolfSSL_Malloc
 4148 0024 0746     		mov	r7, r0
 4149 0026 0028     		cmp	r0, #0
 4150 0028 49D0     		beq	.L231
 4151 002a 5946     		mov	r1, fp
 4152 002c 06F1C408 		add	r8, r6, #196
 4153 0030 FFF7FEFF 		bl	sp_256_from_mp.constprop.0
 4154 0034 5146     		mov	r1, r10
 4155 0036 4046     		mov	r0, r8
 4156 0038 FFF7FEFF 		bl	sp_256_point_from_ecc_point_8
 4157 003c 74B1     		cbz	r4, .L225
 4158              	.L228:
 4159 003e 0023     		movs	r3, #0
 4160 0040 3946     		mov	r1, r7
 4161 0042 1A46     		mov	r2, r3
 4162 0044 3046     		mov	r0, r6
 4163 0046 FFF7FEFF 		bl	sp_256_ecc_mulmod_stripe_8.constprop.0
 4164 004a 0446     		mov	r4, r0
 4165 004c F0B1     		cbz	r0, .L226
 4166              	.L227:
 4167 004e 3846     		mov	r0, r7
 4168 0050 FFF7FEFF 		bl	wolfSSL_Free
 4169              	.L224:
 4170 0054 3046     		mov	r0, r6
 4171 0056 FFF7FEFF 		bl	wolfSSL_Free
 4172 005a 2DE0     		b	.L222
 4173              	.L225:
 4174 005c 4146     		mov	r1, r8
 4175 005e 4046     		mov	r0, r8
 4176 0060 FFF7FEFF 		bl	sp_256_mod_mul_norm_8.constprop.0
 4177 0064 0446     		mov	r4, r0
 4178 0066 0028     		cmp	r0, #0
 4179 0068 F1D1     		bne	.L227
 4180 006a 06F58271 		add	r1, r6, #260
 4181 006e 0846     		mov	r0, r1
 4182 0070 FFF7FEFF 		bl	sp_256_mod_mul_norm_8.constprop.0
 4183 0074 0446     		mov	r4, r0
 4184 0076 0028     		cmp	r0, #0
 4185 0078 E9D1     		bne	.L227
 4186 007a 06F5A271 		add	r1, r6, #324
 4187 007e 0846     		mov	r0, r1
 4188 0080 FFF7FEFF 		bl	sp_256_mod_mul_norm_8.constprop.0
 4189 0084 0446     		mov	r4, r0
 4190 0086 0028     		cmp	r0, #0
 4191 0088 D9D0     		beq	.L228
 4192 008a E0E7     		b	.L227
 4193              	.L226:
 4194 008c 07F12004 		add	r4, r7, #32
 4195 0090 2346     		mov	r3, r4
 4196 0092 4246     		mov	r2, r8
 4197 0094 3146     		mov	r1, r6
 4198 0096 3046     		mov	r0, r6
 4199 0098 FFF7FEFF 		bl	sp_256_proj_point_add_8
ARM GAS  /tmp/ccwGYw5D.s 			page 73


 4200 009c 25B1     		cbz	r5, .L229
 4201 009e 2246     		mov	r2, r4
 4202 00a0 3146     		mov	r1, r6
 4203 00a2 3046     		mov	r0, r6
 4204 00a4 FFF7FEFF 		bl	sp_256_map_8
 4205              	.L229:
 4206 00a8 4946     		mov	r1, r9
 4207 00aa 3046     		mov	r0, r6
 4208 00ac FFF7FEFF 		bl	sp_256_point_to_ecc_point_8
 4209 00b0 0446     		mov	r4, r0
 4210 00b2 CCE7     		b	.L227
 4211              	.L230:
 4212 00b4 6FF07C04 		mvn	r4, #124
 4213              	.L222:
 4214 00b8 2046     		mov	r0, r4
 4215 00ba BDE8F88F 		pop	{r3, r4, r5, r6, r7, r8, r9, r10, fp, pc}
 4216              	.L231:
 4217 00be 6FF07C04 		mvn	r4, #124
 4218 00c2 C7E7     		b	.L224
 4220              		.section	.text.sp_ecc_make_key_256,"ax",%progbits
 4221              		.align	1
 4222              		.global	sp_ecc_make_key_256
 4223              		.syntax unified
 4224              		.thumb
 4225              		.thumb_func
 4226              		.fpu fpv4-sp-d16
 4228              	sp_ecc_make_key_256:
 4229              		@ args = 0, pretend = 0, frame = 0
 4230              		@ frame_needed = 0, uses_anonymous_args = 0
 4231 0000 2DE9F041 		push	{r4, r5, r6, r7, r8, lr}
 4232 0004 0446     		mov	r4, r0
 4233 0006 C420     		movs	r0, #196
 4234 0008 8846     		mov	r8, r1
 4235 000a 1746     		mov	r7, r2
 4236 000c FFF7FEFF 		bl	wolfSSL_Malloc
 4237 0010 0646     		mov	r6, r0
 4238 0012 20B3     		cbz	r0, .L242
 4239 0014 2020     		movs	r0, #32
 4240 0016 FFF7FEFF 		bl	wolfSSL_Malloc
 4241 001a 0546     		mov	r5, r0
 4242 001c 20B3     		cbz	r0, .L243
 4243 001e 0146     		mov	r1, r0
 4244 0020 2046     		mov	r0, r4
 4245 0022 FFF7FEFF 		bl	sp_256_ecc_gen_k_8
 4246 0026 0446     		mov	r4, r0
 4247 0028 90B9     		cbnz	r0, .L241
 4248 002a 0123     		movs	r3, #1
 4249 002c 2946     		mov	r1, r5
 4250 002e 1A46     		mov	r2, r3
 4251 0030 3046     		mov	r0, r6
 4252 0032 FFF7FEFF 		bl	sp_256_ecc_mulmod_stripe_8.constprop.0
 4253 0036 0446     		mov	r4, r0
 4254 0038 50B9     		cbnz	r0, .L241
 4255 003a 4146     		mov	r1, r8
 4256 003c 2846     		mov	r0, r5
 4257 003e FFF7FEFF 		bl	sp_256_to_mp
 4258 0042 0446     		mov	r4, r0
ARM GAS  /tmp/ccwGYw5D.s 			page 74


 4259 0044 20B9     		cbnz	r0, .L241
 4260 0046 3946     		mov	r1, r7
 4261 0048 3046     		mov	r0, r6
 4262 004a FFF7FEFF 		bl	sp_256_point_to_ecc_point_8
 4263 004e 0446     		mov	r4, r0
 4264              	.L241:
 4265 0050 2846     		mov	r0, r5
 4266 0052 FFF7FEFF 		bl	wolfSSL_Free
 4267              	.L240:
 4268 0056 3046     		mov	r0, r6
 4269 0058 FFF7FEFF 		bl	wolfSSL_Free
 4270 005c 01E0     		b	.L238
 4271              	.L242:
 4272 005e 6FF07C04 		mvn	r4, #124
 4273              	.L238:
 4274 0062 2046     		mov	r0, r4
 4275 0064 BDE8F081 		pop	{r4, r5, r6, r7, r8, pc}
 4276              	.L243:
 4277 0068 6FF07C04 		mvn	r4, #124
 4278 006c F3E7     		b	.L240
 4280              		.section	.text.sp_ecc_secret_gen_256,"ax",%progbits
 4281              		.align	1
 4282              		.global	sp_ecc_secret_gen_256
 4283              		.syntax unified
 4284              		.thumb
 4285              		.thumb_func
 4286              		.fpu fpv4-sp-d16
 4288              	sp_ecc_secret_gen_256:
 4289              		@ args = 4, pretend = 0, frame = 0
 4290              		@ frame_needed = 0, uses_anonymous_args = 0
 4291 0000 2DE9F743 		push	{r0, r1, r2, r4, r5, r6, r7, r8, r9, lr}
 4292 0004 9946     		mov	r9, r3
 4293 0006 1B68     		ldr	r3, [r3]
 4294 0008 0546     		mov	r5, r0
 4295 000a 1F2B     		cmp	r3, #31
 4296 000c 0C46     		mov	r4, r1
 4297 000e 1646     		mov	r6, r2
 4298 0010 12D9     		bls	.L251
 4299 0012 C420     		movs	r0, #196
 4300 0014 FFF7FEFF 		bl	wolfSSL_Malloc
 4301 0018 0746     		mov	r7, r0
 4302 001a 80B1     		cbz	r0, .L252
 4303 001c 2020     		movs	r0, #32
 4304 001e FFF7FEFF 		bl	wolfSSL_Malloc
 4305 0022 8046     		mov	r8, r0
 4306 0024 70B9     		cbnz	r0, .L255
 4307 0026 6FF07C04 		mvn	r4, #124
 4308              	.L246:
 4309 002a 3846     		mov	r0, r7
 4310 002c FFF7FEFF 		bl	wolfSSL_Free
 4311              	.L244:
 4312 0030 2046     		mov	r0, r4
 4313 0032 03B0     		add	sp, sp, #12
 4314              		@ sp needed
 4315 0034 BDE8F083 		pop	{r4, r5, r6, r7, r8, r9, pc}
 4316              	.L251:
 4317 0038 6FF08304 		mvn	r4, #131
ARM GAS  /tmp/ccwGYw5D.s 			page 75


 4318 003c F8E7     		b	.L244
 4319              	.L252:
 4320 003e 6FF07C04 		mvn	r4, #124
 4321 0042 F5E7     		b	.L244
 4322              	.L255:
 4323 0044 2946     		mov	r1, r5
 4324 0046 FFF7FEFF 		bl	sp_256_from_mp.constprop.0
 4325 004a 2146     		mov	r1, r4
 4326 004c 3846     		mov	r0, r7
 4327 004e FFF7FEFF 		bl	sp_256_point_from_ecc_point_8
 4328 0052 0123     		movs	r3, #1
 4329 0054 4246     		mov	r2, r8
 4330 0056 3946     		mov	r1, r7
 4331 0058 3846     		mov	r0, r7
 4332 005a 0093     		str	r3, [sp]
 4333 005c FFF7FEFF 		bl	sp_256_ecc_mulmod_fast_8.constprop.0
 4334 0060 0446     		mov	r4, r0
 4335 0062 B8B9     		cbnz	r0, .L249
 4336 0064 07F12005 		add	r5, r7, #32
 4337              	.L248:
 4338 0068 55F8043D 		ldr	r3, [r5, #-4]!
 4339 006c 0436     		adds	r6, r6, #4
 4340 006e 1B0E     		lsrs	r3, r3, #24
 4341 0070 06F8043C 		strb	r3, [r6, #-4]
 4342 0074 6B88     		ldrh	r3, [r5, #2]
 4343 0076 AF42     		cmp	r7, r5
 4344 0078 06F8033C 		strb	r3, [r6, #-3]
 4345 007c 2B68     		ldr	r3, [r5]
 4346 007e 4FEA1323 		lsr	r3, r3, #8
 4347 0082 06F8023C 		strb	r3, [r6, #-2]
 4348 0086 2B68     		ldr	r3, [r5]
 4349 0088 06F8013C 		strb	r3, [r6, #-1]
 4350 008c ECD1     		bne	.L248
 4351 008e 2023     		movs	r3, #32
 4352 0090 C9F80030 		str	r3, [r9]
 4353              	.L249:
 4354 0094 4046     		mov	r0, r8
 4355 0096 FFF7FEFF 		bl	wolfSSL_Free
 4356 009a C6E7     		b	.L246
 4358              		.section	.text.sp_ecc_sign_256,"ax",%progbits
 4359              		.align	1
 4360              		.global	sp_ecc_sign_256
 4361              		.syntax unified
 4362              		.thumb
 4363              		.thumb_func
 4364              		.fpu fpv4-sp-d16
 4366              	sp_ecc_sign_256:
 4367              		@ args = 16, pretend = 0, frame = 16
 4368              		@ frame_needed = 0, uses_anonymous_args = 0
 4369 0000 2DE9F04F 		push	{r4, r5, r6, r7, r8, r9, r10, fp, lr}
 4370 0004 2DED068B 		vpush.64	{d8, d9, d10}
 4371 0008 09EE100A 		vmov	s18, r0	@ int
 4372 000c 85B0     		sub	sp, sp, #20
 4373 000e 4FF4E070 		mov	r0, #448
 4374 0012 09EE902A 		vmov	s19, r2	@ int
 4375 0016 0AEE103A 		vmov	s20, r3	@ int
 4376 001a 0391     		str	r1, [sp, #12]
ARM GAS  /tmp/ccwGYw5D.s 			page 76


 4377 001c FFF7FEFF 		bl	wolfSSL_Malloc
 4378 0020 0546     		mov	r5, r0
 4379 0022 0028     		cmp	r0, #0
 4380 0024 3BD0     		beq	.L281
 4381 0026 C420     		movs	r0, #196
 4382 0028 FFF7FEFF 		bl	wolfSSL_Malloc
 4383 002c 0190     		str	r0, [sp, #4]
 4384 002e 0028     		cmp	r0, #0
 4385 0030 40D0     		beq	.L282
 4386 0032 05F14003 		add	r3, r5, #64
 4387 0036 08EE903A 		vmov	s17, r3	@ int
 4388 003a 05F1C003 		add	r3, r5, #192
 4389 003e 08EE103A 		vmov	s16, r3	@ int
 4390 0042 039B     		ldr	r3, [sp, #12]
 4391 0044 A846     		mov	r8, r5
 4392 0046 202B     		cmp	r3, #32
 4393 0048 28BF     		it	cs
 4394 004a 2023     		movcs	r3, #32
 4395 004c 4FF00009 		mov	r9, #0
 4396 0050 05F18007 		add	r7, r5, #128
 4397 0054 05F58076 		add	r6, r5, #256
 4398 0058 0393     		str	r3, [sp, #12]
 4399              	.L257:
 4400 005a 4023     		movs	r3, #64
 4401              	.L316:
 4402 005c 0293     		str	r3, [sp, #8]
 4403 005e 029B     		ldr	r3, [sp, #8]
 4404 0060 B9F1000F 		cmp	r9, #0
 4405 0064 40F0AC81 		bne	.L275
 4406 0068 6BBB     		cbnz	r3, .L276
 4407 006a 6FF0C609 		mvn	r9, #198
 4408              	.L277:
 4409 006e 019B     		ldr	r3, [sp, #4]
 4410 0070 33B1     		cbz	r3, .L278
 4411 0072 1846     		mov	r0, r3
 4412 0074 C421     		movs	r1, #196
 4413 0076 FFF7FEFF 		bl	ForceZero
 4414 007a 0198     		ldr	r0, [sp, #4]
 4415 007c FFF7FEFF 		bl	wolfSSL_Free
 4416              	.L278:
 4417 0080 3DB1     		cbz	r5, .L256
 4418 0082 2846     		mov	r0, r5
 4419 0084 4FF4E071 		mov	r1, #448
 4420 0088 FFF7FEFF 		bl	ForceZero
 4421 008c 2846     		mov	r0, r5
 4422 008e FFF7FEFF 		bl	wolfSSL_Free
 4423              	.L256:
 4424 0092 4846     		mov	r0, r9
 4425 0094 05B0     		add	sp, sp, #20
 4426              		@ sp needed
 4427 0096 BDEC068B 		vldm	sp!, {d8-d10}
 4428 009a BDE8F08F 		pop	{r4, r5, r6, r7, r8, r9, r10, fp, pc}
 4429              	.L281:
 4430 009e 8046     		mov	r8, r0
 4431 00a0 0646     		mov	r6, r0
 4432 00a2 08EE100A 		vmov	s16, r0	@ int
 4433 00a6 0746     		mov	r7, r0
ARM GAS  /tmp/ccwGYw5D.s 			page 77


 4434 00a8 08EE900A 		vmov	s17, r0	@ int
 4435 00ac 0190     		str	r0, [sp, #4]
 4436              	.L315:
 4437 00ae 6FF07C09 		mvn	r9, #124
 4438 00b2 D2E7     		b	.L257
 4439              	.L282:
 4440 00b4 DDF80480 		ldr	r8, [sp, #4]
 4441 00b8 4646     		mov	r6, r8
 4442 00ba 08EE108A 		vmov	s16, r8	@ int
 4443 00be 4746     		mov	r7, r8
 4444 00c0 08EE908A 		vmov	s17, r8	@ int
 4445 00c4 F3E7     		b	.L315
 4446              	.L276:
 4447 00c6 169B     		ldr	r3, [sp, #88]
 4448 00c8 1BB1     		cbz	r3, .L259
 4449 00ca 1B88     		ldrh	r3, [r3]
 4450 00cc 002B     		cmp	r3, #0
 4451 00ce 40F06B81 		bne	.L260
 4452              	.L259:
 4453 00d2 3946     		mov	r1, r7
 4454 00d4 19EE900A 		vmov	r0, s19	@ int
 4455 00d8 FFF7FEFF 		bl	sp_256_ecc_gen_k_8
 4456 00dc 8146     		mov	r9, r0
 4457 00de 0028     		cmp	r0, #0
 4458 00e0 40F06B81 		bne	.L262
 4459              	.L261:
 4460 00e4 0123     		movs	r3, #1
 4461 00e6 3946     		mov	r1, r7
 4462 00e8 1A46     		mov	r2, r3
 4463 00ea 0198     		ldr	r0, [sp, #4]
 4464 00ec FFF7FEFF 		bl	sp_256_ecc_mulmod_stripe_8.constprop.0
 4465 00f0 8146     		mov	r9, r0
 4466 00f2 0028     		cmp	r0, #0
 4467 00f4 40F06181 		bne	.L262
 4468 00f8 019B     		ldr	r3, [sp, #4]
 4469 00fa 18EE102A 		vmov	r2, s16	@ int
 4470 00fe 1946     		mov	r1, r3
 4471 0100 2031     		adds	r1, r1, #32
 4472              	.L263:
 4473 0102 53F8040B 		ldr	r0, [r3], #4	@ unaligned
 4474 0106 8B42     		cmp	r3, r1
 4475 0108 42F8040B 		str	r0, [r2], #4	@ unaligned
 4476 010c F9D1     		bne	.L263
 4477 010e AF49     		ldr	r1, .L317
 4478 0110 18EE100A 		vmov	r0, s16	@ int
 4479 0114 FFF7FEFF 		bl	sp_256_cmp_8
 4480 0118 C043     		mvns	r0, r0
 4481 011a C00F     		lsrs	r0, r0, #31
 4482 011c 4342     		rsbs	r3, r0, #0
 4483 011e 18EE101A 		vmov	r1, s16	@ int
 4484 0122 18EE100A 		vmov	r0, s16	@ int
 4485 0126 A94A     		ldr	r2, .L317
 4486 0128 FFF7FEFF 		bl	sp_256_cond_sub_8.isra.0
 4487 012c 18EE100A 		vmov	r0, s16	@ int
 4488 0130 FFF7FEFF 		bl	sp_256_iszero_8
 4489 0134 0028     		cmp	r0, #0
 4490 0136 40F04081 		bne	.L262
ARM GAS  /tmp/ccwGYw5D.s 			page 78


 4491 013a 1AEE101A 		vmov	r1, s20	@ int
 4492 013e 18EE900A 		vmov	r0, s17	@ int
 4493 0142 FFF7FEFF 		bl	sp_256_from_mp.constprop.0
 4494 0146 19EE101A 		vmov	r1, s18	@ int
 4495 014a 2846     		mov	r0, r5
 4496 014c 039A     		ldr	r2, [sp, #12]
 4497 014e FFF7FEFF 		bl	sp_256_from_bin.constprop.0
 4498 0152 3946     		mov	r1, r7
 4499 0154 3846     		mov	r0, r7
 4500 0156 9E4A     		ldr	r2, .L317+4
 4501 0158 FFF7FEFF 		bl	sp_256_mul_8
 4502 015c 3946     		mov	r1, r7
 4503 015e 3846     		mov	r0, r7
 4504 0160 9A4A     		ldr	r2, .L317
 4505 0162 FFF7FEFF 		bl	sp_256_mod_8
 4506 0166 0028     		cmp	r0, #0
 4507 0168 40F02681 		bne	.L284
 4508 016c 3946     		mov	r1, r7
 4509 016e 3046     		mov	r0, r6
 4510 0170 06F14004 		add	r4, r6, #64
 4511 0174 FFF7FEFF 		bl	sp_256_mont_sqr_order_8
 4512 0178 3A46     		mov	r2, r7
 4513 017a 3146     		mov	r1, r6
 4514 017c 3046     		mov	r0, r6
 4515 017e FFF7FEFF 		bl	sp_256_mont_mul_order_8
 4516 0182 06F1800A 		add	r10, r6, #128
 4517 0186 0222     		movs	r2, #2
 4518 0188 3146     		mov	r1, r6
 4519 018a 2046     		mov	r0, r4
 4520 018c FFF7FEFF 		bl	sp_256_mont_sqr_n_order_8
 4521 0190 3246     		mov	r2, r6
 4522 0192 2146     		mov	r1, r4
 4523 0194 5046     		mov	r0, r10
 4524 0196 FFF7FEFF 		bl	sp_256_mont_mul_order_8
 4525 019a 0422     		movs	r2, #4
 4526 019c 5146     		mov	r1, r10
 4527 019e 2046     		mov	r0, r4
 4528 01a0 FFF7FEFF 		bl	sp_256_mont_sqr_n_order_8
 4529 01a4 5246     		mov	r2, r10
 4530 01a6 2146     		mov	r1, r4
 4531 01a8 3046     		mov	r0, r6
 4532 01aa FFF7FEFF 		bl	sp_256_mont_mul_order_8
 4533 01ae 0822     		movs	r2, #8
 4534 01b0 3146     		mov	r1, r6
 4535 01b2 2046     		mov	r0, r4
 4536 01b4 FFF7FEFF 		bl	sp_256_mont_sqr_n_order_8
 4537 01b8 3246     		mov	r2, r6
 4538 01ba 2146     		mov	r1, r4
 4539 01bc 3046     		mov	r0, r6
 4540 01be FFF7FEFF 		bl	sp_256_mont_mul_order_8
 4541 01c2 1022     		movs	r2, #16
 4542 01c4 3146     		mov	r1, r6
 4543 01c6 2046     		mov	r0, r4
 4544 01c8 FFF7FEFF 		bl	sp_256_mont_sqr_n_order_8
 4545 01cc 3246     		mov	r2, r6
 4546 01ce 2146     		mov	r1, r4
 4547 01d0 3046     		mov	r0, r6
ARM GAS  /tmp/ccwGYw5D.s 			page 79


 4548 01d2 FFF7FEFF 		bl	sp_256_mont_mul_order_8
 4549 01d6 4022     		movs	r2, #64
 4550 01d8 3146     		mov	r1, r6
 4551 01da 2046     		mov	r0, r4
 4552 01dc FFF7FEFF 		bl	sp_256_mont_sqr_n_order_8
 4553 01e0 3246     		mov	r2, r6
 4554 01e2 2146     		mov	r1, r4
 4555 01e4 2046     		mov	r0, r4
 4556 01e6 FFF7FEFF 		bl	sp_256_mont_mul_order_8
 4557 01ea 2022     		movs	r2, #32
 4558 01ec 2146     		mov	r1, r4
 4559 01ee 2046     		mov	r0, r4
 4560 01f0 FFF7FEFF 		bl	sp_256_mont_sqr_n_order_8
 4561 01f4 3246     		mov	r2, r6
 4562 01f6 2146     		mov	r1, r4
 4563 01f8 2046     		mov	r0, r4
 4564 01fa FFF7FEFF 		bl	sp_256_mont_mul_order_8
 4565 01fe 2146     		mov	r1, r4
 4566 0200 2046     		mov	r0, r4
 4567 0202 FFF7FEFF 		bl	sp_256_mont_sqr_order_8
 4568 0206 3A46     		mov	r2, r7
 4569 0208 2146     		mov	r1, r4
 4570 020a 2046     		mov	r0, r4
 4571 020c FFF7FEFF 		bl	sp_256_mont_mul_order_8
 4572 0210 0522     		movs	r2, #5
 4573 0212 2146     		mov	r1, r4
 4574 0214 2046     		mov	r0, r4
 4575 0216 FFF7FEFF 		bl	sp_256_mont_sqr_n_order_8
 4576 021a 5246     		mov	r2, r10
 4577 021c 2146     		mov	r1, r4
 4578 021e 2046     		mov	r0, r4
 4579 0220 FFF7FEFF 		bl	sp_256_mont_mul_order_8
 4580 0224 4FF0190B 		mov	fp, #25
 4581              	.L266:
 4582 0228 2046     		mov	r0, r4
 4583 022a 2146     		mov	r1, r4
 4584 022c FFF7FEFF 		bl	sp_256_mont_sqr_order_8
 4585 0230 684B     		ldr	r3, .L317+8
 4586 0232 23FA0BF3 		lsr	r3, r3, fp
 4587 0236 D807     		lsls	r0, r3, #31
 4588 0238 04D5     		bpl	.L265
 4589 023a 3A46     		mov	r2, r7
 4590 023c 2146     		mov	r1, r4
 4591 023e 2046     		mov	r0, r4
 4592 0240 FFF7FEFF 		bl	sp_256_mont_mul_order_8
 4593              	.L265:
 4594 0244 0BF1FF3B 		add	fp, fp, #-1
 4595 0248 BBF10F0F 		cmp	fp, #15
 4596 024c ECD1     		bne	.L266
 4597 024e 0422     		movs	r2, #4
 4598 0250 2146     		mov	r1, r4
 4599 0252 2046     		mov	r0, r4
 4600 0254 FFF7FEFF 		bl	sp_256_mont_sqr_n_order_8
 4601 0258 5246     		mov	r2, r10
 4602 025a 2146     		mov	r1, r4
 4603 025c 2046     		mov	r0, r4
 4604 025e FFF7FEFF 		bl	sp_256_mont_mul_order_8
ARM GAS  /tmp/ccwGYw5D.s 			page 80


 4605 0262 4FF06B0B 		mov	fp, #107
 4606              	.L268:
 4607 0266 2146     		mov	r1, r4
 4608 0268 2046     		mov	r0, r4
 4609 026a FFF7FEFF 		bl	sp_256_mont_sqr_order_8
 4610 026e 5A4B     		ldr	r3, .L317+12
 4611 0270 4FEA6B11 		asr	r1, fp, #5
 4612 0274 53F82110 		ldr	r1, [r3, r1, lsl #2]
 4613 0278 0BF01F02 		and	r2, fp, #31
 4614 027c 21FA02F2 		lsr	r2, r1, r2
 4615 0280 D107     		lsls	r1, r2, #31
 4616 0282 04D5     		bpl	.L267
 4617 0284 3A46     		mov	r2, r7
 4618 0286 2146     		mov	r1, r4
 4619 0288 2046     		mov	r0, r4
 4620 028a FFF7FEFF 		bl	sp_256_mont_mul_order_8
 4621              	.L267:
 4622 028e 0BF1FF3B 		add	fp, fp, #-1
 4623 0292 BBF13F0F 		cmp	fp, #63
 4624 0296 E6D1     		bne	.L268
 4625 0298 0422     		movs	r2, #4
 4626 029a 2146     		mov	r1, r4
 4627 029c 2046     		mov	r0, r4
 4628 029e FFF7FEFF 		bl	sp_256_mont_sqr_n_order_8
 4629 02a2 5246     		mov	r2, r10
 4630 02a4 2146     		mov	r1, r4
 4631 02a6 2046     		mov	r0, r4
 4632 02a8 FFF7FEFF 		bl	sp_256_mont_mul_order_8
 4633 02ac 4FF03B0B 		mov	fp, #59
 4634              	.L270:
 4635 02b0 2146     		mov	r1, r4
 4636 02b2 2046     		mov	r0, r4
 4637 02b4 FFF7FEFF 		bl	sp_256_mont_sqr_order_8
 4638 02b8 484A     		ldr	r2, .L317+16
 4639 02ba 0BF01F03 		and	r3, fp, #31
 4640 02be 22FA03F3 		lsr	r3, r2, r3
 4641 02c2 DA07     		lsls	r2, r3, #31
 4642 02c4 04D5     		bpl	.L269
 4643 02c6 3A46     		mov	r2, r7
 4644 02c8 2146     		mov	r1, r4
 4645 02ca 2046     		mov	r0, r4
 4646 02cc FFF7FEFF 		bl	sp_256_mont_mul_order_8
 4647              	.L269:
 4648 02d0 0BF1FF3B 		add	fp, fp, #-1
 4649 02d4 BBF11F0F 		cmp	fp, #31
 4650 02d8 EAD1     		bne	.L270
 4651 02da 0422     		movs	r2, #4
 4652 02dc 2146     		mov	r1, r4
 4653 02de 2046     		mov	r0, r4
 4654 02e0 FFF7FEFF 		bl	sp_256_mont_sqr_n_order_8
 4655 02e4 5246     		mov	r2, r10
 4656 02e6 2146     		mov	r1, r4
 4657 02e8 2046     		mov	r0, r4
 4658 02ea FFF7FEFF 		bl	sp_256_mont_mul_order_8
 4659 02ee 4FF01B0B 		mov	fp, #27
 4660              	.L272:
 4661 02f2 2146     		mov	r1, r4
ARM GAS  /tmp/ccwGYw5D.s 			page 81


 4662 02f4 2046     		mov	r0, r4
 4663 02f6 FFF7FEFF 		bl	sp_256_mont_sqr_order_8
 4664 02fa 394B     		ldr	r3, .L317+20
 4665 02fc 23FA0BF3 		lsr	r3, r3, fp
 4666 0300 DB07     		lsls	r3, r3, #31
 4667 0302 04D5     		bpl	.L271
 4668 0304 3A46     		mov	r2, r7
 4669 0306 2146     		mov	r1, r4
 4670 0308 2046     		mov	r0, r4
 4671 030a FFF7FEFF 		bl	sp_256_mont_mul_order_8
 4672              	.L271:
 4673 030e BBF1010B 		subs	fp, fp, #1
 4674 0312 EED2     		bcs	.L272
 4675 0314 0422     		movs	r2, #4
 4676 0316 2146     		mov	r1, r4
 4677 0318 2046     		mov	r0, r4
 4678 031a FFF7FEFF 		bl	sp_256_mont_sqr_n_order_8
 4679 031e 5246     		mov	r2, r10
 4680 0320 2146     		mov	r1, r4
 4681 0322 3846     		mov	r0, r7
 4682 0324 FFF7FEFF 		bl	sp_256_mont_mul_order_8
 4683 0328 18EE102A 		vmov	r2, s16	@ int
 4684 032c 18EE901A 		vmov	r1, s17	@ int
 4685 0330 18EE900A 		vmov	r0, s17	@ int
 4686 0334 FFF7FEFF 		bl	sp_256_mul_8
 4687 0338 18EE901A 		vmov	r1, s17	@ int
 4688 033c 18EE900A 		vmov	r0, s17	@ int
 4689 0340 224A     		ldr	r2, .L317
 4690 0342 FFF7FEFF 		bl	sp_256_mod_8
 4691 0346 B8BB     		cbnz	r0, .L284
 4692 0348 18EE902A 		vmov	r2, s17	@ int
 4693 034c 2946     		mov	r1, r5
 4694 034e 4046     		mov	r0, r8
 4695 0350 FFF7FEFF 		bl	sp_256_add_8
 4696 0354 1D4A     		ldr	r2, .L317
 4697 0356 4342     		rsbs	r3, r0, #0
 4698 0358 4146     		mov	r1, r8
 4699 035a 4046     		mov	r0, r8
 4700 035c FFF7FEFF 		bl	sp_256_cond_sub_8.isra.0
 4701 0360 1A49     		ldr	r1, .L317
 4702 0362 4046     		mov	r0, r8
 4703 0364 FFF7FEFF 		bl	sp_256_cmp_8
 4704 0368 C043     		mvns	r0, r0
 4705 036a C00F     		lsrs	r0, r0, #31
 4706 036c 4342     		rsbs	r3, r0, #0
 4707 036e 4146     		mov	r1, r8
 4708 0370 4046     		mov	r0, r8
 4709 0372 164A     		ldr	r2, .L317
 4710 0374 FFF7FEFF 		bl	sp_256_cond_sub_8.isra.0
 4711 0378 4046     		mov	r0, r8
 4712 037a 3A46     		mov	r2, r7
 4713 037c 4146     		mov	r1, r8
 4714 037e FFF7FEFF 		bl	sp_256_mont_mul_order_8
 4715 0382 4046     		mov	r0, r8
 4716 0384 FFF7FEFF 		bl	sp_256_iszero_8
 4717 0388 B8B9     		cbnz	r0, .L262
 4718 038a 18EE100A 		vmov	r0, s16	@ int
ARM GAS  /tmp/ccwGYw5D.s 			page 82


 4719 038e 1499     		ldr	r1, [sp, #80]
 4720 0390 FFF7FEFF 		bl	sp_256_to_mp
 4721 0394 8146     		mov	r9, r0
 4722 0396 0028     		cmp	r0, #0
 4723 0398 7FF469AE 		bne	.L277
 4724 039c 4046     		mov	r0, r8
 4725 039e 1599     		ldr	r1, [sp, #84]
 4726 03a0 FFF7FEFF 		bl	sp_256_to_mp
 4727 03a4 8146     		mov	r9, r0
 4728 03a6 62E6     		b	.L277
 4729              	.L260:
 4730 03a8 3846     		mov	r0, r7
 4731 03aa 1699     		ldr	r1, [sp, #88]
 4732 03ac FFF7FEFF 		bl	sp_256_from_mp.constprop.0
 4733 03b0 1698     		ldr	r0, [sp, #88]
 4734 03b2 FFF7FEFF 		bl	sp_zero
 4735 03b6 95E6     		b	.L261
 4736              	.L284:
 4737 03b8 8146     		mov	r9, r0
 4738              	.L262:
 4739 03ba 029B     		ldr	r3, [sp, #8]
 4740 03bc 013B     		subs	r3, r3, #1
 4741 03be 4DE6     		b	.L316
 4742              	.L275:
 4743 03c0 002B     		cmp	r3, #0
 4744 03c2 08BF     		it	eq
 4745 03c4 6FF0C609 		mvneq	r9, #198
 4746 03c8 51E6     		b	.L277
 4747              	.L318:
 4748 03ca 00BF     		.align	2
 4749              	.L317:
 4750 03cc 00000000 		.word	.LANCHOR0
 4751 03d0 00000000 		.word	.LANCHOR5
 4752 03d4 ADFAE6BC 		.word	-1125713235
 4753 03d8 00000000 		.word	.LANCHOR6
 4754 03dc C2CAB9F3 		.word	-205927742
 4755 03e0 4F2563FC 		.word	-60611249
 4757              		.section	.text.sp_ecc_verify_256,"ax",%progbits
 4758              		.align	1
 4759              		.global	sp_ecc_verify_256
 4760              		.syntax unified
 4761              		.thumb
 4762              		.thumb_func
 4763              		.fpu fpv4-sp-d16
 4765              	sp_ecc_verify_256:
 4766              		@ args = 20, pretend = 0, frame = 128
 4767              		@ frame_needed = 0, uses_anonymous_args = 0
 4768 0000 2DE9F04F 		push	{r4, r5, r6, r7, r8, r9, r10, fp, lr}
 4769 0004 2DED028B 		vpush.64	{d8}
 4770 0008 8246     		mov	r10, r0
 4771 000a A3B0     		sub	sp, sp, #140
 4772 000c 4FF41070 		mov	r0, #576
 4773 0010 8B46     		mov	fp, r1
 4774 0012 9046     		mov	r8, r2
 4775 0014 1F46     		mov	r7, r3
 4776 0016 FFF7FEFF 		bl	wolfSSL_Malloc
 4777 001a 0546     		mov	r5, r0
ARM GAS  /tmp/ccwGYw5D.s 			page 83


 4778 001c 0028     		cmp	r0, #0
 4779 001e 00F0BA81 		beq	.L355
 4780 0022 4FF4C470 		mov	r0, #392
 4781 0026 FFF7FEFF 		bl	wolfSSL_Malloc
 4782 002a 0446     		mov	r4, r0
 4783 002c 0028     		cmp	r0, #0
 4784 002e 00F0BA81 		beq	.L356
 4785 0032 5A46     		mov	r2, fp
 4786 0034 202A     		cmp	r2, #32
 4787 0036 28BF     		it	cs
 4788 0038 2022     		movcs	r2, #32
 4789 003a 5146     		mov	r1, r10
 4790 003c 2846     		mov	r0, r5
 4791 003e 05F14006 		add	r6, r5, #64
 4792 0042 FFF7FEFF 		bl	sp_256_from_bin.constprop.0
 4793 0046 05F18009 		add	r9, r5, #128
 4794 004a 3046     		mov	r0, r6
 4795 004c 2F99     		ldr	r1, [sp, #188]
 4796 004e FFF7FEFF 		bl	sp_256_from_mp.constprop.0
 4797 0052 4846     		mov	r0, r9
 4798 0054 3099     		ldr	r1, [sp, #192]
 4799 0056 FFF7FEFF 		bl	sp_256_from_mp.constprop.0
 4800 005a 4146     		mov	r1, r8
 4801 005c 04F1C400 		add	r0, r4, #196
 4802 0060 FFF7FEFF 		bl	sp_256_from_mp.constprop.0
 4803 0064 3946     		mov	r1, r7
 4804 0066 04F58270 		add	r0, r4, #260
 4805 006a FFF7FEFF 		bl	sp_256_from_mp.constprop.0
 4806 006e 04F5A273 		add	r3, r4, #324
 4807 0072 1846     		mov	r0, r3
 4808 0074 2E99     		ldr	r1, [sp, #184]
 4809 0076 08EE103A 		vmov	s16, r3	@ int
 4810 007a FFF7FEFF 		bl	sp_256_from_mp.constprop.0
 4811 007e DFF830C3 		ldr	ip, .L381+4
 4812 0082 02AF     		add	r7, sp, #8
 4813 0084 BCE80F00 		ldmia	ip!, {r0, r1, r2, r3}
 4814 0088 0FC7     		stmia	r7!, {r0, r1, r2, r3}
 4815 008a 9CE80F00 		ldm	ip, {r0, r1, r2, r3}
 4816 008e 87E80F00 		stm	r7, {r0, r1, r2, r3}
 4817 0092 4B46     		mov	r3, r9
 4818 0094 0AAF     		add	r7, sp, #40
 4819 0096 05F1A00C 		add	ip, r5, #160
 4820              	.L322:
 4821 009a 3A46     		mov	r2, r7
 4822 009c 1868     		ldr	r0, [r3]	@ unaligned
 4823 009e 5968     		ldr	r1, [r3, #4]	@ unaligned
 4824 00a0 0833     		adds	r3, r3, #8
 4825 00a2 03C2     		stmia	r2!, {r0, r1}
 4826 00a4 6345     		cmp	r3, ip
 4827 00a6 1746     		mov	r7, r2
 4828 00a8 F7D1     		bne	.L322
 4829 00aa 02A8     		add	r0, sp, #8
 4830 00ac FFF7FEFF 		bl	sp_256_num_bits_8
 4831 00b0 0DF1280A 		add	r10, sp, #40
 4832 00b4 8346     		mov	fp, r0
 4833 00b6 5046     		mov	r0, r10
 4834 00b8 FFF7FEFF 		bl	sp_256_num_bits_8
ARM GAS  /tmp/ccwGYw5D.s 			page 84


 4835 00bc 0021     		movs	r1, #0
 4836 00be 0746     		mov	r7, r0
 4837 00c0 2022     		movs	r2, #32
 4838 00c2 12A8     		add	r0, sp, #72
 4839 00c4 FFF7FEFF 		bl	memset
 4840 00c8 0A9B     		ldr	r3, [sp, #40]
 4841 00ca D907     		lsls	r1, r3, #31
 4842 00cc 37D4     		bmi	.L323
 4843 00ce 5146     		mov	r1, r10
 4844 00d0 5046     		mov	r0, r10
 4845 00d2 FFF7FEFF 		bl	sp_256_rshift1_8
 4846 00d6 DFF8D8E2 		ldr	lr, .L381+4
 4847 00da 0DF1680C 		add	ip, sp, #104
 4848 00de BEE80F00 		ldmia	lr!, {r0, r1, r2, r3}
 4849 00e2 ACE80F00 		stmia	ip!, {r0, r1, r2, r3}
 4850 00e6 9EE80F00 		ldm	lr, {r0, r1, r2, r3}
 4851 00ea 8CE80F00 		stm	ip, {r0, r1, r2, r3}
 4852 00ee AF4B     		ldr	r3, .L381
 4853 00f0 1AA9     		add	r1, sp, #104
 4854 00f2 0846     		mov	r0, r1
 4855 00f4 1A93     		str	r3, [sp, #104]
 4856 00f6 D046     		mov	r8, r10
 4857 00f8 FFF7FEFF 		bl	sp_256_rshift1_8
 4858 00fc 013F     		subs	r7, r7, #1
 4859              	.L324:
 4860 00fe 0A9B     		ldr	r3, [sp, #40]
 4861 0100 DA07     		lsls	r2, r3, #31
 4862 0102 12D5     		bpl	.L325
 4863              	.L326:
 4864 0104 0DF16808 		add	r8, sp, #104
 4865              	.L327:
 4866 0108 BBF1010F 		cmp	fp, #1
 4867 010c 74DD     		ble	.L337
 4868 010e 012F     		cmp	r7, #1
 4869 0110 1DDC     		bgt	.L338
 4870              	.L339:
 4871 0112 4A46     		mov	r2, r9
 4872 0114 22AF     		add	r7, sp, #136
 4873              	.L342:
 4874 0116 4346     		mov	r3, r8
 4875 0118 03CB     		ldmia	r3!, {r0, r1}
 4876 011a BB42     		cmp	r3, r7
 4877 011c 1060     		str	r0, [r2]	@ unaligned
 4878 011e 5160     		str	r1, [r2, #4]	@ unaligned
 4879 0120 9846     		mov	r8, r3
 4880 0122 02F10802 		add	r2, r2, #8
 4881 0126 F6D1     		bne	.L342
 4882 0128 72E0     		b	.L341
 4883              	.L325:
 4884 012a 4146     		mov	r1, r8
 4885 012c 4046     		mov	r0, r8
 4886 012e FFF7FEFF 		bl	sp_256_rshift1_8
 4887 0132 1AA9     		add	r1, sp, #104
 4888 0134 0846     		mov	r0, r1
 4889 0136 FFF7FEFF 		bl	sp_256_div2_mod_8.constprop.0
 4890 013a 013F     		subs	r7, r7, #1
 4891 013c DFE7     		b	.L324
ARM GAS  /tmp/ccwGYw5D.s 			page 85


 4892              	.L323:
 4893 013e 1C22     		movs	r2, #28
 4894 0140 0021     		movs	r1, #0
 4895 0142 1BA8     		add	r0, sp, #108
 4896 0144 FFF7FEFF 		bl	memset
 4897 0148 0123     		movs	r3, #1
 4898 014a 1A93     		str	r3, [sp, #104]
 4899 014c DAE7     		b	.L326
 4900              	.L338:
 4901 014e BB45     		cmp	fp, r7
 4902 0150 24DD     		ble	.L328
 4903              	.L332:
 4904 0152 02A9     		add	r1, sp, #8
 4905 0154 5246     		mov	r2, r10
 4906 0156 0846     		mov	r0, r1
 4907 0158 FFF7FEFF 		bl	sp_256_sub_8
 4908 015c 12A9     		add	r1, sp, #72
 4909 015e 4246     		mov	r2, r8
 4910 0160 0846     		mov	r0, r1
 4911 0162 FFF7FEFF 		bl	sp_256_sub_8
 4912 0166 20B1     		cbz	r0, .L330
 4913 0168 12A9     		add	r1, sp, #72
 4914 016a 0846     		mov	r0, r1
 4915 016c 904A     		ldr	r2, .L381+4
 4916 016e FFF7FEFF 		bl	sp_256_add_8
 4917              	.L330:
 4918 0172 02A8     		add	r0, sp, #8
 4919 0174 FFF7FEFF 		bl	sp_256_num_bits_8
 4920 0178 8346     		mov	fp, r0
 4921              	.L334:
 4922 017a 02A9     		add	r1, sp, #8
 4923 017c 0846     		mov	r0, r1
 4924 017e FFF7FEFF 		bl	sp_256_rshift1_8
 4925 0182 12A9     		add	r1, sp, #72
 4926 0184 0846     		mov	r0, r1
 4927 0186 0BF1FF3B 		add	fp, fp, #-1
 4928 018a FFF7FEFF 		bl	sp_256_div2_mod_8.constprop.0
 4929 018e BBF1000F 		cmp	fp, #0
 4930 0192 B9DD     		ble	.L327
 4931 0194 029B     		ldr	r3, [sp, #8]
 4932 0196 DB07     		lsls	r3, r3, #31
 4933 0198 EFD5     		bpl	.L334
 4934 019a B5E7     		b	.L327
 4935              	.L328:
 4936 019c 05D1     		bne	.L331
 4937 019e 0AA9     		add	r1, sp, #40
 4938 01a0 02A8     		add	r0, sp, #8
 4939 01a2 FFF7FEFF 		bl	sp_256_cmp_8
 4940 01a6 0028     		cmp	r0, #0
 4941 01a8 D3DA     		bge	.L332
 4942              	.L331:
 4943 01aa 5146     		mov	r1, r10
 4944 01ac 02AA     		add	r2, sp, #8
 4945 01ae 5046     		mov	r0, r10
 4946 01b0 FFF7FEFF 		bl	sp_256_sub_8
 4947 01b4 4146     		mov	r1, r8
 4948 01b6 4046     		mov	r0, r8
ARM GAS  /tmp/ccwGYw5D.s 			page 86


 4949 01b8 12AA     		add	r2, sp, #72
 4950 01ba FFF7FEFF 		bl	sp_256_sub_8
 4951 01be 20B1     		cbz	r0, .L335
 4952 01c0 4146     		mov	r1, r8
 4953 01c2 4046     		mov	r0, r8
 4954 01c4 7A4A     		ldr	r2, .L381+4
 4955 01c6 FFF7FEFF 		bl	sp_256_add_8
 4956              	.L335:
 4957 01ca 0AAB     		add	r3, sp, #40
 4958 01cc 1846     		mov	r0, r3
 4959 01ce FFF7FEFF 		bl	sp_256_num_bits_8
 4960 01d2 0746     		mov	r7, r0
 4961 01d4 0AAB     		add	r3, sp, #40
 4962              	.L336:
 4963 01d6 1946     		mov	r1, r3
 4964 01d8 1846     		mov	r0, r3
 4965 01da FFF7FEFF 		bl	sp_256_rshift1_8
 4966 01de 013F     		subs	r7, r7, #1
 4967 01e0 4146     		mov	r1, r8
 4968 01e2 4046     		mov	r0, r8
 4969 01e4 FFF7FEFF 		bl	sp_256_div2_mod_8.constprop.0
 4970 01e8 002F     		cmp	r7, #0
 4971 01ea 8DDD     		ble	.L327
 4972 01ec 0A9A     		ldr	r2, [sp, #40]
 4973 01ee 0AAB     		add	r3, sp, #40
 4974 01f0 12F0010F 		tst	r2, #1
 4975 01f4 EFD0     		beq	.L336
 4976 01f6 87E7     		b	.L327
 4977              	.L337:
 4978 01f8 8BD1     		bne	.L339
 4979 01fa 4A46     		mov	r2, r9
 4980 01fc 12AF     		add	r7, sp, #72
 4981              	.L340:
 4982 01fe 3B46     		mov	r3, r7
 4983 0200 03CB     		ldmia	r3!, {r0, r1}
 4984 0202 4345     		cmp	r3, r8
 4985 0204 1060     		str	r0, [r2]	@ unaligned
 4986 0206 5160     		str	r1, [r2, #4]	@ unaligned
 4987 0208 1F46     		mov	r7, r3
 4988 020a 02F10802 		add	r2, r2, #8
 4989 020e F6D1     		bne	.L340
 4990              	.L341:
 4991 0210 4946     		mov	r1, r9
 4992 0212 4846     		mov	r0, r9
 4993 0214 674A     		ldr	r2, .L381+8
 4994 0216 FFF7FEFF 		bl	sp_256_mul_8
 4995 021a 4946     		mov	r1, r9
 4996 021c 4846     		mov	r0, r9
 4997 021e 644A     		ldr	r2, .L381+4
 4998 0220 FFF7FEFF 		bl	sp_256_mod_8
 4999 0224 8246     		mov	r10, r0
 5000 0226 0028     		cmp	r0, #0
 5001 0228 40F08480 		bne	.L343
 5002 022c 4A46     		mov	r2, r9
 5003 022e 2946     		mov	r1, r5
 5004 0230 2846     		mov	r0, r5
 5005 0232 FFF7FEFF 		bl	sp_256_mont_mul_order_8
ARM GAS  /tmp/ccwGYw5D.s 			page 87


 5006 0236 4A46     		mov	r2, r9
 5007 0238 3146     		mov	r1, r6
 5008 023a 3046     		mov	r0, r6
 5009 023c FFF7FEFF 		bl	sp_256_mont_mul_order_8
 5010 0240 5346     		mov	r3, r10
 5011 0242 5246     		mov	r2, r10
 5012 0244 2946     		mov	r1, r5
 5013 0246 2046     		mov	r0, r4
 5014 0248 FFF7FEFF 		bl	sp_256_ecc_mulmod_stripe_8.constprop.0
 5015 024c 8246     		mov	r10, r0
 5016 024e 0028     		cmp	r0, #0
 5017 0250 70D1     		bne	.L343
 5018 0252 04F18007 		add	r7, r4, #128
 5019 0256 3846     		mov	r0, r7
 5020 0258 FFF7FEFF 		bl	sp_256_iszero_8
 5021 025c 10B1     		cbz	r0, .L344
 5022 025e 0123     		movs	r3, #1
 5023 0260 C4F8C030 		str	r3, [r4, #192]
 5024              	.L344:
 5025 0264 0023     		movs	r3, #0
 5026 0266 04F1C408 		add	r8, r4, #196
 5027 026a 3246     		mov	r2, r6
 5028 026c 4146     		mov	r1, r8
 5029 026e 4046     		mov	r0, r8
 5030 0270 0093     		str	r3, [sp]
 5031 0272 FFF7FEFF 		bl	sp_256_ecc_mulmod_fast_8.constprop.0
 5032 0276 8246     		mov	r10, r0
 5033 0278 0028     		cmp	r0, #0
 5034 027a 5BD1     		bne	.L343
 5035 027c 18EE100A 		vmov	r0, s16	@ int
 5036 0280 FFF7FEFF 		bl	sp_256_iszero_8
 5037 0284 10B1     		cbz	r0, .L345
 5038 0286 0123     		movs	r3, #1
 5039 0288 C4F88431 		str	r3, [r4, #388]
 5040              	.L345:
 5041 028c 05F1C009 		add	r9, r5, #192
 5042 0290 2046     		mov	r0, r4
 5043 0292 4B46     		mov	r3, r9
 5044 0294 4246     		mov	r2, r8
 5045 0296 2146     		mov	r1, r4
 5046 0298 FFF7FEFF 		bl	sp_256_proj_point_add_8
 5047 029c 3846     		mov	r0, r7
 5048 029e FFF7FEFF 		bl	sp_256_iszero_8
 5049 02a2 78B1     		cbz	r0, .L347
 5050 02a4 2046     		mov	r0, r4
 5051 02a6 FFF7FEFF 		bl	sp_256_iszero_8
 5052 02aa 0028     		cmp	r0, #0
 5053 02ac 49D0     		beq	.L346
 5054 02ae 04F14000 		add	r0, r4, #64
 5055 02b2 FFF7FEFF 		bl	sp_256_iszero_8
 5056 02b6 0028     		cmp	r0, #0
 5057 02b8 43D0     		beq	.L346
 5058 02ba 4A46     		mov	r2, r9
 5059 02bc 4146     		mov	r1, r8
 5060 02be 2046     		mov	r0, r4
 5061 02c0 FFF7FEFF 		bl	sp_256_proj_point_dbl_8
 5062              	.L347:
ARM GAS  /tmp/ccwGYw5D.s 			page 88


 5063 02c4 3046     		mov	r0, r6
 5064 02c6 2F99     		ldr	r1, [sp, #188]
 5065 02c8 FFF7FEFF 		bl	sp_256_from_mp.constprop.0
 5066 02cc 3146     		mov	r1, r6
 5067 02ce 3046     		mov	r0, r6
 5068 02d0 FFF7FEFF 		bl	sp_256_mod_mul_norm_8.constprop.0
 5069 02d4 8246     		mov	r10, r0
 5070 02d6 68BB     		cbnz	r0, .L343
 5071 02d8 3946     		mov	r1, r7
 5072 02da 3846     		mov	r0, r7
 5073 02dc FFF7FEFF 		bl	sp_256_mont_sqr_8.constprop.0
 5074 02e0 3A46     		mov	r2, r7
 5075 02e2 3146     		mov	r1, r6
 5076 02e4 2846     		mov	r0, r5
 5077 02e6 FFF7FEFF 		bl	sp_256_mont_mul_8.constprop.0
 5078 02ea 2946     		mov	r1, r5
 5079 02ec 2046     		mov	r0, r4
 5080 02ee FFF7FEFF 		bl	sp_256_cmp_8
 5081 02f2 0028     		cmp	r0, #0
 5082 02f4 0CBF     		ite	eq
 5083 02f6 0123     		moveq	r3, #1
 5084 02f8 0023     		movne	r3, #0
 5085 02fa 319A     		ldr	r2, [sp, #196]
 5086 02fc 1360     		str	r3, [r2]
 5087 02fe 38D1     		bne	.L349
 5088              	.L351:
 5089 0300 0020     		movs	r0, #0
 5090              	.L350:
 5091 0302 319B     		ldr	r3, [sp, #196]
 5092 0304 1B68     		ldr	r3, [r3]
 5093 0306 ABB9     		cbnz	r3, .L343
 5094 0308 0028     		cmp	r0, #0
 5095 030a 42DA     		bge	.L357
 5096 030c 3146     		mov	r1, r6
 5097 030e 3046     		mov	r0, r6
 5098 0310 FFF7FEFF 		bl	sp_256_mod_mul_norm_8.constprop.0
 5099 0314 8246     		mov	r10, r0
 5100 0316 68B9     		cbnz	r0, .L343
 5101 0318 3A46     		mov	r2, r7
 5102 031a 3146     		mov	r1, r6
 5103 031c 2846     		mov	r0, r5
 5104 031e FFF7FEFF 		bl	sp_256_mont_mul_8.constprop.0
 5105 0322 2946     		mov	r1, r5
 5106 0324 2046     		mov	r0, r4
 5107 0326 FFF7FEFF 		bl	sp_256_cmp_8
 5108 032a B0FA80F0 		clz	r0, r0
 5109 032e 319B     		ldr	r3, [sp, #196]
 5110 0330 4009     		lsrs	r0, r0, #5
 5111 0332 1860     		str	r0, [r3]
 5112              	.L343:
 5113 0334 2046     		mov	r0, r4
 5114 0336 FFF7FEFF 		bl	wolfSSL_Free
 5115              	.L321:
 5116 033a 2846     		mov	r0, r5
 5117 033c FFF7FEFF 		bl	wolfSSL_Free
 5118 0340 2BE0     		b	.L319
 5119              	.L346:
ARM GAS  /tmp/ccwGYw5D.s 			page 89


 5120 0342 0023     		movs	r3, #0
 5121 0344 3A46     		mov	r2, r7
 5122 0346 DFF874C0 		ldr	ip, .L381+16
 5123 034a C4E90033 		strd	r3, r3, [r4]
 5124 034e C4E90233 		strd	r3, r3, [r4, #8]
 5125 0352 C4E90433 		strd	r3, r3, [r4, #16]
 5126 0356 C4E90633 		strd	r3, r3, [r4, #24]
 5127 035a 0CF1200E 		add	lr, ip, #32
 5128              	.L348:
 5129 035e 6346     		mov	r3, ip
 5130 0360 03CB     		ldmia	r3!, {r0, r1}
 5131 0362 7345     		cmp	r3, lr
 5132 0364 1060     		str	r0, [r2]	@ unaligned
 5133 0366 5160     		str	r1, [r2, #4]	@ unaligned
 5134 0368 9C46     		mov	ip, r3
 5135 036a 02F10802 		add	r2, r2, #8
 5136 036e F6D1     		bne	.L348
 5137 0370 A8E7     		b	.L347
 5138              	.L349:
 5139 0372 3046     		mov	r0, r6
 5140 0374 2F99     		ldr	r1, [sp, #188]
 5141 0376 FFF7FEFF 		bl	sp_256_from_mp.constprop.0
 5142 037a 3146     		mov	r1, r6
 5143 037c 3046     		mov	r0, r6
 5144 037e 0C4A     		ldr	r2, .L381+4
 5145 0380 FFF7FEFF 		bl	sp_256_add_8
 5146 0384 0028     		cmp	r0, #0
 5147 0386 BBD1     		bne	.L351
 5148 0388 3046     		mov	r0, r6
 5149 038a 0B49     		ldr	r1, .L381+12
 5150 038c FFF7FEFF 		bl	sp_256_cmp_8
 5151 0390 B7E7     		b	.L350
 5152              	.L357:
 5153 0392 9A46     		mov	r10, r3
 5154 0394 CEE7     		b	.L343
 5155              	.L355:
 5156 0396 6FF07C0A 		mvn	r10, #124
 5157              	.L319:
 5158 039a 5046     		mov	r0, r10
 5159 039c 23B0     		add	sp, sp, #140
 5160              		@ sp needed
 5161 039e BDEC028B 		vldm	sp!, {d8}
 5162 03a2 BDE8F08F 		pop	{r4, r5, r6, r7, r8, r9, r10, fp, pc}
 5163              	.L356:
 5164 03a6 6FF07C0A 		mvn	r10, #124
 5165 03aa C6E7     		b	.L321
 5166              	.L382:
 5167              		.align	2
 5168              	.L381:
 5169 03ac 522563FC 		.word	-60611246
 5170 03b0 00000000 		.word	.LANCHOR0
 5171 03b4 00000000 		.word	.LANCHOR5
 5172 03b8 00000000 		.word	.LANCHOR2
 5173 03bc 00000000 		.word	.LANCHOR3
 5175              		.section	.text.sp_ecc_is_point_256,"ax",%progbits
 5176              		.align	1
 5177              		.global	sp_ecc_is_point_256
ARM GAS  /tmp/ccwGYw5D.s 			page 90


 5178              		.syntax unified
 5179              		.thumb
 5180              		.thumb_func
 5181              		.fpu fpv4-sp-d16
 5183              	sp_ecc_is_point_256:
 5184              		@ args = 0, pretend = 0, frame = 8
 5185              		@ frame_needed = 0, uses_anonymous_args = 0
 5186 0000 F7B5     		push	{r0, r1, r2, r4, r5, r6, r7, lr}
 5187 0002 0127     		movs	r7, #1
 5188 0004 0646     		mov	r6, r0
 5189 0006 C420     		movs	r0, #196
 5190 0008 0D46     		mov	r5, r1
 5191 000a 8DF80470 		strb	r7, [sp, #4]
 5192 000e FFF7FEFF 		bl	wolfSSL_Malloc
 5193 0012 0446     		mov	r4, r0
 5194 0014 B8B1     		cbz	r0, .L385
 5195 0016 3146     		mov	r1, r6
 5196 0018 FFF7FEFF 		bl	sp_256_from_mp.constprop.0
 5197 001c 2946     		mov	r1, r5
 5198 001e 04F14000 		add	r0, r4, #64
 5199 0022 FFF7FEFF 		bl	sp_256_from_mp.constprop.0
 5200 0026 3A46     		mov	r2, r7
 5201 0028 01A9     		add	r1, sp, #4
 5202 002a 04F18000 		add	r0, r4, #128
 5203 002e FFF7FEFF 		bl	sp_256_from_bin.constprop.0
 5204 0032 2046     		mov	r0, r4
 5205 0034 FFF7FEFF 		bl	sp_256_ecc_is_point_8.constprop.0
 5206 0038 0546     		mov	r5, r0
 5207 003a 2046     		mov	r0, r4
 5208 003c FFF7FEFF 		bl	wolfSSL_Free
 5209              	.L383:
 5210 0040 2846     		mov	r0, r5
 5211 0042 03B0     		add	sp, sp, #12
 5212              		@ sp needed
 5213 0044 F0BD     		pop	{r4, r5, r6, r7, pc}
 5214              	.L385:
 5215 0046 6FF07C05 		mvn	r5, #124
 5216 004a F9E7     		b	.L383
 5218              		.section	.text.sp_ecc_check_key_256,"ax",%progbits
 5219              		.align	1
 5220              		.global	sp_ecc_check_key_256
 5221              		.syntax unified
 5222              		.thumb
 5223              		.thumb_func
 5224              		.fpu fpv4-sp-d16
 5226              	sp_ecc_check_key_256:
 5227              		@ args = 0, pretend = 0, frame = 8
 5228              		@ frame_needed = 0, uses_anonymous_args = 0
 5229 0000 0123     		movs	r3, #1
 5230 0002 2DE9F04F 		push	{r4, r5, r6, r7, r8, r9, r10, fp, lr}
 5231 0006 85B0     		sub	sp, sp, #20
 5232 0008 0746     		mov	r7, r0
 5233 000a 0C46     		mov	r4, r1
 5234 000c 9146     		mov	r9, r2
 5235 000e 8DF80C30 		strb	r3, [sp, #12]
 5236 0012 FFF7FEFF 		bl	sp_count_bits
 5237 0016 B0F5807F 		cmp	r0, #256
ARM GAS  /tmp/ccwGYw5D.s 			page 91


 5238 001a 16DC     		bgt	.L387
 5239 001c 2046     		mov	r0, r4
 5240 001e FFF7FEFF 		bl	sp_count_bits
 5241 0022 B0F5807F 		cmp	r0, #256
 5242 0026 10DC     		bgt	.L387
 5243 0028 B9F1000F 		cmp	r9, #0
 5244 002c 07D1     		bne	.L388
 5245              	.L392:
 5246 002e 2020     		movs	r0, #32
 5247 0030 FFF7FEFF 		bl	wolfSSL_Malloc
 5248 0034 0646     		mov	r6, r0
 5249 0036 58B9     		cbnz	r0, .L425
 5250 0038 6FF07C04 		mvn	r4, #124
 5251 003c 7DE0     		b	.L386
 5252              	.L388:
 5253 003e 4846     		mov	r0, r9
 5254 0040 FFF7FEFF 		bl	sp_count_bits
 5255 0044 B0F5807F 		cmp	r0, #256
 5256 0048 F1DD     		ble	.L392
 5257              	.L387:
 5258 004a 6FF0D804 		mvn	r4, #216
 5259 004e 74E0     		b	.L386
 5260              	.L425:
 5261 0050 4FF4C470 		mov	r0, #392
 5262 0054 FFF7FEFF 		bl	wolfSSL_Malloc
 5263 0058 0546     		mov	r5, r0
 5264 005a 40B9     		cbnz	r0, .L426
 5265 005c 6FF07C04 		mvn	r4, #124
 5266 0060 68E0     		b	.L410
 5267              	.L401:
 5268 0062 6FF0D704 		mvn	r4, #215
 5269 0066 62E0     		b	.L405
 5270              	.L414:
 5271 0068 6FF0D804 		mvn	r4, #216
 5272 006c 5FE0     		b	.L405
 5273              	.L426:
 5274 006e 3946     		mov	r1, r7
 5275 0070 05F14007 		add	r7, r5, #64
 5276 0074 00F1C408 		add	r8, r0, #196
 5277 0078 FFF7FEFF 		bl	sp_256_from_mp.constprop.0
 5278 007c 2146     		mov	r1, r4
 5279 007e 3846     		mov	r0, r7
 5280 0080 FFF7FEFF 		bl	sp_256_from_mp.constprop.0
 5281 0084 0122     		movs	r2, #1
 5282 0086 03A9     		add	r1, sp, #12
 5283 0088 05F18000 		add	r0, r5, #128
 5284 008c FFF7FEFF 		bl	sp_256_from_bin.constprop.0
 5285 0090 B9F1000F 		cmp	r9, #0
 5286 0094 03D0     		beq	.L408
 5287 0096 4946     		mov	r1, r9
 5288 0098 3046     		mov	r0, r6
 5289 009a FFF7FEFF 		bl	sp_256_from_mp.constprop.0
 5290              	.L408:
 5291 009e 2846     		mov	r0, r5
 5292 00a0 FFF7FEFF 		bl	sp_256_iszero_8
 5293 00a4 20B1     		cbz	r0, .L395
 5294 00a6 3846     		mov	r0, r7
ARM GAS  /tmp/ccwGYw5D.s 			page 92


 5295 00a8 FFF7FEFF 		bl	sp_256_iszero_8
 5296 00ac 0028     		cmp	r0, #0
 5297 00ae 48D1     		bne	.L396
 5298              	.L395:
 5299 00b0 2846     		mov	r0, r5
 5300 00b2 2549     		ldr	r1, .L430
 5301 00b4 FFF7FEFF 		bl	sp_256_cmp_8
 5302 00b8 0028     		cmp	r0, #0
 5303 00ba D5DA     		bge	.L414
 5304 00bc 3846     		mov	r0, r7
 5305 00be 2249     		ldr	r1, .L430
 5306 00c0 FFF7FEFF 		bl	sp_256_cmp_8
 5307 00c4 0028     		cmp	r0, #0
 5308 00c6 CFDA     		bge	.L414
 5309 00c8 2846     		mov	r0, r5
 5310 00ca FFF7FEFF 		bl	sp_256_ecc_is_point_8.constprop.0
 5311 00ce 0446     		mov	r4, r0
 5312 00d0 68BB     		cbnz	r0, .L405
 5313 00d2 4FF0010B 		mov	fp, #1
 5314 00d6 2946     		mov	r1, r5
 5315 00d8 5B46     		mov	r3, fp
 5316 00da 4046     		mov	r0, r8
 5317 00dc 1B4A     		ldr	r2, .L430+4
 5318 00de CDF800B0 		str	fp, [sp]
 5319 00e2 FFF7FEFF 		bl	sp_256_ecc_mulmod_fast_8.constprop.0
 5320 00e6 0446     		mov	r4, r0
 5321 00e8 08BB     		cbnz	r0, .L405
 5322 00ea 4046     		mov	r0, r8
 5323 00ec FFF7FEFF 		bl	sp_256_iszero_8
 5324 00f0 38B3     		cbz	r0, .L396
 5325 00f2 05F5827A 		add	r10, r5, #260
 5326 00f6 5046     		mov	r0, r10
 5327 00f8 FFF7FEFF 		bl	sp_256_iszero_8
 5328 00fc 08B3     		cbz	r0, .L396
 5329 00fe B9F1000F 		cmp	r9, #0
 5330 0102 13D0     		beq	.L403
 5331 0104 5B46     		mov	r3, fp
 5332 0106 5A46     		mov	r2, fp
 5333 0108 3146     		mov	r1, r6
 5334 010a 4046     		mov	r0, r8
 5335 010c FFF7FEFF 		bl	sp_256_ecc_mulmod_stripe_8.constprop.0
 5336 0110 0446     		mov	r4, r0
 5337 0112 60B9     		cbnz	r0, .L405
 5338 0114 2946     		mov	r1, r5
 5339 0116 4046     		mov	r0, r8
 5340 0118 FFF7FEFF 		bl	sp_256_cmp_8
 5341 011c 0028     		cmp	r0, #0
 5342 011e A0D1     		bne	.L401
 5343 0120 3946     		mov	r1, r7
 5344 0122 5046     		mov	r0, r10
 5345 0124 FFF7FEFF 		bl	sp_256_cmp_8
 5346 0128 0028     		cmp	r0, #0
 5347 012a 9AD1     		bne	.L401
 5348              	.L403:
 5349 012c 0024     		movs	r4, #0
 5350              	.L405:
 5351 012e 2846     		mov	r0, r5
ARM GAS  /tmp/ccwGYw5D.s 			page 93


 5352 0130 FFF7FEFF 		bl	wolfSSL_Free
 5353              	.L410:
 5354 0134 3046     		mov	r0, r6
 5355 0136 FFF7FEFF 		bl	wolfSSL_Free
 5356              	.L386:
 5357 013a 2046     		mov	r0, r4
 5358 013c 05B0     		add	sp, sp, #20
 5359              		@ sp needed
 5360 013e BDE8F08F 		pop	{r4, r5, r6, r7, r8, r9, r10, fp, pc}
 5361              	.L396:
 5362 0142 6FF0D604 		mvn	r4, #214
 5363 0146 F2E7     		b	.L405
 5364              	.L431:
 5365              		.align	2
 5366              	.L430:
 5367 0148 00000000 		.word	.LANCHOR2
 5368 014c 00000000 		.word	.LANCHOR0
 5370              		.section	.rodata.p256_b,"a"
 5371              		.align	2
 5372              		.set	.LANCHOR4,. + 0
 5375              	p256_b:
 5376 0000 4B60D227 		.word	668098635
 5377 0004 3E3CCE3B 		.word	1003371582
 5378 0008 F6B053CC 		.word	-866930442
 5379 000c B0061D65 		.word	1696401072
 5380 0010 BC869876 		.word	1989707452
 5381 0014 55BDEBB3 		.word	-1276396203
 5382 0018 E7933AAA 		.word	-1439001625
 5383 001c D835C65A 		.word	1522939352
 5384              		.section	.rodata.p256_mod,"a"
 5385              		.align	2
 5386              		.set	.LANCHOR2,. + 0
 5389              	p256_mod:
 5390 0000 FFFFFFFF 		.word	-1
 5391 0004 FFFFFFFF 		.word	-1
 5392 0008 FFFFFFFF 		.word	-1
 5393 000c 00000000 		.word	0
 5394 0010 00000000 		.word	0
 5395 0014 00000000 		.word	0
 5396 0018 01000000 		.word	1
 5397 001c FFFFFFFF 		.word	-1
 5398              		.section	.rodata.p256_norm_mod,"a"
 5399              		.align	2
 5400              		.set	.LANCHOR3,. + 0
 5403              	p256_norm_mod:
 5404 0000 01000000 		.word	1
 5405 0004 00000000 		.word	0
 5406 0008 00000000 		.word	0
 5407 000c FFFFFFFF 		.word	-1
 5408 0010 FFFFFFFF 		.word	-1
 5409 0014 FFFFFFFF 		.word	-1
 5410 0018 FEFFFFFF 		.word	-2
 5411 001c 00000000 		.word	0
 5412              		.section	.rodata.p256_norm_order,"a"
 5413              		.align	2
 5414              		.set	.LANCHOR5,. + 0
 5417              	p256_norm_order:
ARM GAS  /tmp/ccwGYw5D.s 			page 94


 5418 0000 AFDA9C03 		.word	60611247
 5419 0004 3D35460C 		.word	205927741
 5420 0008 7B61E858 		.word	1491624315
 5421 000c 52051943 		.word	1125713234
 5422 0010 00000000 		.word	0
 5423 0014 00000000 		.word	0
 5424 0018 FFFFFFFF 		.word	-1
 5425 001c 00000000 		.word	0
 5426              		.section	.rodata.p256_order,"a"
 5427              		.align	2
 5428              		.set	.LANCHOR0,. + 0
 5431              	p256_order:
 5432 0000 512563FC 		.word	-60611247
 5433 0004 C2CAB9F3 		.word	-205927742
 5434 0008 849E17A7 		.word	-1491624316
 5435 000c ADFAE6BC 		.word	-1125713235
 5436 0010 FFFFFFFF 		.word	-1
 5437 0014 FFFFFFFF 		.word	-1
 5438 0018 00000000 		.word	0
 5439 001c FFFFFFFF 		.word	-1
 5440              		.section	.rodata.p256_order2,"a"
 5441              		.align	2
 5442              		.set	.LANCHOR1,. + 0
 5445              	p256_order2:
 5446 0000 4F2563FC 		.word	-60611249
 5447 0004 C2CAB9F3 		.word	-205927742
 5448 0008 849E17A7 		.word	-1491624316
 5449 000c ADFAE6BC 		.word	-1125713235
 5450 0010 FFFFFFFF 		.word	-1
 5451 0014 FFFFFFFF 		.word	-1
 5452 0018 00000000 		.word	0
 5453 001c FFFFFFFF 		.word	-1
 5454              		.section	.rodata.p256_order_low,"a"
 5455              		.align	2
 5456              		.set	.LANCHOR6,. + 0
 5459              	p256_order_low:
 5460 0000 4F2563FC 		.word	-60611249
 5461 0004 C2CAB9F3 		.word	-205927742
 5462 0008 849E17A7 		.word	-1491624316
 5463 000c ADFAE6BC 		.word	-1125713235
 5464              		.section	.rodata.p256_table,"a"
 5465              		.align	2
 5468              	p256_table:
 5469 0000 00000000 		.word	0
 5470 0004 00000000 		.word	0
 5471 0008 00000000 		.word	0
 5472 000c 00000000 		.word	0
 5473 0010 00000000 		.word	0
 5474 0014 00000000 		.word	0
 5475 0018 00000000 		.word	0
 5476 001c 00000000 		.word	0
 5477 0020 00000000 		.word	0
 5478 0024 00000000 		.word	0
 5479 0028 00000000 		.word	0
 5480 002c 00000000 		.word	0
 5481 0030 00000000 		.word	0
 5482 0034 00000000 		.word	0
ARM GAS  /tmp/ccwGYw5D.s 			page 95


 5483 0038 00000000 		.word	0
 5484 003c 00000000 		.word	0
 5485 0040 3C14A918 		.word	413733948
 5486 0044 D430E779 		.word	2045194452
 5487 0048 01B6ED5F 		.word	1609414145
 5488 004c FC95BA75 		.word	1975162364
 5489 0050 10256277 		.word	2002920720
 5490 0054 2B73FB79 		.word	2046522155
 5491 0058 C65537A5 		.word	-1523100218
 5492 005c 765F9018 		.word	412114806
 5493 0060 0A5695CE 		.word	-829073910
 5494 0064 5753F2DD 		.word	-571321513
 5495 0068 5CE419BA 		.word	-1172708260
 5496 006c E4B84A8B 		.word	-1958037276
 5497 0070 25F321DD 		.word	-584977627
 5498 0074 8886E8D2 		.word	-756513144
 5499 0078 855D8825 		.word	629693829
 5500 007c 18FF7185 		.word	-2056126696
 5501 0080 9A514741 		.word	1095192986
 5502 0084 02862820 		.word	539526658
 5503 0088 F072B326 		.word	649294576
 5504 008c AC1E98D0 		.word	-795337044
 5505 0090 C8EB85A7 		.word	-1484395576
 5506 0094 CAA7D4A9 		.word	-1445681206
 5507 0098 E958DFDB 		.word	-606119703
 5508 009c 0DC553D9 		.word	-648821491
 5509 00a0 8F0F59FD 		.word	-44494961
 5510 00a4 CC61639D 		.word	-1654431284
 5511 00a8 17C9E644 		.word	1155975447
 5512 00ac 6B62E972 		.word	1927897707
 5513 00b0 CF64EB22 		.word	585852111
 5514 00b4 1061D97F 		.word	2144952592
 5515 00b8 F388B29E 		.word	-1632466701
 5516 00bc 7EBB3E86 		.word	-2042709122
 5517 00c0 8564DB5C 		.word	1557881989
 5518 00c4 23B65678 		.word	2018948643
 5519 00c8 972F0A2F 		.word	789196695
 5520 00cc A20E8F80 		.word	-2138108254
 5521 00d0 0B307E4F 		.word	1333669899
 5522 00d4 54D9683E 		.word	1047058772
 5523 00d8 A080FFB5 		.word	-1241546592
 5524 00dc 55600700 		.word	483413
 5525 00e0 10208D83 		.word	-2087903216
 5526 00e4 9BEB3476 		.word	1983179675
 5527 00e8 8A704332 		.word	843280522
 5528 00ec BB4F0154 		.word	1409372091
 5529 00f0 06662A84 		.word	-2077596154
 5530 00f4 397DE4E0 		.word	-521896647
 5531 00f8 E03E3734 		.word	876035808
 5532 00fc 61770883 		.word	-2096597151
 5533 0100 BBD2A016 		.word	379638459
 5534 0104 C52F924F 		.word	1334980549
 5535 0108 9934621A 		.word	442643609
 5536 010c 6CC15C0D 		.word	224182636
 5537 0110 8B2CC657 		.word	1472605323
 5538 0114 3ACF4192 		.word	-1841180870
 5539 0118 7F661BFD 		.word	-48535937
ARM GAS  /tmp/ccwGYw5D.s 			page 96


 5540 011c 61695E2F 		.word	794716513
 5541 0120 9717A0F5 		.word	-174057577
 5542 0124 0BC7155C 		.word	1544931083
 5543 0128 92619560 		.word	1620402578
 5544 012c 4DB4203D 		.word	1025553485
 5545 0130 52DB1F07 		.word	119528274
 5546 0134 371B9104 		.word	76618551
 5547 0138 7B0F6F8D 		.word	-1922101381
 5548 013c 16F948F6 		.word	-162989802
 5549 0140 BCBB37E1 		.word	-516441156
 5550 0144 4768569E 		.word	-1638504377
 5551 0148 EC0B6A8A 		.word	-1972761620
 5552 014c 9E4634E4 		.word	-466336098
 5553 0150 6334D779 		.word	2044146787
 5554 0154 6127C4B1 		.word	-1312544927
 5555 0158 15003D13 		.word	322764821
 5556 015c 8502BE5A 		.word	1522401925
 5557 0160 AB7D4CC0 		.word	-1068728917
 5558 0164 7C83AA92 		.word	-1834318980
 5559 0168 070C2643 		.word	1126566919
 5560 016c 4C9F3D57 		.word	1463656268
 5561 0170 37CCE678 		.word	2028391479
 5562 0174 6215930C 		.word	210965858
 5563 0178 83736F6B 		.word	1802466179
 5564 017c 5B72BB94 		.word	-1799654821
 5565 0180 1C140F72 		.word	1913590812
 5566 0184 8FB4F9BB 		.word	-1141263217
 5567 0188 74BCF52D 		.word	771079284
 5568 018c CDB39961 		.word	1637462989
 5569 0190 C4451041 		.word	1091585476
 5570 0194 29613FDC 		.word	-599826135
 5571 0198 EFC47D2F 		.word	796771567
 5572 019c CBBBD6CD 		.word	-841565237
 5573 01a0 FD36F4EA 		.word	-353093891
 5574 01a4 0B70A6CC 		.word	-861507573
 5575 01a8 BE2693B9 		.word	-1181538626
 5576 01ac 6D7F646F 		.word	1868857197
 5577 01b0 22254F01 		.word	21964066
 5578 01b4 92A70F0C 		.word	202352530
 5579 01b8 F6E5DA4B 		.word	1272636918
 5580 01bc BDBE61A3 		.word	-1553875267
 5581 01c0 C7137C59 		.word	1501303751
 5582 01c4 5825AA28 		.word	682239320
 5583 01c8 E1C3B750 		.word	1354220513
 5584 01cc 5F638DC3 		.word	-1014144161
 5585 01d0 1D9DC0F3 		.word	-205480675
 5586 01d4 EC9A0307 		.word	117676780
 5587 01d8 2C29B5C4 		.word	-994760404
 5588 01dc 09CA12BA 		.word	-1173173751
 5589 01e0 FD1DF959 		.word	1509498365
 5590 01e4 A48F409E 		.word	-1639936092
 5591 01e8 FB07EACE 		.word	-823523333
 5592 01ec 663BF43A 		.word	989084518
 5593 01f0 290B789D 		.word	-1653077207
 5594 01f4 89B0CE1E 		.word	516862089
 5595 01f8 4BEF1F70 		.word	1881141067
 5596 01fc 9DB9EB53 		.word	1407957405
ARM GAS  /tmp/ccwGYw5D.s 			page 97


 5597 0200 343DE6B0 		.word	-1327088332
 5598 0204 31EEE74F 		.word	1340599857
 5599 0208 AB4FE5A9 		.word	-1444589653
 5600 020c 720560F4 		.word	-195033742
 5601 0210 A4B5E7D5 		.word	-706234972
 5602 0214 343349C0 		.word	-1068944588
 5603 0218 3148D506 		.word	114640945
 5604 021c 92FB8985 		.word	-2054554734
 5605 0220 3A558365 		.word	1703105850
 5606 0224 CCF570AA 		.word	-1435437620
 5607 0228 E54956E2 		.word	-497661467
 5608 022c 4A097908 		.word	142149962
 5609 0230 52460410 		.word	268715602
 5610 0234 074590CC 		.word	-862960377
 5611 0238 4F1C5402 		.word	39066703
 5612 023c 6D69B0EB 		.word	-340760211
 5613 0240 C54716AC 		.word	-1407825979
 5614 0244 15CA1646 		.word	1175898645
 5615 0248 9957CFC4 		.word	-993044583
 5616 024c 477D12B8 		.word	-1206747833
 5617 0250 ACFB4D76 		.word	1984822188
 5618 0254 A36A66DC 		.word	-597267805
 5619 0258 A37DB2D1 		.word	-776831581
 5620 025c CB2028EB 		.word	-349691701
 5621 0260 08E0876A 		.word	1787289608
 5622 0264 D8F80694 		.word	-1811482408
 5623 0268 F3782392 		.word	-1843169037
 5624 026c 9DFA7DD8 		.word	-662832483
 5625 0270 B2ECCC80 		.word	-2134053710
 5626 0274 422EED56 		.word	1458384450
 5627 0278 1DDAA755 		.word	1437063709
 5628 027c 9B28281F 		.word	522725531
 5629 0280 99DA893B 		.word	998890137
 5630 0284 C0A0BAAB 		.word	-1413832512
 5631 0288 224028B8 		.word	-1205321694
 5632 028c 9ED7F2A6 		.word	-1494034530
 5633 0290 E8051CB8 		.word	-1206123032
 5634 0294 62788427 		.word	662992994
 5635 0298 634DE505 		.word	98913635
 5636 029c 594B7A33 		.word	863652697
 5637 02a0 4A79F721 		.word	569866570
 5638 02a4 0D50673C 		.word	1013403661
 5639 02a8 617F6D7D 		.word	2104328033
 5640 02ac B7057020 		.word	544212407
 5641 02b0 E8D6CF04 		.word	80729832
 5642 02b4 81375A0A 		.word	173684609
 5643 02b8 D6FBC2F4 		.word	-188548138
 5644 02bc D5E0650D 		.word	224780501
 5645 02c0 385D27B5 		.word	-1255711432
 5646 02c4 BE9BD0D9 		.word	-640640066
 5647 02c8 58A3E00B 		.word	199271256
 5648 02cc 45A76842 		.word	1114154821
 5649 02d0 65B23E97 		.word	-1757498779
 5650 02d4 F42F76F0 		.word	-260689932
 5651 02d8 32A2F452 		.word	1391764018
 5652 02dc 42A23DC2 		.word	-1036148158
 5653 02e0 0C52940B 		.word	194269708
ARM GAS  /tmp/ccwGYw5D.s 			page 98


 5654 02e4 4FB8A15D 		.word	1570879567
 5655 02e8 8ED75BB0 		.word	-1336158322
 5656 02ec 63676609 		.word	157706083
 5657 02f0 A19ED294 		.word	-1798136159
 5658 02f4 86CB4D3A 		.word	978176902
 5659 02f8 F1CF90C7 		.word	-946810895
 5660 02fc 8C3BDE19 		.word	433994636
 5661 0300 04FEC526 		.word	650509828
 5662 0304 6C713A18 		.word	406483308
 5663 0308 DB1BBA3B 		.word	1002052571
 5664 030c 0BDE283B 		.word	992534027
 5665 0310 2C71CBA4 		.word	-1530171092
 5666 0314 86C53274 		.word	1949484422
 5667 0318 FDCBFC91 		.word	-1845703683
 5668 031c D4CB4DE3 		.word	-481440812
 5669 0320 0384A5AA 		.word	-1431993341
 5670 0324 6BD408B4 		.word	-1274489749
 5671 0328 537AE982 		.word	-2098628013
 5672 032c 8674699A 		.word	-1704364922
 5673 0330 AFA8AA36 		.word	917153967
 5674 0334 2701399E 		.word	-1640431321
 5675 0338 7F0F4E7B 		.word	2068713343
 5676 033c 441F64E7 		.word	-412868796
 5677 0340 59BA64DF 		.word	-547046823
 5678 0344 4139757D 		.word	2104834369
 5679 0348 FC42020B 		.word	184697596
 5680 034c EC103FD3 		.word	-750841620
 5681 0350 591858A1 		.word	-1588062119
 5682 0354 C6DF064F 		.word	1325850566
 5683 0358 BF572A05 		.word	86661055
 5684 035c 57DF124A 		.word	1242750807
 5685 0360 D0DB3994 		.word	-1808147504
 5686 0364 8F33A6BF 		.word	-1079626865
 5687 0368 1F3EE5BD 		.word	-1109049825
 5688 036c D44BC2D3 		.word	-742241324
 5689 0370 14B3F121 		.word	569488148
 5690 0374 FA4F5EFD 		.word	-44150790
 5691 0378 46EA5BBB 		.word	-1151604154
 5692 037c 93AAF56A 		.word	1794484883
 5693 0380 9919C910 		.word	281614745
 5694 0384 99B610DA 		.word	-636438887
 5695 0388 9104582A 		.word	710411409
 5696 038c 40B4240A 		.word	170177600
 5697 0390 9020CCB8 		.word	-1194581872
 5698 0394 B494003E 		.word	1040225460
 5699 0398 1340A466 		.word	1722040339
 5700 039c 5A47E35F 		.word	1608730458
 5701 03a0 4B7B3EF9 		.word	-113345717
 5702 03a4 BDCAF8B0 		.word	-1325872451
 5703 03a8 1AF9237C 		.word	2082732314
 5704 03ac 1A502B29 		.word	690704410
 5705 03b0 63621ECD 		.word	-853646749
 5706 03b4 AE89E842 		.word	1122535854
 5707 03b8 16A9FEEC 		.word	-318854890
 5708 03bc 08E344B5 		.word	-1253776632
 5709 03c0 CEFDDD16 		.word	383647182
 5710 03c4 E9C67864 		.word	1685636841
ARM GAS  /tmp/ccwGYw5D.s 			page 99


 5711 03c8 E67991F8 		.word	-124683802
 5712 03cc 6691322C 		.word	741511526
 5713 03d0 E1674E4D 		.word	1296984033
 5714 03d4 766E8D4E 		.word	1317891702
 5715 03d8 0BC2B0A6 		.word	-1498365429
 5716 03dc BDB2B6E0 		.word	-524897603
 5717 03e0 57FB7EBB 		.word	-1149306025
 5718 03e4 F22D310D 		.word	221326834
 5719 03e8 07400C79 		.word	2030845959
 5720 03ec DE0DAC1A 		.word	447483358
 5721 03f0 44C99B67 		.word	1738262852
 5722 03f4 AD3603F9 		.word	-117229907
 5723 03f8 7437A625 		.word	631650164
 5724 03fc DE23C071 		.word	1908417502
 5725 0400 2509E2BF 		.word	-1075705563
 5726 0404 44C2A862 		.word	1655226948
 5727 0408 67E8DC8F 		.word	-1881347993
 5728 040c C39AC191 		.word	-1849582909
 5729 0410 637038DD 		.word	-583503773
 5730 0414 D5A5965A 		.word	1519822293
 5731 0418 F624D321 		.word	567485686
 5732 041c D487D561 		.word	1641383892
 5733 0420 EA7371A3 		.word	-1552845846
 5734 0424 A27376E8 		.word	-394890334
 5735 0428 658B7753 		.word	1400343397
 5736 042c 08808423 		.word	595886088
 5737 0430 3EB4BA05 		.word	96121918
 5738 0434 1E44F810 		.word	284705822
 5739 0438 BEEF2146 		.word	1176629182
 5740 043c 12FE11FA 		.word	-99484142
 5741 0440 FD9FB12C 		.word	749838333
 5742 0444 2B1F891C 		.word	478748459
 5743 0448 233C92B1 		.word	-1315816413
 5744 044c 5B8DBA01 		.word	29003099
 5745 0450 8ECAC58A 		.word	-1966749042
 5746 0454 673DD0B6 		.word	-1227866777
 5747 0458 DCBE131F 		.word	521387740
 5748 045c 4CB06E58 		.word	1483649100
 5749 0460 09EDE827 		.word	669576457
 5750 0464 E5C6350C 		.word	204850917
 5751 0468 E2ED1918 		.word	404352482
 5752 046c 3CA3811E 		.word	511812412
 5753 0470 FA52C656 		.word	1455837946
 5754 0474 C0D68F27 		.word	663738048
 5755 0478 114F8670 		.word	1887850257
 5756 047c 08ACD519 		.word	433433608
 5757 0480 1F4E9A30 		.word	815418911
 5758 0484 81F5991E 		.word	513406337
 5759 0488 740027E9 		.word	-383319948
 5760 048c 1BE77DAB 		.word	-1417812197
 5761 0490 208DD2EF 		.word	-271413984
 5762 0494 0BEFA526 		.word	648408843
 5763 0498 3F569C7F 		.word	2140952127
 5764 049c 3F07C0E7 		.word	-406845633
 5765 04a0 769FF50E 		.word	250978166
 5766 04a4 3A666D1F 		.word	527263290
 5767 04a8 50B0FC20 		.word	553431120
ARM GAS  /tmp/ccwGYw5D.s 			page 100


 5768 04ac 543B9B66 		.word	1721449300
 5769 04b0 D402667A 		.word	2053505748
 5770 04b4 7A1F8CC0 		.word	-1064558726
 5771 04b8 0A3C5BC6 		.word	-967099382
 5772 04bc FE0485E0 		.word	-528153346
 5773 04c0 CAB331A0 		.word	-1607355446
 5774 04c4 8DF698F0 		.word	-258410867
 5775 04c8 666DDAE6 		.word	-421892762
 5776 04cc 9EAB1C6D 		.word	1830595486
 5777 04d0 E846F294 		.word	-1796061464
 5778 04d4 FA81FD5B 		.word	1543340538
 5779 04d8 B496095B 		.word	1527355060
 5780 04dc 8218F078 		.word	2029000834
 5781 04e0 7F78253A 		.word	975534207
 5782 04e4 E4FDEEB7 		.word	-1209074204
 5783 04e8 9BACCC1D 		.word	499952795
 5784 04ec 0DF81680 		.word	-2145978355
 5785 04f0 36FC5BB3 		.word	-1285817290
 5786 04f4 7748EA0C 		.word	216680567
 5787 04f8 7A74947E 		.word	2123658362
 5788 04fc B873A743 		.word	1135047608
 5789 0500 D533B5D2 		.word	-759876651
 5790 0504 34775762 		.word	1649899316
 5791 0508 C0DDBDA1 		.word	-1581392448
 5792 050c F68A3B67 		.word	1731955446
 5793 0510 93C29EA7 		.word	-1482767725
 5794 0514 9A7C7E57 		.word	1467907226
 5795 0518 B166B2C3 		.word	-1011718479
 5796 051c 51E66DBB 		.word	-1150425519
 5797 0520 B35952B6 		.word	-1236117069
 5798 0524 3A30E9E7 		.word	-404148166
 5799 0528 80743AD0 		.word	-801475456
 5800 052c D3AFA0D6 		.word	-694112301
 5801 0530 27FC3C9B 		.word	-1690502105
 5802 0534 D183ACC5 		.word	-978549807
 5803 0538 9BB9185D 		.word	1561901467
 5804 053c 9A61B460 		.word	1622434202
 5805 0540 1CAAE51A 		.word	451258908
 5806 0544 E1386ABD 		.word	-1117112095
 5807 0548 5836E749 		.word	1239889496
 5808 054c 2B65B7B8 		.word	-1195940565
 5809 0550 ED875FEE 		.word	-295729171
 5810 0554 1400130B 		.word	185794580
 5811 0558 CDFFEBAE 		.word	-1360265267
 5812 055c B2270F9D 		.word	-1659951182
 5813 0560 550A737A 		.word	2054359637
 5814 0564 314692CA 		.word	-896383439
 5815 0568 3AC8BBDD 		.word	-574896070
 5816 056c 2F5B959C 		.word	-1667933393
 5817 0570 719A01AC 		.word	-1409181071
 5818 0574 E0DFC107 		.word	130146272
 5819 0578 8DC46E35 		.word	896451725
 5820 057c 6D564A24 		.word	608851565
 5821 0580 961FCFEA 		.word	-355524714
 5822 0584 4A39B06D 		.word	1840265546
 5823 0588 1C274C02 		.word	38545180
 5824 058c A922219F 		.word	-1625218391
ARM GAS  /tmp/ccwGYw5D.s 			page 101


 5825 0590 B9D3CB82 		.word	-2100571207
 5826 0594 1BAC2626 		.word	640068635
 5827 0598 69EF8135 		.word	897707881
 5828 059c 878CE545 		.word	1172671623
 5829 05a0 BC9D8FA3 		.word	-1550869060
 5830 05a4 9D47FFD3 		.word	-738244707
 5831 05a8 40A088E8 		.word	-393699264
 5832 05ac 46F1AAA8 		.word	-1465192122
 5833 05b0 D7BEE046 		.word	1189134039
 5834 05b4 B2DF5A94 		.word	-1805983822
 5835 05b8 A4B7E4C1 		.word	-1041975388
 5836 05bc 1CE240C0 		.word	-1069489636
 5837 05c0 B617816F 		.word	1870731190
 5838 05c4 00F07A84 		.word	-2072317952
 5839 05c8 3354A373 		.word	1940083763
 5840 05cc FF691965 		.word	1696164351
 5841 05d0 EB75941D 		.word	496268779
 5842 05d4 76352B48 		.word	1210791286
 5843 05d8 C76E2C68 		.word	1747742407
 5844 05dc 975CDF1C 		.word	484400279
 5845 05e0 3948F011 		.word	300959801
 5846 05e4 B475B77D 		.word	2109175220
 5847 05e8 9816DE48 		.word	1222514328
 5848 05ec F4ACBE7D 		.word	2109648116
 5849 05f0 19320BB7 		.word	-1224003047
 5850 05f4 D11D92B2 		.word	-1299046959
 5851 05f8 3DFF2DA9 		.word	-1456603331
 5852 05fc F8556704 		.word	73881080
 5853 0600 CDFFE8BC 		.word	-1125580851
 5854 0604 D2C58ACC 		.word	-863320622
 5855 0608 821AE62F 		.word	803609218
 5856 060c 8BC4530D 		.word	223593611
 5857 0610 C7D60272 		.word	1912788679
 5858 0614 7261F1F6 		.word	-151953038
 5859 0618 F3A5833B 		.word	998483443
 5860 061c 115E6E04 		.word	74341905
 5861 0620 017F00D8 		.word	-671056127
 5862 0624 64FFB8E7 		.word	-407306396
 5863 0628 8331F45A 		.word	1525952899
 5864 062c 12EFB17F 		.word	2142367506
 5865 0630 3CA0E135 		.word	903979068
 5866 0634 A65E5C04 		.word	73162406
 5867 0638 5B003D30 		.word	809304155
 5868 063c C306016E 		.word	1845561027
 5869 0640 B173DD88 		.word	-1998752847
 5870 0644 8435C748 		.word	1221014916
 5871 0648 D9D05E99 		.word	-1721839399
 5872 064c 8F707076 		.word	1987080335
 5873 0650 B72A6AC5 		.word	-982897993
 5874 0654 A85E3838 		.word	943218344
 5875 0658 1FCF01E9 		.word	-385757409
 5876 065c ED942544 		.word	1143313645
 5877 0660 5BB6D412 		.word	315930203
 5878 0664 C9A2FAF8 		.word	-117792055
 5879 0668 370CC996 		.word	-1765209033
 5880 066c 3B34C294 		.word	-1799211973
 5881 0670 1F8D975E 		.word	1586990367
ARM GAS  /tmp/ccwGYw5D.s 			page 102


 5882 0674 A1E426D3 		.word	-752425823
 5883 0678 8EE62E4C 		.word	1278142094
 5884 067c 51FA96A7 		.word	-1483277743
 5885 0680 D7DD3A82 		.word	-2110071337
 5886 0684 04B69F35 		.word	899659268
 5887 0688 B39366E5 		.word	-446262349
 5888 068c 83612A9E 		.word	-1641389693
 5889 0690 803CBF3C 		.word	1019165824
 5890 0694 8EB785F8 		.word	-125454450
 5891 0698 E96697C6 		.word	-963156247
 5892 069c A92DADE4 		.word	-458412631
 5893 06a0 618A048E 		.word	-1912305055
 5894 06a4 427F7F35 		.word	897548098
 5895 06a8 A0D992C0 		.word	-1064117856
 5896 06ac 8C192D08 		.word	137173388
 5897 06b0 EFD83EC0 		.word	-1069623057
 5898 06b4 F41A3AFC 		.word	-63300876
 5899 06b8 43517BC3 		.word	-1015328445
 5900 06bc 4640E9C5 		.word	-974569402
 5901 06c0 9E5FE72B 		.word	736583582
 5902 06c4 8C536A47 		.word	1198150540
 5903 06c8 783A12CB 		.word	-887997832
 5904 06cc E8A9D16F 		.word	1876011496
 5905 06d0 4BC009B1 		.word	-1324761013
 5906 06d4 F04D5ED8 		.word	-664908304
 5907 06d8 474746DB 		.word	-616151225
 5908 06dc AF3D2863 		.word	1663581615
 5909 06e0 15DFF2BA 		.word	-1158488299
 5910 06e4 F78C72CE 		.word	-831353609
 5911 06e8 F4A7D90A 		.word	182036468
 5912 06ec 55C492E5 		.word	-443366315
 5913 06f0 C3BC34E8 		.word	-399196989
 5914 06f4 AD26B2FA 		.word	-88987987
 5915 06f8 38A98119 		.word	427927864
 5916 06fc AB19BD68 		.word	1757223339
 5917 0700 59D68718 		.word	411555417
 5918 0704 51AD8EC0 		.word	-1064391343
 5919 0708 5A3059B3 		.word	-1286000550
 5920 070c F4D57433 		.word	863294964
 5921 0710 E34FE7CF 		.word	-806924317
 5922 0714 81699896 		.word	-1768396415
 5923 0718 D6DF6F3C 		.word	1013964758
 5924 071c F5925249 		.word	1230148341
 5925 0720 96C8CE1A 		.word	449759382
 5926 0724 9E8C874A 		.word	1250397342
 5927 0728 84445BEC 		.word	-329563004
 5928 072c 10B264D9 		.word	-647712240
 5929 0730 A7604D66 		.word	1716347047
 5930 0734 E2F79666 		.word	1721169890
 5931 0738 37680326 		.word	637757495
 5932 073c 0D53C70E 		.word	247943949
 5933 0740 BB8726AD 		.word	-1389983813
 5934 0744 053AA12D 		.word	765540869
 5935 0748 FA212EF3 		.word	-215080454
 5936 074c 6A3BF8A1 		.word	-1577567382
 5937 0750 7B60D41D 		.word	500457595
 5938 0754 F55E0F39 		.word	957308661
ARM GAS  /tmp/ccwGYw5D.s 			page 103


 5939 0758 0B3F8664 		.word	1686519563
 5940 075c A607620F 		.word	258082726
 5941 0760 3382130F 		.word	252936755
 5942 0764 BBE367BD 		.word	-1117264965
 5943 0768 18A72A27 		.word	657106712
 5944 076c 6CB966DD 		.word	-580470420
 5945 0770 AE88EC26 		.word	653035694
 5946 0774 0704D08E 		.word	-1898970105
 5947 0778 CF6DED08 		.word	149777871
 5948 077c 72B00DFF 		.word	-15880078
 5949 0780 53D5954C 		.word	1284887891
 5950 0784 01A19F74 		.word	1956618497
 5951 0788 8A0A685D 		.word	1567099530
 5952 078c FD5240A4 		.word	-1539288323
 5953 0790 6F563BFF 		.word	-12888465
 5954 0794 17433B18 		.word	406536983
 5955 0798 A30E7488 		.word	-2005659997
 5956 079c 3C513B31 		.word	825971004
 5957 07a0 4915D108 		.word	147920201
 5958 07a4 ACE202B4 		.word	-1274879316
 5959 07a8 1CE2DEB4 		.word	-1260461540
 5960 07ac 0BE11E07 		.word	119464203
 5961 07b0 0E32F247 		.word	1207054862
 5962 07b4 DD87B926 		.word	649693149
 5963 07b8 819FF186 		.word	-2030985343
 5964 07bc F9BC3A2D 		.word	758824185
 5965 07c0 A2815581 		.word	-2125102686
 5966 07c4 0185284C 		.word	1277723905
 5967 07c8 AF112263 		.word	1663177135
 5968 07cc 566D0A9A 		.word	-1710592682
 5969 07d0 992EAB0C 		.word	212545177
 5970 07d4 0F7ABA19 		.word	431651343
 5971 07d8 DF8CD9DE 		.word	-556167969
 5972 07dc 10FA36C0 		.word	-1070138864
 5973 07e0 09D0FBC1 		.word	-1040461815
 5974 07e4 BA08AE29 		.word	699271354
 5975 07e8 1658D106 		.word	114382870
 5976 07ec 90B1680B 		.word	191410576
 5977 07f0 8F0D9E9B 		.word	-1684140657
 5978 07f4 7732EBC2 		.word	-1024773513
 5979 07f8 9401D4B6 		.word	-1227619948
 5980 07fc C4A2B2A6 		.word	-1498242364
 5981 0800 CF49356D 		.word	1832208847
 5982 0804 0FE533D4 		.word	-734796529
 5983 0808 5E66CDFA 		.word	-87202210
 5984 080c 6F69336F 		.word	1865640303
 5985 0810 B4FC11CE 		.word	-837681996
 5986 0814 ACFD5B69 		.word	1767636396
 5987 0818 60987CAF 		.word	-1350789024
 5988 081c 52E20E81 		.word	-2129730990
 5989 0820 2CBB5971 		.word	1901706028
 5990 0824 E10F4565 		.word	1699024865
 5991 0828 7B358B75 		.word	1972057467
 5992 082c BEBEDFF7 		.word	-136331586
 5993 0830 72EA9FD6 		.word	-694162830
 5994 0834 747E052B 		.word	721780340
 5995 0838 45177392 		.word	-1837951163
ARM GAS  /tmp/ccwGYw5D.s 			page 104


 5996 083c 7A7185D4 		.word	-729452166
 5997 0840 985ACBF0 		.word	-255108456
 5998 0844 8A1A7411 		.word	292821642
 5999 0848 BF10311F 		.word	523309247
 6000 084c 938FDAD3 		.word	-740651117
 6001 0850 DF2A38AB 		.word	-1422382369
 6002 0854 CBE29419 		.word	429187787
 6003 0858 4E609A2F 		.word	798646350
 6004 085c A745606A 		.word	1784694183
 6005 0860 1D41B2A2 		.word	-1565376227
 6006 0864 3F0D0C17 		.word	386665791
 6007 0868 E0960E51 		.word	1359910624
 6008 086c 3EB80EBE 		.word	-1106331586
 6009 0870 CCB36588 		.word	-2006600756
 6010 0874 739FCC3B 		.word	1003265907
 6011 0878 9057E1F9 		.word	-102672496
 6012 087c FA5CE4D3 		.word	-740008710
 6013 0880 69763FE8 		.word	-398494103
 6014 0884 BB691FCE 		.word	-836802117
 6015 0888 6B7D8772 		.word	1921482091
 6016 088c 82AEF809 		.word	167292546
 6017 0890 8D274432 		.word	843327373
 6018 0894 54AE4895 		.word	-1790398892
 6019 0898 9CC1C2E3 		.word	-473775716
 6020 089c DE557720 		.word	544691678
 6021 08a0 4519EF6F 		.word	1877940549
 6022 08a4 D961BD87 		.word	-2017631783
 6023 08a8 C3282DB1 		.word	-1322440509
 6024 08ac EF3C8118 		.word	411122927
 6025 08b0 AA64DF72 		.word	1927242922
 6026 08b4 D6D1BC9F 		.word	-1615015466
 6027 08b8 0DB05471 		.word	1901375501
 6028 08bc E55EDC48 		.word	1222401765
 6029 08c0 99A1E5F7 		.word	-135945831
 6030 08c4 BF903712 		.word	305631423
 6031 08c8 B7CB9C98 		.word	-1734554697
 6032 08cc CFB8EFE0 		.word	-521160497
 6033 08d0 799C510A 		.word	173120633
 6034 08d4 FE2B7AC2 		.word	-1032180738
 6035 08d8 45F4F6DF 		.word	-537463739
 6036 08dc ED0AFBF2 		.word	-218428691
 6037 08e0 5F02B5F0 		.word	-256572833
 6038 08e4 7595C041 		.word	1103140213
 6039 08e8 229FFA40 		.word	1090166562
 6040 08ec D7430555 		.word	1426408407
 6041 08f0 D0FB0B38 		.word	940309456
 6042 08f4 ADC8A38F 		.word	-1885091667
 6043 08f8 25D528DB 		.word	-618080987
 6044 08fc 15903EA1 		.word	-1589735403
 6045 0900 BC5CB6A2 		.word	-1565107012
 6046 0904 50A3F7F9 		.word	-101211312
 6047 0908 2642462A 		.word	709247526
 6048 090c 72B9040B 		.word	184858994
 6049 0910 A1073FE2 		.word	-499185759
 6050 0914 41E25C26 		.word	643621441
 6051 0918 6F529714 		.word	345461359
 6052 091c B0D6F02B 		.word	737203888
ARM GAS  /tmp/ccwGYw5D.s 			page 105


 6053 0920 B76F214B 		.word	1260482487
 6054 0924 3FDDD4D3 		.word	-741024449
 6055 0928 6AA2DDFB 		.word	-69361046
 6056 092c 67B8D7F7 		.word	-136857497
 6057 0930 5C500867 		.word	1728598108
 6058 0934 3FB8B7AE 		.word	-1363691457
 6059 0938 9FE82F16 		.word	372238495
 6060 093c 5A4AA942 		.word	1118390874
 6061 0940 91F1ADEA 		.word	-357699183
 6062 0944 0BAD4658 		.word	1481026827
 6063 0948 D768A225 		.word	631400663
 6064 094c 90488A0F 		.word	260720784
 6065 0950 F6C14D49 		.word	1229832694
 6066 0954 503060E8 		.word	-396349360
 6067 0958 3DDE5EC6 		.word	-966861251
 6068 095c 69D92D2C 		.word	741202281
 6069 0960 179C8493 		.word	-1820025833
 6070 0964 1D17026D 		.word	1828853533
 6071 0968 DD50A21D 		.word	497176797
 6072 096c BA880446 		.word	1174702266
 6073 0970 85543A3C 		.word	1010455685
 6074 0974 06C71048 		.word	1209059078
 6075 0978 BC6DC542 		.word	1120234940
 6076 097c 1FFA37F4 		.word	-197658081
 6077 0980 AB7D0F4A 		.word	1242529195
 6078 0984 14D7A06A 		.word	1788925716
 6079 0988 ACE97617 		.word	393669036
 6080 098c 9397040F 		.word	251959187
 6081 0990 8697F3F5 		.word	-168585338
 6082 0994 50A0C052 		.word	1388355664
 6083 0998 A87A7054 		.word	1416657576
 6084 099c 335BF4AA 		.word	-1426826445
 6085 09a0 4A368DC1 		.word	-1047710134
 6086 09a4 337CE385 		.word	-2048689101
 6087 09a8 6571493E 		.word	1045000549
 6088 09ac 069B0BD4 		.word	-737436922
 6089 09b0 4454EC15 		.word	367809604
 6090 09b4 811617F4 		.word	-199813503
 6091 09b8 BC72F2F4 		.word	-185437508
 6092 09bc 0D31F6CD 		.word	-839503603
 6093 09c0 EFB7A88E 		.word	-1901545489
 6094 09c4 23C67374 		.word	1953744419
 6095 09c8 8722BC85 		.word	-2051267961
 6096 09cc 1835E908 		.word	149501208
 6097 09d0 348EDA2B 		.word	735743540
 6098 09d4 72679541 		.word	1100310386
 6099 09d8 F22F9EDA 		.word	-627167246
 6100 09dc BA08D0F0 		.word	-254801734
 6101 09e0 B1D31424 		.word	605344689
 6102 09e4 1D671229 		.word	689071901
 6103 09e8 76EA19B0 		.word	-1340478858
 6104 09ec 854975B3 		.word	-1284159099
 6105 09f0 DBCB3B45 		.word	1161546715
 6106 09f4 6DB9615C 		.word	1549908333
 6107 09f8 8B7B88CA 		.word	-897025141
 6108 09fc F5C2D55B 		.word	1540735733
 6109 0a00 54319AF4 		.word	-191221420
ARM GAS  /tmp/ccwGYw5D.s 			page 106


 6110 0a04 9E460FEF 		.word	-284211554
 6111 0a08 9A2E2B6E 		.word	1848323738
 6112 0a0c 95A5853E 		.word	1048946069
 6113 0a10 9C4A92AA 		.word	-1433253220
 6114 0a14 1EECAA45 		.word	1168829470
 6115 0a18 19479EA0 		.word	-1600239847
 6116 0a1c C8DF12AA 		.word	-1441603640
 6117 0a20 1D9FF64D 		.word	1308008221
 6118 0a24 2772F226 		.word	653423143
 6119 0a28 735EFFA2 		.word	-1560322445
 6120 0a2c 2CC8E4E0 		.word	-521877460
 6121 0a30 44DDA9B7 		.word	-1213604540
 6122 0a34 73CED8B9 		.word	-1176973709
 6123 0a38 01A98CE4 		.word	-460543743
 6124 0a3c 736E036C 		.word	1812164211
 6125 0a40 38316E0F 		.word	258879800
 6126 0a44 2AE1FA5C 		.word	1559945514
 6127 0a48 5A34AD25 		.word	632108122
 6128 0a4c 00EF6669 		.word	1768353536
 6129 0a50 C52B6745 		.word	1164389317
 6130 0a54 4BC69389 		.word	-1986804149
 6131 0a58 24BEAF96 		.word	-1766867420
 6132 0a5c 58F62F29 		.word	691009112
 6133 0a60 0234215E 		.word	1579234306
 6134 0a64 440D25D5 		.word	-718992060
 6135 0a68 FEC99243 		.word	1133693438
 6136 0a6c 270E58F6 		.word	-162001369
 6137 0a70 E8721CDA 		.word	-635669784
 6138 0a74 7F397B09 		.word	159070591
 6139 0a78 76721B31 		.word	823882358
 6140 0a7c 900C4E64 		.word	1682836624
 6141 0a80 F05371A4 		.word	-1536076816
 6142 0a84 E121E4E1 		.word	-505142815
 6143 0a88 C9180492 		.word	-1845225271
 6144 0a8c 793B6CB8 		.word	-1200866439
 6145 0a90 72765D70 		.word	1885173362
 6146 0a94 87CEBD93 		.word	-1816277369
 6147 0a98 779AB7CA 		.word	-893937033
 6148 0a9c 93E75AF2 		.word	-228923501
 6149 0aa0 0C9D866D 		.word	1837538572
 6150 0aa4 A394311F 		.word	523343011
 6151 0aa8 64C28649 		.word	1233568356
 6152 0aac 82C8559D 		.word	-1655322494
 6153 0ab0 5E946E09 		.word	158241886
 6154 0ab4 A35EFB49 		.word	1241210531
 6155 0ab8 3E0ADB13 		.word	333122110
 6156 0abc 53E6B839 		.word	968418899
 6157 0ac0 592EFDB6 		.word	-1224921511
 6158 0ac4 00427537 		.word	930431488
 6159 0ac8 8FC95592 		.word	-1839871601
 6160 0acc 66C0E235 		.word	904052838
 6161 0ad0 39572A0E 		.word	237655865
 6162 0ad4 1AB2DAD9 		.word	-639978982
 6163 0ad8 06DB190F 		.word	253352710
 6164 0adc 2F2F1239 		.word	957493039
 6165 0ae0 3CD5CA03 		.word	63624508
 6166 0ae4 E0E1BCCF 		.word	-809704992
ARM GAS  /tmp/ccwGYw5D.s 			page 107


 6167 0ae8 E3175CE6 		.word	-430172189
 6168 0aec 0F2C5B22 		.word	576400399
 6169 0af0 7738A19A 		.word	-1700710281
 6170 0af4 D2F1BA72 		.word	1924854226
 6171 0af8 8DFF80CE 		.word	-830406771
 6172 0afc F80AE88D 		.word	-1914172680
 6173 0b00 76BB7B20 		.word	544979830
 6174 0b04 D9A8BEAF 		.word	-1346459431
 6175 0b08 58277821 		.word	561522520
 6176 0b0c 7C7E1C92 		.word	-1843626372
 6177 0b10 B136041C 		.word	470038193
 6178 0b14 4BB7A2DF 		.word	-542984373
 6179 0b18 048C362E 		.word	775326724
 6180 0b1c 06491987 		.word	-2028386042
 6181 0b20 F53D99A3 		.word	-1550238219
 6182 0b24 BB28F9B5 		.word	-1241962309
 6183 0b28 6AD2B3F3 		.word	-206318998
 6184 0b2c B5759D63 		.word	1671263669
 6185 0b30 5050B585 		.word	-2051714992
 6186 0b34 8AA71A01 		.word	18524042
 6187 0b38 E1FD745B 		.word	1534393825
 6188 0b3c 6A5E31FC 		.word	-63873430
 6189 0b40 FAECD6E8 		.word	-388567814
 6190 0b44 1AD41F56 		.word	1444926490
 6191 0b48 867FEC1A 		.word	451706758
 6192 0b4c F6448C5F 		.word	1603028214
 6193 0b50 1D742449 		.word	1227125789
 6194 0b54 7B2A4598 		.word	-1740297605
 6195 0b58 889038EE 		.word	-298282872
 6196 0b5c ADA7D4E6 		.word	-422271059
 6197 0b60 5DC79345 		.word	1167312733
 6198 0b64 D12E5560 		.word	1616195281
 6199 0b68 621127DD 		.word	-584642206
 6200 0b6c A40DA770 		.word	1889996196
 6201 0b70 DBC7A27B 		.word	2074265563
 6202 0b74 93DEAED2 		.word	-760291693
 6203 0b78 57AEE29B 		.word	-1679643049
 6204 0b7c 9AAFDF35 		.word	903851930
 6205 0b80 366673AA 		.word	-1435277770
 6206 0b84 CD6F956B 		.word	1804955597
 6207 0b88 7EAB2CAE 		.word	-1372804226
 6208 0b8c 971DF509 		.word	167058839
 6209 0b90 6699340F 		.word	255105382
 6210 0b94 41BF10FB 		.word	-82788543
 6211 0b98 2B0D831C 		.word	478350635
 6212 0b9c D7C7A51D 		.word	497403863
 6213 0ba0 2568CE3C 		.word	1020160037
 6214 0ba4 83E4415C 		.word	1547822211
 6215 0ba8 3B3C57F9 		.word	-111723461
 6216 0bac 8F11AD15 		.word	363663759
 6217 0bb0 B83630F2 		.word	-231721288
 6218 0bb4 C75285A2 		.word	-1568320825
 6219 0bb8 D6B9F4DB 		.word	-604718634
 6220 0bbc FDC07770 		.word	1886896381
 6221 0bc0 1C66B946 		.word	1186555420
 6222 0bc4 8DFF63BF 		.word	-1083965555
 6223 0bc8 71FD2C0D 		.word	221052273
ARM GAS  /tmp/ccwGYw5D.s 			page 108


 6224 0bcc 6BD3DFA1 		.word	-1579166869
 6225 0bd0 F7F847A8 		.word	-1471678217
 6226 0bd4 40E17303 		.word	57925952
 6227 0bd8 44FE0EE5 		.word	-452002236
 6228 0bdc 2E63A853 		.word	1403544366
 6229 0be0 51806D69 		.word	1768783953
 6230 0be4 68FF7609 		.word	158793576
 6231 0be8 8A464FC7 		.word	-951105910
 6232 0bec 950CECDA 		.word	-622064491
 6233 0bf0 BD264E5E 		.word	1582180029
 6234 0bf4 C34D9962 		.word	1654214083
 6235 0bf8 C1FCE134 		.word	887225537
 6236 0bfc 6DA78C02 		.word	42772333
 6237 0c00 EE7798FC 		.word	-57116690
 6238 0c04 DC471DD1 		.word	-786610212
 6239 0c08 02001D80 		.word	-2145583102
 6240 0c0c 1062B3C8 		.word	-927768048
 6241 0c10 B660C254 		.word	1422024886
 6242 0c14 17C102D0 		.word	-805125865
 6243 0c18 46F06269 		.word	1768091718
 6244 0c1c D87CC104 		.word	79789272
 6245 0c20 F5DDDAB0 		.word	-1327833611
 6246 0c24 94D09B6D 		.word	1838928020
 6247 0c28 C055CE24 		.word	617502144
 6248 0c2c 7535A2BE 		.word	-1096665739
 6249 0c30 B503DA72 		.word	1926890421
 6250 0c34 E6563366 		.word	1714640614
 6251 0c38 7474D9FE 		.word	-19303308
 6252 0c3c E94DBAF7 		.word	-138785303
 6253 0c40 3F26E1EB 		.word	-337566145
 6254 0c44 34FADBD0 		.word	-790889932
 6255 0c48 E67CAE71 		.word	1907260646
 6256 0c4c 35377655 		.word	1433810741
 6257 0c50 23F5A682 		.word	-2102987485
 6258 0c54 530544D2 		.word	-767294125
 6259 0c58 411C1352 		.word	1376984129
 6260 0c5c 00961FE3 		.word	-484469248
 6261 0c60 C66E6BEA 		.word	-362058042
 6262 0c64 1692BBD1 		.word	-776236522
 6263 0c68 44FCC273 		.word	1942158404
 6264 0c6c 2ED1A137 		.word	933351726
 6265 0c70 94A2D089 		.word	-1982815596
 6266 0c74 AC7E0EC1 		.word	-1056014676
 6267 0c78 7BD434CE 		.word	-835398533
 6268 0c7c 59623AAA 		.word	-1439014311
 6269 0c80 D3DCF336 		.word	921951443
 6270 0c84 F59DCFFB 		.word	-70279691
 6271 0c88 6073BFD2 		.word	-759205024
 6272 0c8c 50EDED6C 		.word	1827532112
 6273 0c90 5B4F50DF 		.word	-548384933
 6274 0c94 FA101749 		.word	1226248442
 6275 0c98 EEDA797E 		.word	2121915118
 6276 0c9c 62DD9823 		.word	597220706
 6277 0ca0 9E56096D 		.word	1829328542
 6278 0ca4 A30547CF 		.word	-817429085
 6279 0ca8 69F74951 		.word	1363801961
 6280 0cac BB1906EA 		.word	-368698949
ARM GAS  /tmp/ccwGYw5D.s 			page 109


 6281 0cb0 4C03F635 		.word	905315148
 6282 0cb4 77039CFF 		.word	-6552713
 6283 0cb8 1062041C 		.word	470049296
 6284 0cbc B2F51757 		.word	1461188018
 6285 0cc0 5E89DD21 		.word	568166750
 6286 0cc4 C929E29F 		.word	-1612568119
 6287 0cc8 5184C240 		.word	1086489681
 6288 0ccc 0085518E 		.word	-1907260160
 6289 0cd0 CD7E631D 		.word	493059789
 6290 0cd4 39D213FA 		.word	-99364295
 6291 0cd8 DE283C0E 		.word	238823646
 6292 0cdc 562C0A66 		.word	1711942742
 6293 0ce0 D0CB7FD6 		.word	-696267824
 6294 0ce4 AE88CA9C 		.word	-1664448338
 6295 0ce8 96F0A90E 		.word	246018198
 6296 0cec 782447C8 		.word	-934861704
 6297 0cf0 4D2BE972 		.word	1927883597
 6298 0cf4 81F4B232 		.word	850588801
 6299 0cf8 5324524F 		.word	1330783315
 6300 0cfc 4CE54E62 		.word	1649337676
 6301 0d00 CCEC97D8 		.word	-661132084
 6302 0d04 E49C5409 		.word	156540132
 6303 0d08 AA80983F 		.word	1066959018
 6304 0d0c D9D1494D 		.word	1296683481
 6305 0d10 207C3A04 		.word	70941728
 6306 0d14 23243C72 		.word	1916544035
 6307 0d18 C0FBBD92 		.word	-1833043008
 6308 0d1c FB2A394F 		.word	1329146619
 6309 0d20 D94FE47D 		.word	2112114649
 6310 0d24 FAF86969 		.word	1768552698
 6311 0d28 5621B357 		.word	1471357270
 6312 0d2c E4FB6CB6 		.word	-1234371612
 6313 0d30 3CBC8E36 		.word	915323964
 6314 0d34 03A82FDB 		.word	-617633789
 6315 0d38 9C39DBCC 		.word	-858048100
 6316 0d3c 77793E8A 		.word	-1975617161
 6317 0d40 25B1C406 		.word	113553701
 6318 0d44 1F88E1DD 		.word	-572422113
 6319 0d48 8CCAE3F6 		.word	-152843636
 6320 0d4c 00E334AE 		.word	-1372265728
 6321 0d50 E9137A5C 		.word	1551504361
 6322 0d54 DE9969EF 		.word	-278292002
 6323 0d58 0444C270 		.word	1891779588
 6324 0d5c 23D08838 		.word	948490275
 6325 0d60 8110F944 		.word	1157173377
 6326 0d64 56032876 		.word	1982333782
 6327 0d68 0455015F 		.word	1593922820
 6328 0d6c 61CF9F3D 		.word	1033883489
 6329 0d70 6ED32C63 		.word	1663882094
 6330 0d74 C8ED2718 		.word	405269960
 6331 0d78 36231018 		.word	403710774
 6332 0d7c 472EE6A5 		.word	-1511641529
 6333 0d80 C8D6AC2F 		.word	799856328
 6334 0d84 E35E821A 		.word	444751587
 6335 0d88 66BCBC54 		.word	1421655142
 6336 0d8c 54639C69 		.word	1771856724
 6337 0d90 3199DF98 		.word	-1730176719
ARM GAS  /tmp/ccwGYw5D.s 			page 110


 6338 0d94 F7EDE30C 		.word	216264183
 6339 0d98 DC5A6A46 		.word	1181375196
 6340 0d9c E668472C 		.word	742877414
 6341 0da0 C94BA690 		.word	-1868149815
 6342 0da4 8CFF46B3 		.word	-1287192692
 6343 0da8 5C9F77E4 		.word	-461922468
 6344 0dac 20600A63 		.word	1661624352
 6345 0db0 84E805BC 		.word	-1140463484
 6346 0db4 64D049D9 		.word	-649473948
 6347 0db8 A052E6F9 		.word	-102346080
 6348 0dbc 41645E7B 		.word	2069783617
 6349 0dc0 4A44281D 		.word	489178186
 6350 0dc4 2C426921 		.word	560546348
 6351 0dc8 396A13BE 		.word	-1106023879
 6352 0dcc D8C596E9 		.word	-375994920
 6353 0dd0 CE7F0CFB 		.word	-83066930
 6354 0dd4 E5AF8723 		.word	596094949
 6355 0dd8 4A748D0C 		.word	210596938
 6356 0ddc CB73AFB8 		.word	-1196461109
 6357 0de0 FD868B33 		.word	864782077
 6358 0de4 AA83DE5F 		.word	1608418218
 6359 0de8 FF5C8AA5 		.word	-1517658881
 6360 0dec 58F1E3FE 		.word	-18615976
 6361 0df0 3394AC20 		.word	548181043
 6362 0df4 6F8FEEC9 		.word	-907112593
 6363 0df8 95083F7F 		.word	2134837397
 6364 0dfc 5F3936A0 		.word	-1607059105
 6365 0e00 70770FA1 		.word	-1592821904
 6366 0e04 BBC6738C 		.word	-1938569541
 6367 0e08 240E2AA1 		.word	-1591079388
 6368 0e0c 816DF1A6 		.word	-1494127231
 6369 0e10 9F2BBC51 		.word	1371286431
 6370 0e14 82F60D10 		.word	269350530
 6371 0e18 33B55F87 		.word	-2023770829
 6372 0e1c 016BE34B 		.word	1273195265
 6373 0e20 BB6DB59F 		.word	-1615499845
 6374 0e24 6E082692 		.word	-1843001234
 6375 0e28 F8A4E707 		.word	132621560
 6376 0e2c 8BEF6F30 		.word	812642187
 6377 0e30 202FD566 		.word	1725247264
 6378 0e34 05CCACEE 		.word	-290665467
 6379 0e38 C000DC1B 		.word	467402944
 6380 0e3c 879ABC8C 		.word	-1933796729
 6381 0e40 ABC4DAC0 		.word	-1059404629
 6382 0e44 5C8931E1 		.word	-516847268
 6383 0e48 12F12F71 		.word	1898967314
 6384 0e4c 40A474A8 		.word	-1468750784
 6385 0e50 57EE1C6A 		.word	1780280919
 6386 0e54 7CAE3263 		.word	1664265852
 6387 0e58 F835080C 		.word	201864696
 6388 0e5c 3E55E744 		.word	1156011326
 6389 0e60 2D003477 		.word	1999896621
 6390 0e64 FF3F506D 		.word	1833975807
 6391 0e68 5C42340B 		.word	187974236
 6392 0e6c 8BCB359D 		.word	-1657418869
 6393 0e70 B538870E 		.word	243742901
 6394 0e74 7602F795 		.word	-1778974090
ARM GAS  /tmp/ccwGYw5D.s 			page 111


 6395 0e78 18FCB85E 		.word	1589181464
 6396 0e7c 3A680A47 		.word	1191864378
 6397 0e80 82345190 		.word	-1873726334
 6398 0e84 DC61B781 		.word	-2118688292
 6399 0e88 6A27E901 		.word	32057194
 6400 0e8c 2A208702 		.word	42410026
 6401 0e90 8330E70C 		.word	216477827
 6402 0e94 EE41A4CD 		.word	-844873234
 6403 0e98 EFC63DC6 		.word	-969029905
 6404 0e9c 90064116 		.word	373360272
 6405 0ea0 EDA2066D 		.word	1829151469
 6406 0ea4 064A03F5 		.word	-184333818
 6407 0ea8 0B109B18 		.word	412815371
 6408 0eac 45774DDD 		.word	-582125755
 6409 0eb0 C91882AB 		.word	-1417537335
 6410 0eb4 72AE14D9 		.word	-652956046
 6411 0eb8 4FBBBC7A 		.word	2059189071
 6412 0ebc FD7934D7 		.word	-684426755
 6413 0ec0 E5C6D45A 		.word	1523893989
 6414 0ec4 16FBDE7E 		.word	2128542486
 6415 0ec8 4DD0065B 		.word	1527173197
 6416 0ecc 8FF02C26 		.word	640479375
 6417 0ed0 14CB7585 		.word	-2055877868
 6418 0ed4 B15BED12 		.word	317545393
 6419 0ed8 6B667107 		.word	124872299
 6420 0edc E3696481 		.word	-2124125725
 6421 0ee0 1E291E56 		.word	1444817182
 6422 0ee4 799DABD7 		.word	-676618887
 6423 0ee8 6116DEC1 		.word	-1042409887
 6424 0eec 22AF9DEB 		.word	-341987550
 6425 0ef0 13055E13 		.word	324928787
 6426 0ef4 EB2798F4 		.word	-191354901
 6427 0ef8 9C3FDDF0 		.word	-253935716
 6428 0efc 23DD360A 		.word	171367715
 6429 0f00 3C53D541 		.word	1104499516
 6430 0f04 C7328D09 		.word	160248519
 6431 0f08 8F628486 		.word	-2038144369
 6432 0f0c 9E5A5F7C 		.word	2086623902
 6433 0f10 11BD49E3 		.word	-481706735
 6434 0f14 AD28A239 		.word	966928557
 6435 0f18 18B1BAFD 		.word	-38096616
 6436 0f1c D6DF31E3 		.word	-483270698
 6437 0f20 D86ECC6B 		.word	1808559832
 6438 0f24 68AB0051 		.word	1358998376
 6439 0f28 0E267AEF 		.word	-277207538
 6440 0f2c BDC36071 		.word	1902166973
 6441 0f30 D750E8BC 		.word	-1125625641
 6442 0f34 A7D96390 		.word	-1872504409
 6443 0f38 89332E49 		.word	1227764617
 6444 0f3c 2A78B4D3 		.word	-743147478
 6445 0f40 901F82F3 		.word	-209576048
 6446 0f44 E8B649A1 		.word	-1589004568
 6447 0f48 AD7AEB66 		.word	1726708397
 6448 0f4c EDD9ED92 		.word	-1829905939
 6449 0f50 1631011A 		.word	436285718
 6450 0f54 5369B60B 		.word	196503891
 6451 0f58 BDA5864C 		.word	1283892669
ARM GAS  /tmp/ccwGYw5D.s 			page 112


 6452 0f5c 5A278172 		.word	1921066842
 6453 0f60 E547FFD3 		.word	-738244635
 6454 0f64 F7583850 		.word	1345870071
 6455 0f68 41640161 		.word	1627481153
 6456 0f6c BC16165E 		.word	1578505916
 6457 0f70 B19BFD7D 		.word	2113772465
 6458 0f74 1AF1B062 		.word	1655763226
 6459 0f78 595014CE 		.word	-837529511
 6460 0f7c 7E2E062C 		.word	738602622
 6461 0f80 2EAC5901 		.word	22653998
 6462 0f84 6F996FA7 		.word	-1485858449
 6463 0f88 1327DBCB 		.word	-874830061
 6464 0f8c 36771E28 		.word	673085238
 6465 0f90 4760E408 		.word	149184583
 6466 0f94 88D2D62A 		.word	718721672
 6467 0f98 F17E4E2C 		.word	743341809
 6468 0f9c F9352A28 		.word	673854969
 6469 0fa0 D25CCEC0 		.word	-1060217646
 6470 0fa4 1E4B359C 		.word	-1674228962
 6471 0fa8 29C27913 		.word	326746665
 6472 0fac C9EF99CF 		.word	-811995191
 6473 0fb0 1EC1823E 		.word	1048756510
 6474 0fb4 38AF2C99 		.word	-1725124808
 6475 0fb8 BD2A4D55 		.word	1431120573
 6476 0fbc 13D51CC7 		.word	-954411757
 6477 0fc0 F478B509 		.word	162887924
 6478 0fc4 9CDE8548 		.word	1216732828
 6479 0fc8 7AFAAFE3 		.word	-475006342
 6480 0fcc 58E28418 		.word	411361880
 6481 0fd0 1F2F1859 		.word	1494757151
 6482 0fd4 B7B1768F 		.word	-1888046665
 6483 0fd8 A3F347CF 		.word	-817368157
 6484 0fdc 40670FC5 		.word	-988846272
 6485 0fe0 EA684B37 		.word	927688938
 6486 0fe4 F3ADC4A9 		.word	-1446728205
 6487 0fe8 E25F9669 		.word	1771462626
 6488 0fec 23F306A4 		.word	-1543048413
 6489 0ff0 5030A585 		.word	-2052771760
 6490 0ff4 22A2862F 		.word	797352482
 6491 0ff8 DC582921 		.word	556357852
 6492 0ffc A7B3ECB9 		.word	-1175669849
 6493 1000 6AB1F8F4 		.word	-185028246
 6494 1004 0E41F856 		.word	1459110158
 6495 1008 6A267BC4 		.word	-998562198
 6496 100c FE1A2497 		.word	-1759241474
 6497 1010 C1879C6D 		.word	1838974913
 6498 1014 8E6B400A 		.word	171993998
 6499 1018 1BAB42CD 		.word	-851268837
 6500 101c 023E3F80 		.word	-2143339006
 6501 1020 69ECDB04 		.word	81521769
 6502 1024 A809037F 		.word	2130905512
 6503 1028 5FD0BA3B 		.word	1002098783
 6504 102c F7853BA8 		.word	-1472494089
 6505 1030 7F198EAD 		.word	-1383196289
 6506 1034 737209C6 		.word	-972459405
 6507 1038 C1AD6750 		.word	1348971969
 6508 103c 0E4497C0 		.word	-1063828466
ARM GAS  /tmp/ccwGYw5D.s 			page 113


 6509 1040 34AB79C3 		.word	-1015436492
 6510 1044 F2566A84 		.word	-2073405710
 6511 1048 D1F81D84 		.word	-2078410543
 6512 104c 8B06EEA8 		.word	-1460795765
 6513 1050 EF686C17 		.word	392980719
 6514 1054 59443120 		.word	540099673
 6515 1058 301F5F91 		.word	-1856037072
 6516 105c D532AFF1 		.word	-240176427
 6517 1060 50BD755D 		.word	1567997264
 6518 1064 3175C399 		.word	-1715243727
 6519 1068 BC672FF7 		.word	-147888196
 6520 106c BAFF7C83 		.word	-2088960070
 6521 1070 3F72D748 		.word	1222079039
 6522 1074 18A41306 		.word	101950488
 6523 1078 8B1CD4E2 		.word	-489415541
 6524 107c 30F1D023 		.word	600895792
 6525 1080 D90015F4 		.word	-199950119
 6526 1084 EDB67A85 		.word	-2055555347
 6527 1088 A8ADBEFC 		.word	-54612568
 6528 108c E50A890D 		.word	227085029
 6529 1090 51597289 		.word	-1988994735
 6530 1094 4886FE52 		.word	1392412232
 6531 1098 DDFAA3C0 		.word	-1062995235
 6532 109c D68D28B0 		.word	-1339519530
 6533 10a0 08CB0B65 		.word	1695271688
 6534 10a4 300F3285 		.word	-2060316880
 6535 10a8 166E5D69 		.word	1767730710
 6536 10ac 1363AF71 		.word	1907319571
 6537 10b0 76AA89B9 		.word	-1182160266
 6538 10b4 A720F531 		.word	838148263
 6539 10b8 D2C808F4 		.word	-200750894
 6540 10bc 4F72D3FF 		.word	-2919857
 6541 10c0 CBE658B4 		.word	-1269242165
 6542 10c4 648E9653 		.word	1402375780
 6543 10c8 285D7A31 		.word	830102824
 6544 10cc 20AD2D99 		.word	-1725059808
 6545 10d0 565FA77A 		.word	2057789270
 6546 10d4 0BAE1438 		.word	940879371
 6547 10d8 DF268CD7 		.word	-678680865
 6548 10dc 4A0F59F5 		.word	-178712758
 6549 10e0 5AA50BCF 		.word	-821320358
 6550 10e4 D34BC20F 		.word	264391635
 6551 10e8 AE8B770C 		.word	209161134
 6552 10ec 4A72C40F 		.word	264532554
 6553 10f0 4A673B68 		.word	1748723530
 6554 10f4 4F86E91C 		.word	485066319
 6555 10f8 204AF7F6 		.word	-151565792
 6556 10fc 54DAD618 		.word	416733780
 6557 1100 2B5ABED5 		.word	-708945365
 6558 1104 25E293ED 		.word	-309075419
 6559 1108 C6F33459 		.word	1496642502
 6560 110c 8399E76F 		.word	1877449091
 6561 1110 FC6F6222 		.word	576876540
 6562 1114 26091443 		.word	1125386534
 6563 1118 6A219079 		.word	2039488874
 6564 111c D9B4BB50 		.word	1354478809
 6565 1120 3EC67EE5 		.word	-444676546
ARM GAS  /tmp/ccwGYw5D.s 			page 114


 6566 1124 C6918137 		.word	931238342
 6567 1128 B2CD1D18 		.word	404606386
 6568 112c 402C4265 		.word	1698835520
 6569 1130 F6E03602 		.word	37150966
 6570 1134 9B09A841 		.word	1101531547
 6571 1138 C349FE01 		.word	33442243
 6572 113c 1801102B 		.word	722469144
 6573 1140 9315399B 		.word	-1690757741
 6574 1144 C5B568FC 		.word	-60246587
 6575 1148 FC708259 		.word	1501720828
 6576 114c A2F585C3 		.word	-1014631006
 6577 1150 BBDC9AD1 		.word	-778380101
 6578 1154 AAF34471 		.word	1900344234
 6579 1158 0CAEFB83 		.word	-2080657908
 6580 115c 998955DD 		.word	-581596775
 6581 1160 F42FB874 		.word	1958227956
 6582 1164 8E8BB893 		.word	-1816622194
 6583 1168 C934E771 		.word	1910977737
 6584 116c 403CE0D2 		.word	-757056448
 6585 1170 2A32C043 		.word	1136669226
 6586 1174 AF9E7A9A 		.word	-1703240017
 6587 1178 41609D14 		.word	345858113
 6588 117c 51C5E4E6 		.word	-421214895
 6589 1180 88F29A1E 		.word	513471112
 6590 1184 BB55F655 		.word	1442207163
 6591 1188 31A9ADF7 		.word	-139613903
 6592 118c 641A7E64 		.word	1685985892
 6593 1190 E52028CB 		.word	-886562587
 6594 1194 4B7E6943 		.word	1130987083
 6595 1198 FF56ED07 		.word	132994815
 6596 119c B10DE051 		.word	1373638065
 6597 11a0 7E321C77 		.word	1998336638
 6598 11a4 B869D143 		.word	1137797560
 6599 11a8 ADC2964A 		.word	1251394221
 6600 11ac 0BB2CD29 		.word	701346315
 6601 11b0 7947EB3D 		.word	1038829433
 6602 11b4 F5517DC0 		.word	-1065528843
 6603 11b8 77918249 		.word	1233293687
 6604 11bc 41422FE2 		.word	-500219327
 6605 11c0 BB1A5F63 		.word	1667177147
 6606 11c4 F4E845CD 		.word	-851056396
 6607 11c8 74885368 		.word	1750304884
 6608 11cc B50CDC7E 		.word	2128350389
 6609 11d0 4D03A8B5 		.word	-1247280307
 6610 11d4 1F2C47C9 		.word	-918082529
 6611 11d8 C948DC52 		.word	1390168265
 6612 11dc 3D3709F7 		.word	-150390979
 6613 11e0 D630AFA8 		.word	-1464913706
 6614 11e4 BB661940 		.word	1075406523
 6615 11e8 9CB637F1 		.word	-248007012
 6616 11ec 4A5FBF95 		.word	-1782620342
 6617 11f0 7EC46193 		.word	-1822309250
 6618 11f4 2A166639 		.word	962991658
 6619 11f8 115B27E7 		.word	-416851183
 6620 11fc 88D252BD 		.word	-1118645624
 6621 1200 77A85F9C 		.word	-1671452553
 6622 1204 7A5C15AB 		.word	-1424663430
ARM GAS  /tmp/ccwGYw5D.s 			page 115


 6623 1208 483D3A7D 		.word	2100968776
 6624 120c 72D6DA17 		.word	400217714
 6625 1210 D889D173 		.word	1943112152
 6626 1214 9E3FF443 		.word	1140080542
 6627 1218 A677AAC8 		.word	-928352346
 6628 121c E4F8D0A0 		.word	-1596917532
 6629 1220 2DF994CC 		.word	-862652115
 6630 1224 D8AFBE0B 		.word	197046232
 6631 1228 3ADB4D0C 		.word	206428986
 6632 122c BEC818D8 		.word	-669464386
 6633 1230 14BA2EB8 		.word	-1204897260
 6634 1234 F865CC22 		.word	583820792
 6635 1238 006A6D94 		.word	-1804768768
 6636 123c C7786CA5 		.word	-1519617849
 6637 1240 2995D00D 		.word	231773481
 6638 1244 1B396229 		.word	694303003
 6639 1248 CFDFAD3D 		.word	1034805199
 6640 124c A60E3E80 		.word	-2143416666
 6641 1250 81F45B5B 		.word	1532753025
 6642 1254 1F35772C 		.word	746009887
 6643 1258 7A361A73 		.word	1931097722
 6644 125c F8FDBED8 		.word	-658571784
 6645 1260 F45701FC 		.word	-67020812
 6646 1264 429D91AB 		.word	-1416520382
 6647 1268 50E6C8FE 		.word	-20388272
 6648 126c D7AE1CF5 		.word	-182669609
 6649 1270 0A8BD402 		.word	47483658
 6650 1274 40CBF9CD 		.word	-839267520
 6651 1278 78649FCE 		.word	-828414856
 6652 127c A5684A85 		.word	-2058721115
 6653 1280 A56E5063 		.word	1666215589
 6654 1284 7BF635DC 		.word	-600443269
 6655 1288 660DFEA4 		.word	-1526854298
 6656 128c 89C48692 		.word	-1836661623
 6657 1290 4DCD95FE 		.word	-23737011
 6658 1294 3B1D103F 		.word	1058020667
 6659 1298 956A8498 		.word	-1736152427
 6660 129c 0BEAAC5C 		.word	1554835979
 6661 12a0 4DC4EA9C 		.word	-1662335923
 6662 12a4 0CF60DA9 		.word	-1458702836
 6663 12a8 3A1C4D35 		.word	894245946
 6664 12ac F49AB23D 		.word	1035115252
 6665 12b0 BEBA5DAD 		.word	-1386366274
 6666 12b4 E83DDD08 		.word	148717032
 6667 12b8 A9EFE435 		.word	904196009
 6668 12bc 122D98E4 		.word	-459789038
 6669 12c0 5ED54CC3 		.word	-1018374818
 6670 12c4 224A1023 		.word	588270114
 6671 12c8 32D18026 		.word	645976370
 6672 12cc B35B6958 		.word	1483299763
 6673 12d0 43D9A11F 		.word	530700611
 6674 12d4 FA5A34FB 		.word	-80454918
 6675 12d8 9904B216 		.word	380765337
 6676 12dc F6B74680 		.word	-2142849034
 6677 12e0 98D0E738 		.word	954716312
 6678 12e4 1E5833B5 		.word	-1254926306
 6679 12e8 700B6FF4 		.word	-194049168
ARM GAS  /tmp/ccwGYw5D.s 			page 116


 6680 12ec 8D1EF6D7 		.word	-671736179
 6681 12f0 C478CB44 		.word	1154185412
 6682 12f4 EAA9DE30 		.word	819898858
 6683 12f8 55AF8290 		.word	-1870483627
 6684 12fc 7BCA17EB 		.word	-350762373
 6685 1300 B945A176 		.word	1990280633
 6686 1304 98B55117 		.word	391230872
 6687 1308 EC71BCC1 		.word	-1044614676
 6688 130c 0F6BCFA5 		.word	-1513133297
 6689 1310 BB152739 		.word	958862779
 6690 1314 6535E0D3 		.word	-740280987
 6691 1318 31E1B5FA 		.word	-88743631
 6692 131c BA007B09 		.word	159056058
 6693 1320 E1695F56 		.word	1449093601
 6694 1324 E9C866AA 		.word	-1436104471
 6695 1328 9951BEB5 		.word	-1245818471
 6696 132c 5AF7E877 		.word	2011756378
 6697 1330 84D94FDA 		.word	-632301180
 6698 1334 11BA3360 		.word	1614002705
 6699 1338 9ECCDBAF 		.word	-1344549730
 6700 133c 7B745CF9 		.word	-111381381
 6701 1340 5EE4BABE 		.word	-1095048098
 6702 1344 D3018F55 		.word	1435435475
 6703 1348 5569BCC4 		.word	-994285227
 6704 134c F0E9EBA8 		.word	-1460934160
 6705 1350 C64FC6DB 		.word	-607760442
 6706 1354 B105B7AE 		.word	-1363737167
 6707 1358 37D86E56 		.word	1450104887
 6708 135c 1E601235 		.word	890396702
 6709 1360 CD6111FA 		.word	-99524147
 6710 1364 E1F13693 		.word	-1825115679
 6711 1368 87EF654C 		.word	1281748871
 6712 136c D5B88A32 		.word	847952085
 6713 1370 E5214F72 		.word	1917788645
 6714 1374 E2EE5747 		.word	1196945122
 6715 1378 6BAB6860 		.word	1617472363
 6716 137c 2371F90E 		.word	251228451
 6717 1380 2642CA54 		.word	1422541350
 6718 1384 F78C5902 		.word	39423223
 6719 1388 8E2C64F8 		.word	-127652722
 6720 138c 38E1ED5E 		.word	1592647992
 6721 1390 90178E46 		.word	1183717264
 6722 1394 743F9648 		.word	1217806196
 6723 1398 95BC4F3B 		.word	995081365
 6724 139c 33D916FC 		.word	-65611469
 6725 13a0 CA00C8E7 		.word	-406322998
 6726 13a4 31FB96BE 		.word	-1097401551
 6727 13a8 AAAD7826 		.word	645442986
 6728 13ac 31638013 		.word	327181105
 6729 13b0 B5E8F36F 		.word	1878255797
 6730 13b4 9744623D 		.word	1029850263
 6731 13b8 177A5DB9 		.word	-1185056233
 6732 13bc F14ACA14 		.word	348801777
 6733 13c0 D5812FBD 		.word	-1120960043
 6734 13c4 BA71477A 		.word	2051502522
 6735 13c8 96D1F701 		.word	33018262
 6736 13cc 699D5F1A 		.word	442473833
ARM GAS  /tmp/ccwGYw5D.s 			page 117


 6737 13d0 07C9D9CA 		.word	-891696889
 6738 13d4 F7BE98D8 		.word	-661078281
 6739 13d8 1D239CF5 		.word	-174316771
 6740 13dc 63B05740 		.word	1079488611
 6741 13e0 0A5CC089 		.word	-1983882230
 6742 13e4 FE82FDBF 		.word	-1073904898
 6743 13e8 85DFC01D 		.word	499179397
 6744 13ec 6F1C91E4 		.word	-460252049
 6745 13f0 DB165AA3 		.word	-1554376997
 6746 13f4 AECCEF3B 		.word	1005571246
 6747 13f8 130B33F1 		.word	-248313069
 6748 13fc 645D3B1C 		.word	473652580
 6749 1400 FE21EC80 		.word	-2132008450
 6750 1404 FE4BE15F 		.word	1608600574
 6751 1408 82BE55C2 		.word	-1034568062
 6752 140c 6A11CEF6 		.word	-154267286
 6753 1410 675D4A2F 		.word	793402727
 6754 1414 075ABC98 		.word	-1732486649
 6755 1418 AF637EDB 		.word	-612473937
 6756 141c 4871D2FA 		.word	-86871736
 6757 1420 B305AB29 		.word	699073971
 6758 1424 ACB6C090 		.word	-1866418516
 6759 1428 E61A254E 		.word	1311054566
 6760 142c 3CA8A937 		.word	933865532
 6761 1430 7DDEAAC2 		.word	-1028989315
 6762 1434 75C87D0A 		.word	176015477
 6763 1438 841A0E9F 		.word	-1626465660
 6764 143c E37D3877 		.word	2000190947
 6765 1440 D70D6CA5 		.word	-1519645225
 6766 1444 49CC9E1E 		.word	513723465
 6767 1448 746C0846 		.word	1174957172
 6768 144c D8FCCFA5 		.word	-1513095976
 6769 1450 CEAE05F5 		.word	-184176946
 6770 1454 08147A8F 		.word	-1887824888
 6771 1458 7EC4F0BE 		.word	-1091517314
 6772 145c C0857BB3 		.word	-1283750464
 6773 1460 8F6A0ECC 		.word	-871470449
 6774 1464 E4B69635 		.word	899069668
 6775 1468 238F386B 		.word	1798868771
 6776 146c BF4B6DFD 		.word	-43168833
 6777 1470 4EEF9CC3 		.word	-1013125298
 6778 1474 FA53A4AB 		.word	-1415293958
 6779 1478 D528F6F9 		.word	-101308203
 6780 147c C85A139C 		.word	-1676453176
 6781 1480 4357E384 		.word	-2065475773
 6782 1484 0232AA32 		.word	850014722
 6783 1488 EFCDA385 		.word	-2052862481
 6784 148c B16A0D32 		.word	839740081
 6785 1490 1998F11D 		.word	502372377
 6786 1494 76B121B8 		.word	-1205751434
 6787 1498 1F8533C4 		.word	-1003256545
 6788 149c 1F362157 		.word	1461794335
 6789 14a0 6891FC71 		.word	1912377704
 6790 14a4 6AB30D1F 		.word	520991594
 6791 14a8 3C405C5E 		.word	1583104060
 6792 14ac 73BA985F 		.word	1603844723
 6793 14b0 F5D8BC37 		.word	935123189
ARM GAS  /tmp/ccwGYw5D.s 			page 118


 6794 14b4 7EA84CF6 		.word	-162748290
 6795 14b8 BD11BBE6 		.word	-423947843
 6796 14bc C9C3BADC 		.word	-591739959
 6797 14c0 E2CB1845 		.word	1159252962
 6798 14c4 68991DF0 		.word	-266495640
 6799 14c8 4EB09E9C 		.word	-1667321778
 6800 14cc 18FC42D2 		.word	-767362024
 6801 14d0 BFEE7FE4 		.word	-461377857
 6802 14d4 C7637672 		.word	1920361415
 6803 14d8 6268622D 		.word	761423970
 6804 14dc 9EC8C1B8 		.word	-1195259746
 6805 14e0 69D5E1C8 		.word	-924723863
 6806 14e4 DD8BA551 		.word	1369803741
 6807 14e8 D08CD8B7 		.word	-1210544944
 6808 14ec C8093856 		.word	1446513096
 6809 14f0 EB311FF1 		.word	-249613845
 6810 14f4 D97FC226 		.word	650280921
 6811 14f8 D422942F 		.word	798237396
 6812 14fc DABB235D 		.word	1562622938
 6813 1500 BEF8C895 		.word	-1781991234
 6814 1504 94721C0A 		.word	169636500
 6815 1508 BF62F33B 		.word	1005806271
 6816 150c 80C46129 		.word	694273152
 6817 1510 ACD463DF 		.word	-547105620
 6818 1514 0384419E 		.word	-1639873533
 6819 1518 00E9EC91 		.word	-1846744832
 6820 151c CBF909C1 		.word	-1056310837
 6821 1520 05579458 		.word	1486116613
 6822 1524 D095D0C2 		.word	-1026517552
 6823 1528 C085EBDD 		.word	-571767360
 6824 152c 963D08B9 		.word	-1190642282
 6825 1530 9B44407A 		.word	2051032219
 6826 1534 8D2B6984 		.word	-2073482355
 6827 1538 E11EEE2E 		.word	787357409
 6828 153c 4F34C39B 		.word	-1681705905
 6829 1540 74309142 		.word	1116811380
 6830 1544 56E35A0D 		.word	224060246
 6831 1548 B142A548 		.word	1218790065
 6832 154c 271B4955 		.word	1430854439
 6833 1550 2A7310B3 		.word	-1290767574
 6834 1554 65A69C46 		.word	1184671333
 6835 1558 C14C1A5F 		.word	1595559105
 6836 155c 521D5929 		.word	693706066
 6837 1560 3F984FB8 		.word	-1202743233
 6838 1564 6B5B6FE7 		.word	-412132501
 6839 1568 E1845F9F 		.word	-1621130015
 6840 156c 41EF7EBE 		.word	-1098977471
 6841 1570 89A1BA80 		.word	-2135252599
 6842 1574 96D40012 		.word	302044310
 6843 1578 2C33EF18 		.word	418329388
 6844 157c 1F557663 		.word	1668699423
 6845 1580 CC762956 		.word	1445557964
 6846 1584 4EF1A5BD 		.word	-1113198258
 6847 1588 382CF10E 		.word	250686520
 6848 158c E6A3BC22 		.word	582788070
 6849 1590 5298CA6C 		.word	1825216594
 6850 1594 6430FABB 		.word	-1141231516
ARM GAS  /tmp/ccwGYw5D.s 			page 119


 6851 1598 7A98E208 		.word	149067898
 6852 159c C89DB7BD 		.word	-1112039992
 6853 15a0 72A706CB 		.word	-888756366
 6854 15a4 C9B52CFD 		.word	-47401527
 6855 15a8 CE6D53FE 		.word	-28086834
 6856 15ac AA75F438 		.word	955545002
 6857 15b0 B85D2B7C 		.word	2083216824
 6858 15b4 22E0A3C2 		.word	-1029447646
 6859 15b8 4AC1D3AD 		.word	-1378631350
 6860 15bc 0160E88E 		.word	-1897373695
 6861 15c0 73E8ADA4 		.word	-1532106637
 6862 15c4 8169E9CB 		.word	-873895551
 6863 15c8 8CA4FBC4 		.word	-990141300
 6864 15cc 4DAAE97E 		.word	2129242701
 6865 15d0 A54B055A 		.word	1510296485
 6866 15d4 9928EE2C 		.word	753805465
 6867 15d8 4BAA776F 		.word	1870113355
 6868 15dc 7A1DE592 		.word	-1830478470
 6869 15e0 4DA39071 		.word	1905304397
 6870 15e4 A8AF8B94 		.word	-1802784856
 6871 15e8 D11EBDF6 		.word	-155377967
 6872 15ec 5BF798D6 		.word	-694618277
 6873 15f0 4411AF0C 		.word	212799812
 6874 15f4 E3E60ED0 		.word	-804329757
 6875 15f8 AAAA560A 		.word	173451946
 6876 15fc 6FF88251 		.word	1367537775
 6877 1600 9CC94C7A 		.word	2051852700
 6878 1604 2C21A6FB 		.word	-72998612
 6879 1608 A19C6D3E 		.word	1047370913
 6880 160c 689B60FF 		.word	-10445976
 6881 1610 5A8CC95A 		.word	1523158106
 6882 1614 CB27BB5D 		.word	1572546507
 6883 1618 F2A67340 		.word	1081321202
 6884 161c 5DABDC91 		.word	-1847809187
 6885 1620 705A575F 		.word	1599560304
 6886 1624 3DCCB601 		.word	28757053
 6887 1628 FA878D6F 		.word	1871546362
 6888 162c 3961B30C 		.word	213082425
 6889 1630 36179889 		.word	-1986521290
 6890 1634 8C4E5D16 		.word	375213708
 6891 1638 2B4F9797 		.word	-1751691477
 6892 163c DBCEA017 		.word	396414683
 6893 1640 3A8D6C07 		.word	124554554
 6894 1644 2A1E8638 		.word	948313642
 6895 1648 4B920F21 		.word	554668619
 6896 164c 39AD1A70 		.word	1880796473
 6897 1650 D935A813 		.word	329790937
 6898 1654 E4EAD094 		.word	-1798247708
 6899 1658 41DF4C7F 		.word	2135744321
 6900 165c 6CE38C2E 		.word	780985196
 6901 1660 2B867A03 		.word	58361387
 6902 1664 AB3D2791 		.word	-1859699285
 6903 1668 FAC8E460 		.word	1625606394
 6904 166c B79BBA01 		.word	29006775
 6905 1670 DDF2BA33 		.word	867889885
 6906 1674 885364F9 		.word	-110865528
 6907 1678 F368F634 		.word	888563955
ARM GAS  /tmp/ccwGYw5D.s 			page 120


 6908 167c CBC6CCF4 		.word	-187906357
 6909 1680 8796F7F1 		.word	-235432313
 6910 1684 5C52EF44 		.word	1156534876
 6911 1688 15A8EF92 		.word	-1829787627
 6912 168c 9554597C 		.word	2086229141
 6913 1690 298DC7A5 		.word	-1513648855
 6914 1694 411723E1 		.word	-517793983
 6915 1698 C9F30D9A 		.word	-1710361655
 6916 169c 88B40DAC 		.word	-1408387960
 6917 16a0 7F7401DF 		.word	-553552769
 6918 16a4 11C7BF86 		.word	-2034252015
 6919 16a8 13DF17EF 		.word	-283648237
 6920 16ac 58932B59 		.word	1496027992
 6921 16b0 B56BCB5C 		.word	1556835253
 6922 16b4 4F0E88E5 		.word	-444068273
 6923 16b8 A274C994 		.word	-1798736734
 6924 16bc 614AA695 		.word	-1784264095
 6925 16c0 934C5AC1 		.word	-1051046765
 6926 16c4 DAEFC172 		.word	1925312474
 6927 16c8 41515882 		.word	-2108141247
 6928 16cc 739B2640 		.word	1076271987
 6929 16d0 AD0BCB16 		.word	382405549
 6930 16d4 1CFB8D6A 		.word	1787689756
 6931 16d8 77062129 		.word	690030199
 6932 16dc BA541E23 		.word	589190330
 6933 16e0 DCD2E68A 		.word	-1964584228
 6934 16e4 17F90DA7 		.word	-1492256489
 6935 16e8 18291139 		.word	957425944
 6936 16ec 3FA66A4D 		.word	1298835007
 6937 16f0 23725B5E 		.word	1583051299
 6938 16f4 6B7227F6 		.word	-165186965
 6939 16f8 E131A7D8 		.word	-660131359
 6940 16fc 32E00BAB 		.word	-1425285070
 6941 1700 2D1F138D 		.word	-1928126675
 6942 1704 E9D07A09 		.word	159043817
 6943 1708 01F1043B 		.word	990179585
 6944 170c E3097F63 		.word	1669269987
 6945 1710 48A7E9D5 		.word	-706107576
 6946 1714 9661C81A 		.word	449339798
 6947 1718 79A6F62C 		.word	754361977
 6948 171c 80C8BCF1 		.word	-239286144
 6949 1720 B4ACDAE8 		.word	-388322124
 6950 1724 4091C625 		.word	633770304
 6951 1728 0950F660 		.word	1626755081
 6952 172c 55404E3C 		.word	1011761237
 6953 1730 A6377947 		.word	1199126438
 6954 1734 FCC81C59 		.word	1495058684
 6955 1738 71B2EB5A 		.word	1525396081
 6956 173c 69941685 		.word	-2062117783
 6957 1740 93F5DCF1 		.word	-237177453
 6958 1744 43C135DE 		.word	-566902461
 6959 1748 3BBE18B0 		.word	-1340555717
 6960 174c 292B2078 		.word	2015374121
 6961 1750 3D9DDD9B 		.word	-1679975107
 6962 1754 C2ADCDE9 		.word	-372396606
 6963 1758 D855ADDA 		.word	-626174504
 6964 175c D2D9678F 		.word	-1889019438
ARM GAS  /tmp/ccwGYw5D.s 			page 121


 6965 1760 5FEA8174 		.word	1954671199
 6966 1764 56161184 		.word	-2079254954
 6967 1768 0C594CE3 		.word	-481535732
 6968 176c E9DDD2E7 		.word	-405611031
 6969 1770 A83F0505 		.word	84230056
 6970 1774 F443DDFF 		.word	-2276364
 6971 1778 5D8B72C0 		.word	-1066235043
 6972 177c B97245F8 		.word	-129666375
 6973 1780 C971AF97 		.word	-1750109751
 6974 1784 717A1A5E 		.word	1578793585
 6975 1788 6565737A 		.word	2054382949
 6976 178c 449444A1 		.word	-1589341116
 6977 1790 63501D0E 		.word	236802147
 6978 1794 07AEB4A1 		.word	-1581994489
 6979 1798 192C6B61 		.word	1634413593
 6980 179c 1027EEED 		.word	-303159536
 6981 17a0 21417311 		.word	292765985
 6982 17a4 F534F0B2 		.word	-1292880651
 6983 17a8 F0E9254A 		.word	1243998704
 6984 17ac 556EAC1C 		.word	481062485
 6985 17b0 CF2E0CA4 		.word	-1542705457
 6986 17b4 F348C18D 		.word	-1916712717
 6987 17b8 F4D7EB44 		.word	1156306932
 6988 17bc 9B7ED29F 		.word	-1613594981
 6989 17c0 16CBE2F6 		.word	-152909034
 6990 17c4 8A65C73C 		.word	1019700618
 6991 17c8 B61959FE 		.word	-27715146
 6992 17cc 2C7DEBE3 		.word	-471106260
 6993 17d0 83558D16 		.word	378361219
 6994 17d4 16588C5A 		.word	1519147030
 6995 17d8 87F38F95 		.word	-1785728121
 6996 17dc B62F0CA4 		.word	-1542705226
 6997 17e0 58C1DCFE 		.word	-19087016
 6998 17e4 60C59E8C 		.word	-1935751840
 6999 17e8 5630F255 		.word	1441935446
 7000 17ec C604D87A 		.word	2060977350
 7001 17f0 127E309A 		.word	-1708098030
 7002 17f4 046739D9 		.word	-650549500
 7003 17f8 CFDEC67D 		.word	2110185167
 7004 17fc B89BBC99 		.word	-1715692616
 7005 1800 C6AF7D92 		.word	-1837256762
 7006 1804 1D52A984 		.word	-2069278179
 7007 1808 19CD095C 		.word	1544146201
 7008 180c 69FBC152 		.word	1388444521
 7009 1810 DE6D36F9 		.word	-113873442
 7010 1814 A081959D 		.word	-1651146336
 7011 1818 647E6DA1 		.word	-1586659740
 7012 181c 0B21BE9A 		.word	-1698815733
 7013 1820 20529148 		.word	1217483296
 7014 1824 4AF80A48 		.word	1208678474
 7015 1828 C616D84D 		.word	1306007238
 7016 182c 6A1773FA 		.word	-93120662
 7017 1830 5ACA8116 		.word	377604698
 7018 1834 8739D5C7 		.word	-942327417
 7019 1838 B044F387 		.word	-2014100304
 7020 183c 57C28178 		.word	2021769815
 7021 1840 FFF3BCE0 		.word	-524487681
ARM GAS  /tmp/ccwGYw5D.s 			page 122


 7022 1844 519B3993 		.word	-1824941231
 7023 1848 F6747F12 		.word	310342902
 7024 184c C5CB020D 		.word	218287045
 7025 1850 68D901DD 		.word	-587081368
 7026 1854 A265B48F 		.word	-1884002910
 7027 1858 40890EA3 		.word	-1559328448
 7028 185c 19E3E615 		.word	367452953
 7029 1860 F4050E3E 		.word	1041106420
 7030 1864 0D6E6D64 		.word	1684893197
 7031 1868 04845843 		.word	1129874436
 7032 186c DCBDD7FA 		.word	-86524452
 7033 1870 D350F8C4 		.word	-990359341
 7034 1874 D1C761BE 		.word	-1100888111
 7035 1878 CE721119 		.word	420573902
 7036 187c CFFA550E 		.word	240515791
 7037 1880 647578F8 		.word	-126323356
 7038 1884 06989D7E 		.word	2124257286
 7039 1888 E65CE831 		.word	837311718
 7040 188c 2117331A 		.word	439555873
 7041 1890 D6E819B8 		.word	-1206261546
 7042 1894 CA58016B 		.word	1795250378
 7043 1898 7765E96F 		.word	1877566839
 7044 189c 76093DD7 		.word	-683865738
 7045 18a0 6E20B71E 		.word	515317870
 7046 18a4 25344842 		.word	1112028197
 7047 18a8 42BB18C6 		.word	-971457726
 7048 18ac 0F2919A5 		.word	-1525077745
 7049 18b0 20A5305E 		.word	1580246304
 7050 18b4 59B8CB5D 		.word	1573632089
 7051 18b8 0BA5158F 		.word	-1894406901
 7052 18bc 74A35092 		.word	-1840209036
 7053 18c0 107457BE 		.word	-1101564912
 7054 18c4 F808FFCA 		.word	-889255688
 7055 18c8 C6A87750 		.word	1350019270
 7056 18cc 038A40FD 		.word	-46102013
 7057 18d0 A4630AEC 		.word	-334863452
 7058 18d4 8932F6F1 		.word	-235523447
 7059 18d8 0B8CCCC1 		.word	-1043559413
 7060 18dc 82404177 		.word	2000765058
 7061 18e0 CD9109EB 		.word	-351694387
 7062 18e4 A60FA405 		.word	94637990
 7063 18e8 96C2FD49 		.word	1241367190
 7064 18ec 6608CAC1 		.word	-1043724186
 7065 18f0 40FD24B3 		.word	-1289421504
 7066 18f4 C7A3683A 		.word	979936199
 7067 18f8 B920EB12 		.word	317399225
 7068 18fc 4D4FB08C 		.word	-1934602419
 7069 1900 1C170669 		.word	1762006812
 7070 1904 55D0C2B1 		.word	-1312632747
 7071 1908 3F0C24B0 		.word	-1339814849
 7072 190c CDE97390 		.word	-1871451699
 7073 1910 416890D8 		.word	-661624767
 7074 1914 4F6B8EDB 		.word	-611423409
 7075 1918 513B1247 		.word	1192377169
 7076 191c EF29E4E4 		.word	-454809105
 7077 1920 F436EC38 		.word	955004660
 7078 1924 3CD58D0B 		.word	193844540
ARM GAS  /tmp/ccwGYw5D.s 			page 123


 7079 1928 276A4BFF 		.word	-11834841
 7080 192c 01DCD2F9 		.word	-103621631
 7081 1930 489A9A87 		.word	-2019911096
 7082 1934 076E065D 		.word	1560702471
 7083 1938 52656E3C 		.word	1013867858
 7084 193c FFA2BC37 		.word	935109375
 7085 1940 702456DF 		.word	-548002704
 7086 1944 C7E3D24C 		.word	1288889287
 7087 1948 C94A96C0 		.word	-1063892279
 7088 194c A272F244 		.word	1156739746
 7089 1950 BE93C780 		.word	-2134404162
 7090 1954 F95D6D7C 		.word	2087542265
 7091 1958 2AB20230 		.word	805483050
 7092 195c DC3E9159 		.word	1502691036
 7093 1960 2A595057 		.word	1464883498
 7094 1964 839A137A 		.word	2048105091
 7095 1968 02DE83E7 		.word	-410788350
 7096 196c 801DE099 		.word	-1713365632
 7097 1970 4FD605EA 		.word	-368716209
 7098 1974 75038CCF 		.word	-812907659
 7099 1978 26E213B0 		.word	-1340874202
 7100 197c 4A6E7843 		.word	1131966026
 7101 1980 A6B5569E 		.word	-1638484570
 7102 1984 EDB032FF 		.word	-13455123
 7103 1988 F968FCD9 		.word	-637769479
 7104 198c A6D95007 		.word	122739110
 7105 1990 A7467859 		.word	1501054631
 7106 1994 45E815EC 		.word	-334108603
 7107 1998 7A9EE7B7 		.word	-1209557382
 7108 199c 98CA3886 		.word	-2043098472
 7109 19a0 B224FC0A 		.word	184296626
 7110 19a4 96E05A2F 		.word	794484886
 7111 19a8 F2E8AC4D 		.word	1303177458
 7112 19ac AF8E3905 		.word	87658159
 7113 19b0 8FA7CBAE 		.word	-1362385009
 7114 19b4 D05D763B 		.word	997613008
 7115 19b8 F0A63A7B 		.word	2067441392
 7116 19bc 6AD3CD1E 		.word	516805482
 7117 19c0 F3F25F6C 		.word	1818227443
 7118 19c4 62CD3A5D 		.word	1564134754
 7119 19c8 78A97328 		.word	678668664
 7120 19cc C016D5A2 		.word	-1563093312
 7121 19d0 540D11D2 		.word	-770634412
 7122 19d4 FAC994AD 		.word	-1382757894
 7123 19d8 2DF359D4 		.word	-732302547
 7124 19dc 850F5DD8 		.word	-664989819
 7125 19e0 A31DB110 		.word	280042915
 7126 19e4 8D0B709F 		.word	-1620046963
 7127 19e8 C41883A7 		.word	-1484580668
 7128 19ec 302CC2D2 		.word	-759026640
 7129 19f0 CDDE0892 		.word	-1844912435
 7130 19f4 F4886955 		.word	1432979700
 7131 19f8 623CEDB4 		.word	-1259520926
 7132 19fc C3194FA0 		.word	-1605428797
 7133 1a00 BD937FED 		.word	-310406211
 7134 1a04 C8247908 		.word	142157000
 7135 1a08 F6512F39 		.word	959402486
ARM GAS  /tmp/ccwGYw5D.s 			page 124


 7136 1a0c 5DAC64CB 		.word	-882594723
 7137 1a10 AF711B82 		.word	-2112130641
 7138 1a14 0A33AE7C 		.word	2091791114
 7139 1a18 B050095C 		.word	1544114352
 7140 1a1c EAEEB292 		.word	-1833767190
 7141 1a20 35E2B685 		.word	-2051612107
 7142 1a24 944CAC85 		.word	-2052305772
 7143 1a28 F0C03629 		.word	691454192
 7144 1a2c A9A42CAB 		.word	-1423137623
 7145 1a30 918850E0 		.word	-531593071
 7146 1a34 B3A6FA80 		.word	-2131056973
 7147 1a38 6C273458 		.word	1479812972
 7148 1a3c 2182E71E 		.word	518488609
 7149 1a40 F7793EE6 		.word	-432113161
 7150 1a44 002E0AA6 		.word	-1509282304
 7151 1a48 06D999F3 		.word	-208021242
 7152 1a4c B2E790F5 		.word	-175052878
 7153 1a50 9DC00766 		.word	1711784093
 7154 1a54 4A052190 		.word	-1876884150
 7155 1a58 50E1A657 		.word	1470554448
 7156 1a5c D8CEF2F3 		.word	-202191144
 7157 1a60 559B0DF1 		.word	-250766507
 7158 1a64 F3100520 		.word	537202931
 7159 1a68 482664D8 		.word	-664525240
 7160 1a6c ACCF2F9D 		.word	-1657811028
 7161 1a70 7C0EBDE8 		.word	-390263172
 7162 1a74 A71A63E5 		.word	-446489945
 7163 1a78 10E2A33D 		.word	1034150416
 7164 1a7c 54A4560F 		.word	257336404
 7165 1a80 DFE04310 		.word	272883935
 7166 1a84 FABF215B 		.word	1528938490
 7167 1a88 6D7E009C 		.word	-1677689235
 7168 1a8c CCB6746C 		.word	1819588300
 7169 1a90 7A51A8D4 		.word	-727166598
 7170 1a94 C06E651A 		.word	442855104
 7171 1a98 63E26919 		.word	426369635
 7172 1a9c 41178FBD 		.word	-1114695871
 7173 1aa0 4A49B7BE 		.word	-1095284406
 7174 1aa4 86BB9B8A 		.word	-1969505402
 7175 1aa8 38B8F345 		.word	1173600312
 7176 1aac 6FD46715 		.word	359126127
 7177 1ab0 9AA7E5A4 		.word	-1528453222
 7178 1ab4 A7127ADF 		.word	-545647961
 7179 1ab8 09FACC30 		.word	818739721
 7180 1abc 351C1A2D 		.word	756685877
 7181 1ac0 DA086550 		.word	1348798682
 7182 1ac4 13382E19 		.word	422459411
 7183 1ac8 A795D7A1 		.word	-1579706969
 7184 1acc C4806133 		.word	862027972
 7185 1ad0 B344997A 		.word	2056864947
 7186 1ad4 4959DBCD 		.word	-841262775
 7187 1ad8 46BA1FB9 		.word	-1189103034
 7188 1adc 5EA607A1 		.word	-1593334178
 7189 1ae0 39D6940F 		.word	261412409
 7190 1ae4 C5D1D1E6 		.word	-422456891
 7191 1ae8 D7B7588A 		.word	-1973897257
 7192 1aec 75F34A8B 		.word	-1958022283
ARM GAS  /tmp/ccwGYw5D.s 			page 125


 7193 1af0 1CCA37BD 		.word	-1120417252
 7194 1af4 84557C1A 		.word	444355972
 7195 1af8 F29A7AF8 		.word	-126182670
 7196 1afc 0A763D18 		.word	406681098
 7197 1b00 A459DE0D 		.word	232675748
 7198 1b04 1197D629 		.word	701929233
 7199 1b08 87EF8B0E 		.word	244051847
 7200 1b0c 078DADF1 		.word	-240284409
 7201 1b10 78BE2E4F 		.word	1328463480
 7202 1b14 63499B22 		.word	580602211
 7203 1b18 54D769C2 		.word	-1033250988
 7204 1b1c 9D17441D 		.word	491001757
 7205 1b20 0ED39083 		.word	-2087660786
 7206 1b24 CFC02DB3 		.word	-1288847153
 7207 1b28 0C11E80D 		.word	233312524
 7208 1b2c 53273B0A 		.word	171648851
 7209 1b30 9A33C02B 		.word	734016410
 7210 1b34 C51DAF31 		.word	833560005
 7211 1b38 62D20696 		.word	-1777937822
 7212 1b3c C29C1F77 		.word	1998560450
 7213 1b40 39070485 		.word	-2063333575
 7214 1b44 773E9999 		.word	-1718010249
 7215 1b48 39A92680 		.word	-2144949959
 7216 1b4c B99D5344 		.word	1146330553
 7217 1b50 26FCF8F5 		.word	-168231898
 7218 1b54 F2F640CF 		.word	-817826062
 7219 1b58 8E716203 		.word	56783246
 7220 1b5c 317A4264 		.word	1682078257
 7221 1b60 A88A4285 		.word	-2059236696
 7222 1b64 872D4F4F 		.word	1330589063
 7223 1b68 A849FBEB 		.word	-335853144
 7224 1b6c 3FDC7A7B 		.word	2071649343
 7225 1b70 AC013DF2 		.word	-230882900
 7226 1b74 6D2C1B20 		.word	538651757
 7227 1b78 6D0DE96A 		.word	1793658221
 7228 1b7c 49B7D949 		.word	1239005001
 7229 1b80 99105D43 		.word	1130172569
 7230 1b84 BCD878CC 		.word	-864495428
 7231 1b88 081A8D8E 		.word	-1903355384
 7232 1b8c 4ECDDB2A 		.word	719048014
 7233 1b90 418AB62C 		.word	750160449
 7234 1b94 A0E2C202 		.word	46326432
 7235 1b98 4554603F 		.word	1063277637
 7236 1b9c 1BD83790 		.word	-1875388389
 7237 1ba0 617B4C07 		.word	122452833
 7238 1ba4 27ACDB7C 		.word	2094771239
 7239 1ba8 2ED7BF57 		.word	1472190254
 7240 1bac AB3120FE 		.word	-31444565
 7241 1bb0 52536D59 		.word	1500336978
 7242 1bb4 96ECCC61 		.word	1640819862
 7243 1bb8 9C63C07C 		.word	2092983196
 7244 1bbc 6ADEC308 		.word	147054186
 7245 1bc0 AB52D5F6 		.word	-153791829
 7246 1bc4 20D0FD20 		.word	553504800
 7247 1bc8 F181CD05 		.word	97354225
 7248 1bcc 98FFBA56 		.word	1455095704
 7249 1bd0 91123591 		.word	-1858792815
ARM GAS  /tmp/ccwGYw5D.s 			page 126


 7250 1bd4 3E7CFB06 		.word	117144638
 7251 1bd8 2F6B7945 		.word	1165585199
 7252 1bdc 429490C6 		.word	-963603390
 7253 1be0 D11B2341 		.word	1092819921
 7254 1be4 9CAEB317 		.word	397651612
 7255 1be8 0582C55C 		.word	1556447749
 7256 1bec 876EAC1E 		.word	514616967
 7257 1bf0 22A1D6F9 		.word	-103374558
 7258 1bf4 AB378820 		.word	545798059
 7259 1bf8 C03AFECA 		.word	-889308480
 7260 1bfc 02DBA33F 		.word	1067703042
 7261 1c00 80880505 		.word	84248704
 7262 1c04 653E5AD7 		.word	-681951643
 7263 1c08 F2433964 		.word	1681474546
 7264 1c0c EF65A37D 		.word	2107860463
 7265 1c10 2549B2FA 		.word	-88979163
 7266 1c14 1C864741 		.word	1095206428
 7267 1c18 FF08B8FD 		.word	-38270721
 7268 1c1c B0BDC4C5 		.word	-976962128
 7269 1c20 6BB572B2 		.word	-1301105301
 7270 1c24 343E5173 		.word	1934704180
 7271 1c28 3A04B911 		.word	297337914
 7272 1c2c 957E32C8 		.word	-936214891
 7273 1c30 694984F8 		.word	-125548183
 7274 1c34 7DE38CFD 		.word	-41098371
 7275 1c38 B5B6C246 		.word	1187165877
 7276 1c3c 94DB562D 		.word	760667028
 7277 1c40 6BAC46FF 		.word	-12145557
 7278 1c44 2F786124 		.word	610367535
 7279 1c48 25E4A207 		.word	128115749
 7280 1c4c 26799FD1 		.word	-778077914
 7281 1c50 E18DA409 		.word	161779169
 7282 1c54 C4A3FEFA 		.word	-83975228
 7283 1c58 42BA03E5 		.word	-452740542
 7284 1c5c 9DBD560F 		.word	257342877
 7285 1c60 49DA5C34 		.word	878500425
 7286 1c64 D14E7D13 		.word	326979281
 7287 1c68 9D296F81 		.word	-2123421283
 7288 1c6c FC581182 		.word	-2112792324
 7289 1c70 0234B4AE 		.word	-1363921918
 7290 1c74 4AA5C6E7 		.word	-406411958
 7291 1c78 F1B57311 		.word	292795889
 7292 1c7c 9DBB0340 		.word	1073986461
 7293 1c80 873380A0 		.word	-1602210937
 7294 1c84 89818E3B 		.word	999195017
 7295 1c88 04D4CB39 		.word	969659396
 7296 1c8c F515E1EC 		.word	-320793099
 7297 1c90 217F87D2 		.word	-762872031
 7298 1c94 8D209742 		.word	1117200525
 7299 1c98 9E2F7FA0 		.word	-1602277474
 7300 1c9c 22557653 		.word	1400263970
 7301 1ca0 2D18A4A8 		.word	-1465640915
 7302 1ca4 210A98A4 		.word	-1533539807
 7303 1ca8 79DF1932 		.word	840556409
 7304 1cac 7AD0BBA2 		.word	-1564749702
 7305 1cb0 D4A2191A 		.word	437887700
 7306 1cb4 2E0A4D67 		.word	1733102126
ARM GAS  /tmp/ccwGYw5D.s 			page 127


 7307 1cb8 49455D6C 		.word	1818051913
 7308 1cbc 586F057A 		.word	2047176536
 7309 1cc0 472A8A9D 		.word	-1651889593
 7310 1cc4 58256B64 		.word	1684743512
 7311 1cc8 7327DFC3 		.word	-1008785549
 7312 1ccc 4829585B 		.word	1532504392
 7313 1cd0 39D5F0AB 		.word	-1410280135
 7314 1cd4 0E00EC51 		.word	1374421006
 7315 1cd8 75261A7A 		.word	2048534133
 7316 1cdc F182D477 		.word	2010415857
 7317 1ce0 48398587 		.word	-2021312184
 7318 1ce4 95BDA1B8 		.word	-1197359723
 7319 1ce8 EEFFFB6C 		.word	1828454382
 7320 1cec BD17F8A6 		.word	-1493690435
 7321 1cf0 471E6880 		.word	-2140660153
 7322 1cf4 57C06EAB 		.word	-1418805161
 7323 1cf8 E4B0382B 		.word	725135588
 7324 1cfc 2B011541 		.word	1091895595
 7325 1d00 ED8CE26D 		.word	1843563757
 7326 1d04 F4F0733C 		.word	1014231284
 7327 1d08 47EC139B 		.word	-1693193145
 7328 1d0c 60A75D1D 		.word	492676960
 7329 1d10 92635C6E 		.word	1851548562
 7330 1d14 9ECEB861 		.word	1639501470
 7331 1d18 4609EAFB 		.word	-68548282
 7332 1d1c 7245F0CD 		.word	-839891598
 7333 1d20 B0C3536C 		.word	1817428912
 7334 1d24 8BC5B31C 		.word	481543563
 7335 1d28 3C847B44 		.word	1148945468
 7336 1d2c 103CFE97 		.word	-1744946160
 7337 1d30 0E78B92C 		.word	750352398
 7338 1d34 E18A2BFB 		.word	-81032479
 7339 1d38 09313897 		.word	-1757925111
 7340 1d3c DA3D70EE 		.word	-294634022
 7341 1d40 3AE457FF 		.word	-11017158
 7342 1d44 40515134 		.word	877744448
 7343 1d48 B811B8B1 		.word	-1313336904
 7344 1d4c D36046D4 		.word	-733585197
 7345 1d50 86B9428F 		.word	-1891452538
 7346 1d54 FF5D3B2B 		.word	725310975
 7347 1d58 21CE62A1 		.word	-1587360223
 7348 1d5c 9DD80A2A 		.word	705353885
 7349 1d60 BA77C26B 		.word	1807906746
 7350 1d64 94A6E464 		.word	1692706452
 7351 1d68 76C241C1 		.word	-1052654986
 7352 1d6c 54C988C7 		.word	-947336876
 7353 1d70 7462BFCA 		.word	-893427084
 7354 1d74 4CA61A14 		.word	337290828
 7355 1d78 59462BAC 		.word	-1406450087
 7356 1d7c 670B2DD6 		.word	-701691033
 7357 1d80 C44A052C 		.word	738544324
 7358 1d84 7BD8C539 		.word	969267323
 7359 1d88 88F77DF2 		.word	-226625656
 7360 1d8c 59580057 		.word	1459640409
 7361 1d90 D62881B1 		.word	-1316935466
 7362 1d94 F3CBF7ED 		.word	-302527501
 7363 1d98 26241C99 		.word	-1726208986
ARM GAS  /tmp/ccwGYw5D.s 			page 128


 7364 1d9c F2239AB3 		.word	-1281743886
 7365 1da0 E56AB1F0 		.word	-256808219
 7366 1da4 154A2895 		.word	-1792521707
 7367 1da8 1BF536A1 		.word	-1590233829
 7368 1dac B1056A0C 		.word	208274865
 7369 1db0 830770F2 		.word	-227539069
 7370 1db4 37C1631D 		.word	493076791
 7371 1db8 C54C67C0 		.word	-1066971963
 7372 1dbc 9200ED04 		.word	82641042
 7373 1dc0 9303E99A 		.word	-1696005229
 7374 1dc4 D185411F 		.word	524387793
 7375 1dc8 E6643D4A 		.word	1245537510
 7376 1dcc 29B44730 		.word	810005545
 7377 1dd0 14FC5498 		.word	-1739260908
 7378 1dd4 A60100AE 		.word	-1375731290
 7379 1dd8 87C37701 		.word	24626055
 7380 1ddc C11FA9A0 		.word	-1599529023
 7381 1de0 1E832CAE 		.word	-1372814562
 7382 1de4 013F0AFF 		.word	-16105727
 7383 1de8 167E722B 		.word	728923670
 7384 1dec 82AE76BB 		.word	-1149849982
 7385 1df0 B475305A 		.word	1513125300
 7386 1df4 A1C8128F 		.word	-1894594399
 7387 1df8 410CD29E 		.word	-1630401471
 7388 1dfc 88F94C08 		.word	139262344
 7389 1e00 CFBEA6FC 		.word	-56181041
 7390 1e04 DE0985D9 		.word	-645592610
 7391 1e08 28B3FF7D 		.word	2113909544
 7392 1e0c 80AECE2F 		.word	802074240
 7393 1e10 B9E87847 		.word	1199106233
 7394 1e14 C4158A5D 		.word	1569330628
 7395 1e18 7EF7AB73 		.word	1940649854
 7396 1e1c B25579D5 		.word	-713468494
 7397 1e20 F1D4B531 		.word	834000113
 7398 1e24 9EA70D21 		.word	554543006
 7399 1e28 1C7AFA3C 		.word	1023048220
 7400 1e2c 4BF052AA 		.word	-1437405109
 7401 1e30 0BC227DC 		.word	-601374197
 7402 1e34 8920D1D4 		.word	-724492151
 7403 1e38 F141D102 		.word	47268337
 7404 1e3c 42EA148E 		.word	-1911231934
 7405 1e40 427089F2 		.word	-225873854
 7406 1e44 4503D5EE 		.word	-288029883
 7407 1e48 4A2C4043 		.word	1128279114
 7408 1e4c 1F33058D 		.word	-1929039073
 7409 1e50 21FBBDC8 		.word	-927073503
 7410 1e54 94C1D9C8 		.word	-925253228
 7411 1e58 58D1A42A 		.word	715444568
 7412 1e5c 371A7E59 		.word	1501436471
 7413 1e60 8CD60BCF 		.word	-821307764
 7414 1e64 1AEC2703 		.word	52947994
 7415 1e68 454902AB 		.word	-1425913531
 7416 1e6c DCE04B6D 		.word	1833689308
 7417 1e70 843EFEC9 		.word	-906084732
 7418 1e74 7A8D9C5B 		.word	1536986490
 7419 1e78 EA4D9B19 		.word	429608426
 7420 1e7c 36023FCA 		.word	-901840330
ARM GAS  /tmp/ccwGYw5D.s 			page 129


 7421 1e80 20BD7061 		.word	1634778400
 7422 1e84 B5102A59 		.word	1495929013
 7423 1e88 E75D3F6D 		.word	1832869351
 7424 1e8c F197A80E 		.word	245929969
 7425 1e90 E2ADB244 		.word	1152560610
 7426 1e94 F13F36A3 		.word	-1556725775
 7427 1e98 E4079C30 		.word	815532004
 7428 1e9c 7EFDE7BD 		.word	-1108869762
 7429 1ea0 2C43F5B8 		.word	-1191886036
 7430 1ea4 D2B66B51 		.word	1366013650
 7431 1ea8 4B4443E0 		.word	-532462517
 7432 1eac CBC10D21 		.word	554549707
 7433 1eb0 5A5BF9F8 		.word	-117875878
 7434 1eb4 6F1EB03D 		.word	1034952303
 7435 1eb8 98D17D0A 		.word	176017816
 7436 1ebc 0EAD23B6 		.word	-1239175922
 7437 1ec0 5BB6C760 		.word	1623701083
 7438 1ec4 75D65BA7 		.word	-1487153547
 7439 1ec8 89A2A423 		.word	597992073
 7440 1ecc 90558CAB 		.word	-1416866416
 7441 1ed0 9567B2D7 		.word	-676173931
 7442 1ed4 D00F22F8 		.word	-131985456
 7443 1ed8 7B13EC58 		.word	1491866491
 7444 1edc 462EAAD6 		.word	-693490106
 7445 1ee0 85BB3851 		.word	1362672517
 7446 1ee4 0BC0AB10 		.word	279691275
 7447 1ee8 5CA933D8 		.word	-667702948
 7448 1eec 21D1318C 		.word	-1942892255
 7449 1ef0 2EA30217 		.word	386048814
 7450 1ef4 0BF04FB2 		.word	-1303384053
 7451 1ef8 3A51CC2D 		.word	768364858
 7452 1efc E0621611 		.word	286679776
 7453 1f00 872BB4EF 		.word	-273405049
 7454 1f04 15401178 		.word	2014396437
 7455 1f08 FF4D6C1B 		.word	460082687
 7456 1f0c 705D9FBD 		.word	-1113629328
 7457 1f10 29C1D7A7 		.word	-1479032535
 7458 1f14 D7CCEC66 		.word	1726794967
 7459 1f18 F850B794 		.word	-1799925512
 7460 1f1c CBE13EDB 		.word	-616635957
 7461 1f20 CF3748F3 		.word	-213370929
 7462 1f24 B03D6FB2 		.word	-1301332560
 7463 1f28 4F8D57B9 		.word	-1185444529
 7464 1f2c 8BD1EEE7 		.word	-403779189
 7465 1f30 7D65567C 		.word	2086036861
 7466 1f34 93DF2C5D 		.word	1563221907
 7467 1f38 596A2052 		.word	1377856089
 7468 1f3c 42646A88 		.word	-2006293438
 7469 1f40 EA69B565 		.word	1706387946
 7470 1f44 FB4C233C 		.word	1008946427
 7471 1f48 C11921F7 		.word	-148825663
 7472 1f4c 41110120 		.word	536940865
 7473 1f50 9E615AA1 		.word	-1587912290
 7474 1f54 5DC8AD8B 		.word	-1951545251
 7475 1f58 BC178A01 		.word	25827260
 7476 1f5c EBF40CA7 		.word	-1492323093
 7477 1f60 656A4A8C 		.word	-1941280155
ARM GAS  /tmp/ccwGYw5D.s 			page 130


 7478 1f64 AE974F22 		.word	575641518
 7479 1f68 8F373401 		.word	20199311
 7480 1f6c 27CFE536 		.word	921030439
 7481 1f70 60097E4F 		.word	1333660000
 7482 1f74 9E603ABE 		.word	-1103470434
 7483 1f78 777B74D1 		.word	-780895369
 7484 1f7c AB7247AA 		.word	-1438158165
 7485 1f80 C00CA67A 		.word	2057702592
 7486 1f84 31616767 		.word	1734828337
 7487 1f88 5F116803 		.word	57151839
 7488 1f8c 616391C7 		.word	-946773151
 7489 1f90 5ABBC1BB 		.word	-1144931494
 7490 1f94 B48BD9DE 		.word	-556168268
 7491 1f98 74F9FA30 		.word	821754228
 7492 1f9c DC6D1A61 		.word	1629122012
 7493 1fa0 7AE45EC1 		.word	-1050745734
 7494 1fa4 BC8CE730 		.word	820481212
 7495 1fa8 A5960D4E 		.word	1309513381
 7496 1fac 8262892E 		.word	780755586
 7497 1fb0 88EDD93D 		.word	1037692296
 7498 1fb4 DF5AF336 		.word	921918175
 7499 1fb8 889C4216 		.word	373464200
 7500 1fbc F8FAFF5C 		.word	1560279800
 7501 1fc0 CD997A9B 		.word	-1686464051
 7502 1fc4 FF4CD5C0 		.word	-1059762945
 7503 1fc8 A1453C84 		.word	-2076424799
 7504 1fcc 9DB9F37B 		.word	2079570333
 7505 1fd0 E139C762 		.word	1657223649
 7506 1fd4 8F908A03 		.word	59412623
 7507 1fd8 4C99C17D 		.word	2109839692
 7508 1fdc 236B5A6E 		.word	1851419427
 7509 1fe0 77DBA50B 		.word	195418999
 7510 1fe4 4E458BEF 		.word	-276085426
 7511 1fe8 630DF6AC 		.word	-1393160861
 7512 1fec 7F80B8B7 		.word	-1212645249
 7513 1ff0 78836076 		.word	1986036600
 7514 1ff4 C6C091E5 		.word	-443432762
 7515 1ff8 CCAB2D24 		.word	606972876
 7516 1ffc 8D231A48 		.word	1209672589
 7517 2000 4AB3D035 		.word	902869834
 7518 2004 C07B41E3 		.word	-482247744
 7519 2008 A7C02783 		.word	-2094546777
 7520 200c 6B380B44 		.word	1141586027
 7521 2010 D16203AC 		.word	-1409064239
 7522 2014 2D26B78F 		.word	-1883822547
 7523 2018 43F9CDE0 		.word	-523372221
 7524 201c 4C11412C 		.word	742461772
 7525 2020 B1A095AD 		.word	-1382702927
 7526 2024 F1CEA52B 		.word	732286705
 7527 2028 6243D567 		.word	1742029666
 7528 202c A8379BC0 		.word	-1063569496
 7529 2030 C986E401 		.word	31753929
 7530 2034 D2CDD626 		.word	651611602
 7531 2038 9792FF42 		.word	1124045463
 7532 203c BF7A4720 		.word	541555391
 7533 2040 BF5DD618 		.word	416701887
 7534 2044 3C17752F 		.word	796202812
ARM GAS  /tmp/ccwGYw5D.s 			page 131


 7535 2048 D8DA9E33 		.word	866048728
 7536 204c 0E94BF77 		.word	2009043982
 7537 2050 1C00F1DC 		.word	-588185572
 7538 2054 6BD22270 		.word	1881330283
 7539 2058 B69673C7 		.word	-948726090
 7540 205c 9A4066AC 		.word	-1402584934
 7541 2060 C31C26C6 		.word	-970580797
 7542 2064 6FB30B8B 		.word	-1962167441
 7543 2068 907E0E19 		.word	420380304
 7544 206c C97B3F21 		.word	557808585
 7545 2070 106C5EA4 		.word	-1537315824
 7546 2074 BACE4165 		.word	1698811578
 7547 2078 852F12CC 		.word	-871223419
 7548 207c 75698ECE 		.word	-829527691
 7549 2080 D2670ABC 		.word	-1140168750
 7550 2084 411B120F 		.word	252844865
 7551 2088 8A244D44 		.word	1145906314
 7552 208c 0A76D462 		.word	1658091018
 7553 2090 37479B65 		.word	1704675127
 7554 2094 1D4F040E 		.word	235163421
 7555 2098 A8B40B25 		.word	621524136
 7556 209c 65E3FD08 		.word	150856549
 7557 20a0 87F28B84 		.word	-2071203193
 7558 20a4 DAC3EEAC 		.word	-1393638438
 7559 20a8 6E9D36D3 		.word	-751395474
 7560 20ac 8221A6C2 		.word	-1029299838
 7561 20b0 82944492 		.word	-1840999294
 7562 20b4 DCDF8235 		.word	897769436
 7563 20b8 D76C5D56 		.word	1448963287
 7564 20bc D22F7E2F 		.word	796798930
 7565 20c0 A70F77C3 		.word	-1015607385
 7566 20c4 DB924BAE 		.word	-1370778917
 7567 20c8 F9439037 		.word	932201465
 7568 20cc 5C8D5E09 		.word	157191516
 7569 20d0 71117617 		.word	393613681
 7570 20d4 9D4EF354 		.word	1425231517
 7571 20d8 AE027790 		.word	-1871248722
 7572 20dc 2EE95BC6 		.word	-967055058
 7573 20e0 400AFDF6 		.word	-151188928
 7574 20e4 03A35827 		.word	660120323
 7575 20e8 4B78CEBC 		.word	-1127319477
 7576 20ec E322D8E7 		.word	-405265693
 7577 20f0 BF67974F 		.word	1335322559
 7578 20f4 85F5E47A 		.word	2061825413
 7579 20f8 3A3B19D1 		.word	-786875590
 7580 20fc 478EFF4B 		.word	1275039303
 7581 2100 8014FF00 		.word	16716928
 7582 2104 1FD241CD 		.word	-851324385
 7583 2108 16DB5407 		.word	123001622
 7584 210c 7DFBB82A 		.word	716766077
 7585 2110 EAF3E0BB 		.word	-1142885398
 7586 2114 EFD281AC 		.word	-1400778001
 7587 2118 7D967257 		.word	1467127421
 7588 211c E64A4E3E 		.word	1045318374
 7589 2120 E603533C 		.word	1012073446
 7590 2124 6DF3187E 		.word	2115564397
 7591 2128 97232692 		.word	-1842994281
ARM GAS  /tmp/ccwGYw5D.s 			page 132


 7592 212c 4B99D93B 		.word	1004116299
 7593 2130 C0C32413 		.word	321176512
 7594 2134 260ED79E 		.word	-1630073306
 7595 2138 2860EC58 		.word	1491886120
 7596 213c FDAE8853 		.word	1401466621
 7597 2140 13775D5E 		.word	1583183635
 7598 2144 EB1713AD 		.word	-1391257621
 7599 2148 DA49DE75 		.word	1977502170
 7600 214c EE85B909 		.word	163153390
 7601 2150 61B24FC7 		.word	-951078303
 7602 2154 4FBCF532 		.word	854965327
 7603 2158 0EBE754F 		.word	1333116430
 7604 215c D108F95C 		.word	1559824593
 7605 2160 127B658E 		.word	-1905951982
 7606 2164 10350476 		.word	1979987216
 7607 2168 E6D96EB9 		.word	-1183917594
 7608 216c A521D4BF 		.word	-1076616795
 7609 2170 C2CC7089 		.word	-1989096254
 7610 2174 1FF5290E 		.word	237630751
 7611 2178 E20CF060 		.word	1626344674
 7612 217c 40BA98A6 		.word	-1499940288
 7613 2180 EC8F74EF 		.word	-277573652
 7614 2184 8616DB73 		.word	1943737990
 7615 2188 F92C9D7E 		.word	2124229881
 7616 218c A255E7E6 		.word	-421046878
 7617 2190 FF5E26CE 		.word	-836346113
 7618 2194 44650B63 		.word	1661691204
 7619 2198 8DADEB7A 		.word	2062265741
 7620 219c 8AEF42B1 		.word	-1321013366
 7621 21a0 0A77D517 		.word	399865610
 7622 21a4 9FAF31AD 		.word	-1389252705
 7623 21a8 2F41B32C 		.word	749945135
 7624 21ac 673BAF66 		.word	1722760039
 7625 21b0 DE5933DF 		.word	-550282786
 7626 21b4 1B0DD66B 		.word	1809190171
 7627 21b8 75505158 		.word	1481724021
 7628 21bc 966A89D1 		.word	-779523434
 7629 21c0 081CC433 		.word	868490248
 7630 21c4 AB5759EC 		.word	-329689173
 7631 21c8 E1E26854 		.word	1416159969
 7632 21cc AC94DE87 		.word	-2015456084
 7633 21d0 6C2F47AC 		.word	-1404620948
 7634 21d4 736B8118 		.word	411134835
 7635 21d8 39DA8179 		.word	2038553145
 7636 21dc 0B0E7B26 		.word	645598731
 7637 21e0 88B9628E 		.word	-1906132600
 7638 21e4 5D4E556E 		.word	1851084381
 7639 21e8 E7216D11 		.word	292364775
 7640 21ec 55C7DDD8 		.word	-656554155
 7641 21f0 996F2A3D 		.word	1026191257
 7642 21f4 F0FA1046 		.word	1175517936
 7643 21f8 939311A1 		.word	-1592683629
 7644 21fc 7A284EB5 		.word	-1253169030
 7645 2200 6B878A17 		.word	394954603
 7646 2204 B522010A 		.word	167846581
 7647 2208 B4045108 		.word	139527348
 7648 220c FF96FF51 		.word	1375704831
ARM GAS  /tmp/ccwGYw5D.s 			page 133


 7649 2210 769FF214 		.word	351444854
 7650 2214 AB310B05 		.word	84619691
 7651 2218 E6D4875F 		.word	1602737382
 7652 221c 8BB2AB84 		.word	-2069122421
 7653 2220 0A797082 		.word	-2106558198
 7654 2224 9F43EDD5 		.word	-705870945
 7655 2228 6BF4E385 		.word	-2048658325
 7656 222c 9DB56C2D 		.word	762099101
 7657 2230 12221E6C 		.word	1813914130
 7658 2234 1B5CF575 		.word	1979014171
 7659 2238 40566517 		.word	392517184
 7660 223c 676F43E5 		.word	-448565401
 7661 2240 D5E88622 		.word	579266773
 7662 2244 5E02F953 		.word	1408827998
 7663 2248 BE534486 		.word	-2042342466
 7664 224c B4953C35 		.word	893162932
 7665 2250 A0E308E4 		.word	-469179488
 7666 2254 BDF532D8 		.word	-667748931
 7667 2258 9EE99C5B 		.word	1537010078
 7668 225c 8BF60404 		.word	67434123
 7669 2260 E5E881A7 		.word	-1484658459
 7670 2264 DE3BD3CA 		.word	-892126242
 7671 2268 5B2F3C16 		.word	373043035
 7672 226c 1850DF3C 		.word	1021267992
 7673 2270 A3CA1901 		.word	18467491
 7674 2274 60695757 		.word	1465346400
 7675 2278 01C7C10A 		.word	180471553
 7676 227c DF63423A 		.word	977429471
 7677 2280 6D59EB9A 		.word	-1695852179
 7678 2284 CC5E96C2 		.word	-1030332724
 7679 2288 B4923C02 		.word	37524148
 7680 228c E703EA01 		.word	32113639
 7681 2290 6139012E 		.word	771832161
 7682 2294 B6B40447 		.word	1191490742
 7683 2298 67A35E90 		.word	-1872845977
 7684 229c 3FFDA80C 		.word	212401471
 7685 22a0 612B1B55 		.word	1427843937
 7686 22a4 423A5292 		.word	-1840104894
 7687 22a8 06CD0F39 		.word	957336838
 7688 22ac 9CA8B71E 		.word	515352732
 7689 22b0 3EA69203 		.word	59942462
 7690 22b4 BED2F1E7 		.word	-403582274
 7691 22b8 330CDB4D 		.word	1306201139
 7692 22bc 64A2DC96 		.word	-1763925404
 7693 22c0 AF107538 		.word	947196079
 7694 22c4 3AB43B20 		.word	540783674
 7695 22c8 016AA3A9 		.word	-1448908287
 7696 22cc A8EA6F84 		.word	-2073040216
 7697 22d0 7803952F 		.word	798294904
 7698 22d4 70573AD2 		.word	-767928464
 7699 22d8 DC59AD3A 		.word	984439260
 7700 22dc 12E26343 		.word	1130619410
 7701 22e0 476A2440 		.word	1076128327
 7702 22e4 C7A143CA 		.word	-901537337
 7703 22e8 4DD25DE5 		.word	-446836147
 7704 22ec D2B862B3 		.word	-1285375790
 7705 22f0 96AF8F5D 		.word	1569697686
ARM GAS  /tmp/ccwGYw5D.s 			page 134


 7706 22f4 0486B0F9 		.word	-105871868
 7707 22f8 C498BBD8 		.word	-658794300
 7708 22fc 5C110E84 		.word	-2079452836
 7709 2300 A7E82310 		.word	270788775
 7710 2304 E20522F1 		.word	-249428510
 7711 2308 0B7ADCD8 		.word	-656639477
 7712 230c CDA808C8 		.word	-938956595
 7713 2310 DF5D3A16 		.word	372923871
 7714 2314 72A292E2 		.word	-493706638
 7715 2318 D4D6DE30 		.word	819910356
 7716 231c BD6A0D5E 		.word	1577937597
 7717 2320 640FFC7C 		.word	2096893796
 7718 2324 C221A707 		.word	128393666
 7719 2328 88ED550E 		.word	240512392
 7720 232c 1DC0EE42 		.word	1122943005
 7721 2330 B29D1F1D 		.word	488611250
 7722 2334 F9BEA726 		.word	648527609
 7723 2338 5AA24529 		.word	692429402
 7724 233c F448EA7D 		.word	2112506100
 7725 2340 810A06E5 		.word	-452588927
 7726 2344 1C6FDFAB 		.word	-1411420388
 7727 2348 1556F9F8 		.word	-117877227
 7728 234c 729C9FE7 		.word	-408970126
 7729 2350 8B26AC06 		.word	111945355
 7730 2354 546CD3CF 		.word	-808227756
 7731 2358 D116FDEB 		.word	-335735087
 7732 235c BEA2C2AB 		.word	-1413307714
 7733 2360 C7EAE2D3 		.word	-740103481
 7734 2364 916FC68A 		.word	-1966706799
 7735 2368 6604DDD2 		.word	-757267354
 7736 236c 63BA106F 		.word	1863367267
 7737 2370 1BD38202 		.word	42128155
 7738 2374 77E39067 		.word	1737548663
 7739 2378 C1EF7E6C 		.word	1820258241
 7740 237c 9453A34E 		.word	1319326612
 7741 2380 9D306652 		.word	1382428829
 7742 2384 8D2F8AED 		.word	-309710963
 7743 2388 3E5A9481 		.word	-2120984002
 7744 238c C0C6510A 		.word	173131456
 7745 2390 C15D8C57 		.word	1468816833
 7746 2394 5AF4CACE 		.word	-825559974
 7747 2398 C3FF941C 		.word	479526851
 7748 239c 89E6763A 		.word	980870793
 7749 23a0 0F0D7B7D 		.word	2105216271
 7750 23a4 A4E8AC9A 		.word	-1699944284
 7751 23a8 5F4A588F 		.word	-1890039201
 7752 23ac 96CE3A96 		.word	-1774530922
 7753 23b0 BE7F694E 		.word	1315536830
 7754 23b4 720CA351 		.word	1369640050
 7755 23b8 64645E46 		.word	1180591204
 7756 23bc 0AA11282 		.word	-2112708342
 7757 23c0 AA8CABCF 		.word	-810840918
 7758 23c4 C3617CEF 		.word	-277061181
 7759 23c8 9023140E 		.word	236200848
 7760 23cc 848EEB18 		.word	418090628
 7761 23d0 CA33977E 		.word	2123838410
 7762 23d4 67FF1DCD 		.word	-853672089
ARM GAS  /tmp/ccwGYw5D.s 			page 135


 7763 23d8 64B19C59 		.word	1503441252
 7764 23dc 71AB7CAA 		.word	-1434670223
 7765 23e0 D17B83BC 		.word	-1132233775
 7766 23e4 7392FC02 		.word	50106995
 7767 23e8 D7F56AC3 		.word	-1016400425
 7768 23ec D00764C0 		.word	-1067186224
 7769 23f0 49DA23F4 		.word	-198976951
 7770 23f4 92126217 		.word	392303250
 7771 23f8 C31706FE 		.word	-33155133
 7772 23fc 7380E340 		.word	1088651379
 7773 2400 7C9BBFA7 		.word	-1480615044
 7774 2404 2408F8F4 		.word	-185071580
 7775 2408 D030BE3F 		.word	1069428944
 7776 240c 20235D36 		.word	912073504
 7777 2410 E39CCF97 		.word	-1748001565
 7778 2414 2053BEBF 		.word	-1078045920
 7779 2418 265505B3 		.word	-1291496154
 7780 241c 004760E3 		.word	-480229632
 7781 2420 C7C2C66C 		.word	1824965319
 7782 2424 1199CB4D 		.word	1305188625
 7783 2428 E6BE4CBA 		.word	-1169375514
 7784 242c 08376872 		.word	1919432456
 7785 2430 ECD97A63 		.word	1668995564
 7786 2434 34D4DEDC 		.word	-589376460
 7787 2438 5FE1DEA3 		.word	-1545674401
 7788 243c 77D64265 		.word	1698879095
 7789 2440 7A376C7B 		.word	2070689658
 7790 2444 D0B6323F 		.word	1060288208
 7791 2448 BE483490 		.word	-1875621698
 7792 244c 4738B06C 		.word	1823488071
 7793 2450 F78ADA20 		.word	551193335
 7794 2454 A8D3FDD6 		.word	-688008280
 7795 2458 216FBB09 		.word	163278625
 7796 245c EE4A53A6 		.word	-1504490770
 7797 2460 CFFA3510 		.word	271973071
 7798 2464 0D78A130 		.word	815888397
 7799 2468 E647CB9D 		.word	-1647622170
 7800 246c 335AE535 		.word	904223283
 7801 2470 93F347C4 		.word	-1001917549
 7802 2474 E10FA56E 		.word	1856311265
 7803 2478 22EF9ADC 		.word	-593826014
 7804 247c 2F67CBF3 		.word	-204773585
 7805 2480 83FD553B 		.word	995491203
 7806 2484 FE1937EB 		.word	-348710402
 7807 2488 10DD5D87 		.word	-2023891696
 7808 248c 6CA4D7E0 		.word	-522738580
 7809 2490 84A7CE05 		.word	97429380
 7810 2494 A99FAC33 		.word	866951081
 7811 2498 E770E8AA 		.word	-1427607321
 7812 249c 2EAAAF7C 		.word	2091887150
 7813 24a0 38B3531D 		.word	492024632
 7814 24a4 044D819B 		.word	-1686024956
 7815 24a8 C6E687EF 		.word	-276306234
 7816 24ac A0C0ACE0 		.word	-525549408
 7817 24b0 0F2B6711 		.word	291973903
 7818 24b4 08D193FB 		.word	-74198776
 7819 24b8 2E52BDB9 		.word	-1178774994
ARM GAS  /tmp/ccwGYw5D.s 			page 136


 7820 24bc C113AB0A 		.word	178983873
 7821 24c0 971268D2 		.word	-764931433
 7822 24c4 78E2CCDD 		.word	-573775240
 7823 24c8 6A5409B5 		.word	-1257679766
 7824 24cc B10E35CB 		.word	-885715279
 7825 24d0 F2AA6176 		.word	1986112242
 7826 24d4 7331C42D 		.word	767832435
 7827 24d8 E9127084 		.word	-2073029911
 7828 24dc 02A6914B 		.word	1267836418
 7829 24e0 CFDDF872 		.word	1928912335
 7830 24e4 9510FFDC 		.word	-587263851
 7831 24e8 F41A919A 		.word	-1701766412
 7832 24ec 1EF6EB08 		.word	149681694
 7833 24f0 0E4372C3 		.word	-1015921906
 7834 24f4 0A36F448 		.word	1223964170
 7835 24f8 AB1C3272 		.word	1915886763
 7836 24fc 534C5349 		.word	1230195795
 7837 2500 9D7E7BF0 		.word	-260342115
 7838 2504 717DDF83 		.word	-2082505359
 7839 2508 6F51CD13 		.word	332222831
 7840 250c A3EF78A4 		.word	-1535578205
 7841 2510 E37E046C 		.word	1812233955
 7842 2514 4B26EF78 		.word	2028938827
 7843 2518 EEC55AD6 		.word	-698694162
 7844 251c 4F6CF4CA 		.word	-889951153
 7845 2520 6682AA92 		.word	-1834319258
 7846 2524 770C4DA0 		.word	-1605563273
 7847 2528 BB843691 		.word	-1858698053
 7848 252c 6654F4ED 		.word	-302754714
 7849 2530 B0164BAE 		.word	-1370810704
 7850 2534 6851E656 		.word	1457934696
 7851 2538 0F77C604 		.word	80115471
 7852 253c 579ECE14 		.word	349085271
 7853 2540 918F5E96 		.word	-1772187759
 7854 2544 3E5E4499 		.word	-1723572674
 7855 2548 92240FCB 		.word	-888200046
 7856 254c BAA1ACD3 		.word	-743661126
 7857 2550 A0A0C890 		.word	-1865899872
 7858 2554 0FC71CD3 		.word	-753088753
 7859 2558 719A4C3E 		.word	1045207665
 7860 255c A508B71B 		.word	464980133
 7861 2560 7ADD8B55 		.word	1435229562
 7862 2564 699ECAD5 		.word	-708141463
 7863 2568 B1268A01 		.word	25831089
 7864 256c 08054A73 		.word	1934230792
 7865 2570 ECF19C4C 		.word	1285353964
 7866 2574 71AA93B0 		.word	-1332499855
 7867 2578 020130DA 		.word	-634388222
 7868 257c F226D1F9 		.word	-103733518
 7869 2580 3E56F9AF 		.word	-1342613954
 7870 2584 7ACA9B74 		.word	1956366970
 7871 2588 A01499B4 		.word	-1265036128
 7872 258c FE7A07DD 		.word	-586712322
 7873 2590 71165FBF 		.word	-1084287375
 7874 2594 11037AE2 		.word	-495320303
 7875 2598 69CC9E72 		.word	1923009641
 7876 259c B9FC7A80 		.word	-2139423559
ARM GAS  /tmp/ccwGYw5D.s 			page 137


 7877 25a0 778BB0C9 		.word	-911176841
 7878 25a4 37938A7F 		.word	2139788087
 7879 25a8 387E3C44 		.word	1144815160
 7880 25ac 85A7C386 		.word	-2033997947
 7881 25b0 BAD86F47 		.word	1198512314
 7882 25b4 59FAFA85 		.word	-2047149479
 7883 25b8 8CCD6865 		.word	1701367180
 7884 25bc D1DC1A75 		.word	1964694737
 7885 25c0 0D5C7110 		.word	275864589
 7886 25c4 B438EA8A 		.word	-1964361548
 7887 25c8 F797768F 		.word	-1888053257
 7888 25cc 71EA13D1 		.word	-787223951
 7889 25d0 6DF0FB93 		.word	-1812205459
 7890 25d4 14AB5E66 		.word	1717480212
 7891 25d8 3F743725 		.word	624391231
 7892 25dc 6844EC29 		.word	703349864
 7893 25e0 BCEB0BB5 		.word	-1257509956
 7894 25e4 9C71943D 		.word	1033138588
 7895 25e8 225450E4 		.word	-464497630
 7896 25ec BFE59E39 		.word	966714815
 7897 25f0 B1ED2D8D 		.word	-1926369871
 7898 25f4 3A5BCD90 		.word	-1865589958
 7899 25f8 7D07A492 		.word	-1834743939
 7900 25fc E37093FF 		.word	-7114525
 7901 2600 655BB7C6 		.word	-961062043
 7902 2604 9BD6A259 		.word	1503843995
 7903 2608 C5516626 		.word	644239813
 7904 260c D5F88841 		.word	1099495637
 7905 2610 D2D7E93D 		.word	1038735314
 7906 2614 3EF3A928 		.word	682226494
 7907 2618 1AD0A9A2 		.word	-1565929446
 7908 261c 8B477697 		.word	-1753856117
 7909 2620 C7F29A92 		.word	-1835339065
 7910 2624 2D625288 		.word	-2007866835
 7911 2628 2309694E 		.word	1315506467
 7912 262c 6D5D4F33 		.word	860839277
 7913 2630 E9519AA8 		.word	-1466281495
 7914 2634 E5C76CCE 		.word	-831731739
 7915 2638 FA822FAC 		.word	-1406172422
 7916 263c 3F31A674 		.word	1957048639
 7917 2640 9C075FB7 		.word	-1218508900
 7918 2644 DDDFF4B2 		.word	-1292574755
 7919 2648 BB6FE318 		.word	417558459
 7920 264c 957CB085 		.word	-2052031339
 7921 2650 DD36CDE7 		.word	-405981475
 7922 2654 F0FC6C1B 		.word	460127472
 7923 2658 3D86F40F 		.word	267683389
 7924 265c 15BE75AB 		.word	-1418346987
 7925 2660 B7C93F17 		.word	390056375
 7926 2664 C067B381 		.word	-2118948928
 7927 2668 D04F59D2 		.word	-765898800
 7928 266c 20740AB9 		.word	-1190497248
 7929 2670 361209C4 		.word	-1006038474
 7930 2674 03BFFD15 		.word	368951043
 7931 2678 F659440B 		.word	189028854
 7932 267c 2EACBE4E 		.word	1321118766
 7933 2680 532C9F5C 		.word	1553935443
ARM GAS  /tmp/ccwGYw5D.s 			page 138


 7934 2684 E75F6CEB 		.word	-345219097
 7935 2688 1194AE8E 		.word	-1901161455
 7936 268c 112052D2 		.word	-766369775
 7937 2690 D8C55AF9 		.word	-111491624
 7938 2694 337688C8 		.word	-930580941
 7939 2698 FCAF1B2C 		.word	740012028
 7940 269c 7B8899DF 		.word	-543586181
 7941 26a0 CBAE0A85 		.word	-2062897461
 7942 26a4 D2EE78BB 		.word	-1149702446
 7943 26a8 72A2D601 		.word	30843506
 7944 26ac 1B18499D 		.word	-1656154085
 7945 26b0 ACBCCDB1 		.word	-1311916884
 7946 26b4 11D58D97 		.word	-1752312559
 7947 26b8 58409F77 		.word	2006925400
 7948 26bc A740B027 		.word	665862311
 7949 26c0 B22E3BF7 		.word	-147116366
 7950 26c4 B75D4090 		.word	-1874829897
 7951 26c8 18211B8E 		.word	-1910824680
 7952 26cc 0885DFE0 		.word	-522222328
 7953 26d0 7E326259 		.word	1499607678
 7954 26d4 52711B50 		.word	1343975762
 7955 26d8 F5A3CFE4 		.word	-456154123
 7956 26dc 37DD93B3 		.word	-1282155209
 7957 26e0 6551D73F 		.word	1071075685
 7958 26e4 7B0E23A1 		.word	-1591538053
 7959 26e8 5435D3BC 		.word	-1127008940
 7960 26ec C24463D6 		.word	-698137406
 7961 26f0 22507B0F 		.word	259739682
 7962 26f4 BEF1366C 		.word	1815540158
 7963 26f8 193446D0 		.word	-800705511
 7964 26fc 128C5809 		.word	156797970
 7965 2700 3B1C6002 		.word	39853115
 7966 2704 3F0986E0 		.word	-528086721
 7967 2708 5F335CCF 		.word	-816041121
 7968 270c F85202FB 		.word	-83733768
 7969 2710 28FF4A89 		.word	-1991573720
 7970 2714 80F25C95 		.word	-1789070720
 7971 2718 8B649FDB 		.word	-610311029
 7972 271c A979C881 		.word	-2117568087
 7973 2720 516CF5C6 		.word	-956994479
 7974 2724 7C680E04 		.word	68053116
 7975 2728 8C61173F 		.word	1058496908
 7976 272c 6971D4FE 		.word	-19631767
 7977 2730 3B355990 		.word	-1873201861
 7978 2734 418AF844 		.word	1157139009
 7979 2738 C41BC15F 		.word	1606491076
 7980 273c F5480DFA 		.word	-99792651
 7981 2740 4D8E60E1 		.word	-513765811
 7982 2744 9D1C6EBC 		.word	-1133634403
 7983 2748 2C828235 		.word	897745452
 7984 274c 11DA0D01 		.word	17685009
 7985 2750 D7C27E15 		.word	360628951
 7986 2754 C1DDB7F6 		.word	-155722303
 7987 2758 D667A3B6 		.word	-1230805034
 7988 275c 56E1A08E 		.word	-1902059178
 7989 2760 B4B38323 		.word	595833780
 7990 2764 2FE054A3 		.word	-1554718673
ARM GAS  /tmp/ccwGYw5D.s 			page 139


 7991 2768 3CF5013F 		.word	1057092924
 7992 276c 946B9669 		.word	1771465620
 7993 2770 A53CE02D 		.word	769670309
 7994 2774 2B63F64F 		.word	1341547307
 7995 2778 ACB500FA 		.word	-100616788
 7996 277c 24B95A3F 		.word	1062910244
 7997 2780 FB9E7359 		.word	1500749563
 7998 2784 D9B07B33 		.word	863744217
 7999 2788 0DECEBE7 		.word	-403969011
 8000 278c F4B051C7 		.word	-950947596
 8001 2790 D1671A41 		.word	1092249553
 8002 2794 D62DA52D 		.word	765799894
 8003 2798 6E25742B 		.word	729032046
 8004 279c 8768C78B 		.word	-1949865849
 8005 27a0 53D2D382 		.word	-2100047277
 8006 27a4 723BBEA5 		.word	-1514259598
 8007 27a8 9F778DF5 		.word	-175278177
 8008 27ac A179F6A9 		.word	-1443464799
 8009 27b0 BB6767E1 		.word	-513316933
 8010 27b4 68C1CAA1 		.word	-1580547736
 8011 27b8 4FF3FC60 		.word	1627190095
 8012 27bc 90F186B3 		.word	-1283001968
 8013 27c0 C2CFED2F 		.word	804114370
 8014 27c4 35C1F331 		.word	838058293
 8015 27c8 0DAFF862 		.word	1660464909
 8016 27cc 62BF9653 		.word	1402388322
 8017 27d0 C28872E5 		.word	-445478718
 8018 27d4 EAB4029A 		.word	-1711098646
 8019 27d8 4D9C061B 		.word	453418061
 8020 27dc F760B44C 		.word	1286889719
 8021 27e0 EA95805B 		.word	1535153642
 8022 27e4 D3B467AE 		.word	-1368935213
 8023 27e8 0376C06F 		.word	1874884099
 8024 27ec 59F8BB92 		.word	-1833174951
 8025 27f0 65A114B6 		.word	-1240161947
 8026 27f4 665F47E1 		.word	-515416218
 8027 27f8 2352EF95 		.word	-1779477981
 8028 27fc 08D5C052 		.word	1388369160
 8029 2800 48983315 		.word	355702856
 8030 2804 0E211C23 		.word	589046030
 8031 2808 8D8C7770 		.word	1886882957
 8032 280c E8287AE8 		.word	-394647320
 8033 2810 70E15669 		.word	1767301488
 8034 2814 61E61D9D 		.word	-1658984863
 8035 2818 0B9CB02B 		.word	732994571
 8036 281c 38C9C34A 		.word	1254345016
 8037 2820 7D989869 		.word	1771608189
 8038 2824 5105BE19 		.word	431883601
 8039 2828 D6F409AE 		.word	-1375079210
 8040 282c C476238B 		.word	-1960610108
 8041 2830 3D933F1A 		.word	440374077
 8042 2834 65B7E01D 		.word	501266277
 8043 2838 F40597E3 		.word	-476641804
 8044 283c C7940D38 		.word	940414151
 8045 2840 752E5481 		.word	-2125189515
 8046 2844 AA55A301 		.word	27481514
 8047 2848 B7B901EE 		.word	-301876809
ARM GAS  /tmp/ccwGYw5D.s 			page 140


 8048 284c A124C796 		.word	-1765333855
 8049 2850 87704D62 		.word	1649242247
 8050 2854 77293A6B 		.word	1798973815
 8051 2858 AF3726DE 		.word	-567920721
 8052 285c 71E1E32C 		.word	753131889
 8053 2860 1ABCD5F5 		.word	-170542054
 8054 2864 49EBEFCF 		.word	-806360247
 8055 2868 B5E27727 		.word	662168245
 8056 286c 7E6055A6 		.word	-1504354178
 8057 2870 6C751395 		.word	-1793886868
 8058 2874 2FACEA4F 		.word	1340779567
 8059 2878 4D4E620B 		.word	190991949
 8060 287c 52D86C2E 		.word	778885202
 8061 2880 1DC3318C 		.word	-1942895843
 8062 2884 4B958536 		.word	914724171
 8063 2888 0C1AF25B 		.word	1542593036
 8064 288c 003D5368 		.word	1750285568
 8065 2890 C99EC775 		.word	1976016585
 8066 2894 6E62D70B 		.word	198664814
 8067 2898 549DC642 		.word	1120312660
 8068 289c 477517CA 		.word	-904432313
 8069 28a0 B2DBD2F6 		.word	-153953358
 8070 28a4 FFDA6ECC 		.word	-865150209
 8071 28a8 189D4A17 		.word	390765848
 8072 28ac BD8C0DFD 		.word	-49443651
 8073 28b0 E87845AA 		.word	-1438287640
 8074 28b4 93875E87 		.word	-2023848045
 8075 28b8 E62CAB9C 		.word	-1666503450
 8076 28bc 13A776A9 		.word	-1451841773
 8077 28c0 3D35FB93 		.word	-1812253379
 8078 28c4 1B1F650A 		.word	174399259
 8079 28c8 72FAFC57 		.word	1476196978
 8080 28cc 8BAB5CD7 		.word	-681792629
 8081 28d0 8152B131 		.word	833704577
 8082 28d4 A7CF88AA 		.word	-1433874521
 8083 28d8 99491F0A 		.word	169822617
 8084 28dc 17A72087 		.word	-2027903209
 8085 28e0 901B3E69 		.word	1765677968
 8086 28e4 378D3E8C 		.word	-1942057673
 8087 28e8 C3DFF616 		.word	385277891
 8088 28ec 0BDC45D3 		.word	-750396405
 8089 28f0 42872AB5 		.word	-1255504062
 8090 28f4 0AD0A88E 		.word	-1901539318
 8091 28f8 3C8969C7 		.word	-949384900
 8092 28fc 29EF1997 		.word	-1759908055
 8093 2900 0959E358 		.word	1491294473
 8094 2904 8DED0E82 		.word	-2112950899
 8095 2908 16C1DD33 		.word	870170902
 8096 290c DCD86693 		.word	-1821976356
 8097 2910 2650206E 		.word	1847611430
 8098 2914 D099F9D7 		.word	-671508016
 8099 2918 C10457E1 		.word	-514390847
 8100 291c 762907A5 		.word	-1526257290
 8101 2920 2E0BE7C4 		.word	-991491282
 8102 2924 EA372A00 		.word	2766826
 8103 2928 8AAA9068 		.word	1754311306
 8104 292c 57F6DC84 		.word	-2065893801
ARM GAS  /tmp/ccwGYw5D.s 			page 141


 8105 2930 5C2A5B64 		.word	1683696220
 8106 2934 18BF71CD 		.word	-848183528
 8107 2938 2577B7F7 		.word	-138971355
 8108 293c 9D9C3899 		.word	-1724343139
 8109 2940 4B7ADA7A 		.word	2061138507
 8110 2944 F2088C23 		.word	596379890
 8111 2948 669338FD 		.word	-46623898
 8112 294c 039DBE3A 		.word	985570563
 8113 2950 2C516F76 		.word	1987006764
 8114 2954 892E676B 		.word	1801924233
 8115 2958 E4822C20 		.word	539788004
 8116 295c AA0688A8 		.word	-1467480406
 8117 2960 4E1880D3 		.word	-746579890
 8118 2964 4A040266 		.word	1711408202
 8119 2968 858B6A12 		.word	308972421
 8120 296c C478CBA8 		.word	-1463060284
 8121 2970 174F84AD 		.word	-1383837929
 8122 2974 C070D679 		.word	2044096704
 8123 2978 FEDC3847 		.word	1194908926
 8124 297c FBBF4300 		.word	4440059
 8125 2980 2E19D536 		.word	919935278
 8126 2984 DCB5598D 		.word	-1923500580
 8127 2988 AFB29045 		.word	1167110831
 8128 298c D385F8AC 		.word	-1392998957
 8129 2990 81176011 		.word	291510145
 8130 2994 0A6D5683 		.word	-2091487990
 8131 2998 66486CBA 		.word	-1167308698
 8132 299c 01EFF352 		.word	1391718145
 8133 29a0 4DB6DC0E 		.word	249345613
 8134 29a4 2A738639 		.word	965112618
 8135 29a8 9F376880 		.word	-2140653665
 8136 29ac 232C480A 		.word	172502051
 8137 29b0 09F34070 		.word	1883304713
 8138 29b4 FAE5CB16 		.word	382461434
 8139 29b8 757EF29E 		.word	-1628275083
 8140 29bc 89BD9632 		.word	848739721
 8141 29c0 D7814D45 		.word	1162707415
 8142 29c4 89BA6A47 		.word	1198176905
 8143 29c8 3C9BEB51 		.word	1374395196
 8144 29cc EFE7AD9E 		.word	-1632770065
 8145 29d0 8679C581 		.word	-2117764730
 8146 29d4 CD219A61 		.word	1637491149
 8147 29d8 E971E5AE 		.word	-1360694807
 8148 29dc BFFE903B 		.word	999358143
 8149 29e0 CBF79654 		.word	1419179979
 8150 29e4 3E029393 		.word	-1819082178
 8151 29e8 C41BB57F 		.word	2142575556
 8152 29ec D841BE55 		.word	1438532056
 8153 29f0 CEB5BE99 		.word	-1715554866
 8154 29f4 48DDF103 		.word	66182472
 8155 29f8 180B819F 		.word	-1618932968
 8156 29fc 9D06886E 		.word	1854408349
 8157 2a00 DBA13EB4 		.word	-1270963749
 8158 2a04 11AB37CE 		.word	-835212527
 8159 2a08 92D25952 		.word	1381618322
 8160 2a0c A9F17F0A 		.word	176157097
 8161 2a10 86F1848F 		.word	-1887112826
ARM GAS  /tmp/ccwGYw5D.s 			page 142


 8162 2a14 21021B85 		.word	-2061827551
 8163 2a18 13ADFADE 		.word	-553997037
 8164 2a1c EA2B22A7 		.word	-1490932758
 8165 2a20 44910A2B 		.word	722112836
 8166 2a24 EC78ACA2 		.word	-1565755156
 8167 2a28 C559FAF2 		.word	-218474043
 8168 2a2c 5140025A 		.word	1510096977
 8169 2a30 38CE4761 		.word	1632095800
 8170 2a34 A5ECD191 		.word	-1848513371
 8171 2a38 90C62ABC 		.word	-1138047344
 8172 2a3c 23D594BE 		.word	-1097542365
 8173 2a40 E76C220B 		.word	186805479
 8174 2a44 5E94F472 		.word	1928631390
 8175 2a48 708B7E96 		.word	-1770091664
 8176 2a4c 47D7AFB8 		.word	-1196435641
 8177 2a50 3EC6A685 		.word	-2052667842
 8178 2a54 F146EAED 		.word	-303413519
 8179 2a58 66C7E89B 		.word	-1679243418
 8180 2a5c FEDE8277 		.word	2005065470
 8181 2a60 2686B33D 		.word	1035175462
 8182 2a64 A42A0D76 		.word	1980574372
 8183 2a68 D17AF676 		.word	1995864785
 8184 2a6c 87E70A46 		.word	1175119751
 8185 2a70 DB9C4954 		.word	1414110427
 8186 2a74 FC861B34 		.word	874219260
 8187 2a78 4B2E89A2 		.word	-1568068021
 8188 2a7c 67858303 		.word	58951015
 8189 2a80 0F1AEC79 		.word	2045516303
 8190 2a84 FDAE8D2D 		.word	764260093
 8191 2a88 979CB3CE 		.word	-827089769
 8192 2a8c FDD6BC3B 		.word	1002231549
 8193 2a90 951AF658 		.word	1492523669
 8194 2a94 FC5F57F5 		.word	-178823172
 8195 2a98 20B4F7AD 		.word	-1376275424
 8196 2a9c C486D9DB 		.word	-606501180
 8197 2aa0 B79EF315 		.word	368287415
 8198 2aa4 1488AA81 		.word	-2119530476
 8199 2aa8 6C978DB9 		.word	-1181902996
 8200 2aac F5FCE26E 		.word	1860369653
 8201 2ab0 7D712FCF 		.word	-818974339
 8202 2ab4 5D476554 		.word	1415923549
 8203 2ab8 D0BB6068 		.word	1751170000
 8204 2abc C4D3248E 		.word	-1910189116
 8205 2ac0 9073589A 		.word	-1705479280
 8206 2ac4 548E9D74 		.word	1956482644
 8207 2ac8 88C5BE0C 		.word	213829000
 8208 2acc 4F19BB12 		.word	314251599
 8209 2ad0 C68359B2 		.word	-1302756410
 8210 2ad4 A47DE046 		.word	1189117348
 8211 2ad8 C8AF7B40 		.word	1081847752
 8212 2adc C4991A54 		.word	1411029444
 8213 2ae0 42884C62 		.word	1649182786
 8214 2ae4 921624DB 		.word	-618391918
 8215 2ae8 FF056CD8 		.word	-664009217
 8216 2aec 2AC14460 		.word	1615118634
 8217 2af0 62CF7F4F 		.word	1333776226
 8218 2af4 B4149DC5 		.word	-979561292
ARM GAS  /tmp/ccwGYw5D.s 			page 143


 8219 2af8 D1357DF5 		.word	-176343599
 8220 2afc 492C09C0 		.word	-1073140663
 8221 2b00 EF612EDF 		.word	-550608401
 8222 2b04 C375CCD3 		.word	-741575229
 8223 2b08 CA351B2E 		.word	773535178
 8224 2b0c C841887E 		.word	2122858952
 8225 2b10 F4299F90 		.word	-1868617228
 8226 2b14 D1302DC6 		.word	-970116911
 8227 2b18 4D948672 		.word	1921422413
 8228 2b1c 3406E475 		.word	1977878068
 8229 2b20 D037C2BB 		.word	-1144899632
 8230 2b24 C51FD4E7 		.word	-405528635
 8231 2b28 C9014FEC 		.word	-330366519
 8232 2b2c F07B53C9 		.word	-917275664
 8233 2b30 34D52B28 		.word	673961268
 8234 2b34 161AC591 		.word	-1849353706
 8235 2b38 868584C7 		.word	-947616378
 8236 2b3c 58B67C5B 		.word	1534899800
 8237 2b40 D1EA288A 		.word	-1977029935
 8238 2b44 84704A96 		.word	-1773506428
 8239 2b48 F6473BFD 		.word	-46446602
 8240 2b4c 08C52D80 		.word	-2144484088
 8241 2b50 395B7E76 		.word	1987992377
 8242 2b54 D1BFE49A 		.word	-1696284719
 8243 2b58 A197F08D 		.word	-1913612383
 8244 2b5c BA3EE17A 		.word	2061582010
 8245 2b60 4E38DDEA 		.word	-354600882
 8246 2b64 F86E21FD 		.word	-48140552
 8247 2b68 06FFB2B6 		.word	-1229783290
 8248 2b6c D9A26103 		.word	56730329
 8249 2b70 F3B5CD4B 		.word	1271772659
 8250 2b74 78984B20 		.word	541825144
 8251 2b78 FDE3A8E2 		.word	-492248067
 8252 2b7c 74807D78 		.word	2021490804
 8253 2b80 1CBB7F75 		.word	1971305244
 8254 2b84 6B5DE2C5 		.word	-975020693
 8255 2b88 EB1D20CA 		.word	-903864853
 8256 2b8c B2DD7BE4 		.word	-461644366
 8257 2b90 FF33226D 		.word	1830958079
 8258 2b94 A3E9554A 		.word	1247144355
 8259 2b98 8484F29E 		.word	-1628273532
 8260 2b9c 1928225C 		.word	1545742361
 8261 2ba0 50523188 		.word	-2010033584
 8262 2ba4 854A3D77 		.word	2000505477
 8263 2ba8 C1977082 		.word	-2106550335
 8264 2bac 2B1AB221 		.word	565320235
 8265 2bb0 3FD3F5DE 		.word	-554314945
 8266 2bb4 A14E7CAB 		.word	-1417916767
 8267 2bb8 B0F2F0BA 		.word	-1158614352
 8268 2bbc AB375DE4 		.word	-463652949
 8269 2bc0 8A1C5128 		.word	676404362
 8270 2bc4 341EDFD2 		.word	-757129676
 8271 2bc8 D36CCABD 		.word	-1110807341
 8272 2bcc C829B2EB 		.word	-340645432
 8273 2bd0 A7397C62 		.word	1652308391
 8274 2bd4 A7718A57 		.word	1468690855
 8275 2bd8 D3B9DF84 		.word	-2065712685
ARM GAS  /tmp/ccwGYw5D.s 			page 144


 8276 2bdc 22C17BED 		.word	-310656734
 8277 2be0 61A5DE93 		.word	-1814125215
 8278 2be4 DFA622CF 		.word	-819812641
 8279 2be8 D10E8FD4 		.word	-728822063
 8280 2bec 8DF14354 		.word	1413738893
 8281 2bf0 E823AD5B 		.word	1538073576
 8282 2bf4 4061B8D8 		.word	-659005120
 8283 2bf8 276DCA45 		.word	1170894119
 8284 2bfc C97CC9AA 		.word	-1429635895
 8285 2c00 0AD06BA1 		.word	-1586769910
 8286 2c04 74EA54EB 		.word	-346756492
 8287 2c08 C1BCC0F5 		.word	-171918143
 8288 2c0c ADE939D8 		.word	-667293267
 8289 2c10 06FC9B1F 		.word	530316294
 8290 2c14 F1B72B09 		.word	153860081
 8291 2c18 4EDC6311 		.word	291757134
 8292 2c1c B3978F31 		.word	831494067
 8293 2c20 38710DC3 		.word	-1022529224
 8294 2c24 BEC5C0EC 		.word	-322910786
 8295 2c28 2002C3AB 		.word	-1413283296
 8296 2c2c 23DFE844 		.word	1156112163
 8297 2c30 063622B0 		.word	-1339935226
 8298 2c34 2F97B72B 		.word	733452079
 8299 2c38 4DFF849A 		.word	-1702559923
 8300 2c3c A1FA41FA 		.word	-96339295
 8301 2c40 692264A6 		.word	-1503387031
 8302 2c44 74D90244 		.word	1141037428
 8303 2c48 BD83B79B 		.word	-1682472003
 8304 2c4c CE1418C8 		.word	-937945906
 8305 2c50 0BE64179 		.word	2034361867
 8306 2c54 E4388D39 		.word	965556452
 8307 2c58 E2E9261D 		.word	489089506
 8308 2c5c 2C6BBB38 		.word	951806764
 8309 2c60 877F576A 		.word	1784119175
 8310 2c64 254A4EC6 		.word	-967947739
 8311 2c68 1CFE11DC 		.word	-602800612
 8312 2c6c 53D2528B 		.word	-1957506477
 8313 2c70 28072862 		.word	1646790440
 8314 2c74 BF6A33FF 		.word	-13407553
 8315 2c78 A50176CE 		.word	-831127131
 8316 2c7c 0509DD94 		.word	-1797453563
 8317 2c80 2AF993DE 		.word	-560727766
 8318 2c84 DCF76C15 		.word	359462876
 8319 2c88 15F3B589 		.word	-1984564459
 8320 2c8c CB3313A0 		.word	-1609354293
 8321 2c90 50E795C9 		.word	-912922800
 8322 2c94 F94D4002 		.word	37768697
 8323 2c98 E92A5CD2 		.word	-765711639
 8324 2c9c 67780792 		.word	-1845004185
 8325 2ca0 449DF30B 		.word	200514884
 8326 2ca4 011E47E2 		.word	-498655743
 8327 2ca8 D753BB96 		.word	-1766108201
 8328 2cac 20902C5F 		.word	1596756000
 8329 2cb0 8F3D9C5C 		.word	1553743247
 8330 2cb4 B3B7444C 		.word	1279571891
 8331 2cb8 51EB9BD2 		.word	-761533615
 8332 2cbc 8B42E881 		.word	-2115485045
ARM GAS  /tmp/ccwGYw5D.s 			page 145


 8333 2cc0 9F1977C4 		.word	-998827617
 8334 2cc4 BAC2D96D 		.word	1842987706
 8335 2cc8 D9CD5E6B 		.word	1801375193
 8336 2ccc EEEEB88C 		.word	-1934037266
 8337 2cd0 0EFD40EE 		.word	-297730802
 8338 2cd4 3FDBF78A 		.word	-1963467969
 8339 2cd8 B1A4BFDB 		.word	-608197455
 8340 2cdc 62AB941B 		.word	462728034
 8341 2ce0 43F147CE 		.word	-834145981
 8342 2ce4 B3D8F044 		.word	1156634803
 8343 2ce8 6361F463 		.word	1676960099
 8344 2cec FC23E651 		.word	1374036988
 8345 2cf0 839359CC 		.word	-866544765
 8346 2cf4 0F278FF1 		.word	-242276593
 8347 2cf8 EE905505 		.word	89493742
 8348 2cfc 288EA306 		.word	111382056
 8349 2d00 495B35B3 		.word	-1288348855
 8350 2d04 39015B2E 		.word	777716025
 8351 2d08 9BF9EBB4 		.word	-1259603557
 8352 2d0c 6065E220 		.word	551708000
 8353 2d10 DCF369D2 		.word	-764808228
 8354 2d14 6BFA8FC0 		.word	-1064306069
 8355 2d18 F8D4D983 		.word	-2082876168
 8356 2d1c 206CB3A7 		.word	-1481413600
 8357 2d20 30883E1B 		.word	457082928
 8358 2d24 3A5CD164 		.word	1691442234
 8359 2d28 0B9C9FA8 		.word	-1465934837
 8360 2d2c E1EAFCD5 		.word	-704845087
 8361 2d30 3069D1E2 		.word	-489592528
 8362 2d34 A2E4EECF 		.word	-806427486
 8363 2d38 202A82A2 		.word	-1568527840
 8364 2d3c B4C654BE 		.word	-1101740364
 8365 2d40 7C16918D 		.word	-1919871364
 8366 2d44 DFB3CDD6 		.word	-691162145
 8367 2d48 5E62A6E7 		.word	-408526242
 8368 2d4c 793F7C51 		.word	1367097209
 8369 2d50 F4C76A34 		.word	879413236
 8370 2d54 8F640571 		.word	1896178831
 8371 2d58 BB22E0EA 		.word	-354409797
 8372 2d5c ABA530BF 		.word	-1087330901
 8373 2d60 688A8293 		.word	-1820161432
 8374 2d64 BE85778E 		.word	-1904769602
 8375 2d68 36F03E7F 		.word	2134831158
 8376 2d6c 32C36151 		.word	1365361458
 8377 2d70 B2462159 		.word	1495353010
 8378 2d74 EB5F1BE1 		.word	-518299669
 8379 2d78 3AD13227 		.word	657641786
 8380 2d7c DE20C8D1 		.word	-775413538
 8381 2d80 63B33890 		.word	-1875332253
 8382 2d84 47133E04 		.word	71177031
 8383 2d88 19E5056B 		.word	1795548441
 8384 2d8c 541FC158 		.word	1489051476
 8385 2d90 D1CA2660 		.word	1613155025
 8386 2d94 BE7AE54F 		.word	1340439230
 8387 2d98 A38DA168 		.word	1755418019
 8388 2d9c ED7BD1B7 		.word	-1211008019
 8389 2da0 59259CE2 		.word	-493083303
ARM GAS  /tmp/ccwGYw5D.s 			page 146


 8390 2da4 9158CA44 		.word	1154111633
 8391 2da8 84FDFF5B 		.word	1543503236
 8392 2dac 76037A4F 		.word	1333396342
 8393 2db0 4869E474 		.word	1961126216
 8394 2db4 AFE48D49 		.word	1234035887
 8395 2db8 64CC1264 		.word	1678953572
 8396 2dbc 5EFD9739 		.word	966262110
 8397 2dc0 0715D68B 		.word	-1948904185
 8398 2dc4 824607F2 		.word	-234404222
 8399 2dc8 2A4DA634 		.word	883313962
 8400 2dcc D532E129 		.word	702624469
 8401 2dd0 E3158A8A 		.word	-1970661917
 8402 2dd4 B0DFEDFF 		.word	-1187920
 8403 2dd8 E8136C3C 		.word	1013715944
 8404 2ddc 2989EB0E 		.word	250317097
 8405 2de0 F859E2A7 		.word	-1478338056
 8406 2de4 3E9AB6E9 		.word	-373908930
 8407 2de8 677E3ED1 		.word	-784433561
 8408 2dec E6B71DCE 		.word	-836913178
 8409 2df0 85A61FAD 		.word	-1390434683
 8410 2df4 F6187327 		.word	661854454
 8411 2df8 EFB622C9 		.word	-920471825
 8412 2dfc F8168922 		.word	579409656
 8413 2e00 5BAB120A 		.word	168995675
 8414 2e04 5BE29A95 		.word	-1785011621
 8415 2e08 36C17B95 		.word	-1787051722
 8416 2e0c 1F1711CC 		.word	-871295201
 8417 2e10 0C2B6ED1 		.word	-781309172
 8418 2e14 9E425880 		.word	-2141699426
 8419 2e18 7E09936E 		.word	1855129982
 8420 2e1c 1DAD05EC 		.word	-335172323
 8421 2e20 08373FAC 		.word	-1405143288
 8422 2e24 BEA57B15 		.word	360424894
 8423 2e28 779DB530 		.word	817208695
 8424 2e2c 35F9BA31 		.word	834337077
 8425 2e30 E5348211 		.word	293745893
 8426 2e34 3752B547 		.word	1203065399
 8427 2e38 371BF17F 		.word	2146507575
 8428 2e3c 5641317D 		.word	2100379990
 8429 2e40 ABEFDFF6 		.word	-153096277
 8430 2e44 5CC0D97B 		.word	2077868124
 8431 2e48 0777B3DC 		.word	-592218361
 8432 2e4c 68222FBE 		.word	-1104207256
 8433 2e50 95BB383A 		.word	976796565
 8434 2e54 97AD3EE5 		.word	-448877161
 8435 2e58 A3D7C19B 		.word	-1681795165
 8436 2e5c FC66CEE9 		.word	-372349188
 8437 2e60 A1026A6F 		.word	1869218465
 8438 2e64 7615AA75 		.word	1974080886
 8439 2e68 ED00E660 		.word	1625686253
 8440 2e6c DF87C038 		.word	952141791
 8441 2e70 B9C1CD68 		.word	1758314937
 8442 2e74 347F94F8 		.word	-124485836
 8443 2e78 51062872 		.word	1915225681
 8444 2e7c 010B65D9 		.word	-647689471
 8445 2e80 607E055A 		.word	1510309472
 8446 2e84 4A4C4B50 		.word	1347112010
ARM GAS  /tmp/ccwGYw5D.s 			page 147


 8447 2e88 E425EF8D 		.word	-1913707036
 8448 2e8c BEC3CCCB 		.word	-875772994
 8449 2e90 BDCCC117 		.word	398576829
 8450 2e94 083235A6 		.word	-1506463224
 8451 2e98 A2B74E80 		.word	-2142324830
 8452 2e9c 9A69D614 		.word	349596058
 8453 2ea0 1A411FDB 		.word	-618708710
 8454 2ea4 15848A2C 		.word	747275285
 8455 2ea8 9C760DF8 		.word	-133335396
 8456 2eac 0BAFFB09 		.word	167489291
 8457 2eb0 AD772F1C 		.word	472872877
 8458 2eb4 90EFDEB4 		.word	-1260458096
 8459 2eb8 8A59430D 		.word	222517642
 8460 2ebc 41684C6F 		.word	1867278401
 8461 2ec0 964AC296 		.word	-1765651818
 8462 2ec4 4EDF2687 		.word	-2027495602
 8463 2ec8 A399BDFC 		.word	-54683229
 8464 2ecc 85BC4D53 		.word	1397603461
 8465 2ed0 0AE32A8B 		.word	-1960123638
 8466 2ed4 F26E463C 		.word	1011248882
 8467 2ed8 BB9A1861 		.word	1629002427
 8468 2edc FD50434C 		.word	1279480061
 8469 2ee0 DAB855F8 		.word	-128599846
 8470 2ee4 16F76729 		.word	694679318
 8471 2ee8 A1383C46 		.word	1178351777
 8472 2eec 9423A441 		.word	1101276052
 8473 2ef0 4333E9EA 		.word	-353815741
 8474 2ef4 13147EC3 		.word	-1015147501
 8475 2ef8 B518315A 		.word	1513167029
 8476 2efc 42D226A7 		.word	-1490628030
 8477 2f00 86108C94 		.word	-1802760058
 8478 2f04 EEB3E6DA 		.word	-622414866
 8479 2f08 E1A2D3CB 		.word	-875322655
 8480 2f0c 3D50DEF1 		.word	-237088707
 8481 2f10 F322D003 		.word	63972083
 8482 2f14 3FED353F 		.word	1060498751
 8483 2f18 92F36CCC 		.word	-865274990
 8484 2f1c 829E6313 		.word	325295746
 8485 2f20 86AAAFCD 		.word	-844125562
 8486 2f24 FB38C99A 		.word	-1698088709
 8487 2f28 58A25426 		.word	643080792
 8488 2f2c FBC55BF4 		.word	-195312133
 8489 2f30 29130545 		.word	1157960489
 8490 2f34 6EB26319 		.word	425964142
 8491 2f38 A335A3C1 		.word	-1046268509
 8492 2f3c E16593CA 		.word	-896309791
 8493 2f40 202D3B4C 		.word	1278946592
 8494 2f44 75AC1536 		.word	907390069
 8495 2f48 1B244E90 		.word	-1873927141
 8496 2f4c 17542A74 		.word	1948931095
 8497 2f50 1D079DCC 		.word	-862124259
 8498 2f54 C42185B0 		.word	-1333452348
 8499 2f58 A5720B97 		.word	-1760857435
 8500 2f5c 349CE29C 		.word	-1662870476
 8501 2f60 D60A3E6D 		.word	1832782550
 8502 2f64 731FC88C 		.word	-1933041805
 8503 2f68 4C43F8F2 		.word	-218610868
ARM GAS  /tmp/ccwGYw5D.s 			page 148


 8504 2f6c 9EDA6080 		.word	-2141136226
 8505 2f70 D962E86C 		.word	1827168985
 8506 2f74 1A1DED35 		.word	904731930
 8507 2f78 98AF42AB 		.word	-1421693032
 8508 2f7c D7ABC448 		.word	1220848599
 8509 2f80 5A48C740 		.word	1086802010
 8510 2f84 CCB021D2 		.word	-769543988
 8511 2f88 BF4D27E5 		.word	-450409025
 8512 2f8c BB55D4EA 		.word	-355183173
 8513 2f90 E8D26392 		.word	-1838951704
 8514 2f94 98763C49 		.word	1228699288
 8515 2f98 CB337BF6 		.word	-159697973
 8516 2f9c 327C0178 		.word	2013363250
 8517 2fa0 EEB50C93 		.word	-1827883538
 8518 2fa4 6957D3B9 		.word	-1177331863
 8519 2fa8 D28E400C 		.word	205557458
 8520 2fac 944ED1C0 		.word	-1060024684
 8521 2fb0 4D1A2F27 		.word	657398349
 8522 2fb4 55BFB7F8 		.word	-122175659
 8523 2fb8 041C5CDE 		.word	-564388860
 8524 2fbc 5404CD53 		.word	1405944916
 8525 2fc0 ACCC285D 		.word	1562954924
 8526 2fc4 FA85D5BC 		.word	-1126857222
 8527 2fc8 6E745B00 		.word	5993582
 8528 2fcc 563E825F 		.word	1602371158
 8529 2fd0 AA2301CD 		.word	-855563350
 8530 2fd4 A1F0797C 		.word	2088366241
 8531 2fd8 8FFAD7D3 		.word	-740820337
 8532 2fdc C165A4EE 		.word	-291215935
 8533 2fe0 3B805105 		.word	89227323
 8534 2fe4 9F651078 		.word	2014340511
 8535 2fe8 70AFE67C 		.word	2095492976
 8536 2fec 9F590B6C 		.word	1812683167
 8537 2ff0 708E2829 		.word	690523760
 8538 2ff4 70A79541 		.word	1100326768
 8539 2ff8 9391E67A 		.word	2061930899
 8540 2ffc A4426E1B 		.word	460210852
 8541 3000 C3047DF6 		.word	-159578941
 8542 3004 7C93802E 		.word	780178300
 8543 3008 11B8EE89 		.word	-1980844015
 8544 300c E22B311E 		.word	506538978
 8545 3010 604D5992 		.word	-1839641248
 8546 3014 87D8B556 		.word	1454758023
 8547 3018 3DBD7F18 		.word	411024701
 8548 301c 14DA2402 		.word	35969556
 8549 3020 6FE35F0C 		.word	207610735
 8550 3024 63B8AB87 		.word	-2018789277
 8551 3028 5F1FF54E 		.word	1324687199
 8552 302c 603C0F58 		.word	1477393504
 8553 3030 EC29B4B3 		.word	-1280038420
 8554 3034 BFB14F96 		.word	-1773162049
 8555 3038 33FFBF42 		.word	1119878963
 8556 303c F08E8360 		.word	1619234544
 8557 3040 99BE0B7E 		.word	2114698905
 8558 3044 F2B22C43 		.word	1127002866
 8559 3048 EE39AA04 		.word	78264814
 8560 304c F344DA7B 		.word	2077902067
ARM GAS  /tmp/ccwGYw5D.s 			page 149


 8561 3050 0339A99F 		.word	-1616299773
 8562 3054 7A7C495F 		.word	1598651514
 8563 3058 4316332D 		.word	758322755
 8564 305c 02B26E63 		.word	1668198914
 8565 3060 AA00AE93 		.word	-1817313110
 8566 3064 610EFDFC 		.word	-50524575
 8567 3068 2F6DAE31 		.word	833514799
 8568 306c FE005A87 		.word	-2024144642
 8569 3070 1C90939F 		.word	-1617719268
 8570 3074 A25836F4 		.word	-197764958
 8571 3078 AC8B2139 		.word	958499756
 8572 307c B6EE4488 		.word	-2008748362
 8573 3080 58AE3B6B 		.word	1799073368
 8574 3084 D2714111 		.word	289501650
 8575 3088 3E9FE317 		.word	400793406
 8576 308c 71DFB37D 		.word	2108940145
 8577 3090 DAEAA881 		.word	-2119636262
 8578 3094 7FBC37CD 		.word	-851985281
 8579 3098 9E78FB51 		.word	1375434910
 8580 309c DC83BA27 		.word	666534876
 8581 30a0 E54DF5FB 		.word	-67809819
 8582 30a4 9F43DFA7 		.word	-1478540385
 8583 30a8 711AFEB5 		.word	-1241638287
 8584 30ac 0B037772 		.word	1920402187
 8585 30b0 487A29DB 		.word	-618038712
 8586 30b4 358EEE42 		.word	1122930229
 8587 30b8 ABA4F387 		.word	-2014075733
 8588 30bc 342DB6AD 		.word	-1380569804
 8589 30c0 2ADF75A1 		.word	-1586110678
 8590 30c4 A268119B 		.word	-1693357918
 8591 30c8 E9328C61 		.word	1636578025
 8592 30cc 4FA02A08 		.word	137011279
 8593 30d0 16096B14 		.word	342558998
 8594 30d4 E7F2E4C9 		.word	-907742489
 8595 30d8 B2C8E775 		.word	1978124466
 8596 30dc 76FD90B9 		.word	-1181680266
 8597 30e0 1373F34D 		.word	1307800339
 8598 30e4 6BD92908 		.word	136960363
 8599 30e8 8907B4D0 		.word	-793507959
 8600 30ec 7955201C 		.word	471881081
 8601 30f0 11770878 		.word	2013820689
 8602 30f4 4AAEC966 		.word	1724493386
 8603 30f8 8DD1104D 		.word	1292947853
 8604 30fc F97E7081 		.word	-2123333895
 8605 3100 96FFD603 		.word	64421782
 8606 3104 B2CAD797 		.word	-1747465550
 8607 3108 6033840D 		.word	226767712
 8608 310c FC1B855B 		.word	1535450108
 8609 3110 4BDB42D0 		.word	-800924853
 8610 3114 C4238826 		.word	646456260
 8611 3118 5CAAA8D5 		.word	-710366628
 8612 311c EADA9237 		.word	932371178
 8613 3120 0BFA1A94 		.word	-1810171381
 8614 3124 65888152 		.word	1384220773
 8615 3128 7136D842 		.word	1121465969
 8616 312c 41E7E9F3 		.word	-202774719
 8617 3130 A7E0E45B 		.word	1541726375
ARM GAS  /tmp/ccwGYw5D.s 			page 150


 8618 3134 2725C817 		.word	398992679
 8619 3138 BA01B094 		.word	-1800404550
 8620 313c 5E63BD5A 		.word	1522361182
 8621 3140 7C92C40A 		.word	180654716
 8622 3144 4EA87F72 		.word	1920968782
 8623 3148 23CFC8A7 		.word	-1480011997
 8624 314c 356088E3 		.word	-477601739
 8625 3150 DFA0DC4A 		.word	1255973087
 8626 3154 EAD5BCA4 		.word	-1531128342
 8627 3158 10B66A84 		.word	-2073381360
 8628 315c 21BF9559 		.word	1502986017
 8629 3160 33FA9D82 		.word	-2103576013
 8630 3164 0B860FE9 		.word	-384858613
 8631 3168 8BC18F95 		.word	-1785740917
 8632 316c AEE2AFCA 		.word	-894442834
 8633 3170 66036378 		.word	2019754854
 8634 3174 44AF3B9B 		.word	-1690587324
 8635 3178 1E4183D4 		.word	-729595618
 8636 317c A22CC344 		.word	1153641634
 8637 3180 0CD80EE4 		.word	-468789236
 8638 3184 F1974AA7 		.word	-1488283663
 8639 3188 82CAD231 		.word	835897986
 8640 318c B18C935F 		.word	1603505329
 8641 3190 D96A2D7C 		.word	2083351257
 8642 3194 4B12F253 		.word	1408373323
 8643 3198 4CA58280 		.word	-2138921652
 8644 319c FB62211F 		.word	522281723
 8645 31a0 3E170B72 		.word	1913329470
 8646 31a4 C57C467E 		.word	2118548677
 8647 31a8 F9125F08 		.word	140448505
 8648 31ac 66A6E840 		.word	1088988774
 8649 31b0 DC659D4C 		.word	1285383644
 8650 31b4 0EC2EB8C 		.word	-1930706418
 8651 31b8 C907E9C3 		.word	-1008138295
 8652 31bc 2B401D8F 		.word	-1893908437
 8653 31c0 8A05C4FB 		.word	-71039606
 8654 31c4 9C2F594F 		.word	1331244956
 8655 31c8 70562F29 		.word	690968176
 8656 31cc B6145EB1 		.word	-1319234378
 8657 31d0 578C1DBC 		.word	-1138914217
 8658 31d4 37FE5CC5 		.word	-983761353
 8659 31d8 F9DB6E92 		.word	-1838228487
 8660 31dc 430F98B1 		.word	-1315434685
 8661 31e0 096BC732 		.word	851929865
 8662 31e4 093EC398 		.word	-1732035063
 8663 31e8 787FB033 		.word	867204984
 8664 31ec 9D27F51D 		.word	502605725
 8665 31f0 61B43B86 		.word	-2042907551
 8666 31f4 D4EA086F 		.word	1862855380
 8667 31f8 458E4437 		.word	927239749
 8668 31fc 9BAD2828 		.word	673754523
 8669 3200 C54ACFC4 		.word	-993047867
 8670 3204 C4226769 		.word	1768366788
 8671 3208 FB4AE6DD 		.word	-572110085
 8672 320c 3F1AACF5 		.word	-173270465
 8673 3210 320889E0 		.word	-527890382
 8674 3214 A2BA5105 		.word	89242274
ARM GAS  /tmp/ccwGYw5D.s 			page 151


 8675 3218 90B3145A 		.word	1511306128
 8676 321c 27F17349 		.word	1232335143
 8677 3220 5DAC2E32 		.word	841919581
 8678 3224 35839DE5 		.word	-442662091
 8679 3228 68B5D90B 		.word	198817128
 8680 322c F5EE075E 		.word	1577578229
 8681 3230 938358A2 		.word	-1571257453
 8682 3234 0F7236AB 		.word	-1422495217
 8683 3238 C78A16DB 		.word	-619279673
 8684 323c D08EAC6D 		.word	1840025296
 8685 3240 EF35A8ED 		.word	-307743249
 8686 3244 AE45B5F7 		.word	-139115090
 8687 3248 51ED101D 		.word	487648593
 8688 324c D213A14A 		.word	1252070354
 8689 3250 091B7413 		.word	326376201
 8690 3254 E0655A03 		.word	56255968
 8691 3258 4CDEB920 		.word	549051980
 8692 325c 59EF234B 		.word	1260646233
 8693 3260 41734C3C 		.word	1011643201
 8694 3264 80B62BE8 		.word	-399788416
 8695 3268 37BC583F 		.word	1062779959
 8696 326c 6D7057D4 		.word	-732467091
 8697 3270 E83E1EA5 		.word	-1524744472
 8698 3274 63785273 		.word	1934784611
 8699 3278 4E9AF4DD 		.word	-571172274
 8700 327c 3415D74D 		.word	1305941300
 8701 3280 D96C4795 		.word	-1790481191
 8702 3284 724694BF 		.word	-1080801678
 8703 3288 5B721AE3 		.word	-484806053
 8704 328c 2F078D64 		.word	1686964015
 8705 3290 E0674BFC 		.word	-62167072
 8706 3294 B8C84114 		.word	339855544
 8707 3298 BB4D4A2F 		.word	793398715
 8708 329c 007031FD 		.word	-47091712
 8709 32a0 E1D09589 		.word	-1986670367
 8710 32a4 F43FB41C 		.word	481574900
 8711 32a8 AA29F70E 		.word	251079082
 8712 32ac D195E676 		.word	1994823121
 8713 32b0 82897941 		.word	1098484098
 8714 32b4 76F9D5E0 		.word	-522847882
 8715 32b8 65F36995 		.word	-1788218523
 8716 32bc 8CC5FA14 		.word	351978892
 8717 32c0 18AE12F3 		.word	-216879592
 8718 32c4 65009AAD 		.word	-1382416283
 8719 32c8 C93FC9FC 		.word	-53919799
 8720 32cc C08D9551 		.word	1368755648
 8721 32d0 46287D8A 		.word	-1971509178
 8722 32d4 4042A1D9 		.word	-643743168
 8723 32d8 50DAAB36 		.word	917232208
 8724 32dc 51767CED 		.word	-310610351
 8725 32e0 BCABD425 		.word	634694588
 8726 32e4 1A0F2746 		.word	1176964890
 8727 32e8 EA13A1F1 		.word	-241101846
 8728 32ec F3D85D9B 		.word	-1688348429
 8729 32f0 2F95515B 		.word	1532073263
 8730 32f4 75B009C6 		.word	-972443531
 8731 32f8 539F2E4D 		.word	1294901075
ARM GAS  /tmp/ccwGYw5D.s 			page 152


 8732 32fc F7B7FCFE 		.word	-16992265
 8733 3300 859111BA 		.word	-1173253755
 8734 3304 7A4909BD 		.word	-1123464838
 8735 3308 A45BC4AA 		.word	-1429972060
 8736 330c 308C4ED5 		.word	-716272592
 8737 3310 791152AA 		.word	-1437462151
 8738 3314 DE792449 		.word	1227127262
 8739 3318 0BD8E087 		.word	-2015307765
 8740 331c 7EA50118 		.word	402761086
 8741 3320 B0FFAFFC 		.word	-55574608
 8742 3324 8D3F3D07 		.word	121454477
 8743 3328 405225AE 		.word	-1373285824
 8744 332c 0B3CF36C 		.word	1827879947
 8745 3330 BCDF5F5B 		.word	1533009852
 8746 3334 3B761D78 		.word	2015196731
 8747 3338 6410AD1E 		.word	514658404
 8748 333c 1EC18F9F 		.word	-1617968866
 8749 3340 4C54695E 		.word	1583961164
 8750 3344 71A18315 		.word	360948081
 8751 3348 13784BF0 		.word	-263489517
 8752 334c 6785AF0E 		.word	246383975
 8753 3350 324C8A27 		.word	663374898
 8754 3354 FDA8221E 		.word	505587965
 8755 3358 A9693A3D 		.word	1027238313
 8756 335c 9D80D3A9 		.word	-1445756771
 8757 3360 3BDAA259 		.word	1503844923
 8758 3364 2C2C6C93 		.word	-1821627348
 8759 3368 47C89518 		.word	412469319
 8760 336c F6BCCC38 		.word	952941814
 8761 3370 6908D563 		.word	1674905705
 8762 3374 4E24655E 		.word	1583686734
 8763 3378 F78E17E1 		.word	-518549769
 8764 337c AEB90630 		.word	805747118
 8765 3380 28ADEEC9 		.word	-907104984
 8766 3384 B0F2B10B 		.word	196211376
 8767 3388 BCDFF489 		.word	-1980440644
 8768 338c 5D63EF7E 		.word	2129617757
 8769 3390 3989CEB2 		.word	-1295087303
 8770 3394 FD574707 		.word	122116093
 8771 3398 61F7F845 		.word	1173944161
 8772 339c D75FB80A 		.word	179855319
 8773 33a0 49455B3E 		.word	1046168905
 8774 33a4 937CDAEC 		.word	-321225581
 8775 33a8 212F9297 		.word	-1752027359
 8776 33ac 5CBBE24B 		.word	1273150300
 8777 33b0 40803BB4 		.word	-1271168960
 8778 33b4 74121A26 		.word	639242868
 8779 33b8 C242E911 		.word	300499650
 8780 33bc 75D622B1 		.word	-1323116939
 8781 33c0 7AAEA566 		.word	1722134138
 8782 33c4 BE07E63B 		.word	1004931006
 8783 33c8 E3CBAD76 		.word	1991101411
 8784 33cc FA03E701 		.word	31917050
 8785 33d0 C5E5B64E 		.word	1320609221
 8786 33d4 014390AF 		.word	-1349500159
 8787 33d8 ECBA7D09 		.word	159234796
 8788 33dc C19D599F 		.word	-1621516863
ARM GAS  /tmp/ccwGYw5D.s 			page 153


 8789 33e0 ED50F20F 		.word	267538669
 8790 33e4 18B7756D 		.word	1836431128
 8791 33e8 DC209A34 		.word	882516188
 8792 33ec 7415B98E 		.word	-1900472972
 8793 33f0 A327B210 		.word	280111011
 8794 33f4 A4055642 		.word	1112933796
 8795 33f8 784B298A 		.word	-1977005192
 8796 33fc E028557D 		.word	2102733024
 8797 3400 EF6DC220 		.word	549613039
 8798 3404 668FF5F0 		.word	-252342426
 8799 3408 1E2D2B58 		.word	1479224606
 8800 340c EA855502 		.word	39159274
 8801 3410 8138CE01 		.word	30292097
 8802 3414 9BD7E7FB 		.word	-68692069
 8803 3418 30173F30 		.word	809441072
 8804 341c 01EACC28 		.word	684517889
 8805 3420 A54B6479 		.word	2036616101
 8806 3424 D1BCDAD1 		.word	-774193967
 8807 3428 B8F0FF06 		.word	117436600
 8808 342c E843C61F 		.word	533087208
 8809 3430 7BE1B366 		.word	1723064699
 8810 3434 FC760AA6 		.word	-1509263620
 8811 3438 BF13D0A1 		.word	-1580198977
 8812 343c 48AF8BC1 		.word	-1047810232
 8813 3440 6D21C45D 		.word	1573134701
 8814 3444 C838E634 		.word	887503048
 8815 3448 AC426120 		.word	543244972
 8816 344c 6710C000 		.word	12587111
 8817 3450 4A06F595 		.word	-1779104182
 8818 3454 71A153D4 		.word	-732716687
 8819 3458 6B59A9B7 		.word	-1213638293
 8820 345c 9D80EF9D 		.word	-1645248355
 8821 3460 2C8DAB67 		.word	1739296044
 8822 3464 2E64E841 		.word	1105749038
 8823 3468 B6A23762 		.word	1647813302
 8824 346c 330424B4 		.word	-1272708045
 8825 3470 8B21C464 		.word	1690575243
 8826 3474 6D6A507D 		.word	2102422125
 8827 3478 E58C8068 		.word	1753255141
 8828 347c B0F85703 		.word	56096944
 8829 3480 88CCD24C 		.word	1288883336
 8830 3484 64BE9D8E 		.word	-1902264732
 8831 3488 9DF3B8F0 		.word	-256314467
 8832 348c 8DC261CC 		.word	-866008435
 8833 3490 C8A030CD 		.word	-852451128
 8834 3494 7498304A 		.word	1244698740
 8835 3498 8798481B 		.word	457742471
 8836 349c DD1AA0E4 		.word	-459269411
 8837 34a0 F9D87CF5 		.word	-176367367
 8838 34a4 ACEED12E 		.word	785510060
 8839 34a8 484C59BD 		.word	-1118221240
 8840 34ac 3E7D761B 		.word	460750142
 8841 34b0 87F7D27B 		.word	2077423495
 8842 34b4 715C29A7 		.word	-1490461583
 8843 34b8 30CC10CE 		.word	-837759952
 8844 34bc 797D6D46 		.word	1181580665
 8845 34c0 C7A2AD9D 		.word	-1649564985
ARM GAS  /tmp/ccwGYw5D.s 			page 154


 8846 34c4 9218D347 		.word	1205016722
 8847 34c8 7DA29A8F 		.word	-1885691267
 8848 34cc C3A6A04F 		.word	1335928515
 8849 34d0 E1590A82 		.word	-2113250847
 8850 34d4 28FDE490 		.word	-1864041176
 8851 34d8 1AAD1E45 		.word	1159638298
 8852 34dc 22A572C6 		.word	-965565150
 8853 34e0 55B6865D 		.word	1569109589
 8854 34e4 C87C6030 		.word	811629768
 8855 34e8 F14AADF9 		.word	-106083599
 8856 34ec 3B5D23F0 		.word	-266117829
 8857 34f0 A6721157 		.word	1460761254
 8858 34f4 8086A099 		.word	-1717533056
 8859 34f8 1375A6F2 		.word	-223972077
 8860 34fc FA643D5E 		.word	1581081850
 8861 3500 16443B9B 		.word	-1690614762
 8862 3504 C71064AA 		.word	-1436282681
 8863 3508 996DB2EA 		.word	-357405287
 8864 350c 85CF8FCD 		.word	-846213243
 8865 3510 746A65DB 		.word	-614110604
 8866 3514 4AF7BF5E 		.word	1589638986
 8867 3518 FC428EEB 		.word	-342998276
 8868 351c 957A8A6C 		.word	1821014677
 8869 3520 BD632AB0 		.word	-1339399235
 8870 3524 A70BC610 		.word	281414567
 8871 3528 47008F8B 		.word	-1953562553
 8872 352c 03232F6B 		.word	1798251267
 8873 3530 B0902D31 		.word	825069744
 8874 3534 38376C8C 		.word	-1939065032
 8875 3538 91CA82AD 		.word	-1383937391
 8876 353c 22E48A34 		.word	881517602
 8877 3540 FBA2CD5C 		.word	1556980475
 8878 3544 6346477F 		.word	2135377507
 8879 3548 D226078E 		.word	-1912133934
 8880 354c A1CAAC22 		.word	581749409
 8881 3550 201F2B49 		.word	1227562784
 8882 3554 82F7AD85 		.word	-2052196478
 8883 3558 2E2DEFD9 		.word	-638636754
 8884 355c E04D07C1 		.word	-1056485920
 8885 3560 B3659AAE 		.word	-1365613133
 8886 3564 44CEF3FC 		.word	-51130812
 8887 3568 1B15D705 		.word	97981723
 8888 356c ACE471FD 		.word	-42867540
 8889 3570 88976ACE 		.word	-831875192
 8890 3574 501F71D4 		.word	-730783920
 8891 3578 FC4FE5C9 		.word	-907718660
 8892 357c DBFBADFB 		.word	-72483877
 8893 3580 6393A920 		.word	547984227
 8894 3584 CDF11317 		.word	387183053
 8895 3588 7527F26C 		.word	1827809141
 8896 358c 8F6515B9 		.word	-1189780081
 8897 3590 B259D324 		.word	617830834
 8898 3594 CD758196 		.word	-1769900595
 8899 3598 CD6F7183 		.word	-2089717811
 8900 359c B476F9B7 		.word	-1208387916
 8901 35a0 74BF6D5D 		.word	1567473524
 8902 35a4 4DE25857 		.word	1465442893
ARM GAS  /tmp/ccwGYw5D.s 			page 155


 8903 35a8 36AFC371 		.word	1908649782
 8904 35ac FDBA238D 		.word	-1927038211
 8905 35b0 E3DF4302 		.word	38002659
 8906 35b4 6077F448 		.word	1223980896
 8907 35b8 05C8FCCA 		.word	-889403387
 8908 35bc 2E1BD4F4 		.word	-187426002
 8909 35c0 8DD4ABFD 		.word	-39070579
 8910 35c4 28CFF151 		.word	1374801704
 8911 35c8 A478C032 		.word	851474596
 8912 35cc 36BE81CE 		.word	-830357962
 8913 35d0 E9467111 		.word	292636393
 8914 35d4 7429CE6A 		.word	1791895924
 8915 35d8 100F16E0 		.word	-535425264
 8916 35dc EA240818 		.word	403186922
 8917 35e0 5883E566 		.word	1726317400
 8918 35e4 8B698703 		.word	59206027
 8919 35e8 58A36CCE 		.word	-831741096
 8920 35ec 52875663 		.word	1666615122
 8921 35f0 C5E6415E 		.word	1581377221
 8922 35f4 340E3882 		.word	-2110255564
 8923 35f8 256DCF83 		.word	-2083558107
 8924 35fc 39F6E567 		.word	1743124025
 8925 3600 EF9948CF 		.word	-817325585
 8926 3604 8DCB9CF8 		.word	-123942003
 8927 3608 C044BB9E 		.word	-1631894336
 8928 360c F0159094 		.word	-1802496528
 8929 3610 C98E59B2 		.word	-1302753591
 8930 3614 76926F54 		.word	1416598134
 8931 3618 C61FC104 		.word	79765446
 8932 361c 9A78EF9F 		.word	-1611695974
 8933 3620 71A0D253 		.word	1406312561
 8934 3624 CF7E366D 		.word	1832287951
 8935 3628 099B51A4 		.word	-1538155767
 8936 362c 7F1A0EB1 		.word	-1324475777
 8937 3630 EF2E1E61 		.word	1629368047
 8938 3634 B03F6BCA 		.word	-898941008
 8939 3638 204E9CA9 		.word	-1449374176
 8940 363c 81C180BC 		.word	-1132412543
 8941 3640 E682EBE5 		.word	-437550362
 8942 3644 F8362597 		.word	-1759168776
 8943 3648 20B96CF5 		.word	-177424096
 8944 364c C74F481A 		.word	440946631
 8945 3650 5EDAB550 		.word	1354095198
 8946 3654 71218EC7 		.word	-946986639
 8947 3658 10DF8C9F 		.word	-1618157808
 8948 365c 620E2749 		.word	1227296354
 8949 3660 AD506BEA 		.word	-362065747
 8950 3664 BBB7391A 		.word	439990203
 8951 3668 FC8F38A2 		.word	-1573351428
 8952 366c C184029A 		.word	-1711110975
 8953 3670 7B190781 		.word	-2130241157
 8954 3674 17EB0354 		.word	1409542935
 8955 3678 7F2F3761 		.word	1631006591
 8956 367c F952EED2 		.word	-756133127
 8957 3680 2A36E088 		.word	-1998571990
 8958 3684 85D27CD3 		.word	-746794363
 8959 3688 4DD9A58F 		.word	-1884956339
ARM GAS  /tmp/ccwGYw5D.s 			page 156


 8960 368c A7A82F44 		.word	1143974055
 8961 3690 26A534A4 		.word	-1540053722
 8962 3694 E536F8AF 		.word	-1342687515
 8963 3698 33B7ABE5 		.word	-441731277
 8964 369c BE78B4DF 		.word	-541820738
 8965 36a0 E6ED3E67 		.word	1732177382
 8966 36a4 E71C1FA9 		.word	-1457578777
 8967 36a8 042F5B2B 		.word	727396100
 8968 36ac D40A39A5 		.word	-1522988332
 8969 36b0 2FDA3055 		.word	1429264943
 8970 36b4 BFF7665E 		.word	1583806399
 8971 36b8 3A47DF08 		.word	148850490
 8972 36bc B440A1D9 		.word	-643743564
 8973 36c0 98A48E6E 		.word	1854842008
 8974 36c4 B521020E 		.word	235020725
 8975 36c8 09EE6335 		.word	895741449
 8976 36cc 29783462 		.word	1647605801
 8977 36d0 DE2A5D33 		.word	861743838
 8978 36d4 91836BE0 		.word	-529824879
 8979 36d8 1A4B3F62 		.word	1648315162
 8980 36dc 8D050C76 		.word	1980499341
 8981 36e0 79AA98C1 		.word	-1046959495
 8982 36e4 8CB5890B 		.word	193574284
 8983 36e8 7FBA7AF0 		.word	-260392321
 8984 36ec D29048F7 		.word	-146239278
 8985 36f0 6A55E2FD 		.word	-35498646
 8986 36f4 1041204E 		.word	1310736656
 8987 36f8 0904198F 		.word	-1894185975
 8988 36fc 2D984171 		.word	1900124205
 8989 3700 450F4B4D 		.word	1296764741
 8990 3704 330E0A6F 		.word	1862929971
 8991 3708 E1942A39 		.word	959091937
 8992 370c 380B28D9 		.word	-651687112
 8993 3710 5E1DC6B3 		.word	-1278861986
 8994 3714 C624F33A 		.word	989013190
 8995 3718 474ED589 		.word	-1982509497
 8996 371c CED1F93A 		.word	989450702
 8997 3720 71039320 		.word	546505585
 8998 3724 81798FFD 		.word	-40928895
 8999 3728 9770C121 		.word	566325399
 9000 372c 4C66A2ED 		.word	-308124084
 9001 3730 9B3042DC 		.word	-599641957
 9002 3734 DC45950E 		.word	244663772
 9003 3738 D67D9573 		.word	1939176918
 9004 373c C315F8B1 		.word	-1309141565
 9005 3740 4AC4FE89 		.word	-1979792310
 9006 3744 8EA7FA84 		.word	-2063947890
 9007 3748 AF4CAA3C 		.word	1017793711
 9008 374c 47AEC2C8 		.word	-926765497
 9009 3750 24A6B6C1 		.word	-1044994524
 9010 3754 7D801C69 		.word	1763475581
 9011 3758 52F04315 		.word	356773970
 9012 375c 14ED1AA4 		.word	-1541739244
 9013 3760 04FE5F7D 		.word	2103442948
 9014 3764 99534342 		.word	1111708569
 9015 3768 206E5B62 		.word	1650159136
 9016 376c DFB2AC8B 		.word	-1951616289
ARM GAS  /tmp/ccwGYw5D.s 			page 157


 9017 3770 75778187 		.word	-2021558411
 9018 3774 BE60D685 		.word	-2049548098
 9019 3778 EF60FB86 		.word	-2030346001
 9020 377c DDC1E9D6 		.word	-689323555
 9021 3780 643285C6 		.word	-964349340
 9022 3784 7EE9A23A 		.word	983755134
 9023 3788 0B4A30E2 		.word	-500151797
 9024 378c B7331577 		.word	1997878199
 9025 3790 BEE9EAB8 		.word	-1192564290
 9026 3794 B72B911B 		.word	462498743
 9027 3798 C2F89BAE 		.word	-1365509950
 9028 379c 106E9C9C 		.word	-1667469808
 9029 37a0 4CB730E0 		.word	-533678260
 9030 37a4 599A30A2 		.word	-1573873063
 9031 37a8 901E636A 		.word	1784880784
 9032 37ac 4D49D74E 		.word	1322731853
 9033 37b0 F2799BA4 		.word	-1533314574
 9034 37b4 234BF489 		.word	-1980478685
 9035 37b8 B661FA40 		.word	1090150838
 9036 37bc 96D56B56 		.word	1449907606
 9037 37c0 F36180C1 		.word	-1048550925
 9038 37c4 18016C06 		.word	107741464
 9039 37c8 70FC837C 		.word	2089024624
 9040 37cc D3250B19 		.word	420160979
 9041 37d0 45322727 		.word	656880197
 9042 37d4 E0C85FF0 		.word	-262158112
 9043 37d8 5E3425F5 		.word	-182111138
 9044 37dc 90732CCF 		.word	-819170416
 9045 37e0 CF30EB10 		.word	283848911
 9046 37e4 B4CE9BA0 		.word	-1600401740
 9047 37e8 3A70770D 		.word	225931322
 9048 37ec BAEBD2CF 		.word	-808260678
 9049 37f0 55F20F15 		.word	353366613
 9050 37f4 3AC442E8 		.word	-398277574
 9051 37f8 7909A28A 		.word	-1969092231
 9052 37fc 5517F502 		.word	49616725
 9053 3800 077DDBAD 		.word	-1378124537
 9054 3804 94F76E39 		.word	963573652
 9055 3808 00554524 		.word	608523520
 9056 380c 42C74F0B 		.word	189777730
 9057 3810 CEA38AC7 		.word	-947215410
 9058 3814 AC8EFFFA 		.word	-83915092
 9059 3818 7DD9D4E8 		.word	-388703875
 9060 381c A5ADE914 		.word	350858661
 9061 3820 E279702F 		.word	795900386
 9062 3824 A180A4DA 		.word	-626753375
 9063 3828 0E80B0E4 		.word	-458194930
 9064 382c CDA3BA45 		.word	1169859533
 9065 3830 7D153878 		.word	2016941437
 9066 3834 2D5E7601 		.word	24534573
 9067 3838 E89A9D8E 		.word	-1902273816
 9068 383c AB4FADA0 		.word	-1599254613
 9069 3840 1836654A 		.word	1248146968
 9070 3844 2176FB0B 		.word	201029153
 9071 3848 5FAAEA31 		.word	837462623
 9072 384c 3C817218 		.word	410157372
 9073 3850 5E9D9444 		.word	1150590302
ARM GAS  /tmp/ccwGYw5D.s 			page 158


 9074 3854 37E75315 		.word	357820215
 9075 3858 1EED566E 		.word	1851190558
 9076 385c B830D5BC 		.word	-1126879048
 9077 3860 7BC4E932 		.word	854180987
 9078 3864 53E89B16 		.word	379316307
 9079 3868 AB5900B5 		.word	-1258268245
 9080 386c FE7627DC 		.word	-601393410
 9081 3870 B4FB2B19 		.word	422312884
 9082 3874 6197BACD 		.word	-843409567
 9083 3878 1D347969 		.word	1769550877
 9084 387c CF839290 		.word	-1869446193
 9085 3880 131AE876 		.word	1994922515
 9086 3884 2403B067 		.word	1739588388
 9087 3888 39121762 		.word	1645679161
 9088 388c 991AEE9B 		.word	-1678894439
 9089 3890 D6192ED3 		.word	-751953450
 9090 3894 1B36ED08 		.word	149763611
 9091 3898 9A54E1AC 		.word	-1394518886
 9092 389c C9B7EE35 		.word	904837065
 9093 38a0 DC5B4E7E 		.word	2119064540
 9094 38a4 5AAE8012 		.word	310423130
 9095 38a8 6EECCEB6 		.word	-1227953042
 9096 38ac D32CCD2D 		.word	768421075
 9097 38b0 C16B266E 		.word	1848011713
 9098 38b4 4C22E452 		.word	1390682700
 9099 38b8 64E88A44 		.word	1149954148
 9100 38bc F42C8B9A 		.word	-1702155020
 9101 38c0 593BD009 		.word	164641625
 9102 38c4 F21B47F6 		.word	-163111950
 9103 38c8 ABF25AB6 		.word	-1235553621
 9104 38cc A3620EC9 		.word	-921804125
 9105 38d0 C9EED5EB 		.word	-338301239
 9106 38d4 68F17FFF 		.word	-8392344
 9107 38d8 791349D4 		.word	-733408391
 9108 38dc F460DB6B 		.word	1809539316
 9109 38e0 30BC558A 		.word	-1974092752
 9110 38e4 BCFEDADA 		.word	-623182148
 9111 38e8 E07F0910 		.word	269058016
 9112 38ec 16AD9EC7 		.word	-945902314
 9113 38f0 DD3B1E4C 		.word	1277049821
 9114 38f4 4197E142 		.word	1122080577
 9115 38f8 A908BA94 		.word	-1799747415
 9116 38fc FD3CEC01 		.word	32259325
 9117 3900 C28594DC 		.word	-594246206
 9118 3904 EB7762BA 		.word	-1167951893
 9119 3908 C710FB22 		.word	586879175
 9120 390c 799ACC48 		.word	1221368441
 9121 3910 8A8DA270 		.word	1889701258
 9122 3914 0FD6614F 		.word	1331811855
 9123 3918 F6645447 		.word	1196713206
 9124 391c C0B1ACD1 		.word	-777211456
 9125 3920 1266F326 		.word	653485586
 9126 3924 B10269D2 		.word	-764869967
 9127 3928 8B8D61E0 		.word	-530477685
 9128 392c 4EA4C359 		.word	1505993806
 9129 3930 EE578330 		.word	813914094
 9130 3934 13A8F84D 		.word	1308141587
ARM GAS  /tmp/ccwGYw5D.s 			page 159


 9131 3938 C2265640 		.word	1079387842
 9132 393c 9D07CD7D 		.word	2110588829
 9133 3940 484B5AF0 		.word	-262517944
 9134 3944 D3D4E75C 		.word	1558697171
 9135 3948 72072337 		.word	925042546
 9136 394c 5229CDAD 		.word	-1379063470
 9137 3950 5A912A81 		.word	-2127916710
 9138 3954 71798FD1 		.word	-779126415
 9139 3958 B8197D37 		.word	930945464
 9140 395c 8935F50B 		.word	200619401
 9141 3960 73EA686C 		.word	1818815091
 9142 3964 5AD9EC35 		.word	904714586
 9143 3968 4D583A82 		.word	-2110105523
 9144 396c CABBF3C7 		.word	-940327990
 9145 3970 23A773F4 		.word	-193747165
 9146 3974 C674B69F 		.word	-1615432506
 9147 3978 FC8666E1 		.word	-513374468
 9148 397c D9E48BD2 		.word	-762583847
 9149 3980 4B8EFA38 		.word	955944523
 9150 3984 06992B5D 		.word	1563138310
 9151 3988 FCD83F89 		.word	-1992304388
 9152 398c 6E189F55 		.word	1436489838
 9153 3990 FCB66F43 		.word	1131394812
 9154 3994 AAE26D3A 		.word	980279978
 9155 3998 CE880F51 		.word	1359972558
 9156 399c AA0760D7 		.word	-681572438
 9157 39a0 88493A52 		.word	1379551624
 9158 39a4 B6AA102D 		.word	756066998
 9159 39a8 7302DD74 		.word	1960641139
 9160 39ac 44CF55B4 		.word	-1269444796
 9161 39b0 787240A3 		.word	-1556057480
 9162 39b4 8270467F 		.word	2135322754
 9163 39b8 01BB03B3 		.word	-1291601151
 9164 39bc 682FB5F2 		.word	-223006872
 9165 39c0 CAB43598 		.word	-1741310774
 9166 39c4 FAEA570D 		.word	223865594
 9167 39c8 BC9C66BB 		.word	-1150903108
 9168 39cc FC32222D 		.word	757215996
 9169 39d0 983164C6 		.word	-966512232
 9170 39d4 80B6EE8E 		.word	-1896958336
 9171 39d8 3AED5ACC 		.word	-866456262
 9172 39dc 8EE9DBD8 		.word	-656676466
 9173 39e0 0927A0C5 		.word	-979359991
 9174 39e4 3FBEA9CB 		.word	-878068161
 9175 39e8 A81FBAF5 		.word	-172351576
 9176 39ec E568BE30 		.word	817785061
 9177 39f0 52A80EF1 		.word	-250697646
 9178 39f4 CD43BDFE 		.word	-21150771
 9179 39f8 059755EE 		.word	-296380667
 9180 39fc A39315E0 		.word	-535456861
 9181 3a00 A6A075EA 		.word	-361389914
 9182 3a04 50AFE5D3 		.word	-739922096
 9183 3a08 33808557 		.word	1468366899
 9184 3a0c AC262251 		.word	1361192620
 9185 3a10 066417D0 		.word	-803773434
 9186 3a14 0FD5E66F 		.word	1877398799
 9187 3a18 06EFB8AE 		.word	-1363611898
ARM GAS  /tmp/ccwGYw5D.s 			page 160


 9188 3a1c B107ECAF 		.word	-1343486031
 9189 3a20 310ABB80 		.word	-2135225807
 9190 3a24 6795B97F 		.word	2142868839
 9191 3a28 AE9A3037 		.word	925932206
 9192 3a2c CCF31A6F 		.word	1864037324
 9193 3a30 89F3AB01 		.word	28046217
 9194 3a34 5AA15391 		.word	-1856790182
 9195 3a38 DDBF2D6E 		.word	1848491997
 9196 3a3c 54931BA7 		.word	-1491365036
 9197 3a40 D293F518 		.word	418747346
 9198 3a44 E0128EBF 		.word	-1081208096
 9199 3a48 2B1278A0 		.word	-1602743765
 9200 3a4c 2804A9D1 		.word	-777452504
 9201 3a50 ADF2A40B 		.word	195359405
 9202 3a54 DB050515 		.word	352650715
 9203 3a58 D9238562 		.word	1652892633
 9204 3a5c 5C00A253 		.word	1403125852
 9205 3a60 35B9F2E7 		.word	-403523275
 9206 3a64 39B6C807 		.word	130594361
 9207 3a68 1A9682C1 		.word	-1048406502
 9208 3a6c 5A97FF2B 		.word	738170714
 9209 3a70 2CCA1875 		.word	1964558892
 9210 3a74 A7EEBC86 		.word	-2034438489
 9211 3a78 3D8E583D 		.word	1029213757
 9212 3a7c 9BD147BF 		.word	-1085812325
 9213 3a80 D56576DD 		.word	-579443243
 9214 3a84 A7672967 		.word	1730766759
 9215 3a88 E54D2F2F 		.word	791629285
 9216 3a8c 5730304E 		.word	1311780951
 9217 3a90 3F90D480 		.word	-2133553089
 9218 3a94 AE054014 		.word	339740078
 9219 3a98 B6A1C939 		.word	969515446
 9220 3a9c 7F2C1C00 		.word	1846399
 9221 3aa0 D6C6EF69 		.word	1777321686
 9222 3aa4 14803A14 		.word	339378196
 9223 3aa8 24A7C77B 		.word	2076682020
 9224 3aac AABD10C8 		.word	-938426966
 9225 3ab0 A45081A7 		.word	-1484697436
 9226 3ab4 0B67655F 		.word	1600481035
 9227 3ab8 9BB9FF86 		.word	-2030061157
 9228 3abc E7F8ADFD 		.word	-38930201
 9229 3ac0 8507C0FF 		.word	-4192379
 9230 3ac4 88CB38FD 		.word	-46609528
 9231 3ac8 67EB483B 		.word	994634599
 9232 3acc 9175FA77 		.word	2012902801
 9233 3ad0 BC8F36BF 		.word	-1086943300
 9234 3ad4 55D05404 		.word	72667221
 9235 3ad8 943CA45A 		.word	1520712852
 9236 3adc 4D8E833A 		.word	981700173
 9237 3ae0 9ABB973E 		.word	1050131354
 9238 3ae4 29631656 		.word	1444307753
 9239 3ae8 D9941D44 		.word	1142789337
 9240 3aec 6333B99E 		.word	-1632029853
 9241 3af0 832ADB0A 		.word	182135427
 9242 3af4 A6915551 		.word	1364562342
 9243 3af8 A31D3E87 		.word	-2025972317
 9244 3afc 5782DB3C 		.word	1021018711
ARM GAS  /tmp/ccwGYw5D.s 			page 161


 9245 3b00 AB7EE77D 		.word	2112323243
 9246 3b04 A9407113 		.word	326189225
 9247 3b08 09816441 		.word	1097105673
 9248 3b0c 0DC5E1F7 		.word	-136198899
 9249 3b10 DFD0B1CE 		.word	-827207457
 9250 3b14 D2CA2D76 		.word	1982712530
 9251 3b18 BA7FF5F1 		.word	-235569222
 9252 3b1c 89CC605A 		.word	1516293257
 9253 3b20 7356D440 		.word	1087657587
 9254 3b24 8263B380 		.word	-2135727230
 9255 3b28 55C61359 		.word	1494468181
 9256 3b2c 19BE821B 		.word	461553177
 9257 3b30 41B764DD 		.word	-580602047
 9258 3b34 B8847205 		.word	91391160
 9259 3b38 C08FFDDB 		.word	-604139584
 9260 3b3c 6FF52F92 		.word	-1842350737
 9261 3b40 A129A1C9 		.word	-912184927
 9262 3b44 EE5D261B 		.word	455499246
 9263 3b48 044E28CC 		.word	-869773820
 9264 3b4c 57CEB1A5 		.word	-1515073961
 9265 3b50 3CBEBFCE 		.word	-826294724
 9266 3b54 460C3804 		.word	70782022
 9267 3b58 62CDC5F6 		.word	-154808990
 9268 3b5c 7D9A9172 		.word	1922144893
 9269 3b60 9A0FB98F 		.word	-1883697254
 9270 3b64 3A458F29 		.word	697255226
 9271 3b68 1B03E488 		.word	-1998322917
 9272 3b6c 0BC019D7 		.word	-686178293
 9273 3b70 56186F79 		.word	2037323862
 9274 3b74 770E2CE3 		.word	-483651977
 9275 3b78 9A082436 		.word	908331162
 9276 3b7c 8017795E 		.word	1584994176
 9277 3b80 FBCD637F 		.word	2137247227
 9278 3b84 55EC165C 		.word	1545006165
 9279 3b88 FDE4CAF1 		.word	-238361347
 9280 3b8c 71356A8E 		.word	-1905642127
 9281 3b90 CA970556 		.word	1443207114
 9282 3b94 EA6BE2FC 		.word	-52270102
 9283 3b98 AB2F4CE2 		.word	-498323541
 9284 3b9c 71530A4E 		.word	1309299569
 9285 3ba0 575376A5 		.word	-1518972073
 9286 3ba4 D3406A27 		.word	661274835
 9287 3ba8 B4A2730D 		.word	225682100
 9288 3bac 44AF893C 		.word	1015656260
 9289 3bb0 321AD141 		.word	1104222770
 9290 3bb4 AE70F3B8 		.word	-1192005458
 9291 3bb8 EE0466D5 		.word	-714734354
 9292 3bbc 1878FFF5 		.word	-167806952
 9293 3bc0 21DF091A 		.word	436854561
 9294 3bc4 FEE3F3FB 		.word	-67902466
 9295 3bc8 478E6EE6 		.word	-428962233
 9296 3bcc 8ED2D526 		.word	651547278
 9297 3bd0 1590C829 		.word	701009941
 9298 3bd4 0ABD9620 		.word	546749706
 9299 3bd8 645E3F53 		.word	1396661860
 9300 3bdc E9F01DE4 		.word	-467799831
 9301 3be0 3F9EBAB3 		.word	-1279615425
ARM GAS  /tmp/ccwGYw5D.s 			page 162


 9302 3be4 40DA5F30 		.word	811588160
 9303 3be8 95D80426 		.word	637851797
 9304 3bec EB0C34F2 		.word	-231469845
 9305 3bf0 C767037F 		.word	2130929607
 9306 3bf4 92E16608 		.word	140960146
 9307 3bf8 5F154FAC 		.word	-1404103329
 9308 3bfc 6E7DDD8E 		.word	-1898087058
 9309 3c00 F38FFC0B 		.word	201101299
 9310 3c04 0EDCA1C9 		.word	-912139250
 9311 3c08 2FF436E9 		.word	-382274513
 9312 3c0c 2BD8EF14 		.word	351262763
 9313 3c10 EF81A3CC 		.word	-861699601
 9314 3c14 7C6F0167 		.word	1728147324
 9315 3c18 96EE8AED 		.word	-309662058
 9316 3c1c CAC13214 		.word	338870730
 9317 3c20 263CB270 		.word	1890728998
 9318 3c24 294868EC 		.word	-328710103
 9319 3c28 73B23507 		.word	120959603
 9320 3c2c 73E84FA6 		.word	-1504712589
 9321 3c30 5A0FEFEA 		.word	-353431718
 9322 3c34 E5F689E3 		.word	-477497627
 9323 3c38 C6D2C85A 		.word	1523110598
 9324 3c3c 0B48EFCA 		.word	-890288117
 9325 3c40 22593175 		.word	1966168354
 9326 3c44 78C94552 		.word	1380305272
 9327 3c48 A5CC6330 		.word	811846821
 9328 3c4c 715129D8 		.word	-668380815
 9329 3c50 CBF24EB6 		.word	-1236340021
 9330 3c54 D060CEF3 		.word	-204578608
 9331 3c58 36E2FA8E 		.word	-1896160714
 9332 3c5c 7E17BAD0 		.word	-793110658
 9333 3c60 60AFB3B1 		.word	-1313624224
 9334 3c64 8FAEA953 		.word	1403629199
 9335 3c68 0EA22D3D 		.word	1026400782
 9336 3c6c E56A791A 		.word	444164837
 9337 3c70 28EF9EDF 		.word	-543232216
 9338 3c74 0536D601 		.word	30815749
 9339 3c78 16AE541C 		.word	475311638
 9340 3c7c 7C951CF3 		.word	-216230532
 9341 3c80 9745CC49 		.word	1238123927
 9342 3c84 528DF5C0 		.word	-1057649326
 9343 3c88 28A0E0BA 		.word	-1159684056
 9344 3c8c B01550DC 		.word	-598731344
 9345 3c90 4A814A73 		.word	1934262602
 9346 3c94 55FCC5EF 		.word	-272237483
 9347 3c98 3A7CE196 		.word	-1763607494
 9348 3c9c CB043401 		.word	20186315
 9349 3ca0 BF24A8C9 		.word	-911727425
 9350 3ca4 85259EB2 		.word	-1298258555
 9351 3ca8 D7AE1E00 		.word	2010839
 9352 3cac 5E1893D5 		.word	-711780258
 9353 3cb0 AC68EF61 		.word	1643079852
 9354 3cb4 82E66E8D 		.word	-1922111870
 9355 3cb8 6C3E9391 		.word	-1852621204
 9356 3cbc 4B7C376F 		.word	1865907275
 9357 3cc0 D23F33A8 		.word	-1473036334
 9358 3cc4 D1BA939F 		.word	-1617708335
ARM GAS  /tmp/ccwGYw5D.s 			page 163


 9359 3cc8 B8952A5A 		.word	1512740280
 9360 3ccc 020293A8 		.word	-1466760702
 9361 3cd0 CE5AF7EA 		.word	-352888114
 9362 3cd4 37501E21 		.word	555634743
 9363 3cd8 0695D0D2 		.word	-758082298
 9364 3cdc 4E3EBA6D 		.word	1840922190
 9365 3ce0 CD9943D0 		.word	-800876083
 9366 3ce4 8CF98EA4 		.word	-1534133876
 9367 3ce8 DE3AB7E6 		.word	-424199458
 9368 3cec 6EC61118 		.word	403818094
 9369 3cf0 F3CA7EC1 		.word	-1048655117
 9370 3cf4 5207F672 		.word	1928726354
 9371 3cf8 A7F4EC3B 		.word	1005384871
 9372 3cfc 42F33CF1 		.word	-247663806
 9373 3d00 EBE219A9 		.word	-1457921301
 9374 3d04 C09EEBCE 		.word	-823419200
 9375 3d08 680F2CF6 		.word	-164884632
 9376 3d0c 95A1A983 		.word	-2086035051
 9377 3d10 9922BA7A 		.word	2059018905
 9378 3d14 B63BBACF 		.word	-809878602
 9379 3d18 D3BA4B27 		.word	659274451
 9380 3d1c A9A93FC8 		.word	-935351895
 9381 3d20 E01CFA62 		.word	1660558560
 9382 3d24 0B1B7D0D 		.word	226302731
 9383 3d28 BFEF1834 		.word	874049471
 9384 3d2c F5608BE5 		.word	-443850507
 9385 3d30 046F7052 		.word	1383100164
 9386 3d34 9EEFA8BF 		.word	-1079447650
 9387 3d38 8326705D 		.word	1567630979
 9388 3d3c F4709DB4 		.word	-1264750348
 9389 3d40 3B51D5FA 		.word	-86683333
 9390 3d44 10754C91 		.word	-1857260272
 9391 3d48 2D1E75B1 		.word	-1317724627
 9392 3d4c EC2EF305 		.word	99823340
 9393 3d50 599DFBD9 		.word	-637821607
 9394 3d54 1804856D 		.word	1837433880
 9395 3d58 CFF1300C 		.word	204534223
 9396 3d5c BBADCF59 		.word	1506782651
 9397 3d60 D67FCB55 		.word	1439399894
 9398 3d64 23AC67E1 		.word	-513299421
 9399 3d68 A3260482 		.word	-2113657181
 9400 3d6c B8679324 		.word	613640120
 9401 3d70 6488A790 		.word	-1868068764
 9402 3d74 8CC5EEEA 		.word	-353450612
 9403 3d78 674B4A35 		.word	894061415
 9404 3d7c 62F3AB5B 		.word	1537995618
 9405 3d80 654842EE 		.word	-297645979
 9406 3d84 D181C937 		.word	935952849
 9407 3d88 7F57E5F2 		.word	-219850881
 9408 3d8c 7828008B 		.word	-1962923912
 9409 3d90 58C0E0B9 		.word	-1176453032
 9410 3d94 F1702970 		.word	1881764081
 9411 3d98 F0C82690 		.word	-1876506384
 9412 3d9c A7C68861 		.word	1636353703
 9413 3da0 DA44F2D0 		.word	-789429030
 9414 3da4 9BA1F906 		.word	117023131
 9415 3da8 730808FB 		.word	-83359629
ARM GAS  /tmp/ccwGYw5D.s 			page 164


 9416 3dac 5CEDCC1E 		.word	516746588
 9417 3db0 3736219F 		.word	-1625213385
 9418 3db4 9B0F4735 		.word	893849499
 9419 3db8 D9B950DF 		.word	-548357671
 9420 3dbc 75E43F99 		.word	-1723865995
 9421 3dc0 09362C9B 		.word	-1691601399
 9422 3dc4 DF1CE368 		.word	1759714527
 9423 3dc8 EAD4462C 		.word	742839530
 9424 3dcc C019EB84 		.word	-2064967232
 9425 3dd0 0151779A 		.word	-1703456511
 9426 3dd4 1AECC97A 		.word	2060053530
 9427 3dd8 6B61804C 		.word	1283481963
 9428 3ddc 6664F781 		.word	-2114493338
 9429 3de0 78E9FB75 		.word	1979443576
 9430 3de4 5A2A7C1D 		.word	494676570
 9431 3de8 56B383F1 		.word	-243027114
 9432 3dec D3FE4367 		.word	1732509395
 9433 3df0 BFD21D50 		.word	1344131775
 9434 3df4 041F8D83 		.word	-2087903484
 9435 3df8 0D06E95F 		.word	1609106957
 9436 3dfc 2A814A56 		.word	1447723306
 9437 3e00 1D7D81FA 		.word	-92177123
 9438 3e04 F4645A7A 		.word	2052744436
 9439 3e08 0F2EA8BE 		.word	-1096274417
 9440 3e0c 4468F955 		.word	1442408516
 9441 3e10 AAF957CD 		.word	-849872470
 9442 3e14 0F5AFFB5 		.word	-1241556465
 9443 3e18 6C1DE500 		.word	15015276
 9444 3e1c CFF36B22 		.word	577500111
 9445 3e20 CF33282F 		.word	791163855
 9446 3e24 F9A9D1D6 		.word	-690902535
 9447 3e28 A8894F4F 		.word	1330612648
 9448 3e2c 5AA3A020 		.word	547398490
 9449 3e30 777F3F8F 		.word	-1891664009
 9450 3e34 496C5311 		.word	290679881
 9451 3e38 367825FF 		.word	-14321610
 9452 3e3c 479F7768 		.word	1752670023
 9453 3e40 083D0473 		.word	1929657608
 9454 3e44 C1C1B079 		.word	2041627073
 9455 3e48 FA20C01F 		.word	532685050
 9456 3e4c 746744A5 		.word	-1522243724
 9457 3e50 D0266D9A 		.word	-1704122672
 9458 3e54 287E76D3 		.word	-747209176
 9459 3e58 0B2E09EB 		.word	-351719925
 9460 3e5c D1B0BC97 		.word	-1749241647
 9461 3e60 C3D32EF3 		.word	-215034941
 9462 3e64 A8EAB62A 		.word	716630696
 9463 3e68 48BC81B2 		.word	-1300120504
 9464 3e6c 51F1A4C8 		.word	-928714415
 9465 3e70 F378A1BF 		.word	-1079936781
 9466 3e74 F3F41B4D 		.word	1293677811
 9467 3e78 5546780A 		.word	175654485
 9468 3e7c E8FF72A8 		.word	-1468858392
 9469 3e80 86202BA3 		.word	-1557454714
 9470 3e84 3579ABB1 		.word	-1314162379
 9471 3e88 86F46081 		.word	-2124352378
 9472 3e8c 0E71EBE1 		.word	-504663794
ARM GAS  /tmp/ccwGYw5D.s 			page 165


 9473 3e90 BEE66A3B 		.word	996861630
 9474 3e94 91CDD09B 		.word	-1680814703
 9475 3e98 6AA332B7 		.word	-1221418134
 9476 3e9c FC2B8102 		.word	42019836
 9477 3ea0 185360CF 		.word	-815770856
 9478 3ea4 CAD73FA6 		.word	-1505765430
 9479 3ea8 1D6DFDFD 		.word	-33723107
 9480 3eac 505D6E64 		.word	1684954448
 9481 3eb0 19D60221 		.word	553834009
 9482 3eb4 9883D6A1 		.word	-1579777128
 9483 3eb8 AF9653FE 		.word	-28076369
 9484 3ebc C91C3907 		.word	121183433
 9485 3ec0 2BD0808B 		.word	-1954492373
 9486 3ec4 F05701C5 		.word	-989767696
 9487 3ec8 7F7F8762 		.word	1653047167
 9488 3ecc D133836B 		.word	1803760593
 9489 3ed0 AE42D578 		.word	2027242158
 9490 3ed4 F81ACA7A 		.word	2060065528
 9491 3ed8 082A6D7E 		.word	2121083400
 9492 3edc DC2A5D35 		.word	895298268
 9493 3ee0 E1867328 		.word	678659809
 9494 3ee4 5A331FB4 		.word	-1273023654
 9495 3ee8 7532E4F8 		.word	-119262603
 9496 3eec 942A27FD 		.word	-47764844
 9497 3ef0 EA8999E7 		.word	-409368086
 9498 3ef4 CDA26C28 		.word	678208205
 9499 3ef8 793A2A7C 		.word	2083142265
 9500 3efc E3B1C23D 		.word	1036169699
 9501 3f00 52135804 		.word	72880978
 9502 3f04 1CD289D6 		.word	-695610852
 9503 3f08 BE826737 		.word	929530558
 9504 3f0c 25C8000A 		.word	167823397
 9505 3f10 1F70ED9F 		.word	-1611829217
 9506 3f14 90D53B20 		.word	540792208
 9507 3f18 6B84CD3C 		.word	1020101739
 9508 3f1c 106978C4 		.word	-998741744
 9509 3f20 ED68C724 		.word	617048301
 9510 3f24 0877BA5D 		.word	1572501256
 9511 3f28 57F64168 		.word	1749153367
 9512 3f2c 02EAFE72 		.word	1929308674
 9513 3f30 0ECECC6A 		.word	1791806990
 9514 3f34 D53E3173 		.word	1932607189
 9515 3f38 324DBBD5 		.word	-709145294
 9516 3f3c 6829C4CC 		.word	-859559576
 9517 3f40 B920763D 		.word	1031151801
 9518 3f44 E10DE594 		.word	-1796928031
 9519 3f48 6AA59259 		.word	1502782826
 9520 3f4c 8A5C9AD8 		.word	-660972406
 9521 3f50 C9875467 		.word	1733593033
 9522 3f54 407600DC 		.word	-603949504
 9523 3f58 CF7148AA 		.word	-1438092849
 9524 3f5c 42EB47E1 		.word	-515380414
 9525 3f60 46AEF3AC 		.word	-1393316282
 9526 3f64 EEB44A27 		.word	659207406
 9527 3f68 BE0F3550 		.word	1345654718
 9528 3f6c FB3649FD 		.word	-45533445
 9529 3f70 EA40C848 		.word	1221083370
ARM GAS  /tmp/ccwGYw5D.s 			page 166


 9530 3f74 47FE2ADF 		.word	-550830521
 9531 3f78 E3960E08 		.word	135173859
 9532 3f7c 47C09A23 		.word	597344327
 9533 3f80 D4E8FE2B 		.word	738126036
 9534 3f84 351F1D48 		.word	1209868085
 9535 3f88 EC0F7BFA 		.word	-92598292
 9536 3f8c CFB580CE 		.word	-830425649
 9537 3f90 3CAFE92C 		.word	753512252
 9538 3f94 9E4C5C10 		.word	274484382
 9539 3f98 9DE5F7F5 		.word	-168303203
 9540 3f9c A3A15FC5 		.word	-983588445
 9541 3fa0 27C25782 		.word	-2108177881
 9542 3fa4 4EF18631 		.word	830927182
 9543 3fa8 0BE02B34 		.word	875290635
 9544 3fac 3F65B1C5 		.word	-978229953
 9545 3fb0 B24F90AA 		.word	-1433382990
 9546 3fb4 98C9AF09 		.word	162515352
 9547 3fb8 99B6F4D4 		.word	-722159975
 9548 3fbc 9CD94C09 		.word	156031388
 9549 3fc0 BABE03D7 		.word	-687620422
 9550 3fc4 841C988A 		.word	-1969742716
 9551 3fc8 91B2CE32 		.word	852406929
 9552 3fcc 50D13186 		.word	-2043555504
 9553 3fd0 EC49BDE3 		.word	-474134036
 9554 3fd4 C9F245A4 		.word	-1538919735
 9555 3fd8 33ADAB42 		.word	1118547251
 9556 3fdc B6300AB9 		.word	-1190514506
 9557 3fe0 F9ABA5B4 		.word	-1264210951
 9558 3fe4 4F4065B4 		.word	-1268432817
 9559 3fe8 0376DB75 		.word	1977316867
 9560 3fec C3504700 		.word	4673731
 9561 3ff0 9FD835CA 		.word	-902440801
 9562 3ff4 CC429A6F 		.word	1872380620
 9563 3ff8 F724791B 		.word	460924151
 9564 3ffc 9A8B9F01 		.word	27233178
 9565              		.ident	"GCC: (15:10.3-2021.07-4) 10.3.1 20210621 (release)"
ARM GAS  /tmp/ccwGYw5D.s 			page 167


DEFINED SYMBOLS
                            *ABS*:0000000000000000 sp_cortexm.c
     /tmp/ccwGYw5D.s:16     .text.sp_256_mul_8:0000000000000000 $t
     /tmp/ccwGYw5D.s:24     .text.sp_256_mul_8:0000000000000000 sp_256_mul_8
     /tmp/ccwGYw5D.s:143    .text.sp_256_sqr_8:0000000000000000 $t
     /tmp/ccwGYw5D.s:149    .text.sp_256_sqr_8:0000000000000000 sp_256_sqr_8
     /tmp/ccwGYw5D.s:246    .text.sp_256_add_8:0000000000000000 $t
     /tmp/ccwGYw5D.s:252    .text.sp_256_add_8:0000000000000000 sp_256_add_8
     /tmp/ccwGYw5D.s:281    .text.sp_256_cmp_8:0000000000000000 $t
     /tmp/ccwGYw5D.s:287    .text.sp_256_cmp_8:0000000000000000 sp_256_cmp_8
     /tmp/ccwGYw5D.s:394    .text.sp_256_cmp_equal_8:0000000000000000 $t
     /tmp/ccwGYw5D.s:400    .text.sp_256_cmp_equal_8:0000000000000000 sp_256_cmp_equal_8
     /tmp/ccwGYw5D.s:441    .text.sp_256_iszero_8:0000000000000000 $t
     /tmp/ccwGYw5D.s:447    .text.sp_256_iszero_8:0000000000000000 sp_256_iszero_8
     /tmp/ccwGYw5D.s:471    .text.sp_256_get_point_16_8:0000000000000000 $t
     /tmp/ccwGYw5D.s:477    .text.sp_256_get_point_16_8:0000000000000000 sp_256_get_point_16_8
     /tmp/ccwGYw5D.s:627    .text.sp_256_add_one_8:0000000000000000 $t
     /tmp/ccwGYw5D.s:633    .text.sp_256_add_one_8:0000000000000000 sp_256_add_one_8
     /tmp/ccwGYw5D.s:658    .text.sp_256_sub_in_place_8:0000000000000000 $t
     /tmp/ccwGYw5D.s:664    .text.sp_256_sub_in_place_8:0000000000000000 sp_256_sub_in_place_8
     /tmp/ccwGYw5D.s:692    .text.sp_256_mul_d_8:0000000000000000 $t
     /tmp/ccwGYw5D.s:698    .text.sp_256_mul_d_8:0000000000000000 sp_256_mul_d_8
     /tmp/ccwGYw5D.s:743    .text.div_256_word_8:0000000000000000 $t
     /tmp/ccwGYw5D.s:749    .text.div_256_word_8:0000000000000000 div_256_word_8
     /tmp/ccwGYw5D.s:767    .text.div_256_word_8:000000000000002c L_div_256_word_8_bit_307
     /tmp/ccwGYw5D.s:802    .text.sp_256_sub_8:0000000000000000 $t
     /tmp/ccwGYw5D.s:808    .text.sp_256_sub_8:0000000000000000 sp_256_sub_8
     /tmp/ccwGYw5D.s:836    .text.sp_256_rshift1_8:0000000000000000 $t
     /tmp/ccwGYw5D.s:842    .text.sp_256_rshift1_8:0000000000000000 sp_256_rshift1_8
     /tmp/ccwGYw5D.s:881    .text.sp_256_num_bits_8:0000000000000000 $t
     /tmp/ccwGYw5D.s:887    .text.sp_256_num_bits_8:0000000000000000 sp_256_num_bits_8
     /tmp/ccwGYw5D.s:901    .text.sp_256_num_bits_8:0000000000000016 L_sp_256_num_bits_8_7_339
     /tmp/ccwGYw5D.s:961    .text.sp_256_num_bits_8:000000000000009c L_sp_256_num_bits_8_9_339
     /tmp/ccwGYw5D.s:910    .text.sp_256_num_bits_8:000000000000002a L_sp_256_num_bits_8_6_339
     /tmp/ccwGYw5D.s:919    .text.sp_256_num_bits_8:000000000000003e L_sp_256_num_bits_8_5_339
     /tmp/ccwGYw5D.s:928    .text.sp_256_num_bits_8:0000000000000052 L_sp_256_num_bits_8_4_339
     /tmp/ccwGYw5D.s:937    .text.sp_256_num_bits_8:0000000000000066 L_sp_256_num_bits_8_3_339
     /tmp/ccwGYw5D.s:946    .text.sp_256_num_bits_8:000000000000007a L_sp_256_num_bits_8_2_339
     /tmp/ccwGYw5D.s:955    .text.sp_256_num_bits_8:000000000000008e L_sp_256_num_bits_8_1_339
     /tmp/ccwGYw5D.s:970    .text.ForceZero:0000000000000000 $t
     /tmp/ccwGYw5D.s:976    .text.ForceZero:0000000000000000 ForceZero
     /tmp/ccwGYw5D.s:1011   .text.sp_256_to_mp:0000000000000000 $t
     /tmp/ccwGYw5D.s:1017   .text.sp_256_to_mp:0000000000000000 sp_256_to_mp
     /tmp/ccwGYw5D.s:1049   .text.sp_256_point_to_ecc_point_8:0000000000000000 $t
     /tmp/ccwGYw5D.s:1055   .text.sp_256_point_to_ecc_point_8:0000000000000000 sp_256_point_to_ecc_point_8
     /tmp/ccwGYw5D.s:1075   .text.sp_256_div2_mod_8.constprop.0:0000000000000000 $t
     /tmp/ccwGYw5D.s:1081   .text.sp_256_div2_mod_8.constprop.0:0000000000000000 sp_256_div2_mod_8.constprop.0
     /tmp/ccwGYw5D.s:1108   .text.sp_256_div2_mod_8.constprop.0:0000000000000048 L_sp_256_div2_mod_8_even_479
     /tmp/ccwGYw5D.s:1112   .text.sp_256_div2_mod_8.constprop.0:0000000000000050 L_sp_256_div2_mod_8_div2_479
     /tmp/ccwGYw5D.s:1143   .text.sp_256_div2_mod_8.constprop.0:00000000000000ac $d
     /tmp/ccwGYw5D.s:1146   .text.sp_256_from_bin.constprop.0:0000000000000000 $t
     /tmp/ccwGYw5D.s:1152   .text.sp_256_from_bin.constprop.0:0000000000000000 sp_256_from_bin.constprop.0
     /tmp/ccwGYw5D.s:1208   .text.sp_256_ecc_gen_k_8:0000000000000000 $t
     /tmp/ccwGYw5D.s:1214   .text.sp_256_ecc_gen_k_8:0000000000000000 sp_256_ecc_gen_k_8
     /tmp/ccwGYw5D.s:1248   .text.sp_256_ecc_gen_k_8:000000000000003c $d
     /tmp/ccwGYw5D.s:1251   .text.sp_256_get_entry_256_8.constprop.0:0000000000000000 $t
     /tmp/ccwGYw5D.s:1257   .text.sp_256_get_entry_256_8.constprop.0:0000000000000000 sp_256_get_entry_256_8.constprop.0
ARM GAS  /tmp/ccwGYw5D.s 			page 168


     /tmp/ccwGYw5D.s:1384   .text.sp_256_get_entry_256_8.constprop.0:0000000000000138 $d
     /tmp/ccwGYw5D.s:5468   .rodata.p256_table:0000000000000000 p256_table
     /tmp/ccwGYw5D.s:1387   .text.sp_256_mont_div2_8.constprop.0:0000000000000000 $t
     /tmp/ccwGYw5D.s:1393   .text.sp_256_mont_div2_8.constprop.0:0000000000000000 sp_256_mont_div2_8.constprop.0
     /tmp/ccwGYw5D.s:1445   .text.sp_256_mont_div2_8.constprop.0:000000000000009c $d
     /tmp/ccwGYw5D.s:1448   .text.sp_256_mont_sub_8.constprop.0:0000000000000000 $t
     /tmp/ccwGYw5D.s:1454   .text.sp_256_mont_sub_8.constprop.0:0000000000000000 sp_256_mont_sub_8.constprop.0
     /tmp/ccwGYw5D.s:1500   .text.sp_256_mont_tpl_8.constprop.0:0000000000000000 $t
     /tmp/ccwGYw5D.s:1506   .text.sp_256_mont_tpl_8.constprop.0:0000000000000000 sp_256_mont_tpl_8.constprop.0
     /tmp/ccwGYw5D.s:1582   .text.sp_256_mont_dbl_8.constprop.0:0000000000000000 $t
     /tmp/ccwGYw5D.s:1588   .text.sp_256_mont_dbl_8.constprop.0:0000000000000000 sp_256_mont_dbl_8.constprop.0
     /tmp/ccwGYw5D.s:1632   .text.sp_256_mont_add_8.constprop.0:0000000000000000 $t
     /tmp/ccwGYw5D.s:1638   .text.sp_256_mont_add_8.constprop.0:0000000000000000 sp_256_mont_add_8.constprop.0
     /tmp/ccwGYw5D.s:1686   .text.sp_256_mont_sqr_8.constprop.0:0000000000000000 $t
     /tmp/ccwGYw5D.s:1692   .text.sp_256_mont_sqr_8.constprop.0:0000000000000000 sp_256_mont_sqr_8.constprop.0
     /tmp/ccwGYw5D.s:1883   .text.sp_256_mont_sqr_n_8.constprop.0:0000000000000000 $t
     /tmp/ccwGYw5D.s:1889   .text.sp_256_mont_sqr_n_8.constprop.0:0000000000000000 sp_256_mont_sqr_n_8.constprop.0
     /tmp/ccwGYw5D.s:1906   .text.sp_256_mont_mul_8.constprop.0:0000000000000000 $t
     /tmp/ccwGYw5D.s:1912   .text.sp_256_mont_mul_8.constprop.0:0000000000000000 sp_256_mont_mul_8.constprop.0
     /tmp/ccwGYw5D.s:2124   .text.sp_256_proj_point_dbl_8:0000000000000000 $t
     /tmp/ccwGYw5D.s:2130   .text.sp_256_proj_point_dbl_8:0000000000000000 sp_256_proj_point_dbl_8
     /tmp/ccwGYw5D.s:2217   .text.sp_256_proj_point_add_8:0000000000000000 $t
     /tmp/ccwGYw5D.s:2223   .text.sp_256_proj_point_add_8:0000000000000000 sp_256_proj_point_add_8
     /tmp/ccwGYw5D.s:2428   .text.sp_256_from_mp.constprop.0:0000000000000000 $t
     /tmp/ccwGYw5D.s:2434   .text.sp_256_from_mp.constprop.0:0000000000000000 sp_256_from_mp.constprop.0
     /tmp/ccwGYw5D.s:2455   .text.sp_256_point_from_ecc_point_8:0000000000000000 $t
     /tmp/ccwGYw5D.s:2461   .text.sp_256_point_from_ecc_point_8:0000000000000000 sp_256_point_from_ecc_point_8
     /tmp/ccwGYw5D.s:2494   .text.sp_256_mod_mul_norm_8.constprop.0:0000000000000000 $t
     /tmp/ccwGYw5D.s:2500   .text.sp_256_mod_mul_norm_8.constprop.0:0000000000000000 sp_256_mod_mul_norm_8.constprop.0
     /tmp/ccwGYw5D.s:2702   .text.sp_256_cond_sub_8.isra.0:0000000000000000 $t
     /tmp/ccwGYw5D.s:2708   .text.sp_256_cond_sub_8.isra.0:0000000000000000 sp_256_cond_sub_8.isra.0
     /tmp/ccwGYw5D.s:2751   .text.sp_256_mont_reduce_8:0000000000000000 $t
     /tmp/ccwGYw5D.s:2757   .text.sp_256_mont_reduce_8:0000000000000000 sp_256_mont_reduce_8
     /tmp/ccwGYw5D.s:2771   .text.sp_256_mont_reduce_8:000000000000001c L_sp_256_mont_reduce_8_word_1256
     /tmp/ccwGYw5D.s:2827   .text.sp_256_mont_mul_order_8:0000000000000000 $t
     /tmp/ccwGYw5D.s:2833   .text.sp_256_mont_mul_order_8:0000000000000000 sp_256_mont_mul_order_8
     /tmp/ccwGYw5D.s:2847   .text.sp_256_mont_mul_order_8:0000000000000018 $d
     /tmp/ccwGYw5D.s:2851   .text.sp_256_mont_sqr_order_8:0000000000000000 $t
     /tmp/ccwGYw5D.s:2857   .text.sp_256_mont_sqr_order_8:0000000000000000 sp_256_mont_sqr_order_8
     /tmp/ccwGYw5D.s:2871   .text.sp_256_mont_sqr_order_8:0000000000000018 $d
     /tmp/ccwGYw5D.s:2875   .text.sp_256_mont_sqr_n_order_8:0000000000000000 $t
     /tmp/ccwGYw5D.s:2881   .text.sp_256_mont_sqr_n_order_8:0000000000000000 sp_256_mont_sqr_n_order_8
     /tmp/ccwGYw5D.s:2899   .text.sp_256_map_8:0000000000000000 $t
     /tmp/ccwGYw5D.s:2905   .text.sp_256_map_8:0000000000000000 sp_256_map_8
     /tmp/ccwGYw5D.s:3061   .text.sp_256_map_8:0000000000000188 $d
     /tmp/ccwGYw5D.s:3064   .text.sp_256_ecc_mulmod_stripe_8.constprop.0:0000000000000000 $t
     /tmp/ccwGYw5D.s:3070   .text.sp_256_ecc_mulmod_stripe_8.constprop.0:0000000000000000 sp_256_ecc_mulmod_stripe_8.constprop.0
     /tmp/ccwGYw5D.s:3427   .text.sp_256_ecc_mulmod_stripe_8.constprop.0:0000000000000380 $d
     /tmp/ccwGYw5D.s:3431   .text.sp_256_ecc_mulmod_fast_8.constprop.0:0000000000000000 $t
     /tmp/ccwGYw5D.s:3437   .text.sp_256_ecc_mulmod_fast_8.constprop.0:0000000000000000 sp_256_ecc_mulmod_fast_8.constprop.0
     /tmp/ccwGYw5D.s:3691   .text.sp_256_mod_8:0000000000000000 $t
     /tmp/ccwGYw5D.s:3697   .text.sp_256_mod_8:0000000000000000 sp_256_mod_8
     /tmp/ccwGYw5D.s:3836   .text.sp_256_ecc_is_point_8.constprop.0:0000000000000000 $t
     /tmp/ccwGYw5D.s:3842   .text.sp_256_ecc_is_point_8.constprop.0:0000000000000000 sp_256_ecc_is_point_8.constprop.0
     /tmp/ccwGYw5D.s:3907   .text.sp_256_ecc_is_point_8.constprop.0:0000000000000094 $d
     /tmp/ccwGYw5D.s:3911   .text.sp_ecc_mulmod_256:0000000000000000 $t
     /tmp/ccwGYw5D.s:3918   .text.sp_ecc_mulmod_256:0000000000000000 sp_ecc_mulmod_256
ARM GAS  /tmp/ccwGYw5D.s 			page 169


     /tmp/ccwGYw5D.s:3971   .text.sp_ecc_mulmod_add_256:0000000000000000 $t
     /tmp/ccwGYw5D.s:3978   .text.sp_ecc_mulmod_add_256:0000000000000000 sp_ecc_mulmod_add_256
     /tmp/ccwGYw5D.s:4073   .text.sp_ecc_mulmod_base_256:0000000000000000 $t
     /tmp/ccwGYw5D.s:4080   .text.sp_ecc_mulmod_base_256:0000000000000000 sp_ecc_mulmod_base_256
     /tmp/ccwGYw5D.s:4125   .text.sp_ecc_mulmod_base_add_256:0000000000000000 $t
     /tmp/ccwGYw5D.s:4132   .text.sp_ecc_mulmod_base_add_256:0000000000000000 sp_ecc_mulmod_base_add_256
     /tmp/ccwGYw5D.s:4221   .text.sp_ecc_make_key_256:0000000000000000 $t
     /tmp/ccwGYw5D.s:4228   .text.sp_ecc_make_key_256:0000000000000000 sp_ecc_make_key_256
     /tmp/ccwGYw5D.s:4281   .text.sp_ecc_secret_gen_256:0000000000000000 $t
     /tmp/ccwGYw5D.s:4288   .text.sp_ecc_secret_gen_256:0000000000000000 sp_ecc_secret_gen_256
     /tmp/ccwGYw5D.s:4359   .text.sp_ecc_sign_256:0000000000000000 $t
     /tmp/ccwGYw5D.s:4366   .text.sp_ecc_sign_256:0000000000000000 sp_ecc_sign_256
     /tmp/ccwGYw5D.s:4750   .text.sp_ecc_sign_256:00000000000003cc $d
     /tmp/ccwGYw5D.s:4758   .text.sp_ecc_verify_256:0000000000000000 $t
     /tmp/ccwGYw5D.s:4765   .text.sp_ecc_verify_256:0000000000000000 sp_ecc_verify_256
     /tmp/ccwGYw5D.s:5169   .text.sp_ecc_verify_256:00000000000003ac $d
     /tmp/ccwGYw5D.s:5176   .text.sp_ecc_is_point_256:0000000000000000 $t
     /tmp/ccwGYw5D.s:5183   .text.sp_ecc_is_point_256:0000000000000000 sp_ecc_is_point_256
     /tmp/ccwGYw5D.s:5219   .text.sp_ecc_check_key_256:0000000000000000 $t
     /tmp/ccwGYw5D.s:5226   .text.sp_ecc_check_key_256:0000000000000000 sp_ecc_check_key_256
     /tmp/ccwGYw5D.s:5367   .text.sp_ecc_check_key_256:0000000000000148 $d
     /tmp/ccwGYw5D.s:5371   .rodata.p256_b:0000000000000000 $d
     /tmp/ccwGYw5D.s:5375   .rodata.p256_b:0000000000000000 p256_b
     /tmp/ccwGYw5D.s:5385   .rodata.p256_mod:0000000000000000 $d
     /tmp/ccwGYw5D.s:5389   .rodata.p256_mod:0000000000000000 p256_mod
     /tmp/ccwGYw5D.s:5399   .rodata.p256_norm_mod:0000000000000000 $d
     /tmp/ccwGYw5D.s:5403   .rodata.p256_norm_mod:0000000000000000 p256_norm_mod
     /tmp/ccwGYw5D.s:5413   .rodata.p256_norm_order:0000000000000000 $d
     /tmp/ccwGYw5D.s:5417   .rodata.p256_norm_order:0000000000000000 p256_norm_order
     /tmp/ccwGYw5D.s:5427   .rodata.p256_order:0000000000000000 $d
     /tmp/ccwGYw5D.s:5431   .rodata.p256_order:0000000000000000 p256_order
     /tmp/ccwGYw5D.s:5441   .rodata.p256_order2:0000000000000000 $d
     /tmp/ccwGYw5D.s:5445   .rodata.p256_order2:0000000000000000 p256_order2
     /tmp/ccwGYw5D.s:5455   .rodata.p256_order_low:0000000000000000 $d
     /tmp/ccwGYw5D.s:5459   .rodata.p256_order_low:0000000000000000 p256_order_low
     /tmp/ccwGYw5D.s:5465   .rodata.p256_table:0000000000000000 $d

UNDEFINED SYMBOLS
memset
sp_grow
wc_RNG_GenerateBlock
wolfSSL_Malloc
wolfSSL_Free
memcpy
sp_zero
sp_count_bits
