ARM GAS  /tmp/ccwGYw5D.s 			page 1


   1              		.cpu cortex-m33
   2              		.eabi_attribute 27, 1
   3              		.eabi_attribute 28, 1
   4              		.eabi_attribute 20, 1
   5              		.eabi_attribute 21, 1
   6              		.eabi_attribute 23, 3
   7              		.eabi_attribute 24, 1
   8              		.eabi_attribute 25, 1
   9              		.eabi_attribute 26, 1
  10              		.eabi_attribute 30, 4
  11              		.eabi_attribute 34, 1
  12              		.eabi_attribute 18, 4
  13              		.file	"sp_cortexm.c"
  14              		.text
  15              		.section	.text.sp_256_mul_8,"ax",%progbits
  16              		.align	1
  17              		.arch armv8-m.main
  18              		.arch_extension dsp
  19              		.syntax unified
  20              		.thumb
  21              		.thumb_func
  22              		.fpu fpv4-sp-d16
  24              	sp_256_mul_8:
  25              		@ args = 0, pretend = 0, frame = 0
  26              		@ frame_needed = 0, uses_anonymous_args = 0
  27 0000 2DE9F04F 		push	{r4, r5, r6, r7, r8, r9, r10, fp, lr}
  28              		.syntax unified
  29              	@ 32000 "../wolfssl/wolfcrypt/src/sp_cortexm.c" 1
  30 0004 8BB0     		SUB	sp, sp, #0x2c
  31 0006 CDE90901 		STRD	r0, r1, [sp, #36]
  32 000a 9646     		MOV	lr, r2
  33 000c 0FC9     		LDM	r1, {r0, r1, r2, r3}
  34 000e BEE87000 		LDM	lr!, {r4, r5, r6}
  35 0012 A0FB04AB 		UMULL	r10, r11, r0, r4
  36 0016 A1FB04C7 		UMULL	r12, r7, r1, r4
  37 001a E0FB65BC 		UMAAL	r11, r12, r0, r5
  38 001e A2FB0489 		UMULL	r8, r9, r2, r4
  39 0022 E1FB65C8 		UMAAL	r12, r8, r1, r5
  40 0026 E0FB66C7 		UMAAL	r12, r7, r0, r6
  41 002a E3FB6489 		UMAAL	r8, r9, r3, r4
  42 002e 8DE8001C 		STM	sp, {r10, r11, r12}
  43 0032 E2FB6578 		UMAAL	r7, r8, r2, r5
  44 0036 5EF8044B 		LDM	lr!, {r4}
  45 003a A1FB06AB 		UMULL	r10, r11, r1, r6
  46 003e E2FB6689 		UMAAL	r8, r9, r2, r6
  47 0042 E0FB647A 		UMAAL	r7, r10, r0, r4
  48 0046 E3FB658B 		UMAAL	r8, r11, r3, r5
  49 004a 0397     		STR	r7, [sp, #12]
  50 004c E1FB648A 		UMAAL	r8, r10, r1, r4
  51 0050 E3FB669B 		UMAAL	r9, r11, r3, r6
  52 0054 E2FB649A 		UMAAL	r9, r10, r2, r4
  53 0058 E3FB64AB 		UMAAL	r10, r11, r3, r4
  54 005c 9EE8F000 		LDM	lr, {r4, r5, r6, r7}
  55 0060 4FF0000C 		MOV	r12, #0x0
  56 0064 E0FB048C 		UMLAL	r8, r12, r0, r4
  57 0068 E1FB649C 		UMAAL	r9, r12, r1, r4
  58 006c E2FB64AC 		UMAAL	r10, r12, r2, r4
ARM GAS  /tmp/ccwGYw5D.s 			page 2


  59 0070 E3FB64BC 		UMAAL	r11, r12, r3, r4
  60 0074 4FF00004 		MOV	r4, #0x0
  61 0078 E0FB0594 		UMLAL	r9, r4, r0, r5
  62 007c E1FB65A4 		UMAAL	r10, r4, r1, r5
  63 0080 E2FB65B4 		UMAAL	r11, r4, r2, r5
  64 0084 E3FB65C4 		UMAAL	r12, r4, r3, r5
  65 0088 4FF00005 		MOV	r5, #0x0
  66 008c E0FB06A5 		UMLAL	r10, r5, r0, r6
  67 0090 E1FB66B5 		UMAAL	r11, r5, r1, r6
  68 0094 E2FB66C5 		UMAAL	r12, r5, r2, r6
  69 0098 E3FB6645 		UMAAL	r4, r5, r3, r6
  70 009c 4FF00006 		MOV	r6, #0x0
  71 00a0 E0FB07B6 		UMLAL	r11, r6, r0, r7
  72 00a4 0A98     		LDR	r0, [sp, #40]
  73 00a6 E1FB67C6 		UMAAL	r12, r6, r1, r7
  74 00aa 00F11000 		ADD	r0, r0, #0x10
  75 00ae E2FB6746 		UMAAL	r4, r6, r2, r7
  76 00b2 AEF1100E 		SUB	lr, lr, #0x10
  77 00b6 E3FB6756 		UMAAL	r5, r6, r3, r7
  78 00ba 0FC8     		LDM	r0, {r0, r1, r2, r3}
  79 00bc 0896     		STR	r6, [sp, #32]
  80 00be 5EF8046B 		LDM	lr!, {r6}
  81 00c2 4FF00007 		MOV	r7, #0x0
  82 00c6 E0FB0687 		UMLAL	r8, r7, r0, r6
  83 00ca E1FB6697 		UMAAL	r9, r7, r1, r6
  84 00ce CDF81080 		STR	r8, [sp, #16]
  85 00d2 E2FB66A7 		UMAAL	r10, r7, r2, r6
  86 00d6 E3FB66B7 		UMAAL	r11, r7, r3, r6
  87 00da 5EF8046B 		LDM	lr!, {r6}
  88 00de 4FF00008 		MOV	r8, #0x0
  89 00e2 E0FB0698 		UMLAL	r9, r8, r0, r6
  90 00e6 E1FB66A8 		UMAAL	r10, r8, r1, r6
  91 00ea CDF81490 		STR	r9, [sp, #20]
  92 00ee E2FB66B8 		UMAAL	r11, r8, r2, r6
  93 00f2 E3FB66C8 		UMAAL	r12, r8, r3, r6
  94 00f6 5EF8046B 		LDM	lr!, {r6}
  95 00fa 4FF00009 		MOV	r9, #0x0
  96 00fe E0FB06A9 		UMLAL	r10, r9, r0, r6
  97 0102 E1FB66B9 		UMAAL	r11, r9, r1, r6
  98 0106 CDF818A0 		STR	r10, [sp, #24]
  99 010a E2FB66C9 		UMAAL	r12, r9, r2, r6
 100 010e E3FB6649 		UMAAL	r4, r9, r3, r6
 101 0112 5EF8046B 		LDM	lr!, {r6}
 102 0116 4FF0000A 		MOV	r10, #0x0
 103 011a E0FB06BA 		UMLAL	r11, r10, r0, r6
 104 011e E1FB66CA 		UMAAL	r12, r10, r1, r6
 105 0122 CDF81CB0 		STR	r11, [sp, #28]
 106 0126 E2FB664A 		UMAAL	r4, r10, r2, r6
 107 012a E3FB665A 		UMAAL	r5, r10, r3, r6
 108 012e 5EF804BB 		LDM	lr!, {r11}
 109 0132 E0FB6BC7 		UMAAL	r12, r7, r0, r11
 110 0136 E1FB6B47 		UMAAL	r4, r7, r1, r11
 111 013a 089E     		LDR	r6, [sp, #32]
 112 013c E2FB6B57 		UMAAL	r5, r7, r2, r11
 113 0140 E3FB6B67 		UMAAL	r6, r7, r3, r11
 114 0144 5EF804BB 		LDM	lr!, {r11}
 115 0148 E0FB6B48 		UMAAL	r4, r8, r0, r11
ARM GAS  /tmp/ccwGYw5D.s 			page 3


 116 014c E1FB6B58 		UMAAL	r5, r8, r1, r11
 117 0150 E2FB6B68 		UMAAL	r6, r8, r2, r11
 118 0154 E3FB6B78 		UMAAL	r7, r8, r3, r11
 119 0158 9EE80048 		LDM	lr, {r11, lr}
 120 015c E0FB6B59 		UMAAL	r5, r9, r0, r11
 121 0160 E0FB6E6A 		UMAAL	r6, r10, r0, lr
 122 0164 E1FB6B69 		UMAAL	r6, r9, r1, r11
 123 0168 E1FB6E7A 		UMAAL	r7, r10, r1, lr
 124 016c E2FB6B79 		UMAAL	r7, r9, r2, r11
 125 0170 E2FB6E8A 		UMAAL	r8, r10, r2, lr
 126 0174 E3FB6B89 		UMAAL	r8, r9, r3, r11
 127 0178 E3FB6E9A 		UMAAL	r9, r10, r3, lr
 128 017c 6346     		MOV	r3, r12
 129 017e DDF824E0 		LDR	lr, [sp, #36]
 130 0182 0EF1200E 		ADD	lr, lr, #0x20
 131 0186 8EE8F807 		STM	lr, {r3, r4, r5, r6, r7, r8, r9, r10}
 132 018a AEF1200E 		SUB	lr, lr, #0x20
 133 018e 9DE8F807 		LDM	sp, {r3, r4, r5, r6, r7, r8, r9, r10}
 134 0192 8EE8F807 		STM	lr, {r3, r4, r5, r6, r7, r8, r9, r10}
 135 0196 0BB0     		ADD	sp, sp, #0x2c
 136              		
 137              	@ 0 "" 2
 138              		.thumb
 139              		.syntax unified
 140 0198 BDE8F08F 		pop	{r4, r5, r6, r7, r8, r9, r10, fp, pc}
 142              		.section	.text.sp_256_sqr_8,"ax",%progbits
 143              		.align	1
 144              		.syntax unified
 145              		.thumb
 146              		.thumb_func
 147              		.fpu fpv4-sp-d16
 149              	sp_256_sqr_8:
 150              		@ args = 0, pretend = 0, frame = 0
 151              		@ frame_needed = 0, uses_anonymous_args = 0
 152 0000 2DE9F04F 		push	{r4, r5, r6, r7, r8, r9, r10, fp, lr}
 153              		.syntax unified
 154              	@ 32513 "../wolfssl/wolfcrypt/src/sp_cortexm.c" 1
 155 0004 88B0     		SUB	sp, sp, #0x20
 156 0006 0790     		STR	r0, [sp, #28]
 157 0008 FFC9     		LDM	r1, {r0, r1, r2, r3, r4, r5, r6, r7}
 158 000a A0FB009A 		UMULL	r9, r10, r0, r0
 159 000e A0FB01BC 		UMULL	r11, r12, r0, r1
 160 0012 1BEB0B0B 		ADDS	r11, r11, r11
 161 0016 4FF0000E 		MOV	lr, #0x0
 162 001a EEFB6EAB 		UMAAL	r10, r11, lr, lr
 163 001e 8DE80006 		STM	sp, {r9, r10}
 164 0022 F046     		MOV	r8, lr
 165 0024 E0FB628C 		UMAAL	r8, r12, r0, r2
 166 0028 58EB0808 		ADCS	r8, r8, r8
 167 002c E1FB618B 		UMAAL	r8, r11, r1, r1
 168 0030 A0FB039A 		UMULL	r9, r10, r0, r3
 169 0034 E1FB629C 		UMAAL	r9, r12, r1, r2
 170 0038 59EB0909 		ADCS	r9, r9, r9
 171 003c EEFB6E9B 		UMAAL	r9, r11, lr, lr
 172 0040 CDE90289 		STRD	r8, r9, [sp, #8]
 173 0044 F146     		MOV	r9, lr
 174 0046 E0FB649A 		UMAAL	r9, r10, r0, r4
ARM GAS  /tmp/ccwGYw5D.s 			page 4


 175 004a E1FB639C 		UMAAL	r9, r12, r1, r3
 176 004e 59EB0909 		ADCS	r9, r9, r9
 177 0052 E2FB629B 		UMAAL	r9, r11, r2, r2
 178 0056 CDF81090 		STR	r9, [sp, #16]
 179 005a A0FB0598 		UMULL	r9, r8, r0, r5
 180 005e E1FB649C 		UMAAL	r9, r12, r1, r4
 181 0062 E2FB639A 		UMAAL	r9, r10, r2, r3
 182 0066 59EB0909 		ADCS	r9, r9, r9
 183 006a EEFB6E9B 		UMAAL	r9, r11, lr, lr
 184 006e CDF81490 		STR	r9, [sp, #20]
 185 0072 F146     		MOV	r9, lr
 186 0074 E0FB6698 		UMAAL	r9, r8, r0, r6
 187 0078 E1FB659C 		UMAAL	r9, r12, r1, r5
 188 007c E2FB649A 		UMAAL	r9, r10, r2, r4
 189 0080 59EB0909 		ADCS	r9, r9, r9
 190 0084 E3FB639B 		UMAAL	r9, r11, r3, r3
 191 0088 CDF81890 		STR	r9, [sp, #24]
 192 008c A0FB0709 		UMULL	r0, r9, r0, r7
 193 0090 E1FB6608 		UMAAL	r0, r8, r1, r6
 194 0094 E2FB650C 		UMAAL	r0, r12, r2, r5
 195 0098 E3FB640A 		UMAAL	r0, r10, r3, r4
 196 009c 4041     		ADCS	r0, r0, r0
 197 009e EEFB6E0B 		UMAAL	r0, r11, lr, lr
 198 00a2 E1FB6798 		UMAAL	r9, r8, r1, r7
 199 00a6 E2FB669A 		UMAAL	r9, r10, r2, r6
 200 00aa E3FB65C9 		UMAAL	r12, r9, r3, r5
 201 00ae 5CEB0C0C 		ADCS	r12, r12, r12
 202 00b2 E4FB64CB 		UMAAL	r12, r11, r4, r4
 203 00b6 E2FB6798 		UMAAL	r9, r8, r2, r7
 204 00ba E3FB66A9 		UMAAL	r10, r9, r3, r6
 205 00be 7246     		MOV	r2, lr
 206 00c0 E4FB65A2 		UMAAL	r10, r2, r4, r5
 207 00c4 5AEB0A0A 		ADCS	r10, r10, r10
 208 00c8 EEFB6EBA 		UMAAL	r11, r10, lr, lr
 209 00cc E3FB6728 		UMAAL	r2, r8, r3, r7
 210 00d0 E4FB6629 		UMAAL	r2, r9, r4, r6
 211 00d4 52EB0203 		ADCS	r3, r2, r2
 212 00d8 E5FB65A3 		UMAAL	r10, r3, r5, r5
 213 00dc 7146     		MOV	r1, lr
 214 00de E4FB6718 		UMAAL	r1, r8, r4, r7
 215 00e2 E5FB6619 		UMAAL	r1, r9, r5, r6
 216 00e6 51EB0104 		ADCS	r4, r1, r1
 217 00ea EEFB6E34 		UMAAL	r3, r4, lr, lr
 218 00ee E5FB6789 		UMAAL	r8, r9, r5, r7
 219 00f2 58EB0808 		ADCS	r8, r8, r8
 220 00f6 E6FB6648 		UMAAL	r4, r8, r6, r6
 221 00fa 7546     		MOV	r5, lr
 222 00fc E6FB6759 		UMAAL	r5, r9, r6, r7
 223 0100 6D41     		ADCS	r5, r5, r5
 224 0102 EEFB6E85 		UMAAL	r8, r5, lr, lr
 225 0106 59EB0909 		ADCS	r9, r9, r9
 226 010a E7FB6795 		UMAAL	r9, r5, r7, r7
 227 010e 55EB0E07 		ADCS	r7, r5, lr
 228 0112 DDF81CE0 		LDR	lr, [sp, #28]
 229 0116 0EF11C0E 		ADD	lr, lr, #0x1c
 230 011a AEE80110 		STM	lr!, {r0, r12}
 231 011e 4EF804BB 		STM	lr!, {r11}
ARM GAS  /tmp/ccwGYw5D.s 			page 5


 232 0122 4EF804AB 		STM	lr!, {r10}
 233 0126 AEE81803 		STM	lr!, {r3, r4, r8, r9}
 234 012a 4EF8047B 		STM	lr!, {r7}
 235 012e AEF1400E 		SUB	lr, lr, #0x40
 236 0132 9DE87F00 		LDM	sp, {r0, r1, r2, r3, r4, r5, r6}
 237 0136 8EE87F00 		STM	lr, {r0, r1, r2, r3, r4, r5, r6}
 238 013a 08B0     		ADD	sp, sp, #0x20
 239              		
 240              	@ 0 "" 2
 241              		.thumb
 242              		.syntax unified
 243 013c BDE8F08F 		pop	{r4, r5, r6, r7, r8, r9, r10, fp, pc}
 245              		.section	.text.sp_256_add_8,"ax",%progbits
 246              		.align	1
 247              		.syntax unified
 248              		.thumb
 249              		.thumb_func
 250              		.fpu fpv4-sp-d16
 252              	sp_256_add_8:
 253              		@ args = 0, pretend = 0, frame = 0
 254              		@ frame_needed = 0, uses_anonymous_args = 0
 255 0000 2DE9F047 		push	{r4, r5, r6, r7, r8, r9, r10, lr}
 256              		.syntax unified
 257              	@ 32694 "../wolfssl/wolfcrypt/src/sp_cortexm.c" 1
 258 0004 78C9     		LDM	r1!, {r3, r4, r5, r6}
 259 0006 B2E88007 		LDM	r2!, {r7, r8, r9, r10}
 260 000a DB19     		ADDS	r3, r3, r7
 261 000c 54EB0804 		ADCS	r4, r4, r8
 262 0010 55EB0905 		ADCS	r5, r5, r9
 263 0014 56EB0A06 		ADCS	r6, r6, r10
 264 0018 78C0     		STM	r0!, {r3, r4, r5, r6}
 265 001a 78C9     		LDM	r1!, {r3, r4, r5, r6}
 266 001c B2E88007 		LDM	r2!, {r7, r8, r9, r10}
 267 0020 7B41     		ADCS	r3, r3, r7
 268 0022 54EB0804 		ADCS	r4, r4, r8
 269 0026 55EB0905 		ADCS	r5, r5, r9
 270 002a 56EB0A06 		ADCS	r6, r6, r10
 271 002e 78C0     		STM	r0!, {r3, r4, r5, r6}
 272 0030 4FF00000 		MOV	r0, #0x0
 273 0034 40F10000 		ADC	r0, r0, #0x0
 274              		
 275              	@ 0 "" 2
 276              		.thumb
 277              		.syntax unified
 278 0038 BDE8F087 		pop	{r4, r5, r6, r7, r8, r9, r10, pc}
 280              		.section	.text.sp_256_cmp_8,"ax",%progbits
 281              		.align	1
 282              		.syntax unified
 283              		.thumb
 284              		.thumb_func
 285              		.fpu fpv4-sp-d16
 287              	sp_256_cmp_8:
 288              		@ args = 0, pretend = 0, frame = 0
 289              		@ frame_needed = 0, uses_anonymous_args = 0
 290 0000 2DE9F041 		push	{r4, r5, r6, r7, r8, lr}
 291              		.syntax unified
 292              	@ 34684 "../wolfssl/wolfcrypt/src/sp_cortexm.c" 1
ARM GAS  /tmp/ccwGYw5D.s 			page 6


 293 0004 4FF0FF32 		MOV	r2, #0xffffffff
 294 0008 4FF00108 		MOV	r8, #0x1
 295 000c 4FF00007 		MOV	r7, #0x0
 296 0010 4FF0FF33 		MOV	r3, #0xffffffff
 297 0014 C469     		LDR	r4, [r0, #28]
 298 0016 CD69     		LDR	r5, [r1, #28]
 299 0018 04EA0304 		AND	r4, r4, r3
 300 001c 05EA0305 		AND	r5, r5, r3
 301 0020 641B     		SUBS	r4, r4, r5
 302 0022 88BF     		IT	hi
 303 0024 4246     		movhi	r2, r8
 304 0026 38BF     		IT	lo
 305 0028 1A46     		movlo	r2, r3
 306 002a 18BF     		IT	ne
 307 002c 3B46     		movne	r3, r7
 308 002e 8469     		LDR	r4, [r0, #24]
 309 0030 8D69     		LDR	r5, [r1, #24]
 310 0032 04EA0304 		AND	r4, r4, r3
 311 0036 05EA0305 		AND	r5, r5, r3
 312 003a 641B     		SUBS	r4, r4, r5
 313 003c 88BF     		IT	hi
 314 003e 4246     		movhi	r2, r8
 315 0040 38BF     		IT	lo
 316 0042 1A46     		movlo	r2, r3
 317 0044 18BF     		IT	ne
 318 0046 3B46     		movne	r3, r7
 319 0048 4469     		LDR	r4, [r0, #20]
 320 004a 4D69     		LDR	r5, [r1, #20]
 321 004c 04EA0304 		AND	r4, r4, r3
 322 0050 05EA0305 		AND	r5, r5, r3
 323 0054 641B     		SUBS	r4, r4, r5
 324 0056 88BF     		IT	hi
 325 0058 4246     		movhi	r2, r8
 326 005a 38BF     		IT	lo
 327 005c 1A46     		movlo	r2, r3
 328 005e 18BF     		IT	ne
 329 0060 3B46     		movne	r3, r7
 330 0062 0469     		LDR	r4, [r0, #16]
 331 0064 0D69     		LDR	r5, [r1, #16]
 332 0066 04EA0304 		AND	r4, r4, r3
 333 006a 05EA0305 		AND	r5, r5, r3
 334 006e 641B     		SUBS	r4, r4, r5
 335 0070 88BF     		IT	hi
 336 0072 4246     		movhi	r2, r8
 337 0074 38BF     		IT	lo
 338 0076 1A46     		movlo	r2, r3
 339 0078 18BF     		IT	ne
 340 007a 3B46     		movne	r3, r7
 341 007c C468     		LDR	r4, [r0, #12]
 342 007e CD68     		LDR	r5, [r1, #12]
 343 0080 04EA0304 		AND	r4, r4, r3
 344 0084 05EA0305 		AND	r5, r5, r3
 345 0088 641B     		SUBS	r4, r4, r5
 346 008a 88BF     		IT	hi
 347 008c 4246     		movhi	r2, r8
 348 008e 38BF     		IT	lo
 349 0090 1A46     		movlo	r2, r3
ARM GAS  /tmp/ccwGYw5D.s 			page 7


 350 0092 18BF     		IT	ne
 351 0094 3B46     		movne	r3, r7
 352 0096 8468     		LDR	r4, [r0, #8]
 353 0098 8D68     		LDR	r5, [r1, #8]
 354 009a 04EA0304 		AND	r4, r4, r3
 355 009e 05EA0305 		AND	r5, r5, r3
 356 00a2 641B     		SUBS	r4, r4, r5
 357 00a4 88BF     		IT	hi
 358 00a6 4246     		movhi	r2, r8
 359 00a8 38BF     		IT	lo
 360 00aa 1A46     		movlo	r2, r3
 361 00ac 18BF     		IT	ne
 362 00ae 3B46     		movne	r3, r7
 363 00b0 4468     		LDR	r4, [r0, #4]
 364 00b2 4D68     		LDR	r5, [r1, #4]
 365 00b4 04EA0304 		AND	r4, r4, r3
 366 00b8 05EA0305 		AND	r5, r5, r3
 367 00bc 641B     		SUBS	r4, r4, r5
 368 00be 88BF     		IT	hi
 369 00c0 4246     		movhi	r2, r8
 370 00c2 38BF     		IT	lo
 371 00c4 1A46     		movlo	r2, r3
 372 00c6 18BF     		IT	ne
 373 00c8 3B46     		movne	r3, r7
 374 00ca 0468     		LDR	r4, [r0]
 375 00cc 0D68     		LDR	r5, [r1]
 376 00ce 04EA0304 		AND	r4, r4, r3
 377 00d2 05EA0305 		AND	r5, r5, r3
 378 00d6 641B     		SUBS	r4, r4, r5
 379 00d8 88BF     		IT	hi
 380 00da 4246     		movhi	r2, r8
 381 00dc 38BF     		IT	lo
 382 00de 1A46     		movlo	r2, r3
 383 00e0 18BF     		IT	ne
 384 00e2 3B46     		movne	r3, r7
 385 00e4 82EA0302 		EOR	r2, r2, r3
 386 00e8 1046     		MOV	r0, r2
 387              		
 388              	@ 0 "" 2
 389              		.thumb
 390              		.syntax unified
 391 00ea BDE8F081 		pop	{r4, r5, r6, r7, r8, pc}
 393              		.section	.text.sp_256_cmp_equal_8,"ax",%progbits
 394              		.align	1
 395              		.syntax unified
 396              		.thumb
 397              		.thumb_func
 398              		.fpu fpv4-sp-d16
 400              	sp_256_cmp_equal_8:
 401              		@ args = 0, pretend = 0, frame = 0
 402              		@ frame_needed = 0, uses_anonymous_args = 0
 403 0000 0368     		ldr	r3, [r0]
 404 0002 0A68     		ldr	r2, [r1]
 405 0004 10B5     		push	{r4, lr}
 406 0006 5340     		eors	r3, r3, r2
 407 0008 4C68     		ldr	r4, [r1, #4]
 408 000a 4268     		ldr	r2, [r0, #4]
ARM GAS  /tmp/ccwGYw5D.s 			page 8


 409 000c 6240     		eors	r2, r2, r4
 410 000e 1343     		orrs	r3, r3, r2
 411 0010 8C68     		ldr	r4, [r1, #8]
 412 0012 8268     		ldr	r2, [r0, #8]
 413 0014 6240     		eors	r2, r2, r4
 414 0016 1343     		orrs	r3, r3, r2
 415 0018 CC68     		ldr	r4, [r1, #12]
 416 001a C268     		ldr	r2, [r0, #12]
 417 001c 6240     		eors	r2, r2, r4
 418 001e 1343     		orrs	r3, r3, r2
 419 0020 0C69     		ldr	r4, [r1, #16]
 420 0022 0269     		ldr	r2, [r0, #16]
 421 0024 6240     		eors	r2, r2, r4
 422 0026 1343     		orrs	r3, r3, r2
 423 0028 4C69     		ldr	r4, [r1, #20]
 424 002a 4269     		ldr	r2, [r0, #20]
 425 002c 6240     		eors	r2, r2, r4
 426 002e 1343     		orrs	r3, r3, r2
 427 0030 8C69     		ldr	r4, [r1, #24]
 428 0032 8269     		ldr	r2, [r0, #24]
 429 0034 C969     		ldr	r1, [r1, #28]
 430 0036 6240     		eors	r2, r2, r4
 431 0038 1343     		orrs	r3, r3, r2
 432 003a C269     		ldr	r2, [r0, #28]
 433 003c 4A40     		eors	r2, r2, r1
 434 003e 1343     		orrs	r3, r3, r2
 435 0040 0CBF     		ite	eq
 436 0042 0120     		moveq	r0, #1
 437 0044 0020     		movne	r0, #0
 438 0046 10BD     		pop	{r4, pc}
 440              		.section	.text.sp_256_iszero_8,"ax",%progbits
 441              		.align	1
 442              		.syntax unified
 443              		.thumb
 444              		.thumb_func
 445              		.fpu fpv4-sp-d16
 447              	sp_256_iszero_8:
 448              		@ args = 0, pretend = 0, frame = 0
 449              		@ frame_needed = 0, uses_anonymous_args = 0
 450              		@ link register save eliminated.
 451 0000 D0E90032 		ldrd	r3, r2, [r0]
 452 0004 1343     		orrs	r3, r3, r2
 453 0006 8268     		ldr	r2, [r0, #8]
 454 0008 1343     		orrs	r3, r3, r2
 455 000a C268     		ldr	r2, [r0, #12]
 456 000c 1343     		orrs	r3, r3, r2
 457 000e 0269     		ldr	r2, [r0, #16]
 458 0010 1343     		orrs	r3, r3, r2
 459 0012 4269     		ldr	r2, [r0, #20]
 460 0014 1343     		orrs	r3, r3, r2
 461 0016 8269     		ldr	r2, [r0, #24]
 462 0018 1343     		orrs	r3, r3, r2
 463 001a C269     		ldr	r2, [r0, #28]
 464 001c 1343     		orrs	r3, r3, r2
 465 001e 0CBF     		ite	eq
 466 0020 0120     		moveq	r0, #1
 467 0022 0020     		movne	r0, #0
ARM GAS  /tmp/ccwGYw5D.s 			page 9


 468 0024 7047     		bx	lr
 470              		.section	.text.sp_256_get_point_16_8,"ax",%progbits
 471              		.align	1
 472              		.syntax unified
 473              		.thumb
 474              		.thumb_func
 475              		.fpu fpv4-sp-d16
 477              	sp_256_get_point_16_8:
 478              		@ args = 0, pretend = 0, frame = 0
 479              		@ frame_needed = 0, uses_anonymous_args = 0
 480 0000 0023     		movs	r3, #0
 481 0002 70B5     		push	{r4, r5, r6, lr}
 482 0004 0124     		movs	r4, #1
 483 0006 C0E90033 		strd	r3, r3, [r0]
 484 000a C0E90233 		strd	r3, r3, [r0, #8]
 485 000e C0E90433 		strd	r3, r3, [r0, #16]
 486 0012 C0E90633 		strd	r3, r3, [r0, #24]
 487 0016 C0E91033 		strd	r3, r3, [r0, #64]
 488 001a C0E91233 		strd	r3, r3, [r0, #72]
 489 001e C0E91433 		strd	r3, r3, [r0, #80]
 490 0022 C0E91633 		strd	r3, r3, [r0, #88]
 491 0026 C0E92033 		strd	r3, r3, [r0, #128]
 492 002a C0E92233 		strd	r3, r3, [r0, #136]
 493 002e C0E92433 		strd	r3, r3, [r0, #144]
 494 0032 C0E92633 		strd	r3, r3, [r0, #152]
 495              	.L12:
 496 0036 A242     		cmp	r2, r4
 497 0038 4FF0FF33 		mov	r3, #-1
 498 003c 18BF     		it	ne
 499 003e 0023     		movne	r3, #0
 500 0040 D1F8C450 		ldr	r5, [r1, #196]
 501 0044 0134     		adds	r4, r4, #1
 502 0046 03EA0506 		and	r6, r3, r5
 503 004a 0568     		ldr	r5, [r0]
 504 004c 102C     		cmp	r4, #16
 505 004e 45EA0605 		orr	r5, r5, r6
 506 0052 0560     		str	r5, [r0]
 507 0054 D1F8C850 		ldr	r5, [r1, #200]
 508 0058 01F1C401 		add	r1, r1, #196
 509 005c 03EA0506 		and	r6, r3, r5
 510 0060 4568     		ldr	r5, [r0, #4]
 511 0062 45EA0605 		orr	r5, r5, r6
 512 0066 4560     		str	r5, [r0, #4]
 513 0068 8D68     		ldr	r5, [r1, #8]
 514 006a 03EA0506 		and	r6, r3, r5
 515 006e 8568     		ldr	r5, [r0, #8]
 516 0070 45EA0605 		orr	r5, r5, r6
 517 0074 8560     		str	r5, [r0, #8]
 518 0076 CD68     		ldr	r5, [r1, #12]
 519 0078 03EA0506 		and	r6, r3, r5
 520 007c C568     		ldr	r5, [r0, #12]
 521 007e 45EA0605 		orr	r5, r5, r6
 522 0082 C560     		str	r5, [r0, #12]
 523 0084 0D69     		ldr	r5, [r1, #16]
 524 0086 03EA0506 		and	r6, r3, r5
 525 008a 0569     		ldr	r5, [r0, #16]
 526 008c 45EA0605 		orr	r5, r5, r6
ARM GAS  /tmp/ccwGYw5D.s 			page 10


 527 0090 0561     		str	r5, [r0, #16]
 528 0092 4D69     		ldr	r5, [r1, #20]
 529 0094 03EA0506 		and	r6, r3, r5
 530 0098 4569     		ldr	r5, [r0, #20]
 531 009a 45EA0605 		orr	r5, r5, r6
 532 009e 4561     		str	r5, [r0, #20]
 533 00a0 8D69     		ldr	r5, [r1, #24]
 534 00a2 03EA0506 		and	r6, r3, r5
 535 00a6 8569     		ldr	r5, [r0, #24]
 536 00a8 45EA0605 		orr	r5, r5, r6
 537 00ac 8561     		str	r5, [r0, #24]
 538 00ae CD69     		ldr	r5, [r1, #28]
 539 00b0 03EA0506 		and	r6, r3, r5
 540 00b4 C569     		ldr	r5, [r0, #28]
 541 00b6 45EA0605 		orr	r5, r5, r6
 542 00ba C561     		str	r5, [r0, #28]
 543 00bc 0D6C     		ldr	r5, [r1, #64]
 544 00be 03EA0506 		and	r6, r3, r5
 545 00c2 056C     		ldr	r5, [r0, #64]
 546 00c4 45EA0605 		orr	r5, r5, r6
 547 00c8 0564     		str	r5, [r0, #64]
 548 00ca 4D6C     		ldr	r5, [r1, #68]
 549 00cc 03EA0506 		and	r6, r3, r5
 550 00d0 456C     		ldr	r5, [r0, #68]
 551 00d2 45EA0605 		orr	r5, r5, r6
 552 00d6 4564     		str	r5, [r0, #68]
 553 00d8 8D6C     		ldr	r5, [r1, #72]
 554 00da 03EA0506 		and	r6, r3, r5
 555 00de 856C     		ldr	r5, [r0, #72]
 556 00e0 45EA0605 		orr	r5, r5, r6
 557 00e4 8564     		str	r5, [r0, #72]
 558 00e6 CD6C     		ldr	r5, [r1, #76]
 559 00e8 03EA0506 		and	r6, r3, r5
 560 00ec C56C     		ldr	r5, [r0, #76]
 561 00ee 45EA0605 		orr	r5, r5, r6
 562 00f2 C564     		str	r5, [r0, #76]
 563 00f4 0D6D     		ldr	r5, [r1, #80]
 564 00f6 03EA0506 		and	r6, r3, r5
 565 00fa 056D     		ldr	r5, [r0, #80]
 566 00fc 45EA0605 		orr	r5, r5, r6
 567 0100 0565     		str	r5, [r0, #80]
 568 0102 4D6D     		ldr	r5, [r1, #84]
 569 0104 03EA0506 		and	r6, r3, r5
 570 0108 456D     		ldr	r5, [r0, #84]
 571 010a 45EA0605 		orr	r5, r5, r6
 572 010e 4565     		str	r5, [r0, #84]
 573 0110 8D6D     		ldr	r5, [r1, #88]
 574 0112 03EA0506 		and	r6, r3, r5
 575 0116 856D     		ldr	r5, [r0, #88]
 576 0118 45EA0605 		orr	r5, r5, r6
 577 011c 8565     		str	r5, [r0, #88]
 578 011e CD6D     		ldr	r5, [r1, #92]
 579 0120 03EA0506 		and	r6, r3, r5
 580 0124 C56D     		ldr	r5, [r0, #92]
 581 0126 45EA0605 		orr	r5, r5, r6
 582 012a C565     		str	r5, [r0, #92]
 583 012c D1F88050 		ldr	r5, [r1, #128]
ARM GAS  /tmp/ccwGYw5D.s 			page 11


 584 0130 03EA0506 		and	r6, r3, r5
 585 0134 D0F88050 		ldr	r5, [r0, #128]
 586 0138 45EA0605 		orr	r5, r5, r6
 587 013c C0F88050 		str	r5, [r0, #128]
 588 0140 D1F88450 		ldr	r5, [r1, #132]
 589 0144 03EA0506 		and	r6, r3, r5
 590 0148 D0F88450 		ldr	r5, [r0, #132]
 591 014c 45EA0605 		orr	r5, r5, r6
 592 0150 C0F88450 		str	r5, [r0, #132]
 593 0154 D1F88850 		ldr	r5, [r1, #136]
 594 0158 03EA0506 		and	r6, r3, r5
 595 015c D0F88850 		ldr	r5, [r0, #136]
 596 0160 45EA0605 		orr	r5, r5, r6
 597 0164 C0F88850 		str	r5, [r0, #136]
 598 0168 D1F88C50 		ldr	r5, [r1, #140]
 599 016c 03EA0506 		and	r6, r3, r5
 600 0170 D0F88C50 		ldr	r5, [r0, #140]
 601 0174 45EA0605 		orr	r5, r5, r6
 602 0178 C0F88C50 		str	r5, [r0, #140]
 603 017c D1F89050 		ldr	r5, [r1, #144]
 604 0180 03EA0506 		and	r6, r3, r5
 605 0184 D0F89050 		ldr	r5, [r0, #144]
 606 0188 45EA0605 		orr	r5, r5, r6
 607 018c C0F89050 		str	r5, [r0, #144]
 608 0190 D1F89450 		ldr	r5, [r1, #148]
 609 0194 03EA0506 		and	r6, r3, r5
 610 0198 D0F89450 		ldr	r5, [r0, #148]
 611 019c 45EA0605 		orr	r5, r5, r6
 612 01a0 C0F89450 		str	r5, [r0, #148]
 613 01a4 D1F89850 		ldr	r5, [r1, #152]
 614 01a8 03EA0506 		and	r6, r3, r5
 615 01ac D0F89850 		ldr	r5, [r0, #152]
 616 01b0 45EA0605 		orr	r5, r5, r6
 617 01b4 C0F89850 		str	r5, [r0, #152]
 618 01b8 D1F89C50 		ldr	r5, [r1, #156]
 619 01bc 03EA0503 		and	r3, r3, r5
 620 01c0 D0F89C50 		ldr	r5, [r0, #156]
 621 01c4 43EA0503 		orr	r3, r3, r5
 622 01c8 C0F89C30 		str	r3, [r0, #156]
 623 01cc 7FF433AF 		bne	.L12
 624 01d0 70BD     		pop	{r4, r5, r6, pc}
 626              		.section	.text.sp_256_add_one_8,"ax",%progbits
 627              		.align	1
 628              		.syntax unified
 629              		.thumb
 630              		.thumb_func
 631              		.fpu fpv4-sp-d16
 633              	sp_256_add_one_8:
 634              		@ args = 0, pretend = 0, frame = 0
 635              		@ frame_needed = 0, uses_anonymous_args = 0
 636 0000 10B5     		push	{r4, lr}
 637              		.syntax unified
 638              	@ 39276 "../wolfssl/wolfcrypt/src/sp_cortexm.c" 1
 639 0002 90E81E00 		LDM	r0, {r1, r2, r3, r4}
 640 0006 0131     		ADDS	r1, r1, #0x1
 641 0008 52F10002 		ADCS	r2, r2, #0x0
 642 000c 53F10003 		ADCS	r3, r3, #0x0
ARM GAS  /tmp/ccwGYw5D.s 			page 12


 643 0010 54F10004 		ADCS	r4, r4, #0x0
 644 0014 1EC0     		STM	r0!, {r1, r2, r3, r4}
 645 0016 90E81E00 		LDM	r0, {r1, r2, r3, r4}
 646 001a 51F10001 		ADCS	r1, r1, #0x0
 647 001e 52F10002 		ADCS	r2, r2, #0x0
 648 0022 53F10003 		ADCS	r3, r3, #0x0
 649 0026 54F10004 		ADCS	r4, r4, #0x0
 650 002a 1EC0     		STM	r0!, {r1, r2, r3, r4}
 651              		
 652              	@ 0 "" 2
 653              		.thumb
 654              		.syntax unified
 655 002c 10BD     		pop	{r4, pc}
 657              		.section	.text.sp_256_sub_in_place_8,"ax",%progbits
 658              		.align	1
 659              		.syntax unified
 660              		.thumb
 661              		.thumb_func
 662              		.fpu fpv4-sp-d16
 664              	sp_256_sub_in_place_8:
 665              		@ args = 0, pretend = 0, frame = 0
 666              		@ frame_needed = 0, uses_anonymous_args = 0
 667 0000 2DE9F043 		push	{r4, r5, r6, r7, r8, r9, lr}
 668              		.syntax unified
 669              	@ 39711 "../wolfssl/wolfcrypt/src/sp_cortexm.c" 1
 670 0004 90E83C00 		LDM	r0, {r2, r3, r4, r5}
 671 0008 B1E8C003 		LDM	r1!, {r6, r7, r8, r9}
 672 000c 921B     		SUBS	r2, r2, r6
 673 000e BB41     		SBCS	r3, r3, r7
 674 0010 74EB0804 		SBCS	r4, r4, r8
 675 0014 75EB0905 		SBCS	r5, r5, r9
 676 0018 3CC0     		STM	r0!, {r2, r3, r4, r5}
 677 001a 90E83C00 		LDM	r0, {r2, r3, r4, r5}
 678 001e B1E8C003 		LDM	r1!, {r6, r7, r8, r9}
 679 0022 B241     		SBCS	r2, r2, r6
 680 0024 BB41     		SBCS	r3, r3, r7
 681 0026 74EB0804 		SBCS	r4, r4, r8
 682 002a 75EB0905 		SBCS	r5, r5, r9
 683 002e 3CC0     		STM	r0!, {r2, r3, r4, r5}
 684 0030 69EB0900 		SBC	r0, r9, r9
 685              		
 686              	@ 0 "" 2
 687              		.thumb
 688              		.syntax unified
 689 0034 BDE8F083 		pop	{r4, r5, r6, r7, r8, r9, pc}
 691              		.section	.text.sp_256_mul_d_8,"ax",%progbits
 692              		.align	1
 693              		.syntax unified
 694              		.thumb
 695              		.thumb_func
 696              		.fpu fpv4-sp-d16
 698              	sp_256_mul_d_8:
 699              		@ args = 0, pretend = 0, frame = 0
 700              		@ frame_needed = 0, uses_anonymous_args = 0
 701 0000 2DE9F041 		push	{r4, r5, r6, r7, r8, lr}
 702              		.syntax unified
 703              	@ 39817 "../wolfssl/wolfcrypt/src/sp_cortexm.c" 1
ARM GAS  /tmp/ccwGYw5D.s 			page 13


 704 0004 51F8048B 		LDM	r1!, {r8}
 705 0008 A2FB0834 		UMULL	r3, r4, r2, r8
 706 000c 08C0     		STM	r0!, {r3}
 707 000e 4FF00005 		MOV	r5, #0x0
 708 0012 51F8048B 		LDM	r1!, {r8}
 709 0016 E2FB0845 		UMLAL	r4, r5, r2, r8
 710 001a 10C0     		STM	r0!, {r4}
 711 001c 4FF00003 		MOV	r3, #0x0
 712 0020 51F8048B 		LDM	r1!, {r8}
 713 0024 E2FB0853 		UMLAL	r5, r3, r2, r8
 714 0028 20C0     		STM	r0!, {r5}
 715 002a 4FF00004 		MOV	r4, #0x0
 716 002e 51F8048B 		LDM	r1!, {r8}
 717 0032 E2FB0834 		UMLAL	r3, r4, r2, r8
 718 0036 08C0     		STM	r0!, {r3}
 719 0038 4FF00005 		MOV	r5, #0x0
 720 003c 51F8048B 		LDM	r1!, {r8}
 721 0040 E2FB0845 		UMLAL	r4, r5, r2, r8
 722 0044 10C0     		STM	r0!, {r4}
 723 0046 4FF00003 		MOV	r3, #0x0
 724 004a 51F8048B 		LDM	r1!, {r8}
 725 004e E2FB0853 		UMLAL	r5, r3, r2, r8
 726 0052 20C0     		STM	r0!, {r5}
 727 0054 4FF00004 		MOV	r4, #0x0
 728 0058 51F8048B 		LDM	r1!, {r8}
 729 005c E2FB0834 		UMLAL	r3, r4, r2, r8
 730 0060 08C0     		STM	r0!, {r3}
 731 0062 4FF00005 		MOV	r5, #0x0
 732 0066 51F8048B 		LDM	r1!, {r8}
 733 006a E2FB0845 		UMLAL	r4, r5, r2, r8
 734 006e 10C0     		STM	r0!, {r4}
 735 0070 0560     		STR	r5, [r0]
 736              		
 737              	@ 0 "" 2
 738              		.thumb
 739              		.syntax unified
 740 0072 BDE8F081 		pop	{r4, r5, r6, r7, r8, pc}
 742              		.section	.text.div_256_word_8,"ax",%progbits
 743              		.align	1
 744              		.syntax unified
 745              		.thumb
 746              		.thumb_func
 747              		.fpu fpv4-sp-d16
 749              	div_256_word_8:
 750              		@ args = 0, pretend = 0, frame = 0
 751              		@ frame_needed = 0, uses_anonymous_args = 0
 752 0000 2DE9F047 		push	{r4, r5, r6, r7, r8, r9, r10, lr}
 753              		.syntax unified
 754              	@ 39956 "../wolfssl/wolfcrypt/src/sp_cortexm.c" 1
 755 0004 4FEA5205 		LSR	r5, r2, #1
 756 0008 05F10105 		ADD	r5, r5, #0x1
 757 000c 0E46     		MOV	r6, r1
 758 000e 0746     		MOV	r7, r0
 759 0010 B5EB0708 		SUBS	r8, r5, r7
 760 0014 68EB0808 		SBC	r8, r8, r8
 761 0018 4FF00003 		MOV	r3, #0x0
 762 001c A3EB0803 		SUB	r3, r3, r8
ARM GAS  /tmp/ccwGYw5D.s 			page 14


 763 0020 08EA0508 		AND	r8, r8, r5
 764 0024 B7EB0807 		SUBS	r7, r7, r8
 765 0028 4FF01D04 		MOV	r4, #0x1d
 766              		
 767              	L_div_256_word_8_bit_307:
 768 002c 7600     		LSLS	r6, r6, #1
 769 002e 47EB0707 		ADC	r7, r7, r7
 770 0032 B5EB0708 		SUBS	r8, r5, r7
 771 0036 68EB0808 		SBC	r8, r8, r8
 772 003a 1B44     		ADD	r3, r3, r3
 773 003c A3EB0803 		SUB	r3, r3, r8
 774 0040 08EA0508 		AND	r8, r8, r5
 775 0044 B7EB0807 		SUBS	r7, r7, r8
 776 0048 013C     		SUBS	r4, r4, #0x1
 777 004a EFD5     		BPL	L_div_256_word_8_bit_307
 778 004c 1B44     		ADD	r3, r3, r3
 779 004e 03F10103 		ADD	r3, r3, #0x1
 780 0052 A3FB0267 		UMULL	r6, r7, r3, r2
 781 0056 B1EB0609 		SUBS	r9, r1, r6
 782 005a 60EB070A 		SBC	r10, r0, r7
 783 005e 5344     		ADD	r3, r3, r10
 784 0060 A3FB0267 		UMULL	r6, r7, r3, r2
 785 0064 B1EB0609 		SUBS	r9, r1, r6
 786 0068 60EB070A 		SBC	r10, r0, r7
 787 006c 5344     		ADD	r3, r3, r10
 788 006e A3FB0267 		UMULL	r6, r7, r3, r2
 789 0072 B1EB0609 		SUBS	r9, r1, r6
 790 0076 60EB070A 		SBC	r10, r0, r7
 791 007a 5344     		ADD	r3, r3, r10
 792 007c B2EB0908 		SUBS	r8, r2, r9
 793 0080 68EB0808 		SBC	r8, r8, r8
 794 0084 A3EB0800 		SUB	r0, r3, r8
 795              		
 796              	@ 0 "" 2
 797              		.thumb
 798              		.syntax unified
 799 0088 BDE8F087 		pop	{r4, r5, r6, r7, r8, r9, r10, pc}
 801              		.section	.text.sp_256_sub_8,"ax",%progbits
 802              		.align	1
 803              		.syntax unified
 804              		.thumb
 805              		.thumb_func
 806              		.fpu fpv4-sp-d16
 808              	sp_256_sub_8:
 809              		@ args = 0, pretend = 0, frame = 0
 810              		@ frame_needed = 0, uses_anonymous_args = 0
 811 0000 2DE9F047 		push	{r4, r5, r6, r7, r8, r9, r10, lr}
 812              		.syntax unified
 813              	@ 40705 "../wolfssl/wolfcrypt/src/sp_cortexm.c" 1
 814 0004 78C9     		LDM	r1!, {r3, r4, r5, r6}
 815 0006 B2E88007 		LDM	r2!, {r7, r8, r9, r10}
 816 000a DB1B     		SUBS	r3, r3, r7
 817 000c 74EB0804 		SBCS	r4, r4, r8
 818 0010 75EB0905 		SBCS	r5, r5, r9
 819 0014 76EB0A06 		SBCS	r6, r6, r10
 820 0018 78C0     		STM	r0!, {r3, r4, r5, r6}
 821 001a 78C9     		LDM	r1!, {r3, r4, r5, r6}
ARM GAS  /tmp/ccwGYw5D.s 			page 15


 822 001c B2E88007 		LDM	r2!, {r7, r8, r9, r10}
 823 0020 BB41     		SBCS	r3, r3, r7
 824 0022 74EB0804 		SBCS	r4, r4, r8
 825 0026 75EB0905 		SBCS	r5, r5, r9
 826 002a 76EB0A06 		SBCS	r6, r6, r10
 827 002e 78C0     		STM	r0!, {r3, r4, r5, r6}
 828 0030 66EB0600 		SBC	r0, r6, r6
 829              		
 830              	@ 0 "" 2
 831              		.thumb
 832              		.syntax unified
 833 0034 BDE8F087 		pop	{r4, r5, r6, r7, r8, r9, r10, pc}
 835              		.section	.text.sp_256_rshift1_8,"ax",%progbits
 836              		.align	1
 837              		.syntax unified
 838              		.thumb
 839              		.thumb_func
 840              		.fpu fpv4-sp-d16
 842              	sp_256_rshift1_8:
 843              		@ args = 0, pretend = 0, frame = 0
 844              		@ frame_needed = 0, uses_anonymous_args = 0
 845 0000 2DE9F04F 		push	{r4, r5, r6, r7, r8, r9, r10, fp, lr}
 846              		.syntax unified
 847              	@ 40742 "../wolfssl/wolfcrypt/src/sp_cortexm.c" 1
 848 0004 4FF0000A 		MOV	r10, #0x0
 849 0008 D1E90423 		LDRD	r2, r3, [r1, #16]
 850 000c D1E90645 		LDRD	r4, r5, [r1, #24]
 851 0010 4FEA5206 		LSR	r6, r2, #1
 852 0014 4FEA5307 		LSR	r7, r3, #1
 853 0018 4FEA5408 		LSR	r8, r4, #1
 854 001c 4FEA5509 		LSR	r9, r5, #1
 855 0020 46EAC376 		ORR	r6, r6, r3, lsl #31
 856 0024 47EAC477 		ORR	r7, r7, r4, lsl #31
 857 0028 48EAC578 		ORR	r8, r8, r5, lsl #31
 858 002c 49EACA79 		ORR	r9, r9, r10, lsl #31
 859 0030 9246     		MOV	r10, r2
 860 0032 C0E90467 		STRD	r6, r7, [r0, #16]
 861 0036 C0E90689 		STRD	r8, r9, [r0, #24]
 862 003a D1E90023 		LDRD	r2, r3, [r1]
 863 003e D1E90245 		LDRD	r4, r5, [r1, #8]
 864 0042 4FEA5206 		LSR	r6, r2, #1
 865 0046 4FEA5307 		LSR	r7, r3, #1
 866 004a 4FEA5408 		LSR	r8, r4, #1
 867 004e 4FEA5509 		LSR	r9, r5, #1
 868 0052 46EAC376 		ORR	r6, r6, r3, lsl #31
 869 0056 47EAC477 		ORR	r7, r7, r4, lsl #31
 870 005a 48EAC578 		ORR	r8, r8, r5, lsl #31
 871 005e 49EACA79 		ORR	r9, r9, r10, lsl #31
 872 0062 C0E90067 		STRD	r6, r7, [r0]
 873 0066 C0E90289 		STRD	r8, r9, [r0, #8]
 874              		
 875              	@ 0 "" 2
 876              		.thumb
 877              		.syntax unified
 878 006a BDE8F08F 		pop	{r4, r5, r6, r7, r8, r9, r10, fp, pc}
 880              		.section	.text.sp_256_num_bits_8,"ax",%progbits
 881              		.align	1
ARM GAS  /tmp/ccwGYw5D.s 			page 16


 882              		.syntax unified
 883              		.thumb
 884              		.thumb_func
 885              		.fpu fpv4-sp-d16
 887              	sp_256_num_bits_8:
 888              		@ args = 0, pretend = 0, frame = 0
 889              		@ frame_needed = 0, uses_anonymous_args = 0
 890 0000 30B5     		push	{r4, r5, lr}
 891              		.syntax unified
 892              	@ 40881 "../wolfssl/wolfcrypt/src/sp_cortexm.c" 1
 893 0002 C169     		LDR	r1, [r0, #28]
 894 0004 0029     		CMP	r1, #0x0
 895 0006 06D0     		BEQ	L_sp_256_num_bits_8_7_339
 896 0008 4FF48072 		MOV	r2, #0x100
 897 000c B1FA81F4 		CLZ	r4, r1
 898 0010 A2EB0404 		SUB	r4, r2, r4
 899 0014 42E0     		B	L_sp_256_num_bits_8_9_339
 900              		
 901              	L_sp_256_num_bits_8_7_339:
 902 0016 8169     		LDR	r1, [r0, #24]
 903 0018 0029     		CMP	r1, #0x0
 904 001a 06D0     		BEQ	L_sp_256_num_bits_8_6_339
 905 001c 4FF0E002 		MOV	r2, #0xe0
 906 0020 B1FA81F4 		CLZ	r4, r1
 907 0024 A2EB0404 		SUB	r4, r2, r4
 908 0028 38E0     		B	L_sp_256_num_bits_8_9_339
 909              		
 910              	L_sp_256_num_bits_8_6_339:
 911 002a 4169     		LDR	r1, [r0, #20]
 912 002c 0029     		CMP	r1, #0x0
 913 002e 06D0     		BEQ	L_sp_256_num_bits_8_5_339
 914 0030 4FF0C002 		MOV	r2, #0xc0
 915 0034 B1FA81F4 		CLZ	r4, r1
 916 0038 A2EB0404 		SUB	r4, r2, r4
 917 003c 2EE0     		B	L_sp_256_num_bits_8_9_339
 918              		
 919              	L_sp_256_num_bits_8_5_339:
 920 003e 0169     		LDR	r1, [r0, #16]
 921 0040 0029     		CMP	r1, #0x0
 922 0042 06D0     		BEQ	L_sp_256_num_bits_8_4_339
 923 0044 4FF0A002 		MOV	r2, #0xa0
 924 0048 B1FA81F4 		CLZ	r4, r1
 925 004c A2EB0404 		SUB	r4, r2, r4
 926 0050 24E0     		B	L_sp_256_num_bits_8_9_339
 927              		
 928              	L_sp_256_num_bits_8_4_339:
 929 0052 C168     		LDR	r1, [r0, #12]
 930 0054 0029     		CMP	r1, #0x0
 931 0056 06D0     		BEQ	L_sp_256_num_bits_8_3_339
 932 0058 4FF08002 		MOV	r2, #0x80
 933 005c B1FA81F4 		CLZ	r4, r1
 934 0060 A2EB0404 		SUB	r4, r2, r4
 935 0064 1AE0     		B	L_sp_256_num_bits_8_9_339
 936              		
 937              	L_sp_256_num_bits_8_3_339:
 938 0066 8168     		LDR	r1, [r0, #8]
 939 0068 0029     		CMP	r1, #0x0
ARM GAS  /tmp/ccwGYw5D.s 			page 17


 940 006a 06D0     		BEQ	L_sp_256_num_bits_8_2_339
 941 006c 4FF06002 		MOV	r2, #0x60
 942 0070 B1FA81F4 		CLZ	r4, r1
 943 0074 A2EB0404 		SUB	r4, r2, r4
 944 0078 10E0     		B	L_sp_256_num_bits_8_9_339
 945              		
 946              	L_sp_256_num_bits_8_2_339:
 947 007a 4168     		LDR	r1, [r0, #4]
 948 007c 0029     		CMP	r1, #0x0
 949 007e 06D0     		BEQ	L_sp_256_num_bits_8_1_339
 950 0080 4FF04002 		MOV	r2, #0x40
 951 0084 B1FA81F4 		CLZ	r4, r1
 952 0088 A2EB0404 		SUB	r4, r2, r4
 953 008c 06E0     		B	L_sp_256_num_bits_8_9_339
 954              		
 955              	L_sp_256_num_bits_8_1_339:
 956 008e 0168     		LDR	r1, [r0]
 957 0090 4FF02002 		MOV	r2, #0x20
 958 0094 B1FA81F4 		CLZ	r4, r1
 959 0098 A2EB0404 		SUB	r4, r2, r4
 960              		
 961              	L_sp_256_num_bits_8_9_339:
 962 009c 2046     		MOV	r0, r4
 963              		
 964              	@ 0 "" 2
 965              		.thumb
 966              		.syntax unified
 967 009e 30BD     		pop	{r4, r5, pc}
 969              		.section	.text.ForceZero,"ax",%progbits
 970              		.align	1
 971              		.syntax unified
 972              		.thumb
 973              		.thumb_func
 974              		.fpu fpv4-sp-d16
 976              	ForceZero:
 977              		@ args = 0, pretend = 0, frame = 8
 978              		@ frame_needed = 0, uses_anonymous_args = 0
 979 0000 73B5     		push	{r0, r1, r4, r5, r6, lr}
 980 0002 0346     		mov	r3, r0
 981 0004 0C46     		mov	r4, r1
 982 0006 BFF35B8F 		dmb	ish
 983 000a 0022     		movs	r2, #0
 984              	.L29:
 985 000c 13F00301 		ands	r1, r3, #3
 986 0010 13D1     		bne	.L31
 987 0012 24F00305 		bic	r5, r4, #3
 988 0016 2A46     		mov	r2, r5
 989 0018 1846     		mov	r0, r3
 990 001a 0191     		str	r1, [sp, #4]
 991 001c FFF7FEFF 		bl	memset
 992 0020 6FF00302 		mvn	r2, #3
 993 0024 A608     		lsrs	r6, r4, #2
 994 0026 02FB0642 		mla	r2, r2, r6, r4
 995 002a 0199     		ldr	r1, [sp, #4]
 996 002c 2844     		add	r0, r0, r5
 997 002e FFF7FEFF 		bl	memset
 998 0032 BFF35B8F 		dmb	ish
ARM GAS  /tmp/ccwGYw5D.s 			page 18


 999              	.L28:
 1000 0036 02B0     		add	sp, sp, #8
 1001              		@ sp needed
 1002 0038 70BD     		pop	{r4, r5, r6, pc}
 1003              	.L31:
 1004 003a 002C     		cmp	r4, #0
 1005 003c FBD0     		beq	.L28
 1006 003e 03F8012B 		strb	r2, [r3], #1
 1007 0042 013C     		subs	r4, r4, #1
 1008 0044 E2E7     		b	.L29
 1010              		.section	.text.sp_256_to_mp,"ax",%progbits
 1011              		.align	1
 1012              		.syntax unified
 1013              		.thumb
 1014              		.thumb_func
 1015              		.fpu fpv4-sp-d16
 1017              	sp_256_to_mp:
 1018              		@ args = 0, pretend = 0, frame = 0
 1019              		@ frame_needed = 0, uses_anonymous_args = 0
 1020 0000 38B5     		push	{r3, r4, r5, lr}
 1021 0002 0D46     		mov	r5, r1
 1022 0004 0446     		mov	r4, r0
 1023 0006 0821     		movs	r1, #8
 1024 0008 2846     		mov	r0, r5
 1025 000a FFF7FEFF 		bl	sp_grow
 1026 000e 98B9     		cbnz	r0, .L36
 1027 0010 2346     		mov	r3, r4
 1028 0012 2A1D     		adds	r2, r5, #4
 1029 0014 04F12001 		add	r1, r4, #32
 1030              	.L38:
 1031 0018 53F8044B 		ldr	r4, [r3], #4	@ unaligned
 1032 001c 8B42     		cmp	r3, r1
 1033 001e 42F8044B 		str	r4, [r2], #4	@ unaligned
 1034 0022 F9D1     		bne	.L38
 1035 0024 0723     		movs	r3, #7
 1036 0026 05F12002 		add	r2, r5, #32
 1037              	.L40:
 1038 002a 52F80419 		ldr	r1, [r2], #-4
 1039 002e 09B9     		cbnz	r1, .L39
 1040 0030 013B     		subs	r3, r3, #1
 1041 0032 FAD2     		bcs	.L40
 1042              	.L39:
 1043 0034 0133     		adds	r3, r3, #1
 1044 0036 2B80     		strh	r3, [r5]	@ movhi
 1045              	.L36:
 1046 0038 38BD     		pop	{r3, r4, r5, pc}
 1048              		.section	.text.sp_256_point_to_ecc_point_8,"ax",%progbits
 1049              		.align	1
 1050              		.syntax unified
 1051              		.thumb
 1052              		.thumb_func
 1053              		.fpu fpv4-sp-d16
 1055              	sp_256_point_to_ecc_point_8:
 1056              		@ args = 0, pretend = 0, frame = 0
 1057              		@ frame_needed = 0, uses_anonymous_args = 0
 1058 0000 38B5     		push	{r3, r4, r5, lr}
 1059 0002 0446     		mov	r4, r0
ARM GAS  /tmp/ccwGYw5D.s 			page 19


 1060 0004 0D46     		mov	r5, r1
 1061 0006 FFF7FEFF 		bl	sp_256_to_mp
 1062 000a 70B9     		cbnz	r0, .L43
 1063 000c 05F19001 		add	r1, r5, #144
 1064 0010 04F14000 		add	r0, r4, #64
 1065 0014 FFF7FEFF 		bl	sp_256_to_mp
 1066 0018 38B9     		cbnz	r0, .L43
 1067 001a 05F59071 		add	r1, r5, #288
 1068 001e 04F18000 		add	r0, r4, #128
 1069 0022 BDE83840 		pop	{r3, r4, r5, lr}
 1070 0026 FFF7FEBF 		b	sp_256_to_mp
 1071              	.L43:
 1072 002a 38BD     		pop	{r3, r4, r5, pc}
 1074              		.section	.text.sp_256_div2_mod_8.constprop.0,"ax",%progbits
 1075              		.align	1
 1076              		.syntax unified
 1077              		.thumb
 1078              		.thumb_func
 1079              		.fpu fpv4-sp-d16
 1081              	sp_256_div2_mod_8.constprop.0:
 1082              		@ args = 0, pretend = 0, frame = 0
 1083              		@ frame_needed = 0, uses_anonymous_args = 0
 1084 0000 2DE9F04F 		push	{r4, r5, r6, r7, r8, r9, r10, fp, lr}
 1085 0004 294A     		ldr	r2, .L47
 1086              		.syntax unified
 1087              	@ 40796 "../wolfssl/wolfcrypt/src/sp_cortexm.c" 1
 1088 0006 4FF0000C 		MOV	r12, #0x0
 1089 000a 10C9     		LDM	r1!, {r4}
 1090 000c 14F00103 		ANDS	r3, r4, #0x1
 1091 0010 1AD0     		BEQ	L_sp_256_div2_mod_8_even_479
 1092 0012 E0C9     		LDM	r1!, {r5, r6, r7}
 1093 0014 B2E8000F 		LDM	r2!, {r8, r9, r10, r11}
 1094 0018 14EB0804 		ADDS	r4, r4, r8
 1095 001c 55EB0905 		ADCS	r5, r5, r9
 1096 0020 56EB0A06 		ADCS	r6, r6, r10
 1097 0024 57EB0B07 		ADCS	r7, r7, r11
 1098 0028 80E8F000 		STM	r0, {r4, r5, r6, r7}
 1099 002c F0C9     		LDM	r1!, {r4, r5, r6, r7}
 1100 002e B2E8000F 		LDM	r2!, {r8, r9, r10, r11}
 1101 0032 54EB0804 		ADCS	r4, r4, r8
 1102 0036 55EB0905 		ADCS	r5, r5, r9
 1103 003a 56EB0A06 		ADCS	r6, r6, r10
 1104 003e 57EB0B07 		ADCS	r7, r7, r11
 1105 0042 4CEB0C03 		ADC	r3, r12, r12
 1106 0046 03E0     		B	L_sp_256_div2_mod_8_div2_479
 1107              		
 1108              	L_sp_256_div2_mod_8_even_479:
 1109 0048 D1E90345 		LDRD	r4, r5, [r1, #12]
 1110 004c D1E90567 		LDRD	r6, r7, [r1, #20]
 1111              		
 1112              	L_sp_256_div2_mod_8_div2_479:
 1113 0050 4FEA5408 		LSR	r8, r4, #1
 1114 0054 04F00104 		AND	r4, r4, #0x1
 1115 0058 4FEA5509 		LSR	r9, r5, #1
 1116 005c 4FEA560A 		LSR	r10, r6, #1
 1117 0060 4FEA570B 		LSR	r11, r7, #1
 1118 0064 48EAC578 		ORR	r8, r8, r5, lsl #31
ARM GAS  /tmp/ccwGYw5D.s 			page 20


 1119 0068 49EAC679 		ORR	r9, r9, r6, lsl #31
 1120 006c 4AEAC77A 		ORR	r10, r10, r7, lsl #31
 1121 0070 4BEAC37B 		ORR	r11, r11, r3, lsl #31
 1122 0074 2346     		MOV	r3, r4
 1123 0076 C0E90489 		STRD	r8, r9, [r0, #16]
 1124 007a C0E906AB 		STRD	r10, r11, [r0, #24]
 1125 007e 90E8F000 		LDM	r0, {r4, r5, r6, r7}
 1126 0082 4FEA5408 		LSR	r8, r4, #1
 1127 0086 4FEA5509 		LSR	r9, r5, #1
 1128 008a 4FEA560A 		LSR	r10, r6, #1
 1129 008e 4FEA570B 		LSR	r11, r7, #1
 1130 0092 48EAC578 		ORR	r8, r8, r5, lsl #31
 1131 0096 49EAC679 		ORR	r9, r9, r6, lsl #31
 1132 009a 4AEAC77A 		ORR	r10, r10, r7, lsl #31
 1133 009e 4BEAC37B 		ORR	r11, r11, r3, lsl #31
 1134 00a2 80E8000F 		STM	r0, {r8, r9, r10, r11}
 1135              		
 1136              	@ 0 "" 2
 1137              		.thumb
 1138              		.syntax unified
 1139 00a6 BDE8F08F 		pop	{r4, r5, r6, r7, r8, r9, r10, fp, pc}
 1140              	.L48:
 1141 00aa 00BF     		.align	2
 1142              	.L47:
 1143 00ac 00000000 		.word	.LANCHOR0
 1145              		.section	.text.sp_256_from_bin.constprop.0,"ax",%progbits
 1146              		.align	1
 1147              		.syntax unified
 1148              		.thumb
 1149              		.thumb_func
 1150              		.fpu fpv4-sp-d16
 1152              	sp_256_from_bin.constprop.0:
 1153              		@ args = 0, pretend = 0, frame = 0
 1154              		@ frame_needed = 0, uses_anonymous_args = 0
 1155              		@ link register save eliminated.
 1156 0000 0023     		movs	r3, #0
 1157 0002 70B4     		push	{r4, r5, r6}
 1158 0004 551E     		subs	r5, r2, #1
 1159 0006 0A44     		add	r2, r2, r1
 1160              	.L50:
 1161 0008 022D     		cmp	r5, #2
 1162 000a 23DC     		bgt	.L51
 1163 000c 002D     		cmp	r5, #0
 1164 000e 13DB     		blt	.L52
 1165 0010 0026     		movs	r6, #0
 1166 0012 012D     		cmp	r5, #1
 1167 0014 4FEA8304 		lsl	r4, r3, #2
 1168 0018 00EB8302 		add	r2, r0, r3, lsl #2
 1169 001c 40F82360 		str	r6, [r0, r3, lsl #2]
 1170 0020 03D0     		beq	.L53
 1171 0022 022D     		cmp	r5, #2
 1172 0024 05D1     		bne	.L54
 1173 0026 8E78     		ldrb	r6, [r1, #2]	@ zero_extendqisi2
 1174 0028 0655     		strb	r6, [r0, r4]
 1175              	.L53:
 1176 002a 4E78     		ldrb	r6, [r1, #1]	@ zero_extendqisi2
 1177 002c 5419     		adds	r4, r2, r5
ARM GAS  /tmp/ccwGYw5D.s 			page 21


 1178 002e 04F8016C 		strb	r6, [r4, #-1]
 1179              	.L54:
 1180 0032 0978     		ldrb	r1, [r1]	@ zero_extendqisi2
 1181 0034 0133     		adds	r3, r3, #1
 1182 0036 5155     		strb	r1, [r2, r5]
 1183              	.L52:
 1184 0038 C3F10802 		rsb	r2, r3, #8
 1185 003c 082B     		cmp	r3, #8
 1186 003e 4FEA8202 		lsl	r2, r2, #2
 1187 0042 4FF00001 		mov	r1, #0
 1188 0046 70BC     		pop	{r4, r5, r6}
 1189 0048 C8BF     		it	gt
 1190 004a 0022     		movgt	r2, #0
 1191 004c 00EB8300 		add	r0, r0, r3, lsl #2
 1192 0050 FFF7FEBF 		b	memset
 1193              	.L51:
 1194 0054 12F8034C 		ldrb	r4, [r2, #-3]	@ zero_extendqisi2
 1195 0058 12F8026C 		ldrb	r6, [r2, #-2]	@ zero_extendqisi2
 1196 005c 2404     		lsls	r4, r4, #16
 1197 005e 44EA0624 		orr	r4, r4, r6, lsl #8
 1198 0062 12F8016C 		ldrb	r6, [r2, #-1]	@ zero_extendqisi2
 1199 0066 043D     		subs	r5, r5, #4
 1200 0068 3443     		orrs	r4, r4, r6
 1201 006a 12F8046D 		ldrb	r6, [r2, #-4]!	@ zero_extendqisi2
 1202 006e 44EA0664 		orr	r4, r4, r6, lsl #24
 1203 0072 40F82340 		str	r4, [r0, r3, lsl #2]
 1204 0076 0133     		adds	r3, r3, #1
 1205 0078 C6E7     		b	.L50
 1207              		.section	.text.sp_256_ecc_gen_k_8,"ax",%progbits
 1208              		.align	1
 1209              		.syntax unified
 1210              		.thumb
 1211              		.thumb_func
 1212              		.fpu fpv4-sp-d16
 1214              	sp_256_ecc_gen_k_8:
 1215              		@ args = 0, pretend = 0, frame = 32
 1216              		@ frame_needed = 0, uses_anonymous_args = 0
 1217 0000 F0B5     		push	{r4, r5, r6, r7, lr}
 1218 0002 0646     		mov	r6, r0
 1219 0004 0C46     		mov	r4, r1
 1220 0006 0D4F     		ldr	r7, .L62
 1221 0008 89B0     		sub	sp, sp, #36
 1222              	.L60:
 1223 000a 2022     		movs	r2, #32
 1224 000c 6946     		mov	r1, sp
 1225 000e 3046     		mov	r0, r6
 1226 0010 FFF7FEFF 		bl	wc_RNG_GenerateBlock
 1227 0014 0546     		mov	r5, r0
 1228 0016 68B9     		cbnz	r0, .L58
 1229 0018 2022     		movs	r2, #32
 1230 001a 6946     		mov	r1, sp
 1231 001c 2046     		mov	r0, r4
 1232 001e FFF7FEFF 		bl	sp_256_from_bin.constprop.0
 1233 0022 3946     		mov	r1, r7
 1234 0024 2046     		mov	r0, r4
 1235 0026 FFF7FEFF 		bl	sp_256_cmp_8
 1236 002a 0028     		cmp	r0, #0
ARM GAS  /tmp/ccwGYw5D.s 			page 22


 1237 002c EDDC     		bgt	.L60
 1238 002e 2046     		mov	r0, r4
 1239 0030 FFF7FEFF 		bl	sp_256_add_one_8
 1240              	.L58:
 1241 0034 2846     		mov	r0, r5
 1242 0036 09B0     		add	sp, sp, #36
 1243              		@ sp needed
 1244 0038 F0BD     		pop	{r4, r5, r6, r7, pc}
 1245              	.L63:
 1246 003a 00BF     		.align	2
 1247              	.L62:
 1248 003c 00000000 		.word	.LANCHOR1
 1250              		.section	.text.sp_256_get_entry_256_8.constprop.0,"ax",%progbits
 1251              		.align	1
 1252              		.syntax unified
 1253              		.thumb
 1254              		.thumb_func
 1255              		.fpu fpv4-sp-d16
 1257              	sp_256_get_entry_256_8.constprop.0:
 1258              		@ args = 0, pretend = 0, frame = 40
 1259              		@ frame_needed = 0, uses_anonymous_args = 0
 1260 0000 0023     		movs	r3, #0
 1261 0002 2DE9F04F 		push	{r4, r5, r6, r7, r8, r9, r10, fp, lr}
 1262 0006 9C46     		mov	ip, r3
 1263 0008 1E46     		mov	r6, r3
 1264 000a 9E46     		mov	lr, r3
 1265 000c 9846     		mov	r8, r3
 1266 000e 9946     		mov	r9, r3
 1267 0010 9A46     		mov	r10, r3
 1268 0012 9B46     		mov	fp, r3
 1269 0014 0124     		movs	r4, #1
 1270 0016 8BB0     		sub	sp, sp, #44
 1271 0018 C0E90033 		strd	r3, r3, [r0]
 1272 001c C0E90233 		strd	r3, r3, [r0, #8]
 1273 0020 C0E90433 		strd	r3, r3, [r0, #16]
 1274 0024 C0E90633 		strd	r3, r3, [r0, #24]
 1275 0028 C0E91033 		strd	r3, r3, [r0, #64]
 1276 002c C0E91233 		strd	r3, r3, [r0, #72]
 1277 0030 C0E91433 		strd	r3, r3, [r0, #80]
 1278 0034 C0E91633 		strd	r3, r3, [r0, #88]
 1279 0038 CDE90633 		strd	r3, r3, [sp, #24]
 1280 003c CDE90433 		strd	r3, r3, [sp, #16]
 1281 0040 CDE90133 		strd	r3, r3, [sp, #4]
 1282 0044 3C4A     		ldr	r2, .L67
 1283 0046 0991     		str	r1, [sp, #36]
 1284 0048 0893     		str	r3, [sp, #32]
 1285 004a 0393     		str	r3, [sp, #12]
 1286              	.L65:
 1287 004c 0999     		ldr	r1, [sp, #36]
 1288 004e 176C     		ldr	r7, [r2, #64]
 1289 0050 A142     		cmp	r1, r4
 1290 0052 4FF0FF31 		mov	r1, #-1
 1291 0056 18BF     		it	ne
 1292 0058 0021     		movne	r1, #0
 1293 005a 029D     		ldr	r5, [sp, #8]
 1294 005c 0F40     		ands	r7, r7, r1
 1295 005e 3D43     		orrs	r5, r5, r7
ARM GAS  /tmp/ccwGYw5D.s 			page 23


 1296 0060 576C     		ldr	r7, [r2, #68]
 1297 0062 0295     		str	r5, [sp, #8]
 1298 0064 019D     		ldr	r5, [sp, #4]
 1299 0066 0F40     		ands	r7, r7, r1
 1300 0068 3D43     		orrs	r5, r5, r7
 1301 006a 976C     		ldr	r7, [r2, #72]
 1302 006c 0195     		str	r5, [sp, #4]
 1303 006e 039D     		ldr	r5, [sp, #12]
 1304 0070 0F40     		ands	r7, r7, r1
 1305 0072 3D43     		orrs	r5, r5, r7
 1306 0074 D76C     		ldr	r7, [r2, #76]
 1307 0076 0395     		str	r5, [sp, #12]
 1308 0078 049D     		ldr	r5, [sp, #16]
 1309 007a 0F40     		ands	r7, r7, r1
 1310 007c 3D43     		orrs	r5, r5, r7
 1311 007e 176D     		ldr	r7, [r2, #80]
 1312 0080 0495     		str	r5, [sp, #16]
 1313 0082 059D     		ldr	r5, [sp, #20]
 1314 0084 0F40     		ands	r7, r7, r1
 1315 0086 3D43     		orrs	r5, r5, r7
 1316 0088 576D     		ldr	r7, [r2, #84]
 1317 008a 0595     		str	r5, [sp, #20]
 1318 008c 069D     		ldr	r5, [sp, #24]
 1319 008e 0F40     		ands	r7, r7, r1
 1320 0090 3D43     		orrs	r5, r5, r7
 1321 0092 976D     		ldr	r7, [r2, #88]
 1322 0094 0695     		str	r5, [sp, #24]
 1323 0096 079D     		ldr	r5, [sp, #28]
 1324 0098 0F40     		ands	r7, r7, r1
 1325 009a 3D43     		orrs	r5, r5, r7
 1326 009c D76D     		ldr	r7, [r2, #92]
 1327 009e 0795     		str	r5, [sp, #28]
 1328 00a0 0F40     		ands	r7, r7, r1
 1329 00a2 4BEA070B 		orr	fp, fp, r7
 1330 00a6 176E     		ldr	r7, [r2, #96]
 1331 00a8 089D     		ldr	r5, [sp, #32]
 1332 00aa 0F40     		ands	r7, r7, r1
 1333 00ac 4AEA070A 		orr	r10, r10, r7
 1334 00b0 576E     		ldr	r7, [r2, #100]
 1335 00b2 0134     		adds	r4, r4, #1
 1336 00b4 0F40     		ands	r7, r7, r1
 1337 00b6 49EA0709 		orr	r9, r9, r7
 1338 00ba 976E     		ldr	r7, [r2, #104]
 1339 00bc B4F5807F 		cmp	r4, #256
 1340 00c0 07EA0107 		and	r7, r7, r1
 1341 00c4 48EA0708 		orr	r8, r8, r7
 1342 00c8 D76E     		ldr	r7, [r2, #108]
 1343 00ca 02F14002 		add	r2, r2, #64
 1344 00ce 07EA0107 		and	r7, r7, r1
 1345 00d2 4EEA070E 		orr	lr, lr, r7
 1346 00d6 176B     		ldr	r7, [r2, #48]
 1347 00d8 07EA0107 		and	r7, r7, r1
 1348 00dc 4CEA070C 		orr	ip, ip, r7
 1349 00e0 576B     		ldr	r7, [r2, #52]
 1350 00e2 07EA0107 		and	r7, r7, r1
 1351 00e6 46EA0706 		orr	r6, r6, r7
 1352 00ea 976B     		ldr	r7, [r2, #56]
ARM GAS  /tmp/ccwGYw5D.s 			page 24


 1353 00ec 07EA0107 		and	r7, r7, r1
 1354 00f0 45EA0705 		orr	r5, r5, r7
 1355 00f4 0895     		str	r5, [sp, #32]
 1356 00f6 D76B     		ldr	r7, [r2, #60]
 1357 00f8 01EA0701 		and	r1, r1, r7
 1358 00fc 43EA0103 		orr	r3, r3, r1
 1359 0100 A4D1     		bne	.L65
 1360 0102 029A     		ldr	r2, [sp, #8]
 1361 0104 C0E910A9 		strd	r10, r9, [r0, #64]
 1362 0108 0260     		str	r2, [r0]
 1363 010a 019A     		ldr	r2, [sp, #4]
 1364 010c C0E9128E 		strd	r8, lr, [r0, #72]
 1365 0110 4260     		str	r2, [r0, #4]
 1366 0112 039A     		ldr	r2, [sp, #12]
 1367 0114 C0E914C6 		strd	ip, r6, [r0, #80]
 1368 0118 8260     		str	r2, [r0, #8]
 1369 011a 049A     		ldr	r2, [sp, #16]
 1370 011c C0E91653 		strd	r5, r3, [r0, #88]
 1371 0120 C260     		str	r2, [r0, #12]
 1372 0122 059A     		ldr	r2, [sp, #20]
 1373 0124 0261     		str	r2, [r0, #16]
 1374 0126 069A     		ldr	r2, [sp, #24]
 1375 0128 4261     		str	r2, [r0, #20]
 1376 012a 079A     		ldr	r2, [sp, #28]
 1377 012c C0E9062B 		strd	r2, fp, [r0, #24]
 1378 0130 0BB0     		add	sp, sp, #44
 1379              		@ sp needed
 1380 0132 BDE8F08F 		pop	{r4, r5, r6, r7, r8, r9, r10, fp, pc}
 1381              	.L68:
 1382 0136 00BF     		.align	2
 1383              	.L67:
 1384 0138 00000000 		.word	p256_table
 1386              		.section	.text.sp_256_mont_div2_8.constprop.0,"ax",%progbits
 1387              		.align	1
 1388              		.syntax unified
 1389              		.thumb
 1390              		.thumb_func
 1391              		.fpu fpv4-sp-d16
 1393              	sp_256_mont_div2_8.constprop.0:
 1394              		@ args = 0, pretend = 0, frame = 0
 1395              		@ frame_needed = 0, uses_anonymous_args = 0
 1396 0000 2DE9F04F 		push	{r4, r5, r6, r7, r8, r9, r10, fp, lr}
 1397 0004 254A     		ldr	r2, .L71
 1398              		.syntax unified
 1399              	@ 35921 "../wolfssl/wolfcrypt/src/sp_cortexm.c" 1
 1400 0006 91E8F000 		LDM	r1, {r4, r5, r6, r7}
 1401 000a 04F00103 		AND	r3, r4, #0x1
 1402 000e C3F10008 		RSB	r8, r3, #0x0
 1403 0012 14EB0804 		ADDS	r4, r4, r8
 1404 0016 55EB0805 		ADCS	r5, r5, r8
 1405 001a 56EB0806 		ADCS	r6, r6, r8
 1406 001e 57F10007 		ADCS	r7, r7, #0x0
 1407 0022 80E8F000 		STM	r0, {r4, r5, r6, r7}
 1408 0026 D1E90445 		LDRD	r4, r5, [r1, #16]
 1409 002a D1E90667 		LDRD	r6, r7, [r1, #24]
 1410 002e 54F10004 		ADCS	r4, r4, #0x0
 1411 0032 55F10005 		ADCS	r5, r5, #0x0
ARM GAS  /tmp/ccwGYw5D.s 			page 25


 1412 0036 56EBD876 		ADCS	r6, r6, r8, LSR #31
 1413 003a 57EB0807 		ADCS	r7, r7, r8
 1414 003e 4FF00003 		MOV	r3, #0x0
 1415 0042 43F10003 		ADC	r3, r3, #0x0
 1416 0046 4FEA5408 		LSR	r8, r4, #1
 1417 004a 4FEA5509 		LSR	r9, r5, #1
 1418 004e 4FEA560A 		LSR	r10, r6, #1
 1419 0052 4FEA570B 		LSR	r11, r7, #1
 1420 0056 48EAC578 		ORR	r8, r8, r5, LSL #31
 1421 005a 49EAC679 		ORR	r9, r9, r6, LSL #31
 1422 005e 4AEAC77A 		ORR	r10, r10, r7, LSL #31
 1423 0062 4BEAC37B 		ORR	r11, r11, r3, LSL #31
 1424 0066 2346     		MOV	r3, r4
 1425 0068 C0E90489 		STRD	r8, r9, [r0, #16]
 1426 006c C0E906AB 		STRD	r10, r11, [r0, #24]
 1427 0070 90E8F000 		LDM	r0, {r4, r5, r6, r7}
 1428 0074 4FEA5408 		LSR	r8, r4, #1
 1429 0078 4FEA5509 		LSR	r9, r5, #1
 1430 007c 4FEA560A 		LSR	r10, r6, #1
 1431 0080 4FEA570B 		LSR	r11, r7, #1
 1432 0084 48EAC578 		ORR	r8, r8, r5, LSL #31
 1433 0088 49EAC679 		ORR	r9, r9, r6, LSL #31
 1434 008c 4AEAC77A 		ORR	r10, r10, r7, LSL #31
 1435 0090 4BEAC37B 		ORR	r11, r11, r3, LSL #31
 1436 0094 80E8000F 		STM	r0, {r8, r9, r10, r11}
 1437              		
 1438              	@ 0 "" 2
 1439              		.thumb
 1440              		.syntax unified
 1441 0098 BDE8F08F 		pop	{r4, r5, r6, r7, r8, r9, r10, fp, pc}
 1442              	.L72:
 1443              		.align	2
 1444              	.L71:
 1445 009c 00000000 		.word	.LANCHOR2
 1447              		.section	.text.sp_256_mont_sub_8.constprop.0,"ax",%progbits
 1448              		.align	1
 1449              		.syntax unified
 1450              		.thumb
 1451              		.thumb_func
 1452              		.fpu fpv4-sp-d16
 1454              	sp_256_mont_sub_8.constprop.0:
 1455              		@ args = 0, pretend = 0, frame = 0
 1456              		@ frame_needed = 0, uses_anonymous_args = 0
 1457 0000 2DE9F04F 		push	{r4, r5, r6, r7, r8, r9, r10, fp, lr}
 1458              		.syntax unified
 1459              	@ 35855 "../wolfssl/wolfcrypt/src/sp_cortexm.c" 1
 1460 0004 4FF0000E 		MOV	lr, #0x0
 1461 0008 91E8E01F 		LDM	r1, {r5, r6, r7, r8, r9, r10, r11, r12}
 1462 000c 18CA     		LDM	r2!, {r3, r4}
 1463 000e ED1A     		SUBS	r5, r5, r3
 1464 0010 A641     		SBCS	r6, r6, r4
 1465 0012 18CA     		LDM	r2!, {r3, r4}
 1466 0014 9F41     		SBCS	r7, r7, r3
 1467 0016 78EB0408 		SBCS	r8, r8, r4
 1468 001a 18CA     		LDM	r2!, {r3, r4}
 1469 001c 79EB0309 		SBCS	r9, r9, r3
 1470 0020 7AEB040A 		SBCS	r10, r10, r4
ARM GAS  /tmp/ccwGYw5D.s 			page 26


 1471 0024 18CA     		LDM	r2!, {r3, r4}
 1472 0026 7BEB030B 		SBCS	r11, r11, r3
 1473 002a 7CEB040C 		SBCS	r12, r12, r4
 1474 002e 6EF1000E 		SBC	lr, lr, #0x0
 1475 0032 15EB0E05 		ADDS	r5, r5, lr
 1476 0036 56EB0E06 		ADCS	r6, r6, lr
 1477 003a 57EB0E07 		ADCS	r7, r7, lr
 1478 003e 58F10008 		ADCS	r8, r8, #0x0
 1479 0042 59F10009 		ADCS	r9, r9, #0x0
 1480 0046 5AF1000A 		ADCS	r10, r10, #0x0
 1481 004a 5BEBDE7B 		ADCS	r11, r11, lr, LSR #31
 1482 004e 5CEB0E0C 		ADCS	r12, r12, lr
 1483 0052 4EF1000E 		ADC	lr, lr, #0x0
 1484 0056 15EB0E05 		ADDS	r5, r5, lr
 1485 005a 56EB0E06 		ADCS	r6, r6, lr
 1486 005e 57EB0E07 		ADCS	r7, r7, lr
 1487 0062 58F10008 		ADCS	r8, r8, #0x0
 1488 0066 59F10009 		ADCS	r9, r9, #0x0
 1489 006a 5AF1000A 		ADCS	r10, r10, #0x0
 1490 006e 5BEBDE7B 		ADCS	r11, r11, lr, LSR #31
 1491 0072 4CEB0E0C 		ADC	r12, r12, lr
 1492 0076 80E8E01F 		STM	r0, {r5, r6, r7, r8, r9, r10, r11, r12}
 1493              		
 1494              	@ 0 "" 2
 1495              		.thumb
 1496              		.syntax unified
 1497 007a BDE8F08F 		pop	{r4, r5, r6, r7, r8, r9, r10, fp, pc}
 1499              		.section	.text.sp_256_mont_tpl_8.constprop.0,"ax",%progbits
 1500              		.align	1
 1501              		.syntax unified
 1502              		.thumb
 1503              		.thumb_func
 1504              		.fpu fpv4-sp-d16
 1506              	sp_256_mont_tpl_8.constprop.0:
 1507              		@ args = 0, pretend = 0, frame = 0
 1508              		@ frame_needed = 0, uses_anonymous_args = 0
 1509 0000 2DE9F04F 		push	{r4, r5, r6, r7, r8, r9, r10, fp, lr}
 1510              		.syntax unified
 1511              	@ 35758 "../wolfssl/wolfcrypt/src/sp_cortexm.c" 1
 1512 0004 4FF0000C 		MOV	r12, #0x0
 1513 0008 91E8F00F 		LDM	r1, {r4, r5, r6, r7, r8, r9, r10, r11}
 1514 000c 2419     		ADDS	r4, r4, r4
 1515 000e 6D41     		ADCS	r5, r5, r5
 1516 0010 7641     		ADCS	r6, r6, r6
 1517 0012 7F41     		ADCS	r7, r7, r7
 1518 0014 58EB0808 		ADCS	r8, r8, r8
 1519 0018 59EB0909 		ADCS	r9, r9, r9
 1520 001c 5AEB0A0A 		ADCS	r10, r10, r10
 1521 0020 5BEB0B0B 		ADCS	r11, r11, r11
 1522 0024 4CF1000C 		ADC	r12, r12, #0x0
 1523 0028 CCF1000C 		RSB	r12, r12, #0x0
 1524 002c B4EB0C04 		SUBS	r4, r4, r12
 1525 0030 75EB0C05 		SBCS	r5, r5, r12
 1526 0034 76EB0C06 		SBCS	r6, r6, r12
 1527 0038 77F10007 		SBCS	r7, r7, #0x0
 1528 003c 78F10008 		SBCS	r8, r8, #0x0
 1529 0040 79F10009 		SBCS	r9, r9, #0x0
ARM GAS  /tmp/ccwGYw5D.s 			page 27


 1530 0044 7AEBDC7A 		SBCS	r10, r10, r12, LSR #31
 1531 0048 7BEB0C0B 		SBCS	r11, r11, r12
 1532 004c 62EB0202 		SBC	r2, r2, r2
 1533 0050 ACEB020C 		SUB	r12, r12, r2
 1534 0054 B4EB0C04 		SUBS	r4, r4, r12
 1535 0058 75EB0C05 		SBCS	r5, r5, r12
 1536 005c 76EB0C06 		SBCS	r6, r6, r12
 1537 0060 77F10007 		SBCS	r7, r7, #0x0
 1538 0064 78F10008 		SBCS	r8, r8, #0x0
 1539 0068 79F10009 		SBCS	r9, r9, #0x0
 1540 006c 7AEBDC7A 		SBCS	r10, r10, r12, LSR #31
 1541 0070 6BEB0C0B 		SBC	r11, r11, r12
 1542 0074 0CC9     		LDM	r1!, {r2, r3}
 1543 0076 A418     		ADDS	r4, r4, r2
 1544 0078 5D41     		ADCS	r5, r5, r3
 1545 007a 0CC9     		LDM	r1!, {r2, r3}
 1546 007c 5641     		ADCS	r6, r6, r2
 1547 007e 5F41     		ADCS	r7, r7, r3
 1548 0080 0CC9     		LDM	r1!, {r2, r3}
 1549 0082 58EB0208 		ADCS	r8, r8, r2
 1550 0086 59EB0309 		ADCS	r9, r9, r3
 1551 008a 0CC9     		LDM	r1!, {r2, r3}
 1552 008c 5AEB020A 		ADCS	r10, r10, r2
 1553 0090 5BEB030B 		ADCS	r11, r11, r3
 1554 0094 4CF1000C 		ADC	r12, r12, #0x0
 1555 0098 CCF1000C 		RSB	r12, r12, #0x0
 1556 009c B4EB0C04 		SUBS	r4, r4, r12
 1557 00a0 75EB0C05 		SBCS	r5, r5, r12
 1558 00a4 76EB0C06 		SBCS	r6, r6, r12
 1559 00a8 77F10007 		SBCS	r7, r7, #0x0
 1560 00ac 78F10008 		SBCS	r8, r8, #0x0
 1561 00b0 79F10009 		SBCS	r9, r9, #0x0
 1562 00b4 7AEBDC7A 		SBCS	r10, r10, r12, LSR #31
 1563 00b8 7BEB0C0B 		SBCS	r11, r11, r12
 1564 00bc 62EB0202 		SBC	r2, r2, r2
 1565 00c0 ACEB020C 		SUB	r12, r12, r2
 1566 00c4 B4EB0C04 		SUBS	r4, r4, r12
 1567 00c8 75EB0C05 		SBCS	r5, r5, r12
 1568 00cc 76EB0C06 		SBCS	r6, r6, r12
 1569 00d0 77F10007 		SBCS	r7, r7, #0x0
 1570 00d4 78F10008 		SBCS	r8, r8, #0x0
 1571 00d8 79F10009 		SBCS	r9, r9, #0x0
 1572 00dc 7AEBDC7A 		SBCS	r10, r10, r12, LSR #31
 1573 00e0 6BEB0C0B 		SBC	r11, r11, r12
 1574 00e4 80E8F00F 		STM	r0, {r4, r5, r6, r7, r8, r9, r10, r11}
 1575              		
 1576              	@ 0 "" 2
 1577              		.thumb
 1578              		.syntax unified
 1579 00e8 BDE8F08F 		pop	{r4, r5, r6, r7, r8, r9, r10, fp, pc}
 1581              		.section	.text.sp_256_mont_dbl_8.constprop.0,"ax",%progbits
 1582              		.align	1
 1583              		.syntax unified
 1584              		.thumb
 1585              		.thumb_func
 1586              		.fpu fpv4-sp-d16
 1588              	sp_256_mont_dbl_8.constprop.0:
ARM GAS  /tmp/ccwGYw5D.s 			page 28


 1589              		@ args = 0, pretend = 0, frame = 0
 1590              		@ frame_needed = 0, uses_anonymous_args = 0
 1591 0000 2DE9F04F 		push	{r4, r5, r6, r7, r8, r9, r10, fp, lr}
 1592              		.syntax unified
 1593              	@ 35695 "../wolfssl/wolfcrypt/src/sp_cortexm.c" 1
 1594 0004 4FF00002 		MOV	r2, #0x0
 1595 0008 91E8F00F 		LDM	r1, {r4, r5, r6, r7, r8, r9, r10, r11}
 1596 000c 2419     		ADDS	r4, r4, r4
 1597 000e 6D41     		ADCS	r5, r5, r5
 1598 0010 7641     		ADCS	r6, r6, r6
 1599 0012 7F41     		ADCS	r7, r7, r7
 1600 0014 58EB0808 		ADCS	r8, r8, r8
 1601 0018 59EB0909 		ADCS	r9, r9, r9
 1602 001c 5AEB0A0A 		ADCS	r10, r10, r10
 1603 0020 5BEB0B0B 		ADCS	r11, r11, r11
 1604 0024 42F10002 		ADC	r2, r2, #0x0
 1605 0028 C2F10002 		RSB	r2, r2, #0x0
 1606 002c A41A     		SUBS	r4, r4, r2
 1607 002e 9541     		SBCS	r5, r5, r2
 1608 0030 9641     		SBCS	r6, r6, r2
 1609 0032 77F10007 		SBCS	r7, r7, #0x0
 1610 0036 78F10008 		SBCS	r8, r8, #0x0
 1611 003a 79F10009 		SBCS	r9, r9, #0x0
 1612 003e 7AEBD27A 		SBCS	r10, r10, r2, LSR #31
 1613 0042 7BEB020B 		SBCS	r11, r11, r2
 1614 0046 61EB0101 		SBC	r1, r1, r1
 1615 004a A2EB0102 		SUB	r2, r2, r1
 1616 004e A41A     		SUBS	r4, r4, r2
 1617 0050 9541     		SBCS	r5, r5, r2
 1618 0052 9641     		SBCS	r6, r6, r2
 1619 0054 77F10007 		SBCS	r7, r7, #0x0
 1620 0058 78F10008 		SBCS	r8, r8, #0x0
 1621 005c 79F10009 		SBCS	r9, r9, #0x0
 1622 0060 7AEBD27A 		SBCS	r10, r10, r2, LSR #31
 1623 0064 6BEB020B 		SBC	r11, r11, r2
 1624 0068 80E8F00F 		STM	r0, {r4, r5, r6, r7, r8, r9, r10, r11}
 1625              		
 1626              	@ 0 "" 2
 1627              		.thumb
 1628              		.syntax unified
 1629 006c BDE8F08F 		pop	{r4, r5, r6, r7, r8, r9, r10, fp, pc}
 1631              		.section	.text.sp_256_mont_add_8.constprop.0,"ax",%progbits
 1632              		.align	1
 1633              		.syntax unified
 1634              		.thumb
 1635              		.thumb_func
 1636              		.fpu fpv4-sp-d16
 1638              	sp_256_mont_add_8.constprop.0:
 1639              		@ args = 0, pretend = 0, frame = 0
 1640              		@ frame_needed = 0, uses_anonymous_args = 0
 1641 0000 2DE9F04F 		push	{r4, r5, r6, r7, r8, r9, r10, fp, lr}
 1642              		.syntax unified
 1643              	@ 35628 "../wolfssl/wolfcrypt/src/sp_cortexm.c" 1
 1644 0004 4FF0000E 		MOV	lr, #0x0
 1645 0008 91E8E01F 		LDM	r1, {r5, r6, r7, r8, r9, r10, r11, r12}
 1646 000c 18CA     		LDM	r2!, {r3, r4}
 1647 000e ED18     		ADDS	r5, r5, r3
ARM GAS  /tmp/ccwGYw5D.s 			page 29


 1648 0010 6641     		ADCS	r6, r6, r4
 1649 0012 18CA     		LDM	r2!, {r3, r4}
 1650 0014 5F41     		ADCS	r7, r7, r3
 1651 0016 58EB0408 		ADCS	r8, r8, r4
 1652 001a 18CA     		LDM	r2!, {r3, r4}
 1653 001c 59EB0309 		ADCS	r9, r9, r3
 1654 0020 5AEB040A 		ADCS	r10, r10, r4
 1655 0024 18CA     		LDM	r2!, {r3, r4}
 1656 0026 5BEB030B 		ADCS	r11, r11, r3
 1657 002a 5CEB040C 		ADCS	r12, r12, r4
 1658 002e 4EF1000E 		ADC	lr, lr, #0x0
 1659 0032 CEF1000E 		RSB	lr, lr, #0x0
 1660 0036 B5EB0E05 		SUBS	r5, r5, lr
 1661 003a 76EB0E06 		SBCS	r6, r6, lr
 1662 003e 77EB0E07 		SBCS	r7, r7, lr
 1663 0042 78F10008 		SBCS	r8, r8, #0x0
 1664 0046 79F10009 		SBCS	r9, r9, #0x0
 1665 004a 7AF1000A 		SBCS	r10, r10, #0x0
 1666 004e 7BEBDE7B 		SBCS	r11, r11, lr, LSR #31
 1667 0052 7CEB0E0C 		SBCS	r12, r12, lr
 1668 0056 62EB0202 		SBC	r2, r2, r2
 1669 005a AEEB020E 		SUB	lr, lr, r2
 1670 005e B5EB0E05 		SUBS	r5, r5, lr
 1671 0062 76EB0E06 		SBCS	r6, r6, lr
 1672 0066 77EB0E07 		SBCS	r7, r7, lr
 1673 006a 78F10008 		SBCS	r8, r8, #0x0
 1674 006e 79F10009 		SBCS	r9, r9, #0x0
 1675 0072 7AF1000A 		SBCS	r10, r10, #0x0
 1676 0076 7BEBDE7B 		SBCS	r11, r11, lr, LSR #31
 1677 007a 6CEB0E0C 		SBC	r12, r12, lr
 1678 007e 80E8E01F 		STM	r0, {r5, r6, r7, r8, r9, r10, r11, r12}
 1679              		
 1680              	@ 0 "" 2
 1681              		.thumb
 1682              		.syntax unified
 1683 0082 BDE8F08F 		pop	{r4, r5, r6, r7, r8, r9, r10, fp, pc}
 1685              		.section	.text.sp_256_mont_sqr_8.constprop.0,"ax",%progbits
 1686              		.align	1
 1687              		.syntax unified
 1688              		.thumb
 1689              		.thumb_func
 1690              		.fpu fpv4-sp-d16
 1692              	sp_256_mont_sqr_8.constprop.0:
 1693              		@ args = 0, pretend = 0, frame = 0
 1694              		@ frame_needed = 0, uses_anonymous_args = 0
 1695 0000 2DE9F04F 		push	{r4, r5, r6, r7, r8, r9, r10, fp, lr}
 1696              		.syntax unified
 1697              	@ 34336 "../wolfssl/wolfcrypt/src/sp_cortexm.c" 1
 1698 0004 91B0     		SUB	sp, sp, #0x44
 1699 0006 1090     		STR	r0, [sp, #64]
 1700 0008 FFC9     		LDM	r1, {r0, r1, r2, r3, r4, r5, r6, r7}
 1701 000a A0FB009A 		UMULL	r9, r10, r0, r0
 1702 000e A0FB01BC 		UMULL	r11, r12, r0, r1
 1703 0012 1BEB0B0B 		ADDS	r11, r11, r11
 1704 0016 4FF0000E 		MOV	lr, #0x0
 1705 001a EEFB6EAB 		UMAAL	r10, r11, lr, lr
 1706 001e 8DE80006 		STM	sp, {r9, r10}
ARM GAS  /tmp/ccwGYw5D.s 			page 30


 1707 0022 F046     		MOV	r8, lr
 1708 0024 E0FB628C 		UMAAL	r8, r12, r0, r2
 1709 0028 58EB0808 		ADCS	r8, r8, r8
 1710 002c E1FB618B 		UMAAL	r8, r11, r1, r1
 1711 0030 A0FB039A 		UMULL	r9, r10, r0, r3
 1712 0034 E1FB629C 		UMAAL	r9, r12, r1, r2
 1713 0038 59EB0909 		ADCS	r9, r9, r9
 1714 003c EEFB6E9B 		UMAAL	r9, r11, lr, lr
 1715 0040 CDE90289 		STRD	r8, r9, [sp, #8]
 1716 0044 F146     		MOV	r9, lr
 1717 0046 E0FB649A 		UMAAL	r9, r10, r0, r4
 1718 004a E1FB639C 		UMAAL	r9, r12, r1, r3
 1719 004e 59EB0909 		ADCS	r9, r9, r9
 1720 0052 E2FB629B 		UMAAL	r9, r11, r2, r2
 1721 0056 CDF81090 		STR	r9, [sp, #16]
 1722 005a A0FB0598 		UMULL	r9, r8, r0, r5
 1723 005e E1FB649C 		UMAAL	r9, r12, r1, r4
 1724 0062 E2FB639A 		UMAAL	r9, r10, r2, r3
 1725 0066 59EB0909 		ADCS	r9, r9, r9
 1726 006a EEFB6E9B 		UMAAL	r9, r11, lr, lr
 1727 006e CDF81490 		STR	r9, [sp, #20]
 1728 0072 F146     		MOV	r9, lr
 1729 0074 E0FB6698 		UMAAL	r9, r8, r0, r6
 1730 0078 E1FB659C 		UMAAL	r9, r12, r1, r5
 1731 007c E2FB649A 		UMAAL	r9, r10, r2, r4
 1732 0080 59EB0909 		ADCS	r9, r9, r9
 1733 0084 E3FB639B 		UMAAL	r9, r11, r3, r3
 1734 0088 CDF81890 		STR	r9, [sp, #24]
 1735 008c A0FB0709 		UMULL	r0, r9, r0, r7
 1736 0090 E1FB6608 		UMAAL	r0, r8, r1, r6
 1737 0094 E2FB650C 		UMAAL	r0, r12, r2, r5
 1738 0098 E3FB640A 		UMAAL	r0, r10, r3, r4
 1739 009c 4041     		ADCS	r0, r0, r0
 1740 009e EEFB6E0B 		UMAAL	r0, r11, lr, lr
 1741 00a2 E1FB6798 		UMAAL	r9, r8, r1, r7
 1742 00a6 E2FB669A 		UMAAL	r9, r10, r2, r6
 1743 00aa E3FB65C9 		UMAAL	r12, r9, r3, r5
 1744 00ae 5CEB0C0C 		ADCS	r12, r12, r12
 1745 00b2 E4FB64CB 		UMAAL	r12, r11, r4, r4
 1746 00b6 E2FB6798 		UMAAL	r9, r8, r2, r7
 1747 00ba E3FB66A9 		UMAAL	r10, r9, r3, r6
 1748 00be 7246     		MOV	r2, lr
 1749 00c0 E4FB65A2 		UMAAL	r10, r2, r4, r5
 1750 00c4 5AEB0A0A 		ADCS	r10, r10, r10
 1751 00c8 EEFB6EBA 		UMAAL	r11, r10, lr, lr
 1752 00cc E3FB6728 		UMAAL	r2, r8, r3, r7
 1753 00d0 E4FB6629 		UMAAL	r2, r9, r4, r6
 1754 00d4 52EB0203 		ADCS	r3, r2, r2
 1755 00d8 E5FB65A3 		UMAAL	r10, r3, r5, r5
 1756 00dc 7146     		MOV	r1, lr
 1757 00de E4FB6718 		UMAAL	r1, r8, r4, r7
 1758 00e2 E5FB6619 		UMAAL	r1, r9, r5, r6
 1759 00e6 51EB0104 		ADCS	r4, r1, r1
 1760 00ea EEFB6E34 		UMAAL	r3, r4, lr, lr
 1761 00ee E5FB6789 		UMAAL	r8, r9, r5, r7
 1762 00f2 58EB0808 		ADCS	r8, r8, r8
 1763 00f6 E6FB6648 		UMAAL	r4, r8, r6, r6
ARM GAS  /tmp/ccwGYw5D.s 			page 31


 1764 00fa 7546     		MOV	r5, lr
 1765 00fc E6FB6759 		UMAAL	r5, r9, r6, r7
 1766 0100 6D41     		ADCS	r5, r5, r5
 1767 0102 EEFB6E85 		UMAAL	r8, r5, lr, lr
 1768 0106 59EB0909 		ADCS	r9, r9, r9
 1769 010a E7FB6795 		UMAAL	r9, r5, r7, r7
 1770 010e 55EB0E07 		ADCS	r7, r5, lr
 1771 0112 EE46     		MOV	lr, sp
 1772 0114 0EF11C0E 		ADD	lr, lr, #0x1c
 1773 0118 AEE80110 		STM	lr!, {r0, r12}
 1774 011c 4EF804BB 		STM	lr!, {r11}
 1775 0120 4EF804AB 		STM	lr!, {r10}
 1776 0124 AEE81803 		STM	lr!, {r3, r4, r8, r9}
 1777 0128 4EF8047B 		STM	lr!, {r7}
 1778 012c 9DE8E01F 		LDM	sp, {r5, r6, r7, r8, r9, r10, r11, r12}
 1779 0130 5B46     		MOV	r3, r11
 1780 0132 6446     		MOV	r4, r12
 1781 0134 1BEB050B 		ADDS	r11, r11, r5
 1782 0138 4CEB060C 		ADC	r12, r12, r6
 1783 013c 1BEB050B 		ADDS	r11, r11, r5
 1784 0140 4CEB060C 		ADC	r12, r12, r6
 1785 0144 ACEB050C 		SUB	r12, r12, r5
 1786 0148 4046     		MOV	r0, r8
 1787 014a 4946     		MOV	r1, r9
 1788 014c 5246     		MOV	r2, r10
 1789 014e 18EB0508 		ADDS	r8, r8, r5
 1790 0152 59EB0609 		ADCS	r9, r9, r6
 1791 0156 5AEB070A 		ADCS	r10, r10, r7
 1792 015a 5BEB000B 		ADCS	r11, r11, r0
 1793 015e 4CEB010C 		ADC	r12, r12, r1
 1794 0162 4019     		ADDS	r0, r0, r5
 1795 0164 7141     		ADCS	r1, r1, r6
 1796 0166 7A41     		ADCS	r2, r2, r7
 1797 0168 53EB0803 		ADCS	r3, r3, r8
 1798 016c 54EB0904 		ADCS	r4, r4, r9
 1799 0170 4FF0000E 		MOV	lr, #0x0
 1800 0174 4EF1000E 		ADC	lr, lr, #0x0
 1801 0178 5B19     		ADDS	r3, r3, r5
 1802 017a 7441     		ADCS	r4, r4, r6
 1803 017c 4EF1000E 		ADC	lr, lr, #0x0
 1804 0180 0794     		STR	r4, [sp, #28]
 1805 0182 08A8     		ADD	r0, sp, #0x20
 1806 0184 90E81C00 		LDM	r0, {r2, r3, r4}
 1807 0188 12EB0E02 		ADDS	r2, r2, lr
 1808 018c 53F10003 		ADCS	r3, r3, #0x0
 1809 0190 54F10004 		ADCS	r4, r4, #0x0
 1810 0194 4FF0000E 		MOV	lr, #0x0
 1811 0198 4EF1000E 		ADC	lr, lr, #0x0
 1812 019c 5219     		ADDS	r2, r2, r5
 1813 019e 7341     		ADCS	r3, r3, r6
 1814 01a0 7C41     		ADCS	r4, r4, r7
 1815 01a2 4EF1000E 		ADC	lr, lr, #0x0
 1816 01a6 D219     		ADDS	r2, r2, r7
 1817 01a8 53EB0803 		ADCS	r3, r3, r8
 1818 01ac 54EB0904 		ADCS	r4, r4, r9
 1819 01b0 4EF1000E 		ADC	lr, lr, #0x0
 1820 01b4 12EB0A02 		ADDS	r2, r2, r10
ARM GAS  /tmp/ccwGYw5D.s 			page 32


 1821 01b8 53EB0B03 		ADCS	r3, r3, r11
 1822 01bc 54EB0C04 		ADCS	r4, r4, r12
 1823 01c0 4EF1000E 		ADC	lr, lr, #0x0
 1824 01c4 1CC0     		STM	r0!, {r2, r3, r4}
 1825 01c6 1FC8     		LDM	r0, {r0, r1, r2, r3, r4}
 1826 01c8 10EB0E00 		ADDS	r0, r0, lr
 1827 01cc 51F10001 		ADCS	r1, r1, #0x0
 1828 01d0 52F10002 		ADCS	r2, r2, #0x0
 1829 01d4 53F10003 		ADCS	r3, r3, #0x0
 1830 01d8 54F10004 		ADCS	r4, r4, #0x0
 1831 01dc 4FF0000E 		MOV	lr, #0x0
 1832 01e0 4EF1000E 		ADC	lr, lr, #0x0
 1833 01e4 10EB0800 		ADDS	r0, r0, r8
 1834 01e8 51EB0901 		ADCS	r1, r1, r9
 1835 01ec 52EB0A02 		ADCS	r2, r2, r10
 1836 01f0 53EB0B03 		ADCS	r3, r3, r11
 1837 01f4 54EB0C04 		ADCS	r4, r4, r12
 1838 01f8 4EF1000E 		ADC	lr, lr, #0x0
 1839 01fc 10EB0A00 		ADDS	r0, r0, r10
 1840 0200 51EB0B01 		ADCS	r1, r1, r11
 1841 0204 52EB0C02 		ADCS	r2, r2, r12
 1842 0208 53F10003 		ADCS	r3, r3, #0x0
 1843 020c 54F10004 		ADCS	r4, r4, #0x0
 1844 0210 4EF1000E 		ADC	lr, lr, #0x0
 1845 0214 0B90     		STR	r0, [sp, #44]
 1846 0216 0C91     		STR	r1, [sp, #48]
 1847 0218 0D92     		STR	r2, [sp, #52]
 1848 021a 0E93     		STR	r3, [sp, #56]
 1849 021c 07A8     		ADD	r0, sp, #0x1c
 1850 021e 0FC8     		LDM	r0, {r0, r1, r2, r3}
 1851 0220 401B     		SUBS	r0, r0, r5
 1852 0222 B141     		SBCS	r1, r1, r6
 1853 0224 BA41     		SBCS	r2, r2, r7
 1854 0226 73EB0803 		SBCS	r3, r3, r8
 1855 022a 0BA8     		ADD	r0, sp, #0x2c
 1856 022c A046     		MOV	r8, r4
 1857 022e 90E8F000 		LDM	r0, {r4, r5, r6, r7}
 1858 0232 74EB0904 		SBCS	r4, r4, r9
 1859 0236 75EB0A05 		SBCS	r5, r5, r10
 1860 023a 76EB0B06 		SBCS	r6, r6, r11
 1861 023e 77EB0C07 		SBCS	r7, r7, r12
 1862 0242 78F10008 		SBCS	r8, r8, #0x0
 1863 0246 6EF1000E 		SBC	lr, lr, #0x0
 1864 024a CEF1000E 		RSB	lr, lr, #0x0
 1865 024e B1EB0E01 		SUBS	r1, r1, lr
 1866 0252 72EB0E02 		SBCS	r2, r2, lr
 1867 0256 73EB0E03 		SBCS	r3, r3, lr
 1868 025a 74F10004 		SBCS	r4, r4, #0x0
 1869 025e 75F10005 		SBCS	r5, r5, #0x0
 1870 0262 76F10006 		SBCS	r6, r6, #0x0
 1871 0266 77EBDE77 		SBCS	r7, r7, lr, LSR #31
 1872 026a 68EB0E08 		SBC	r8, r8, lr
 1873 026e 1098     		LDR	r0, [sp, #64]
 1874 0270 80E8FE01 		STM	r0, {r1, r2, r3, r4, r5, r6, r7, r8}
 1875 0274 11B0     		ADD	sp, sp, #0x44
 1876              		
 1877              	@ 0 "" 2
ARM GAS  /tmp/ccwGYw5D.s 			page 33


 1878              		.thumb
 1879              		.syntax unified
 1880 0276 BDE8F08F 		pop	{r4, r5, r6, r7, r8, r9, r10, fp, pc}
 1882              		.section	.text.sp_256_mont_sqr_n_8.constprop.0,"ax",%progbits
 1883              		.align	1
 1884              		.syntax unified
 1885              		.thumb
 1886              		.thumb_func
 1887              		.fpu fpv4-sp-d16
 1889              	sp_256_mont_sqr_n_8.constprop.0:
 1890              		@ args = 0, pretend = 0, frame = 0
 1891              		@ frame_needed = 0, uses_anonymous_args = 0
 1892 0000 38B5     		push	{r3, r4, r5, lr}
 1893 0002 0546     		mov	r5, r0
 1894 0004 1446     		mov	r4, r2
 1895 0006 FFF7FEFF 		bl	sp_256_mont_sqr_8.constprop.0
 1896              	.L84:
 1897 000a 2946     		mov	r1, r5
 1898 000c 2846     		mov	r0, r5
 1899 000e 013C     		subs	r4, r4, #1
 1900 0010 FFF7FEFF 		bl	sp_256_mont_sqr_8.constprop.0
 1901 0014 012C     		cmp	r4, #1
 1902 0016 F8D1     		bne	.L84
 1903 0018 38BD     		pop	{r3, r4, r5, pc}
 1905              		.section	.text.sp_256_mont_mul_8.constprop.0,"ax",%progbits
 1906              		.align	1
 1907              		.syntax unified
 1908              		.thumb
 1909              		.thumb_func
 1910              		.fpu fpv4-sp-d16
 1912              	sp_256_mont_mul_8.constprop.0:
 1913              		@ args = 0, pretend = 0, frame = 0
 1914              		@ frame_needed = 0, uses_anonymous_args = 0
 1915 0000 2DE9F04F 		push	{r4, r5, r6, r7, r8, r9, r10, fp, lr}
 1916              		.syntax unified
 1917              	@ 33683 "../wolfssl/wolfcrypt/src/sp_cortexm.c" 1
 1918 0004 93B0     		SUB	sp, sp, #0x4c
 1919 0006 CDE91101 		STRD	r0, r1, [sp, #68]
 1920 000a 9646     		MOV	lr, r2
 1921 000c 0FC9     		LDM	r1, {r0, r1, r2, r3}
 1922 000e BEE87000 		LDM	lr!, {r4, r5, r6}
 1923 0012 A0FB04AB 		UMULL	r10, r11, r0, r4
 1924 0016 A1FB04C7 		UMULL	r12, r7, r1, r4
 1925 001a E0FB65BC 		UMAAL	r11, r12, r0, r5
 1926 001e A2FB0489 		UMULL	r8, r9, r2, r4
 1927 0022 E1FB65C8 		UMAAL	r12, r8, r1, r5
 1928 0026 E0FB66C7 		UMAAL	r12, r7, r0, r6
 1929 002a E3FB6489 		UMAAL	r8, r9, r3, r4
 1930 002e 8DE8001C 		STM	sp, {r10, r11, r12}
 1931 0032 E2FB6578 		UMAAL	r7, r8, r2, r5
 1932 0036 5EF8044B 		LDM	lr!, {r4}
 1933 003a A1FB06AB 		UMULL	r10, r11, r1, r6
 1934 003e E2FB6689 		UMAAL	r8, r9, r2, r6
 1935 0042 E0FB647A 		UMAAL	r7, r10, r0, r4
 1936 0046 E3FB658B 		UMAAL	r8, r11, r3, r5
 1937 004a 0397     		STR	r7, [sp, #12]
 1938 004c E1FB648A 		UMAAL	r8, r10, r1, r4
ARM GAS  /tmp/ccwGYw5D.s 			page 34


 1939 0050 E3FB669B 		UMAAL	r9, r11, r3, r6
 1940 0054 E2FB649A 		UMAAL	r9, r10, r2, r4
 1941 0058 E3FB64AB 		UMAAL	r10, r11, r3, r4
 1942 005c 9EE8F000 		LDM	lr, {r4, r5, r6, r7}
 1943 0060 4FF0000C 		MOV	r12, #0x0
 1944 0064 E0FB048C 		UMLAL	r8, r12, r0, r4
 1945 0068 E1FB649C 		UMAAL	r9, r12, r1, r4
 1946 006c E2FB64AC 		UMAAL	r10, r12, r2, r4
 1947 0070 E3FB64BC 		UMAAL	r11, r12, r3, r4
 1948 0074 4FF00004 		MOV	r4, #0x0
 1949 0078 E0FB0594 		UMLAL	r9, r4, r0, r5
 1950 007c E1FB65A4 		UMAAL	r10, r4, r1, r5
 1951 0080 E2FB65B4 		UMAAL	r11, r4, r2, r5
 1952 0084 E3FB65C4 		UMAAL	r12, r4, r3, r5
 1953 0088 4FF00005 		MOV	r5, #0x0
 1954 008c E0FB06A5 		UMLAL	r10, r5, r0, r6
 1955 0090 E1FB66B5 		UMAAL	r11, r5, r1, r6
 1956 0094 E2FB66C5 		UMAAL	r12, r5, r2, r6
 1957 0098 E3FB6645 		UMAAL	r4, r5, r3, r6
 1958 009c 4FF00006 		MOV	r6, #0x0
 1959 00a0 E0FB07B6 		UMLAL	r11, r6, r0, r7
 1960 00a4 1298     		LDR	r0, [sp, #72]
 1961 00a6 E1FB67C6 		UMAAL	r12, r6, r1, r7
 1962 00aa 00F11000 		ADD	r0, r0, #0x10
 1963 00ae E2FB6746 		UMAAL	r4, r6, r2, r7
 1964 00b2 AEF1100E 		SUB	lr, lr, #0x10
 1965 00b6 E3FB6756 		UMAAL	r5, r6, r3, r7
 1966 00ba 0FC8     		LDM	r0, {r0, r1, r2, r3}
 1967 00bc 1096     		STR	r6, [sp, #64]
 1968 00be 5EF8046B 		LDM	lr!, {r6}
 1969 00c2 4FF00007 		MOV	r7, #0x0
 1970 00c6 E0FB0687 		UMLAL	r8, r7, r0, r6
 1971 00ca E1FB6697 		UMAAL	r9, r7, r1, r6
 1972 00ce CDF81080 		STR	r8, [sp, #16]
 1973 00d2 E2FB66A7 		UMAAL	r10, r7, r2, r6
 1974 00d6 E3FB66B7 		UMAAL	r11, r7, r3, r6
 1975 00da 5EF8046B 		LDM	lr!, {r6}
 1976 00de 4FF00008 		MOV	r8, #0x0
 1977 00e2 E0FB0698 		UMLAL	r9, r8, r0, r6
 1978 00e6 E1FB66A8 		UMAAL	r10, r8, r1, r6
 1979 00ea CDF81490 		STR	r9, [sp, #20]
 1980 00ee E2FB66B8 		UMAAL	r11, r8, r2, r6
 1981 00f2 E3FB66C8 		UMAAL	r12, r8, r3, r6
 1982 00f6 5EF8046B 		LDM	lr!, {r6}
 1983 00fa 4FF00009 		MOV	r9, #0x0
 1984 00fe E0FB06A9 		UMLAL	r10, r9, r0, r6
 1985 0102 E1FB66B9 		UMAAL	r11, r9, r1, r6
 1986 0106 CDF818A0 		STR	r10, [sp, #24]
 1987 010a E2FB66C9 		UMAAL	r12, r9, r2, r6
 1988 010e E3FB6649 		UMAAL	r4, r9, r3, r6
 1989 0112 5EF8046B 		LDM	lr!, {r6}
 1990 0116 4FF0000A 		MOV	r10, #0x0
 1991 011a E0FB06BA 		UMLAL	r11, r10, r0, r6
 1992 011e E1FB66CA 		UMAAL	r12, r10, r1, r6
 1993 0122 CDF81CB0 		STR	r11, [sp, #28]
 1994 0126 E2FB664A 		UMAAL	r4, r10, r2, r6
 1995 012a E3FB665A 		UMAAL	r5, r10, r3, r6
ARM GAS  /tmp/ccwGYw5D.s 			page 35


 1996 012e 5EF804BB 		LDM	lr!, {r11}
 1997 0132 E0FB6BC7 		UMAAL	r12, r7, r0, r11
 1998 0136 E1FB6B47 		UMAAL	r4, r7, r1, r11
 1999 013a 109E     		LDR	r6, [sp, #64]
 2000 013c E2FB6B57 		UMAAL	r5, r7, r2, r11
 2001 0140 E3FB6B67 		UMAAL	r6, r7, r3, r11
 2002 0144 5EF804BB 		LDM	lr!, {r11}
 2003 0148 E0FB6B48 		UMAAL	r4, r8, r0, r11
 2004 014c E1FB6B58 		UMAAL	r5, r8, r1, r11
 2005 0150 E2FB6B68 		UMAAL	r6, r8, r2, r11
 2006 0154 E3FB6B78 		UMAAL	r7, r8, r3, r11
 2007 0158 9EE80048 		LDM	lr, {r11, lr}
 2008 015c E0FB6B59 		UMAAL	r5, r9, r0, r11
 2009 0160 E0FB6E6A 		UMAAL	r6, r10, r0, lr
 2010 0164 E1FB6B69 		UMAAL	r6, r9, r1, r11
 2011 0168 E1FB6E7A 		UMAAL	r7, r10, r1, lr
 2012 016c E2FB6B79 		UMAAL	r7, r9, r2, r11
 2013 0170 E2FB6E8A 		UMAAL	r8, r10, r2, lr
 2014 0174 E3FB6B89 		UMAAL	r8, r9, r3, r11
 2015 0178 E3FB6E9A 		UMAAL	r9, r10, r3, lr
 2016 017c 6346     		MOV	r3, r12
 2017 017e 0DF1200E 		ADD	lr, sp, #0x20
 2018 0182 8EE8F807 		STM	lr, {r3, r4, r5, r6, r7, r8, r9, r10}
 2019 0186 9DE8E01F 		LDM	sp, {r5, r6, r7, r8, r9, r10, r11, r12}
 2020 018a 5B46     		MOV	r3, r11
 2021 018c 6446     		MOV	r4, r12
 2022 018e 1BEB050B 		ADDS	r11, r11, r5
 2023 0192 4CEB060C 		ADC	r12, r12, r6
 2024 0196 1BEB050B 		ADDS	r11, r11, r5
 2025 019a 4CEB060C 		ADC	r12, r12, r6
 2026 019e ACEB050C 		SUB	r12, r12, r5
 2027 01a2 4046     		MOV	r0, r8
 2028 01a4 4946     		MOV	r1, r9
 2029 01a6 5246     		MOV	r2, r10
 2030 01a8 18EB0508 		ADDS	r8, r8, r5
 2031 01ac 59EB0609 		ADCS	r9, r9, r6
 2032 01b0 5AEB070A 		ADCS	r10, r10, r7
 2033 01b4 5BEB000B 		ADCS	r11, r11, r0
 2034 01b8 4CEB010C 		ADC	r12, r12, r1
 2035 01bc 4019     		ADDS	r0, r0, r5
 2036 01be 7141     		ADCS	r1, r1, r6
 2037 01c0 7A41     		ADCS	r2, r2, r7
 2038 01c2 53EB0803 		ADCS	r3, r3, r8
 2039 01c6 54EB0904 		ADCS	r4, r4, r9
 2040 01ca 4FF0000E 		MOV	lr, #0x0
 2041 01ce 4EF1000E 		ADC	lr, lr, #0x0
 2042 01d2 5B19     		ADDS	r3, r3, r5
 2043 01d4 7441     		ADCS	r4, r4, r6
 2044 01d6 4EF1000E 		ADC	lr, lr, #0x0
 2045 01da 0794     		STR	r4, [sp, #28]
 2046 01dc 08A8     		ADD	r0, sp, #0x20
 2047 01de 90E81C00 		LDM	r0, {r2, r3, r4}
 2048 01e2 12EB0E02 		ADDS	r2, r2, lr
 2049 01e6 53F10003 		ADCS	r3, r3, #0x0
 2050 01ea 54F10004 		ADCS	r4, r4, #0x0
 2051 01ee 4FF0000E 		MOV	lr, #0x0
 2052 01f2 4EF1000E 		ADC	lr, lr, #0x0
ARM GAS  /tmp/ccwGYw5D.s 			page 36


 2053 01f6 5219     		ADDS	r2, r2, r5
 2054 01f8 7341     		ADCS	r3, r3, r6
 2055 01fa 7C41     		ADCS	r4, r4, r7
 2056 01fc 4EF1000E 		ADC	lr, lr, #0x0
 2057 0200 D219     		ADDS	r2, r2, r7
 2058 0202 53EB0803 		ADCS	r3, r3, r8
 2059 0206 54EB0904 		ADCS	r4, r4, r9
 2060 020a 4EF1000E 		ADC	lr, lr, #0x0
 2061 020e 12EB0A02 		ADDS	r2, r2, r10
 2062 0212 53EB0B03 		ADCS	r3, r3, r11
 2063 0216 54EB0C04 		ADCS	r4, r4, r12
 2064 021a 4EF1000E 		ADC	lr, lr, #0x0
 2065 021e 1CC0     		STM	r0!, {r2, r3, r4}
 2066 0220 1FC8     		LDM	r0, {r0, r1, r2, r3, r4}
 2067 0222 10EB0E00 		ADDS	r0, r0, lr
 2068 0226 51F10001 		ADCS	r1, r1, #0x0
 2069 022a 52F10002 		ADCS	r2, r2, #0x0
 2070 022e 53F10003 		ADCS	r3, r3, #0x0
 2071 0232 54F10004 		ADCS	r4, r4, #0x0
 2072 0236 4FF0000E 		MOV	lr, #0x0
 2073 023a 4EF1000E 		ADC	lr, lr, #0x0
 2074 023e 10EB0800 		ADDS	r0, r0, r8
 2075 0242 51EB0901 		ADCS	r1, r1, r9
 2076 0246 52EB0A02 		ADCS	r2, r2, r10
 2077 024a 53EB0B03 		ADCS	r3, r3, r11
 2078 024e 54EB0C04 		ADCS	r4, r4, r12
 2079 0252 4EF1000E 		ADC	lr, lr, #0x0
 2080 0256 10EB0A00 		ADDS	r0, r0, r10
 2081 025a 51EB0B01 		ADCS	r1, r1, r11
 2082 025e 52EB0C02 		ADCS	r2, r2, r12
 2083 0262 53F10003 		ADCS	r3, r3, #0x0
 2084 0266 54F10004 		ADCS	r4, r4, #0x0
 2085 026a 4EF1000E 		ADC	lr, lr, #0x0
 2086 026e 0B90     		STR	r0, [sp, #44]
 2087 0270 0C91     		STR	r1, [sp, #48]
 2088 0272 0D92     		STR	r2, [sp, #52]
 2089 0274 0E93     		STR	r3, [sp, #56]
 2090 0276 07A8     		ADD	r0, sp, #0x1c
 2091 0278 0FC8     		LDM	r0, {r0, r1, r2, r3}
 2092 027a 401B     		SUBS	r0, r0, r5
 2093 027c B141     		SBCS	r1, r1, r6
 2094 027e BA41     		SBCS	r2, r2, r7
 2095 0280 73EB0803 		SBCS	r3, r3, r8
 2096 0284 0BA8     		ADD	r0, sp, #0x2c
 2097 0286 A046     		MOV	r8, r4
 2098 0288 90E8F000 		LDM	r0, {r4, r5, r6, r7}
 2099 028c 74EB0904 		SBCS	r4, r4, r9
 2100 0290 75EB0A05 		SBCS	r5, r5, r10
 2101 0294 76EB0B06 		SBCS	r6, r6, r11
 2102 0298 77EB0C07 		SBCS	r7, r7, r12
 2103 029c 78F10008 		SBCS	r8, r8, #0x0
 2104 02a0 6EF1000E 		SBC	lr, lr, #0x0
 2105 02a4 CEF1000E 		RSB	lr, lr, #0x0
 2106 02a8 B1EB0E01 		SUBS	r1, r1, lr
 2107 02ac 72EB0E02 		SBCS	r2, r2, lr
 2108 02b0 73EB0E03 		SBCS	r3, r3, lr
 2109 02b4 74F10004 		SBCS	r4, r4, #0x0
ARM GAS  /tmp/ccwGYw5D.s 			page 37


 2110 02b8 75F10005 		SBCS	r5, r5, #0x0
 2111 02bc 76F10006 		SBCS	r6, r6, #0x0
 2112 02c0 77EBDE77 		SBCS	r7, r7, lr, LSR #31
 2113 02c4 68EB0E08 		SBC	r8, r8, lr
 2114 02c8 1198     		LDR	r0, [sp, #68]
 2115 02ca 80E8FE01 		STM	r0, {r1, r2, r3, r4, r5, r6, r7, r8}
 2116 02ce 13B0     		ADD	sp, sp, #0x4c
 2117              		
 2118              	@ 0 "" 2
 2119              		.thumb
 2120              		.syntax unified
 2121 02d0 BDE8F08F 		pop	{r4, r5, r6, r7, r8, r9, r10, fp, pc}
 2123              		.section	.text.sp_256_proj_point_dbl_8,"ax",%progbits
 2124              		.align	1
 2125              		.syntax unified
 2126              		.thumb
 2127              		.thumb_func
 2128              		.fpu fpv4-sp-d16
 2130              	sp_256_proj_point_dbl_8:
 2131              		@ args = 0, pretend = 0, frame = 8
 2132              		@ frame_needed = 0, uses_anonymous_args = 0
 2133 0000 2DE9F347 		push	{r0, r1, r4, r5, r6, r7, r8, r9, r10, lr}
 2134 0004 1646     		mov	r6, r2
 2135 0006 0F46     		mov	r7, r1
 2136 0008 0546     		mov	r5, r0
 2137 000a 8842     		cmp	r0, r1
 2138 000c 18BF     		it	ne
 2139 000e D1F8C030 		ldrne	r3, [r1, #192]
 2140 0012 02F14008 		add	r8, r2, #64
 2141 0016 01F18002 		add	r2, r1, #128
 2142 001a 18BF     		it	ne
 2143 001c C0F8C030 		strne	r3, [r0, #192]
 2144 0020 00F14004 		add	r4, r0, #64
 2145 0024 00F1800A 		add	r10, r0, #128
 2146 0028 1146     		mov	r1, r2
 2147 002a 3046     		mov	r0, r6
 2148 002c 07F14009 		add	r9, r7, #64
 2149 0030 0192     		str	r2, [sp, #4]
 2150 0032 FFF7FEFF 		bl	sp_256_mont_sqr_8.constprop.0
 2151 0036 019A     		ldr	r2, [sp, #4]
 2152 0038 4946     		mov	r1, r9
 2153 003a 5046     		mov	r0, r10
 2154 003c FFF7FEFF 		bl	sp_256_mont_mul_8.constprop.0
 2155 0040 5146     		mov	r1, r10
 2156 0042 5046     		mov	r0, r10
 2157 0044 FFF7FEFF 		bl	sp_256_mont_dbl_8.constprop.0
 2158 0048 3246     		mov	r2, r6
 2159 004a 3946     		mov	r1, r7
 2160 004c 4046     		mov	r0, r8
 2161 004e FFF7FEFF 		bl	sp_256_mont_sub_8.constprop.0
 2162 0052 3246     		mov	r2, r6
 2163 0054 3946     		mov	r1, r7
 2164 0056 3046     		mov	r0, r6
 2165 0058 FFF7FEFF 		bl	sp_256_mont_add_8.constprop.0
 2166 005c 4246     		mov	r2, r8
 2167 005e 3146     		mov	r1, r6
 2168 0060 4046     		mov	r0, r8
ARM GAS  /tmp/ccwGYw5D.s 			page 38


 2169 0062 FFF7FEFF 		bl	sp_256_mont_mul_8.constprop.0
 2170 0066 4146     		mov	r1, r8
 2171 0068 3046     		mov	r0, r6
 2172 006a FFF7FEFF 		bl	sp_256_mont_tpl_8.constprop.0
 2173 006e 4946     		mov	r1, r9
 2174 0070 2046     		mov	r0, r4
 2175 0072 FFF7FEFF 		bl	sp_256_mont_dbl_8.constprop.0
 2176 0076 2146     		mov	r1, r4
 2177 0078 2046     		mov	r0, r4
 2178 007a FFF7FEFF 		bl	sp_256_mont_sqr_8.constprop.0
 2179 007e 2146     		mov	r1, r4
 2180 0080 4046     		mov	r0, r8
 2181 0082 FFF7FEFF 		bl	sp_256_mont_sqr_8.constprop.0
 2182 0086 4146     		mov	r1, r8
 2183 0088 4046     		mov	r0, r8
 2184 008a FFF7FEFF 		bl	sp_256_mont_div2_8.constprop.0
 2185 008e 3A46     		mov	r2, r7
 2186 0090 2146     		mov	r1, r4
 2187 0092 2046     		mov	r0, r4
 2188 0094 FFF7FEFF 		bl	sp_256_mont_mul_8.constprop.0
 2189 0098 3146     		mov	r1, r6
 2190 009a 2846     		mov	r0, r5
 2191 009c FFF7FEFF 		bl	sp_256_mont_sqr_8.constprop.0
 2192 00a0 2246     		mov	r2, r4
 2193 00a2 2946     		mov	r1, r5
 2194 00a4 2846     		mov	r0, r5
 2195 00a6 FFF7FEFF 		bl	sp_256_mont_sub_8.constprop.0
 2196 00aa 2246     		mov	r2, r4
 2197 00ac 2946     		mov	r1, r5
 2198 00ae 2846     		mov	r0, r5
 2199 00b0 FFF7FEFF 		bl	sp_256_mont_sub_8.constprop.0
 2200 00b4 2A46     		mov	r2, r5
 2201 00b6 2146     		mov	r1, r4
 2202 00b8 2046     		mov	r0, r4
 2203 00ba FFF7FEFF 		bl	sp_256_mont_sub_8.constprop.0
 2204 00be 3246     		mov	r2, r6
 2205 00c0 2146     		mov	r1, r4
 2206 00c2 2046     		mov	r0, r4
 2207 00c4 FFF7FEFF 		bl	sp_256_mont_mul_8.constprop.0
 2208 00c8 4246     		mov	r2, r8
 2209 00ca 2146     		mov	r1, r4
 2210 00cc 2046     		mov	r0, r4
 2211 00ce 02B0     		add	sp, sp, #8
 2212              		@ sp needed
 2213 00d0 BDE8F047 		pop	{r4, r5, r6, r7, r8, r9, r10, lr}
 2214 00d4 FFF7FEBF 		b	sp_256_mont_sub_8.constprop.0
 2216              		.section	.text.sp_256_proj_point_add_8,"ax",%progbits
 2217              		.align	1
 2218              		.syntax unified
 2219              		.thumb
 2220              		.thumb_func
 2221              		.fpu fpv4-sp-d16
 2223              	sp_256_proj_point_add_8:
 2224              		@ args = 0, pretend = 0, frame = 16
 2225              		@ frame_needed = 0, uses_anonymous_args = 0
 2226 0000 2DE9F04F 		push	{r4, r5, r6, r7, r8, r9, r10, fp, lr}
 2227 0004 8846     		mov	r8, r1
ARM GAS  /tmp/ccwGYw5D.s 			page 39


 2228 0006 85B0     		sub	sp, sp, #20
 2229 0008 03F14006 		add	r6, r3, #64
 2230 000c 03F18007 		add	r7, r3, #128
 2231 0010 03F1C00B 		add	fp, r3, #192
 2232 0014 03F58075 		add	r5, r3, #256
 2233 0018 1C46     		mov	r4, r3
 2234 001a 02F18003 		add	r3, r2, #128
 2235 001e 1946     		mov	r1, r3
 2236 0020 0290     		str	r0, [sp, #8]
 2237 0022 3046     		mov	r0, r6
 2238 0024 9146     		mov	r9, r2
 2239 0026 0193     		str	r3, [sp, #4]
 2240 0028 FFF7FEFF 		bl	sp_256_mont_sqr_8.constprop.0
 2241 002c 019B     		ldr	r3, [sp, #4]
 2242 002e 3146     		mov	r1, r6
 2243 0030 1A46     		mov	r2, r3
 2244 0032 5846     		mov	r0, fp
 2245 0034 0393     		str	r3, [sp, #12]
 2246 0036 FFF7FEFF 		bl	sp_256_mont_mul_8.constprop.0
 2247 003a 4246     		mov	r2, r8
 2248 003c 3146     		mov	r1, r6
 2249 003e 3046     		mov	r0, r6
 2250 0040 FFF7FEFF 		bl	sp_256_mont_mul_8.constprop.0
 2251 0044 08F18003 		add	r3, r8, #128
 2252 0048 07EE903A 		vmov	s15, r3	@ int
 2253 004c 1946     		mov	r1, r3
 2254 004e 3846     		mov	r0, r7
 2255 0050 FFF7FEFF 		bl	sp_256_mont_sqr_8.constprop.0
 2256 0054 17EE902A 		vmov	r2, s15	@ int
 2257 0058 3946     		mov	r1, r7
 2258 005a 2846     		mov	r0, r5
 2259 005c FFF7FEFF 		bl	sp_256_mont_mul_8.constprop.0
 2260 0060 4A46     		mov	r2, r9
 2261 0062 3946     		mov	r1, r7
 2262 0064 3846     		mov	r0, r7
 2263 0066 FFF7FEFF 		bl	sp_256_mont_mul_8.constprop.0
 2264 006a 5946     		mov	r1, fp
 2265 006c 5846     		mov	r0, fp
 2266 006e 08F14002 		add	r2, r8, #64
 2267 0072 FFF7FEFF 		bl	sp_256_mont_mul_8.constprop.0
 2268 0076 09F14002 		add	r2, r9, #64
 2269 007a 2946     		mov	r1, r5
 2270 007c 2846     		mov	r0, r5
 2271 007e FFF7FEFF 		bl	sp_256_mont_mul_8.constprop.0
 2272 0082 3146     		mov	r1, r6
 2273 0084 3846     		mov	r0, r7
 2274 0086 FFF7FEFF 		bl	sp_256_cmp_equal_8
 2275 008a 5946     		mov	r1, fp
 2276 008c 8246     		mov	r10, r0
 2277 008e 2846     		mov	r0, r5
 2278 0090 FFF7FEFF 		bl	sp_256_cmp_equal_8
 2279 0094 D8F8C020 		ldr	r2, [r8, #192]
 2280 0098 D9F8C010 		ldr	r1, [r9, #192]
 2281 009c 0AEA0000 		and	r0, r10, r0
 2282 00a0 0A43     		orrs	r2, r2, r1
 2283 00a2 30EA0203 		bics	r3, r0, r2
 2284 00a6 0193     		str	r3, [sp, #4]
ARM GAS  /tmp/ccwGYw5D.s 			page 40


 2285 00a8 039B     		ldr	r3, [sp, #12]
 2286 00aa 07D0     		beq	.L91
 2287 00ac 2246     		mov	r2, r4
 2288 00ae 4146     		mov	r1, r8
 2289 00b0 0298     		ldr	r0, [sp, #8]
 2290 00b2 05B0     		add	sp, sp, #20
 2291              		@ sp needed
 2292 00b4 BDE8F04F 		pop	{r4, r5, r6, r7, r8, r9, r10, fp, lr}
 2293 00b8 FFF7FEBF 		b	sp_256_proj_point_dbl_8
 2294              	.L91:
 2295 00bc 3946     		mov	r1, r7
 2296 00be 3846     		mov	r0, r7
 2297 00c0 3246     		mov	r2, r6
 2298 00c2 04F5A07A 		add	r10, r4, #320
 2299 00c6 0393     		str	r3, [sp, #12]
 2300 00c8 FFF7FEFF 		bl	sp_256_mont_sub_8.constprop.0
 2301 00cc 5A46     		mov	r2, fp
 2302 00ce 2946     		mov	r1, r5
 2303 00d0 2846     		mov	r0, r5
 2304 00d2 FFF7FEFF 		bl	sp_256_mont_sub_8.constprop.0
 2305 00d6 3946     		mov	r1, r7
 2306 00d8 5046     		mov	r0, r10
 2307 00da FFF7FEFF 		bl	sp_256_mont_sqr_8.constprop.0
 2308 00de 5246     		mov	r2, r10
 2309 00e0 3146     		mov	r1, r6
 2310 00e2 3046     		mov	r0, r6
 2311 00e4 FFF7FEFF 		bl	sp_256_mont_mul_8.constprop.0
 2312 00e8 3A46     		mov	r2, r7
 2313 00ea 5146     		mov	r1, r10
 2314 00ec 5046     		mov	r0, r10
 2315 00ee FFF7FEFF 		bl	sp_256_mont_mul_8.constprop.0
 2316 00f2 3A46     		mov	r2, r7
 2317 00f4 3846     		mov	r0, r7
 2318 00f6 17EE901A 		vmov	r1, s15	@ int
 2319 00fa FFF7FEFF 		bl	sp_256_mont_mul_8.constprop.0
 2320 00fe 039B     		ldr	r3, [sp, #12]
 2321 0100 3946     		mov	r1, r7
 2322 0102 1A46     		mov	r2, r3
 2323 0104 3846     		mov	r0, r7
 2324 0106 FFF7FEFF 		bl	sp_256_mont_mul_8.constprop.0
 2325 010a 2946     		mov	r1, r5
 2326 010c 2046     		mov	r0, r4
 2327 010e FFF7FEFF 		bl	sp_256_mont_sqr_8.constprop.0
 2328 0112 5246     		mov	r2, r10
 2329 0114 2146     		mov	r1, r4
 2330 0116 2046     		mov	r0, r4
 2331 0118 FFF7FEFF 		bl	sp_256_mont_sub_8.constprop.0
 2332 011c 5A46     		mov	r2, fp
 2333 011e 5146     		mov	r1, r10
 2334 0120 5046     		mov	r0, r10
 2335 0122 FFF7FEFF 		bl	sp_256_mont_mul_8.constprop.0
 2336 0126 3146     		mov	r1, r6
 2337 0128 5846     		mov	r0, fp
 2338 012a FFF7FEFF 		bl	sp_256_mont_dbl_8.constprop.0
 2339 012e 5A46     		mov	r2, fp
 2340 0130 2146     		mov	r1, r4
 2341 0132 2046     		mov	r0, r4
ARM GAS  /tmp/ccwGYw5D.s 			page 41


 2342 0134 FFF7FEFF 		bl	sp_256_mont_sub_8.constprop.0
 2343 0138 2246     		mov	r2, r4
 2344 013a 3146     		mov	r1, r6
 2345 013c 3046     		mov	r0, r6
 2346 013e FFF7FEFF 		bl	sp_256_mont_sub_8.constprop.0
 2347 0142 2A46     		mov	r2, r5
 2348 0144 3146     		mov	r1, r6
 2349 0146 3046     		mov	r0, r6
 2350 0148 FFF7FEFF 		bl	sp_256_mont_mul_8.constprop.0
 2351 014c 5246     		mov	r2, r10
 2352 014e 3146     		mov	r1, r6
 2353 0150 3046     		mov	r0, r6
 2354 0152 FFF7FEFF 		bl	sp_256_mont_sub_8.constprop.0
 2355 0156 D9F8C020 		ldr	r2, [r9, #192]
 2356 015a D8F8C030 		ldr	r3, [r8, #192]
 2357 015e 002B     		cmp	r3, #0
 2358 0160 14BF     		ite	ne
 2359 0162 0020     		movne	r0, #0
 2360 0164 02F00100 		andeq	r0, r2, #1
 2361 0168 002A     		cmp	r2, #0
 2362 016a 14BF     		ite	ne
 2363 016c 0021     		movne	r1, #0
 2364 016e 03F00101 		andeq	r1, r3, #1
 2365 0172 4042     		rsbs	r0, r0, #0
 2366 0174 4942     		rsbs	r1, r1, #0
 2367 0176 40EA0107 		orr	r7, r0, r1
 2368 017a FF43     		mvns	r7, r7
 2369 017c 1A40     		ands	r2, r2, r3
 2370              	.L92:
 2371 017e 019D     		ldr	r5, [sp, #4]
 2372 0180 019B     		ldr	r3, [sp, #4]
 2373 0182 59F82560 		ldr	r6, [r9, r5, lsl #2]
 2374 0186 58F82330 		ldr	r3, [r8, r3, lsl #2]
 2375 018a 0E40     		ands	r6, r6, r1
 2376 018c 0340     		ands	r3, r3, r0
 2377 018e 3343     		orrs	r3, r3, r6
 2378 0190 54F82560 		ldr	r6, [r4, r5, lsl #2]
 2379 0194 3E40     		ands	r6, r6, r7
 2380 0196 1E43     		orrs	r6, r6, r3
 2381 0198 029B     		ldr	r3, [sp, #8]
 2382 019a 43F82560 		str	r6, [r3, r5, lsl #2]
 2383 019e 2B46     		mov	r3, r5
 2384 01a0 0133     		adds	r3, r3, #1
 2385 01a2 082B     		cmp	r3, #8
 2386 01a4 0193     		str	r3, [sp, #4]
 2387 01a6 EAD1     		bne	.L92
 2388 01a8 4026     		movs	r6, #64
 2389              	.L93:
 2390 01aa 58F80630 		ldr	r3, [r8, r6]
 2391 01ae 59F80650 		ldr	r5, [r9, r6]
 2392 01b2 0340     		ands	r3, r3, r0
 2393 01b4 0D40     		ands	r5, r5, r1
 2394 01b6 2B43     		orrs	r3, r3, r5
 2395 01b8 A559     		ldr	r5, [r4, r6]
 2396 01ba 3D40     		ands	r5, r5, r7
 2397 01bc 1D43     		orrs	r5, r5, r3
 2398 01be 029B     		ldr	r3, [sp, #8]
ARM GAS  /tmp/ccwGYw5D.s 			page 42


 2399 01c0 9D51     		str	r5, [r3, r6]
 2400 01c2 0436     		adds	r6, r6, #4
 2401 01c4 602E     		cmp	r6, #96
 2402 01c6 F0D1     		bne	.L93
 2403 01c8 8026     		movs	r6, #128
 2404              	.L94:
 2405 01ca 58F80630 		ldr	r3, [r8, r6]
 2406 01ce 59F80650 		ldr	r5, [r9, r6]
 2407 01d2 0340     		ands	r3, r3, r0
 2408 01d4 0D40     		ands	r5, r5, r1
 2409 01d6 2B43     		orrs	r3, r3, r5
 2410 01d8 A559     		ldr	r5, [r4, r6]
 2411 01da 3D40     		ands	r5, r5, r7
 2412 01dc 1D43     		orrs	r5, r5, r3
 2413 01de 029B     		ldr	r3, [sp, #8]
 2414 01e0 9D51     		str	r5, [r3, r6]
 2415 01e2 0436     		adds	r6, r6, #4
 2416 01e4 A02E     		cmp	r6, #160
 2417 01e6 F0D1     		bne	.L94
 2418 01e8 D3F88030 		ldr	r3, [r3, #128]
 2419 01ec 0299     		ldr	r1, [sp, #8]
 2420 01ee 1343     		orrs	r3, r3, r2
 2421 01f0 C1F88030 		str	r3, [r1, #128]
 2422 01f4 C1F8C020 		str	r2, [r1, #192]
 2423 01f8 05B0     		add	sp, sp, #20
 2424              		@ sp needed
 2425 01fa BDE8F08F 		pop	{r4, r5, r6, r7, r8, r9, r10, fp, pc}
 2427              		.section	.text.sp_256_from_mp.constprop.0,"ax",%progbits
 2428              		.align	1
 2429              		.syntax unified
 2430              		.thumb
 2431              		.thumb_func
 2432              		.fpu fpv4-sp-d16
 2434              	sp_256_from_mp.constprop.0:
 2435              		@ args = 0, pretend = 0, frame = 0
 2436              		@ frame_needed = 0, uses_anonymous_args = 0
 2437 0000 30B5     		push	{r4, r5, lr}
 2438 0002 0024     		movs	r4, #0
 2439 0004 0A88     		ldrh	r2, [r1]
 2440 0006 0438     		subs	r0, r0, #4
 2441 0008 5342     		rsbs	r3, r2, #0
 2442 000a C2F10802 		rsb	r2, r2, #8
 2443              	.L99:
 2444 000e 01EB8405 		add	r5, r1, r4, lsl #2
 2445 0012 6D68     		ldr	r5, [r5, #4]
 2446 0014 05EAE375 		and	r5, r5, r3, asr #31
 2447 0018 0133     		adds	r3, r3, #1
 2448 001a 9342     		cmp	r3, r2
 2449 001c 40F8045F 		str	r5, [r0, #4]!
 2450 0020 04EBD374 		add	r4, r4, r3, lsr #31
 2451 0024 F3D1     		bne	.L99
 2452 0026 30BD     		pop	{r4, r5, pc}
 2454              		.section	.text.sp_256_point_from_ecc_point_8,"ax",%progbits
 2455              		.align	1
 2456              		.syntax unified
 2457              		.thumb
 2458              		.thumb_func
ARM GAS  /tmp/ccwGYw5D.s 			page 43


 2459              		.fpu fpv4-sp-d16
 2461              	sp_256_point_from_ecc_point_8:
 2462              		@ args = 0, pretend = 0, frame = 0
 2463              		@ frame_needed = 0, uses_anonymous_args = 0
 2464 0000 F8B5     		push	{r3, r4, r5, r6, r7, lr}
 2465 0002 0446     		mov	r4, r0
 2466 0004 0D46     		mov	r5, r1
 2467 0006 4022     		movs	r2, #64
 2468 0008 0021     		movs	r1, #0
 2469 000a 04F14007 		add	r7, r4, #64
 2470 000e FFF7FEFF 		bl	memset
 2471 0012 04F18006 		add	r6, r4, #128
 2472 0016 4022     		movs	r2, #64
 2473 0018 0021     		movs	r1, #0
 2474 001a 3846     		mov	r0, r7
 2475 001c FFF7FEFF 		bl	memset
 2476 0020 4022     		movs	r2, #64
 2477 0022 0021     		movs	r1, #0
 2478 0024 3046     		mov	r0, r6
 2479 0026 FFF7FEFF 		bl	memset
 2480 002a 2946     		mov	r1, r5
 2481 002c 2046     		mov	r0, r4
 2482 002e FFF7FEFF 		bl	sp_256_from_mp.constprop.0
 2483 0032 3846     		mov	r0, r7
 2484 0034 05F19001 		add	r1, r5, #144
 2485 0038 FFF7FEFF 		bl	sp_256_from_mp.constprop.0
 2486 003c 3046     		mov	r0, r6
 2487 003e 05F59071 		add	r1, r5, #288
 2488 0042 FFF7FEFF 		bl	sp_256_from_mp.constprop.0
 2489 0046 0023     		movs	r3, #0
 2490 0048 C4F8C030 		str	r3, [r4, #192]
 2491 004c F8BD     		pop	{r3, r4, r5, r6, r7, pc}
 2493              		.section	.text.sp_256_mod_mul_norm_8.constprop.0,"ax",%progbits
 2494              		.align	1
 2495              		.syntax unified
 2496              		.thumb
 2497              		.thumb_func
 2498              		.fpu fpv4-sp-d16
 2500              	sp_256_mod_mul_norm_8.constprop.0:
 2501              		@ args = 0, pretend = 0, frame = 0
 2502              		@ frame_needed = 0, uses_anonymous_args = 0
 2503 0000 2DE9F04F 		push	{r4, r5, r6, r7, r8, r9, r10, fp, lr}
 2504              		.syntax unified
 2505              	@ 32738 "../wolfssl/wolfcrypt/src/sp_cortexm.c" 1
 2506 0004 86B0     		SUB	sp, sp, #0x18
 2507 0006 91E8FC03 		LDM	r1, {r2, r3, r4, r5, r6, r7, r8, r9}
 2508 000a 4FF0000B 		MOV	r11, #0x0
 2509 000e 4FF0000C 		MOV	r12, #0x0
 2510 0012 12EB030A 		ADDS	r10, r2, r3
 2511 0016 4BF1000B 		ADC	r11, r11, #0x0
 2512 001a BAEB050A 		SUBS	r10, r10, r5
 2513 001e 6CF1000C 		SBC	r12, r12, #0x0
 2514 0022 BAEB060A 		SUBS	r10, r10, r6
 2515 0026 6CF1000C 		SBC	r12, r12, #0x0
 2516 002a BAEB070A 		SUBS	r10, r10, r7
 2517 002e 6CF1000C 		SBC	r12, r12, #0x0
 2518 0032 BAEB080A 		SUBS	r10, r10, r8
ARM GAS  /tmp/ccwGYw5D.s 			page 44


 2519 0036 6CF1000C 		SBC	r12, r12, #0x0
 2520 003a CDF800A0 		STR	r10, [sp]
 2521 003e CCF1000C 		neg	r12, r12
 2522 0042 4FF0000A 		MOV	r10, #0x0
 2523 0046 1BEB030B 		ADDS	r11, r11, r3
 2524 004a 4AF1000A 		ADC	r10, r10, #0x0
 2525 004e 1BEB040B 		ADDS	r11, r11, r4
 2526 0052 4AF1000A 		ADC	r10, r10, #0x0
 2527 0056 BBEB0C0B 		SUBS	r11, r11, r12
 2528 005a 6CEB0C0C 		SBC	r12, r12, r12
 2529 005e BBEB060B 		SUBS	r11, r11, r6
 2530 0062 6CF1000C 		SBC	r12, r12, #0x0
 2531 0066 BBEB070B 		SUBS	r11, r11, r7
 2532 006a 6CF1000C 		SBC	r12, r12, #0x0
 2533 006e BBEB080B 		SUBS	r11, r11, r8
 2534 0072 6CF1000C 		SBC	r12, r12, #0x0
 2535 0076 BBEB090B 		SUBS	r11, r11, r9
 2536 007a 6CF1000C 		SBC	r12, r12, #0x0
 2537 007e CDF804B0 		STR	r11, [sp, #4]
 2538 0082 CCF1000C 		neg	r12, r12
 2539 0086 4FF0000B 		MOV	r11, #0x0
 2540 008a 1AEB040A 		ADDS	r10, r10, r4
 2541 008e 4BF1000B 		ADC	r11, r11, #0x0
 2542 0092 1AEB050A 		ADDS	r10, r10, r5
 2543 0096 4BF1000B 		ADC	r11, r11, #0x0
 2544 009a BAEB0C0A 		SUBS	r10, r10, r12
 2545 009e 6CEB0C0C 		SBC	r12, r12, r12
 2546 00a2 BAEB070A 		SUBS	r10, r10, r7
 2547 00a6 6CF1000C 		SBC	r12, r12, #0x0
 2548 00aa BAEB080A 		SUBS	r10, r10, r8
 2549 00ae 6CF1000C 		SBC	r12, r12, #0x0
 2550 00b2 BAEB090A 		SUBS	r10, r10, r9
 2551 00b6 6CF1000C 		SBC	r12, r12, #0x0
 2552 00ba CDF808A0 		STR	r10, [sp, #8]
 2553 00be CCF1000C 		neg	r12, r12
 2554 00c2 4FF0000A 		MOV	r10, #0x0
 2555 00c6 1BEB050B 		ADDS	r11, r11, r5
 2556 00ca 4AF1000A 		ADC	r10, r10, #0x0
 2557 00ce 1BEB050B 		ADDS	r11, r11, r5
 2558 00d2 4AF1000A 		ADC	r10, r10, #0x0
 2559 00d6 1BEB060B 		ADDS	r11, r11, r6
 2560 00da 4AF1000A 		ADC	r10, r10, #0x0
 2561 00de 1BEB060B 		ADDS	r11, r11, r6
 2562 00e2 4AF1000A 		ADC	r10, r10, #0x0
 2563 00e6 1BEB070B 		ADDS	r11, r11, r7
 2564 00ea 4AF1000A 		ADC	r10, r10, #0x0
 2565 00ee BBEB0C0B 		SUBS	r11, r11, r12
 2566 00f2 6CEB0C0C 		SBC	r12, r12, r12
 2567 00f6 BBEB020B 		SUBS	r11, r11, r2
 2568 00fa 6CF1000C 		SBC	r12, r12, #0x0
 2569 00fe BBEB030B 		SUBS	r11, r11, r3
 2570 0102 6CF1000C 		SBC	r12, r12, #0x0
 2571 0106 BBEB090B 		SUBS	r11, r11, r9
 2572 010a 6CF1000C 		SBC	r12, r12, #0x0
 2573 010e CDF80CB0 		STR	r11, [sp, #12]
 2574 0112 CCF1000C 		neg	r12, r12
 2575 0116 4FF0000B 		MOV	r11, #0x0
ARM GAS  /tmp/ccwGYw5D.s 			page 45


 2576 011a 1AEB060A 		ADDS	r10, r10, r6
 2577 011e 4BF1000B 		ADC	r11, r11, #0x0
 2578 0122 1AEB060A 		ADDS	r10, r10, r6
 2579 0126 4BF1000B 		ADC	r11, r11, #0x0
 2580 012a 1AEB070A 		ADDS	r10, r10, r7
 2581 012e 4BF1000B 		ADC	r11, r11, #0x0
 2582 0132 1AEB070A 		ADDS	r10, r10, r7
 2583 0136 4BF1000B 		ADC	r11, r11, #0x0
 2584 013a 1AEB080A 		ADDS	r10, r10, r8
 2585 013e 4BF1000B 		ADC	r11, r11, #0x0
 2586 0142 BAEB0C0A 		SUBS	r10, r10, r12
 2587 0146 6CEB0C0C 		SBC	r12, r12, r12
 2588 014a BAEB030A 		SUBS	r10, r10, r3
 2589 014e 6CF1000C 		SBC	r12, r12, #0x0
 2590 0152 BAEB040A 		SUBS	r10, r10, r4
 2591 0156 6CF1000C 		SBC	r12, r12, #0x0
 2592 015a CDF810A0 		STR	r10, [sp, #16]
 2593 015e CCF1000C 		neg	r12, r12
 2594 0162 4FF0000A 		MOV	r10, #0x0
 2595 0166 1BEB070B 		ADDS	r11, r11, r7
 2596 016a 4AF1000A 		ADC	r10, r10, #0x0
 2597 016e 1BEB070B 		ADDS	r11, r11, r7
 2598 0172 4AF1000A 		ADC	r10, r10, #0x0
 2599 0176 1BEB080B 		ADDS	r11, r11, r8
 2600 017a 4AF1000A 		ADC	r10, r10, #0x0
 2601 017e 1BEB080B 		ADDS	r11, r11, r8
 2602 0182 4AF1000A 		ADC	r10, r10, #0x0
 2603 0186 1BEB090B 		ADDS	r11, r11, r9
 2604 018a 4AF1000A 		ADC	r10, r10, #0x0
 2605 018e BBEB0C0B 		SUBS	r11, r11, r12
 2606 0192 6CEB0C0C 		SBC	r12, r12, r12
 2607 0196 BBEB040B 		SUBS	r11, r11, r4
 2608 019a 6CF1000C 		SBC	r12, r12, #0x0
 2609 019e BBEB050B 		SUBS	r11, r11, r5
 2610 01a2 6CF1000C 		SBC	r12, r12, #0x0
 2611 01a6 CDF814B0 		STR	r11, [sp, #20]
 2612 01aa CCF1000C 		neg	r12, r12
 2613 01ae 4FF0000B 		MOV	r11, #0x0
 2614 01b2 1AEB070A 		ADDS	r10, r10, r7
 2615 01b6 4BF1000B 		ADC	r11, r11, #0x0
 2616 01ba 1AEB080A 		ADDS	r10, r10, r8
 2617 01be 4BF1000B 		ADC	r11, r11, #0x0
 2618 01c2 1AEB080A 		ADDS	r10, r10, r8
 2619 01c6 4BF1000B 		ADC	r11, r11, #0x0
 2620 01ca 1AEB080A 		ADDS	r10, r10, r8
 2621 01ce 4BF1000B 		ADC	r11, r11, #0x0
 2622 01d2 1AEB090A 		ADDS	r10, r10, r9
 2623 01d6 4BF1000B 		ADC	r11, r11, #0x0
 2624 01da 1AEB090A 		ADDS	r10, r10, r9
 2625 01de 4BF1000B 		ADC	r11, r11, #0x0
 2626 01e2 BAEB0C0A 		SUBS	r10, r10, r12
 2627 01e6 6CEB0C0C 		SBC	r12, r12, r12
 2628 01ea BAEB020A 		SUBS	r10, r10, r2
 2629 01ee 6CF1000C 		SBC	r12, r12, #0x0
 2630 01f2 BAEB030A 		SUBS	r10, r10, r3
 2631 01f6 6CF1000C 		SBC	r12, r12, #0x0
 2632 01fa D046     		MOV	r8, r10
ARM GAS  /tmp/ccwGYw5D.s 			page 46


 2633 01fc CCF1000C 		neg	r12, r12
 2634 0200 4FF0000A 		MOV	r10, #0x0
 2635 0204 1BEB020B 		ADDS	r11, r11, r2
 2636 0208 4AF1000A 		ADC	r10, r10, #0x0
 2637 020c 1BEB090B 		ADDS	r11, r11, r9
 2638 0210 4AF1000A 		ADC	r10, r10, #0x0
 2639 0214 1BEB090B 		ADDS	r11, r11, r9
 2640 0218 4AF1000A 		ADC	r10, r10, #0x0
 2641 021c 1BEB090B 		ADDS	r11, r11, r9
 2642 0220 4AF1000A 		ADC	r10, r10, #0x0
 2643 0224 BBEB0C0B 		SUBS	r11, r11, r12
 2644 0228 6CEB0C0C 		SBC	r12, r12, r12
 2645 022c BBEB040B 		SUBS	r11, r11, r4
 2646 0230 6CF1000C 		SBC	r12, r12, #0x0
 2647 0234 BBEB050B 		SUBS	r11, r11, r5
 2648 0238 6CF1000C 		SBC	r12, r12, #0x0
 2649 023c BBEB060B 		SUBS	r11, r11, r6
 2650 0240 6CF1000C 		SBC	r12, r12, #0x0
 2651 0244 BBEB070B 		SUBS	r11, r11, r7
 2652 0248 6CF1000C 		SBC	r12, r12, #0x0
 2653 024c 9DE8FC00 		LDM	sp, {r2, r3, r4, r5, r6, r7}
 2654 0250 CCF1000C 		neg	r12, r12
 2655 0254 12EB0A02 		ADDS	r2, r2, r10
 2656 0258 53F10003 		ADCS	r3, r3, #0x0
 2657 025c 54F10004 		ADCS	r4, r4, #0x0
 2658 0260 55EB0C05 		ADCS	r5, r5, r12
 2659 0264 56F10006 		ADCS	r6, r6, #0x0
 2660 0268 57F10007 		ADCS	r7, r7, #0x0
 2661 026c 58EB0C08 		ADCS	r8, r8, r12
 2662 0270 5BEB0A0B 		ADCS	r11, r11, r10
 2663 0274 4FF00009 		MOV	r9, #0x0
 2664 0278 49F10009 		ADC	r9, r9, #0x0
 2665 027c B2EB0C02 		SUBS	r2, r2, r12
 2666 0280 73F10003 		SBCS	r3, r3, #0x0
 2667 0284 74F10004 		SBCS	r4, r4, #0x0
 2668 0288 75EB0A05 		SBCS	r5, r5, r10
 2669 028c 76F10006 		SBCS	r6, r6, #0x0
 2670 0290 77F10007 		SBCS	r7, r7, #0x0
 2671 0294 78EB0A08 		SBCS	r8, r8, r10
 2672 0298 7BEB0C0B 		SBCS	r11, r11, r12
 2673 029c 4FF0000C 		MOV	r12, #0x0
 2674 02a0 6CF1000C 		SBC	r12, r12, #0x0
 2675 02a4 CCF1000C 		neg	r12, r12
 2676 02a8 12EB0902 		ADDS	r2, r2, r9
 2677 02ac 53F10003 		ADCS	r3, r3, #0x0
 2678 02b0 54F10004 		ADCS	r4, r4, #0x0
 2679 02b4 55EB0C05 		ADCS	r5, r5, r12
 2680 02b8 56F10006 		ADCS	r6, r6, #0x0
 2681 02bc 57F10007 		ADCS	r7, r7, #0x0
 2682 02c0 58EB0C08 		ADCS	r8, r8, r12
 2683 02c4 4BEB090B 		ADC	r11, r11, r9
 2684 02c8 B2EB0C02 		SUBS	r2, r2, r12
 2685 02cc 73F10003 		SBCS	r3, r3, #0x0
 2686 02d0 74F10004 		SBCS	r4, r4, #0x0
 2687 02d4 75EB0905 		SBCS	r5, r5, r9
 2688 02d8 76F10006 		SBCS	r6, r6, #0x0
 2689 02dc 77F10007 		SBCS	r7, r7, #0x0
ARM GAS  /tmp/ccwGYw5D.s 			page 47


 2690 02e0 78EB0908 		SBCS	r8, r8, r9
 2691 02e4 6BEB0C0B 		SBC	r11, r11, r12
 2692 02e8 80E8FC09 		STM	r0, {r2, r3, r4, r5, r6, r7, r8, r11}
 2693 02ec 4FF00000 		MOV	r0, #0x0
 2694 02f0 06B0     		ADD	sp, sp, #0x18
 2695              		
 2696              	@ 0 "" 2
 2697              		.thumb
 2698              		.syntax unified
 2699 02f2 BDE8F08F 		pop	{r4, r5, r6, r7, r8, r9, r10, fp, pc}
 2701              		.section	.text.sp_256_cond_sub_8.isra.0,"ax",%progbits
 2702              		.align	1
 2703              		.syntax unified
 2704              		.thumb
 2705              		.thumb_func
 2706              		.fpu fpv4-sp-d16
 2708              	sp_256_cond_sub_8.isra.0:
 2709              		@ args = 0, pretend = 0, frame = 0
 2710              		@ frame_needed = 0, uses_anonymous_args = 0
 2711 0000 2DE9F043 		push	{r4, r5, r6, r7, r8, r9, lr}
 2712              		.syntax unified
 2713              	@ 34902 "../wolfssl/wolfcrypt/src/sp_cortexm.c" 1
 2714 0004 4FF00005 		MOV	r5, #0x0
 2715 0008 C0C9     		LDM	r1!, {r6, r7}
 2716 000a B2E80003 		LDM	r2!, {r8, r9}
 2717 000e 08EA0308 		AND	r8, r8, r3
 2718 0012 09EA0309 		AND	r9, r9, r3
 2719 0016 B6EB0806 		SUBS	r6, r6, r8
 2720 001a 77EB0907 		SBCS	r7, r7, r9
 2721 001e C0C0     		STM	r0!, {r6, r7}
 2722 0020 C0C9     		LDM	r1!, {r6, r7}
 2723 0022 B2E80003 		LDM	r2!, {r8, r9}
 2724 0026 08EA0308 		AND	r8, r8, r3
 2725 002a 09EA0309 		AND	r9, r9, r3
 2726 002e 76EB0806 		SBCS	r6, r6, r8
 2727 0032 77EB0907 		SBCS	r7, r7, r9
 2728 0036 C0C0     		STM	r0!, {r6, r7}
 2729 0038 C0C9     		LDM	r1!, {r6, r7}
 2730 003a B2E80003 		LDM	r2!, {r8, r9}
 2731 003e 08EA0308 		AND	r8, r8, r3
 2732 0042 09EA0309 		AND	r9, r9, r3
 2733 0046 76EB0806 		SBCS	r6, r6, r8
 2734 004a 77EB0907 		SBCS	r7, r7, r9
 2735 004e C0C0     		STM	r0!, {r6, r7}
 2736 0050 C0C9     		LDM	r1!, {r6, r7}
 2737 0052 B2E80003 		LDM	r2!, {r8, r9}
 2738 0056 08EA0308 		AND	r8, r8, r3
 2739 005a 09EA0309 		AND	r9, r9, r3
 2740 005e 76EB0806 		SBCS	r6, r6, r8
 2741 0062 77EB0907 		SBCS	r7, r7, r9
 2742 0066 C0C0     		STM	r0!, {r6, r7}
 2743 0068 65EB0500 		SBC	r0, r5, r5
 2744              		
 2745              	@ 0 "" 2
 2746              		.thumb
 2747              		.syntax unified
 2748 006c BDE8F083 		pop	{r4, r5, r6, r7, r8, r9, pc}
ARM GAS  /tmp/ccwGYw5D.s 			page 48


 2750              		.section	.text.sp_256_mont_reduce_8,"ax",%progbits
 2751              		.align	1
 2752              		.syntax unified
 2753              		.thumb
 2754              		.thumb_func
 2755              		.fpu fpv4-sp-d16
 2757              	sp_256_mont_reduce_8:
 2758              		@ args = 0, pretend = 0, frame = 0
 2759              		@ frame_needed = 0, uses_anonymous_args = 0
 2760 0000 2DE9F04F 		push	{r4, r5, r6, r7, r8, r9, r10, fp, lr}
 2761              		.syntax unified
 2762              	@ 35087 "../wolfssl/wolfcrypt/src/sp_cortexm.c" 1
 2763 0004 4FF00004 		MOV	r4, #0x0
 2764 0008 4FF00005 		MOV	r5, #0x0
 2765 000c 0668     		LDR	r6, [r0]
 2766 000e 4768     		LDR	r7, [r0, #4]
 2767 0010 D0F80880 		LDR	r8, [r0, #8]
 2768 0014 D0F80C90 		LDR	r9, [r0, #12]
 2769 0018 D0F810A0 		LDR	r10, [r0, #16]
 2770              		
 2771              	L_sp_256_mont_reduce_8_word_1256:
 2772 001c 02FB06FE 		MUL	lr, r2, r6
 2773 0020 D1F800C0 		LDR	r12, [r1]
 2774 0024 4FF00003 		MOV	r3, #0x0
 2775 0028 EEFB6C63 		UMAAL	r6, r3, lr, r12
 2776 002c D1F804C0 		LDR	r12, [r1, #4]
 2777 0030 3E46     		MOV	r6, r7
 2778 0032 EEFB6C63 		UMAAL	r6, r3, lr, r12
 2779 0036 D1F808C0 		LDR	r12, [r1, #8]
 2780 003a 4746     		MOV	r7, r8
 2781 003c EEFB6C73 		UMAAL	r7, r3, lr, r12
 2782 0040 D1F80CC0 		LDR	r12, [r1, #12]
 2783 0044 C846     		MOV	r8, r9
 2784 0046 EEFB6C83 		UMAAL	r8, r3, lr, r12
 2785 004a D1F810C0 		LDR	r12, [r1, #16]
 2786 004e D146     		MOV	r9, r10
 2787 0050 EEFB6C93 		UMAAL	r9, r3, lr, r12
 2788 0054 D1F814C0 		LDR	r12, [r1, #20]
 2789 0058 D0F814A0 		LDR	r10, [r0, #20]
 2790 005c EEFB6CA3 		UMAAL	r10, r3, lr, r12
 2791 0060 D1F818C0 		LDR	r12, [r1, #24]
 2792 0064 D0F818B0 		LDR	r11, [r0, #24]
 2793 0068 EEFB6CB3 		UMAAL	r11, r3, lr, r12
 2794 006c C0F818B0 		STR	r11, [r0, #24]
 2795 0070 D1F81CC0 		LDR	r12, [r1, #28]
 2796 0074 D0F81CB0 		LDR	r11, [r0, #28]
 2797 0078 EEFB6CB3 		UMAAL	r11, r3, lr, r12
 2798 007c D0F820E0 		LDR	lr, [r0, #32]
 2799 0080 4FF0000C 		MOV	r12, #0x0
 2800 0084 ECFB6C3E 		UMAAL	r3, lr, r12, r12
 2801 0088 C0F81CB0 		STR	r11, [r0, #28]
 2802 008c 5B19     		ADDS	r3, r3, r5
 2803 008e 4EF10005 		ADC	r5, lr, #0x0
 2804 0092 0362     		STR	r3, [r0, #32]
 2805 0094 04F10404 		ADD	r4, r4, #0x4
 2806 0098 00F10400 		ADD	r0, r0, #0x4
 2807 009c 202C     		CMP	r4, #0x20
ARM GAS  /tmp/ccwGYw5D.s 			page 49


 2808 009e BDDB     		BLT	L_sp_256_mont_reduce_8_word_1256
 2809 00a0 0660     		STR	r6, [r0]
 2810 00a2 4760     		STR	r7, [r0, #4]
 2811 00a4 C0F80880 		STR	r8, [r0, #8]
 2812 00a8 C0F80C90 		STR	r9, [r0, #12]
 2813 00ac C0F810A0 		STR	r10, [r0, #16]
 2814 00b0 2A46     		MOV	r2, r5
 2815              		
 2816              	@ 0 "" 2
 2817              		.thumb
 2818              		.syntax unified
 2819 00b2 BDE8F04F 		pop	{r4, r5, r6, r7, r8, r9, r10, fp, lr}
 2820 00b6 5342     		rsbs	r3, r2, #0
 2821 00b8 0A46     		mov	r2, r1
 2822 00ba 0146     		mov	r1, r0
 2823 00bc 2038     		subs	r0, r0, #32
 2824 00be FFF7FEBF 		b	sp_256_cond_sub_8.isra.0
 2826              		.section	.text.sp_256_mont_mul_order_8,"ax",%progbits
 2827              		.align	1
 2828              		.syntax unified
 2829              		.thumb
 2830              		.thumb_func
 2831              		.fpu fpv4-sp-d16
 2833              	sp_256_mont_mul_order_8:
 2834              		@ args = 0, pretend = 0, frame = 0
 2835              		@ frame_needed = 0, uses_anonymous_args = 0
 2836 0000 10B5     		push	{r4, lr}
 2837 0002 0446     		mov	r4, r0
 2838 0004 FFF7FEFF 		bl	sp_256_mul_8
 2839 0008 2046     		mov	r0, r4
 2840 000a BDE81040 		pop	{r4, lr}
 2841 000e 024A     		ldr	r2, .L109
 2842 0010 0249     		ldr	r1, .L109+4
 2843 0012 FFF7FEBF 		b	sp_256_mont_reduce_8
 2844              	.L110:
 2845 0016 00BF     		.align	2
 2846              	.L109:
 2847 0018 4FBC00EE 		.word	-301941681
 2848 001c 00000000 		.word	.LANCHOR0
 2850              		.section	.text.sp_256_mont_sqr_order_8,"ax",%progbits
 2851              		.align	1
 2852              		.syntax unified
 2853              		.thumb
 2854              		.thumb_func
 2855              		.fpu fpv4-sp-d16
 2857              	sp_256_mont_sqr_order_8:
 2858              		@ args = 0, pretend = 0, frame = 0
 2859              		@ frame_needed = 0, uses_anonymous_args = 0
 2860 0000 10B5     		push	{r4, lr}
 2861 0002 0446     		mov	r4, r0
 2862 0004 FFF7FEFF 		bl	sp_256_sqr_8
 2863 0008 2046     		mov	r0, r4
 2864 000a BDE81040 		pop	{r4, lr}
 2865 000e 024A     		ldr	r2, .L112
 2866 0010 0249     		ldr	r1, .L112+4
 2867 0012 FFF7FEBF 		b	sp_256_mont_reduce_8
 2868              	.L113:
ARM GAS  /tmp/ccwGYw5D.s 			page 50


 2869 0016 00BF     		.align	2
 2870              	.L112:
 2871 0018 4FBC00EE 		.word	-301941681
 2872 001c 00000000 		.word	.LANCHOR0
 2874              		.section	.text.sp_256_mont_sqr_n_order_8,"ax",%progbits
 2875              		.align	1
 2876              		.syntax unified
 2877              		.thumb
 2878              		.thumb_func
 2879              		.fpu fpv4-sp-d16
 2881              	sp_256_mont_sqr_n_order_8:
 2882              		@ args = 0, pretend = 0, frame = 0
 2883              		@ frame_needed = 0, uses_anonymous_args = 0
 2884 0000 70B5     		push	{r4, r5, r6, lr}
 2885 0002 0446     		mov	r4, r0
 2886 0004 1646     		mov	r6, r2
 2887 0006 0125     		movs	r5, #1
 2888 0008 FFF7FEFF 		bl	sp_256_mont_sqr_order_8
 2889              	.L115:
 2890 000c 2146     		mov	r1, r4
 2891 000e 2046     		mov	r0, r4
 2892 0010 0135     		adds	r5, r5, #1
 2893 0012 FFF7FEFF 		bl	sp_256_mont_sqr_order_8
 2894 0016 AE42     		cmp	r6, r5
 2895 0018 F8D1     		bne	.L115
 2896 001a 70BD     		pop	{r4, r5, r6, pc}
 2898              		.section	.text.sp_256_map_8,"ax",%progbits
 2899              		.align	1
 2900              		.syntax unified
 2901              		.thumb
 2902              		.thumb_func
 2903              		.fpu fpv4-sp-d16
 2905              	sp_256_map_8:
 2906              		@ args = 0, pretend = 0, frame = 0
 2907              		@ frame_needed = 0, uses_anonymous_args = 0
 2908 0000 2DE9F047 		push	{r4, r5, r6, r7, r8, r9, r10, lr}
 2909 0004 1546     		mov	r5, r2
 2910 0006 02F14004 		add	r4, r2, #64
 2911 000a 01F1800A 		add	r10, r1, #128
 2912 000e 02F18006 		add	r6, r2, #128
 2913 0012 0746     		mov	r7, r0
 2914 0014 8946     		mov	r9, r1
 2915 0016 2046     		mov	r0, r4
 2916 0018 5146     		mov	r1, r10
 2917 001a 02F1C008 		add	r8, r2, #192
 2918 001e FFF7FEFF 		bl	sp_256_mont_sqr_8.constprop.0
 2919 0022 2146     		mov	r1, r4
 2920 0024 3046     		mov	r0, r6
 2921 0026 5246     		mov	r2, r10
 2922 0028 FFF7FEFF 		bl	sp_256_mont_mul_8.constprop.0
 2923 002c 3146     		mov	r1, r6
 2924 002e 2046     		mov	r0, r4
 2925 0030 0222     		movs	r2, #2
 2926 0032 FFF7FEFF 		bl	sp_256_mont_sqr_n_8.constprop.0
 2927 0036 2146     		mov	r1, r4
 2928 0038 4046     		mov	r0, r8
 2929 003a 5246     		mov	r2, r10
ARM GAS  /tmp/ccwGYw5D.s 			page 51


 2930 003c FFF7FEFF 		bl	sp_256_mont_mul_8.constprop.0
 2931 0040 2246     		mov	r2, r4
 2932 0042 3146     		mov	r1, r6
 2933 0044 3046     		mov	r0, r6
 2934 0046 FFF7FEFF 		bl	sp_256_mont_mul_8.constprop.0
 2935 004a 3146     		mov	r1, r6
 2936 004c 2046     		mov	r0, r4
 2937 004e 0422     		movs	r2, #4
 2938 0050 FFF7FEFF 		bl	sp_256_mont_sqr_n_8.constprop.0
 2939 0054 2246     		mov	r2, r4
 2940 0056 4146     		mov	r1, r8
 2941 0058 4046     		mov	r0, r8
 2942 005a FFF7FEFF 		bl	sp_256_mont_mul_8.constprop.0
 2943 005e 2246     		mov	r2, r4
 2944 0060 3146     		mov	r1, r6
 2945 0062 3046     		mov	r0, r6
 2946 0064 FFF7FEFF 		bl	sp_256_mont_mul_8.constprop.0
 2947 0068 3146     		mov	r1, r6
 2948 006a 2046     		mov	r0, r4
 2949 006c 0822     		movs	r2, #8
 2950 006e FFF7FEFF 		bl	sp_256_mont_sqr_n_8.constprop.0
 2951 0072 2246     		mov	r2, r4
 2952 0074 4146     		mov	r1, r8
 2953 0076 4046     		mov	r0, r8
 2954 0078 FFF7FEFF 		bl	sp_256_mont_mul_8.constprop.0
 2955 007c 2246     		mov	r2, r4
 2956 007e 3146     		mov	r1, r6
 2957 0080 3046     		mov	r0, r6
 2958 0082 FFF7FEFF 		bl	sp_256_mont_mul_8.constprop.0
 2959 0086 3146     		mov	r1, r6
 2960 0088 2046     		mov	r0, r4
 2961 008a 1022     		movs	r2, #16
 2962 008c FFF7FEFF 		bl	sp_256_mont_sqr_n_8.constprop.0
 2963 0090 2246     		mov	r2, r4
 2964 0092 4146     		mov	r1, r8
 2965 0094 4046     		mov	r0, r8
 2966 0096 FFF7FEFF 		bl	sp_256_mont_mul_8.constprop.0
 2967 009a 2246     		mov	r2, r4
 2968 009c 3146     		mov	r1, r6
 2969 009e 3046     		mov	r0, r6
 2970 00a0 FFF7FEFF 		bl	sp_256_mont_mul_8.constprop.0
 2971 00a4 3146     		mov	r1, r6
 2972 00a6 2046     		mov	r0, r4
 2973 00a8 2022     		movs	r2, #32
 2974 00aa FFF7FEFF 		bl	sp_256_mont_sqr_n_8.constprop.0
 2975 00ae 2246     		mov	r2, r4
 2976 00b0 3146     		mov	r1, r6
 2977 00b2 3046     		mov	r0, r6
 2978 00b4 FFF7FEFF 		bl	sp_256_mont_mul_8.constprop.0
 2979 00b8 2146     		mov	r1, r4
 2980 00ba 5246     		mov	r2, r10
 2981 00bc 2846     		mov	r0, r5
 2982 00be FFF7FEFF 		bl	sp_256_mont_mul_8.constprop.0
 2983 00c2 A022     		movs	r2, #160
 2984 00c4 2946     		mov	r1, r5
 2985 00c6 2846     		mov	r0, r5
 2986 00c8 FFF7FEFF 		bl	sp_256_mont_sqr_n_8.constprop.0
ARM GAS  /tmp/ccwGYw5D.s 			page 52


 2987 00cc 3246     		mov	r2, r6
 2988 00ce 2946     		mov	r1, r5
 2989 00d0 2846     		mov	r0, r5
 2990 00d2 FFF7FEFF 		bl	sp_256_mont_mul_8.constprop.0
 2991 00d6 2022     		movs	r2, #32
 2992 00d8 2946     		mov	r1, r5
 2993 00da 2846     		mov	r0, r5
 2994 00dc FFF7FEFF 		bl	sp_256_mont_sqr_n_8.constprop.0
 2995 00e0 4246     		mov	r2, r8
 2996 00e2 4FF02008 		mov	r8, #32
 2997 00e6 2946     		mov	r1, r5
 2998 00e8 2846     		mov	r0, r5
 2999 00ea FFF7FEFF 		bl	sp_256_mont_mul_8.constprop.0
 3000 00ee 2046     		mov	r0, r4
 3001 00f0 2946     		mov	r1, r5
 3002 00f2 FFF7FEFF 		bl	sp_256_mont_sqr_8.constprop.0
 3003 00f6 2146     		mov	r1, r4
 3004 00f8 2A46     		mov	r2, r5
 3005 00fa 2846     		mov	r0, r5
 3006 00fc FFF7FEFF 		bl	sp_256_mont_mul_8.constprop.0
 3007 0100 2246     		mov	r2, r4
 3008 0102 4946     		mov	r1, r9
 3009 0104 3846     		mov	r0, r7
 3010 0106 FFF7FEFF 		bl	sp_256_mont_mul_8.constprop.0
 3011 010a 4246     		mov	r2, r8
 3012 010c 1E4C     		ldr	r4, .L118
 3013 010e 0021     		movs	r1, #0
 3014 0110 B818     		adds	r0, r7, r2
 3015 0112 FFF7FEFF 		bl	memset
 3016 0116 0122     		movs	r2, #1
 3017 0118 2146     		mov	r1, r4
 3018 011a 3846     		mov	r0, r7
 3019 011c FFF7FEFF 		bl	sp_256_mont_reduce_8
 3020 0120 2146     		mov	r1, r4
 3021 0122 3846     		mov	r0, r7
 3022 0124 FFF7FEFF 		bl	sp_256_cmp_8
 3023 0128 C017     		asrs	r0, r0, #31
 3024 012a C343     		mvns	r3, r0
 3025 012c 07F14006 		add	r6, r7, #64
 3026 0130 2246     		mov	r2, r4
 3027 0132 3946     		mov	r1, r7
 3028 0134 3846     		mov	r0, r7
 3029 0136 FFF7FEFF 		bl	sp_256_cond_sub_8.isra.0
 3030 013a 2A46     		mov	r2, r5
 3031 013c 3046     		mov	r0, r6
 3032 013e 09F14001 		add	r1, r9, #64
 3033 0142 FFF7FEFF 		bl	sp_256_mont_mul_8.constprop.0
 3034 0146 4246     		mov	r2, r8
 3035 0148 0021     		movs	r1, #0
 3036 014a 07F16000 		add	r0, r7, #96
 3037 014e FFF7FEFF 		bl	memset
 3038 0152 0122     		movs	r2, #1
 3039 0154 2146     		mov	r1, r4
 3040 0156 3046     		mov	r0, r6
 3041 0158 FFF7FEFF 		bl	sp_256_mont_reduce_8
 3042 015c 2146     		mov	r1, r4
 3043 015e 3046     		mov	r0, r6
ARM GAS  /tmp/ccwGYw5D.s 			page 53


 3044 0160 FFF7FEFF 		bl	sp_256_cmp_8
 3045 0164 C017     		asrs	r0, r0, #31
 3046 0166 C343     		mvns	r3, r0
 3047 0168 2246     		mov	r2, r4
 3048 016a 3146     		mov	r1, r6
 3049 016c 3046     		mov	r0, r6
 3050 016e FFF7FEFF 		bl	sp_256_cond_sub_8.isra.0
 3051 0172 1C22     		movs	r2, #28
 3052 0174 0021     		movs	r1, #0
 3053 0176 07F18400 		add	r0, r7, #132
 3054 017a FFF7FEFF 		bl	memset
 3055 017e 0123     		movs	r3, #1
 3056 0180 C7F88030 		str	r3, [r7, #128]
 3057 0184 BDE8F087 		pop	{r4, r5, r6, r7, r8, r9, r10, pc}
 3058              	.L119:
 3059              		.align	2
 3060              	.L118:
 3061 0188 00000000 		.word	.LANCHOR2
 3063              		.section	.text.sp_256_ecc_mulmod_stripe_8.constprop.0,"ax",%progbits
 3064              		.align	1
 3065              		.syntax unified
 3066              		.thumb
 3067              		.thumb_func
 3068              		.fpu fpv4-sp-d16
 3070              	sp_256_ecc_mulmod_stripe_8.constprop.0:
 3071              		@ args = 0, pretend = 0, frame = 24
 3072              		@ frame_needed = 0, uses_anonymous_args = 0
 3073 0000 2DE9F04F 		push	{r4, r5, r6, r7, r8, r9, r10, fp, lr}
 3074 0004 2DED028B 		vpush.64	{d8}
 3075 0008 08EE100A 		vmov	s16, r0	@ int
 3076 000c 87B0     		sub	sp, sp, #28
 3077 000e 4FF4C470 		mov	r0, #392
 3078 0012 CDE90212 		strd	r1, r2, [sp, #8]
 3079 0016 0493     		str	r3, [sp, #16]
 3080 0018 FFF7FEFF 		bl	wolfSSL_Malloc
 3081 001c 0446     		mov	r4, r0
 3082 001e 0028     		cmp	r0, #0
 3083 0020 00F0A781 		beq	.L144
 3084 0024 4FF4C070 		mov	r0, #384
 3085 0028 FFF7FEFF 		bl	wolfSSL_Malloc
 3086 002c 0546     		mov	r5, r0
 3087 002e 0028     		cmp	r0, #0
 3088 0030 00F0A281 		beq	.L145
 3089 0034 D24F     		ldr	r7, .L158
 3090 0036 04F5A272 		add	r2, r4, #324
 3091 003a 07F12006 		add	r6, r7, #32
 3092              	.L123:
 3093 003e 3B46     		mov	r3, r7
 3094 0040 03CB     		ldmia	r3!, {r0, r1}
 3095 0042 B342     		cmp	r3, r6
 3096 0044 1060     		str	r0, [r2]	@ unaligned
 3097 0046 5160     		str	r1, [r2, #4]	@ unaligned
 3098 0048 1F46     		mov	r7, r3
 3099 004a 02F10802 		add	r2, r2, #8
 3100 004e F6D1     		bne	.L123
 3101 0050 04F1800A 		add	r10, r4, #128
 3102 0054 5246     		mov	r2, r10
ARM GAS  /tmp/ccwGYw5D.s 			page 54


 3103 0056 CA4F     		ldr	r7, .L158
 3104              	.L124:
 3105 0058 3B46     		mov	r3, r7
 3106 005a 03CB     		ldmia	r3!, {r0, r1}
 3107 005c B342     		cmp	r3, r6
 3108 005e 1060     		str	r0, [r2]	@ unaligned
 3109 0060 5160     		str	r1, [r2, #4]	@ unaligned
 3110 0062 1F46     		mov	r7, r3
 3111 0064 02F10802 		add	r2, r2, #8
 3112 0068 F6D1     		bne	.L124
 3113 006a 0026     		movs	r6, #0
 3114 006c 3346     		mov	r3, r6
 3115              	.L125:
 3116 006e 0299     		ldr	r1, [sp, #8]
 3117 0070 43F31A02 		sbfx	r2, r3, #0, #27
 3118 0074 51F82220 		ldr	r2, [r1, r2, lsl #2]
 3119 0078 D20F     		lsrs	r2, r2, #31
 3120 007a 9A40     		lsls	r2, r2, r3
 3121 007c 0133     		adds	r3, r3, #1
 3122 007e 082B     		cmp	r3, #8
 3123 0080 46EA0206 		orr	r6, r6, r2
 3124 0084 F3D1     		bne	.L125
 3125 0086 049B     		ldr	r3, [sp, #16]
 3126 0088 04F1400B 		add	fp, r4, #64
 3127 008c 002B     		cmp	r3, #0
 3128 008e 7DD0     		beq	.L126
 3129 0090 3146     		mov	r1, r6
 3130 0092 2046     		mov	r0, r4
 3131 0094 FFF7FEFF 		bl	sp_256_get_entry_256_8.constprop.0
 3132              	.L127:
 3133 0098 1E23     		movs	r3, #30
 3134 009a B6FA86F6 		clz	r6, r6
 3135 009e 0093     		str	r3, [sp]
 3136 00a0 7609     		lsrs	r6, r6, #5
 3137 00a2 04F58273 		add	r3, r4, #260
 3138 00a6 04F1C409 		add	r9, r4, #196
 3139 00aa C4F8C060 		str	r6, [r4, #192]
 3140 00ae 0193     		str	r3, [sp, #4]
 3141              	.L130:
 3142 00b0 0026     		movs	r6, #0
 3143 00b2 3246     		mov	r2, r6
 3144              	.L131:
 3145 00b4 009B     		ldr	r3, [sp]
 3146 00b6 03EB4213 		add	r3, r3, r2, lsl #5
 3147 00ba 5811     		asrs	r0, r3, #5
 3148 00bc 03F01F01 		and	r1, r3, #31
 3149 00c0 029B     		ldr	r3, [sp, #8]
 3150 00c2 53F82030 		ldr	r3, [r3, r0, lsl #2]
 3151 00c6 CB40     		lsrs	r3, r3, r1
 3152 00c8 03F00103 		and	r3, r3, #1
 3153 00cc 9340     		lsls	r3, r3, r2
 3154 00ce 0132     		adds	r2, r2, #1
 3155 00d0 082A     		cmp	r2, #8
 3156 00d2 46EA0306 		orr	r6, r6, r3
 3157 00d6 EDD1     		bne	.L131
 3158 00d8 2A46     		mov	r2, r5
 3159 00da 2146     		mov	r1, r4
ARM GAS  /tmp/ccwGYw5D.s 			page 55


 3160 00dc 2046     		mov	r0, r4
 3161 00de FFF7FEFF 		bl	sp_256_proj_point_dbl_8
 3162 00e2 049B     		ldr	r3, [sp, #16]
 3163 00e4 002B     		cmp	r3, #0
 3164 00e6 70D0     		beq	.L132
 3165 00e8 3146     		mov	r1, r6
 3166 00ea 4846     		mov	r0, r9
 3167 00ec FFF7FEFF 		bl	sp_256_get_entry_256_8.constprop.0
 3168              	.L133:
 3169 00f0 B6FA86F6 		clz	r6, r6
 3170 00f4 7609     		lsrs	r6, r6, #5
 3171 00f6 05F58078 		add	r8, r5, #256
 3172 00fa 5146     		mov	r1, r10
 3173 00fc 2846     		mov	r0, r5
 3174 00fe C4F88461 		str	r6, [r4, #388]
 3175 0102 FFF7FEFF 		bl	sp_256_mont_sqr_8.constprop.0
 3176 0106 5246     		mov	r2, r10
 3177 0108 2946     		mov	r1, r5
 3178 010a 4046     		mov	r0, r8
 3179 010c FFF7FEFF 		bl	sp_256_mont_mul_8.constprop.0
 3180 0110 4A46     		mov	r2, r9
 3181 0112 2946     		mov	r1, r5
 3182 0114 2846     		mov	r0, r5
 3183 0116 FFF7FEFF 		bl	sp_256_mont_mul_8.constprop.0
 3184 011a 019A     		ldr	r2, [sp, #4]
 3185 011c 4146     		mov	r1, r8
 3186 011e 4046     		mov	r0, r8
 3187 0120 FFF7FEFF 		bl	sp_256_mont_mul_8.constprop.0
 3188 0124 2946     		mov	r1, r5
 3189 0126 2046     		mov	r0, r4
 3190 0128 FFF7FEFF 		bl	sp_256_cmp_equal_8
 3191 012c 4146     		mov	r1, r8
 3192 012e 0646     		mov	r6, r0
 3193 0130 5846     		mov	r0, fp
 3194 0132 FFF7FEFF 		bl	sp_256_cmp_equal_8
 3195 0136 D4F8C030 		ldr	r3, [r4, #192]
 3196 013a D4F88421 		ldr	r2, [r4, #388]
 3197 013e 3040     		ands	r0, r0, r6
 3198 0140 1343     		orrs	r3, r3, r2
 3199 0142 30EA0303 		bics	r3, r0, r3
 3200 0146 5FD0     		beq	.L136
 3201 0148 2A46     		mov	r2, r5
 3202 014a 2146     		mov	r1, r4
 3203 014c 2046     		mov	r0, r4
 3204 014e FFF7FEFF 		bl	sp_256_proj_point_dbl_8
 3205              	.L137:
 3206 0152 009B     		ldr	r3, [sp]
 3207 0154 013B     		subs	r3, r3, #1
 3208 0156 0093     		str	r3, [sp]
 3209 0158 0133     		adds	r3, r3, #1
 3210 015a A9D1     		bne	.L130
 3211 015c 039B     		ldr	r3, [sp, #12]
 3212 015e 002B     		cmp	r3, #0
 3213 0160 00F00081 		beq	.L142
 3214 0164 2A46     		mov	r2, r5
 3215 0166 2146     		mov	r1, r4
 3216 0168 18EE100A 		vmov	r0, s16	@ int
ARM GAS  /tmp/ccwGYw5D.s 			page 56


 3217 016c FFF7FEFF 		bl	sp_256_map_8
 3218              	.L157:
 3219 0170 0026     		movs	r6, #0
 3220              	.L122:
 3221 0172 2046     		mov	r0, r4
 3222 0174 FFF7FEFF 		bl	wolfSSL_Free
 3223 0178 15B1     		cbz	r5, .L120
 3224 017a 2846     		mov	r0, r5
 3225 017c FFF7FEFF 		bl	wolfSSL_Free
 3226              	.L120:
 3227 0180 3046     		mov	r0, r6
 3228 0182 07B0     		add	sp, sp, #28
 3229              		@ sp needed
 3230 0184 BDEC028B 		vldm	sp!, {d8}
 3231 0188 BDE8F08F 		pop	{r4, r5, r6, r7, r8, r9, r10, fp, pc}
 3232              	.L126:
 3233 018c 7D4B     		ldr	r3, .L158+4
 3234 018e 2746     		mov	r7, r4
 3235 0190 03EB8613 		add	r3, r3, r6, lsl #6
 3236 0194 9C46     		mov	ip, r3
 3237 0196 03F1200E 		add	lr, r3, #32
 3238              	.L128:
 3239 019a 6246     		mov	r2, ip
 3240 019c 03CA     		ldmia	r2!, {r0, r1}
 3241 019e 7245     		cmp	r2, lr
 3242 01a0 3860     		str	r0, [r7]	@ unaligned
 3243 01a2 7960     		str	r1, [r7, #4]	@ unaligned
 3244 01a4 9446     		mov	ip, r2
 3245 01a6 07F10807 		add	r7, r7, #8
 3246 01aa F6D1     		bne	.L128
 3247 01ac 5A46     		mov	r2, fp
 3248 01ae 03F12007 		add	r7, r3, #32
 3249 01b2 4033     		adds	r3, r3, #64
 3250              	.L129:
 3251 01b4 BC46     		mov	ip, r7
 3252 01b6 BCE80300 		ldmia	ip!, {r0, r1}
 3253 01ba 9C45     		cmp	ip, r3
 3254 01bc 1060     		str	r0, [r2]	@ unaligned
 3255 01be 5160     		str	r1, [r2, #4]	@ unaligned
 3256 01c0 6746     		mov	r7, ip
 3257 01c2 02F10802 		add	r2, r2, #8
 3258 01c6 F5D1     		bne	.L129
 3259 01c8 66E7     		b	.L127
 3260              	.L132:
 3261 01ca 6E4B     		ldr	r3, .L158+4
 3262 01cc 4F46     		mov	r7, r9
 3263 01ce 03EB8613 		add	r3, r3, r6, lsl #6
 3264 01d2 9C46     		mov	ip, r3
 3265 01d4 03F1200E 		add	lr, r3, #32
 3266              	.L134:
 3267 01d8 6246     		mov	r2, ip
 3268 01da 03CA     		ldmia	r2!, {r0, r1}
 3269 01dc 7245     		cmp	r2, lr
 3270 01de 3860     		str	r0, [r7]	@ unaligned
 3271 01e0 7960     		str	r1, [r7, #4]	@ unaligned
 3272 01e2 9446     		mov	ip, r2
 3273 01e4 07F10807 		add	r7, r7, #8
ARM GAS  /tmp/ccwGYw5D.s 			page 57


 3274 01e8 F6D1     		bne	.L134
 3275 01ea 019A     		ldr	r2, [sp, #4]
 3276 01ec 03F12007 		add	r7, r3, #32
 3277 01f0 4033     		adds	r3, r3, #64
 3278              	.L135:
 3279 01f2 BC46     		mov	ip, r7
 3280 01f4 BCE80300 		ldmia	ip!, {r0, r1}
 3281 01f8 9C45     		cmp	ip, r3
 3282 01fa 1060     		str	r0, [r2]	@ unaligned
 3283 01fc 5160     		str	r1, [r2, #4]	@ unaligned
 3284 01fe 6746     		mov	r7, ip
 3285 0200 02F10802 		add	r2, r2, #8
 3286 0204 F5D1     		bne	.L135
 3287 0206 73E7     		b	.L133
 3288              	.L136:
 3289 0208 05F5A073 		add	r3, r5, #320
 3290 020c 2246     		mov	r2, r4
 3291 020e 2946     		mov	r1, r5
 3292 0210 2846     		mov	r0, r5
 3293 0212 0593     		str	r3, [sp, #20]
 3294 0214 FFF7FEFF 		bl	sp_256_mont_sub_8.constprop.0
 3295 0218 5A46     		mov	r2, fp
 3296 021a 4146     		mov	r1, r8
 3297 021c 4046     		mov	r0, r8
 3298 021e 05F1C006 		add	r6, r5, #192
 3299 0222 FFF7FEFF 		bl	sp_256_mont_sub_8.constprop.0
 3300 0226 2A46     		mov	r2, r5
 3301 0228 5146     		mov	r1, r10
 3302 022a 05F18000 		add	r0, r5, #128
 3303 022e 05F14007 		add	r7, r5, #64
 3304 0232 FFF7FEFF 		bl	sp_256_mont_mul_8.constprop.0
 3305 0236 3046     		mov	r0, r6
 3306 0238 2946     		mov	r1, r5
 3307 023a FFF7FEFF 		bl	sp_256_mont_sqr_8.constprop.0
 3308 023e 3246     		mov	r2, r6
 3309 0240 3846     		mov	r0, r7
 3310 0242 2146     		mov	r1, r4
 3311 0244 FFF7FEFF 		bl	sp_256_mont_mul_8.constprop.0
 3312 0248 2A46     		mov	r2, r5
 3313 024a 3146     		mov	r1, r6
 3314 024c 3046     		mov	r0, r6
 3315 024e FFF7FEFF 		bl	sp_256_mont_mul_8.constprop.0
 3316 0252 4146     		mov	r1, r8
 3317 0254 2846     		mov	r0, r5
 3318 0256 FFF7FEFF 		bl	sp_256_mont_sqr_8.constprop.0
 3319 025a 3246     		mov	r2, r6
 3320 025c 2946     		mov	r1, r5
 3321 025e 2846     		mov	r0, r5
 3322 0260 FFF7FEFF 		bl	sp_256_mont_sub_8.constprop.0
 3323 0264 059B     		ldr	r3, [sp, #20]
 3324 0266 3946     		mov	r1, r7
 3325 0268 1846     		mov	r0, r3
 3326 026a FFF7FEFF 		bl	sp_256_mont_dbl_8.constprop.0
 3327 026e 2946     		mov	r1, r5
 3328 0270 2846     		mov	r0, r5
 3329 0272 059A     		ldr	r2, [sp, #20]
 3330 0274 FFF7FEFF 		bl	sp_256_mont_sub_8.constprop.0
ARM GAS  /tmp/ccwGYw5D.s 			page 58


 3331 0278 3946     		mov	r1, r7
 3332 027a 3846     		mov	r0, r7
 3333 027c 2A46     		mov	r2, r5
 3334 027e FFF7FEFF 		bl	sp_256_mont_sub_8.constprop.0
 3335 0282 3946     		mov	r1, r7
 3336 0284 3846     		mov	r0, r7
 3337 0286 4246     		mov	r2, r8
 3338 0288 FFF7FEFF 		bl	sp_256_mont_mul_8.constprop.0
 3339 028c 3146     		mov	r1, r6
 3340 028e 3046     		mov	r0, r6
 3341 0290 5A46     		mov	r2, fp
 3342 0292 FFF7FEFF 		bl	sp_256_mont_mul_8.constprop.0
 3343 0296 3246     		mov	r2, r6
 3344 0298 3946     		mov	r1, r7
 3345 029a 3846     		mov	r0, r7
 3346 029c FFF7FEFF 		bl	sp_256_mont_sub_8.constprop.0
 3347 02a0 D4F88421 		ldr	r2, [r4, #388]
 3348 02a4 D4F8C030 		ldr	r3, [r4, #192]
 3349 02a8 211F     		subs	r1, r4, #4
 3350 02aa 002B     		cmp	r3, #0
 3351 02ac 14BF     		ite	ne
 3352 02ae 0026     		movne	r6, #0
 3353 02b0 02F00106 		andeq	r6, r2, #1
 3354 02b4 002A     		cmp	r2, #0
 3355 02b6 14BF     		ite	ne
 3356 02b8 0020     		movne	r0, #0
 3357 02ba 03F00100 		andeq	r0, r3, #1
 3358 02be 7642     		rsbs	r6, r6, #0
 3359 02c0 4042     		rsbs	r0, r0, #0
 3360 02c2 46EA0007 		orr	r7, r6, r0
 3361 02c6 FF43     		mvns	r7, r7
 3362 02c8 1A40     		ands	r2, r2, r3
 3363 02ca A5F1040C 		sub	ip, r5, #4
 3364 02ce 04F11C0E 		add	lr, r4, #28
 3365              	.L138:
 3366 02d2 51F8043F 		ldr	r3, [r1, #4]!
 3367 02d6 06EA0308 		and	r8, r6, r3
 3368 02da D1F8C430 		ldr	r3, [r1, #196]
 3369 02de 8E45     		cmp	lr, r1
 3370 02e0 03EA0003 		and	r3, r3, r0
 3371 02e4 48EA0303 		orr	r3, r8, r3
 3372 02e8 5CF8048F 		ldr	r8, [ip, #4]!
 3373 02ec 07EA0808 		and	r8, r7, r8
 3374 02f0 43EA0803 		orr	r3, r3, r8
 3375 02f4 0B60     		str	r3, [r1]
 3376 02f6 ECD1     		bne	.L138
 3377 02f8 04F1400C 		add	ip, r4, #64
 3378 02fc 05F13C0E 		add	lr, r5, #60
 3379 0300 04F16008 		add	r8, r4, #96
 3380              	.L139:
 3381 0304 5CF8043B 		ldr	r3, [ip], #4
 3382 0308 5EF8041F 		ldr	r1, [lr, #4]!
 3383 030c 3340     		ands	r3, r3, r6
 3384 030e 3940     		ands	r1, r1, r7
 3385 0310 0B43     		orrs	r3, r3, r1
 3386 0312 DCF8C010 		ldr	r1, [ip, #192]
 3387 0316 E045     		cmp	r8, ip
ARM GAS  /tmp/ccwGYw5D.s 			page 59


 3388 0318 01EA0001 		and	r1, r1, r0
 3389 031c 41EA0301 		orr	r1, r1, r3
 3390 0320 4CF8041C 		str	r1, [ip, #-4]
 3391 0324 EED1     		bne	.L139
 3392 0326 04F1800C 		add	ip, r4, #128
 3393 032a 05F17C0E 		add	lr, r5, #124
 3394 032e 04F1A008 		add	r8, r4, #160
 3395              	.L140:
 3396 0332 5CF8043B 		ldr	r3, [ip], #4
 3397 0336 5EF8041F 		ldr	r1, [lr, #4]!
 3398 033a 3340     		ands	r3, r3, r6
 3399 033c 3940     		ands	r1, r1, r7
 3400 033e 0B43     		orrs	r3, r3, r1
 3401 0340 DCF8C010 		ldr	r1, [ip, #192]
 3402 0344 E045     		cmp	r8, ip
 3403 0346 01EA0001 		and	r1, r1, r0
 3404 034a 41EA0301 		orr	r1, r1, r3
 3405 034e 4CF8041C 		str	r1, [ip, #-4]
 3406 0352 EED1     		bne	.L140
 3407 0354 D4F88030 		ldr	r3, [r4, #128]
 3408 0358 C4F8C020 		str	r2, [r4, #192]
 3409 035c 1343     		orrs	r3, r3, r2
 3410 035e C4F88030 		str	r3, [r4, #128]
 3411 0362 F6E6     		b	.L137
 3412              	.L142:
 3413 0364 C422     		movs	r2, #196
 3414 0366 2146     		mov	r1, r4
 3415 0368 18EE100A 		vmov	r0, s16	@ int
 3416 036c FFF7FEFF 		bl	memcpy
 3417 0370 FEE6     		b	.L157
 3418              	.L144:
 3419 0372 6FF07C06 		mvn	r6, #124
 3420 0376 03E7     		b	.L120
 3421              	.L145:
 3422 0378 6FF07C06 		mvn	r6, #124
 3423 037c F9E6     		b	.L122
 3424              	.L159:
 3425 037e 00BF     		.align	2
 3426              	.L158:
 3427 0380 00000000 		.word	.LANCHOR3
 3428 0384 00000000 		.word	p256_table
 3430              		.section	.text.sp_256_ecc_mulmod_fast_8.constprop.0,"ax",%progbits
 3431              		.align	1
 3432              		.syntax unified
 3433              		.thumb
 3434              		.thumb_func
 3435              		.fpu fpv4-sp-d16
 3437              	sp_256_ecc_mulmod_fast_8.constprop.0:
 3438              		@ args = 4, pretend = 0, frame = 8
 3439              		@ frame_needed = 0, uses_anonymous_args = 0
 3440 0000 2DE9F04F 		push	{r4, r5, r6, r7, r8, r9, r10, fp, lr}
 3441 0004 2DED028B 		vpush.64	{d8}
 3442 0008 08EE900A 		vmov	s17, r0	@ int
 3443 000c 83B0     		sub	sp, sp, #12
 3444 000e 40F60450 		movw	r0, #3332
 3445 0012 0E46     		mov	r6, r1
 3446 0014 CDE90023 		strd	r2, r3, [sp]
ARM GAS  /tmp/ccwGYw5D.s 			page 60


 3447 0018 FFF7FEFF 		bl	wolfSSL_Malloc
 3448 001c 0446     		mov	r4, r0
 3449 001e 0028     		cmp	r0, #0
 3450 0020 00F09980 		beq	.L175
 3451 0024 C420     		movs	r0, #196
 3452 0026 FFF7FEFF 		bl	wolfSSL_Malloc
 3453 002a 08EE100A 		vmov	s16, r0	@ int
 3454 002e 0028     		cmp	r0, #0
 3455 0030 00F08E80 		beq	.L176
 3456 0034 4FF4C070 		mov	r0, #384
 3457 0038 FFF7FEFF 		bl	wolfSSL_Malloc
 3458 003c 8246     		mov	r10, r0
 3459 003e 0028     		cmp	r0, #0
 3460 0040 40F08C80 		bne	.L178
 3461 0044 6FF07C05 		mvn	r5, #124
 3462              	.L163:
 3463 0048 18EE100A 		vmov	r0, s16	@ int
 3464 004c C421     		movs	r1, #196
 3465 004e FFF7FEFF 		bl	ForceZero
 3466 0052 18EE100A 		vmov	r0, s16	@ int
 3467 0056 FFF7FEFF 		bl	wolfSSL_Free
 3468              	.L162:
 3469 005a 2046     		mov	r0, r4
 3470 005c 40F60451 		movw	r1, #3332
 3471 0060 FFF7FEFF 		bl	ForceZero
 3472 0064 2046     		mov	r0, r4
 3473 0066 FFF7FEFF 		bl	wolfSSL_Free
 3474              	.L160:
 3475 006a 2846     		mov	r0, r5
 3476 006c 03B0     		add	sp, sp, #12
 3477              		@ sp needed
 3478 006e BDEC028B 		vldm	sp!, {d8}
 3479 0072 BDE8F08F 		pop	{r4, r5, r6, r7, r8, r9, r10, fp, pc}
 3480              	.L173:
 3481 0076 3A46     		mov	r2, r7
 3482 0078 B7FA87F7 		clz	r7, r7
 3483 007c 2146     		mov	r1, r4
 3484 007e 2846     		mov	r0, r5
 3485 0080 7F09     		lsrs	r7, r7, #5
 3486 0082 FFF7FEFF 		bl	sp_256_get_point_16_8
 3487 0086 C4F8007D 		str	r7, [r4, #3328]
 3488              	.L165:
 3489 008a 4FF01C08 		mov	r8, #28
 3490 008e 4FF00609 		mov	r9, #6
 3491 0092 4FF0C40B 		mov	fp, #196
 3492 0096 3601     		lsls	r6, r6, #4
 3493              	.L166:
 3494 0098 B9F1000F 		cmp	r9, #0
 3495 009c 15DA     		bge	.L170
 3496 009e B8F1030F 		cmp	r8, #3
 3497 00a2 1DDC     		bgt	.L167
 3498 00a4 019B     		ldr	r3, [sp, #4]
 3499 00a6 002B     		cmp	r3, #0
 3500 00a8 4BD0     		beq	.L171
 3501 00aa 5246     		mov	r2, r10
 3502 00ac 2946     		mov	r1, r5
 3503 00ae 18EE900A 		vmov	r0, s17	@ int
ARM GAS  /tmp/ccwGYw5D.s 			page 61


 3504 00b2 FFF7FEFF 		bl	sp_256_map_8
 3505              	.L172:
 3506 00b6 4FF4C071 		mov	r1, #384
 3507 00ba 5046     		mov	r0, r10
 3508 00bc FFF7FEFF 		bl	ForceZero
 3509 00c0 5046     		mov	r0, r10
 3510 00c2 FFF7FEFF 		bl	wolfSSL_Free
 3511 00c6 0025     		movs	r5, #0
 3512 00c8 BEE7     		b	.L163
 3513              	.L170:
 3514 00ca B8F1030F 		cmp	r8, #3
 3515 00ce 07DC     		bgt	.L167
 3516 00d0 009B     		ldr	r3, [sp]
 3517 00d2 08F12008 		add	r8, r8, #32
 3518 00d6 53F82920 		ldr	r2, [r3, r9, lsl #2]
 3519 00da 09F1FF39 		add	r9, r9, #-1
 3520 00de 1643     		orrs	r6, r6, r2
 3521              	.L167:
 3522 00e0 5246     		mov	r2, r10
 3523 00e2 2946     		mov	r1, r5
 3524 00e4 2846     		mov	r0, r5
 3525 00e6 FFF7FEFF 		bl	sp_256_proj_point_dbl_8
 3526 00ea 5246     		mov	r2, r10
 3527 00ec 2946     		mov	r1, r5
 3528 00ee 2846     		mov	r0, r5
 3529 00f0 FFF7FEFF 		bl	sp_256_proj_point_dbl_8
 3530 00f4 5246     		mov	r2, r10
 3531 00f6 2946     		mov	r1, r5
 3532 00f8 2846     		mov	r0, r5
 3533 00fa FFF7FEFF 		bl	sp_256_proj_point_dbl_8
 3534 00fe 5246     		mov	r2, r10
 3535 0100 2946     		mov	r1, r5
 3536 0102 2846     		mov	r0, r5
 3537 0104 FFF7FEFF 		bl	sp_256_proj_point_dbl_8
 3538 0108 0E9B     		ldr	r3, [sp, #56]
 3539 010a 370F     		lsrs	r7, r6, #28
 3540 010c A8F10408 		sub	r8, r8, #4
 3541 0110 3601     		lsls	r6, r6, #4
 3542 0112 93B1     		cbz	r3, .L168
 3543 0114 3A46     		mov	r2, r7
 3544 0116 B7FA87F7 		clz	r7, r7
 3545 011a 18EE100A 		vmov	r0, s16	@ int
 3546 011e 2146     		mov	r1, r4
 3547 0120 FFF7FEFF 		bl	sp_256_get_point_16_8
 3548 0124 5346     		mov	r3, r10
 3549 0126 18EE102A 		vmov	r2, s16	@ int
 3550 012a 7F09     		lsrs	r7, r7, #5
 3551 012c C0F8C070 		str	r7, [r0, #192]
 3552              	.L180:
 3553 0130 2946     		mov	r1, r5
 3554 0132 2846     		mov	r0, r5
 3555 0134 FFF7FEFF 		bl	sp_256_proj_point_add_8
 3556 0138 AEE7     		b	.L166
 3557              	.L168:
 3558 013a 5346     		mov	r3, r10
 3559 013c 0BFB0742 		mla	r2, fp, r7, r4
 3560 0140 F6E7     		b	.L180
ARM GAS  /tmp/ccwGYw5D.s 			page 62


 3561              	.L171:
 3562 0142 C422     		movs	r2, #196
 3563 0144 2946     		mov	r1, r5
 3564 0146 18EE900A 		vmov	r0, s17	@ int
 3565 014a FFF7FEFF 		bl	memcpy
 3566 014e B2E7     		b	.L172
 3567              	.L176:
 3568 0150 6FF07C05 		mvn	r5, #124
 3569 0154 81E7     		b	.L162
 3570              	.L175:
 3571 0156 6FF07C05 		mvn	r5, #124
 3572 015a 86E7     		b	.L160
 3573              	.L178:
 3574 015c C422     		movs	r2, #196
 3575 015e 0021     		movs	r1, #0
 3576 0160 2046     		mov	r0, r4
 3577 0162 FFF7FEFF 		bl	memset
 3578 0166 0122     		movs	r2, #1
 3579 0168 04F1C408 		add	r8, r4, #196
 3580 016c C4F8C020 		str	r2, [r4, #192]
 3581 0170 3146     		mov	r1, r6
 3582 0172 4046     		mov	r0, r8
 3583 0174 FFF7FEFF 		bl	sp_256_mod_mul_norm_8.constprop.0
 3584 0178 06F14001 		add	r1, r6, #64
 3585 017c 04F58270 		add	r0, r4, #260
 3586 0180 FFF7FEFF 		bl	sp_256_mod_mul_norm_8.constprop.0
 3587 0184 06F18001 		add	r1, r6, #128
 3588 0188 0026     		movs	r6, #0
 3589 018a 04F5C477 		add	r7, r4, #392
 3590 018e 04F5A270 		add	r0, r4, #324
 3591 0192 FFF7FEFF 		bl	sp_256_mod_mul_norm_8.constprop.0
 3592 0196 04F5137B 		add	fp, r4, #588
 3593 019a 4146     		mov	r1, r8
 3594 019c 3846     		mov	r0, r7
 3595 019e 5246     		mov	r2, r10
 3596 01a0 C4F88461 		str	r6, [r4, #388]
 3597 01a4 FFF7FEFF 		bl	sp_256_proj_point_dbl_8
 3598 01a8 4246     		mov	r2, r8
 3599 01aa 3946     		mov	r1, r7
 3600 01ac 5846     		mov	r0, fp
 3601 01ae 5346     		mov	r3, r10
 3602 01b0 C4F84862 		str	r6, [r4, #584]
 3603 01b4 FFF7FEFF 		bl	sp_256_proj_point_add_8
 3604 01b8 04F54473 		add	r3, r4, #784
 3605 01bc 07EE103A 		vmov	s14, r3	@ int
 3606 01c0 04F57579 		add	r9, r4, #980
 3607 01c4 3946     		mov	r1, r7
 3608 01c6 1846     		mov	r0, r3
 3609 01c8 5246     		mov	r2, r10
 3610 01ca C4F80C63 		str	r6, [r4, #780]
 3611 01ce FFF7FEFF 		bl	sp_256_proj_point_dbl_8
 3612 01d2 04F59368 		add	r8, r4, #1176
 3613 01d6 5346     		mov	r3, r10
 3614 01d8 3A46     		mov	r2, r7
 3615 01da 5946     		mov	r1, fp
 3616 01dc 4846     		mov	r0, r9
 3617 01de C4F8D063 		str	r6, [r4, #976]
ARM GAS  /tmp/ccwGYw5D.s 			page 63


 3618 01e2 FFF7FEFF 		bl	sp_256_proj_point_add_8
 3619 01e6 04F25C57 		addw	r7, r4, #1372
 3620 01ea 5946     		mov	r1, fp
 3621 01ec 5246     		mov	r2, r10
 3622 01ee 4046     		mov	r0, r8
 3623 01f0 C4F89464 		str	r6, [r4, #1172]
 3624 01f4 FFF7FEFF 		bl	sp_256_proj_point_dbl_8
 3625 01f8 5346     		mov	r3, r10
 3626 01fa 5A46     		mov	r2, fp
 3627 01fc 3846     		mov	r0, r7
 3628 01fe 17EE101A 		vmov	r1, s14	@ int
 3629 0202 C4F85865 		str	r6, [r4, #1368]
 3630 0206 04F5C46B 		add	fp, r4, #1568
 3631 020a FFF7FEFF 		bl	sp_256_proj_point_add_8
 3632 020e 5246     		mov	r2, r10
 3633 0210 17EE101A 		vmov	r1, s14	@ int
 3634 0214 5846     		mov	r0, fp
 3635 0216 C4F81C66 		str	r6, [r4, #1564]
 3636 021a FFF7FEFF 		bl	sp_256_proj_point_dbl_8
 3637 021e 5346     		mov	r3, r10
 3638 0220 17EE102A 		vmov	r2, s14	@ int
 3639 0224 4946     		mov	r1, r9
 3640 0226 C4F8E066 		str	r6, [r4, #1760]
 3641 022a 04F2E460 		addw	r0, r4, #1764
 3642 022e FFF7FEFF 		bl	sp_256_proj_point_add_8
 3643 0232 5246     		mov	r2, r10
 3644 0234 4946     		mov	r1, r9
 3645 0236 C4F8A467 		str	r6, [r4, #1956]
 3646 023a 04F5F560 		add	r0, r4, #1960
 3647 023e FFF7FEFF 		bl	sp_256_proj_point_dbl_8
 3648 0242 5346     		mov	r3, r10
 3649 0244 4A46     		mov	r2, r9
 3650 0246 4146     		mov	r1, r8
 3651 0248 C4F86868 		str	r6, [r4, #2152]
 3652 024c 04F66C00 		addw	r0, r4, #2156
 3653 0250 FFF7FEFF 		bl	sp_256_proj_point_add_8
 3654 0254 5246     		mov	r2, r10
 3655 0256 4146     		mov	r1, r8
 3656 0258 C4F82C69 		str	r6, [r4, #2348]
 3657 025c 04F51360 		add	r0, r4, #2352
 3658 0260 FFF7FEFF 		bl	sp_256_proj_point_dbl_8
 3659 0264 5346     		mov	r3, r10
 3660 0266 3946     		mov	r1, r7
 3661 0268 4246     		mov	r2, r8
 3662 026a C4F8F069 		str	r6, [r4, #2544]
 3663 026e 04F6F410 		addw	r0, r4, #2548
 3664 0272 FFF7FEFF 		bl	sp_256_proj_point_add_8
 3665 0276 3946     		mov	r1, r7
 3666 0278 5246     		mov	r2, r10
 3667 027a C4F8B46A 		str	r6, [r4, #2740]
 3668 027e 04F6B820 		addw	r0, r4, #2744
 3669 0282 FFF7FEFF 		bl	sp_256_proj_point_dbl_8
 3670 0286 5346     		mov	r3, r10
 3671 0288 3A46     		mov	r2, r7
 3672 028a C4F8786B 		str	r6, [r4, #2936]
 3673 028e 5946     		mov	r1, fp
 3674 0290 04F67C30 		addw	r0, r4, #2940
ARM GAS  /tmp/ccwGYw5D.s 			page 64


 3675 0294 FFF7FEFF 		bl	sp_256_proj_point_add_8
 3676 0298 009B     		ldr	r3, [sp]
 3677 029a C4F83C6C 		str	r6, [r4, #3132]
 3678 029e DE69     		ldr	r6, [r3, #28]
 3679 02a0 0E9B     		ldr	r3, [sp, #56]
 3680 02a2 04F54465 		add	r5, r4, #3136
 3681 02a6 370F     		lsrs	r7, r6, #28
 3682 02a8 002B     		cmp	r3, #0
 3683 02aa 7FF4E4AE 		bne	.L173
 3684 02ae C422     		movs	r2, #196
 3685 02b0 2846     		mov	r0, r5
 3686 02b2 02FB0741 		mla	r1, r2, r7, r4
 3687 02b6 FFF7FEFF 		bl	memcpy
 3688 02ba E6E6     		b	.L165
 3690              		.section	.text.sp_256_mod_8,"ax",%progbits
 3691              		.align	1
 3692              		.syntax unified
 3693              		.thumb
 3694              		.thumb_func
 3695              		.fpu fpv4-sp-d16
 3697              	sp_256_mod_8:
 3698              		@ args = 0, pretend = 0, frame = 104
 3699              		@ frame_needed = 0, uses_anonymous_args = 0
 3700 0000 2DE9F043 		push	{r4, r5, r6, r7, r8, r9, lr}
 3701 0004 0B46     		mov	r3, r1
 3702 0006 0646     		mov	r6, r0
 3703 0008 1446     		mov	r4, r2
 3704 000a 9BB0     		sub	sp, sp, #108
 3705 000c D769     		ldr	r7, [r2, #28]
 3706 000e 0AAD     		add	r5, sp, #40
 3707 0010 01F1400C 		add	ip, r1, #64
 3708              	.L182:
 3709 0014 2A46     		mov	r2, r5
 3710 0016 1868     		ldr	r0, [r3]	@ unaligned
 3711 0018 5968     		ldr	r1, [r3, #4]	@ unaligned
 3712 001a 0833     		adds	r3, r3, #8
 3713 001c 03C2     		stmia	r2!, {r0, r1}
 3714 001e 6345     		cmp	r3, ip
 3715 0020 1546     		mov	r5, r2
 3716 0022 F7D1     		bne	.L182
 3717 0024 2146     		mov	r1, r4
 3718 0026 12A8     		add	r0, sp, #72
 3719 0028 FFF7FEFF 		bl	sp_256_cmp_8
 3720 002c C043     		mvns	r0, r0
 3721 002e 12A9     		add	r1, sp, #72
 3722 0030 C00F     		lsrs	r0, r0, #31
 3723 0032 4342     		rsbs	r3, r0, #0
 3724 0034 2246     		mov	r2, r4
 3725 0036 0846     		mov	r0, r1
 3726 0038 FFF7FEFF 		bl	sp_256_cond_sub_8.isra.0
 3727 003c 4FF00709 		mov	r9, #7
 3728 0040 19AD     		add	r5, sp, #100
 3729              	.L183:
 3730 0042 2B68     		ldr	r3, [r5]
 3731 0044 4FF0FF32 		mov	r2, #-1
 3732 0048 9F42     		cmp	r7, r3
 3733 004a 18BF     		it	ne
ARM GAS  /tmp/ccwGYw5D.s 			page 65


 3734 004c 0022     		movne	r2, #0
 3735 004e 0092     		str	r2, [sp]
 3736 0050 0098     		ldr	r0, [sp]
 3737 0052 A846     		mov	r8, r5
 3738 0054 1844     		add	r0, r0, r3
 3739 0056 55F8041D 		ldr	r1, [r5, #-4]!
 3740 005a 3A46     		mov	r2, r7
 3741 005c FFF7FEFF 		bl	div_256_word_8
 3742 0060 009A     		ldr	r2, [sp]
 3743 0062 A8F12008 		sub	r8, r8, #32
 3744 0066 0243     		orrs	r2, r2, r0
 3745 0068 2146     		mov	r1, r4
 3746 006a 01A8     		add	r0, sp, #4
 3747 006c FFF7FEFF 		bl	sp_256_mul_d_8
 3748 0070 01A9     		add	r1, sp, #4
 3749 0072 4046     		mov	r0, r8
 3750 0074 FFF7FEFF 		bl	sp_256_sub_in_place_8
 3751 0078 099B     		ldr	r3, [sp, #36]
 3752 007a 2268     		ldr	r2, [r4]
 3753 007c C01A     		subs	r0, r0, r3
 3754 007e 6B68     		ldr	r3, [r5, #4]
 3755 0080 4146     		mov	r1, r8
 3756 0082 0344     		add	r3, r3, r0
 3757 0084 1A40     		ands	r2, r2, r3
 3758 0086 0192     		str	r2, [sp, #4]
 3759 0088 6268     		ldr	r2, [r4, #4]
 3760 008a 6B60     		str	r3, [r5, #4]
 3761 008c 1A40     		ands	r2, r2, r3
 3762 008e 0292     		str	r2, [sp, #8]
 3763 0090 A268     		ldr	r2, [r4, #8]
 3764 0092 4046     		mov	r0, r8
 3765 0094 1A40     		ands	r2, r2, r3
 3766 0096 0392     		str	r2, [sp, #12]
 3767 0098 E268     		ldr	r2, [r4, #12]
 3768 009a 1A40     		ands	r2, r2, r3
 3769 009c 0492     		str	r2, [sp, #16]
 3770 009e 2269     		ldr	r2, [r4, #16]
 3771 00a0 1A40     		ands	r2, r2, r3
 3772 00a2 0592     		str	r2, [sp, #20]
 3773 00a4 6269     		ldr	r2, [r4, #20]
 3774 00a6 1A40     		ands	r2, r2, r3
 3775 00a8 0692     		str	r2, [sp, #24]
 3776 00aa A269     		ldr	r2, [r4, #24]
 3777 00ac 1A40     		ands	r2, r2, r3
 3778 00ae 0792     		str	r2, [sp, #28]
 3779 00b0 E269     		ldr	r2, [r4, #28]
 3780 00b2 1340     		ands	r3, r3, r2
 3781 00b4 01AA     		add	r2, sp, #4
 3782 00b6 0893     		str	r3, [sp, #32]
 3783 00b8 FFF7FEFF 		bl	sp_256_add_8
 3784 00bc 6A68     		ldr	r2, [r5, #4]
 3785 00be E369     		ldr	r3, [r4, #28]
 3786 00c0 1044     		add	r0, r0, r2
 3787 00c2 2268     		ldr	r2, [r4]
 3788 00c4 6860     		str	r0, [r5, #4]
 3789 00c6 0240     		ands	r2, r2, r0
 3790 00c8 0192     		str	r2, [sp, #4]
ARM GAS  /tmp/ccwGYw5D.s 			page 66


 3791 00ca 6268     		ldr	r2, [r4, #4]
 3792 00cc 4146     		mov	r1, r8
 3793 00ce 0240     		ands	r2, r2, r0
 3794 00d0 0292     		str	r2, [sp, #8]
 3795 00d2 A268     		ldr	r2, [r4, #8]
 3796 00d4 0240     		ands	r2, r2, r0
 3797 00d6 0392     		str	r2, [sp, #12]
 3798 00d8 E268     		ldr	r2, [r4, #12]
 3799 00da 0240     		ands	r2, r2, r0
 3800 00dc 0492     		str	r2, [sp, #16]
 3801 00de 2269     		ldr	r2, [r4, #16]
 3802 00e0 0240     		ands	r2, r2, r0
 3803 00e2 0592     		str	r2, [sp, #20]
 3804 00e4 6269     		ldr	r2, [r4, #20]
 3805 00e6 0240     		ands	r2, r2, r0
 3806 00e8 0692     		str	r2, [sp, #24]
 3807 00ea A269     		ldr	r2, [r4, #24]
 3808 00ec 0240     		ands	r2, r2, r0
 3809 00ee 1840     		ands	r0, r0, r3
 3810 00f0 0792     		str	r2, [sp, #28]
 3811 00f2 0890     		str	r0, [sp, #32]
 3812 00f4 01AA     		add	r2, sp, #4
 3813 00f6 4046     		mov	r0, r8
 3814 00f8 FFF7FEFF 		bl	sp_256_add_8
 3815 00fc 6B68     		ldr	r3, [r5, #4]
 3816 00fe B9F10109 		subs	r9, r9, #1
 3817 0102 1844     		add	r0, r0, r3
 3818 0104 6860     		str	r0, [r5, #4]
 3819 0106 9CD2     		bcs	.L183
 3820 0108 2146     		mov	r1, r4
 3821 010a 0AA8     		add	r0, sp, #40
 3822 010c FFF7FEFF 		bl	sp_256_cmp_8
 3823 0110 C043     		mvns	r0, r0
 3824 0112 C00F     		lsrs	r0, r0, #31
 3825 0114 4342     		rsbs	r3, r0, #0
 3826 0116 2246     		mov	r2, r4
 3827 0118 3046     		mov	r0, r6
 3828 011a 0AA9     		add	r1, sp, #40
 3829 011c FFF7FEFF 		bl	sp_256_cond_sub_8.isra.0
 3830 0120 0020     		movs	r0, #0
 3831 0122 1BB0     		add	sp, sp, #108
 3832              		@ sp needed
 3833 0124 BDE8F083 		pop	{r4, r5, r6, r7, r8, r9, pc}
 3835              		.section	.text.sp_256_ecc_is_point_8.constprop.0,"ax",%progbits
 3836              		.align	1
 3837              		.syntax unified
 3838              		.thumb
 3839              		.thumb_func
 3840              		.fpu fpv4-sp-d16
 3842              	sp_256_ecc_is_point_8.constprop.0:
 3843              		@ args = 0, pretend = 0, frame = 0
 3844              		@ frame_needed = 0, uses_anonymous_args = 0
 3845 0000 70B5     		push	{r4, r5, r6, lr}
 3846 0002 0546     		mov	r5, r0
 3847 0004 8020     		movs	r0, #128
 3848 0006 FFF7FEFF 		bl	wolfSSL_Malloc
 3849 000a 0446     		mov	r4, r0
ARM GAS  /tmp/ccwGYw5D.s 			page 67


 3850 000c 0028     		cmp	r0, #0
 3851 000e 3ED0     		beq	.L189
 3852 0010 05F14001 		add	r1, r5, #64
 3853 0014 00F14006 		add	r6, r0, #64
 3854 0018 FFF7FEFF 		bl	sp_256_sqr_8
 3855 001c 1D4A     		ldr	r2, .L192
 3856 001e 2146     		mov	r1, r4
 3857 0020 2046     		mov	r0, r4
 3858 0022 FFF7FEFF 		bl	sp_256_mod_8
 3859 0026 2946     		mov	r1, r5
 3860 0028 3046     		mov	r0, r6
 3861 002a FFF7FEFF 		bl	sp_256_sqr_8
 3862 002e 3146     		mov	r1, r6
 3863 0030 184A     		ldr	r2, .L192
 3864 0032 3046     		mov	r0, r6
 3865 0034 FFF7FEFF 		bl	sp_256_mod_8
 3866 0038 2A46     		mov	r2, r5
 3867 003a 3146     		mov	r1, r6
 3868 003c 3046     		mov	r0, r6
 3869 003e FFF7FEFF 		bl	sp_256_mul_8
 3870 0042 3146     		mov	r1, r6
 3871 0044 134A     		ldr	r2, .L192
 3872 0046 3046     		mov	r0, r6
 3873 0048 FFF7FEFF 		bl	sp_256_mod_8
 3874 004c 3246     		mov	r2, r6
 3875 004e 2146     		mov	r1, r4
 3876 0050 2046     		mov	r0, r4
 3877 0052 FFF7FEFF 		bl	sp_256_mont_sub_8.constprop.0
 3878 0056 2A46     		mov	r2, r5
 3879 0058 2146     		mov	r1, r4
 3880 005a 2046     		mov	r0, r4
 3881 005c FFF7FEFF 		bl	sp_256_mont_add_8.constprop.0
 3882 0060 2A46     		mov	r2, r5
 3883 0062 2146     		mov	r1, r4
 3884 0064 2046     		mov	r0, r4
 3885 0066 FFF7FEFF 		bl	sp_256_mont_add_8.constprop.0
 3886 006a 2A46     		mov	r2, r5
 3887 006c 2146     		mov	r1, r4
 3888 006e 2046     		mov	r0, r4
 3889 0070 FFF7FEFF 		bl	sp_256_mont_add_8.constprop.0
 3890 0074 2046     		mov	r0, r4
 3891 0076 0849     		ldr	r1, .L192+4
 3892 0078 FFF7FEFF 		bl	sp_256_cmp_8
 3893 007c 051E     		subs	r5, r0, #0
 3894 007e 2046     		mov	r0, r4
 3895 0080 18BF     		it	ne
 3896 0082 6FF06105 		mvnne	r5, #97
 3897 0086 FFF7FEFF 		bl	wolfSSL_Free
 3898              	.L186:
 3899 008a 2846     		mov	r0, r5
 3900 008c 70BD     		pop	{r4, r5, r6, pc}
 3901              	.L189:
 3902 008e 6FF07C05 		mvn	r5, #124
 3903 0092 FAE7     		b	.L186
 3904              	.L193:
 3905              		.align	2
 3906              	.L192:
ARM GAS  /tmp/ccwGYw5D.s 			page 68


 3907 0094 00000000 		.word	.LANCHOR2
 3908 0098 00000000 		.word	.LANCHOR4
 3910              		.section	.text.sp_ecc_mulmod_256,"ax",%progbits
 3911              		.align	1
 3912              		.global	sp_ecc_mulmod_256
 3913              		.syntax unified
 3914              		.thumb
 3915              		.thumb_func
 3916              		.fpu fpv4-sp-d16
 3918              	sp_ecc_mulmod_256:
 3919              		@ args = 4, pretend = 0, frame = 0
 3920              		@ frame_needed = 0, uses_anonymous_args = 0
 3921 0000 2DE9F743 		push	{r0, r1, r2, r4, r5, r6, r7, r8, r9, lr}
 3922 0004 8146     		mov	r9, r0
 3923 0006 C420     		movs	r0, #196
 3924 0008 8846     		mov	r8, r1
 3925 000a 1746     		mov	r7, r2
 3926 000c 1C46     		mov	r4, r3
 3927 000e FFF7FEFF 		bl	wolfSSL_Malloc
 3928 0012 0546     		mov	r5, r0
 3929 0014 08B3     		cbz	r0, .L198
 3930 0016 2020     		movs	r0, #32
 3931 0018 FFF7FEFF 		bl	wolfSSL_Malloc
 3932 001c 0646     		mov	r6, r0
 3933 001e 10B3     		cbz	r0, .L199
 3934 0020 4946     		mov	r1, r9
 3935 0022 FFF7FEFF 		bl	sp_256_from_mp.constprop.0
 3936 0026 4146     		mov	r1, r8
 3937 0028 2846     		mov	r0, r5
 3938 002a FFF7FEFF 		bl	sp_256_point_from_ecc_point_8
 3939 002e 0123     		movs	r3, #1
 3940 0030 3246     		mov	r2, r6
 3941 0032 0093     		str	r3, [sp]
 3942 0034 2946     		mov	r1, r5
 3943 0036 2346     		mov	r3, r4
 3944 0038 2846     		mov	r0, r5
 3945 003a FFF7FEFF 		bl	sp_256_ecc_mulmod_fast_8.constprop.0
 3946 003e 0446     		mov	r4, r0
 3947 0040 20B9     		cbnz	r0, .L197
 3948 0042 3946     		mov	r1, r7
 3949 0044 2846     		mov	r0, r5
 3950 0046 FFF7FEFF 		bl	sp_256_point_to_ecc_point_8
 3951 004a 0446     		mov	r4, r0
 3952              	.L197:
 3953 004c 3046     		mov	r0, r6
 3954 004e FFF7FEFF 		bl	wolfSSL_Free
 3955              	.L196:
 3956 0052 2846     		mov	r0, r5
 3957 0054 FFF7FEFF 		bl	wolfSSL_Free
 3958 0058 01E0     		b	.L194
 3959              	.L198:
 3960 005a 6FF07C04 		mvn	r4, #124
 3961              	.L194:
 3962 005e 2046     		mov	r0, r4
 3963 0060 03B0     		add	sp, sp, #12
 3964              		@ sp needed
 3965 0062 BDE8F083 		pop	{r4, r5, r6, r7, r8, r9, pc}
ARM GAS  /tmp/ccwGYw5D.s 			page 69


 3966              	.L199:
 3967 0066 6FF07C04 		mvn	r4, #124
 3968 006a F2E7     		b	.L196
 3970              		.section	.text.sp_ecc_mulmod_add_256,"ax",%progbits
 3971              		.align	1
 3972              		.global	sp_ecc_mulmod_add_256
 3973              		.syntax unified
 3974              		.thumb
 3975              		.thumb_func
 3976              		.fpu fpv4-sp-d16
 3978              	sp_ecc_mulmod_add_256:
 3979              		@ args = 12, pretend = 0, frame = 0
 3980              		@ frame_needed = 0, uses_anonymous_args = 0
 3981 0000 2DE9F74F 		push	{r0, r1, r2, r4, r5, r6, r7, r8, r9, r10, fp, lr}
 3982 0004 8346     		mov	fp, r0
 3983 0006 4FF4C470 		mov	r0, #392
 3984 000a 8A46     		mov	r10, r1
 3985 000c 9146     		mov	r9, r2
 3986 000e 1C46     		mov	r4, r3
 3987 0010 0D9D     		ldr	r5, [sp, #52]
 3988 0012 FFF7FEFF 		bl	wolfSSL_Malloc
 3989 0016 0646     		mov	r6, r0
 3990 0018 0028     		cmp	r0, #0
 3991 001a 50D0     		beq	.L208
 3992 001c 4FF4D070 		mov	r0, #416
 3993 0020 FFF7FEFF 		bl	wolfSSL_Malloc
 3994 0024 0746     		mov	r7, r0
 3995 0026 0028     		cmp	r0, #0
 3996 0028 4FD0     		beq	.L209
 3997 002a 5946     		mov	r1, fp
 3998 002c FFF7FEFF 		bl	sp_256_from_mp.constprop.0
 3999 0030 06F1C408 		add	r8, r6, #196
 4000 0034 5146     		mov	r1, r10
 4001 0036 3046     		mov	r0, r6
 4002 0038 FFF7FEFF 		bl	sp_256_point_from_ecc_point_8
 4003 003c 4946     		mov	r1, r9
 4004 003e 4046     		mov	r0, r8
 4005 0040 FFF7FEFF 		bl	sp_256_point_from_ecc_point_8
 4006 0044 7CB1     		cbz	r4, .L203
 4007              	.L206:
 4008 0046 0023     		movs	r3, #0
 4009 0048 3A46     		mov	r2, r7
 4010 004a 3146     		mov	r1, r6
 4011 004c 3046     		mov	r0, r6
 4012 004e 0093     		str	r3, [sp]
 4013 0050 FFF7FEFF 		bl	sp_256_ecc_mulmod_fast_8.constprop.0
 4014 0054 0446     		mov	r4, r0
 4015 0056 F0B1     		cbz	r0, .L204
 4016              	.L205:
 4017 0058 3846     		mov	r0, r7
 4018 005a FFF7FEFF 		bl	wolfSSL_Free
 4019              	.L202:
 4020 005e 3046     		mov	r0, r6
 4021 0060 FFF7FEFF 		bl	wolfSSL_Free
 4022 0064 2DE0     		b	.L200
 4023              	.L203:
 4024 0066 4146     		mov	r1, r8
ARM GAS  /tmp/ccwGYw5D.s 			page 70


 4025 0068 4046     		mov	r0, r8
 4026 006a FFF7FEFF 		bl	sp_256_mod_mul_norm_8.constprop.0
 4027 006e 0446     		mov	r4, r0
 4028 0070 0028     		cmp	r0, #0
 4029 0072 F1D1     		bne	.L205
 4030 0074 06F58271 		add	r1, r6, #260
 4031 0078 0846     		mov	r0, r1
 4032 007a FFF7FEFF 		bl	sp_256_mod_mul_norm_8.constprop.0
 4033 007e 0446     		mov	r4, r0
 4034 0080 0028     		cmp	r0, #0
 4035 0082 E9D1     		bne	.L205
 4036 0084 06F5A271 		add	r1, r6, #324
 4037 0088 0846     		mov	r0, r1
 4038 008a FFF7FEFF 		bl	sp_256_mod_mul_norm_8.constprop.0
 4039 008e 0446     		mov	r4, r0
 4040 0090 0028     		cmp	r0, #0
 4041 0092 D8D0     		beq	.L206
 4042 0094 E0E7     		b	.L205
 4043              	.L204:
 4044 0096 07F12004 		add	r4, r7, #32
 4045 009a 2346     		mov	r3, r4
 4046 009c 4246     		mov	r2, r8
 4047 009e 3146     		mov	r1, r6
 4048 00a0 3046     		mov	r0, r6
 4049 00a2 FFF7FEFF 		bl	sp_256_proj_point_add_8
 4050 00a6 25B1     		cbz	r5, .L207
 4051 00a8 2246     		mov	r2, r4
 4052 00aa 3146     		mov	r1, r6
 4053 00ac 3046     		mov	r0, r6
 4054 00ae FFF7FEFF 		bl	sp_256_map_8
 4055              	.L207:
 4056 00b2 3046     		mov	r0, r6
 4057 00b4 0C99     		ldr	r1, [sp, #48]
 4058 00b6 FFF7FEFF 		bl	sp_256_point_to_ecc_point_8
 4059 00ba 0446     		mov	r4, r0
 4060 00bc CCE7     		b	.L205
 4061              	.L208:
 4062 00be 6FF07C04 		mvn	r4, #124
 4063              	.L200:
 4064 00c2 2046     		mov	r0, r4
 4065 00c4 03B0     		add	sp, sp, #12
 4066              		@ sp needed
 4067 00c6 BDE8F08F 		pop	{r4, r5, r6, r7, r8, r9, r10, fp, pc}
 4068              	.L209:
 4069 00ca 6FF07C04 		mvn	r4, #124
 4070 00ce C6E7     		b	.L202
 4072              		.section	.text.sp_ecc_mulmod_base_256,"ax",%progbits
 4073              		.align	1
 4074              		.global	sp_ecc_mulmod_base_256
 4075              		.syntax unified
 4076              		.thumb
 4077              		.thumb_func
 4078              		.fpu fpv4-sp-d16
 4080              	sp_ecc_mulmod_base_256:
 4081              		@ args = 0, pretend = 0, frame = 0
 4082              		@ frame_needed = 0, uses_anonymous_args = 0
 4083 0000 2DE9F041 		push	{r4, r5, r6, r7, r8, lr}
ARM GAS  /tmp/ccwGYw5D.s 			page 71


 4084 0004 8046     		mov	r8, r0
 4085 0006 C420     		movs	r0, #196
 4086 0008 0F46     		mov	r7, r1
 4087 000a 1446     		mov	r4, r2
 4088 000c FFF7FEFF 		bl	wolfSSL_Malloc
 4089 0010 0546     		mov	r5, r0
 4090 0012 D8B1     		cbz	r0, .L220
 4091 0014 2020     		movs	r0, #32
 4092 0016 FFF7FEFF 		bl	wolfSSL_Malloc
 4093 001a 0646     		mov	r6, r0
 4094 001c D8B1     		cbz	r0, .L221
 4095 001e 4146     		mov	r1, r8
 4096 0020 FFF7FEFF 		bl	sp_256_from_mp.constprop.0
 4097 0024 2246     		mov	r2, r4
 4098 0026 0123     		movs	r3, #1
 4099 0028 3146     		mov	r1, r6
 4100 002a 2846     		mov	r0, r5
 4101 002c FFF7FEFF 		bl	sp_256_ecc_mulmod_stripe_8.constprop.0
 4102 0030 0446     		mov	r4, r0
 4103 0032 20B9     		cbnz	r0, .L219
 4104 0034 3946     		mov	r1, r7
 4105 0036 2846     		mov	r0, r5
 4106 0038 FFF7FEFF 		bl	sp_256_point_to_ecc_point_8
 4107 003c 0446     		mov	r4, r0
 4108              	.L219:
 4109 003e 3046     		mov	r0, r6
 4110 0040 FFF7FEFF 		bl	wolfSSL_Free
 4111              	.L218:
 4112 0044 2846     		mov	r0, r5
 4113 0046 FFF7FEFF 		bl	wolfSSL_Free
 4114 004a 01E0     		b	.L216
 4115              	.L220:
 4116 004c 6FF07C04 		mvn	r4, #124
 4117              	.L216:
 4118 0050 2046     		mov	r0, r4
 4119 0052 BDE8F081 		pop	{r4, r5, r6, r7, r8, pc}
 4120              	.L221:
 4121 0056 6FF07C04 		mvn	r4, #124
 4122 005a F3E7     		b	.L218
 4124              		.section	.text.sp_ecc_mulmod_base_add_256,"ax",%progbits
 4125              		.align	1
 4126              		.global	sp_ecc_mulmod_base_add_256
 4127              		.syntax unified
 4128              		.thumb
 4129              		.thumb_func
 4130              		.fpu fpv4-sp-d16
 4132              	sp_ecc_mulmod_base_add_256:
 4133              		@ args = 8, pretend = 0, frame = 0
 4134              		@ frame_needed = 0, uses_anonymous_args = 0
 4135 0000 2DE9F84F 		push	{r3, r4, r5, r6, r7, r8, r9, r10, fp, lr}
 4136 0004 8346     		mov	fp, r0
 4137 0006 4FF4C470 		mov	r0, #392
 4138 000a 8A46     		mov	r10, r1
 4139 000c 1446     		mov	r4, r2
 4140 000e 9946     		mov	r9, r3
 4141 0010 0A9D     		ldr	r5, [sp, #40]
 4142 0012 FFF7FEFF 		bl	wolfSSL_Malloc
ARM GAS  /tmp/ccwGYw5D.s 			page 72


 4143 0016 0646     		mov	r6, r0
 4144 0018 0028     		cmp	r0, #0
 4145 001a 4BD0     		beq	.L230
 4146 001c 4FF4D070 		mov	r0, #416
 4147 0020 FFF7FEFF 		bl	wolfSSL_Malloc
 4148 0024 0746     		mov	r7, r0
 4149 0026 0028     		cmp	r0, #0
 4150 0028 49D0     		beq	.L231
 4151 002a 5946     		mov	r1, fp
 4152 002c 06F1C408 		add	r8, r6, #196
 4153 0030 FFF7FEFF 		bl	sp_256_from_mp.constprop.0
 4154 0034 5146     		mov	r1, r10
 4155 0036 4046     		mov	r0, r8
 4156 0038 FFF7FEFF 		bl	sp_256_point_from_ecc_point_8
 4157 003c 74B1     		cbz	r4, .L225
 4158              	.L228:
 4159 003e 0023     		movs	r3, #0
 4160 0040 3946     		mov	r1, r7
 4161 0042 1A46     		mov	r2, r3
 4162 0044 3046     		mov	r0, r6
 4163 0046 FFF7FEFF 		bl	sp_256_ecc_mulmod_stripe_8.constprop.0
 4164 004a 0446     		mov	r4, r0
 4165 004c F0B1     		cbz	r0, .L226
 4166              	.L227:
 4167 004e 3846     		mov	r0, r7
 4168 0050 FFF7FEFF 		bl	wolfSSL_Free
 4169              	.L224:
 4170 0054 3046     		mov	r0, r6
 4171 0056 FFF7FEFF 		bl	wolfSSL_Free
 4172 005a 2DE0     		b	.L222
 4173              	.L225:
 4174 005c 4146     		mov	r1, r8
 4175 005e 4046     		mov	r0, r8
 4176 0060 FFF7FEFF 		bl	sp_256_mod_mul_norm_8.constprop.0
 4177 0064 0446     		mov	r4, r0
 4178 0066 0028     		cmp	r0, #0
 4179 0068 F1D1     		bne	.L227
 4180 006a 06F58271 		add	r1, r6, #260
 4181 006e 0846     		mov	r0, r1
 4182 0070 FFF7FEFF 		bl	sp_256_mod_mul_norm_8.constprop.0
 4183 0074 0446     		mov	r4, r0
 4184 0076 0028     		cmp	r0, #0
 4185 0078 E9D1     		bne	.L227
 4186 007a 06F5A271 		add	r1, r6, #324
 4187 007e 0846     		mov	r0, r1
 4188 0080 FFF7FEFF 		bl	sp_256_mod_mul_norm_8.constprop.0
 4189 0084 0446     		mov	r4, r0
 4190 0086 0028     		cmp	r0, #0
 4191 0088 D9D0     		beq	.L228
 4192 008a E0E7     		b	.L227
 4193              	.L226:
 4194 008c 07F12004 		add	r4, r7, #32
 4195 0090 2346     		mov	r3, r4
 4196 0092 4246     		mov	r2, r8
 4197 0094 3146     		mov	r1, r6
 4198 0096 3046     		mov	r0, r6
 4199 0098 FFF7FEFF 		bl	sp_256_proj_point_add_8
ARM GAS  /tmp/ccwGYw5D.s 			page 73


 4200 009c 25B1     		cbz	r5, .L229
 4201 009e 2246     		mov	r2, r4
 4202 00a0 3146     		mov	r1, r6
 4203 00a2 3046     		mov	r0, r6
 4204 00a4 FFF7FEFF 		bl	sp_256_map_8
 4205              	.L229:
 4206 00a8 4946     		mov	r1, r9
 4207 00aa 3046     		mov	r0, r6
 4208 00ac FFF7FEFF 		bl	sp_256_point_to_ecc_point_8
 4209 00b0 0446     		mov	r4, r0
 4210 00b2 CCE7     		b	.L227
 4211              	.L230:
 4212 00b4 6FF07C04 		mvn	r4, #124
 4213              	.L222:
 4214 00b8 2046     		mov	r0, r4
 4215 00ba BDE8F88F 		pop	{r3, r4, r5, r6, r7, r8, r9, r10, fp, pc}
 4216              	.L231:
 4217 00be 6FF07C04 		mvn	r4, #124
 4218 00c2 C7E7     		b	.L224
 4220              		.section	.text.sp_ecc_make_key_256,"ax",%progbits
 4221              		.align	1
 4222              		.global	sp_ecc_make_key_256
 4223              		.syntax unified
 4224              		.thumb
 4225              		.thumb_func
 4226              		.fpu fpv4-sp-d16
 4228              	sp_ecc_make_key_256:
 4229              		@ args = 0, pretend = 0, frame = 0
 4230              		@ frame_needed = 0, uses_anonymous_args = 0
 4231 0000 2DE9F041 		push	{r4, r5, r6, r7, r8, lr}
 4232 0004 0446     		mov	r4, r0
 4233 0006 C420     		movs	r0, #196
 4234 0008 8846     		mov	r8, r1
 4235 000a 1746     		mov	r7, r2
 4236 000c FFF7FEFF 		bl	wolfSSL_Malloc
 4237 0010 0646     		mov	r6, r0
 4238 0012 20B3     		cbz	r0, .L242
 4239 0014 2020     		movs	r0, #32
 4240 0016 FFF7FEFF 		bl	wolfSSL_Malloc
 4241 001a 0546     		mov	r5, r0
 4242 001c 20B3     		cbz	r0, .L243
 4243 001e 0146     		mov	r1, r0
 4244 0020 2046     		mov	r0, r4
 4245 0022 FFF7FEFF 		bl	sp_256_ecc_gen_k_8
 4246 0026 0446     		mov	r4, r0
 4247 0028 90B9     		cbnz	r0, .L241
 4248 002a 0123     		movs	r3, #1
 4249 002c 2946     		mov	r1, r5
 4250 002e 1A46     		mov	r2, r3
 4251 0030 3046     		mov	r0, r6
 4252 0032 FFF7FEFF 		bl	sp_256_ecc_mulmod_stripe_8.constprop.0
 4253 0036 0446     		mov	r4, r0
 4254 0038 50B9     		cbnz	r0, .L241
 4255 003a 4146     		mov	r1, r8
 4256 003c 2846     		mov	r0, r5
 4257 003e FFF7FEFF 		bl	sp_256_to_mp
 4258 0042 0446     		mov	r4, r0
ARM GAS  /tmp/ccwGYw5D.s 			page 74


 4259 0044 20B9     		cbnz	r0, .L241
 4260 0046 3946     		mov	r1, r7
 4261 0048 3046     		mov	r0, r6
 4262 004a FFF7FEFF 		bl	sp_256_point_to_ecc_point_8
 4263 004e 0446     		mov	r4, r0
 4264              	.L241:
 4265 0050 2846     		mov	r0, r5
 4266 0052 FFF7FEFF 		bl	wolfSSL_Free
 4267              	.L240:
 4268 0056 3046     		mov	r0, r6
 4269 0058 FFF7FEFF 		bl	wolfSSL_Free
 4270 005c 01E0     		b	.L238
 4271              	.L242:
 4272 005e 6FF07C04 		mvn	r4, #124
 4273              	.L238:
 4274 0062 2046     		mov	r0, r4
 4275 0064 BDE8F081 		pop	{r4, r5, r6, r7, r8, pc}
 4276              	.L243:
 4277 0068 6FF07C04 		mvn	r4, #124
 4278 006c F3E7     		b	.L240
 4280              		.section	.text.sp_ecc_secret_gen_256,"ax",%progbits
 4281              		.align	1
 4282              		.global	sp_ecc_secret_gen_256
 4283              		.syntax unified
 4284              		.thumb
 4285              		.thumb_func
 4286              		.fpu fpv4-sp-d16
 4288              	sp_ecc_secret_gen_256:
 4289              		@ args = 4, pretend = 0, frame = 0
 4290              		@ frame_needed = 0, uses_anonymous_args = 0
 4291 0000 2DE9F743 		push	{r0, r1, r2, r4, r5, r6, r7, r8, r9, lr}
 4292 0004 9946     		mov	r9, r3
 4293 0006 1B68     		ldr	r3, [r3]
 4294 0008 0546     		mov	r5, r0
 4295 000a 1F2B     		cmp	r3, #31
 4296 000c 0C46     		mov	r4, r1
 4297 000e 1646     		mov	r6, r2
 4298 0010 12D9     		bls	.L251
 4299 0012 C420     		movs	r0, #196
 4300 0014 FFF7FEFF 		bl	wolfSSL_Malloc
 4301 0018 0746     		mov	r7, r0
 4302 001a 80B1     		cbz	r0, .L252
 4303 001c 2020     		movs	r0, #32
 4304 001e FFF7FEFF 		bl	wolfSSL_Malloc
 4305 0022 8046     		mov	r8, r0
 4306 0024 70B9     		cbnz	r0, .L255
 4307 0026 6FF07C04 		mvn	r4, #124
 4308              	.L246:
 4309 002a 3846     		mov	r0, r7
 4310 002c FFF7FEFF 		bl	wolfSSL_Free
 4311              	.L244:
 4312 0030 2046     		mov	r0, r4
 4313 0032 03B0     		add	sp, sp, #12
 4314              		@ sp needed
 4315 0034 BDE8F083 		pop	{r4, r5, r6, r7, r8, r9, pc}
 4316              	.L251:
 4317 0038 6FF08304 		mvn	r4, #131
ARM GAS  /tmp/ccwGYw5D.s 			page 75


 4318 003c F8E7     		b	.L244
 4319              	.L252:
 4320 003e 6FF07C04 		mvn	r4, #124
 4321 0042 F5E7     		b	.L244
 4322              	.L255:
 4323 0044 2946     		mov	r1, r5
 4324 0046 FFF7FEFF 		bl	sp_256_from_mp.constprop.0
 4325 004a 2146     		mov	r1, r4
 4326 004c 3846     		mov	r0, r7
 4327 004e FFF7FEFF 		bl	sp_256_point_from_ecc_point_8
 4328 0052 0123     		movs	r3, #1
 4329 0054 4246     		mov	r2, r8
 4330 0056 3946     		mov	r1, r7
 4331 0058 3846     		mov	r0, r7
 4332 005a 0093     		str	r3, [sp]
 4333 005c FFF7FEFF 		bl	sp_256_ecc_mulmod_fast_8.constprop.0
 4334 0060 0446     		mov	r4, r0
 4335 0062 B8B9     		cbnz	r0, .L249
 4336 0064 07F12005 		add	r5, r7, #32
 4337              	.L248:
 4338 0068 55F8043D 		ldr	r3, [r5, #-4]!
 4339 006c 0436     		adds	r6, r6, #4
 4340 006e 1B0E     		lsrs	r3, r3, #24
 4341 0070 06F8043C 		strb	r3, [r6, #-4]
 4342 0074 6B88     		ldrh	r3, [r5, #2]
 4343 0076 AF42     		cmp	r7, r5
 4344 0078 06F8033C 		strb	r3, [r6, #-3]
 4345 007c 2B68     		ldr	r3, [r5]
 4346 007e 4FEA1323 		lsr	r3, r3, #8
 4347 0082 06F8023C 		strb	r3, [r6, #-2]
 4348 0086 2B68     		ldr	r3, [r5]
 4349 0088 06F8013C 		strb	r3, [r6, #-1]
 4350 008c ECD1     		bne	.L248
 4351 008e 2023     		movs	r3, #32
 4352 0090 C9F80030 		str	r3, [r9]
 4353              	.L249:
 4354 0094 4046     		mov	r0, r8
 4355 0096 FFF7FEFF 		bl	wolfSSL_Free
 4356 009a C6E7     		b	.L246
 4358              		.section	.text.sp_ecc_sign_256,"ax",%progbits
 4359              		.align	1
 4360              		.global	sp_ecc_sign_256
 4361              		.syntax unified
 4362              		.thumb
 4363              		.thumb_func
 4364              		.fpu fpv4-sp-d16
 4366              	sp_ecc_sign_256:
 4367              		@ args = 16, pretend = 0, frame = 16
 4368              		@ frame_needed = 0, uses_anonymous_args = 0
 4369 0000 2DE9F04F 		push	{r4, r5, r6, r7, r8, r9, r10, fp, lr}
 4370 0004 2DED068B 		vpush.64	{d8, d9, d10}
 4371 0008 09EE100A 		vmov	s18, r0	@ int
 4372 000c 85B0     		sub	sp, sp, #20
 4373 000e 4FF4E070 		mov	r0, #448
 4374 0012 09EE902A 		vmov	s19, r2	@ int
 4375 0016 0AEE103A 		vmov	s20, r3	@ int
 4376 001a 0391     		str	r1, [sp, #12]
ARM GAS  /tmp/ccwGYw5D.s 			page 76


 4377 001c FFF7FEFF 		bl	wolfSSL_Malloc
 4378 0020 0546     		mov	r5, r0
 4379 0022 0028     		cmp	r0, #0
 4380 0024 3BD0     		beq	.L281
 4381 0026 C420     		movs	r0, #196
 4382 0028 FFF7FEFF 		bl	wolfSSL_Malloc
 4383 002c 0190     		str	r0, [sp, #4]
 4384 002e 0028     		cmp	r0, #0
 4385 0030 40D0     		beq	.L282
 4386 0032 05F14003 		add	r3, r5, #64
 4387 0036 08EE903A 		vmov	s17, r3	@ int
 4388 003a 05F1C003 		add	r3, r5, #192
 4389 003e 08EE103A 		vmov	s16, r3	@ int
 4390 0042 039B     		ldr	r3, [sp, #12]
 4391 0044 A846     		mov	r8, r5
 4392 0046 202B     		cmp	r3, #32
 4393 0048 28BF     		it	cs
 4394 004a 2023     		movcs	r3, #32
 4395 004c 4FF00009 		mov	r9, #0
 4396 0050 05F18007 		add	r7, r5, #128
 4397 0054 05F58076 		add	r6, r5, #256
 4398 0058 0393     		str	r3, [sp, #12]
 4399              	.L257:
 4400 005a 4023     		movs	r3, #64
 4401              	.L316:
 4402 005c 0293     		str	r3, [sp, #8]
 4403 005e 029B     		ldr	r3, [sp, #8]
 4404 0060 B9F1000F 		cmp	r9, #0
 4405 0064 40F0AC81 		bne	.L275
 4406 0068 6BBB     		cbnz	r3, .L276
 4407 006a 6FF0C609 		mvn	r9, #198
 4408              	.L277:
 4409 006e 019B     		ldr	r3, [sp, #4]
 4410 0070 33B1     		cbz	r3, .L278
 4411 0072 1846     		mov	r0, r3
 4412 0074 C421     		movs	r1, #196
 4413 0076 FFF7FEFF 		bl	ForceZero
 4414 007a 0198     		ldr	r0, [sp, #4]
 4415 007c FFF7FEFF 		bl	wolfSSL_Free
 4416              	.L278:
 4417 0080 3DB1     		cbz	r5, .L256
 4418 0082 2846     		mov	r0, r5
 4419 0084 4FF4E071 		mov	r1, #448
 4420 0088 FFF7FEFF 		bl	ForceZero
 4421 008c 2846     		mov	r0, r5
 4422 008e FFF7FEFF 		bl	wolfSSL_Free
 4423              	.L256:
 4424 0092 4846     		mov	r0, r9
 4425 0094 05B0     		add	sp, sp, #20
 4426              		@ sp needed
 4427 0096 BDEC068B 		vldm	sp!, {d8-d10}
 4428 009a BDE8F08F 		pop	{r4, r5, r6, r7, r8, r9, r10, fp, pc}
 4429              	.L281:
 4430 009e 8046     		mov	r8, r0
 4431 00a0 0646     		mov	r6, r0
 4432 00a2 08EE100A 		vmov	s16, r0	@ int
 4433 00a6 0746     		mov	r7, r0
ARM GAS  /tmp/ccwGYw5D.s 			page 77


 4434 00a8 08EE900A 		vmov	s17, r0	@ int
 4435 00ac 0190     		str	r0, [sp, #4]
 4436              	.L315:
 4437 00ae 6FF07C09 		mvn	r9, #124
 4438 00b2 D2E7     		b	.L257
 4439              	.L282:
 4440 00b4 DDF80480 		ldr	r8, [sp, #4]
 4441 00b8 4646     		mov	r6, r8
 4442 00ba 08EE108A 		vmov	s16, r8	@ int
 4443 00be 4746     		mov	r7, r8
 4444 00c0 08EE908A 		vmov	s17, r8	@ int
 4445 00c4 F3E7     		b	.L315
 4446              	.L276:
 4447 00c6 169B     		ldr	r3, [sp, #88]
 4448 00c8 1BB1     		cbz	r3, .L259
 4449 00ca 1B88     		ldrh	r3, [r3]
 4450 00cc 002B     		cmp	r3, #0
 4451 00ce 40F06B81 		bne	.L260
 4452              	.L259:
 4453 00d2 3946     		mov	r1, r7
 4454 00d4 19EE900A 		vmov	r0, s19	@ int
 4455 00d8 FFF7FEFF 		bl	sp_256_ecc_gen_k_8
 4456 00dc 8146     		mov	r9, r0
 4457 00de 0028     		cmp	r0, #0
 4458 00e0 40F06B81 		bne	.L262
 4459              	.L261:
 4460 00e4 0123     		movs	r3, #1
 4461 00e6 3946     		mov	r1, r7
 4462 00e8 1A46     		mov	r2, r3
 4463 00ea 0198     		ldr	r0, [sp, #4]
 4464 00ec FFF7FEFF 		bl	sp_256_ecc_mulmod_stripe_8.constprop.0
 4465 00f0 8146     		mov	r9, r0
 4466 00f2 0028     		cmp	r0, #0
 4467 00f4 40F06181 		bne	.L262
 4468 00f8 019B     		ldr	r3, [sp, #4]
 4469 00fa 18EE102A 		vmov	r2, s16	@ int
 4470 00fe 1946     		mov	r1, r3
 4471 0100 2031     		adds	r1, r1, #32
 4472              	.L263:
 4473 0102 53F8040B 		ldr	r0, [r3], #4	@ unaligned
 4474 0106 8B42     		cmp	r3, r1
 4475 0108 42F8040B 		str	r0, [r2], #4	@ unaligned
 4476 010c F9D1     		bne	.L263
 4477 010e AF49     		ldr	r1, .L317
 4478 0110 18EE100A 		vmov	r0, s16	@ int
 4479 0114 FFF7FEFF 		bl	sp_256_cmp_8
 4480 0118 C043     		mvns	r0, r0
 4481 011a C00F     		lsrs	r0, r0, #31
 4482 011c 4342     		rsbs	r3, r0, #0
 4483 011e 18EE101A 		vmov	r1, s16	@ int
 4484 0122 18EE100A 		vmov	r0, s16	@ int
 4485 0126 A94A     		ldr	r2, .L317
 4486 0128 FFF7FEFF 		bl	sp_256_cond_sub_8.isra.0
 4487 012c 18EE100A 		vmov	r0, s16	@ int
 4488 0130 FFF7FEFF 		bl	sp_256_iszero_8
 4489 0134 0028     		cmp	r0, #0
 4490 0136 40F04081 		bne	.L262
ARM GAS  /tmp/ccwGYw5D.s 			page 78


 4491 013a 1AEE101A 		vmov	r1, s20	@ int
 4492 013e 18EE900A 		vmov	r0, s17	@ int
 4493 0142 FFF7FEFF 		bl	sp_256_from_mp.constprop.0
 4494 0146 19EE101A 		vmov	r1, s18	@ int
 4495 014a 2846     		mov	r0, r5
 4496 014c 039A     		ldr	r2, [sp, #12]
 4497 014e FFF7FEFF 		bl	sp_256_from_bin.constprop.0
 4498 0152 3946     		mov	r1, r7
 4499 0154 3846     		mov	r0, r7
 4500 0156 9E4A     		ldr	r2, .L317+4
 4501 0158 FFF7FEFF 		bl	sp_256_mul_8
 4502 015c 3946     		mov	r1, r7
 4503 015e 3846     		mov	r0, r7
 4504 0160 9A4A     		ldr	r2, .L317
 4505 0162 FFF7FEFF 		bl	sp_256_mod_8
 4506 0166 0028     		cmp	r0, #0
 4507 0168 40F02681 		bne	.L284
 4508 016c 3946     		mov	r1, r7
 4509 016e 3046     		mov	r0, r6
 4510 0170 06F14004 		add	r4, r6, #64
 4511 0174 FFF7FEFF 		bl	sp_256_mont_sqr_order_8
 4512 0178 3A46     		mov	r2, r7
 4513 017a 3146     		mov	r1, r6
 4514 017c 3046     		mov	r0, r6
 4515 017e FFF7FEFF 		bl	sp_256_mont_mul_order_8
 4516 0182 06F1800A 		add	r10, r6, #128
 4517 0186 0222     		movs	r2, #2
 4518 0188 3146     		mov	r1, r6
 4519 018a 2046     		mov	r0, r4
 4520 018c FFF7FEFF 		bl	sp_256_mont_sqr_n_order_8
 4521 0190 3246     		mov	r2, r6
 4522 0192 2146     		mov	r1, r4
 4523 0194 5046     		mov	r0, r10
 4524 0196 FFF7FEFF 		bl	sp_256_mont_mul_order_8
 4525 019a 0422     		movs	r2, #4
 4526 019c 5146     		mov	r1, r10
 4527 019e 2046     		mov	r0, r4
 4528 01a0 FFF7FEFF 		bl	sp_256_mont_sqr_n_order_8
 4529 01a4 5246     		mov	r2, r10
 4530 01a6 2146     		mov	r1, r4
 4531 01a8 3046     		mov	r0, r6
 4532 01aa FFF7FEFF 		bl	sp_256_mont_mul_order_8
 4533 01ae 0822     		movs	r2, #8
 4534 01b0 3146     		mov	r1, r6
 4535 01b2 2046     		mov	r0, r4
 4536 01b4 FFF7FEFF 		bl	sp_256_mont_sqr_n_order_8
 4537 01b8 3246     		mov	r2, r6
 4538 01ba 2146     		mov	r1, r4
 4539 01bc 3046     		mov	r0, r6
 4540 01be FFF7FEFF 		bl	sp_256_mont_mul_order_8
 4541 01c2 1022     		movs	r2, #16
 4542 01c4 3146     		mov	r1, r6
 4543 01c6 2046     		mov	r0, r4
 4544 01c8 FFF7FEFF 		bl	sp_256_mont_sqr_n_order_8
 4545 01cc 3246     		mov	r2, r6
 4546 01ce 2146     		mov	r1, r4
 4547 01d0 3046     		mov	r0, r6
ARM GAS  /tmp/ccwGYw5D.s 			page 79


 4548 01d2 FFF7FEFF 		bl	sp_256_mont_mul_order_8
 4549 01d6 4022     		movs	r2, #64
 4550 01d8 3146     		mov	r1, r6
 4551 01da 2046     		mov	r0, r4
 4552 01dc FFF7FEFF 		bl	sp_256_mont_sqr_n_order_8
 4553 01e0 3246     		mov	r2, r6
 4554 01e2 2146     		mov	r1, r4
 4555 01e4 2046     		mov	r0, r4
 4556 01e6 FFF7FEFF 		bl	sp_256_mont_mul_order_8
 4557 01ea 2022     		movs	r2, #32
 4558 01ec 2146     		mov	r1, r4
 4559 01ee 2046     		mov	r0, r4
 4560 01f0 FFF7FEFF 		bl	sp_256_mont_sqr_n_order_8
 4561 01f4 3246     		mov	r2, r6
 4562 01f6 2146     		mov	r1, r4
 4563 01f8 2046     		mov	r0, r4
 4564 01fa FFF7FEFF 		bl	sp_256_mont_mul_order_8
 4565 01fe 2146     		mov	r1, r4
 4566 0200 2046     		mov	r0, r4
 4567 0202 FFF7FEFF 		bl	sp_256_mont_sqr_order_8
 4568 0206 3A46     		mov	r2, r7
 4569 0208 2146     		mov	r1, r4
 4570 020a 2046     		mov	r0, r4
 4571 020c FFF7FEFF 		bl	sp_256_mont_mul_order_8
 4572 0210 0522     		movs	r2, #5
 4573 0212 2146     		mov	r1, r4
 4574 0214 2046     		mov	r0, r4
 4575 0216 FFF7FEFF 		bl	sp_256_mont_sqr_n_order_8
 4576 021a 5246     		mov	r2, r10
 4577 021c 2146     		mov	r1, r4
 4578 021e 2046     		mov	r0, r4
 4579 0220 FFF7FEFF 		bl	sp_256_mont_mul_order_8
 4580 0224 4FF0190B 		mov	fp, #25
 4581              	.L266:
 4582 0228 2046     		mov	r0, r4
 4583 022a 2146     		mov	r1, r4
 4584 022c FFF7FEFF 		bl	sp_256_mont_sqr_order_8
 4585 0230 684B     		ldr	r3, .L317+8
 4586 0232 23FA0BF3 		lsr	r3, r3, fp
 4587 0236 D807     		lsls	r0, r3, #31
 4588 0238 04D5     		bpl	.L265
 4589 023a 3A46     		mov	r2, r7
 4590 023c 2146     		mov	r1, r4
 4591 023e 2046     		mov	r0, r4
 4592 0240 FFF7FEFF 		bl	sp_256_mont_mul_order_8
 4593              	.L265:
 4594 0244 0BF1FF3B 		add	fp, fp, #-1
 4595 0248 BBF10F0F 		cmp	fp, #15
 4596 024c ECD1     		bne	.L266
 4597 024e 0422     		movs	r2, #4
 4598 0250 2146     		mov	r1, r4
 4599 0252 2046     		mov	r0, r4
 4600 0254 FFF7FEFF 		bl	sp_256_mont_sqr_n_order_8
 4601 0258 5246     		mov	r2, r10
 4602 025a 2146     		mov	r1, r4
 4603 025c 2046     		mov	r0, r4
 4604 025e FFF7FEFF 		bl	sp_256_mont_mul_order_8
ARM GAS  /tmp/ccwGYw5D.s 			page 80


 4605 0262 4FF06B0B 		mov	fp, #107
 4606              	.L268:
 4607 0266 2146     		mov	r1, r4
 4608 0268 2046     		mov	r0, r4
 4609 026a FFF7FEFF 		bl	sp_256_mont_sqr_order_8
 4610 026e 5A4B     		ldr	r3, .L317+12
 4611 0270 4FEA6B11 		asr	r1, fp, #5
 4612 0274 53F82110 		ldr	r1, [r3, r1, lsl #2]
 4613 0278 0BF01F02 		and	r2, fp, #31
 4614 027c 21FA02F2 		lsr	r2, r1, r2
 4615 0280 D107     		lsls	r1, r2, #31
 4616 0282 04D5     		bpl	.L267
 4617 0284 3A46     		mov	r2, r7
 4618 0286 2146     		mov	r1, r4
 4619 0288 2046     		mov	r0, r4
 4620 028a FFF7FEFF 		bl	sp_256_mont_mul_order_8
 4621              	.L267:
 4622 028e 0BF1FF3B 		add	fp, fp, #-1
 4623 0292 BBF13F0F 		cmp	fp, #63
 4624 0296 E6D1     		bne	.L268
 4625 0298 0422     		movs	r2, #4
 4626 029a 2146     		mov	r1, r4
 4627 029c 2046     		mov	r0, r4
 4628 029e FFF7FEFF 		bl	sp_256_mont_sqr_n_order_8
 4629 02a2 5246     		mov	r2, r10
 4630 02a4 2146     		mov	r1, r4
 4631 02a6 2046     		mov	r0, r4
 4632 02a8 FFF7FEFF 		bl	sp_256_mont_mul_order_8
 4633 02ac 4FF03B0B 		mov	fp, #59
 4634              	.L270:
 4635 02b0 2146     		mov	r1, r4
 4636 02b2 2046     		mov	r0, r4
 4637 02b4 FFF7FEFF 		bl	sp_256_mont_sqr_order_8
 4638 02b8 484A     		ldr	r2, .L317+16
 4639 02ba 0BF01F03 		and	r3, fp, #31
 4640 02be 22FA03F3 		lsr	r3, r2, r3
 4641 02c2 DA07     		lsls	r2, r3, #31
 4642 02c4 04D5     		bpl	.L269
 4643 02c6 3A46     		mov	r2, r7
 4644 02c8 2146     		mov	r1, r4
 4645 02ca 2046     		mov	r0, r4
 4646 02cc FFF7FEFF 		bl	sp_256_mont_mul_order_8
 4647              	.L269:
 4648 02d0 0BF1FF3B 		add	fp, fp, #-1
 4649 02d4 BBF11F0F 		cmp	fp, #31
 4650 02d8 EAD1     		bne	.L270
 4651 02da 0422     		movs	r2, #4
 4652 02dc 2146     		mov	r1, r4
 4653 02de 2046     		mov	r0, r4
 4654 02e0 FFF7FEFF 		bl	sp_256_mont_sqr_n_order_8
 4655 02e4 5246     		mov	r2, r10
 4656 02e6 2146     		mov	r1, r4
 4657 02e8 2046     		mov	r0, r4
 4658 02ea FFF7FEFF 		bl	sp_256_mont_mul_order_8
 4659 02ee 4FF01B0B 		mov	fp, #27
 4660              	.L272:
 4661 02f2 2146     		mov	r1, r4
ARM GAS  /tmp/ccwGYw5D.s 			page 81


 4662 02f4 2046     		mov	r0, r4
 4663 02f6 FFF7FEFF 		bl	sp_256_mont_sqr_order_8
 4664 02fa 394B     		ldr	r3, .L317+20
 4665 02fc 23FA0BF3 		lsr	r3, r3, fp
 4666 0300 DB07     		lsls	r3, r3, #31
 4667 0302 04D5     		bpl	.L271
 4668 0304 3A46     		mov	r2, r7
 4669 0306 2146     		mov	r1, r4
 4670 0308 2046     		mov	r0, r4
 4671 030a FFF7FEFF 		bl	sp_256_mont_mul_order_8
 4672              	.L271:
 4673 030e BBF1010B 		subs	fp, fp, #1
 4674 0312 EED2     		bcs	.L272
 4675 0314 0422     		movs	r2, #4
 4676 0316 2146     		mov	r1, r4
 4677 0318 2046     		mov	r0, r4
 4678 031a FFF7FEFF 		bl	sp_256_mont_sqr_n_order_8
 4679 031e 5246     		mov	r2, r10
 4680 0320 2146     		mov	r1, r4
 4681 0322 3846     		mov	r0, r7
 4682 0324 FFF7FEFF 		bl	sp_256_mont_mul_order_8
 4683 0328 18EE102A 		vmov	r2, s16	@ int
 4684 032c 18EE901A 		vmov	r1, s17	@ int
 4685 0330 18EE900A 		vmov	r0, s17	@ int
 4686 0334 FFF7FEFF 		bl	sp_256_mul_8
 4687 0338 18EE901A 		vmov	r1, s17	@ int
 4688 033c 18EE900A 		vmov	r0, s17	@ int
 4689 0340 224A     		ldr	r2, .L317
 4690 0342 FFF7FEFF 		bl	sp_256_mod_8
 4691 0346 B8BB     		cbnz	r0, .L284
 4692 0348 18EE902A 		vmov	r2, s17	@ int
 4693 034c 2946     		mov	r1, r5
 4694 034e 4046     		mov	r0, r8
 4695 0350 FFF7FEFF 		bl	sp_256_add_8
 4696 0354 1D4A     		ldr	r2, .L317
 4697 0356 4342     		rsbs	r3, r0, #0
 4698 0358 4146     		mov	r1, r8
 4699 035a 4046     		mov	r0, r8
 4700 035c FFF7FEFF 		bl	sp_256_cond_sub_8.isra.0
 4701 0360 1A49     		ldr	r1, .L317
 4702 0362 4046     		mov	r0, r8
 4703 0364 FFF7FEFF 		bl	sp_256_cmp_8
 4704 0368 C043     		mvns	r0, r0
 4705 036a C00F     		lsrs	r0, r0, #31
 4706 036c 4342     		rsbs	r3, r0, #0
 4707 036e 4146     		mov	r1, r8
 4708 0370 4046     		mov	r0, r8
 4709 0372 164A     		ldr	r2, .L317
 4710 0374 FFF7FEFF 		bl	sp_256_cond_sub_8.isra.0
 4711 0378 4046     		mov	r0, r8
 4712 037a 3A46     		mov	r2, r7
 4713 037c 4146     		mov	r1, r8
 4714 037e FFF7FEFF 		bl	sp_256_mont_mul_order_8
 4715 0382 4046     		mov	r0, r8
 4716 0384 FFF7FEFF 		bl	sp_256_iszero_8
 4717 0388 B8B9     		cbnz	r0, .L262
 4718 038a 18EE100A 		vmov	r0, s16	@ int
ARM GAS  /tmp/ccwGYw5D.s 			page 82


 4719 038e 1499     		ldr	r1, [sp, #80]
 4720 0390 FFF7FEFF 		bl	sp_256_to_mp
 4721 0394 8146     		mov	r9, r0
 4722 0396 0028     		cmp	r0, #0
 4723 0398 7FF469AE 		bne	.L277
 4724 039c 4046     		mov	r0, r8
 4725 039e 1599     		ldr	r1, [sp, #84]
 4726 03a0 FFF7FEFF 		bl	sp_256_to_mp
 4727 03a4 8146     		mov	r9, r0
 4728 03a6 62E6     		b	.L277
 4729              	.L260:
 4730 03a8 3846     		mov	r0, r7
 4731 03aa 1699     		ldr	r1, [sp, #88]
 4732 03ac FFF7FEFF 		bl	sp_256_from_mp.constprop.0
 4733 03b0 1698     		ldr	r0, [sp, #88]
 4734 03b2 FFF7FEFF 		bl	sp_zero
 4735 03b6 95E6     		b	.L261
 4736              	.L284:
 4737 03b8 8146     		mov	r9, r0
 4738              	.L262:
 4739 03ba 029B     		ldr	r3, [sp, #8]
 4740 03bc 013B     		subs	r3, r3, #1
 4741 03be 4DE6     		b	.L316
 4742              	.L275:
 4743 03c0 002B     		cmp	r3, #0
 4744 03c2 08BF     		it	eq
 4745 03c4 6FF0C609 		mvneq	r9, #198
 4746 03c8 51E6     		b	.L277
 4747              	.L318:
 4748 03ca 00BF     		.align	2
 4749              	.L317:
 4750 03cc 00000000 		.word	.LANCHOR0
 4751 03d0 00000000 		.word	.LANCHOR5
 4752 03d4 ADFAE6BC 		.word	-1125713235
 4753 03d8 00000000 		.word	.LANCHOR6
 4754 03dc C2CAB9F3 		.word	-205927742
 4755 03e0 4F2563FC 		.word	-60611249
 4757              		.section	.text.sp_ecc_verify_256,"ax",%progbits
 4758              		.align	1
 4759              		.global	sp_ecc_verify_256
 4760              		.syntax unified
 4761              		.thumb
 4762              		.thumb_func
 4763              		.fpu fpv4-sp-d16
 4765              	sp_ecc_verify_256:
 4766              		@ args = 20, pretend = 0, frame = 128
 4767              		@ frame_needed = 0, uses_anonymous_args = 0
 4768 0000 2DE9F04F 		push	{r4, r5, r6, r7, r8, r9, r10, fp, lr}
 4769 0004 2DED028B 		vpush.64	{d8}
 4770 0008 8246     		mov	r10, r0
 4771 000a A3B0     		sub	sp, sp, #140
 4772 000c 4FF41070 		mov	r0, #576
 4773 0010 8B46     		mov	fp, r1
 4774 0012 9046     		mov	r8, r2
 4775 0014 1F46     		mov	r7, r3
 4776 0016 FFF7FEFF 		bl	wolfSSL_Malloc
 4777 001a 0546     		mov	r5, r0
ARM GAS  /tmp/ccwGYw5D.s 			page 83


 4778 001c 0028     		cmp	r0, #0
 4779 001e 00F0BA81 		beq	.L355
 4780 0022 4FF4C470 		mov	r0, #392
 4781 0026 FFF7FEFF 		bl	wolfSSL_Malloc
 4782 002a 0446     		mov	r4, r0
 4783 002c 0028     		cmp	r0, #0
 4784 002e 00F0BA81 		beq	.L356
 4785 0032 5A46     		mov	r2, fp
 4786 0034 202A     		cmp	r2, #32
 4787 0036 28BF     		it	cs
 4788 0038 2022     		movcs	r2, #32
 4789 003a 5146     		mov	r1, r10
 4790 003c 2846     		mov	r0, r5
 4791 003e 05F14006 		add	r6, r5, #64
 4792 0042 FFF7FEFF 		bl	sp_256_from_bin.constprop.0
 4793 0046 05F18009 		add	r9, r5, #128
 4794 004a 3046     		mov	r0, r6
 4795 004c 2F99     		ldr	r1, [sp, #188]
 4796 004e FFF7FEFF 		bl	sp_256_from_mp.constprop.0
 4797 0052 4846     		mov	r0, r9
 4798 0054 3099     		ldr	r1, [sp, #192]
 4799 0056 FFF7FEFF 		bl	sp_256_from_mp.constprop.0
 4800 005a 4146     		mov	r1, r8
 4801 005c 04F1C400 		add	r0, r4, #196
 4802 0060 FFF7FEFF 		bl	sp_256_from_mp.constprop.0
 4803 0064 3946     		mov	r1, r7
 4804 0066 04F58270 		add	r0, r4, #260
 4805 006a FFF7FEFF 		bl	sp_256_from_mp.constprop.0
 4806 006e 04F5A273 		add	r3, r4, #324
 4807 0072 1846     		mov	r0, r3
 4808 0074 2E99     		ldr	r1, [sp, #184]
 4809 0076 08EE103A 		vmov	s16, r3	@ int
 4810 007a FFF7FEFF 		bl	sp_256_from_mp.constprop.0
 4811 007e DFF830C3 		ldr	ip, .L381+4
 4812 0082 02AF     		add	r7, sp, #8
 4813 0084 BCE80F00 		ldmia	ip!, {r0, r1, r2, r3}
 4814 0088 0FC7     		stmia	r7!, {r0, r1, r2, r3}
 4815 008a 9CE80F00 		ldm	ip, {r0, r1, r2, r3}
 4816 008e 87E80F00 		stm	r7, {r0, r1, r2, r3}
 4817 0092 4B46     		mov	r3, r9
 4818 0094 0AAF     		add	r7, sp, #40
 4819 0096 05F1A00C 		add	ip, r5, #160
 4820              	.L322:
 4821 009a 3A46     		mov	r2, r7
 4822 009c 1868     		ldr	r0, [r3]	@ unaligned
 4823 009e 5968     		ldr	r1, [r3, #4]	@ unaligned
 4824 00a0 0833     		adds	r3, r3, #8
 4825 00a2 03C2     		stmia	r2!, {r0, r1}
 4826 00a4 6345     		cmp	r3, ip
 4827 00a6 1746     		mov	r7, r2
 4828 00a8 F7D1     		bne	.L322
 4829 00aa 02A8     		add	r0, sp, #8
 4830 00ac FFF7FEFF 		bl	sp_256_num_bits_8
 4831 00b0 0DF1280A 		add	r10, sp, #40
 4832 00b4 8346     		mov	fp, r0
 4833 00b6 5046     		mov	r0, r10
 4834 00b8 FFF7FEFF 		bl	sp_256_num_bits_8
ARM GAS  /tmp/ccwGYw5D.s 			page 84


 4835 00bc 0021     		movs	r1, #0
 4836 00be 0746     		mov	r7, r0
 4837 00c0 2022     		movs	r2, #32
 4838 00c2 12A8     		add	r0, sp, #72
 4839 00c4 FFF7FEFF 		bl	memset
 4840 00c8 0A9B     		ldr	r3, [sp, #40]
 4841 00ca D907     		lsls	r1, r3, #31
 4842 00cc 37D4     		bmi	.L323
 4843 00ce 5146     		mov	r1, r10
 4844 00d0 5046     		mov	r0, r10
 4845 00d2 FFF7FEFF 		bl	sp_256_rshift1_8
 4846 00d6 DFF8D8E2 		ldr	lr, .L381+4
 4847 00da 0DF1680C 		add	ip, sp, #104
 4848 00de BEE80F00 		ldmia	lr!, {r0, r1, r2, r3}
 4849 00e2 ACE80F00 		stmia	ip!, {r0, r1, r2, r3}
 4850 00e6 9EE80F00 		ldm	lr, {r0, r1, r2, r3}
 4851 00ea 8CE80F00 		stm	ip, {r0, r1, r2, r3}
 4852 00ee AF4B     		ldr	r3, .L381
 4853 00f0 1AA9     		add	r1, sp, #104
 4854 00f2 0846     		mov	r0, r1
 4855 00f4 1A93     		str	r3, [sp, #104]
 4856 00f6 D046     		mov	r8, r10
 4857 00f8 FFF7FEFF 		bl	sp_256_rshift1_8
 4858 00fc 013F     		subs	r7, r7, #1
 4859              	.L324:
 4860 00fe 0A9B     		ldr	r3, [sp, #40]
 4861 0100 DA07     		lsls	r2, r3, #31
 4862 0102 12D5     		bpl	.L325
 4863              	.L326:
 4864 0104 0DF16808 		add	r8, sp, #104
 4865              	.L327:
 4866 0108 BBF1010F 		cmp	fp, #1
 4867 010c 74DD     		ble	.L337
 4868 010e 012F     		cmp	r7, #1
 4869 0110 1DDC     		bgt	.L338
 4870              	.L339:
 4871 0112 4A46     		mov	r2, r9
 4872 0114 22AF     		add	r7, sp, #136
 4873              	.L342:
 4874 0116 4346     		mov	r3, r8
 4875 0118 03CB     		ldmia	r3!, {r0, r1}
 4876 011a BB42     		cmp	r3, r7
 4877 011c 1060     		str	r0, [r2]	@ unaligned
 4878 011e 5160     		str	r1, [r2, #4]	@ unaligned
 4879 0120 9846     		mov	r8, r3
 4880 0122 02F10802 		add	r2, r2, #8
 4881 0126 F6D1     		bne	.L342
 4882 0128 72E0     		b	.L341
 4883              	.L325:
 4884 012a 4146     		mov	r1, r8
 4885 012c 4046     		mov	r0, r8
 4886 012e FFF7FEFF 		bl	sp_256_rshift1_8
 4887 0132 1AA9     		add	r1, sp, #104
 4888 0134 0846     		mov	r0, r1
 4889 0136 FFF7FEFF 		bl	sp_256_div2_mod_8.constprop.0
 4890 013a 013F     		subs	r7, r7, #1
 4891 013c DFE7     		b	.L324
ARM GAS  /tmp/ccwGYw5D.s 			page 85


 4892              	.L323:
 4893 013e 1C22     		movs	r2, #28
 4894 0140 0021     		movs	r1, #0
 4895 0142 1BA8     		add	r0, sp, #108
 4896 0144 FFF7FEFF 		bl	memset
 4897 0148 0123     		movs	r3, #1
 4898 014a 1A93     		str	r3, [sp, #104]
 4899 014c DAE7     		b	.L326
 4900              	.L338:
 4901 014e BB45     		cmp	fp, r7
 4902 0150 24DD     		ble	.L328
 4903              	.L332:
 4904 0152 02A9     		add	r1, sp, #8
 4905 0154 5246     		mov	r2, r10
 4906 0156 0846     		mov	r0, r1
 4907 0158 FFF7FEFF 		bl	sp_256_sub_8
 4908 015c 12A9     		add	r1, sp, #72
 4909 015e 4246     		mov	r2, r8
 4910 0160 0846     		mov	r0, r1
 4911 0162 FFF7FEFF 		bl	sp_256_sub_8
 4912 0166 20B1     		cbz	r0, .L330
 4913 0168 12A9     		add	r1, sp, #72
 4914 016a 0846     		mov	r0, r1
 4915 016c 904A     		ldr	r2, .L381+4
 4916 016e FFF7FEFF 		bl	sp_256_add_8
 4917              	.L330:
 4918 0172 02A8     		add	r0, sp, #8
 4919 0174 FFF7FEFF 		bl	sp_256_num_bits_8
 4920 0178 8346     		mov	fp, r0
 4921              	.L334:
 4922 017a 02A9     		add	r1, sp, #8
 4923 017c 0846     		mov	r0, r1
 4924 017e FFF7FEFF 		bl	sp_256_rshift1_8
 4925 0182 12A9     		add	r1, sp, #72
 4926 0184 0846     		mov	r0, r1
 4927 0186 0BF1FF3B 		add	fp, fp, #-1
 4928 018a FFF7FEFF 		bl	sp_256_div2_mod_8.constprop.0
 4929 018e BBF1000F 		cmp	fp, #0
 4930 0192 B9DD     		ble	.L327
 4931 0194 029B     		ldr	r3, [sp, #8]
 4932 0196 DB07     		lsls	r3, r3, #31
 4933 0198 EFD5     		bpl	.L334
 4934 019a B5E7     		b	.L327
 4935              	.L328:
 4936 019c 05D1     		bne	.L331
 4937 019e 0AA9     		add	r1, sp, #40
 4938 01a0 02A8     		add	r0, sp, #8
 4939 01a2 FFF7FEFF 		bl	sp_256_cmp_8
 4940 01a6 0028     		cmp	r0, #0
 4941 01a8 D3DA     		bge	.L332
 4942              	.L331:
 4943 01aa 5146     		mov	r1, r10
 4944 01ac 02AA     		add	r2, sp, #8
 4945 01ae 5046     		mov	r0, r10
 4946 01b0 FFF7FEFF 		bl	sp_256_sub_8
 4947 01b4 4146     		mov	r1, r8
 4948 01b6 4046     		mov	r0, r8
ARM GAS  /tmp/ccwGYw5D.s 			page 86


 4949 01b8 12AA     		add	r2, sp, #72
 4950 01ba FFF7FEFF 		bl	sp_256_sub_8
 4951 01be 20B1     		cbz	r0, .L335
 4952 01c0 4146     		mov	r1, r8
 4953 01c2 4046     		mov	r0, r8
 4954 01c4 7A4A     		ldr	r2, .L381+4
 4955 01c6 FFF7FEFF 		bl	sp_256_add_8
 4956              	.L335:
 4957 01ca 0AAB     		add	r3, sp, #40
 4958 01cc 1846     		mov	r0, r3
 4959 01ce FFF7FEFF 		bl	sp_256_num_bits_8
 4960 01d2 0746     		mov	r7, r0
 4961 01d4 0AAB     		add	r3, sp, #40
 4962              	.L336:
 4963 01d6 1946     		mov	r1, r3
 4964 01d8 1846     		mov	r0, r3
 4965 01da FFF7FEFF 		bl	sp_256_rshift1_8
 4966 01de 013F     		subs	r7, r7, #1
 4967 01e0 4146     		mov	r1, r8
 4968 01e2 4046     		mov	r0, r8
 4969 01e4 FFF7FEFF 		bl	sp_256_div2_mod_8.constprop.0
 4970 01e8 002F     		cmp	r7, #0
 4971 01ea 8DDD     		ble	.L327
 4972 01ec 0A9A     		ldr	r2, [sp, #40]
 4973 01ee 0AAB     		add	r3, sp, #40
 4974 01f0 12F0010F 		tst	r2, #1
 4975 01f4 EFD0     		beq	.L336
 4976 01f6 87E7     		b	.L327
 4977              	.L337:
 4978 01f8 8BD1     		bne	.L339
 4979 01fa 4A46     		mov	r2, r9
 4980 01fc 12AF     		add	r7, sp, #72
 4981              	.L340:
 4982 01fe 3B46     		mov	r3, r7
 4983 0200 03CB     		ldmia	r3!, {r0, r1}
 4984 0202 4345     		cmp	r3, r8
 4985 0204 1060     		str	r0, [r2]	@ unaligned
 4986 0206 5160     		str	r1, [r2, #4]	@ unaligned
 4987 0208 1F46     		mov	r7, r3
 4988 020a 02F10802 		add	r2, r2, #8
 4989 020e F6D1     		bne	.L340
 4990              	.L341:
 4991 0210 4946     		mov	r1, r9
 4992 0212 4846     		mov	r0, r9
 4993 0214 674A     		ldr	r2, .L381+8
 4994 0216 FFF7FEFF 		bl	sp_256_mul_8
 4995 021a 4946     		mov	r1, r9
 4996 021c 4846     		mov	r0, r9
 4997 021e 644A     		ldr	r2, .L381+4
 4998 0220 FFF7FEFF 		bl	sp_256_mod_8
 4999 0224 8246     		mov	r10, r0
 5000 0226 0028     		cmp	r0, #0
 5001 0228 40F08480 		bne	.L343
 5002 022c 4A46     		mov	r2, r9
 5003 022e 2946     		mov	r1, r5
 5004 0230 2846     		mov	r0, r5
 5005 0232 FFF7FEFF 		bl	sp_256_mont_mul_order_8
ARM GAS  /tmp/ccwGYw5D.s 			page 87


 5006 0236 4A46     		mov	r2, r9
 5007 0238 3146     		mov	r1, r6
 5008 023a 3046     		mov	r0, r6
 5009 023c FFF7FEFF 		bl	sp_256_mont_mul_order_8
 5010 0240 5346     		mov	r3, r10
 5011 0242 5246     		mov	r2, r10
 5012 0244 2946     		mov	r1, r5
 5013 0246 2046     		mov	r0, r4
 5014 0248 FFF7FEFF 		bl	sp_256_ecc_mulmod_stripe_8.constprop.0
 5015 024c 8246     		mov	r10, r0
 5016 024e 0028     		cmp	r0, #0
 5017 0250 70D1     		bne	.L343
 5018 0252 04F18007 		add	r7, r4, #128
 5019 0256 3846     		mov	r0, r7
 5020 0258 FFF7FEFF 		bl	sp_256_iszero_8
 5021 025c 10B1     		cbz	r0, .L344
 5022 025e 0123     		movs	r3, #1
 5023 0260 C4F8C030 		str	r3, [r4, #192]
 5024              	.L344:
 5025 0264 0023     		movs	r3, #0
 5026 0266 04F1C408 		add	r8, r4, #196
 5027 026a 3246     		mov	r2, r6
 5028 026c 4146     		mov	r1, r8
 5029 026e 4046     		mov	r0, r8
 5030 0270 0093     		str	r3, [sp]
 5031 0272 FFF7FEFF 		bl	sp_256_ecc_mulmod_fast_8.constprop.0
 5032 0276 8246     		mov	r10, r0
 5033 0278 0028     		cmp	r0, #0
 5034 027a 5BD1     		bne	.L343
 5035 027c 18EE100A 		vmov	r0, s16	@ int
 5036 0280 FFF7FEFF 		bl	sp_256_iszero_8
 5037 0284 10B1     		cbz	r0, .L345
 5038 0286 0123     		movs	r3, #1
 5039 0288 C4F88431 		str	r3, [r4, #388]
 5040              	.L345:
 5041 028c 05F1C009 		add	r9, r5, #192
 5042 0290 2046     		mov	r0, r4
 5043 0292 4B46     		mov	r3, r9
 5044 0294 4246     		mov	r2, r8
 5045 0296 2146     		mov	r1, r4
 5046 0298 FFF7FEFF 		bl	sp_256_proj_point_add_8
 5047 029c 3846     		mov	r0, r7
 5048 029e FFF7FEFF 		bl	sp_256_iszero_8
 5049 02a2 78B1     		cbz	r0, .L347
 5050 02a4 2046     		mov	r0, r4
 5051 02a6 FFF7FEFF 		bl	sp_256_iszero_8
 5052 02aa 0028     		cmp	r0, #0
 5053 02ac 49D0     		beq	.L346
 5054 02ae 04F14000 		add	r0, r4, #64
 5055 02b2 FFF7FEFF 		bl	sp_256_iszero_8
 5056 02b6 0028     		cmp	r0, #0
 5057 02b8 43D0     		beq	.L346
 5058 02ba 4A46     		mov	r2, r9
 5059 02bc 4146     		mov	r1, r8
 5060 02be 2046     		mov	r0, r4
 5061 02c0 FFF7FEFF 		bl	sp_256_proj_point_dbl_8
 5062              	.L347:
ARM GAS  /tmp/ccwGYw5D.s 			page 88


 5063 02c4 3046     		mov	r0, r6
 5064 02c6 2F99     		ldr	r1, [sp, #188]
 5065 02c8 FFF7FEFF 		bl	sp_256_from_mp.constprop.0
 5066 02cc 3146     		mov	r1, r6
 5067 02ce 3046     		mov	r0, r6
 5068 02d0 FFF7FEFF 		bl	sp_256_mod_mul_norm_8.constprop.0
 5069 02d4 8246     		mov	r10, r0
 5070 02d6 68BB     		cbnz	r0, .L343
 5071 02d8 3946     		mov	r1, r7
 5072 02da 3846     		mov	r0, r7
 5073 02dc FFF7FEFF 		bl	sp_256_mont_sqr_8.constprop.0
 5074 02e0 3A46     		mov	r2, r7
 5075 02e2 3146     		mov	r1, r6
 5076 02e4 2846     		mov	r0, r5
 5077 02e6 FFF7FEFF 		bl	sp_256_mont_mul_8.constprop.0
 5078 02ea 2946     		mov	r1, r5
 5079 02ec 2046     		mov	r0, r4
 5080 02ee FFF7FEFF 		bl	sp_256_cmp_8
 5081 02f2 0028     		cmp	r0, #0
 5082 02f4 0CBF     		ite	eq
 5083 02f6 0123     		moveq	r3, #1
 5084 02f8 0023     		movne	r3, #0
 5085 02fa 319A     		ldr	r2, [sp, #196]
 5086 02fc 1360     		str	r3, [r2]
 5087 02fe 38D1     		bne	.L349
 5088              	.L351:
 5089 0300 0020     		movs	r0, #0
 5090              	.L350:
 5091 0302 319B     		ldr	r3, [sp, #196]
 5092 0304 1B68     		ldr	r3, [r3]
 5093 0306 ABB9     		cbnz	r3, .L343
 5094 0308 0028     		cmp	r0, #0
 5095 030a 42DA     		bge	.L357
 5096 030c 3146     		mov	r1, r6
 5097 030e 3046     		mov	r0, r6
 5098 0310 FFF7FEFF 		bl	sp_256_mod_mul_norm_8.constprop.0
 5099 0314 8246     		mov	r10, r0
 5100 0316 68B9     		cbnz	r0, .L343
 5101 0318 3A46     		mov	r2, r7
 5102 031a 3146     		mov	r1, r6
 5103 031c 2846     		mov	r0, r5
 5104 031e FFF7FEFF 		bl	sp_256_mont_mul_8.constprop.0
 5105 0322 2946     		mov	r1, r5
 5106 0324 2046     		mov	r0, r4
 5107 0326 FFF7FEFF 		bl	sp_256_cmp_8
 5108 032a B0FA80F0 		clz	r0, r0
 5109 032e 319B     		ldr	r3, [sp, #196]
 5110 0330 4009     		lsrs	r0, r0, #5
 5111 0332 1860     		str	r0, [r3]
 5112              	.L343:
 5113 0334 2046     		mov	r0, r4
 5114 0336 FFF7FEFF 		bl	wolfSSL_Free
 5115              	.L321:
 5116 033a 2846     		mov	r0, r5
 5117 033c FFF7FEFF 		bl	wolfSSL_Free
 5118 0340 2BE0     		b	.L319
 5119              	.L346:
ARM GAS  /tmp/ccwGYw5D.s 			page 89


 5120 0342 0023     		movs	r3, #0
 5121 0344 3A46     		mov	r2, r7
 5122 0346 DFF874C0 		ldr	ip, .L381+16
 5123 034a C4E90033 		strd	r3, r3, [r4]
 5124 034e C4E90233 		strd	r3, r3, [r4, #8]
 5125 0352 C4E90433 		strd	r3, r3, [r4, #16]
 5126 0356 C4E90633 		strd	r3, r3, [r4, #24]
 5127 035a 0CF1200E 		add	lr, ip, #32
 5128              	.L348:
 5129 035e 6346     		mov	r3, ip
 5130 0360 03CB     		ldmia	r3!, {r0, r1}
 5131 0362 7345     		cmp	r3, lr
 5132 0364 1060     		str	r0, [r2]	@ unaligned
 5133 0366 5160     		str	r1, [r2, #4]	@ unaligned
 5134 0368 9C46     		mov	ip, r3
 5135 036a 02F10802 		add	r2, r2, #8
 5136 036e F6D1     		bne	.L348
 5137 0370 A8E7     		b	.L347
 5138              	.L349:
 5139 0372 3046     		mov	r0, r6
 5140 0374 2F99     		ldr	r1, [sp, #188]
 5141 0376 FFF7FEFF 		bl	sp_256_from_mp.constprop.0
 5142 037a 3146     		mov	r1, r6
 5143 037c 3046     		mov	r0, r6
 5144 037e 0C4A     		ldr	r2, .L381+4
 5145 0380 FFF7FEFF 		bl	sp_256_add_8
 5146 0384 0028     		cmp	r0, #0
 5147 0386 BBD1     		bne	.L351
 5148 0388 3046     		mov	r0, r6
 5149 038a 0B49     		ldr	r1, .L381+12
 5150 038c FFF7FEFF 		bl	sp_256_cmp_8
 5151 0390 B7E7     		b	.L350
 5152              	.L357:
 5153 0392 9A46     		mov	r10, r3
 5154 0394 CEE7     		b	.L343
 5155              	.L355:
 5156 0396 6FF07C0A 		mvn	r10, #124
 5157              	.L319:
 5158 039a 5046     		mov	r0, r10
 5159 039c 23B0     		add	sp, sp, #140
 5160              		@ sp needed
 5161 039e BDEC028B 		vldm	sp!, {d8}
 5162 03a2 BDE8F08F 		pop	{r4, r5, r6, r7, r8, r9, r10, fp, pc}
 5163              	.L356:
 5164 03a6 6FF07C0A 		mvn	r10, #124
 5165 03aa C6E7     		b	.L321
 5166              	.L382:
 5167              		.align	2
 5168              	.L381:
 5169 03ac 522563FC 		.word	-60611246
 5170 03b0 00000000 		.word	.LANCHOR0
 5171 03b4 00000000 		.word	.LANCHOR5
 5172 03b8 00000000 		.word	.LANCHOR2
 5173 03bc 00000000 		.word	.LANCHOR3
 5175              		.section	.text.sp_ecc_is_point_256,"ax",%progbits
 5176              		.align	1
 5177              		.global	sp_ecc_is_point_256
ARM GAS  /tmp/ccwGYw5D.s 			page 90


 5178              		.syntax unified
 5179              		.thumb
 5180              		.thumb_func
 5181              		.fpu fpv4-sp-d16
 5183              	sp_ecc_is_point_256:
 5184              		@ args = 0, pretend = 0, frame = 8
 5185              		@ frame_needed = 0, uses_anonymous_args = 0
 5186 0000 F7B5     		push	{r0, r1, r2, r4, r5, r6, r7, lr}
 5187 0002 0127     		movs	r7, #1
 5188 0004 0646     		mov	r6, r0
 5189 0006 C420     		movs	r0, #196
 5190 0008 0D46     		mov	r5, r1
 5191 000a 8DF80470 		strb	r7, [sp, #4]
 5192 000e FFF7FEFF 		bl	wolfSSL_Malloc
 5193 0012 0446     		mov	r4, r0
 5194 0014 B8B1     		cbz	r0, .L385
 5195 0016 3146     		mov	r1, r6
 5196 0018 FFF7FEFF 		bl	sp_256_from_mp.constprop.0
 5197 001c 2946     		mov	r1, r5
 5198 001e 04F14000 		add	r0, r4, #64
 5199 0022 FFF7FEFF 		bl	sp_256_from_mp.constprop.0
 5200 0026 3A46     		mov	r2, r7
 5201 0028 01A9     		add	r1, sp, #4
 5202 002a 04F18000 		add	r0, r4, #128
 5203 002e FFF7FEFF 		bl	sp_256_from_bin.constprop.0
 5204 0032 2046     		mov	r0, r4
 5205 0034 FFF7FEFF 		bl	sp_256_ecc_is_point_8.constprop.0
 5206 0038 0546     		mov	r5, r0
 5207 003a 2046     		mov	r0, r4
 5208 003c FFF7FEFF 		bl	wolfSSL_Free
 5209              	.L383:
 5210 0040 2846     		mov	r0, r5
 5211 0042 03B0     		add	sp, sp, #12
 5212              		@ sp needed
 5213 0044 F0BD     		pop	{r4, r5, r6, r7, pc}
 5214              	.L385:
 5215 0046 6FF07C05 		mvn	r5, #124
 5216 004a F9E7     		b	.L383
 5218              		.section	.text.sp_ecc_check_key_256,"ax",%progbits
 5219              		.align	1
 5220              		.global	sp_ecc_check_key_256
 5221              		.syntax unified
 5222              		.thumb
 5223              		.thumb_func
 5224              		.fpu fpv4-sp-d16
 5226              	sp_ecc_check_key_256:
 5227              		@ args = 0, pretend = 0, frame = 8
 5228              		@ frame_needed = 0, uses_anonymous_args = 0
 5229 0000 0123     		movs	r3, #1
 5230 0002 2DE9F04F 		push	{r4, r5, r6, r7, r8, r9, r10, fp, lr}
 5231 0006 85B0     		sub	sp, sp, #20
 5232 0008 0746     		mov	r7, r0
 5233 000a 0C46     		mov	r4, r1
 5234 000c 9146     		mov	r9, r2
 5235 000e 8DF80C30 		strb	r3, [sp, #12]
 5236 0012 FFF7FEFF 		bl	sp_count_bits
 5237 0016 B0F5807F 		cmp	r0, #256
ARM GAS  /tmp/ccwGYw5D.s 			page 91


 5238 001a 16DC     		bgt	.L387
 5239 001c 2046     		mov	r0, r4
 5240 001e FFF7FEFF 		bl	sp_count_bits
 5241 0022 B0F5807F 		cmp	r0, #256
 5242 0026 10DC     		bgt	.L387
 5243 0028 B9F1000F 		cmp	r9, #0
 5244 002c 07D1     		bne	.L388
 5245              	.L392:
 5246 002e 2020     		movs	r0, #32
 5247 0030 FFF7FEFF 		bl	wolfSSL_Malloc
 5248 0034 0646     		mov	r6, r0
 5249 0036 58B9     		cbnz	r0, .L425
 5250 0038 6FF07C04 		mvn	r4, #124
 5251 003c 7DE0     		b	.L386
 5252              	.L388:
 5253 003e 4846     		mov	r0, r9
 5254 0040 FFF7FEFF 		bl	sp_count_bits
 5255 0044 B0F5807F 		cmp	r0, #256
 5256 0048 F1DD     		ble	.L392
 5257              	.L387:
 5258 004a 6FF0D804 		mvn	r4, #216
 5259 004e 74E0     		b	.L386
 5260              	.L425:
 5261 0050 4FF4C470 		mov	r0, #392
 5262 0054 FFF7FEFF 		bl	wolfSSL_Malloc
 5263 0058 0546     		mov	r5, r0
 5264 005a 40B9     		cbnz	r0, .L426
 5265 005c 6FF07C04 		mvn	r4, #124
 5266 0060 68E0     		b	.L410
 5267              	.L401:
 5268 0062 6FF0D704 		mvn	r4, #215
 5269 0066 62E0     		b	.L405
 5270              	.L414:
 5271 0068 6FF0D804 		mvn	r4, #216
 5272 006c 5FE0     		b	.L405
 5273              	.L426:
 5274 006e 3946     		mov	r1, r7
 5275 0070 05F14007 		add	r7, r5, #64
 5276 0074 00F1C408 		add	r8, r0, #196
 5277 0078 FFF7FEFF 		bl	sp_256_from_mp.constprop.0
 5278 007c 2146     		mov	r1, r4
 5279 007e 3846     		mov	r0, r7
 5280 0080 FFF7FEFF 		bl	sp_256_from_mp.constprop.0
 5281 0084 0122     		movs	r2, #1
 5282 0086 03A9     		add	r1, sp, #12
 5283 0088 05F18000 		add	r0, r5, #128
 5284 008c FFF7FEFF 		bl	sp_256_from_bin.constprop.0
 5285 0090 B9F1000F 		cmp	r9, #0
 5286 0094 03D0     		beq	.L408
 5287 0096 4946     		mov	r1, r9
 5288 0098 3046     		mov	r0, r6
 5289 009a FFF7FEFF 		bl	sp_256_from_mp.constprop.0
 5290              	.L408:
 5291 009e 2846     		mov	r0, r5
 5292 00a0 FFF7FEFF 		bl	sp_256_iszero_8
 5293 00a4 20B1     		cbz	r0, .L395
 5294 00a6 3846     		mov	r0, r7
ARM GAS  /tmp/ccwGYw5D.s 			page 92


 5295 00a8 FFF7FEFF 		bl	sp_256_iszero_8
 5296 00ac 0028     		cmp	r0, #0
 5297 00ae 48D1     		bne	.L396
 5298              	.L395:
 5299 00b0 2846     		mov	r0, r5
 5300 00b2 2549     		ldr	r1, .L430
 5301 00b4 FFF7FEFF 		bl	sp_256_cmp_8
 5302 00b8 0028     		cmp	r0, #0
 5303 00ba D5DA     		bge	.L414
 5304 00bc 3846     		mov	r0, r7
 5305 00be 2249     		ldr	r1, .L430
 5306 00c0 FFF7FEFF 		bl	sp_256_cmp_8
 5307 00c4 0028     		cmp	r0, #0
 5308 00c6 CFDA     		bge	.L414
 5309 00c8 2846     		mov	r0, r5
 5310 00ca FFF7FEFF 		bl	sp_256_ecc_is_point_8.constprop.0
 5311 00ce 0446     		mov	r4, r0
 5312 00d0 68BB     		cbnz	r0, .L405
 5313 00d2 4FF0010B 		mov	fp, #1
 5314 00d6 2946     		mov	r1, r5
 5315 00d8 5B46     		mov	r3, fp
 5316 00da 4046     		mov	r0, r8
 5317 00dc 1B4A     		ldr	r2, .L430+4
 5318 00de CDF800B0 		str	fp, [sp]
 5319 00e2 FFF7FEFF 		bl	sp_256_ecc_mulmod_fast_8.constprop.0
 5320 00e6 0446     		mov	r4, r0
 5321 00e8 08BB     		cbnz	r0, .L405
 5322 00ea 4046     		mov	r0, r8
 5323 00ec FFF7FEFF 		bl	sp_256_iszero_8
 5324 00f0 38B3     		cbz	r0, .L396
 5325 00f2 05F5827A 		add	r10, r5, #260
 5326 00f6 5046     		mov	r0, r10
 5327 00f8 FFF7FEFF 		bl	sp_256_iszero_8
 5328 00fc 08B3     		cbz	r0, .L396
 5329 00fe B9F1000F 		cmp	r9, #0
 5330 0102 13D0     		beq	.L403
 5331 0104 5B46     		mov	r3, fp
 5332 0106 5A46     		mov	r2, fp
 5333 0108 3146     		mov	r1, r6
 5334 010a 4046     		mov	r0, r8
 5335 010c FFF7FEFF 		bl	sp_256_ecc_mulmod_stripe_8.constprop.0
 5336 0110 0446     		mov	r4, r0
 5337 0112 60B9     		cbnz	r0, .L405
 5338 0114 2946     		mov	r1, r5
 5339 0116 4046     		mov	r0, r8
 5340 0118 FFF7FEFF 		bl	sp_256_cmp_8
 5341 011c 0028     		cmp	r0, #0
 5342 011e A0D1     		bne	.L401
 5343 0120 3946     		mov	r1, r7
 5344 0122 5046     		mov	r0, r10
 5345 0124 FFF7FEFF 		bl	sp_256_cmp_8
 5346 0128 0028     		cmp	r0, #0
 5347 012a 9AD1     		bne	.L401
 5348              	.L403:
 5349 012c 0024     		movs	r4, #0
 5350              	.L405:
 5351 012e 2846     		mov	r0, r5
ARM GAS  /tmp/ccwGYw5D.s 			page 93


 5352 0130 FFF7FEFF 		bl	wolfSSL_Free
 5353              	.L410:
 5354 0134 3046     		mov	r0, r6
 5355 0136 FFF7FEFF 		bl	wolfSSL_Free
 5356              	.L386:
 5357 013a 2046     		mov	r0, r4
 5358 013c 05B0     		add	sp, sp, #20
 5359              		@ sp needed
 5360 013e BDE8F08F 		pop	{r4, r5, r6, r7, r8, r9, r10, fp, pc}
 5361              	.L396:
 5362 0142 6FF0D604 		mvn	r4, #214
 5363 0146 F2E7     		b	.L405
 5364              	.L431:
 5365              		.align	2
 5366              	.L430:
 5367 0148 00000000 		.word	.LANCHOR2
 5368 014c 00000000 		.word	.LANCHOR0
 5370              		.section	.rodata.p256_b,"a"
 5371              		.align	2
 5372              		.set	.LANCHOR4,. + 0
 5375              	p256_b:
 5376 0000 4B60D227 		.word	668098635
 5377 0004 3E3CCE3B 		.word	1003371582
 5378 0008 F6B053CC 		.word	-866930442
 5379 000c B0061D65 		.word	1696401072
 5380 0010 BC869876 		.word	1989707452
 5381 0014 55BDEBB3 		.word	-1276396203
 5382 0018 E7933AAA 		.word	-1439001625
 5383 001c D835C65A 		.word	1522939352
 5384              		.section	.rodata.p256_mod,"a"
 5385              		.align	2
 5386              		.set	.LANCHOR2,. + 0
 5389              	p256_mod:
 5390 0000 FFFFFFFF 		.word	-1
 5391 0004 FFFFFFFF 		.word	-1
 5392 0008 FFFFFFFF 		.word	-1
 5393 000c 00000000 		.word	0
 5394 0010 00000000 		.word	0
 5395 0014 00000000 		.word	0
 5396 0018 01000000 		.word	1
 5397 001c FFFFFFFF 		.word	-1
 5398              		.section	.rodata.p256_norm_mod,"a"
 5399              		.align	2
 5400              		.set	.LANCHOR3,. + 0
 5403              	p256_norm_mod:
 5404 0000 01000000 		.word	1
 5405 0004 00000000 		.word	0
 5406 0008 00000000 		.word	0
 5407 000c FFFFFFFF 		.word	-1
 5408 0010 FFFFFFFF 		.word	-1
 5409 0014 FFFFFFFF 		.word	-1
 5410 0018 FEFFFFFF 		.word	-2
 5411 001c 00000000 		.word	0
 5412              		.section	.rodata.p256_norm_order,"a"
 5413              		.align	2
 5414              		.set	.LANCHOR5,. + 0
 5417              	p256_norm_order:
ARM GAS  /tmp/ccwGYw5D.s 			page 94


 5418 0000 AFDA9C03 		.word	60611247
 5419 0004 3D35460C 		.word	205927741
 5420 0008 7B61E858 		.word	1491624315
 5421 000c 52051943 		.word	1125713234
 5422 0010 00000000 		.word	0
 5423 0014 00000000 		.word	0
 5424 0018 FFFFFFFF 		.word	-1
 5425 001c 00000000 		.word	0
 5426              		.section	.rodata.p256_order,"a"
 5427              		.align	2
 5428              		.set	.LANCHOR0,. + 0
 5431              	p256_order:
 5432 0000 512563FC 		.word	-60611247
 5433 0004 C2CAB9F3 		.word	-205927742
 5434 0008 849E17A7 		.word	-1491624316
 5435 000c ADFAE6BC 		.word	-1125713235
 5436 0010 FFFFFFFF 		.word	-1
 5437 0014 FFFFFFFF 		.word	-1
 5438 0018 00000000 		.word	0
 5439 001c FFFFFFFF 		.word	-1
 5440              		.section	.rodata.p256_order2,"a"
 5441              		.align	2
 5442              		.set	.LANCHOR1,. + 0
 5445              	p256_order2:
 5446 0000 4F2563FC 		.word	-60611249
 5447 0004 C2CAB9F3 		.word	-205927742
 5448 0008 849E17A7 		.word	-1491624316
 5449 000c ADFAE6BC 		.word	-1125713235
 5450 0010 FFFFFFFF 		.word	-1
 5451 0014 FFFFFFFF 		.word	-1
 5452 0018 00000000 		.word	0
 5453 001c FFFFFFFF 		.word	-1
 5454              		.section	.rodata.p256_order_low,"a"
 5455              		.align	2
 5456              		.set	.LANCHOR6,. + 0
 5459              	p256_order_low:
 5460 0000 4F2563FC 		.word	-60611249
 5461 0004 C2CAB9F3 		.word	-205927742
 5462 0008 849E17A7 		.word	-1491624316
 5463 000c ADFAE6BC 		.word	-1125713235
 5464              		.section	.rodata.p256_table,"a"
 5465              		.align	2
 5468              	p256_table:
 5469 0000 00000000 		.word	0
 5470 0004 00000000 		.word	0
 5471 0008 00000000 		.word	0
 5472 000c 00000000 		.word	0
 5473 0010 00000000 		.word	0
 5474 0014 00000000 		.word	0
 5475 0018 00000000 		.word	0
 5476 001c 00000000 		.word	0
 5477 0020 00000000 		.word	0
 5478 0024 00000000 		.word	0
 5479 0028 00000000 		.word	0
 5480 002c 00000000 		.word	0
 5481 0030 00000000 		.word	0
 5482 0034 00000000 		.word	0
ARM GAS  /tmp/ccwGYw5D.s 			page 95


 5483 0038 00000000 		.word	0
 5484 003c 00000000 		.word	0
 5485 0040 3C14A918 		.word	413733948
 5486 0044 D430E779 		.word	2045194452
 5487 0048 01B6ED5F 		.word	1609414145
 5488 004c FC95BA75 		.word	1975162364
 5489 0050 10256277 		.word	2002920720
 5490 0054 2B73FB79 		.word	2046522155
 5491 0058 C65537A5 		.word	-1523100218
 5492 005c 765F9018 		.word	412114806
 5493 0060 0A5695CE 		.word	-829073910
 5494 0064 5753F2DD 		.word	-571321513
 5495 0068 5CE419BA 		.word	-1172708260
 5496 006c E4B84A8B 		.word	-1958037276
 5497 0070 25F321DD 		.word	-584977627
 5498 0074 8886E8D2 		.word	-756513144
 5499 0078 855D8825 		.word	629693829
 5500 007c 18FF7185 		.word	-2056126696
 5501 0080 9A514741 		.word	1095192986
 5502 0084 02862820 		.word	539526658
 5503 0088 F072B326 		.word	649294576
 5504 008c AC1E98D0 		.word	-795337044
 5505 0090 C8EB85A7 		.word	-1484395576
 5506 0094 CAA7D4A9 		.word	-1445681206
 5507 0098 E958DFDB 		.word	-606119703
 5508 009c 0DC553D9 		.word	-648821491
 5509 00a0 8F0F59FD 		.word	-44494961
 5510 00a4 CC61639D 		.word	-1654431284
 5511 00a8 17C9E644 		.word	1155975447
 5512 00ac 6B62E972 		.word	1927897707
 5513 00b0 CF64EB22 		.word	585852111
 5514 00b4 1061D97F 		.word	2144952592
 5515 00b8 F388B29E 		.word	-1632466701
 5516 00bc 7EBB3E86 		.word	-2042709122
 5517 00c0 8564DB5C 		.word	1557881989
 5518 00c4 23B65678 		.word	2018948643
 5519 00c8 972F0A2F 		.word	789196695
 5520 00cc A20E8F80 		.word	-2138108254
 5521 00d0 0B307E4F 		.word	1333669899
 5522 00d4 54D9683E 		.word	1047058772
 5523 00d8 A080FFB5 		.word	-1241546592
 5524 00dc 55600700 		.word	483413
 5525 00e0 10208D83 		.word	-2087903216
 5526 00e4 9BEB3476 		.word	1983179675
 5527 00e8 8A704332 		.word	843280522
 5528 00ec BB4F0154 		.word	1409372091
 5529 00f0 06662A84 		.word	-2077596154
 5530 00f4 397DE4E0 		.word	-521896647
 5531 00f8 E03E3734 		.word	876035808
 5532 00fc 61770883 		.word	-2096597151
 5533 0100 BBD2A016 		.word	379638459
 5534 0104 C52F924F 		.word	1334980549
 5535 0108 9934621A 		.word	442643609
 5536 010c 6CC15C0D 		.word	224182636
 5537 0110 8B2CC657 		.word	1472605323
 5538 0114 3ACF4192 		.word	-1841180870
 5539 0118 7F661BFD 		.word	-48535937
ARM GAS  /tmp/ccwGYw5D.s 			page 96


 5540 011c 61695E2F 		.word	794716513
 5541 0120 9717A0F5 		.word	-174057577
 5542 0124 0BC7155C 		.word	1544931083
 5543 0128 92619560 		.word	1620402578
 5544 012c 4DB4203D 		.word	1025553485
 5545 0130 52DB1F07 		.word	119528274
 5546 0134 371B9104 		.word	76618551
 5547 0138 7B0F6F8D 		.word	-1922101381
 5548 013c 16F948F6 		.word	-162989802
 5549 0140 BCBB37E1 		.word	-516441156
 5550 0144 4768569E 		.word	-1638504377
 5551 0148 EC0B6A8A 		.word	-1972761620
 5552 014c 9E4634E4 		.word	-466336098
 5553 0150 6334D779 		.word	2044146787
 5554 0154 6127C4B1 		.word	-1312544927
 5555 0158 15003D13 		.word	322764821
 5556 015c 8502BE5A 		.word	1522401925
 5557 0160 AB7D4CC0 		.word	-1068728917
 5558 0164 7C83AA92 		.word	-1834318980
 5559 0168 070C2643 		.word	1126566919
 5560 016c 4C9F3D57 		.word	1463656268
 5561 0170 37CCE678 		.word	2028391479
 5562 0174 6215930C 		.word	210965858
 5563 0178 83736F6B 		.word	1802466179
 5564 017c 5B72BB94 		.word	-1799654821
 5565 0180 1C140F72 		.word	1913590812
 5566 0184 8FB4F9BB 		.word	-1141263217
 5567 0188 74BCF52D 		.word	771079284
 5568 018c CDB39961 		.word	1637462989
 5569 0190 C4451041 		.word	1091585476
 5570 0194 29613FDC 		.word	-599826135
 5571 0198 EFC47D2F 		.word	796771567
 5572 019c CBBBD6CD 		.word	-841565237
 5573 01a0 FD36F4EA 		.word	-353093891
 5574 01a4 0B70A6CC 		.word	-861507573
 5575 01a8 BE2693B9 		.word	-1181538626
 5576 01ac 6D7F646F 		.word	1868857197
 5577 01b0 22254F01 		.word	21964066
 5578 01b4 92A70F0C 		.word	202352530
 5579 01b8 F6E5DA4B 		.word	1272636918
 5580 01bc BDBE61A3 		.word	-1553875267
 5581 01c0 C7137C59 		.word	1501303751
 5582 01c4 5825AA28 		.word	682239320
 5583 01c8 E1C3B750 		.word	1354220513
 5584 01cc 5F638DC3 		.word	-1014144161
 5585 01d0 1D9DC0F3 		.word	-205480675
 5586 01d4 EC9A0307 		.word	117676780
 5587 01d8 2C29B5C4 		.word	-994760404
 5588 01dc 09CA12BA 		.word	-1173173751
 5589 01e0 FD1DF959 		.word	1509498365
 5590 01e4 A48F409E 		.word	-1639936092
 5591 01e8 FB07EACE 		.word	-823523333
 5592 01ec 663BF43A 		.word	989084518
 5593 01f0 290B789D 		.word	-1653077207
 5594 01f4 89B0CE1E 		.word	516862089
 5595 01f8 4BEF1F70 		.word	1881141067
 5596 01fc 9DB9EB53 		.word	1407957405
ARM GAS  /tmp/ccwGYw5D.s 			page 97


 5597 0200 343DE6B0 		.word	-1327088332
 5598 0204 31EEE74F 		.word	1340599857
 5599 0208 AB4FE5A9 		.word	-1444589653
 5600 020c 720560F4 		.word	-195033742
 5601 0210 A4B5E7D5 		.word	-706234972
 5602 0214 343349C0 		.word	-1068944588
 5603 0218 3148D506 		.word	114640945
 5604 021c 92FB8985 		.word	-2054554734
 5605 0220 3A558365 		.word	1703105850
 5606 0224 CCF570AA 		.word	-1435437620
 5607 0228 E54956E2 		.word	-497661467
 5608 022c 4A097908 		.word	142149962
 5609 0230 52460410 		.word	268715602
 5610 0234 074590CC 		.word	-862960377
 5611 0238 4F1C5402 		.word	39066703
 5612 023c 6D69B0EB 		.word	-340760211
 5613 0240 C54716AC 		.word	-1407825979
 5614 0244 15CA1646 		.word	1175898645
 5615 0248 9957CFC4 		.word	-993044583
 5616 024c 477D12B8 		.word	-1206747833
 5617 0250 ACFB4D76 		.word	1984822188
 5618 0254 A36A66DC 		.word	-597267805
 5619 0258 A37DB2D1 		.word	-776831581
 5620 025c CB2028EB 		.word	-349691701
 5621 0260 08E0876A 		.word	1787289608
 5622 0264 D8F80694 		.word	-1811482408
 5623 0268 F3782392 		.word	-1843169037
 5624 026c 9DFA7DD8 		.word	-662832483
 5625 0270 B2ECCC80 		.word	-2134053710
 5626 0274 422EED56 		.word	1458384450
 5627 0278 1DDAA755 		.word	1437063709
 5628 027c 9B28281F 		.word	522725531
 5629 0280 99DA893B 		.word	998890137
 5630 0284 C0A0BAAB 		.word	-1413832512
 5631 0288 224028B8 		.word	-1205321694
 5632 028c 9ED7F2A6 		.word	-1494034530
 5633 0290 E8051CB8 		.word	-1206123032
 5634 0294 62788427 		.word	662992994
 5635 0298 634DE505 		.word	98913635
 5636 029c 594B7A33 		.word	863652697
 5637 02a0 4A79F721 		.word	569866570
 5638 02a4 0D50673C 		.word	1013403661
 5639 02a8 617F6D7D 		.word	2104328033
 5640 02ac B7057020 		.word	544212407
 5641 02b0 E8D6CF04 		.word	80729832
 5642 02b4 81375A0A 		.word	173684609
 5643 02b8 D6FBC2F4 		.word	-188548138
 5644 02bc D5E0650D 		.word	224780501
 5645 02c0 385D27B5 		.word	-1255711432
 5646 02c4 BE9BD0D9 		.word	-640640066
 5647 02c8 58A3E00B 		.word	199271256
 5648 02cc 45A76842 		.word	1114154821
 5649 02d0 65B23E97 		.word	-1757498779
 5650 02d4 F42F76F0 		.word	-260689932
 5651 02d8 32A2F452 		.word	1391764018
 5652 02dc 42A23DC2 		.word	-1036148158
 5653 02e0 0C52940B 		.word	194269708
ARM GAS  /tmp/ccwGYw5D.s 			page 98


 5654 02e4 4FB8A15D 		.word	1570879567
 5655 02e8 8ED75BB0 		.word	-1336158322
 5656 02ec 63676609 		.word	157706083
 5657 02f0 A19ED294 		.word	-1798136159
 5658 02f4 86CB4D3A 		.word	978176902
 5659 02f8 F1CF90C7 		.word	-946810895
 5660 02fc 8C3BDE19 		.word	433994636
 5661 0300 04FEC526 		.word	650509828
 5662 0304 6C713A18 		.word	406483308
 5663 0308 DB1BBA3B 		.word	1002052571
 5664 030c 0BDE283B 		.word	992534027
 5665 0310 2C71CBA4 		.word	-1530171092
 5666 0314 86C53274 		.word	1949484422
 5667 0318 FDCBFC91 		.word	-1845703683
 5668 031c D4CB4DE3 		.word	-481440812
 5669 0320 0384A5AA 		.word	-1431993341
 5670 0324 6BD408B4 		.word	-1274489749
 5671 0328 537AE982 		.word	-2098628013
 5672 032c 8674699A 		.word	-1704364922
 5673 0330 AFA8AA36 		.word	917153967
 5674 0334 2701399E 		.word	-1640431321
 5675 0338 7F0F4E7B 		.word	2068713343
 5676 033c 441F64E7 		.word	-412868796
 5677 0340 59BA64DF 		.word	-547046823
 5678 0344 4139757D 		.word	2104834369
 5679 0348 FC42020B 		.word	184697596
 5680 034c EC103FD3 		.word	-750841620
 5681 0350 591858A1 		.word	-1588062119
 5682 0354 C6DF064F 		.word	1325850566
 5683 0358 BF572A05 		.word	86661055
 5684 035c 57DF124A 		.word	1242750807
 5685 0360 D0DB3994 		.word	-1808147504
 5686 0364 8F33A6BF 		.word	-1079626865
 5687 0368 1F3EE5BD 		.word	-1109049825
 5688 036c D44BC2D3 		.word	-742241324
 5689 0370 14B3F121 		.word	569488148
 5690 0374 FA4F5EFD 		.word	-44150790
 5691 0378 46EA5BBB 		.word	-1151604154
 5692 037c 93AAF56A 		.word	1794484883
 5693 0380 9919C910 		.word	281614745
 5694 0384 99B610DA 		.word	-636438887
 5695 0388 9104582A 		.word	710411409
 5696 038c 40B4240A 		.word	170177600
 5697 0390 9020CCB8 		.word	-1194581872
 5698 0394 B494003E 		.word	1040225460
 5699 0398 1340A466 		.word	1722040339
 5700 039c 5A47E35F 		.word	1608730458
 5701 03a0 4B7B3EF9 		.word	-113345717
 5702 03a4 BDCAF8B0 		.word	-1325872451
 5703 03a8 1AF9237C 		.word	2082732314
 5704 03ac 1A502B29 		.word	690704410
 5705 03b0 63621ECD 		.word	-853646749
 5706 03b4 AE89E842 		.word	1122535854
 5707 03b8 16A9FEEC 		.word	-318854890
 5708 03bc 08E344B5 		.word	-1253776632
 5709 03c0 CEFDDD16 		.word	383647182
 5710 03c4 E9C67864 		.word	1685636841
ARM GAS  /tmp/ccwGYw5D.s 			page 99


 5711 03c8 E67991F8 		.word	-124683802
 5712 03cc 6691322C 		.word	741511526
 5713 03d0 E1674E4D 		.word	1296984033
 5714 03d4 766E8D4E 		.word	1317891702
 5715 03d8 0BC2B0A6 		.word	-1498365429
 5716 03dc BDB2B6E0 		.word	-524897603
 5717 03e0 57FB7EBB 		.word	-1149306025
 5718 03e4 F22D310D 		.word	221326834
 5719 03e8 07400C79 		.word	2030845959
 5720 03ec DE0DAC1A 		.word	447483358
 5721 03f0 44C99B67 		.word	1738262852
 5722 03f4 AD3603F9 		.word	-117229907
 5723 03f8 7437A625 		.word	631650164
 5724 03fc DE23C071 		.word	1908417502
 5725 0400 2509E2BF 		.word	-1075705563
 5726 0404 44C2A862 		.word	1655226948
 5727 0408 67E8DC8F 		.word	-1881347993
 5728 040c C39AC191 		.word	-1849582909
 5729 0410 637038DD 		.word	-583503773
 5730 0414 D5A5965A 		.word	1519822293
 5731 0418 F624D321 		.word	567485686
 5732 041c D487D561 		.word	1641383892
 5733 0420 EA7371A3 		.word	-1552845846
 5734 0424 A27376E8 		.word	-394890334
 5735 0428 658B7753 		.word	1400343397
 5736 042c 08808423 		.word	595886088
 5737 0430 3EB4BA05 		.word	96121918
 5738 0434 1E44F810 		.word	284705822
 5739 0438 BEEF2146 		.word	1176629182
 5740 043c 12FE11FA 		.word	-99484142
 5741 0440 FD9FB12C 		.word	749838333
 5742 0444 2B1F891C 		.word	478748459
 5743 0448 233C92B1 		.word	-1315816413
 5744 044c 5B8DBA01 		.word	29003099
 5745 0450 8ECAC58A 		.word	-1966749042
 5746 0454 673DD0B6 		.word	-1227866777
 5747 0458 DCBE131F 		.word	521387740
 5748 045c 4CB06E58 		.word	1483649100
 5749 0460 09EDE827 		.word	669576457
 5750 0464 E5C6350C 		.word	204850917
 5751 0468 E2ED1918 		.word	404352482
 5752 046c 3CA3811E 		.word	511812412
 5753 0470 FA52C656 		.word	1455837946
 5754 0474 C0D68F27 		.word	663738048
 5755 0478 114F8670 		.word	1887850257
 5756 047c 08ACD519 		.word	433433608
 5757 0480 1F4E9A30 		.word	815418911
 5758 0484 81F5991E 		.word	513406337
 5759 0488 740027E9 		.word	-383319948
 5760 048c 1BE77DAB 		.word	-1417812197
 5761 0490 208DD2EF 		.word	-271413984
 5762 0494 0BEFA526 		.word	648408843
 5763 0498 3F569C7F 		.word	2140952127
 5764 049c 3F07C0E7 		.word	-406845633
 5765 04a0 769FF50E 		.word	250978166
 5766 04a4 3A666D1F 		.word	527263290
 5767 04a8 50B0FC20 		.word	553431120
ARM GAS  /tmp/ccwGYw5D.s 			page 100


 5768 04ac 543B9B66 		.word	1721449300
 5769 04b0 D402667A 		.word	2053505748
 5770 04b4 7A1F8CC0 		.word	-1064558726
 5771 04b8 0A3C5BC6 		.word	-967099382
 5772 04bc FE0485E0 		.word	-528153346
 5773 04c0 CAB331A0 		.word	-1607355446
 5774 04c4 8DF698F0 		.word	-258410867
 5775 04c8 666DDAE6 		.word	-421892762
 5776 04cc 9EAB1C6D 		.word	1830595486
 5777 04d0 E846F294 		.word	-1796061464
 5778 04d4 FA81FD5B 		.word	1543340538
 5779 04d8 B496095B 		.word	1527355060
 5780 04dc 8218F078 		.word	2029000834
 5781 04e0 7F78253A 		.word	975534207
 5782 04e4 E4FDEEB7 		.word	-1209074204
 5783 04e8 9BACCC1D 		.word	499952795
 5784 04ec 0DF81680 		.word	-2145978355
 5785 04f0 36FC5BB3 		.word	-1285817290
 5786 04f4 7748EA0C 		.word	216680567
 5787 04f8 7A74947E 		.word	2123658362
 5788 04fc B873A743 		.word	1135047608
 5789 0500 D533B5D2 		.word	-759876651
 5790 0504 34775762 		.word	1649899316
 5791 0508 C0DDBDA1 		.word	-1581392448
 5792 050c F68A3B67 		.word	1731955446
 5793 0510 93C29EA7 		.word	-1482767725
 5794 0514 9A7C7E57 		.word	1467907226
 5795 0518 B166B2C3 		.word	-1011718479
 5796 051c 51E66DBB 		.word	-1150425519
 5797 0520 B35952B6 		.word	-1236117069
 5798 0524 3A30E9E7 		.word	-404148166
 5799 0528 80743AD0 		.word	-801475456
 5800 052c D3AFA0D6 		.word	-694112301
 5801 0530 27FC3C9B 		.word	-1690502105
 5802 0534 D183ACC5 		.word	-978549807
 5803 0538 9BB9185D 		.word	1561901467
 5804 053c 9A61B460 		.word	1622434202
 5805 0540 1CAAE51A 		.word	451258908
 5806 0544 E1386ABD 		.word	-1117112095
 5807 0548 5836E749 		.word	1239889496
 5808 054c 2B65B7B8 		.word	-1195940565
 5809 0550 ED875FEE 		.word	-295729171
 5810 0554 1400130B 		.word	185794580
 5811 0558 CDFFEBAE 		.word	-1360265267
 5812 055c B2270F9D 		.word	-1659951182
 5813 0560 550A737A 		.word	2054359637
 5814 0564 314692CA 		.word	-896383439
 5815 0568 3AC8BBDD 		.word	-574896070
 5816 056c 2F5B959C 		.word	-1667933393
 5817 0570 719A01AC 		.word	-1409181071
 5818 0574 E0DFC107 		.word	130146272
 5819 0578 8DC46E35 		.word	896451725
 5820 057c 6D564A24 		.word	608851565
 5821 0580 961FCFEA 		.word	-355524714
 5822 0584 4A39B06D 		.word	1840265546
 5823 0588 1C274C02 		.word	38545180
 5824 058c A922219F 		.word	-1625218391
ARM GAS  /tmp/ccwGYw5D.s 			page 101


 5825 0590 B9D3CB82 		.word	-2100571207
 5826 0594 1BAC2626 		.word	640068635
 5827 0598 69EF8135 		.word	897707881
 5828 059c 878CE545 		.word	1172671623
 5829 05a0 BC9D8FA3 		.word	-1550869060
 5830 05a4 9D47FFD3 		.word	-738244707
 5831 05a8 40A088E8 		.word	-393699264
 5832 05ac 46F1AAA8 		.word	-1465192122
 5833 05b0 D7BEE046 		.word	1189134039
 5834 05b4 B2DF5A94 		.word	-1805983822
 5835 05b8 A4B7E4C1 		.word	-1041975388
 5836 05bc 1CE240C0 		.word	-1069489636
 5837 05c0 B617816F 		.word	1870731190
 5838 05c4 00F07A84 		.word	-2072317952
 5839 05c8 3354A373 		.word	1940083763
 5840 05cc FF691965 		.word	1696164351
 5841 05d0 EB75941D 		.word	496268779
 5842 05d4 76352B48 		.word	1210791286
 5843 05d8 C76E2C68 		.word	1747742407
 5844 05dc 975CDF1C 		.word	484400279
 5845 05e0 3948F011 		.word	300959801
 5846 05e4 B475B77D 		.word	2109175220
 5847 05e8 9816DE48 		.word	1222514328
 5848 05ec F4ACBE7D 		.word	2109648116
 5849 05f0 19320BB7 		.word	-1224003047
 5850 05f4 D11D92B2 		.word	-1299046959
 5851 05f8 3DFF2DA9 		.word	-1456603331
 5852 05fc F8556704 		.word	73881080
 5853 0600 CDFFE8BC 		.word	-1125580851
 5854 0604 D2C58ACC 		.word	-863320622
 5855 0608 821AE62F 		.word	803609218
 5856 060c 8BC4530D 		.word	223593611
 5857 0610 C7D60272 		.word	1912788679
 5858 0614 7261F1F6 		.word	-151953038
 5859 0618 F3A5833B 		.word	998483443
 5860 061c 115E6E04 		.word	74341905
 5861 0620 017F00D8 		.word	-671056127
 5862 0624 64FFB8E7 		.word	-407306396
 5863 0628 8331F45A 		.word	1525952899
 5864 062c 12EFB17F 		.word	2142367506
 5865 0630 3CA0E135 		.word	903979068
 5866 0634 A65E5C04 		.word	73162406
 5867 0638 5B003D30 		.word	809304155
 5868 063c C306016E 		.word	1845561027
 5869 0640 B173DD88 		.word	-1998752847
 5870 0644 8435C748 		.word	1221014916
 5871 0648 D9D05E99 		.word	-1721839399
 5872 064c 8F707076 		.word	1987080335
 5873 0650 B72A6AC5 		.word	-982897993
 5874 0654 A85E3838 		.word	943218344
 5875 0658 1FCF01E9 		.word	-385757409
 5876 065c ED942544 		.word	1143313645
 5877 0660 5BB6D412 		.word	315930203
 5878 0664 C9A2FAF8 		.word	-117792055
 5879 0668 370CC996 		.word	-1765209033
 5880 066c 3B34C294 		.word	-1799211973
 5881 0670 1F8D975E 		.word	1586990367
ARM GAS  /tmp/ccwGYw5D.s 			page 102


 5882 0674 A1E426D3 		.word	-752425823
 5883 0678 8EE62E4C 		.word	1278142094
 5884 067c 51FA96A7 		.word	-1483277743
 5885 0680 D7DD3A82 		.word	-2110071337
 5886 0684 04B69F35 		.word	899659268
 5887 0688 B39366E5 		.word	-446262349
 5888 068c 83612A9E 		.word	-1641389693
 5889 0690 803CBF3C 		.word	1019165824
 5890 0694 8EB785F8 		.word	-125454450
 5891 0698 E96697C6 		.word	-963156247
 5892 069c A92DADE4 		.word	-458412631
 5893 06a0 618A048E 		.word	-1912305055
 5894 06a4 427F7F35 		.word	897548098
 5895 06a8 A0D992C0 		.word	-1064117856
 5896 06ac 8C192D08 		.word	137173388
 5897 06b0 EFD83EC0 		.word	-1069623057
 5898 06b4 F41A3AFC 		.word	-63300876
 5899 06b8 43517BC3 		.word	-1015328445
 5900 06bc 4640E9C5 		.word	-974569402
 5901 06c0 9E5FE72B 		.word	736583582
 5902 06c4 8C536A47 		.word	1198150540
 5903 06c8 783A12CB 		.word	-887997832
 5904 06cc E8A9D16F 		.word	1876011496
 5905 06d0 4BC009B1 		.word	-1324761013
 5906 06d4 F04D5ED8 		.word	-664908304
 5907 06d8 474746DB 		.word	-616151225
 5908 06dc AF3D2863 		.word	1663581615
 5909 06e0 15DFF2BA 		.word	-1158488299
 5910 06e4 F78C72CE 		.word	-831353609
 5911 06e8 F4A7D90A 		.word	182036468
 5912 06ec 55C492E5 		.word	-443366315
 5913 06f0 C3BC34E8 		.word	-399196989
 5914 06f4 AD26B2FA 		.word	-88987987
 5915 06f8 38A98119 		.word	427927864
 5916 06fc AB19BD68 		.word	1757223339
 5917 0700 59D68718 		.word	411555417
 5918 0704 51AD8EC0 		.word	-1064391343
 5919 0708 5A3059B3 		.word	-1286000550
 5920 070c F4D57433 		.word	863294964
 5921 0710 E34FE7CF 		.word	-806924317
 5922 0714 81699896 		.word	-1768396415
 5923 0718 D6DF6F3C 		.word	1013964758
 5924 071c F5925249 		.word	1230148341
 5925 0720 96C8CE1A 		.word	449759382
 5926 0724 9E8C874A 		.word	1250397342
 5927 0728 84445BEC 		.word	-329563004
 5928 072c 10B264D9 		.word	-647712240
 5929 0730 A7604D66 		.word	1716347047
 5930 0734 E2F79666 		.word	1721169890
 5931 0738 37680326 		.word	637757495
 5932 073c 0D53C70E 		.word	247943949
 5933 0740 BB8726AD 		.word	-1389983813
 5934 0744 053AA12D 		.word	765540869
 5935 0748 FA212EF3 		.word	-215080454
 5936 074c 6A3BF8A1 		.word	-1577567382
 5937 0750 7B60D41D 		.word	500457595
 5938 0754 F55E0F39 		.word	957308661
ARM GAS  /tmp/ccwGYw5D.s 			page 103


 5939 0758 0B3F8664 		.word	1686519563
 5940 075c A607620F 		.word	258082726
 5941 0760 3382130F 		.word	252936755
 5942 0764 BBE367BD 		.word	-1117264965
 5943 0768 18A72A27 		.word	657106712
 5944 076c 6CB966DD 		.word	-580470420
 5945 0770 AE88EC26 		.word	653035694
 5946 0774 0704D08E 		.word	-1898970105
 5947 0778 CF6DED08 		.word	149777871
 5948 077c 72B00DFF 		.word	-15880078
 5949 0780 53D5954C 		.word	1284887891
 5950 0784 01A19F74 		.word	1956618497
 5951 0788 8A0A685D 		.word	1567099530
 5952 078c FD5240A4 		.word	-1539288323
 5953 0790 6F563BFF 		.word	-12888465
 5954 0794 17433B18 		.word	406536983
 5955 0798 A30E7488 		.word	-2005659997
 5956 079c 3C513B31 		.word	825971004
 5957 07a0 4915D108 		.word	147920201
 5958 07a4 ACE202B4 		.word	-1274879316
 5959 07a8 1CE2DEB4 		.word	-1260461540
 5960 07ac 0BE11E07 		.word	119464203
 5961 07b0 0E32F247 		.word	1207054862
 5962 07b4 DD87B926 		.word	649693149
 5963 07b8 819FF186 		.word	-2030985343
 5964 07bc F9BC3A2D 		.word	758824185
 5965 07c0 A2815581 		.word	-2125102686
 5966 07c4 0185284C 		.word	1277723905
 5967 07c8 AF112263 		.word	1663177135
 5968 07cc 566D0A9A 		.word	-1710592682
 5969 07d0 992EAB0C 		.word	212545177
 5970 07d4 0F7ABA19 		.word	431651343
 5971 07d8 DF8CD9DE 		.word	-556167969
 5972 07dc 10FA36C0 		.word	-1070138864
 5973 07e0 09D0FBC1 		.word	-1040461815
 5974 07e4 BA08AE29 		.word	699271354
 5975 07e8 1658D106 		.word	114382870
 5976 07ec 90B1680B 		.word	191410576
 5977 07f0 8F0D9E9B 		.word	-1684140657
 5978 07f4 7732EBC2 		.word	-1024773513
 5979 07f8 9401D4B6 		.word	-1227619948
 5980 07fc C4A2B2A6 		.word	-1498242364
 5981 0800 CF49356D 		.word	1832208847
 5982 0804 0FE533D4 		.word	-734796529
 5983 0808 5E66CDFA 		.word	-87202210
 5984 080c 6F69336F 		.word	1865640303
 5985 0810 B4FC11CE 		.word	-837681996
 5986 0814 ACFD5B69 		.word	1767636396
 5987 0818 60987CAF 		.word	-1350789024
 5988 081c 52E20E81 		.word	-2129730990
 5989 0820 2CBB5971 		.word	1901706028
 5990 0824 E10F4565 		.word	1699024865
 5991 0828 7B358B75 		.word	1972057467
 5992 082c BEBEDFF7 		.word	-136331586
 5993 0830 72EA9FD6 		.word	-694162830
 5994 0834 747E052B 		.word	721780340
 5995 0838 45177392 		.word	-1837951163
ARM GAS  /tmp/ccwGYw5D.s 			page 104


 5996 083c 7A7185D4 		.word	-729452166
 5997 0840 985ACBF0 		.word	-255108456
 5998 0844 8A1A7411 		.word	292821642
 5999 0848 BF10311F 		.word	523309247
 6000 084c 938FDAD3 		.word	-740651117
 6001 0850 DF2A38AB 		.word	-1422382369
 6002 0854 CBE29419 		.word	429187787
 6003 0858 4E609A2F 		.word	798646350
 6004 085c A745606A 		.word	1784694183
 6005 0860 1D41B2A2 		.word	-1565376227
 6006 0864 3F0D0C17 		.word	386665791
 6007 0868 E0960E51 		.word	1359910624
 6008 086c 3EB80EBE 		.word	-1106331586
 6009 0870 CCB36588 		.word	-2006600756
 6010 0874 739FCC3B 		.word	1003265907
 6011 0878 9057E1F9 		.word	-102672496
 6012 087c FA5CE4D3 		.word	-740008710
 6013 0880 69763FE8 		.word	-398494103
 6014 0884 BB691FCE 		.word	-836802117
 6015 0888 6B7D8772 		.word	1921482091
 6016 088c 82AEF809 		.word	167292546
 6017 0890 8D274432 		.word	843327373
 6018 0894 54AE4895 		.word	-1790398892
 6019 0898 9CC1C2E3 		.word	-473775716
 6020 089c DE557720 		.word	544691678
 6021 08a0 4519EF6F 		.word	1877940549
 6022 08a4 D961BD87 		.word	-2017631783
 6023 08a8 C3282DB1 		.word	-1322440509
 6024 08ac EF3C8118 		.word	411122927
 6025 08b0 AA64DF72 		.word	1927242922
 6026 08b4 D6D1BC9F 		.word	-1615015466
 6027 08b8 0DB05471 		.word	1901375501
 6028 08bc E55EDC48 		.word	1222401765
 6029 08c0 99A1E5F7 		.word	-135945831
 6030 08c4 BF903712 		.word	305631423
 6031 08c8 B7CB9C98 		.word	-1734554697
 6032 08cc CFB8EFE0 		.word	-521160497
 6033 08d0 799C510A 		.word	173120633
 6034 08d4 FE2B7AC2 		.word	-1032180738
 6035 08d8 45F4F6DF 		.word	-537463739
 6036 08dc ED0AFBF2 		.word	-218428691
 6037 08e0 5F02B5F0 		.word	-256572833
 6038 08e4 7595C041 		.word	1103140213
 6039 08e8 229FFA40 		.word	1090166562
 6040 08ec D7430555 		.word	1426408407
 6041 08f0 D0FB0B38 		.word	940309456
 6042 08f4 ADC8A38F 		.word	-1885091667
 6043 08f8 25D528DB 		.word	-618080987
 6044 08fc 15903EA1 		.word	-1589735403
 6045 0900 BC5CB6A2 		.word	-1565107012
 6046 0904 50A3F7F9 		.word	-101211312
 6047 0908 2642462A 		.word	709247526
 6048 090c 72B9040B 		.word	184858994
 6049 0910 A1073FE2 		.word	-499185759
 6050 0914 41E25C26 		.word	643621441
 6051 0918 6F529714 		.word	345461359
 6052 091c B0D6F02B 		.word	737203888
ARM GAS  /tmp/ccwGYw5D.s 			page 105


 6053 0920 B76F214B 		.word	1260482487
 6054 0924 3FDDD4D3 		.word	-741024449
 6055 0928 6AA2DDFB 		.word	-69361046
 6056 092c 67B8D7F7 		.word	-136857497
 6057 0930 5C500867 		.word	1728598108
 6058 0934 3FB8B7AE 		.word	-1363691457
 6059 0938 9FE82F16 		.word	372238495
 6060 093c 5A4AA942 		.word	1118390874
 6061 0940 91F1ADEA 		.word	-357699183
 6062 0944 0BAD4658 		.word	1481026827
 6063 0948 D768A225 		.word	631400663
 6064 094c 90488A0F 		.word	260720784
 6065 0950 F6C14D49 		.word	1229832694
 6066 0954 503060E8 		.word	-396349360
 6067 0958 3DDE5EC6 		.word	-966861251
 6068 095c 69D92D2C 		.word	741202281
 6069 0960 179C8493 		.word	-1820025833
 6070 0964 1D17026D 		.word	1828853533
 6071 0968 DD50A21D 		.word	497176797
 6072 096c BA880446 		.word	1174702266
 6073 0970 85543A3C 		.word	1010455685
 6074 0974 06C71048 		.word	1209059078
 6075 0978 BC6DC542 		.word	1120234940
 6076 097c 1FFA37F4 		.word	-197658081
 6077 0980 AB7D0F4A 		.word	1242529195
 6078 0984 14D7A06A 		.word	1788925716
 6079 0988 ACE97617 		.word	393669036
 6080 098c 9397040F 		.word	251959187
 6081 0990 8697F3F5 		.word	-168585338
 6082 0994 50A0C052 		.word	1388355664
 6083 0998 A87A7054 		.word	1416657576
 6084 099c 335BF4AA 		.word	-1426826445
 6085 09a0 4A368DC1 		.word	-1047710134
 6086 09a4 337CE385 		.word	-2048689101
 6087 09a8 6571493E 		.word	1045000549
 6088 09ac 069B0BD4 		.word	-737436922
 6089 09b0 4454EC15 		.word	367809604
 6090 09b4 811617F4 		.word	-199813503
 6091 09b8 BC72F2F4 		.word	-185437508
 6092 09bc 0D31F6CD 		.word	-839503603
 6093 09c0 EFB7A88E 		.word	-1901545489
 6094 09c4 23C67374 		.word	1953744419
 6095 09c8 8722BC85 		.word	-2051267961
 6096 09cc 1835E908 		.word	149501208
 6097 09d0 348EDA2B 		.word	735743540
 6098 09d4 72679541 		.word	1100310386
 6099 09d8 F22F9EDA 		.word	-627167246
 6100 09dc BA08D0F0 		.word	-254801734
 6101 09e0 B1D31424 		.word	605344689
 6102 09e4 1D671229 		.word	689071901
 6103 09e8 76EA19B0 		.word	-1340478858
 6104 09ec 854975B3 		.word	-1284159099
 6105 09f0 DBCB3B45 		.word	1161546715
 6106 09f4 6DB9615C 		.word	1549908333
 6107 09f8 8B7B88CA 		.word	-897025141
 6108 09fc F5C2D55B 		.word	1540735733
 6109 0a00 54319AF4 		.word	-191221420
ARM GAS  /tmp/ccwGYw5D.s 			page 106


 6110 0a04 9E460FEF 		.word	-284211554
 6111 0a08 9A2E2B6E 		.word	1848323738
 6112 0a0c 95A5853E 		.word	1048946069
 6113 0a10 9C4A92AA 		.word	-1433253220
 6114 0a14 1EECAA45 		.word	1168829470
 6115 0a18 19479EA0 		.word	-1600239847
 6116 0a1c C8DF12AA 		.word	-1441603640
 6117 0a20 1D9FF64D 		.word	1308008221
 6118 0a24 2772F226 		.word	653423143
 6119 0a28 735EFFA2 		.word	-1560322445
 6120 0a2c 2CC8E4E0 		.word	-521877460
 6121 0a30 44DDA9B7 		.word	-1213604540
 6122 0a34 73CED8B9 		.word	-1176973709
 6123 0a38 01A98CE4 		.word	-460543743
 6124 0a3c 736E036C 		.word	1812164211
 6125 0a40 38316E0F 		.word	258879800
 6126 0a44 2AE1FA5C 		.word	1559945514
 6127 0a48 5A34AD25 		.word	632108122
 6128 0a4c 00EF6669 		.word	1768353536
 6129 0a50 C52B6745 		.word	1164389317
 6130 0a54 4BC69389 		.word	-1986804149
 6131 0a58 24BEAF96 		.word	-1766867420
 6132 0a5c 58F62F29 		.word	691009112
 6133 0a60 0234215E 		.word	1579234306
 6134 0a64 440D25D5 		.word	-718992060
 6135 0a68 FEC99243 		.word	1133693438
 6136 0a6c 270E58F6 		.word	-162001369
 6137 0a70 E8721CDA 		.word	-635669784
 6138 0a74 7F397B09 		.word	159070591
 6139 0a78 76721B31 		.word	823882358
 6140 0a7c 900C4E64 		.word	1682836624
 6141 0a80 F05371A4 		.word	-1536076816
 6142 0a84 E121E4E1 		.word	-505142815
 6143 0a88 C9180492 		.word	-1845225271
 6144 0a8c 793B6CB8 		.word	-1200866439
 6145 0a90 72765D70 		.word	1885173362
 6146 0a94 87CEBD93 		.word	-1816277369
 6147 0a98 779AB7CA 		.word	-893937033
 6148 0a9c 93E75AF2 		.word	-228923501
 6149 0aa0 0C9D866D 		.word	1837538572
 6150 0aa4 A394311F 		.word	523343011
 6151 0aa8 64C28649 		.word	1233568356
 6152 0aac 82C8559D 		.word	-1655322494
 6153 0ab0 5E946E09 		.word	158241886
 6154 0ab4 A35EFB49 		.word	1241210531
 6155 0ab8 3E0ADB13 		.word	333122110
 6156 0abc 53E6B839 		.word	968418899
 6157 0ac0 592EFDB6 		.word	-1224921511
 6158 0ac4 00427537 		.word	930431488
 6159 0ac8 8FC95592 		.word	-1839871601
 6160 0acc 66C0E235 		.word	904052838
 6161 0ad0 39572A0E 		.word	237655865
 6162 0ad4 1AB2DAD9 		.word	-639978982
 6163 0ad8 06DB190F 		.word	253352710
 6164 0adc 2F2F1239 		.word	957493039
 6165 0ae0 3CD5CA03 		.word	63624508
 6166 0ae4 E0E1BCCF 		.word	-809704992
ARM GAS  /tmp/ccwGYw5D.s 			page 107


 6167 0ae8 E3175CE6 		.word	-430172189
 6168 0aec 0F2C5B22 		.word	576400399
 6169 0af0 7738A19A 		.word	-1700710281
 6170 0af4 D2F1BA72 		.word	1924854226
 6171 0af8 8DFF80CE 		.word	-830406771
 6172 0afc F80AE88D 		.word	-1914172680
 6173 0b00 76BB7B20 		.word	544979830
 6174 0b04 D9A8BEAF 		.word	-1346459431
 6175 0b08 58277821 		.word	561522520
 6176 0b0c 7C7E1C92 		.word	-1843626372
 6177 0b10 B136041C 		.word	470038193
 6178 0b14 4BB7A2DF 		.word	-542984373
 6179 0b18 048C362E 		.word	775326724
 6180 0b1c 06491987 		.word	-2028386042
 6181 0b20 F53D99A3 		.word	-1550238219
 6182 0b24 BB28F9B5 		.word	-1241962309
 6183 0b28 6AD2B3F3 		.word	-206318998
 6184 0b2c B5759D63 		.word	1671263669
 6185 0b30 5050B585 		.word	-2051714992
 6186 0b34 8AA71A01 		.word	18524042
 6187 0b38 E1FD745B 		.word	1534393825
 6188 0b3c 6A5E31FC 		.word	-63873430
 6189 0b40 FAECD6E8 		.word	-388567814
 6190 0b44 1AD41F56 		.word	1444926490
 6191 0b48 867FEC1A 		.word	451706758
 6192 0b4c F6448C5F 		.word	1603028214
 6193 0b50 1D742449 		.word	1227125789
 6194 0b54 7B2A4598 		.word	-1740297605
 6195 0b58 889038EE 		.word	-298282872
 6196 0b5c ADA7D4E6 		.word	-422271059
 6197 0b60 5DC79345 		.word	1167312733
 6198 0b64 D12E5560 		.word	1616195281
 6199 0b68 621127DD 		.word	-584642206
 6200 0b6c A40DA770 		.word	1889996196
 6201 0b70 DBC7A27B 		.word	2074265563
 6202 0b74 93DEAED2 		.word	-760291693
 6203 0b78 57AEE29B 		.word	-1679643049
 6204 0b7c 9AAFDF35 		.word	903851930
 6205 0b80 366673AA 		.word	-1435277770
 6206 0b84 CD6F956B 		.word	1804955597
 6207 0b88 7EAB2CAE 		.word	-1372804226
 6208 0b8c 971DF509 		.word	167058839
 6209 0b90 6699340F 		.word	255105382
 6210 0b94 41BF10FB 		.word	-82788543
 6211 0b98 2B0D831C 		.word	478350635
 6212 0b9c D7C7A51D 		.word	497403863
 6213 0ba0 2568CE3C 		.word	1020160037
 6214 0ba4 83E4415C 		.word	1547822211
 6215 0ba8 3B3C57F9 		.word	-111723461
 6216 0bac 8F11AD15 		.word	363663759
 6217 0bb0 B83630F2 		.word	-231721288
 6218 0bb4 C75285A2 		.word	-1568320825
 6219 0bb8 D6B9F4DB 		.word	-604718634
 6220 0bbc FDC07770 		.word	1886896381
 6221 0bc0 1C66B946 		.word	1186555420
 6222 0bc4 8DFF63BF 		.word	-1083965555
 6223 0bc8 71FD2C0D 		.word	221052273
ARM GAS  /tmp/ccwGYw5D.s 			page 108


 6224 0bcc 6BD3DFA1 		.word	-1579166869
 6225 0bd0 F7F847A8 		.word	-1471678217
 6226 0bd4 40E17303 		.word	57925952
 6227 0bd8 44FE0EE5 		.word	-452002236
 6228 0bdc 2E63A853 		.word	1403544366
 6229 0be0 51806D69 		.word	1768783953
 6230 0be4 68FF7609 		.word	158793576
 6231 0be8 8A464FC7 		.word	-951105910
 6232 0bec 950CECDA 		.word	-622064491
 6233 0bf0 BD264E5E 		.word	1582180029
 6234 0bf4 C34D9962 		.word	1654214083
 6235 0bf8 C1FCE134 		.word	887225537
 6236 0bfc 6DA78C02 		.word	42772333
 6237 0c00 EE7798FC 		.word	-57116690
 6238 0c04 DC471DD1 		.word	-786610212
 6239 0c08 02001D80 		.word	-2145583102
 6240 0c0c 1062B3C8 		.word	-927768048
 6241 0c10 B660C254 		.word	1422024886
 6242 0c14 17C102D0 		.word	-805125865
 6243 0c18 46F06269 		.word	1768091718
 6244 0c1c D87CC104 		.word	79789272
 6245 0c20 F5DDDAB0 		.word	-1327833611
 6246 0c24 94D09B6D 		.word	1838928020
 6247 0c28 C055CE24 		.word	617502144
 6248 0c2c 7535A2BE 		.word	-1096665739
 6249 0c30 B503DA72 		.word	1926890421
 6250 0c34 E6563366 		.word	1714640614
 6251 0c38 7474D9FE 		.word	-19303308
 6252 0c3c E94DBAF7 		.word	-138785303
 6253 0c40 3F26E1EB 		.word	-337566145
 6254 0c44 34FADBD0 		.word	-790889932
 6255 0c48 E67CAE71 		.word	1907260646
 6256 0c4c 35377655 		.word	1433810741
 6257 0c50 23F5A682 		.word	-2102987485
 6258 0c54 530544D2 		.word	-767294125
 6259 0c58 411C1352 		.word	1376984129
 6260 0c5c 00961FE3 		.word	-484469248
 6261 0c60 C66E6BEA 		.word	-362058042
 6262 0c64 1692BBD1 		.word	-776236522
 6263 0c68 44FCC273 		.word	1942158404
 6264 0c6c 2ED1A137 		.word	933351726
 6265 0c70 94A2D089 		.word	-1982815596
 6266 0c74 AC7E0EC1 		.word	-1056014676
 6267 0c78 7BD434CE 		.word	-835398533
 6268 0c7c 59623AAA 		.word	-1439014311
 6269 0c80 D3DCF336 		.word	921951443
 6270 0c84 F59DCFFB 		.word	-70279691
 6271 0c88 6073BFD2 		.word	-759205024
 6272 0c8c 50EDED6C 		.word	1827532112
 6273 0c90 5B4F50DF 		.word	-548384933
 6274 0c94 FA101749 		.word	1226248442
 6275 0c98 EEDA797E 		.word	2121915118
 6276 0c9c 62DD9823 		.word	597220706
 6277 0ca0 9E56096D 		.word	1829328542
 6278 0ca4 A30547CF 		.word	-817429085
 6279 0ca8 69F74951 		.word	1363801961
 6280 0cac BB1906EA 		.word	-368698949
ARM GAS  /tmp/ccwGYw5D.s 			page 109


 6281 0cb0 4C03F635 		.word	905315148
 6282 0cb4 77039CFF 		.word	-6552713
 6283 0cb8 1062041C 		.word	470049296
 6284 0cbc B2F51757 		.word	1461188018
 6285 0cc0 5E89DD21 		.word	568166750
 6286 0cc4 C929E29F 		.word	-1612568119
 6287 0cc8 5184C240 		.word	1086489681
 6288 0ccc 0085518E 		.word	-1907260160
 6289 0cd0 CD7E631D 		.word	493059789
 6290 0cd4 39D213FA 		.word	-99364295
 6291 0cd8 DE283C0E 		.word	238823646
 6292 0cdc 562C0A66 		.word	1711942742
 6293 0ce0 D0CB7FD6 		.word	-696267824
 6294 0ce4 AE88CA9C 		.word	-1664448338
 6295 0ce8 96F0A90E 		.word	246018198
 6296 0cec 782447C8 		.word	-934861704
 6297 0cf0 4D2BE972 		.word	1927883597
 6298 0cf4 81F4B232 		.word	850588801
 6299 0cf8 5324524F 		.word	1330783315
 6300 0cfc 4CE54E62 		.word	1649337676
 6301 0d00 CCEC97D8 		.word	-661132084
 6302 0d04 E49C5409 		.word	156540132
 6303 0d08 AA80983F 		.word	1066959018
 6304 0d0c D9D1494D 		.word	1296683481
 6305 0d10 207C3A04 		.word	70941728
 6306 0d14 23243C72 		.word	1916544035
 6307 0d18 C0FBBD92 		.word	-1833043008
 6308 0d1c FB2A394F 		.word	1329146619
 6309 0d20 D94FE47D 		.word	2112114649
 6310 0d24 FAF86969 		.word	1768552698
 6311 0d28 5621B357 		.word	1471357270
 6312 0d2c E4FB6CB6 		.word	-1234371612
 6313 0d30 3CBC8E36 		.word	915323964
 6314 0d34 03A82FDB 		.word	-617633789
 6315 0d38 9C39DBCC 		.word	-858048100
 6316 0d3c 77793E8A 		.word	-1975617161
 6317 0d40 25B1C406 		.word	113553701
 6318 0d44 1F88E1DD 		.word	-572422113
 6319 0d48 8CCAE3F6 		.word	-152843636
 6320 0d4c 00E334AE 		.word	-1372265728
 6321 0d50 E9137A5C 		.word	1551504361
 6322 0d54 DE9969EF 		.word	-278292002
 6323 0d58 0444C270 		.word	1891779588
 6324 0d5c 23D08838 		.word	948490275
 6325 0d60 8110F944 		.word	1157173377
 6326 0d64 56032876 		.word	1982333782
 6327 0d68 0455015F 		.word	1593922820
 6328 0d6c 61CF9F3D 		.word	1033883489
 6329 0d70 6ED32C63 		.word	1663882094
 6330 0d74 C8ED2718 		.word	405269960
 6331 0d78 36231018 		.word	403710774
 6332 0d7c 472EE6A5 		.word	-1511641529
 6333 0d80 C8D6AC2F 		.word	799856328
 6334 0d84 E35E821A 		.word	444751587
 6335 0d88 66BCBC54 		.word	1421655142
 6336 0d8c 54639C69 		.word	1771856724
 6337 0d90 3199DF98 		.word	-1730176719
ARM GAS  /tmp/ccwGYw5D.s 			page 110


 6338 0d94 F7EDE30C 		.word	216264183
 6339 0d98 DC5A6A46 		.word	1181375196
 6340 0d9c E668472C 		.word	742877414
 6341 0da0 C94BA690 		.word	-1868149815
 6342 0da4 8CFF46B3 		.word	-1287192692
 6343 0da8 5C9F77E4 		.word	-461922468
 6344 0dac 20600A63 		.word	1661624352
 6345 0db0 84E805BC 		.word	-1140463484
 6346 0db4 64D049D9 		.word	-649473948
 6347 0db8 A052E6F9 		.word	-102346080
 6348 0dbc 41645E7B 		.word	2069783617
 6349 0dc0 4A44281D 		.word	489178186
 6350 0dc4 2C426921 		.word	560546348
 6351 0dc8 396A13BE 		.word	-1106023879
 6352 0dcc D8C596E9 		.word	-375994920
 6353 0dd0 CE7F0CFB 		.word	-83066930
 6354 0dd4 E5AF8723 		.word	596094949
 6355 0dd8 4A748D0C 		.word	210596938
 6356 0ddc CB73AFB8 		.word	-1196461109
 6357 0de0 FD868B33 		.word	864782077
 6358 0de4 AA83DE5F 		.word	1608418218
 6359 0de8 FF5C8AA5 		.word	-1517658881
 6360 0dec 58F1E3FE 		.word	-18615976
 6361 0df0 3394AC20 		.word	548181043
 6362 0df4 6F8FEEC9 		.word	-907112593
 6363 0df8 95083F7F 		.word	2134837397
 6364 0dfc 5F3936A0 		.word	-1607059105
 6365 0e00 70770FA1 		.word	-1592821904
 6366 0e04 BBC6738C 		.word	-1938569541
 6367 0e08 240E2AA1 		.word	-1591079388
 6368 0e0c 816DF1A6 		.word	-1494127231
 6369 0e10 9F2BBC51 		.word	1371286431
 6370 0e14 82F60D10 		.word	269350530
 6371 0e18 33B55F87 		.word	-2023770829
 6372 0e1c 016BE34B 		.word	1273195265
 6373 0e20 BB6DB59F 		.word	-1615499845
 6374 0e24 6E082692 		.word	-1843001234
 6375 0e28 F8A4E707 		.word	132621560
 6376 0e2c 8BEF6F30 		.word	812642187
 6377 0e30 202FD566 		.word	1725247264
 6378 0e34 05CCACEE 		.word	-290665467
 6379 0e38 C000DC1B 		.word	467402944
 6380 0e3c 879ABC8C 		.word	-1933796729
 6381 0e40 ABC4DAC0 		.word	-1059404629
 6382 0e44 5C8931E1 		.word	-516847268
 6383 0e48 12F12F71 		.word	1898967314
 6384 0e4c 40A474A8 		.word	-1468750784
 6385 0e50 57EE1C6A 		.word	1780280919
 6386 0e54 7CAE3263 		.word	1664265852
 6387 0e58 F835080C 		.word	201864696
 6388 0e5c 3E55E744 		.word	1156011326
 6389 0e60 2D003477 		.word	1999896621
 6390 0e64 FF3F506D 		.word	1833975807
 6391 0e68 5C42340B 		.word	187974236
 6392 0e6c 8BCB359D 		.word	-1657418869
 6393 0e70 B538870E 		.word	243742901
 6394 0e74 7602F795 		.word	-1778974090
ARM GAS  /tmp/ccwGYw5D.s 			page 111


 6395 0e78 18FCB85E 		.word	1589181464
 6396 0e7c 3A680A47 		.word	1191864378
 6397 0e80 82345190 		.word	-1873726334
 6398 0e84 DC61B781 		.word	-2118688292
 6399 0e88 6A27E901 		.word	32057194
 6400 0e8c 2A208702 		.word	42410026
 6401 0e90 8330E70C 		.word	216477827
 6402 0e94 EE41A4CD 		.word	-844873234
 6403 0e98 EFC63DC6 		.word	-969029905
 6404 0e9c 90064116 		.word	373360272
 6405 0ea0 EDA2066D 		.word	1829151469
 6406 0ea4 064A03F5 		.word	-184333818
 6407 0ea8 0B109B18 		.word	412815371
 6408 0eac 45774DDD 		.word	-582125755
 6409 0eb0 C91882AB 		.word	-1417537335
 6410 0eb4 72AE14D9 		.word	-652956046
 6411 0eb8 4FBBBC7A 		.word	2059189071
 6412 0ebc FD7934D7 		.word	-684426755
 6413 0ec0 E5C6D45A 		.word	1523893989
 6414 0ec4 16FBDE7E 		.word	2128542486
 6415 0ec8 4DD0065B 		.word	1527173197
 6416 0ecc 8FF02C26 		.word	640479375
 6417 0ed0 14CB7585 		.word	-2055877868
 6418 0ed4 B15BED12 		.word	317545393
 6419 0ed8 6B667107 		.word	124872299
 6420 0edc E3696481 		.word	-2124125725
 6421 0ee0 1E291E56 		.word	1444817182
 6422 0ee4 799DABD7 		.word	-676618887
 6423 0ee8 6116DEC1 		.word	-1042409887
 6424 0eec 22AF9DEB 		.word	-341987550
 6425 0ef0 13055E13 		.word	324928787
 6426 0ef4 EB2798F4 		.word	-191354901
 6427 0ef8 9C3FDDF0 		.word	-253935716
 6428 0efc 23DD360A 		.word	171367715
 6429 0f00 3C53D541 		.word	1104499516
 6430 0f04 C7328D09 		.word	160248519
 6431 0f08 8F628486 		.word	-2038144369
 6432 0f0c 9E5A5F7C 		.word	2086623902
 6433 0f10 11BD49E3 		.word	-481706735
 6434 0f14 AD28A239 		.word	966928557
 6435 0f18 18B1BAFD 		.word	-38096616
 6436 0f1c D6DF31E3 		.word	-483270698
 6437 0f20 D86ECC6B 		.word	1808559832
 6438 0f24 68AB0051 		.word	1358998376
 6439 0f28 0E267AEF 		.word	-277207538
 6440 0f2c BDC36071 		.word	1902166973
 6441 0f30 D750E8BC 		.word	-1125625641
 6442 0f34 A7D96390 		.word	-1872504409
 6443 0f38 89332E49 		.word	1227764617
 6444 0f3c 2A78B4D3 		.word	-743147478
 6445 0f40 901F82F3 		.word	-209576048
 6446 0f44 E8B649A1 		.word	-1589004568
 6447 0f48 AD7AEB66 		.word	1726708397
 6448 0f4c EDD9ED92 		.word	-1829905939
 6449 0f50 1631011A 		.word	436285718
 6450 0f54 5369B60B 		.word	196503891
 6451 0f58 BDA5864C 		.word	1283892669
ARM GAS  /tmp/ccwGYw5D.s 			page 112


 6452 0f5c 5A278172 		.word	1921066842
 6453 0f60 E547FFD3 		.word	-738244635
 6454 0f64 F7583850 		.word	1345870071
 6455 0f68 41640161 		.word	1627481153
 6456 0f6c BC16165E 		.word	1578505916
 6457 0f70 B19BFD7D 		.word	2113772465
 6458 0f74 1AF1B062 		.word	1655763226
 6459 0f78 595014CE 		.word	-837529511
 6460 0f7c 7E2E062C 		.word	738602622
 6461 0f80 2EAC5901 		.word	22653998
 6462 0f84 6F996FA7 		.word	-1485858449
 6463 0f88 1327DBCB 		.word	-874830061
 6464 0f8c 36771E28 		.word	673085238
 6465 0f90 4760E408 		.word	149184583
 6466 0f94 88D2D62A 		.word	718721672
 6467 0f98 F17E4E2C 		.word	743341809
 6468 0f9c F9352A28 		.word	673854969
 6469 0fa0 D25CCEC0 		.word	-1060217646
 6470 0fa4 1E4B359C 		.word	-1674228962
 6471 0fa8 29C27913 		.word	326746665
 6472 0fac C9EF99CF 		.word	-811995191
 6473 0fb0 1EC1823E 		.word	1048756510
 6474 0fb4 38AF2C99 		.word	-1725124808
 6475 0fb8 BD2A4D55 		.word	1431120573
