ARM GAS  /tmp/ccN6vd78.s 			page 1


   1              		.cpu cortex-m33
   2              		.eabi_attribute 27, 1
   3              		.eabi_attribute 28, 1
   4              		.eabi_attribute 20, 1
   5              		.eabi_attribute 21, 1
   6              		.eabi_attribute 23, 3
   7              		.eabi_attribute 24, 1
   8              		.eabi_attribute 25, 1
   9              		.eabi_attribute 26, 1
  10              		.eabi_attribute 30, 4
  11              		.eabi_attribute 34, 1
  12              		.eabi_attribute 18, 4
  13              		.file	"sp_int.c"
  14              		.text
  15              		.section	.text.ctMaskEq,"ax",%progbits
  16              		.align	1
  17              		.arch armv8-m.main
  18              		.arch_extension dsp
  19              		.syntax unified
  20              		.thumb
  21              		.thumb_func
  22              		.fpu fpv4-sp-d16
  24              	ctMaskEq:
  25              		@ args = 0, pretend = 0, frame = 0
  26              		@ frame_needed = 0, uses_anonymous_args = 0
  27              		@ link register save eliminated.
  28 0000 4B1E     		subs	r3, r1, #1
  29 0002 1B1A     		subs	r3, r3, r0
  30 0004 401A     		subs	r0, r0, r1
  31 0006 DB17     		asrs	r3, r3, #31
  32 0008 0138     		subs	r0, r0, #1
  33 000a 03EAE070 		and	r0, r3, r0, asr #31
  34 000e C0B2     		uxtb	r0, r0
  35 0010 7047     		bx	lr
  37              		.section	.text._sp_cmp_abs,"ax",%progbits
  38              		.align	1
  39              		.syntax unified
  40              		.thumb
  41              		.thumb_func
  42              		.fpu fpv4-sp-d16
  44              	_sp_cmp_abs:
  45              		@ args = 0, pretend = 0, frame = 0
  46              		@ frame_needed = 0, uses_anonymous_args = 0
  47 0000 0388     		ldrh	r3, [r0]
  48 0002 0A88     		ldrh	r2, [r1]
  49 0004 10B5     		push	{r4, lr}
  50 0006 9342     		cmp	r3, r2
  51 0008 0CD8     		bhi	.L8
  52              	.L10:
  53 000a 0DD3     		bcc	.L9
  54 000c 0BB9     		cbnz	r3, .L5
  55 000e 1846     		mov	r0, r3
  56              	.L2:
  57 0010 10BD     		pop	{r4, pc}
  58              	.L5:
  59 0012 50F82340 		ldr	r4, [r0, r3, lsl #2]
  60 0016 51F82320 		ldr	r2, [r1, r3, lsl #2]
ARM GAS  /tmp/ccN6vd78.s 			page 2


  61 001a 9442     		cmp	r4, r2
  62 001c 02D8     		bhi	.L8
  63 001e 03F1FF33 		add	r3, r3, #-1
  64 0022 F2E7     		b	.L10
  65              	.L8:
  66 0024 0120     		movs	r0, #1
  67 0026 F3E7     		b	.L2
  68              	.L9:
  69 0028 4FF0FF30 		mov	r0, #-1
  70 002c F0E7     		b	.L2
  72              		.section	.text._sp_sub_d,"ax",%progbits
  73              		.align	1
  74              		.syntax unified
  75              		.thumb
  76              		.thumb_func
  77              		.fpu fpv4-sp-d16
  79              	_sp_sub_d:
  80              		@ args = 0, pretend = 0, frame = 0
  81              		@ frame_needed = 0, uses_anonymous_args = 0
  82 0000 F8B5     		push	{r3, r4, r5, r6, r7, lr}
  83 0002 0688     		ldrh	r6, [r0]
  84 0004 1446     		mov	r4, r2
  85 0006 1680     		strh	r6, [r2]	@ movhi
  86 0008 0EB9     		cbnz	r6, .L12
  87 000a 5660     		str	r6, [r2, #4]
  88              	.L11:
  89 000c F8BD     		pop	{r3, r4, r5, r6, r7, pc}
  90              	.L12:
  91 000e 4368     		ldr	r3, [r0, #4]
  92 0010 591A     		subs	r1, r3, r1
  93 0012 34BF     		ite	cc
  94 0014 0123     		movcc	r3, #1
  95 0016 0023     		movcs	r3, #0
  96 0018 5160     		str	r1, [r2, #4]
  97 001a 06D2     		bcs	.L16
  98 001c 0123     		movs	r3, #1
  99 001e 00F10801 		add	r1, r0, #8
 100 0022 02F10805 		add	r5, r2, #8
 101              	.L17:
 102 0026 9E42     		cmp	r6, r3
 103 0028 0DD8     		bhi	.L18
 104              	.L16:
 105 002a A042     		cmp	r0, r4
 106 002c 06F1FF35 		add	r5, r6, #-1
 107 0030 12D1     		bne	.L19
 108              	.L21:
 109 0032 2B46     		mov	r3, r5
 110 0034 221D     		adds	r2, r4, #4
 111              	.L20:
 112 0036 52F82310 		ldr	r1, [r2, r3, lsl #2]
 113 003a 09B9     		cbnz	r1, .L22
 114 003c 013B     		subs	r3, r3, #1
 115 003e FAD2     		bcs	.L20
 116              	.L22:
 117 0040 0133     		adds	r3, r3, #1
 118 0042 2380     		strh	r3, [r4]	@ movhi
 119 0044 E2E7     		b	.L11
ARM GAS  /tmp/ccN6vd78.s 			page 3


 120              	.L18:
 121 0046 51F8042B 		ldr	r2, [r1], #4
 122 004a 013A     		subs	r2, r2, #1
 123 004c 45F8042B 		str	r2, [r5], #4
 124 0050 0132     		adds	r2, r2, #1
 125 0052 EAD1     		bne	.L16
 126 0054 0133     		adds	r3, r3, #1
 127 0056 E6E7     		b	.L17
 128              	.L19:
 129 0058 EA1A     		subs	r2, r5, r3
 130 005a 9F1C     		adds	r7, r3, #2
 131 005c 9200     		lsls	r2, r2, #2
 132 005e 0133     		adds	r3, r3, #1
 133 0060 00EB8701 		add	r1, r0, r7, lsl #2
 134 0064 9E42     		cmp	r6, r3
 135 0066 38BF     		it	cc
 136 0068 0022     		movcc	r2, #0
 137 006a 04EB8700 		add	r0, r4, r7, lsl #2
 138 006e FFF7FEFF 		bl	memmove
 139 0072 DEE7     		b	.L21
 141              		.section	.text._sp_div_2,"ax",%progbits
 142              		.align	1
 143              		.syntax unified
 144              		.thumb
 145              		.thumb_func
 146              		.fpu fpv4-sp-d16
 148              	_sp_div_2:
 149              		@ args = 0, pretend = 0, frame = 0
 150              		@ frame_needed = 0, uses_anonymous_args = 0
 151 0000 F0B5     		push	{r4, r5, r6, r7, lr}
 152 0002 0E1D     		adds	r6, r1, #4
 153 0004 3546     		mov	r5, r6
 154 0006 0024     		movs	r4, #0
 155 0008 30F804CB 		ldrh	ip, [r0], #4
 156 000c 0CF1FF33 		add	r3, ip, #-1
 157              	.L28:
 158 0010 50F8042B 		ldr	r2, [r0], #4
 159 0014 A342     		cmp	r3, r4
 160 0016 4FEA5202 		lsr	r2, r2, #1
 161 001a 11DC     		bgt	.L29
 162 001c BCF1000F 		cmp	ip, #0
 163 0020 08BF     		it	eq
 164 0022 0023     		moveq	r3, #0
 165 0024 01EB8300 		add	r0, r1, r3, lsl #2
 166 0028 0133     		adds	r3, r3, #1
 167 002a 9BB2     		uxth	r3, r3
 168 002c 4260     		str	r2, [r0, #4]
 169 002e 013B     		subs	r3, r3, #1
 170              	.L31:
 171 0030 56F82320 		ldr	r2, [r6, r3, lsl #2]
 172 0034 0AB9     		cbnz	r2, .L30
 173 0036 013B     		subs	r3, r3, #1
 174 0038 FAD2     		bcs	.L31
 175              	.L30:
 176 003a 0133     		adds	r3, r3, #1
 177 003c 0B80     		strh	r3, [r1]	@ movhi
 178 003e F0BD     		pop	{r4, r5, r6, r7, pc}
ARM GAS  /tmp/ccN6vd78.s 			page 4


 179              	.L29:
 180 0040 2A60     		str	r2, [r5]
 181 0042 0768     		ldr	r7, [r0]
 182 0044 0134     		adds	r4, r4, #1
 183 0046 42EAC772 		orr	r2, r2, r7, lsl #31
 184 004a 45F8042B 		str	r2, [r5], #4
 185 004e DFE7     		b	.L28
 187              		.section	.text._sp_sub_off,"ax",%progbits
 188              		.align	1
 189              		.syntax unified
 190              		.thumb
 191              		.thumb_func
 192              		.fpu fpv4-sp-d16
 194              	_sp_sub_off:
 195              		@ args = 0, pretend = 0, frame = 8
 196              		@ frame_needed = 0, uses_anonymous_args = 0
 197 0000 8242     		cmp	r2, r0
 198 0002 2DE9F74F 		push	{r0, r1, r2, r4, r5, r6, r7, r8, r9, r10, fp, lr}
 199 0006 B0F800C0 		ldrh	ip, [r0]
 200 000a 46D0     		beq	.L45
 201 000c 0025     		movs	r5, #0
 202              	.L35:
 203 000e ACB2     		uxth	r4, r5
 204 0010 A342     		cmp	r3, r4
 205 0012 44D8     		bhi	.L36
 206              	.L34:
 207 0014 0025     		movs	r5, #0
 208 0016 2B46     		mov	r3, r5
 209 0018 AE46     		mov	lr, r5
 210 001a 04F10108 		add	r8, r4, #1
 211 001e 00EB8808 		add	r8, r0, r8, lsl #2
 212 0022 02EB840A 		add	r10, r2, r4, lsl #2
 213              	.L37:
 214 0026 A445     		cmp	ip, r4
 215 0028 29D9     		bls	.L39
 216 002a 58F8046B 		ldr	r6, [r8], #4
 217 002e 0135     		adds	r5, r5, #1
 218 0030 F618     		adds	r6, r6, r3
 219 0032 0196     		str	r6, [sp, #4]
 220 0034 05F1FF3B 		add	fp, r5, #-1
 221 0038 0E88     		ldrh	r6, [r1]
 222 003a 1FFA8BFB 		uxth	fp, fp
 223 003e 4EF10009 		adc	r9, lr, #0
 224 0042 671C     		adds	r7, r4, #1
 225 0044 5E45     		cmp	r6, fp
 226 0046 BFB2     		uxth	r7, r7
 227 0048 33D8     		bhi	.L40
 228 004a 2146     		mov	r1, r4
 229              	.L41:
 230 004c 00EB8105 		add	r5, r0, r1, lsl #2
 231 0050 6D68     		ldr	r5, [r5, #4]
 232 0052 EB18     		adds	r3, r5, r3
 233 0054 02EB8105 		add	r5, r2, r1, lsl #2
 234 0058 01F10101 		add	r1, r1, #1
 235 005c 89B2     		uxth	r1, r1
 236 005e 6B60     		str	r3, [r5, #4]
 237 0060 4EF10003 		adc	r3, lr, #0
ARM GAS  /tmp/ccN6vd78.s 			page 5


 238 0064 8C45     		cmp	ip, r1
 239 0066 4FEAE37E 		asr	lr, r3, #31
 240 006a EFD8     		bhi	.L41
 241 006c 0CF1FF33 		add	r3, ip, #-1
 242 0070 1C1B     		subs	r4, r3, r4
 243 0072 BC45     		cmp	ip, r7
 244 0074 38BF     		it	cc
 245 0076 0024     		movcc	r4, #0
 246 0078 17FA84F4 		uxtah	r4, r7, r4
 247 007c A4B2     		uxth	r4, r4
 248              	.L39:
 249 007e 1480     		strh	r4, [r2]	@ movhi
 250 0080 44B1     		cbz	r4, .L33
 251 0082 013C     		subs	r4, r4, #1
 252 0084 131D     		adds	r3, r2, #4
 253              	.L44:
 254 0086 53F82410 		ldr	r1, [r3, r4, lsl #2]
 255 008a 09B9     		cbnz	r1, .L43
 256 008c 013C     		subs	r4, r4, #1
 257 008e FAD2     		bcs	.L44
 258              	.L43:
 259 0090 0134     		adds	r4, r4, #1
 260 0092 1480     		strh	r4, [r2]	@ movhi
 261              	.L33:
 262 0094 03B0     		add	sp, sp, #12
 263              		@ sp needed
 264 0096 BDE8F08F 		pop	{r4, r5, r6, r7, r8, r9, r10, fp, pc}
 265              	.L45:
 266 009a 1C46     		mov	r4, r3
 267 009c BAE7     		b	.L34
 268              	.L36:
 269 009e 0135     		adds	r5, r5, #1
 270 00a0 6E1E     		subs	r6, r5, #1
 271 00a2 B6B2     		uxth	r6, r6
 272 00a4 6645     		cmp	r6, ip
 273 00a6 B5D2     		bcs	.L34
 274 00a8 50F82540 		ldr	r4, [r0, r5, lsl #2]
 275 00ac 42F82540 		str	r4, [r2, r5, lsl #2]
 276 00b0 ADE7     		b	.L35
 277              	.L40:
 278 00b2 51F82530 		ldr	r3, [r1, r5, lsl #2]
 279 00b6 019C     		ldr	r4, [sp, #4]
 280 00b8 E31A     		subs	r3, r4, r3
 281 00ba 4AF82530 		str	r3, [r10, r5, lsl #2]
 282 00be 69F10003 		sbc	r3, r9, #0
 283 00c2 3C46     		mov	r4, r7
 284 00c4 4FEAE37E 		asr	lr, r3, #31
 285 00c8 ADE7     		b	.L37
 287              		.section	.text.sp_clamp_ct,"ax",%progbits
 288              		.align	1
 289              		.syntax unified
 290              		.thumb
 291              		.thumb_func
 292              		.fpu fpv4-sp-d16
 294              	sp_clamp_ct:
 295              		@ args = 0, pretend = 0, frame = 8
 296              		@ frame_needed = 0, uses_anonymous_args = 0
ARM GAS  /tmp/ccN6vd78.s 			page 6


 297 0000 37B5     		push	{r0, r1, r2, r4, r5, lr}
 298 0002 4FF6FF72 		movw	r2, #65535
 299 0006 0025     		movs	r5, #0
 300 0008 0388     		ldrh	r3, [r0]
 301 000a ADF80620 		strh	r2, [sp, #6]	@ movhi
 302 000e 00EB8301 		add	r1, r0, r3, lsl #2
 303              	.L52:
 304 0012 8142     		cmp	r1, r0
 305 0014 02D1     		bne	.L53
 306 0016 0B80     		strh	r3, [r1]	@ movhi
 307 0018 03B0     		add	sp, sp, #12
 308              		@ sp needed
 309 001a 30BD     		pop	{r4, r5, pc}
 310              	.L53:
 311 001c 51F80449 		ldr	r4, [r1], #-4
 312 0020 BDF80620 		ldrh	r2, [sp, #6]
 313 0024 013C     		subs	r4, r4, #1
 314 0026 92B2     		uxth	r2, r2
 315 0028 45F1FF34 		adc	r4, r5, #-1
 316 002c 2240     		ands	r2, r2, r4
 317 002e ADF80620 		strh	r2, [sp, #6]	@ movhi
 318 0032 BDF80620 		ldrh	r2, [sp, #6]
 319 0036 13FA82F3 		uxtah	r3, r3, r2
 320 003a 9BB2     		uxth	r3, r3
 321 003c E9E7     		b	.L52
 323              		.section	.text._sp_submod_ct,"ax",%progbits
 324              		.align	1
 325              		.syntax unified
 326              		.thumb
 327              		.thumb_func
 328              		.fpu fpv4-sp-d16
 330              	_sp_submod_ct:
 331              		@ args = 4, pretend = 0, frame = 16
 332              		@ frame_needed = 0, uses_anonymous_args = 0
 333 0000 2DE9F04F 		push	{r4, r5, r6, r7, r8, r9, r10, fp, lr}
 334 0004 0026     		movs	r6, #0
 335 0006 85B0     		sub	sp, sp, #20
 336 0008 8446     		mov	ip, r0
 337 000a 0E98     		ldr	r0, [sp, #56]
 338 000c 4FF0FF34 		mov	r4, #-1
 339 0010 051D     		adds	r5, r0, #4
 340 0012 A946     		mov	r9, r5
 341 0014 B246     		mov	r10, r6
 342 0016 3746     		mov	r7, r6
 343 0018 0294     		str	r4, [sp, #8]
 344 001a 0CF1040E 		add	lr, ip, #4
 345 001e 0394     		str	r4, [sp, #12]
 346 0020 01F10408 		add	r8, r1, #4
 347              	.L55:
 348 0024 9E42     		cmp	r6, r3
 349 0026 0DD1     		bne	.L56
 350 0028 0024     		movs	r4, #0
 351 002a 2146     		mov	r1, r4
 352 002c 2646     		mov	r6, r4
 353 002e 0197     		str	r7, [sp, #4]
 354 0030 32F8047B 		ldrh	r7, [r2], #4
 355              	.L57:
ARM GAS  /tmp/ccN6vd78.s 			page 7


 356 0034 A742     		cmp	r7, r4
 357 0036 2DD8     		bhi	.L58
 358 0038 0780     		strh	r7, [r0]	@ movhi
 359 003a 05B0     		add	sp, sp, #20
 360              		@ sp needed
 361 003c BDE8F04F 		pop	{r4, r5, r6, r7, r8, r9, r10, fp, lr}
 362 0040 FFF7FEBF 		b	sp_clamp_ct
 363              	.L56:
 364 0044 029C     		ldr	r4, [sp, #8]
 365 0046 BCF800B0 		ldrh	fp, [ip]
 366 004a B345     		cmp	fp, r6
 367 004c 08BF     		it	eq
 368 004e 0134     		addeq	r4, r4, #1
 369 0050 0294     		str	r4, [sp, #8]
 370 0052 039C     		ldr	r4, [sp, #12]
 371 0054 B1F800B0 		ldrh	fp, [r1]
 372 0058 B345     		cmp	fp, r6
 373 005a 08BF     		it	eq
 374 005c 0134     		addeq	r4, r4, #1
 375 005e 0394     		str	r4, [sp, #12]
 376 0060 DDF808B0 		ldr	fp, [sp, #8]
 377 0064 5EF8044B 		ldr	r4, [lr], #4
 378 0068 0136     		adds	r6, r6, #1
 379 006a 04EA0B04 		and	r4, r4, fp
 380 006e 14EB0A04 		adds	r4, r4, r10
 381 0072 DDF80CB0 		ldr	fp, [sp, #12]
 382 0076 58F804AB 		ldr	r10, [r8], #4
 383 007a 47F10007 		adc	r7, r7, #0
 384 007e 0AEA0B0A 		and	r10, r10, fp
 385 0082 B4EB0A04 		subs	r4, r4, r10
 386 0086 67F1000A 		sbc	r10, r7, #0
 387 008a 49F8044B 		str	r4, [r9], #4
 388 008e 4FEAEA77 		asr	r7, r10, #31
 389 0092 C7E7     		b	.L55
 390              	.L58:
 391 0094 2B68     		ldr	r3, [r5]
 392 0096 DDF804C0 		ldr	ip, [sp, #4]
 393 009a 5918     		adds	r1, r3, r1
 394 009c 52F8043B 		ldr	r3, [r2], #4
 395 00a0 46F10006 		adc	r6, r6, #0
 396 00a4 03EA0C03 		and	r3, r3, ip
 397 00a8 5B18     		adds	r3, r3, r1
 398 00aa 46F10001 		adc	r1, r6, #0
 399 00ae 45F8043B 		str	r3, [r5], #4
 400 00b2 CE17     		asrs	r6, r1, #31
 401 00b4 0134     		adds	r4, r4, #1
 402 00b6 BDE7     		b	.L57
 404              		.section	.text._sp_div_same_size,"ax",%progbits
 405              		.align	1
 406              		.syntax unified
 407              		.thumb
 408              		.thumb_func
 409              		.fpu fpv4-sp-d16
 411              	_sp_div_same_size:
 412              		@ args = 0, pretend = 0, frame = 0
 413              		@ frame_needed = 0, uses_anonymous_args = 0
 414 0000 8C46     		mov	ip, r1
ARM GAS  /tmp/ccN6vd78.s 			page 8


 415 0002 F8B5     		push	{r3, r4, r5, r6, r7, lr}
 416 0004 9646     		mov	lr, r2
 417 0006 3CF8083B 		ldrh	r3, [ip], #8
 418 000a 0688     		ldrh	r6, [r0]
 419 000c 5C1E     		subs	r4, r3, #1
 420 000e A4B2     		uxth	r4, r4
 421 0010 F31A     		subs	r3, r6, r3
 422              	.L60:
 423 0012 A5B2     		uxth	r5, r4
 424 0014 0CB9     		cbnz	r4, .L62
 425 0016 2546     		mov	r5, r4
 426 0018 08E0     		b	.L61
 427              	.L62:
 428 001a E718     		adds	r7, r4, r3
 429 001c 00EB8707 		add	r7, r0, r7, lsl #2
 430 0020 013C     		subs	r4, r4, #1
 431 0022 7F68     		ldr	r7, [r7, #4]
 432 0024 5CF82420 		ldr	r2, [ip, r4, lsl #2]
 433 0028 9742     		cmp	r7, r2
 434 002a F2D0     		beq	.L60
 435              	.L61:
 436 002c EC18     		adds	r4, r5, r3
 437 002e 00EB8404 		add	r4, r0, r4, lsl #2
 438 0032 01EB8505 		add	r5, r1, r5, lsl #2
 439 0036 6768     		ldr	r7, [r4, #4]
 440 0038 6C68     		ldr	r4, [r5, #4]
 441 003a A742     		cmp	r7, r4
 442 003c 09D3     		bcc	.L59
 443 003e 0EEB8302 		add	r2, lr, r3, lsl #2
 444 0042 5468     		ldr	r4, [r2, #4]
 445 0044 9BB2     		uxth	r3, r3
 446 0046 0134     		adds	r4, r4, #1
 447 0048 5460     		str	r4, [r2, #4]
 448 004a 0246     		mov	r2, r0
 449 004c FFF7FEFF 		bl	_sp_sub_off
 450 0050 0680     		strh	r6, [r0]	@ movhi
 451              	.L59:
 452 0052 F8BD     		pop	{r3, r4, r5, r6, r7, pc}
 454              		.section	.text._sp_copy,"ax",%progbits
 455              		.align	1
 456              		.syntax unified
 457              		.thumb
 458              		.thumb_func
 459              		.fpu fpv4-sp-d16
 461              	_sp_copy:
 462              		@ args = 0, pretend = 0, frame = 0
 463              		@ frame_needed = 0, uses_anonymous_args = 0
 464 0000 0288     		ldrh	r2, [r0]
 465 0002 38B5     		push	{r3, r4, r5, lr}
 466 0004 0546     		mov	r5, r0
 467 0006 0C46     		mov	r4, r1
 468 0008 1AB9     		cbnz	r2, .L65
 469 000a 4A60     		str	r2, [r1, #4]
 470              	.L66:
 471 000c 2B88     		ldrh	r3, [r5]
 472 000e 2380     		strh	r3, [r4]	@ movhi
 473 0010 38BD     		pop	{r3, r4, r5, pc}
ARM GAS  /tmp/ccN6vd78.s 			page 9


 474              	.L65:
 475 0012 011D     		adds	r1, r0, #4
 476 0014 9200     		lsls	r2, r2, #2
 477 0016 201D     		adds	r0, r4, #4
 478 0018 FFF7FEFF 		bl	memcpy
 479 001c F6E7     		b	.L66
 481              		.section	.text.sp_lshb,"ax",%progbits
 482              		.align	1
 483              		.syntax unified
 484              		.thumb
 485              		.thumb_func
 486              		.fpu fpv4-sp-d16
 488              	sp_lshb:
 489              		@ args = 0, pretend = 0, frame = 0
 490              		@ frame_needed = 0, uses_anonymous_args = 0
 491 0000 0288     		ldrh	r2, [r0]
 492 0002 2DE9F84F 		push	{r3, r4, r5, r6, r7, r8, r9, r10, fp, lr}
 493 0006 0446     		mov	r4, r0
 494 0008 92B3     		cbz	r2, .L80
 495 000a 4088     		ldrh	r0, [r0, #2]
 496 000c C1F34A15 		ubfx	r5, r1, #5, #11
 497 0010 5319     		adds	r3, r2, r5
 498 0012 8342     		cmp	r3, r0
 499 0014 46DA     		bge	.L76
 500 0016 11F01F01 		ands	r1, r1, #31
 501 001a 04F10407 		add	r7, r4, #4
 502 001e 4FEA8506 		lsl	r6, r5, #2
 503 0022 37D0     		beq	.L69
 504 0024 9646     		mov	lr, r2
 505 0026 54F82200 		ldr	r0, [r4, r2, lsl #2]
 506 002a C1F12009 		rsb	r9, r1, #32
 507 002e 20FA09FC 		lsr	ip, r0, r9
 508 0032 04EB8208 		add	r8, r4, r2, lsl #2
 509 0036 04EB060A 		add	r10, r4, r6
 510              	.L70:
 511 003a BEF1010F 		cmp	lr, #1
 512 003e 1AD1     		bne	.L71
 513 0040 6068     		ldr	r0, [r4, #4]
 514 0042 04EB060E 		add	lr, r4, r6
 515 0046 00FA01F1 		lsl	r1, r0, r1
 516 004a CEF80410 		str	r1, [lr, #4]
 517 004e BCF1000F 		cmp	ip, #0
 518 0052 05D0     		beq	.L73
 519 0054 04EB8303 		add	r3, r4, r3, lsl #2
 520 0058 0132     		adds	r2, r2, #1
 521 005a C3F804C0 		str	ip, [r3, #4]
 522 005e 2280     		strh	r2, [r4]	@ movhi
 523              	.L73:
 524 0060 2388     		ldrh	r3, [r4]
 525 0062 3246     		mov	r2, r6
 526 0064 2B44     		add	r3, r3, r5
 527 0066 0021     		movs	r1, #0
 528 0068 3846     		mov	r0, r7
 529 006a 2380     		strh	r3, [r4]	@ movhi
 530 006c FFF7FEFF 		bl	memset
 531              	.L80:
 532 0070 0020     		movs	r0, #0
ARM GAS  /tmp/ccN6vd78.s 			page 10


 533              	.L67:
 534 0072 BDE8F88F 		pop	{r3, r4, r5, r6, r7, r8, r9, r10, fp, pc}
 535              	.L71:
 536 0076 D8F800B0 		ldr	fp, [r8]
 537 007a 58F8040D 		ldr	r0, [r8, #-4]!
 538 007e 0BFA01FB 		lsl	fp, fp, r1
 539 0082 20FA09F0 		lsr	r0, r0, r9
 540 0086 40EA0B00 		orr	r0, r0, fp
 541 008a 4AF82E00 		str	r0, [r10, lr, lsl #2]
 542 008e 0EF1FF3E 		add	lr, lr, #-1
 543 0092 D2E7     		b	.L70
 544              	.L69:
 545 0094 002D     		cmp	r5, #0
 546 0096 E3D0     		beq	.L73
 547 0098 3946     		mov	r1, r7
 548 009a 9200     		lsls	r2, r2, #2
 549 009c B819     		adds	r0, r7, r6
 550 009e FFF7FEFF 		bl	memmove
 551 00a2 DDE7     		b	.L73
 552              	.L76:
 553 00a4 6FF06100 		mvn	r0, #97
 554 00a8 E3E7     		b	.L67
 556              		.section	.text._sp_add_off.constprop.0,"ax",%progbits
 557              		.align	1
 558              		.syntax unified
 559              		.thumb
 560              		.thumb_func
 561              		.fpu fpv4-sp-d16
 563              	_sp_add_off.constprop.0:
 564              		@ args = 0, pretend = 0, frame = 0
 565              		@ frame_needed = 0, uses_anonymous_args = 0
 566 0000 2DE9F047 		push	{r4, r5, r6, r7, r8, r9, r10, lr}
 567 0004 0025     		movs	r5, #0
 568 0006 8646     		mov	lr, r0
 569 0008 2C46     		mov	r4, r5
 570 000a AC46     		mov	ip, r5
 571 000c A846     		mov	r8, r5
 572 000e 3EF8047B 		ldrh	r7, [lr], #4
 573 0012 0E88     		ldrh	r6, [r1]
 574              	.L82:
 575 0014 ABB2     		uxth	r3, r5
 576 0016 9F42     		cmp	r7, r3
 577 0018 25D9     		bls	.L83
 578 001a 0135     		adds	r5, r5, #1
 579 001c 05F1FF39 		add	r9, r5, #-1
 580 0020 1FFA89F9 		uxth	r9, r9
 581 0024 4E45     		cmp	r6, r9
 582 0026 5EF804AB 		ldr	r10, [lr], #4
 583 002a 3BD8     		bhi	.L84
 584 002c 1D46     		mov	r5, r3
 585              	.L85:
 586 002e 00EB850E 		add	lr, r0, r5, lsl #2
 587 0032 DEF804E0 		ldr	lr, [lr, #4]
 588 0036 1EEB0404 		adds	r4, lr, r4
 589 003a 02EB850E 		add	lr, r2, r5, lsl #2
 590 003e 05F10105 		add	r5, r5, #1
 591 0042 ADB2     		uxth	r5, r5
ARM GAS  /tmp/ccN6vd78.s 			page 11


 592 0044 CEF80440 		str	r4, [lr, #4]
 593 0048 4CF10004 		adc	r4, ip, #0
 594 004c AF42     		cmp	r7, r5
 595 004e 4FF0000C 		mov	ip, #0
 596 0052 ECD8     		bhi	.L85
 597 0054 581C     		adds	r0, r3, #1
 598 0056 7D1E     		subs	r5, r7, #1
 599 0058 80B2     		uxth	r0, r0
 600 005a EB1A     		subs	r3, r5, r3
 601 005c 8742     		cmp	r7, r0
 602 005e 38BF     		it	cc
 603 0060 6346     		movcc	r3, ip
 604 0062 0344     		add	r3, r3, r0
 605 0064 9BB2     		uxth	r3, r3
 606              	.L83:
 607 0066 1846     		mov	r0, r3
 608 0068 9F00     		lsls	r7, r3, #2
 609              	.L86:
 610 006a B042     		cmp	r0, r6
 611 006c 07F10407 		add	r7, r7, #4
 612 0070 26D3     		bcc	.L87
 613 0072 F11A     		subs	r1, r6, r3
 614 0074 89B2     		uxth	r1, r1
 615 0076 9E42     		cmp	r6, r3
 616 0078 38BF     		it	cc
 617 007a 0021     		movcc	r1, #0
 618 007c C818     		adds	r0, r1, r3
 619 007e 0B44     		add	r3, r3, r1
 620 0080 2344     		add	r3, r3, r4
 621 0082 02EB8000 		add	r0, r2, r0, lsl #2
 622 0086 9BB2     		uxth	r3, r3
 623 0088 4460     		str	r4, [r0, #4]
 624 008a 1380     		strh	r3, [r2]	@ movhi
 625 008c 43B1     		cbz	r3, .L81
 626 008e 013B     		subs	r3, r3, #1
 627 0090 111D     		adds	r1, r2, #4
 628              	.L90:
 629 0092 51F82300 		ldr	r0, [r1, r3, lsl #2]
 630 0096 08B9     		cbnz	r0, .L89
 631 0098 013B     		subs	r3, r3, #1
 632 009a FAD2     		bcs	.L90
 633              	.L89:
 634 009c 0133     		adds	r3, r3, #1
 635 009e 1380     		strh	r3, [r2]	@ movhi
 636              	.L81:
 637 00a0 BDE8F087 		pop	{r4, r5, r6, r7, r8, r9, r10, pc}
 638              	.L84:
 639 00a4 51F82530 		ldr	r3, [r1, r5, lsl #2]
 640 00a8 13EB0A03 		adds	r3, r3, r10
 641 00ac 48EB080C 		adc	ip, r8, r8
 642 00b0 1B19     		adds	r3, r3, r4
 643 00b2 4CF10004 		adc	r4, ip, #0
 644 00b6 42F82530 		str	r3, [r2, r5, lsl #2]
 645 00ba 4FF0000C 		mov	ip, #0
 646 00be A9E7     		b	.L82
 647              	.L87:
 648 00c0 CD59     		ldr	r5, [r1, r7]
ARM GAS  /tmp/ccN6vd78.s 			page 12


 649 00c2 0130     		adds	r0, r0, #1
 650 00c4 2C19     		adds	r4, r5, r4
 651 00c6 D451     		str	r4, [r2, r7]
 652 00c8 80B2     		uxth	r0, r0
 653 00ca 4CF10004 		adc	r4, ip, #0
 654 00ce 4FF0000C 		mov	ip, #0
 655 00d2 CAE7     		b	.L86
 657              		.section	.text._sp_mont_setup.isra.0,"ax",%progbits
 658              		.align	1
 659              		.syntax unified
 660              		.thumb
 661              		.thumb_func
 662              		.fpu fpv4-sp-d16
 664              	_sp_mont_setup.isra.0:
 665              		@ args = 0, pretend = 0, frame = 0
 666              		@ frame_needed = 0, uses_anonymous_args = 0
 667              		@ link register save eliminated.
 668 0000 00EB4002 		add	r2, r0, r0, lsl #1
 669 0004 82F00202 		eor	r2, r2, #2
 670 0008 5043     		muls	r0, r2, r0
 671 000a C0F10103 		rsb	r3, r0, #1
 672 000e C0F10200 		rsb	r0, r0, #2
 673 0012 5B43     		muls	r3, r3, r3
 674 0014 5043     		muls	r0, r2, r0
 675 0016 03FB0000 		mla	r0, r3, r0, r0
 676 001a 5B43     		muls	r3, r3, r3
 677 001c 03FB0000 		mla	r0, r3, r0, r0
 678 0020 4042     		rsbs	r0, r0, #0
 679 0022 0860     		str	r0, [r1]
 680 0024 7047     		bx	lr
 682              		.section	.text.sp_init_size,"ax",%progbits
 683              		.align	1
 684              		.global	sp_init_size
 685              		.syntax unified
 686              		.thumb
 687              		.thumb_func
 688              		.fpu fpv4-sp-d16
 690              	sp_init_size:
 691              		@ args = 0, pretend = 0, frame = 0
 692              		@ frame_needed = 0, uses_anonymous_args = 0
 693              		@ link register save eliminated.
 694 0000 48B1     		cbz	r0, .L100
 695 0002 4B1E     		subs	r3, r1, #1
 696 0004 222B     		cmp	r3, #34
 697 0006 06D8     		bhi	.L100
 698 0008 0023     		movs	r3, #0
 699 000a 89B2     		uxth	r1, r1
 700 000c 0380     		strh	r3, [r0]	@ movhi
 701 000e 4360     		str	r3, [r0, #4]
 702 0010 4180     		strh	r1, [r0, #2]	@ movhi
 703 0012 1846     		mov	r0, r3
 704 0014 7047     		bx	lr
 705              	.L100:
 706 0016 6FF06100 		mvn	r0, #97
 707 001a 7047     		bx	lr
 709              		.section	.text.sp_init,"ax",%progbits
 710              		.align	1
ARM GAS  /tmp/ccN6vd78.s 			page 13


 711              		.global	sp_init
 712              		.syntax unified
 713              		.thumb
 714              		.thumb_func
 715              		.fpu fpv4-sp-d16
 717              	sp_init:
 718              		@ args = 0, pretend = 0, frame = 0
 719              		@ frame_needed = 0, uses_anonymous_args = 0
 720              		@ link register save eliminated.
 721 0000 30B1     		cbz	r0, .L103
 722 0002 0023     		movs	r3, #0
 723 0004 2322     		movs	r2, #35
 724 0006 0380     		strh	r3, [r0]	@ movhi
 725 0008 4360     		str	r3, [r0, #4]
 726 000a 4280     		strh	r2, [r0, #2]	@ movhi
 727 000c 1846     		mov	r0, r3
 728 000e 7047     		bx	lr
 729              	.L103:
 730 0010 6FF06100 		mvn	r0, #97
 731 0014 7047     		bx	lr
 733              		.section	.text.sp_init_multi,"ax",%progbits
 734              		.align	1
 735              		.global	sp_init_multi
 736              		.syntax unified
 737              		.thumb
 738              		.thumb_func
 739              		.fpu fpv4-sp-d16
 741              	sp_init_multi:
 742              		@ args = 8, pretend = 0, frame = 0
 743              		@ frame_needed = 0, uses_anonymous_args = 0
 744 0000 70B5     		push	{r4, r5, r6, lr}
 745 0002 DDE90454 		ldrd	r5, r4, [sp, #16]
 746 0006 20B1     		cbz	r0, .L105
 747 0008 0026     		movs	r6, #0
 748 000a 0680     		strh	r6, [r0]	@ movhi
 749 000c 4660     		str	r6, [r0, #4]
 750 000e 2326     		movs	r6, #35
 751 0010 4680     		strh	r6, [r0, #2]	@ movhi
 752              	.L105:
 753 0012 21B1     		cbz	r1, .L106
 754 0014 0020     		movs	r0, #0
 755 0016 0880     		strh	r0, [r1]	@ movhi
 756 0018 4860     		str	r0, [r1, #4]
 757 001a 2320     		movs	r0, #35
 758 001c 4880     		strh	r0, [r1, #2]	@ movhi
 759              	.L106:
 760 001e 22B1     		cbz	r2, .L107
 761 0020 0021     		movs	r1, #0
 762 0022 1180     		strh	r1, [r2]	@ movhi
 763 0024 5160     		str	r1, [r2, #4]
 764 0026 2321     		movs	r1, #35
 765 0028 5180     		strh	r1, [r2, #2]	@ movhi
 766              	.L107:
 767 002a 23B1     		cbz	r3, .L108
 768 002c 0022     		movs	r2, #0
 769 002e 1A80     		strh	r2, [r3]	@ movhi
 770 0030 5A60     		str	r2, [r3, #4]
ARM GAS  /tmp/ccN6vd78.s 			page 14


 771 0032 2322     		movs	r2, #35
 772 0034 5A80     		strh	r2, [r3, #2]	@ movhi
 773              	.L108:
 774 0036 25B1     		cbz	r5, .L109
 775 0038 0023     		movs	r3, #0
 776 003a 2B80     		strh	r3, [r5]	@ movhi
 777 003c 6B60     		str	r3, [r5, #4]
 778 003e 2323     		movs	r3, #35
 779 0040 6B80     		strh	r3, [r5, #2]	@ movhi
 780              	.L109:
 781 0042 24B1     		cbz	r4, .L110
 782 0044 0023     		movs	r3, #0
 783 0046 2380     		strh	r3, [r4]	@ movhi
 784 0048 6360     		str	r3, [r4, #4]
 785 004a 2323     		movs	r3, #35
 786 004c 6380     		strh	r3, [r4, #2]	@ movhi
 787              	.L110:
 788 004e 0020     		movs	r0, #0
 789 0050 70BD     		pop	{r4, r5, r6, pc}
 791              		.section	.text.sp_free,"ax",%progbits
 792              		.align	1
 793              		.global	sp_free
 794              		.syntax unified
 795              		.thumb
 796              		.thumb_func
 797              		.fpu fpv4-sp-d16
 799              	sp_free:
 800              		@ args = 0, pretend = 0, frame = 0
 801              		@ frame_needed = 0, uses_anonymous_args = 0
 802              		@ link register save eliminated.
 803 0000 7047     		bx	lr
 805              		.section	.text.sp_grow,"ax",%progbits
 806              		.align	1
 807              		.global	sp_grow
 808              		.syntax unified
 809              		.thumb
 810              		.thumb_func
 811              		.fpu fpv4-sp-d16
 813              	sp_grow:
 814              		@ args = 0, pretend = 0, frame = 0
 815              		@ frame_needed = 0, uses_anonymous_args = 0
 816 0000 10B5     		push	{r4, lr}
 817 0002 90B1     		cbz	r0, .L133
 818 0004 0029     		cmp	r1, #0
 819 0006 10DB     		blt	.L133
 820 0008 4388     		ldrh	r3, [r0, #2]
 821 000a 8B42     		cmp	r3, r1
 822 000c 10D3     		bcc	.L134
 823 000e 0388     		ldrh	r3, [r0]
 824 0010 CA1A     		subs	r2, r1, r3
 825 0012 5C1C     		adds	r4, r3, #1
 826 0014 9200     		lsls	r2, r2, #2
 827 0016 9942     		cmp	r1, r3
 828 0018 38BF     		it	cc
 829 001a 0022     		movcc	r2, #0
 830 001c 00EB8400 		add	r0, r0, r4, lsl #2
 831 0020 0021     		movs	r1, #0
ARM GAS  /tmp/ccN6vd78.s 			page 15


 832 0022 FFF7FEFF 		bl	memset
 833 0026 0020     		movs	r0, #0
 834              	.L130:
 835 0028 10BD     		pop	{r4, pc}
 836              	.L133:
 837 002a 6FF06100 		mvn	r0, #97
 838 002e FBE7     		b	.L130
 839              	.L134:
 840 0030 6FF06000 		mvn	r0, #96
 841 0034 F8E7     		b	.L130
 843              		.section	.text.sp_zero,"ax",%progbits
 844              		.align	1
 845              		.global	sp_zero
 846              		.syntax unified
 847              		.thumb
 848              		.thumb_func
 849              		.fpu fpv4-sp-d16
 851              	sp_zero:
 852              		@ args = 0, pretend = 0, frame = 0
 853              		@ frame_needed = 0, uses_anonymous_args = 0
 854              		@ link register save eliminated.
 855 0000 10B1     		cbz	r0, .L135
 856 0002 0023     		movs	r3, #0
 857 0004 0380     		strh	r3, [r0]	@ movhi
 858 0006 4360     		str	r3, [r0, #4]
 859              	.L135:
 860 0008 7047     		bx	lr
 862              		.section	.text.sp_clear,"ax",%progbits
 863              		.align	1
 864              		.global	sp_clear
 865              		.syntax unified
 866              		.thumb
 867              		.thumb_func
 868              		.fpu fpv4-sp-d16
 870              	sp_clear:
 871              		@ args = 0, pretend = 0, frame = 0
 872              		@ frame_needed = 0, uses_anonymous_args = 0
 873 0000 10B5     		push	{r4, lr}
 874 0002 0446     		mov	r4, r0
 875 0004 40B1     		cbz	r0, .L140
 876 0006 30F8042B 		ldrh	r2, [r0], #4
 877 000a 0021     		movs	r1, #0
 878 000c 9200     		lsls	r2, r2, #2
 879 000e FFF7FEFF 		bl	memset
 880 0012 0023     		movs	r3, #0
 881 0014 2380     		strh	r3, [r4]	@ movhi
 882 0016 6360     		str	r3, [r4, #4]
 883              	.L140:
 884 0018 10BD     		pop	{r4, pc}
 886              		.section	.text.sp_forcezero,"ax",%progbits
 887              		.align	1
 888              		.global	sp_forcezero
 889              		.syntax unified
 890              		.thumb
 891              		.thumb_func
 892              		.fpu fpv4-sp-d16
 894              	sp_forcezero:
ARM GAS  /tmp/ccN6vd78.s 			page 16


 895              		@ args = 0, pretend = 0, frame = 8
 896              		@ frame_needed = 0, uses_anonymous_args = 0
 897 0000 F7B5     		push	{r0, r1, r2, r4, r5, r6, r7, lr}
 898 0002 0546     		mov	r5, r0
 899 0004 E8B1     		cbz	r0, .L145
 900 0006 4488     		ldrh	r4, [r0, #2]
 901 0008 0022     		movs	r2, #0
 902 000a BFF35B8F 		dmb	ish
 903 000e 031D     		adds	r3, r0, #4
 904 0010 A400     		lsls	r4, r4, #2
 905              	.L147:
 906 0012 13F00301 		ands	r1, r3, #3
 907 0016 16D1     		bne	.L149
 908 0018 24F00306 		bic	r6, r4, #3
 909 001c 3246     		mov	r2, r6
 910 001e 1846     		mov	r0, r3
 911 0020 0191     		str	r1, [sp, #4]
 912 0022 FFF7FEFF 		bl	memset
 913 0026 6FF00302 		mvn	r2, #3
 914 002a A708     		lsrs	r7, r4, #2
 915 002c 02FB0742 		mla	r2, r2, r7, r4
 916 0030 0199     		ldr	r1, [sp, #4]
 917 0032 3044     		add	r0, r0, r6
 918 0034 FFF7FEFF 		bl	memset
 919 0038 BFF35B8F 		dmb	ish
 920              	.L148:
 921 003c 0023     		movs	r3, #0
 922 003e 2B80     		strh	r3, [r5]	@ movhi
 923 0040 6B60     		str	r3, [r5, #4]
 924              	.L145:
 925 0042 03B0     		add	sp, sp, #12
 926              		@ sp needed
 927 0044 F0BD     		pop	{r4, r5, r6, r7, pc}
 928              	.L149:
 929 0046 002C     		cmp	r4, #0
 930 0048 F8D0     		beq	.L148
 931 004a 03F8012B 		strb	r2, [r3], #1
 932 004e 013C     		subs	r4, r4, #1
 933 0050 DFE7     		b	.L147
 935              		.section	.text.sp_copy,"ax",%progbits
 936              		.align	1
 937              		.global	sp_copy
 938              		.syntax unified
 939              		.thumb
 940              		.thumb_func
 941              		.fpu fpv4-sp-d16
 943              	sp_copy:
 944              		@ args = 0, pretend = 0, frame = 0
 945              		@ frame_needed = 0, uses_anonymous_args = 0
 946 0000 08B5     		push	{r3, lr}
 947 0002 0246     		mov	r2, r0
 948 0004 0B46     		mov	r3, r1
 949 0006 00B1     		cbz	r0, .L163
 950 0008 11B9     		cbnz	r1, .L164
 951              	.L163:
 952 000a 6FF06100 		mvn	r0, #97
 953              	.L157:
ARM GAS  /tmp/ccN6vd78.s 			page 17


 954 000e 08BD     		pop	{r3, pc}
 955              	.L164:
 956 0010 8842     		cmp	r0, r1
 957 0012 05D0     		beq	.L165
 958 0014 1288     		ldrh	r2, [r2]
 959 0016 5B88     		ldrh	r3, [r3, #2]
 960 0018 9A42     		cmp	r2, r3
 961 001a F6D8     		bhi	.L163
 962 001c FFF7FEFF 		bl	_sp_copy
 963              	.L165:
 964 0020 0020     		movs	r0, #0
 965 0022 F4E7     		b	.L157
 967              		.section	.text.sp_init_copy,"ax",%progbits
 968              		.align	1
 969              		.global	sp_init_copy
 970              		.syntax unified
 971              		.thumb
 972              		.thumb_func
 973              		.fpu fpv4-sp-d16
 975              	sp_init_copy:
 976              		@ args = 0, pretend = 0, frame = 0
 977              		@ frame_needed = 0, uses_anonymous_args = 0
 978 0000 38B5     		push	{r3, r4, r5, lr}
 979 0002 0546     		mov	r5, r0
 980 0004 0C46     		mov	r4, r1
 981 0006 FFF7FEFF 		bl	sp_init
 982 000a 28B9     		cbnz	r0, .L166
 983 000c 2946     		mov	r1, r5
 984 000e 2046     		mov	r0, r4
 985 0010 BDE83840 		pop	{r3, r4, r5, lr}
 986 0014 FFF7FEBF 		b	sp_copy
 987              	.L166:
 988 0018 38BD     		pop	{r3, r4, r5, pc}
 990              		.section	.text.sp_exch,"ax",%progbits
 991              		.align	1
 992              		.global	sp_exch
 993              		.syntax unified
 994              		.thumb
 995              		.thumb_func
 996              		.fpu fpv4-sp-d16
 998              	sp_exch:
 999              		@ args = 0, pretend = 0, frame = 0
 1000              		@ frame_needed = 0, uses_anonymous_args = 0
 1001 0000 2DE9F041 		push	{r4, r5, r6, r7, r8, lr}
 1002 0004 0C46     		mov	r4, r1
 1003 0006 0546     		mov	r5, r0
 1004 0008 0028     		cmp	r0, #0
 1005 000a 3ED0     		beq	.L178
 1006 000c 0029     		cmp	r1, #0
 1007 000e 3CD0     		beq	.L178
 1008 0010 4288     		ldrh	r2, [r0, #2]
 1009 0012 0B88     		ldrh	r3, [r1]
 1010 0014 9A42     		cmp	r2, r3
 1011 0016 38D3     		bcc	.L178
 1012 0018 0388     		ldrh	r3, [r0]
 1013 001a 4A88     		ldrh	r2, [r1, #2]
 1014 001c 9A42     		cmp	r2, r3
ARM GAS  /tmp/ccN6vd78.s 			page 18


 1015 001e 34D3     		bcc	.L178
 1016 0020 232B     		cmp	r3, #35
 1017 0022 32D8     		bhi	.L178
 1018 0024 012B     		cmp	r3, #1
 1019 0026 85BF     		ittet	hi
 1020 0028 0133     		addhi	r3, r3, #1
 1021 002a 9BB2     		uxthhi	r3, r3
 1022 002c 0820     		movls	r0, #8
 1023 002e 9800     		lslhi	r0, r3, #2
 1024 0030 FFF7FEFF 		bl	wolfSSL_Malloc
 1025 0034 0646     		mov	r6, r0
 1026 0036 58B3     		cbz	r0, .L180
 1027 0038 2A88     		ldrh	r2, [r5]
 1028 003a 2946     		mov	r1, r5
 1029 003c 012A     		cmp	r2, #1
 1030 003e 8ABF     		itet	hi
 1031 0040 0132     		addhi	r2, r2, #1
 1032 0042 0822     		movls	r2, #8
 1033 0044 9200     		lslhi	r2, r2, #2
 1034 0046 B5F80280 		ldrh	r8, [r5, #2]
 1035 004a 6788     		ldrh	r7, [r4, #2]
 1036 004c FFF7FEFF 		bl	memcpy
 1037 0050 2288     		ldrh	r2, [r4]
 1038 0052 2146     		mov	r1, r4
 1039 0054 012A     		cmp	r2, #1
 1040 0056 8ABF     		itet	hi
 1041 0058 0132     		addhi	r2, r2, #1
 1042 005a 0822     		movls	r2, #8
 1043 005c 9200     		lslhi	r2, r2, #2
 1044 005e 2846     		mov	r0, r5
 1045 0060 FFF7FEFF 		bl	memcpy
 1046 0064 3288     		ldrh	r2, [r6]
 1047 0066 3146     		mov	r1, r6
 1048 0068 012A     		cmp	r2, #1
 1049 006a 8ABF     		itet	hi
 1050 006c 0132     		addhi	r2, r2, #1
 1051 006e 0822     		movls	r2, #8
 1052 0070 9200     		lslhi	r2, r2, #2
 1053 0072 2046     		mov	r0, r4
 1054 0074 FFF7FEFF 		bl	memcpy
 1055 0078 3046     		mov	r0, r6
 1056 007a A5F80280 		strh	r8, [r5, #2]	@ movhi
 1057 007e 6780     		strh	r7, [r4, #2]	@ movhi
 1058 0080 FFF7FEFF 		bl	wolfSSL_Free
 1059 0084 0020     		movs	r0, #0
 1060              	.L168:
 1061 0086 BDE8F081 		pop	{r4, r5, r6, r7, r8, pc}
 1062              	.L178:
 1063 008a 6FF06100 		mvn	r0, #97
 1064 008e FAE7     		b	.L168
 1065              	.L180:
 1066 0090 6FF06000 		mvn	r0, #96
 1067 0094 F7E7     		b	.L168
 1069              		.section	.text.sp_cond_swap_ct_ex,"ax",%progbits
 1070              		.align	1
 1071              		.global	sp_cond_swap_ct_ex
 1072              		.syntax unified
ARM GAS  /tmp/ccN6vd78.s 			page 19


 1073              		.thumb
 1074              		.thumb_func
 1075              		.fpu fpv4-sp-d16
 1077              	sp_cond_swap_ct_ex:
 1078              		@ args = 4, pretend = 0, frame = 8
 1079              		@ frame_needed = 0, uses_anonymous_args = 0
 1080 0000 F7B5     		push	{r0, r1, r2, r4, r5, r6, r7, lr}
 1081 0002 5B42     		rsbs	r3, r3, #0
 1082 0004 0E88     		ldrh	r6, [r1]
 1083 0006 0193     		str	r3, [sp, #4]
 1084 0008 0388     		ldrh	r3, [r0]
 1085 000a 019C     		ldr	r4, [sp, #4]
 1086 000c 7340     		eors	r3, r3, r6
 1087 000e 2340     		ands	r3, r3, r4
 1088 0010 9446     		mov	ip, r2
 1089 0012 0024     		movs	r4, #0
 1090 0014 089D     		ldr	r5, [sp, #32]
 1091 0016 9BB2     		uxth	r3, r3
 1092 0018 2B80     		strh	r3, [r5]	@ movhi
 1093              	.L185:
 1094 001a 6445     		cmp	r4, ip
 1095 001c 04F10106 		add	r6, r4, #1
 1096 0020 13D1     		bne	.L186
 1097 0022 0488     		ldrh	r4, [r0]
 1098 0024 6340     		eors	r3, r3, r4
 1099 0026 2C1D     		adds	r4, r5, #4
 1100 0028 20F8043B 		strh	r3, [r0], #4	@ movhi
 1101 002c 2746     		mov	r7, r4
 1102 002e 0023     		movs	r3, #0
 1103              	.L187:
 1104 0030 6345     		cmp	r3, ip
 1105 0032 15D1     		bne	.L188
 1106 0034 0B88     		ldrh	r3, [r1]
 1107 0036 2888     		ldrh	r0, [r5]
 1108 0038 4340     		eors	r3, r3, r0
 1109 003a 21F8043B 		strh	r3, [r1], #4	@ movhi
 1110 003e 0023     		movs	r3, #0
 1111              	.L189:
 1112 0040 6345     		cmp	r3, ip
 1113 0042 15D1     		bne	.L190
 1114 0044 0020     		movs	r0, #0
 1115 0046 03B0     		add	sp, sp, #12
 1116              		@ sp needed
 1117 0048 F0BD     		pop	{r4, r5, r6, r7, pc}
 1118              	.L186:
 1119 004a 50F82640 		ldr	r4, [r0, r6, lsl #2]
 1120 004e 51F82620 		ldr	r2, [r1, r6, lsl #2]
 1121 0052 019F     		ldr	r7, [sp, #4]
 1122 0054 5440     		eors	r4, r4, r2
 1123 0056 3C40     		ands	r4, r4, r7
 1124 0058 45F82640 		str	r4, [r5, r6, lsl #2]
 1125 005c 3446     		mov	r4, r6
 1126 005e DCE7     		b	.L185
 1127              	.L188:
 1128 0060 57F8046B 		ldr	r6, [r7], #4
 1129 0064 0268     		ldr	r2, [r0]
 1130 0066 0133     		adds	r3, r3, #1
ARM GAS  /tmp/ccN6vd78.s 			page 20


 1131 0068 5640     		eors	r6, r6, r2
 1132 006a 40F8046B 		str	r6, [r0], #4
 1133 006e DFE7     		b	.L187
 1134              	.L190:
 1135 0070 0868     		ldr	r0, [r1]
 1136 0072 54F8045B 		ldr	r5, [r4], #4
 1137 0076 0133     		adds	r3, r3, #1
 1138 0078 6840     		eors	r0, r0, r5
 1139 007a 41F8040B 		str	r0, [r1], #4
 1140 007e DFE7     		b	.L189
 1142              		.section	.text.sp_cond_swap_ct,"ax",%progbits
 1143              		.align	1
 1144              		.global	sp_cond_swap_ct
 1145              		.syntax unified
 1146              		.thumb
 1147              		.thumb_func
 1148              		.fpu fpv4-sp-d16
 1150              	sp_cond_swap_ct:
 1151              		@ args = 0, pretend = 0, frame = 8
 1152              		@ frame_needed = 0, uses_anonymous_args = 0
 1153 0000 232A     		cmp	r2, #35
 1154 0002 7FB5     		push	{r0, r1, r2, r3, r4, r5, r6, lr}
 1155 0004 0646     		mov	r6, r0
 1156 0006 1446     		mov	r4, r2
 1157 0008 18DC     		bgt	.L194
 1158 000a 012A     		cmp	r2, #1
 1159 000c CABF     		itet	gt
 1160 000e 0132     		addgt	r2, r2, #1
 1161 0010 0820     		movle	r0, #8
 1162 0012 9000     		lslgt	r0, r2, #2
 1163 0014 CDE90213 		strd	r1, r3, [sp, #8]
 1164 0018 FFF7FEFF 		bl	wolfSSL_Malloc
 1165 001c 0546     		mov	r5, r0
 1166 001e 80B1     		cbz	r0, .L196
 1167 0020 2246     		mov	r2, r4
 1168 0022 0090     		str	r0, [sp]
 1169 0024 039B     		ldr	r3, [sp, #12]
 1170 0026 3046     		mov	r0, r6
 1171 0028 0299     		ldr	r1, [sp, #8]
 1172 002a FFF7FEFF 		bl	sp_cond_swap_ct_ex
 1173 002e 0446     		mov	r4, r0
 1174 0030 2846     		mov	r0, r5
 1175 0032 FFF7FEFF 		bl	wolfSSL_Free
 1176              	.L191:
 1177 0036 2046     		mov	r0, r4
 1178 0038 04B0     		add	sp, sp, #16
 1179              		@ sp needed
 1180 003a 70BD     		pop	{r4, r5, r6, pc}
 1181              	.L194:
 1182 003c 6FF06104 		mvn	r4, #97
 1183 0040 F9E7     		b	.L191
 1184              	.L196:
 1185 0042 6FF06004 		mvn	r4, #96
 1186 0046 F6E7     		b	.L191
 1188              		.section	.text.sp_cmp_mag,"ax",%progbits
 1189              		.align	1
 1190              		.global	sp_cmp_mag
ARM GAS  /tmp/ccN6vd78.s 			page 21


 1191              		.syntax unified
 1192              		.thumb
 1193              		.thumb_func
 1194              		.fpu fpv4-sp-d16
 1196              	sp_cmp_mag:
 1197              		@ args = 0, pretend = 0, frame = 0
 1198              		@ frame_needed = 0, uses_anonymous_args = 0
 1199              		@ link register save eliminated.
 1200 0000 8842     		cmp	r0, r1
 1201 0002 03D0     		beq	.L199
 1202 0004 20B1     		cbz	r0, .L200
 1203 0006 31B1     		cbz	r1, .L201
 1204 0008 FFF7FEBF 		b	_sp_cmp_abs
 1205              	.L199:
 1206 000c 0020     		movs	r0, #0
 1207 000e 7047     		bx	lr
 1208              	.L200:
 1209 0010 4FF0FF30 		mov	r0, #-1
 1210 0014 7047     		bx	lr
 1211              	.L201:
 1212 0016 0120     		movs	r0, #1
 1213 0018 7047     		bx	lr
 1215              		.section	.text.sp_cmp,"ax",%progbits
 1216              		.align	1
 1217              		.global	sp_cmp
 1218              		.syntax unified
 1219              		.thumb
 1220              		.thumb_func
 1221              		.fpu fpv4-sp-d16
 1223              	sp_cmp:
 1224              		@ args = 0, pretend = 0, frame = 0
 1225              		@ frame_needed = 0, uses_anonymous_args = 0
 1226              		@ link register save eliminated.
 1227 0000 FFF7FEBF 		b	sp_cmp_mag
 1229              		.section	.text.sp_is_bit_set,"ax",%progbits
 1230              		.align	1
 1231              		.global	sp_is_bit_set
 1232              		.syntax unified
 1233              		.thumb
 1234              		.thumb_func
 1235              		.fpu fpv4-sp-d16
 1237              	sp_is_bit_set:
 1238              		@ args = 0, pretend = 0, frame = 0
 1239              		@ frame_needed = 0, uses_anonymous_args = 0
 1240              		@ link register save eliminated.
 1241 0000 70B1     		cbz	r0, .L203
 1242 0002 0288     		ldrh	r2, [r0]
 1243 0004 4B09     		lsrs	r3, r1, #5
 1244 0006 B2EB511F 		cmp	r2, r1, lsr #5
 1245 000a 08D9     		bls	.L206
 1246 000c 00EB8303 		add	r3, r0, r3, lsl #2
 1247 0010 5868     		ldr	r0, [r3, #4]
 1248 0012 01F01F01 		and	r1, r1, #31
 1249 0016 C840     		lsrs	r0, r0, r1
 1250 0018 00F00100 		and	r0, r0, #1
 1251 001c 7047     		bx	lr
 1252              	.L206:
ARM GAS  /tmp/ccN6vd78.s 			page 22


 1253 001e 0020     		movs	r0, #0
 1254              	.L203:
 1255 0020 7047     		bx	lr
 1257              		.section	.text.sp_count_bits,"ax",%progbits
 1258              		.align	1
 1259              		.global	sp_count_bits
 1260              		.syntax unified
 1261              		.thumb
 1262              		.thumb_func
 1263              		.fpu fpv4-sp-d16
 1265              	sp_count_bits:
 1266              		@ args = 0, pretend = 0, frame = 0
 1267              		@ frame_needed = 0, uses_anonymous_args = 0
 1268              		@ link register save eliminated.
 1269 0000 E8B1     		cbz	r0, .L207
 1270 0002 0388     		ldrh	r3, [r0]
 1271 0004 CBB1     		cbz	r3, .L217
 1272 0006 013B     		subs	r3, r3, #1
 1273 0008 0430     		adds	r0, r0, #4
 1274              	.L209:
 1275 000a 50F82320 		ldr	r2, [r0, r3, lsl #2]
 1276 000e 4AB1     		cbz	r2, .L210
 1277 0010 B2F5803F 		cmp	r2, #65536
 1278 0014 4FEA4310 		lsl	r0, r3, #5
 1279 0018 08D2     		bcs	.L215
 1280              	.L214:
 1281 001a 5208     		lsrs	r2, r2, #1
 1282 001c 00F10100 		add	r0, r0, #1
 1283 0020 FBD1     		bne	.L214
 1284 0022 7047     		bx	lr
 1285              	.L210:
 1286 0024 013B     		subs	r3, r3, #1
 1287 0026 F0D2     		bcs	.L209
 1288 0028 1046     		mov	r0, r2
 1289 002a 7047     		bx	lr
 1290              	.L215:
 1291 002c 2030     		adds	r0, r0, #32
 1292              	.L212:
 1293 002e 002A     		cmp	r2, #0
 1294 0030 00DA     		bge	.L213
 1295 0032 7047     		bx	lr
 1296              	.L213:
 1297 0034 0138     		subs	r0, r0, #1
 1298 0036 5200     		lsls	r2, r2, #1
 1299 0038 F9E7     		b	.L212
 1300              	.L217:
 1301 003a 1846     		mov	r0, r3
 1302 003c 7047     		bx	lr
 1303              	.L207:
 1304 003e 7047     		bx	lr
 1306              		.section	.text.sp_leading_bit,"ax",%progbits
 1307              		.align	1
 1308              		.global	sp_leading_bit
 1309              		.syntax unified
 1310              		.thumb
 1311              		.thumb_func
 1312              		.fpu fpv4-sp-d16
ARM GAS  /tmp/ccN6vd78.s 			page 23


 1314              	sp_leading_bit:
 1315              		@ args = 0, pretend = 0, frame = 0
 1316              		@ frame_needed = 0, uses_anonymous_args = 0
 1317              		@ link register save eliminated.
 1318 0000 50B1     		cbz	r0, .L222
 1319 0002 0388     		ldrh	r3, [r0]
 1320 0004 3BB1     		cbz	r3, .L227
 1321 0006 50F82300 		ldr	r0, [r0, r3, lsl #2]
 1322              	.L224:
 1323 000a FF28     		cmp	r0, #255
 1324 000c 01D8     		bhi	.L225
 1325 000e C009     		lsrs	r0, r0, #7
 1326 0010 7047     		bx	lr
 1327              	.L225:
 1328 0012 000A     		lsrs	r0, r0, #8
 1329 0014 F9E7     		b	.L224
 1330              	.L227:
 1331 0016 1846     		mov	r0, r3
 1332              	.L222:
 1333 0018 7047     		bx	lr
 1335              		.section	.text.sp_set_bit,"ax",%progbits
 1336              		.align	1
 1337              		.global	sp_set_bit
 1338              		.syntax unified
 1339              		.thumb
 1340              		.thumb_func
 1341              		.fpu fpv4-sp-d16
 1343              	sp_set_bit:
 1344              		@ args = 0, pretend = 0, frame = 0
 1345              		@ frame_needed = 0, uses_anonymous_args = 0
 1346 0000 2DE9F041 		push	{r4, r5, r6, r7, r8, lr}
 1347 0004 4A11     		asrs	r2, r1, #5
 1348 0006 0D46     		mov	r5, r1
 1349 0008 0446     		mov	r4, r0
 1350 000a C1F34F16 		ubfx	r6, r1, #5, #16
 1351 000e 40B3     		cbz	r0, .L232
 1352 0010 0029     		cmp	r1, #0
 1353 0012 26DB     		blt	.L232
 1354 0014 4388     		ldrh	r3, [r0, #2]
 1355 0016 B342     		cmp	r3, r6
 1356 0018 23D9     		bls	.L232
 1357 001a B0F80080 		ldrh	r8, [r0]
 1358 001e 97B2     		uxth	r7, r2
 1359 0020 C8F10103 		rsb	r3, r8, #1
 1360 0024 13FA82F2 		uxtah	r2, r3, r2
 1361 0028 9200     		lsls	r2, r2, #2
 1362 002a 7B1C     		adds	r3, r7, #1
 1363 002c 08F10100 		add	r0, r8, #1
 1364 0030 9845     		cmp	r8, r3
 1365 0032 88BF     		it	hi
 1366 0034 0022     		movhi	r2, #0
 1367 0036 0021     		movs	r1, #0
 1368 0038 04EB8000 		add	r0, r4, r0, lsl #2
 1369 003c FFF7FEFF 		bl	memset
 1370 0040 0123     		movs	r3, #1
 1371 0042 04EB8707 		add	r7, r4, r7, lsl #2
 1372 0046 05F01F05 		and	r5, r5, #31
ARM GAS  /tmp/ccN6vd78.s 			page 24


 1373 004a 03FA05F5 		lsl	r5, r3, r5
 1374 004e 7B68     		ldr	r3, [r7, #4]
 1375 0050 B045     		cmp	r8, r6
 1376 0052 43EA0503 		orr	r3, r3, r5
 1377 0056 7B60     		str	r3, [r7, #4]
 1378 0058 01D8     		bhi	.L233
 1379 005a 0136     		adds	r6, r6, #1
 1380 005c 2680     		strh	r6, [r4]	@ movhi
 1381              	.L233:
 1382 005e 0020     		movs	r0, #0
 1383 0060 01E0     		b	.L228
 1384              	.L232:
 1385 0062 6FF06100 		mvn	r0, #97
 1386              	.L228:
 1387 0066 BDE8F081 		pop	{r4, r5, r6, r7, r8, pc}
 1389              		.section	.text.sp_2expt,"ax",%progbits
 1390              		.align	1
 1391              		.global	sp_2expt
 1392              		.syntax unified
 1393              		.thumb
 1394              		.thumb_func
 1395              		.fpu fpv4-sp-d16
 1397              	sp_2expt:
 1398              		@ args = 0, pretend = 0, frame = 0
 1399              		@ frame_needed = 0, uses_anonymous_args = 0
 1400              		@ link register save eliminated.
 1401 0000 30B1     		cbz	r0, .L234
 1402 0002 0029     		cmp	r1, #0
 1403 0004 04DB     		blt	.L234
 1404 0006 0022     		movs	r2, #0
 1405 0008 0280     		strh	r2, [r0]	@ movhi
 1406 000a 4260     		str	r2, [r0, #4]
 1407 000c FFF7FEBF 		b	sp_set_bit
 1408              	.L234:
 1409 0010 6FF06100 		mvn	r0, #97
 1410 0014 7047     		bx	lr
 1412              		.section	.text.sp_set,"ax",%progbits
 1413              		.align	1
 1414              		.global	sp_set
 1415              		.syntax unified
 1416              		.thumb
 1417              		.thumb_func
 1418              		.fpu fpv4-sp-d16
 1420              	sp_set:
 1421              		@ args = 0, pretend = 0, frame = 0
 1422              		@ frame_needed = 0, uses_anonymous_args = 0
 1423              		@ link register save eliminated.
 1424 0000 30B1     		cbz	r0, .L241
 1425 0002 4160     		str	r1, [r0, #4]
 1426 0004 0039     		subs	r1, r1, #0
 1427 0006 18BF     		it	ne
 1428 0008 0121     		movne	r1, #1
 1429 000a 0180     		strh	r1, [r0]	@ movhi
 1430 000c 0020     		movs	r0, #0
 1431 000e 7047     		bx	lr
 1432              	.L241:
 1433 0010 6FF06100 		mvn	r0, #97
ARM GAS  /tmp/ccN6vd78.s 			page 25


 1434 0014 7047     		bx	lr
 1436              		.section	.text.sp_set_int,"ax",%progbits
 1437              		.align	1
 1438              		.global	sp_set_int
 1439              		.syntax unified
 1440              		.thumb
 1441              		.thumb_func
 1442              		.fpu fpv4-sp-d16
 1444              	sp_set_int:
 1445              		@ args = 0, pretend = 0, frame = 0
 1446              		@ frame_needed = 0, uses_anonymous_args = 0
 1447              		@ link register save eliminated.
 1448 0000 30B1     		cbz	r0, .L244
 1449 0002 4160     		str	r1, [r0, #4]
 1450 0004 0039     		subs	r1, r1, #0
 1451 0006 18BF     		it	ne
 1452 0008 0121     		movne	r1, #1
 1453 000a 0180     		strh	r1, [r0]	@ movhi
 1454 000c 0020     		movs	r0, #0
 1455 000e 7047     		bx	lr
 1456              	.L244:
 1457 0010 6FF06100 		mvn	r0, #97
 1458 0014 7047     		bx	lr
 1460              		.section	.text.sp_cmp_d,"ax",%progbits
 1461              		.align	1
 1462              		.global	sp_cmp_d
 1463              		.syntax unified
 1464              		.thumb
 1465              		.thumb_func
 1466              		.fpu fpv4-sp-d16
 1468              	sp_cmp_d:
 1469              		@ args = 0, pretend = 0, frame = 0
 1470              		@ frame_needed = 0, uses_anonymous_args = 0
 1471              		@ link register save eliminated.
 1472 0000 80B1     		cbz	r0, .L248
 1473 0002 0388     		ldrh	r3, [r0]
 1474 0004 012B     		cmp	r3, #1
 1475 0006 10D8     		bhi	.L250
 1476 0008 23B9     		cbnz	r3, .L247
 1477 000a 081E     		subs	r0, r1, #0
 1478 000c 18BF     		it	ne
 1479 000e 0120     		movne	r0, #1
 1480 0010 4042     		rsbs	r0, r0, #0
 1481 0012 7047     		bx	lr
 1482              	.L247:
 1483 0014 4368     		ldr	r3, [r0, #4]
 1484 0016 9942     		cmp	r1, r3
 1485 0018 07D3     		bcc	.L250
 1486 001a 8CBF     		ite	hi
 1487 001c 4FF0FF30 		movhi	r0, #-1
 1488 0020 0020     		movls	r0, #0
 1489 0022 7047     		bx	lr
 1490              	.L248:
 1491 0024 4FF0FF30 		mov	r0, #-1
 1492 0028 7047     		bx	lr
 1493              	.L250:
 1494 002a 0120     		movs	r0, #1
ARM GAS  /tmp/ccN6vd78.s 			page 26


 1495 002c 7047     		bx	lr
 1497              		.section	.text.sp_add_d,"ax",%progbits
 1498              		.align	1
 1499              		.global	sp_add_d
 1500              		.syntax unified
 1501              		.thumb
 1502              		.thumb_func
 1503              		.fpu fpv4-sp-d16
 1505              	sp_add_d:
 1506              		@ args = 0, pretend = 0, frame = 0
 1507              		@ frame_needed = 0, uses_anonymous_args = 0
 1508 0000 F8B5     		push	{r3, r4, r5, r6, r7, lr}
 1509 0002 1346     		mov	r3, r2
 1510 0004 10B9     		cbnz	r0, .L252
 1511              	.L254:
 1512 0006 6FF06100 		mvn	r0, #97
 1513              	.L251:
 1514 000a F8BD     		pop	{r3, r4, r5, r6, r7, pc}
 1515              	.L252:
 1516 000c 002A     		cmp	r2, #0
 1517 000e FAD0     		beq	.L254
 1518 0010 0288     		ldrh	r2, [r0]
 1519 0012 5D88     		ldrh	r5, [r3, #2]
 1520 0014 AA42     		cmp	r2, r5
 1521 0016 F6D2     		bcs	.L254
 1522 0018 32B9     		cbnz	r2, .L255
 1523 001a 5960     		str	r1, [r3, #4]
 1524 001c 0039     		subs	r1, r1, #0
 1525 001e 18BF     		it	ne
 1526 0020 0121     		movne	r1, #1
 1527 0022 1980     		strh	r1, [r3]	@ movhi
 1528              	.L262:
 1529 0024 0020     		movs	r0, #0
 1530 0026 F0E7     		b	.L251
 1531              	.L255:
 1532 0028 4468     		ldr	r4, [r0, #4]
 1533 002a 1A80     		strh	r2, [r3]	@ movhi
 1534 002c 0919     		adds	r1, r1, r4
 1535 002e 2CBF     		ite	cs
 1536 0030 0124     		movcs	r4, #1
 1537 0032 0024     		movcc	r4, #0
 1538 0034 5960     		str	r1, [r3, #4]
 1539 0036 0FD3     		bcc	.L258
 1540 0038 0124     		movs	r4, #1
 1541 003a 00F10807 		add	r7, r0, #8
 1542 003e 03F10806 		add	r6, r3, #8
 1543              	.L259:
 1544 0042 9442     		cmp	r4, r2
 1545 0044 1AD3     		bcc	.L260
 1546 0046 07D1     		bne	.L258
 1547 0048 AC42     		cmp	r4, r5
 1548 004a DCD2     		bcs	.L254
 1549 004c 0121     		movs	r1, #1
 1550 004e 621C     		adds	r2, r4, #1
 1551 0050 1A80     		strh	r2, [r3]	@ movhi
 1552 0052 03EB8402 		add	r2, r3, r4, lsl #2
 1553 0056 5160     		str	r1, [r2, #4]
ARM GAS  /tmp/ccN6vd78.s 			page 27


 1554              	.L258:
 1555 0058 9842     		cmp	r0, r3
 1556 005a E3D0     		beq	.L262
 1557 005c 0188     		ldrh	r1, [r0]
 1558 005e A51C     		adds	r5, r4, #2
 1559 0060 4A1E     		subs	r2, r1, #1
 1560 0062 121B     		subs	r2, r2, r4
 1561 0064 9200     		lsls	r2, r2, #2
 1562 0066 0134     		adds	r4, r4, #1
 1563 0068 8C42     		cmp	r4, r1
 1564 006a 88BF     		it	hi
 1565 006c 0022     		movhi	r2, #0
 1566 006e 00EB8501 		add	r1, r0, r5, lsl #2
 1567 0072 03EB8500 		add	r0, r3, r5, lsl #2
 1568 0076 FFF7FEFF 		bl	memmove
 1569 007a D3E7     		b	.L262
 1570              	.L260:
 1571 007c 57F8041B 		ldr	r1, [r7], #4
 1572 0080 0131     		adds	r1, r1, #1
 1573 0082 46F8041B 		str	r1, [r6], #4
 1574 0086 0029     		cmp	r1, #0
 1575 0088 E6D1     		bne	.L258
 1576 008a 0134     		adds	r4, r4, #1
 1577 008c D9E7     		b	.L259
 1579              		.section	.text.sp_sub_d,"ax",%progbits
 1580              		.align	1
 1581              		.global	sp_sub_d
 1582              		.syntax unified
 1583              		.thumb
 1584              		.thumb_func
 1585              		.fpu fpv4-sp-d16
 1587              	sp_sub_d:
 1588              		@ args = 0, pretend = 0, frame = 0
 1589              		@ frame_needed = 0, uses_anonymous_args = 0
 1590 0000 10B5     		push	{r4, lr}
 1591 0002 40B1     		cbz	r0, .L273
 1592 0004 3AB1     		cbz	r2, .L273
 1593 0006 0488     		ldrh	r4, [r0]
 1594 0008 5388     		ldrh	r3, [r2, #2]
 1595 000a 9C42     		cmp	r4, r3
 1596 000c 03D8     		bhi	.L273
 1597 000e FFF7FEFF 		bl	_sp_sub_d
 1598 0012 0020     		movs	r0, #0
 1599              	.L269:
 1600 0014 10BD     		pop	{r4, pc}
 1601              	.L273:
 1602 0016 6FF06100 		mvn	r0, #97
 1603 001a FBE7     		b	.L269
 1605              		.section	.text.sp_mul_d,"ax",%progbits
 1606              		.align	1
 1607              		.global	sp_mul_d
 1608              		.syntax unified
 1609              		.thumb
 1610              		.thumb_func
 1611              		.fpu fpv4-sp-d16
 1613              	sp_mul_d:
 1614              		@ args = 0, pretend = 0, frame = 0
ARM GAS  /tmp/ccN6vd78.s 			page 28


 1615              		@ frame_needed = 0, uses_anonymous_args = 0
 1616 0000 F0B5     		push	{r4, r5, r6, r7, lr}
 1617 0002 90B3     		cbz	r0, .L283
 1618 0004 8AB3     		cbz	r2, .L283
 1619 0006 0588     		ldrh	r5, [r0]
 1620 0008 5488     		ldrh	r4, [r2, #2]
 1621 000a A542     		cmp	r5, r4
 1622 000c 2DD8     		bhi	.L283
 1623 000e 0026     		movs	r6, #0
 1624 0010 3346     		mov	r3, r6
 1625 0012 3746     		mov	r7, r6
 1626              	.L276:
 1627 0014 B542     		cmp	r5, r6
 1628 0016 06F1010C 		add	ip, r6, #1
 1629 001a 17D8     		bhi	.L277
 1630 001c 03B3     		cbz	r3, .L284
 1631 001e A542     		cmp	r5, r4
 1632 0020 2146     		mov	r1, r4
 1633 0022 1FD0     		beq	.L285
 1634 0024 691C     		adds	r1, r5, #1
 1635 0026 02EB8505 		add	r5, r2, r5, lsl #2
 1636 002a 6B60     		str	r3, [r5, #4]
 1637              	.L290:
 1638 002c 0020     		movs	r0, #0
 1639              	.L278:
 1640 002e 8BB2     		uxth	r3, r1
 1641 0030 1380     		strh	r3, [r2]	@ movhi
 1642 0032 53B1     		cbz	r3, .L274
 1643 0034 1946     		mov	r1, r3
 1644 0036 013B     		subs	r3, r3, #1
 1645 0038 02EB8101 		add	r1, r2, r1, lsl #2
 1646              	.L280:
 1647 003c 51F80449 		ldr	r4, [r1], #-4
 1648 0040 0CB9     		cbnz	r4, .L279
 1649 0042 013B     		subs	r3, r3, #1
 1650 0044 FAD2     		bcs	.L280
 1651              	.L279:
 1652 0046 0133     		adds	r3, r3, #1
 1653 0048 1380     		strh	r3, [r2]	@ movhi
 1654              	.L274:
 1655 004a F0BD     		pop	{r4, r5, r6, r7, pc}
 1656              	.L277:
 1657 004c 50F82C60 		ldr	r6, [r0, ip, lsl #2]
 1658 0050 E6FB0137 		umlal	r3, r7, r6, r1
 1659 0054 6646     		mov	r6, ip
 1660 0056 42F82C30 		str	r3, [r2, ip, lsl #2]
 1661 005a 3B46     		mov	r3, r7
 1662 005c 0027     		movs	r7, #0
 1663 005e D9E7     		b	.L276
 1664              	.L284:
 1665 0060 2946     		mov	r1, r5
 1666 0062 E3E7     		b	.L290
 1667              	.L285:
 1668 0064 6FF06100 		mvn	r0, #97
 1669 0068 E1E7     		b	.L278
 1670              	.L283:
 1671 006a 6FF06100 		mvn	r0, #97
ARM GAS  /tmp/ccN6vd78.s 			page 29


 1672 006e ECE7     		b	.L274
 1674              		.global	__aeabi_uldivmod
 1675              		.section	.text.sp_div_d,"ax",%progbits
 1676              		.align	1
 1677              		.global	sp_div_d
 1678              		.syntax unified
 1679              		.thumb
 1680              		.thumb_func
 1681              		.fpu fpv4-sp-d16
 1683              	sp_div_d:
 1684              		@ args = 0, pretend = 0, frame = 0
 1685              		@ frame_needed = 0, uses_anonymous_args = 0
 1686 0000 2DE9F84F 		push	{r3, r4, r5, r6, r7, r8, r9, r10, fp, lr}
 1687 0004 0E46     		mov	r6, r1
 1688 0006 1446     		mov	r4, r2
 1689 0008 9946     		mov	r9, r3
 1690 000a 0746     		mov	r7, r0
 1691 000c 40B1     		cbz	r0, .L337
 1692 000e 39B1     		cbz	r1, .L337
 1693 0010 0588     		ldrh	r5, [r0]
 1694 0012 002A     		cmp	r2, #0
 1695 0014 00F00381 		beq	.L293
 1696 0018 5388     		ldrh	r3, [r2, #2]
 1697 001a AB42     		cmp	r3, r5
 1698 001c 80F0F180 		bcs	.L354
 1699              	.L337:
 1700 0020 6FF06100 		mvn	r0, #97
 1701 0024 19E0     		b	.L291
 1702              	.L295:
 1703 0026 57F8042B 		ldr	r2, [r7], #4
 1704 002a 0134     		adds	r4, r4, #1
 1705 002c 5118     		adds	r1, r2, r1
 1706 002e 43F10003 		adc	r3, r3, #0
 1707              	.L331:
 1708 0032 AC42     		cmp	r4, r5
 1709 0034 F7D3     		bcc	.L295
 1710 0036 5B18     		adds	r3, r3, r1
 1711 0038 4FF05531 		mov	r1, #1431655765
 1712 003c 4FF00000 		mov	r0, #0
 1713 0040 A3FB0152 		umull	r5, r2, r3, r1
 1714 0044 40EB0004 		adc	r4, r0, r0
 1715 0048 01FB0422 		mla	r2, r1, r4, r2
 1716 004c 02EB4202 		add	r2, r2, r2, lsl #1
 1717 0050 9B1A     		subs	r3, r3, r2
 1718 0052 7E4A     		ldr	r2, .L357
 1719 0054 D35C     		ldrb	r3, [r2, r3]	@ zero_extendqisi2
 1720 0056 C9F80030 		str	r3, [r9]
 1721              	.L291:
 1722 005a BDE8F88F 		pop	{r3, r4, r5, r6, r7, r8, r9, r10, fp, pc}
 1723              	.L296:
 1724 005e 57F82130 		ldr	r3, [r7, r1, lsl #2]
 1725 0062 A3FB06A0 		umull	r10, r0, r3, r6
 1726 0066 06FB0C00 		mla	r0, r6, ip, r0
 1727 006a 00EB400C 		add	ip, r0, r0, lsl #1
 1728 006e A3EB0C03 		sub	r3, r3, ip
 1729 0072 18F803C0 		ldrb	ip, [r8, r3]	@ zero_extendqisi2
 1730 0076 1EF80330 		ldrb	r3, [lr, r3]	@ zero_extendqisi2
ARM GAS  /tmp/ccN6vd78.s 			page 30


 1731 007a 1844     		add	r0, r0, r3
 1732 007c 44F82100 		str	r0, [r4, r1, lsl #2]
 1733 0080 0139     		subs	r1, r1, #1
 1734              	.L329:
 1735 0082 0029     		cmp	r1, #0
 1736 0084 EBD1     		bne	.L296
 1737 0086 2580     		strh	r5, [r4]	@ movhi
 1738 0088 25B1     		cbz	r5, .L298
 1739 008a 231D     		adds	r3, r4, #4
 1740              	.L297:
 1741 008c 501C     		adds	r0, r2, #1
 1742 008e 06D1     		bne	.L300
 1743              	.L299:
 1744 0090 0132     		adds	r2, r2, #1
 1745 0092 2280     		strh	r2, [r4]	@ movhi
 1746              	.L298:
 1747 0094 B9F1000F 		cmp	r9, #0
 1748 0098 07D1     		bne	.L301
 1749              	.L355:
 1750 009a 0020     		movs	r0, #0
 1751 009c DDE7     		b	.L291
 1752              	.L300:
 1753 009e 53F82210 		ldr	r1, [r3, r2, lsl #2]
 1754 00a2 0029     		cmp	r1, #0
 1755 00a4 F4D1     		bne	.L299
 1756 00a6 013A     		subs	r2, r2, #1
 1757 00a8 F0E7     		b	.L297
 1758              	.L301:
 1759 00aa C9F800C0 		str	ip, [r9]
 1760 00ae F4E7     		b	.L355
 1761              	.L302:
 1762 00b0 55F80439 		ldr	r3, [r5], #-4
 1763 00b4 A3FB0102 		umull	r0, r2, r3, r1
 1764 00b8 01FB0424 		mla	r4, r1, r4, r2
 1765 00bc 06FB1433 		mls	r3, r6, r4, r3
 1766 00c0 B3FBF6F4 		udiv	r4, r3, r6
 1767 00c4 06FB1434 		mls	r4, r6, r4, r3
 1768              	.L333:
 1769 00c8 AF42     		cmp	r7, r5
 1770 00ca F1D1     		bne	.L302
 1771              	.L356:
 1772 00cc C9F80040 		str	r4, [r9]
 1773 00d0 E3E7     		b	.L355
 1774              	.L303:
 1775 00d2 57F82130 		ldr	r3, [r7, r1, lsl #2]
 1776 00d6 A3FB0EC0 		umull	ip, r0, r3, lr
 1777 00da 0EFB080C 		mla	ip, lr, r8, r0
 1778 00de 06FB1C33 		mls	r3, r6, ip, r3
 1779 00e2 B3FBF6F0 		udiv	r0, r3, r6
 1780 00e6 06FB1038 		mls	r8, r6, r0, r3
 1781 00ea 6044     		add	r0, r0, ip
 1782 00ec 44F82100 		str	r0, [r4, r1, lsl #2]
 1783 00f0 0139     		subs	r1, r1, #1
 1784              	.L334:
 1785 00f2 0029     		cmp	r1, #0
 1786 00f4 EDD1     		bne	.L303
 1787 00f6 2580     		strh	r5, [r4]	@ movhi
ARM GAS  /tmp/ccN6vd78.s 			page 31


 1788 00f8 25B1     		cbz	r5, .L305
 1789 00fa 231D     		adds	r3, r4, #4
 1790              	.L304:
 1791 00fc 511C     		adds	r1, r2, #1
 1792 00fe 07D1     		bne	.L307
 1793              	.L306:
 1794 0100 0132     		adds	r2, r2, #1
 1795 0102 2280     		strh	r2, [r4]	@ movhi
 1796              	.L305:
 1797 0104 B9F1000F 		cmp	r9, #0
 1798 0108 C7D0     		beq	.L355
 1799 010a C9F80080 		str	r8, [r9]
 1800 010e C4E7     		b	.L355
 1801              	.L307:
 1802 0110 53F82210 		ldr	r1, [r3, r2, lsl #2]
 1803 0114 0029     		cmp	r1, #0
 1804 0116 F3D1     		bne	.L306
 1805 0118 013A     		subs	r2, r2, #1
 1806 011a EFE7     		b	.L304
 1807              	.L332:
 1808 011c B6F5803F 		cmp	r6, #65536
 1809 0120 05F1FF38 		add	r8, r5, #-1
 1810 0124 15D3     		bcc	.L309
 1811 0126 AA46     		mov	r10, r5
 1812 0128 0021     		movs	r1, #0
 1813              	.L310:
 1814 012a BAF1000F 		cmp	r10, #0
 1815 012e 52D1     		bne	.L321
 1816 0130 4CB1     		cbz	r4, .L323
 1817 0132 2580     		strh	r5, [r4]	@ movhi
 1818 0134 3DB1     		cbz	r5, .L323
 1819 0136 231D     		adds	r3, r4, #4
 1820              	.L324:
 1821 0138 B8F1FF3F 		cmp	r8, #-1
 1822 013c 5AD1     		bne	.L327
 1823              	.L326:
 1824 013e 08F10108 		add	r8, r8, #1
 1825 0142 A4F80080 		strh	r8, [r4]	@ movhi
 1826              	.L323:
 1827 0146 B9F1000F 		cmp	r9, #0
 1828 014a A6D0     		beq	.L355
 1829 014c C9F80010 		str	r1, [r9]
 1830 0150 A3E7     		b	.L355
 1831              	.L309:
 1832 0152 4FF0FF33 		mov	r3, #-1
 1833 0156 B3FBF6F3 		udiv	r3, r3, r6
 1834 015a 9CB1     		cbz	r4, .L311
 1835 015c 2946     		mov	r1, r5
 1836 015e 4FF0000E 		mov	lr, #0
 1837              	.L312:
 1838 0162 01BB     		cbnz	r1, .L315
 1839 0164 2580     		strh	r5, [r4]	@ movhi
 1840 0166 3DB1     		cbz	r5, .L317
 1841 0168 231D     		adds	r3, r4, #4
 1842              	.L316:
 1843 016a B8F1FF3F 		cmp	r8, #-1
 1844 016e 2BD1     		bne	.L319
ARM GAS  /tmp/ccN6vd78.s 			page 32


 1845              	.L318:
 1846 0170 08F10108 		add	r8, r8, #1
 1847 0174 A4F80080 		strh	r8, [r4]	@ movhi
 1848              	.L317:
 1849 0178 B9F1000F 		cmp	r9, #0
 1850 017c 8DD0     		beq	.L355
 1851 017e C9F800E0 		str	lr, [r9]
 1852 0182 8AE7     		b	.L355
 1853              	.L311:
 1854 0184 07EB8505 		add	r5, r7, r5, lsl #2
 1855              	.L313:
 1856 0188 AF42     		cmp	r7, r5
 1857 018a 9FD0     		beq	.L356
 1858 018c 55F80419 		ldr	r1, [r5], #-4
 1859 0190 A3FB0102 		umull	r0, r2, r3, r1
 1860 0194 03FB0424 		mla	r4, r3, r4, r2
 1861 0198 04FB1611 		mls	r1, r4, r6, r1
 1862 019c B1FBF6F4 		udiv	r4, r1, r6
 1863 01a0 06FB1414 		mls	r4, r6, r4, r1
 1864 01a4 F0E7     		b	.L313
 1865              	.L315:
 1866 01a6 57F82120 		ldr	r2, [r7, r1, lsl #2]
 1867 01aa A3FB02C0 		umull	ip, r0, r3, r2
 1868 01ae 03FB0E0C 		mla	ip, r3, lr, r0
 1869 01b2 0CFB1622 		mls	r2, ip, r6, r2
 1870 01b6 B2FBF6F0 		udiv	r0, r2, r6
 1871 01ba 06FB102E 		mls	lr, r6, r0, r2
 1872 01be 6044     		add	r0, r0, ip
 1873 01c0 44F82100 		str	r0, [r4, r1, lsl #2]
 1874 01c4 0139     		subs	r1, r1, #1
 1875 01c6 CCE7     		b	.L312
 1876              	.L319:
 1877 01c8 53F82820 		ldr	r2, [r3, r8, lsl #2]
 1878 01cc 002A     		cmp	r2, #0
 1879 01ce CFD1     		bne	.L318
 1880 01d0 08F1FF38 		add	r8, r8, #-1
 1881 01d4 C9E7     		b	.L316
 1882              	.L321:
 1883 01d6 57F82AB0 		ldr	fp, [r7, r10, lsl #2]
 1884 01da 3246     		mov	r2, r6
 1885 01dc 0023     		movs	r3, #0
 1886 01de 5846     		mov	r0, fp
 1887 01e0 FFF7FEFF 		bl	__aeabi_uldivmod
 1888 01e4 06FB10B1 		mls	r1, r6, r0, fp
 1889 01e8 0CB1     		cbz	r4, .L320
 1890 01ea 44F82A00 		str	r0, [r4, r10, lsl #2]
 1891              	.L320:
 1892 01ee 0AF1FF3A 		add	r10, r10, #-1
 1893 01f2 9AE7     		b	.L310
 1894              	.L327:
 1895 01f4 53F82820 		ldr	r2, [r3, r8, lsl #2]
 1896 01f8 002A     		cmp	r2, #0
 1897 01fa A0D1     		bne	.L326
 1898 01fc 08F1FF38 		add	r8, r8, #-1
 1899 0200 9AE7     		b	.L324
 1900              	.L354:
 1901 0202 0329     		cmp	r1, #3
ARM GAS  /tmp/ccN6vd78.s 			page 33


 1902 0204 05F1FF32 		add	r2, r5, #-1
 1903 0208 16D1     		bne	.L328
 1904 020a 2946     		mov	r1, r5
 1905 020c 4FF0000C 		mov	ip, #0
 1906 0210 4FF05536 		mov	r6, #1431655765
 1907 0214 DFF83480 		ldr	r8, .L357
 1908 0218 DFF838E0 		ldr	lr, .L357+8
 1909 021c 31E7     		b	.L329
 1910              	.L293:
 1911 021e 0329     		cmp	r1, #3
 1912 0220 03D1     		bne	.L330
 1913 0222 1146     		mov	r1, r2
 1914 0224 1346     		mov	r3, r2
 1915 0226 0437     		adds	r7, r7, #4
 1916 0228 03E7     		b	.L331
 1917              	.L330:
 1918 022a 0A29     		cmp	r1, #10
 1919 022c 7FF476AF 		bne	.L332
 1920 0230 0749     		ldr	r1, .L357+4
 1921 0232 00EB8505 		add	r5, r0, r5, lsl #2
 1922 0236 47E7     		b	.L333
 1923              	.L328:
 1924 0238 0A29     		cmp	r1, #10
 1925 023a 7FF46FAF 		bne	.L332
 1926 023e 2946     		mov	r1, r5
 1927 0240 4FF00008 		mov	r8, #0
 1928 0244 DFF808E0 		ldr	lr, .L357+4
 1929 0248 53E7     		b	.L334
 1930              	.L358:
 1931 024a 00BF     		.align	2
 1932              	.L357:
 1933 024c 00000000 		.word	.LANCHOR0
 1934 0250 99999919 		.word	429496729
 1935 0254 00000000 		.word	.LANCHOR1
 1937              		.section	.text.sp_mod_d,"ax",%progbits
 1938              		.align	1
 1939              		.global	sp_mod_d
 1940              		.syntax unified
 1941              		.thumb
 1942              		.thumb_func
 1943              		.fpu fpv4-sp-d16
 1945              	sp_mod_d:
 1946              		@ args = 0, pretend = 0, frame = 0
 1947              		@ frame_needed = 0, uses_anonymous_args = 0
 1948 0000 2DE9F041 		push	{r4, r5, r6, r7, r8, lr}
 1949 0004 0D46     		mov	r5, r1
 1950 0006 1646     		mov	r6, r2
 1951 0008 0746     		mov	r7, r0
 1952 000a 0028     		cmp	r0, #0
 1953 000c 6FD0     		beq	.L376
 1954 000e 002A     		cmp	r2, #0
 1955 0010 6DD0     		beq	.L376
 1956 0012 0029     		cmp	r1, #0
 1957 0014 6BD0     		beq	.L376
 1958 0016 4A1E     		subs	r2, r1, #1
 1959 0018 0388     		ldrh	r3, [r0]
 1960 001a 12EA0100 		ands	r0, r2, r1
ARM GAS  /tmp/ccN6vd78.s 			page 34


 1961 001e 08D1     		bne	.L361
 1962 0020 13B9     		cbnz	r3, .L362
 1963 0022 3360     		str	r3, [r6]
 1964              	.L377:
 1965 0024 0020     		movs	r0, #0
 1966 0026 02E0     		b	.L359
 1967              	.L362:
 1968 0028 7B68     		ldr	r3, [r7, #4]
 1969 002a 1340     		ands	r3, r3, r2
 1970              	.L379:
 1971 002c 3360     		str	r3, [r6]
 1972              	.L359:
 1973 002e BDE8F081 		pop	{r4, r5, r6, r7, r8, pc}
 1974              	.L361:
 1975 0032 0329     		cmp	r1, #3
 1976 0034 1DD1     		bne	.L363
 1977 0036 0024     		movs	r4, #0
 1978 0038 2146     		mov	r1, r4
 1979 003a 2246     		mov	r2, r4
 1980 003c 0437     		adds	r7, r7, #4
 1981              	.L364:
 1982 003e 9C42     		cmp	r4, r3
 1983 0040 10D3     		bcc	.L365
 1984 0042 5218     		adds	r2, r2, r1
 1985 0044 4FF05531 		mov	r1, #1431655765
 1986 0048 4FF00000 		mov	r0, #0
 1987 004c A2FB0153 		umull	r5, r3, r2, r1
 1988 0050 40EB0004 		adc	r4, r0, r0
 1989 0054 01FB0433 		mla	r3, r1, r4, r3
 1990 0058 03EB4303 		add	r3, r3, r3, lsl #1
 1991 005c D21A     		subs	r2, r2, r3
 1992 005e 254B     		ldr	r3, .L380
 1993 0060 9B5C     		ldrb	r3, [r3, r2]	@ zero_extendqisi2
 1994 0062 E3E7     		b	.L379
 1995              	.L365:
 1996 0064 57F8045B 		ldr	r5, [r7], #4
 1997 0068 0134     		adds	r4, r4, #1
 1998 006a 6918     		adds	r1, r5, r1
 1999 006c 42F10002 		adc	r2, r2, #0
 2000 0070 E5E7     		b	.L364
 2001              	.L363:
 2002 0072 0A29     		cmp	r1, #10
 2003 0074 4FEA8303 		lsl	r3, r3, #2
 2004 0078 13D1     		bne	.L366
 2005 007a 0021     		movs	r1, #0
 2006 007c 1E48     		ldr	r0, .L380+4
 2007 007e 3B44     		add	r3, r3, r7
 2008              	.L367:
 2009 0080 BB42     		cmp	r3, r7
 2010 0082 01D1     		bne	.L368
 2011              	.L378:
 2012 0084 3160     		str	r1, [r6]
 2013 0086 CDE7     		b	.L377
 2014              	.L368:
 2015 0088 53F80429 		ldr	r2, [r3], #-4
 2016 008c A2FB00C4 		umull	ip, r4, r2, r0
 2017 0090 00FB0141 		mla	r1, r0, r1, r4
ARM GAS  /tmp/ccN6vd78.s 			page 35


 2018 0094 05FB1122 		mls	r2, r5, r1, r2
 2019 0098 B2FBF5F1 		udiv	r1, r2, r5
 2020 009c 05FB1121 		mls	r1, r5, r1, r2
 2021 00a0 EEE7     		b	.L367
 2022              	.L366:
 2023 00a2 B1F5803F 		cmp	r1, #65536
 2024 00a6 0DD3     		bcc	.L369
 2025 00a8 0021     		movs	r1, #0
 2026 00aa FC18     		adds	r4, r7, r3
 2027              	.L370:
 2028 00ac BC42     		cmp	r4, r7
 2029 00ae E9D0     		beq	.L378
 2030 00b0 54F80489 		ldr	r8, [r4], #-4
 2031 00b4 2A46     		mov	r2, r5
 2032 00b6 0023     		movs	r3, #0
 2033 00b8 4046     		mov	r0, r8
 2034 00ba FFF7FEFF 		bl	__aeabi_uldivmod
 2035 00be 00FB1581 		mls	r1, r0, r5, r8
 2036 00c2 F3E7     		b	.L370
 2037              	.L369:
 2038 00c4 4FF0FF30 		mov	r0, #-1
 2039 00c8 B0FBF1F0 		udiv	r0, r0, r1
 2040 00cc 0021     		movs	r1, #0
 2041 00ce 3B44     		add	r3, r3, r7
 2042              	.L371:
 2043 00d0 9F42     		cmp	r7, r3
 2044 00d2 D7D0     		beq	.L378
 2045 00d4 53F80429 		ldr	r2, [r3], #-4
 2046 00d8 A0FB02C4 		umull	ip, r4, r0, r2
 2047 00dc 00FB0141 		mla	r1, r0, r1, r4
 2048 00e0 01FB1522 		mls	r2, r1, r5, r2
 2049 00e4 B2FBF5F1 		udiv	r1, r2, r5
 2050 00e8 05FB1121 		mls	r1, r5, r1, r2
 2051 00ec F0E7     		b	.L371
 2052              	.L376:
 2053 00ee 6FF06100 		mvn	r0, #97
 2054 00f2 9CE7     		b	.L359
 2055              	.L381:
 2056              		.align	2
 2057              	.L380:
 2058 00f4 00000000 		.word	.LANCHOR0
 2059 00f8 99999919 		.word	429496729
 2061              		.section	.text.sp_div_primes,"ax",%progbits
 2062              		.align	1
 2063              		.syntax unified
 2064              		.thumb
 2065              		.thumb_func
 2066              		.fpu fpv4-sp-d16
 2068              	sp_div_primes:
 2069              		@ args = 0, pretend = 0, frame = 8
 2070              		@ frame_needed = 0, uses_anonymous_args = 0
 2071 0000 2DE9F341 		push	{r0, r1, r4, r5, r6, r7, r8, lr}
 2072 0004 0546     		mov	r5, r0
 2073 0006 0E46     		mov	r6, r1
 2074 0008 1746     		mov	r7, r2
 2075 000a 0024     		movs	r4, #0
 2076 000c DFF82C80 		ldr	r8, .L388
ARM GAS  /tmp/ccN6vd78.s 			page 36


 2077              	.L386:
 2078 0010 2846     		mov	r0, r5
 2079 0012 38F8021B 		ldrh	r1, [r8], #2
 2080 0016 01AA     		add	r2, sp, #4
 2081 0018 FFF7FEFF 		bl	sp_mod_d
 2082 001c 08B9     		cbnz	r0, .L383
 2083 001e 019B     		ldr	r3, [sp, #4]
 2084 0020 33B9     		cbnz	r3, .L384
 2085              	.L383:
 2086 0022 0023     		movs	r3, #0
 2087 0024 3B60     		str	r3, [r7]
 2088 0026 0123     		movs	r3, #1
 2089 0028 3360     		str	r3, [r6]
 2090              	.L382:
 2091 002a 02B0     		add	sp, sp, #8
 2092              		@ sp needed
 2093 002c BDE8F081 		pop	{r4, r5, r6, r7, r8, pc}
 2094              	.L384:
 2095 0030 0134     		adds	r4, r4, #1
 2096 0032 B4F5807F 		cmp	r4, #256
 2097 0036 EBD1     		bne	.L386
 2098 0038 F7E7     		b	.L382
 2099              	.L389:
 2100 003a 00BF     		.align	2
 2101              	.L388:
 2102 003c 00000000 		.word	.LANCHOR2
 2104              		.section	.text.sp_div_2,"ax",%progbits
 2105              		.align	1
 2106              		.global	sp_div_2
 2107              		.syntax unified
 2108              		.thumb
 2109              		.thumb_func
 2110              		.fpu fpv4-sp-d16
 2112              	sp_div_2:
 2113              		@ args = 0, pretend = 0, frame = 0
 2114              		@ frame_needed = 0, uses_anonymous_args = 0
 2115 0000 08B5     		push	{r3, lr}
 2116 0002 40B1     		cbz	r0, .L394
 2117 0004 39B1     		cbz	r1, .L394
 2118 0006 0288     		ldrh	r2, [r0]
 2119 0008 4B88     		ldrh	r3, [r1, #2]
 2120 000a 9A42     		cmp	r2, r3
 2121 000c 03D8     		bhi	.L394
 2122 000e FFF7FEFF 		bl	_sp_div_2
 2123 0012 0020     		movs	r0, #0
 2124              	.L390:
 2125 0014 08BD     		pop	{r3, pc}
 2126              	.L394:
 2127 0016 6FF06100 		mvn	r0, #97
 2128 001a FBE7     		b	.L390
 2130              		.section	.text.sp_div_2_mod_ct,"ax",%progbits
 2131              		.align	1
 2132              		.global	sp_div_2_mod_ct
 2133              		.syntax unified
 2134              		.thumb
 2135              		.thumb_func
 2136              		.fpu fpv4-sp-d16
ARM GAS  /tmp/ccN6vd78.s 			page 37


 2138              	sp_div_2_mod_ct:
 2139              		@ args = 0, pretend = 0, frame = 8
 2140              		@ frame_needed = 0, uses_anonymous_args = 0
 2141 0000 2DE9F347 		push	{r0, r1, r4, r5, r6, r7, r8, r9, r10, lr}
 2142 0004 0028     		cmp	r0, #0
 2143 0006 42D0     		beq	.L402
 2144 0008 0029     		cmp	r1, #0
 2145 000a 40D0     		beq	.L402
 2146 000c 002A     		cmp	r2, #0
 2147 000e 3ED0     		beq	.L402
 2148 0010 0D88     		ldrh	r5, [r1]
 2149 0012 5388     		ldrh	r3, [r2, #2]
 2150 0014 AB42     		cmp	r3, r5
 2151 0016 3AD9     		bls	.L402
 2152 0018 0C1D     		adds	r4, r1, #4
 2153 001a 0021     		movs	r1, #0
 2154 001c 0746     		mov	r7, r0
 2155 001e 0E46     		mov	r6, r1
 2156 0020 8846     		mov	r8, r1
 2157 0022 57F8043F 		ldr	r3, [r7, #4]!
 2158 0026 02F1040E 		add	lr, r2, #4
 2159 002a 43F30003 		sbfx	r3, r3, #0, #1
 2160 002e 0093     		str	r3, [sp]
 2161              	.L397:
 2162 0030 1FFA81FC 		uxth	ip, r1
 2163 0034 6545     		cmp	r5, ip
 2164 0036 0CD8     		bhi	.L398
 2165 0038 02EB8503 		add	r3, r2, r5, lsl #2
 2166 003c 5E60     		str	r6, [r3, #4]
 2167 003e 6B1C     		adds	r3, r5, #1
 2168 0040 1046     		mov	r0, r2
 2169 0042 1146     		mov	r1, r2
 2170 0044 1380     		strh	r3, [r2]	@ movhi
 2171 0046 FFF7FEFF 		bl	_sp_div_2
 2172 004a 0020     		movs	r0, #0
 2173              	.L395:
 2174 004c 02B0     		add	sp, sp, #8
 2175              		@ sp needed
 2176 004e BDE8F087 		pop	{r4, r5, r6, r7, r8, r9, r10, pc}
 2177              	.L398:
 2178 0052 0388     		ldrh	r3, [r0]
 2179 0054 0131     		adds	r1, r1, #1
 2180 0056 6345     		cmp	r3, ip
 2181 0058 4FF0FF33 		mov	r3, #-1
 2182 005c 98BF     		it	ls
 2183 005e 0023     		movls	r3, #0
 2184 0060 0193     		str	r3, [sp, #4]
 2185 0062 DDF800A0 		ldr	r10, [sp]
 2186 0066 54F8043B 		ldr	r3, [r4], #4
 2187 006a 57F804CB 		ldr	ip, [r7], #4
 2188 006e DDF80490 		ldr	r9, [sp, #4]
 2189 0072 03EA0A03 		and	r3, r3, r10
 2190 0076 0CEA090C 		and	ip, ip, r9
 2191 007a 13EB0C03 		adds	r3, r3, ip
 2192 007e 48EB080C 		adc	ip, r8, r8
 2193 0082 9B19     		adds	r3, r3, r6
 2194 0084 4EF8043B 		str	r3, [lr], #4
ARM GAS  /tmp/ccN6vd78.s 			page 38


 2195 0088 4CF10006 		adc	r6, ip, #0
 2196 008c D0E7     		b	.L397
 2197              	.L402:
 2198 008e 6FF06100 		mvn	r0, #97
 2199 0092 DBE7     		b	.L395
 2201              		.section	.text.sp_add,"ax",%progbits
 2202              		.align	1
 2203              		.global	sp_add
 2204              		.syntax unified
 2205              		.thumb
 2206              		.thumb_func
 2207              		.fpu fpv4-sp-d16
 2209              	sp_add:
 2210              		@ args = 0, pretend = 0, frame = 0
 2211              		@ frame_needed = 0, uses_anonymous_args = 0
 2212 0000 38B5     		push	{r3, r4, r5, lr}
 2213 0002 60B1     		cbz	r0, .L409
 2214 0004 59B1     		cbz	r1, .L409
 2215 0006 52B1     		cbz	r2, .L409
 2216 0008 5588     		ldrh	r5, [r2, #2]
 2217 000a 0488     		ldrh	r4, [r0]
 2218 000c AC42     		cmp	r4, r5
 2219 000e 06D2     		bcs	.L409
 2220 0010 0B88     		ldrh	r3, [r1]
 2221 0012 AB42     		cmp	r3, r5
 2222 0014 03D2     		bcs	.L409
 2223 0016 FFF7FEFF 		bl	_sp_add_off.constprop.0
 2224 001a 0020     		movs	r0, #0
 2225              	.L403:
 2226 001c 38BD     		pop	{r3, r4, r5, pc}
 2227              	.L409:
 2228 001e 6FF06100 		mvn	r0, #97
 2229 0022 FBE7     		b	.L403
 2231              		.section	.text.sp_sub,"ax",%progbits
 2232              		.align	1
 2233              		.global	sp_sub
 2234              		.syntax unified
 2235              		.thumb
 2236              		.thumb_func
 2237              		.fpu fpv4-sp-d16
 2239              	sp_sub:
 2240              		@ args = 0, pretend = 0, frame = 0
 2241              		@ frame_needed = 0, uses_anonymous_args = 0
 2242 0000 38B5     		push	{r3, r4, r5, lr}
 2243 0002 68B1     		cbz	r0, .L416
 2244 0004 61B1     		cbz	r1, .L416
 2245 0006 5AB1     		cbz	r2, .L416
 2246 0008 5588     		ldrh	r5, [r2, #2]
 2247 000a 0488     		ldrh	r4, [r0]
 2248 000c AC42     		cmp	r4, r5
 2249 000e 07D2     		bcs	.L416
 2250 0010 0B88     		ldrh	r3, [r1]
 2251 0012 AB42     		cmp	r3, r5
 2252 0014 04D2     		bcs	.L416
 2253 0016 0023     		movs	r3, #0
 2254 0018 FFF7FEFF 		bl	_sp_sub_off
 2255 001c 0020     		movs	r0, #0
ARM GAS  /tmp/ccN6vd78.s 			page 39


 2256              	.L410:
 2257 001e 38BD     		pop	{r3, r4, r5, pc}
 2258              	.L416:
 2259 0020 6FF06100 		mvn	r0, #97
 2260 0024 FBE7     		b	.L410
 2262              		.section	.text.sp_addmod_ct,"ax",%progbits
 2263              		.align	1
 2264              		.global	sp_addmod_ct
 2265              		.syntax unified
 2266              		.thumb
 2267              		.thumb_func
 2268              		.fpu fpv4-sp-d16
 2270              	sp_addmod_ct:
 2271              		@ args = 0, pretend = 0, frame = 16
 2272              		@ frame_needed = 0, uses_anonymous_args = 0
 2273 0000 2DE9F04F 		push	{r4, r5, r6, r7, r8, r9, r10, fp, lr}
 2274 0004 4FF0FF34 		mov	r4, #-1
 2275 0008 85B0     		sub	sp, sp, #20
 2276 000a 0294     		str	r4, [sp, #8]
 2277 000c B2F800C0 		ldrh	ip, [r2]
 2278 0010 0394     		str	r4, [sp, #12]
 2279 0012 5C88     		ldrh	r4, [r3, #2]
 2280 0014 6445     		cmp	r4, ip
 2281 0016 64D3     		bcc	.L424
 2282 0018 9A42     		cmp	r2, r3
 2283 001a 62D0     		beq	.L424
 2284 001c 0025     		movs	r5, #0
 2285 001e 2E46     		mov	r6, r5
 2286 0020 A846     		mov	r8, r5
 2287 0022 AE46     		mov	lr, r5
 2288 0024 A946     		mov	r9, r5
 2289 0026 AB46     		mov	fp, r5
 2290              	.L419:
 2291 0028 ACB2     		uxth	r4, r5
 2292 002a A445     		cmp	ip, r4
 2293 002c 06F10106 		add	r6, r6, #1
 2294 0030 18D8     		bhi	.L420
 2295 0032 0020     		movs	r0, #0
 2296 0034 19EB0804 		adds	r4, r9, r8
 2297 0038 4BEB0E01 		adc	r1, fp, lr
 2298 003c C943     		mvns	r1, r1
 2299 003e 0446     		mov	r4, r0
 2300 0040 0546     		mov	r5, r0
 2301 0042 C90F     		lsrs	r1, r1, #31
 2302 0044 4942     		rsbs	r1, r1, #0
 2303 0046 0191     		str	r1, [sp, #4]
 2304 0048 1E1D     		adds	r6, r3, #4
 2305 004a 0432     		adds	r2, r2, #4
 2306              	.L421:
 2307 004c 81B2     		uxth	r1, r0
 2308 004e 8C45     		cmp	ip, r1
 2309 0050 37D8     		bhi	.L422
 2310 0052 1846     		mov	r0, r3
 2311 0054 A3F800C0 		strh	ip, [r3]	@ movhi
 2312 0058 FFF7FEFF 		bl	sp_clamp_ct
 2313 005c 0020     		movs	r0, #0
 2314              	.L417:
ARM GAS  /tmp/ccN6vd78.s 			page 40


 2315 005e 05B0     		add	sp, sp, #20
 2316              		@ sp needed
 2317 0060 BDE8F08F 		pop	{r4, r5, r6, r7, r8, r9, r10, fp, pc}
 2318              	.L420:
 2319 0064 029F     		ldr	r7, [sp, #8]
 2320 0066 B0F800A0 		ldrh	r10, [r0]
 2321 006a 0135     		adds	r5, r5, #1
 2322 006c A245     		cmp	r10, r4
 2323 006e 08BF     		it	eq
 2324 0070 0137     		addeq	r7, r7, #1
 2325 0072 0297     		str	r7, [sp, #8]
 2326 0074 039F     		ldr	r7, [sp, #12]
 2327 0076 B1F800A0 		ldrh	r10, [r1]
 2328 007a A245     		cmp	r10, r4
 2329 007c 08BF     		it	eq
 2330 007e 0137     		addeq	r7, r7, #1
 2331 0080 0397     		str	r7, [sp, #12]
 2332 0082 029C     		ldr	r4, [sp, #8]
 2333 0084 50F82670 		ldr	r7, [r0, r6, lsl #2]
 2334 0088 3C40     		ands	r4, r4, r7
 2335 008a 14EB090A 		adds	r10, r4, r9
 2336 008e 51F82670 		ldr	r7, [r1, r6, lsl #2]
 2337 0092 039C     		ldr	r4, [sp, #12]
 2338 0094 4BF10009 		adc	r9, fp, #0
 2339 0098 3C40     		ands	r4, r4, r7
 2340 009a 14EB0A04 		adds	r4, r4, r10
 2341 009e 43F82640 		str	r4, [r3, r6, lsl #2]
 2342 00a2 52F82670 		ldr	r7, [r2, r6, lsl #2]
 2343 00a6 49F10009 		adc	r9, r9, #0
 2344 00aa 14EB0804 		adds	r4, r4, r8
 2345 00ae 4EF1000E 		adc	lr, lr, #0
 2346 00b2 E41B     		subs	r4, r4, r7
 2347 00b4 6EF10008 		sbc	r8, lr, #0
 2348 00b8 4FEAE87E 		asr	lr, r8, #31
 2349 00bc 4FEAE97B 		asr	fp, r9, #31
 2350 00c0 B2E7     		b	.L419
 2351              	.L422:
 2352 00c2 3168     		ldr	r1, [r6]
 2353 00c4 019F     		ldr	r7, [sp, #4]
 2354 00c6 0919     		adds	r1, r1, r4
 2355 00c8 45F10004 		adc	r4, r5, #0
 2356 00cc 52F8045B 		ldr	r5, [r2], #4
 2357 00d0 0130     		adds	r0, r0, #1
 2358 00d2 3D40     		ands	r5, r5, r7
 2359 00d4 491B     		subs	r1, r1, r5
 2360 00d6 64F10004 		sbc	r4, r4, #0
 2361 00da 46F8041B 		str	r1, [r6], #4
 2362 00de E517     		asrs	r5, r4, #31
 2363 00e0 B4E7     		b	.L421
 2364              	.L424:
 2365 00e2 6FF06100 		mvn	r0, #97
 2366 00e6 BAE7     		b	.L417
 2368              		.section	.text.sp_submod_ct,"ax",%progbits
 2369              		.align	1
 2370              		.global	sp_submod_ct
 2371              		.syntax unified
 2372              		.thumb
ARM GAS  /tmp/ccN6vd78.s 			page 41


 2373              		.thumb_func
 2374              		.fpu fpv4-sp-d16
 2376              	sp_submod_ct:
 2377              		@ args = 0, pretend = 0, frame = 0
 2378              		@ frame_needed = 0, uses_anonymous_args = 0
 2379 0000 73B5     		push	{r0, r1, r4, r5, r6, lr}
 2380 0002 1588     		ldrh	r5, [r2]
 2381 0004 5E88     		ldrh	r6, [r3, #2]
 2382 0006 AE42     		cmp	r6, r5
 2383 0008 08D3     		bcc	.L428
 2384 000a 9A42     		cmp	r2, r3
 2385 000c 06D0     		beq	.L428
 2386 000e 0093     		str	r3, [sp]
 2387 0010 2B46     		mov	r3, r5
 2388 0012 FFF7FEFF 		bl	_sp_submod_ct
 2389 0016 0020     		movs	r0, #0
 2390              	.L425:
 2391 0018 02B0     		add	sp, sp, #8
 2392              		@ sp needed
 2393 001a 70BD     		pop	{r4, r5, r6, pc}
 2394              	.L428:
 2395 001c 6FF06100 		mvn	r0, #97
 2396 0020 FAE7     		b	.L425
 2398              		.section	.text.sp_lshd,"ax",%progbits
 2399              		.align	1
 2400              		.global	sp_lshd
 2401              		.syntax unified
 2402              		.thumb
 2403              		.thumb_func
 2404              		.fpu fpv4-sp-d16
 2406              	sp_lshd:
 2407              		@ args = 0, pretend = 0, frame = 0
 2408              		@ frame_needed = 0, uses_anonymous_args = 0
 2409 0000 F8B5     		push	{r3, r4, r5, r6, r7, lr}
 2410 0002 0C46     		mov	r4, r1
 2411 0004 0546     		mov	r5, r0
 2412 0006 10B3     		cbz	r0, .L435
 2413 0008 0029     		cmp	r1, #0
 2414 000a 20DB     		blt	.L435
 2415 000c 0288     		ldrh	r2, [r0]
 2416 000e 4388     		ldrh	r3, [r0, #2]
 2417 0010 5118     		adds	r1, r2, r1
 2418 0012 9942     		cmp	r1, r3
 2419 0014 1BD8     		bhi	.L435
 2420 0016 061D     		adds	r6, r0, #4
 2421 0018 3146     		mov	r1, r6
 2422 001a A700     		lsls	r7, r4, #2
 2423 001c 9200     		lsls	r2, r2, #2
 2424 001e 06EB8400 		add	r0, r6, r4, lsl #2
 2425 0022 FFF7FEFF 		bl	memmove
 2426 0026 3A46     		mov	r2, r7
 2427 0028 0021     		movs	r1, #0
 2428 002a 3046     		mov	r0, r6
 2429 002c FFF7FEFF 		bl	memset
 2430 0030 2888     		ldrh	r0, [r5]
 2431 0032 0444     		add	r4, r4, r0
 2432 0034 A0B2     		uxth	r0, r4
ARM GAS  /tmp/ccN6vd78.s 			page 42


 2433 0036 2880     		strh	r0, [r5]	@ movhi
 2434 0038 40B1     		cbz	r0, .L429
 2435 003a 441E     		subs	r4, r0, #1
 2436              	.L432:
 2437 003c 56F82430 		ldr	r3, [r6, r4, lsl #2]
 2438 0040 0BB9     		cbnz	r3, .L431
 2439 0042 013C     		subs	r4, r4, #1
 2440 0044 FAD2     		bcs	.L432
 2441              	.L431:
 2442 0046 0020     		movs	r0, #0
 2443 0048 0134     		adds	r4, r4, #1
 2444 004a 2C80     		strh	r4, [r5]	@ movhi
 2445              	.L429:
 2446 004c F8BD     		pop	{r3, r4, r5, r6, r7, pc}
 2447              	.L435:
 2448 004e 6FF06100 		mvn	r0, #97
 2449 0052 FBE7     		b	.L429
 2451              		.section	.text.sp_rshd,"ax",%progbits
 2452              		.align	1
 2453              		.global	sp_rshd
 2454              		.syntax unified
 2455              		.thumb
 2456              		.thumb_func
 2457              		.fpu fpv4-sp-d16
 2459              	sp_rshd:
 2460              		@ args = 0, pretend = 0, frame = 0
 2461              		@ frame_needed = 0, uses_anonymous_args = 0
 2462 0000 10B5     		push	{r4, lr}
 2463 0002 40B1     		cbz	r0, .L438
 2464 0004 0029     		cmp	r1, #0
 2465 0006 06DD     		ble	.L438
 2466 0008 0388     		ldrh	r3, [r0]
 2467 000a 8AB2     		uxth	r2, r1
 2468 000c 9A42     		cmp	r2, r3
 2469 000e 03D3     		bcc	.L440
 2470 0010 0023     		movs	r3, #0
 2471 0012 0380     		strh	r3, [r0]	@ movhi
 2472 0014 4360     		str	r3, [r0, #4]
 2473              	.L438:
 2474 0016 10BD     		pop	{r4, pc}
 2475              	.L440:
 2476 0018 9B1A     		subs	r3, r3, r2
 2477 001a 0022     		movs	r2, #0
 2478 001c 9BB2     		uxth	r3, r3
 2479 001e 20F8043B 		strh	r3, [r0], #4	@ movhi
 2480              	.L442:
 2481 0022 0132     		adds	r2, r2, #1
 2482 0024 50F82140 		ldr	r4, [r0, r1, lsl #2]
 2483 0028 92B2     		uxth	r2, r2
 2484 002a 9342     		cmp	r3, r2
 2485 002c 40F8044B 		str	r4, [r0], #4
 2486 0030 F7D1     		bne	.L442
 2487 0032 F0E7     		b	.L438
 2489              		.section	.text.sp_rshb,"ax",%progbits
 2490              		.align	1
 2491              		.global	sp_rshb
 2492              		.syntax unified
ARM GAS  /tmp/ccN6vd78.s 			page 43


 2493              		.thumb
 2494              		.thumb_func
 2495              		.fpu fpv4-sp-d16
 2497              	sp_rshb:
 2498              		@ args = 0, pretend = 0, frame = 0
 2499              		@ frame_needed = 0, uses_anonymous_args = 0
 2500 0000 F8B5     		push	{r3, r4, r5, r6, r7, lr}
 2501 0002 1646     		mov	r6, r2
 2502 0004 0746     		mov	r7, r0
 2503 0006 0028     		cmp	r0, #0
 2504 0008 4AD0     		beq	.L456
 2505 000a 0029     		cmp	r1, #0
 2506 000c 48DB     		blt	.L456
 2507 000e 0388     		ldrh	r3, [r0]
 2508 0010 C1F34F12 		ubfx	r2, r1, #5, #16
 2509 0014 9342     		cmp	r3, r2
 2510 0016 4FEA6114 		asr	r4, r1, #5
 2511 001a 04D8     		bhi	.L449
 2512 001c 0025     		movs	r5, #0
 2513 001e 3580     		strh	r5, [r6]	@ movhi
 2514 0020 7560     		str	r5, [r6, #4]
 2515              	.L447:
 2516 0022 2846     		mov	r0, r5
 2517 0024 F8BD     		pop	{r3, r4, r5, r6, r7, pc}
 2518              	.L449:
 2519 0026 7088     		ldrh	r0, [r6, #2]
 2520 0028 A4B2     		uxth	r4, r4
 2521 002a 1D1B     		subs	r5, r3, r4
 2522 002c 8542     		cmp	r5, r0
 2523 002e 37DC     		bgt	.L456
 2524 0030 11F01F05 		ands	r5, r1, #31
 2525 0034 06F10400 		add	r0, r6, #4
 2526 0038 17D0     		beq	.L450
 2527 003a 0021     		movs	r1, #0
 2528 003c 013B     		subs	r3, r3, #1
 2529 003e 0134     		adds	r4, r4, #1
 2530 0040 9B1A     		subs	r3, r3, r2
 2531 0042 07EB8404 		add	r4, r7, r4, lsl #2
 2532 0046 9BB2     		uxth	r3, r3
 2533 0048 C5F1200C 		rsb	ip, r5, #32
 2534              	.L451:
 2535 004c 54F8042B 		ldr	r2, [r4], #4
 2536 0050 8B42     		cmp	r3, r1
 2537 0052 22FA05F2 		lsr	r2, r2, r5
 2538 0056 1AD8     		bhi	.L453
 2539 0058 06EB8301 		add	r1, r6, r3, lsl #2
 2540 005c 002A     		cmp	r2, #0
 2541 005e 18BF     		it	ne
 2542 0060 0133     		addne	r3, r3, #1
 2543 0062 4A60     		str	r2, [r1, #4]
 2544 0064 0025     		movs	r5, #0
 2545 0066 3380     		strh	r3, [r6]	@ movhi
 2546 0068 DBE7     		b	.L447
 2547              	.L450:
 2548 006a 9B1A     		subs	r3, r3, r2
 2549 006c 9BB2     		uxth	r3, r3
 2550 006e B742     		cmp	r7, r6
ARM GAS  /tmp/ccN6vd78.s 			page 44


 2551 0070 3380     		strh	r3, [r6]	@ movhi
 2552 0072 4FEA8401 		lsl	r1, r4, #2
 2553 0076 4FEA8302 		lsl	r2, r3, #2
 2554 007a 03D1     		bne	.L452
 2555 007c 0144     		add	r1, r1, r0
 2556 007e FFF7FEFF 		bl	memmove
 2557 0082 CEE7     		b	.L447
 2558              	.L452:
 2559 0084 0437     		adds	r7, r7, #4
 2560 0086 3944     		add	r1, r1, r7
 2561 0088 FFF7FEFF 		bl	memcpy
 2562 008c C9E7     		b	.L447
 2563              	.L453:
 2564 008e 2768     		ldr	r7, [r4]
 2565 0090 0131     		adds	r1, r1, #1
 2566 0092 07FA0CF7 		lsl	r7, r7, ip
 2567 0096 3A43     		orrs	r2, r2, r7
 2568 0098 40F8042B 		str	r2, [r0], #4
 2569 009c 89B2     		uxth	r1, r1
 2570 009e D5E7     		b	.L451
 2571              	.L456:
 2572 00a0 6FF06105 		mvn	r5, #97
 2573 00a4 BDE7     		b	.L447
 2575              		.section	.text._sp_div,"ax",%progbits
 2576              		.align	1
 2577              		.syntax unified
 2578              		.thumb
 2579              		.thumb_func
 2580              		.fpu fpv4-sp-d16
 2582              	_sp_div:
 2583              		@ args = 4, pretend = 0, frame = 48
 2584              		@ frame_needed = 0, uses_anonymous_args = 0
 2585 0000 2DE9F04F 		push	{r4, r5, r6, r7, r8, r9, r10, fp, lr}
 2586 0004 2DED028B 		vpush.64	{d8}
 2587 0008 8246     		mov	r10, r0
 2588 000a 0E46     		mov	r6, r1
 2589 000c 8DB0     		sub	sp, sp, #52
 2590 000e 0021     		movs	r1, #0
 2591 0010 1746     		mov	r7, r2
 2592 0012 08A8     		add	r0, sp, #32
 2593 0014 1022     		movs	r2, #16
 2594 0016 1D46     		mov	r5, r3
 2595 0018 FFF7FEFF 		bl	memset
 2596 001c 3146     		mov	r1, r6
 2597 001e 5046     		mov	r0, r10
 2598 0020 FFF7FEFF 		bl	_sp_cmp_abs
 2599 0024 431C     		adds	r3, r0, #1
 2600 0026 12D1     		bne	.L458
 2601 0028 2DB1     		cbz	r5, .L459
 2602 002a AA45     		cmp	r10, r5
 2603 002c 03D0     		beq	.L459
 2604 002e 2946     		mov	r1, r5
 2605 0030 5046     		mov	r0, r10
 2606 0032 FFF7FEFF 		bl	_sp_copy
 2607              	.L459:
 2608 0036 17B1     		cbz	r7, .L460
 2609 0038 0020     		movs	r0, #0
ARM GAS  /tmp/ccN6vd78.s 			page 45


 2610 003a 7860     		str	r0, [r7, #4]
 2611 003c 3880     		strh	r0, [r7]	@ movhi
 2612              	.L460:
 2613 003e 4FF0000A 		mov	r10, #0
 2614              	.L457:
 2615 0042 5046     		mov	r0, r10
 2616 0044 0DB0     		add	sp, sp, #52
 2617              		@ sp needed
 2618 0046 BDEC028B 		vldm	sp!, {d8}
 2619 004a BDE8F08F 		pop	{r4, r5, r6, r7, r8, r9, r10, fp, pc}
 2620              	.L458:
 2621 004e 40B9     		cbnz	r0, .L462
 2622 0050 0DB1     		cbz	r5, .L463
 2623 0052 6860     		str	r0, [r5, #4]
 2624 0054 2880     		strh	r0, [r5]	@ movhi
 2625              	.L463:
 2626 0056 002F     		cmp	r7, #0
 2627 0058 F1D0     		beq	.L460
 2628 005a 0123     		movs	r3, #1
 2629 005c 7B60     		str	r3, [r7, #4]
 2630 005e 3B80     		strh	r3, [r7]	@ movhi
 2631 0060 EDE7     		b	.L460
 2632              	.L462:
 2633 0062 5046     		mov	r0, r10
 2634 0064 FFF7FEFF 		bl	sp_count_bits
 2635 0068 0446     		mov	r4, r0
 2636 006a 3046     		mov	r0, r6
 2637 006c FFF7FEFF 		bl	sp_count_bits
 2638 0070 8442     		cmp	r4, r0
 2639 0072 07D1     		bne	.L464
 2640 0074 002D     		cmp	r5, #0
 2641 0076 EED0     		beq	.L463
 2642 0078 0023     		movs	r3, #0
 2643 007a 2A46     		mov	r2, r5
 2644 007c 5046     		mov	r0, r10
 2645 007e FFF7FEFF 		bl	_sp_sub_off
 2646 0082 E8E7     		b	.L463
 2647              	.L464:
 2648 0084 002D     		cmp	r5, #0
 2649 0086 3BD0     		beq	.L496
 2650 0088 AE42     		cmp	r6, r5
 2651 008a 3DD0     		beq	.L497
 2652 008c 6A88     		ldrh	r2, [r5, #2]
 2653 008e BAF80030 		ldrh	r3, [r10]
 2654 0092 9A42     		cmp	r2, r3
 2655 0094 8DBF     		iteet	hi
 2656 0096 2C46     		movhi	r4, r5
 2657 0098 0024     		movls	r4, #0
 2658 009a 4FF0040B 		movls	fp, #4
 2659 009e 4FF0030B 		movhi	fp, #3
 2660              	.L465:
 2661 00a2 1FB1     		cbz	r7, .L499
 2662 00a4 BE42     		cmp	r6, r7
 2663 00a6 33D0     		beq	.L500
 2664 00a8 0BF1FF3B 		add	fp, fp, #-1
 2665              	.L499:
 2666 00ac B946     		mov	r9, r7
ARM GAS  /tmp/ccN6vd78.s 			page 46


 2667              	.L466:
 2668 00ae 189B     		ldr	r3, [sp, #96]
 2669 00b0 232B     		cmp	r3, #35
 2670 00b2 00F25F81 		bhi	.L501
 2671 00b6 012B     		cmp	r3, #1
 2672 00b8 1946     		mov	r1, r3
 2673 00ba 38BF     		it	cc
 2674 00bc 0121     		movcc	r1, #1
 2675 00be 0131     		adds	r1, r1, #1
 2676 00c0 8900     		lsls	r1, r1, #2
 2677 00c2 01FB0BF0 		mul	r0, r1, fp
 2678 00c6 0191     		str	r1, [sp, #4]
 2679 00c8 FFF7FEFF 		bl	wolfSSL_Malloc
 2680 00cc 8046     		mov	r8, r0
 2681 00ce 0028     		cmp	r0, #0
 2682 00d0 00F05381 		beq	.L502
 2683 00d4 4FF0010E 		mov	lr, #1
 2684 00d8 189B     		ldr	r3, [sp, #96]
 2685 00da 0199     		ldr	r1, [sp, #4]
 2686 00dc 9BB2     		uxth	r3, r3
 2687 00de 0890     		str	r0, [sp, #32]
 2688 00e0 4380     		strh	r3, [r0, #2]	@ movhi
 2689 00e2 0DF1200C 		add	ip, sp, #32
 2690              	.L468:
 2691 00e6 DCF80000 		ldr	r0, [ip]
 2692 00ea 0EF1010E 		add	lr, lr, #1
 2693 00ee 0844     		add	r0, r0, r1
 2694 00f0 F345     		cmp	fp, lr
 2695 00f2 4CF8040F 		str	r0, [ip, #4]!
 2696 00f6 4380     		strh	r3, [r0, #2]	@ movhi
 2697 00f8 F5DC     		bgt	.L468
 2698 00fa 64B1     		cbz	r4, .L494
 2699 00fc 0222     		movs	r2, #2
 2700 00fe 10E0     		b	.L495
 2701              	.L496:
 2702 0100 2C46     		mov	r4, r5
 2703 0102 4FF0040B 		mov	fp, #4
 2704 0106 CCE7     		b	.L465
 2705              	.L497:
 2706 0108 4FF0040B 		mov	fp, #4
 2707 010c 0024     		movs	r4, #0
 2708 010e C8E7     		b	.L465
 2709              	.L500:
 2710 0110 4FF00009 		mov	r9, #0
 2711 0114 CBE7     		b	.L466
 2712              	.L494:
 2713 0116 0022     		movs	r2, #0
 2714 0118 0A9C     		ldr	r4, [sp, #40]
 2715 011a 2280     		strh	r2, [r4]	@ movhi
 2716 011c 6260     		str	r2, [r4, #4]
 2717 011e 0322     		movs	r2, #3
 2718 0120 6380     		strh	r3, [r4, #2]	@ movhi
 2719              	.L495:
 2720 0122 3188     		ldrh	r1, [r6]
 2721 0124 B9F1000F 		cmp	r9, #0
 2722 0128 10D1     		bne	.L470
 2723 012a 0CA8     		add	r0, sp, #48
ARM GAS  /tmp/ccN6vd78.s 			page 47


 2724 012c 00EB8202 		add	r2, r0, r2, lsl #2
 2725 0130 0020     		movs	r0, #0
 2726 0132 52F8109C 		ldr	r9, [r2, #-16]
 2727 0136 BAF80020 		ldrh	r2, [r10]
 2728 013a A9F80000 		strh	r0, [r9]	@ movhi
 2729 013e 521A     		subs	r2, r2, r1
 2730 0140 0232     		adds	r2, r2, #2
 2731 0142 92B2     		uxth	r2, r2
 2732 0144 C9F80400 		str	r0, [r9, #4]
 2733 0148 A9F80220 		strh	r2, [r9, #2]	@ movhi
 2734              	.L470:
 2735 014c 0022     		movs	r2, #0
 2736 014e DDF824B0 		ldr	fp, [sp, #36]
 2737 0152 0131     		adds	r1, r1, #1
 2738 0154 89B2     		uxth	r1, r1
 2739 0156 A8F80020 		strh	r2, [r8]	@ movhi
 2740 015a C8F80420 		str	r2, [r8, #4]
 2741 015e A8F80210 		strh	r1, [r8, #2]	@ movhi
 2742 0162 3046     		mov	r0, r6
 2743 0164 ABF80020 		strh	r2, [fp]	@ movhi
 2744 0168 CBF80420 		str	r2, [fp, #4]
 2745 016c ABF80230 		strh	r3, [fp, #2]	@ movhi
 2746 0170 FFF7FEFF 		bl	sp_count_bits
 2747 0174 00F01F00 		and	r0, r0, #31
 2748 0178 C0F12003 		rsb	r3, r0, #32
 2749 017c 08EE103A 		vmov	s16, r3	@ int
 2750 0180 2146     		mov	r1, r4
 2751 0182 5046     		mov	r0, r10
 2752 0184 FFF7FEFF 		bl	_sp_copy
 2753 0188 18EE103A 		vmov	r3, s16	@ int
 2754 018c 202B     		cmp	r3, #32
 2755 018e 12D0     		beq	.L471
 2756 0190 18EE101A 		vmov	r1, s16	@ int
 2757 0194 2046     		mov	r0, r4
 2758 0196 FFF7FEFF 		bl	sp_lshb
 2759 019a 8246     		mov	r10, r0
 2760 019c 78B9     		cbnz	r0, .L472
 2761 019e 4146     		mov	r1, r8
 2762 01a0 3046     		mov	r0, r6
 2763 01a2 FFF7FEFF 		bl	_sp_copy
 2764 01a6 18EE101A 		vmov	r1, s16	@ int
 2765 01aa 4046     		mov	r0, r8
 2766 01ac FFF7FEFF 		bl	sp_lshb
 2767 01b0 8246     		mov	r10, r0
 2768 01b2 20B9     		cbnz	r0, .L472
 2769 01b4 4646     		mov	r6, r8
 2770              	.L471:
 2771 01b6 3388     		ldrh	r3, [r6]
 2772 01b8 2BB9     		cbnz	r3, .L473
 2773              	.L541:
 2774 01ba 4FF0000A 		mov	r10, #0
 2775              	.L472:
 2776 01be 4046     		mov	r0, r8
 2777 01c0 FFF7FEFF 		bl	wolfSSL_Free
 2778 01c4 3DE7     		b	.L457
 2779              	.L473:
 2780 01c6 4846     		mov	r0, r9
ARM GAS  /tmp/ccN6vd78.s 			page 48


 2781 01c8 2288     		ldrh	r2, [r4]
 2782 01ca 0021     		movs	r1, #0
 2783 01cc 0132     		adds	r2, r2, #1
 2784 01ce D21A     		subs	r2, r2, r3
 2785 01d0 92B2     		uxth	r2, r2
 2786 01d2 20F8042B 		strh	r2, [r0], #4	@ movhi
 2787 01d6 9200     		lsls	r2, r2, #2
 2788 01d8 FFF7FEFF 		bl	memset
 2789 01dc 3388     		ldrh	r3, [r6]
 2790 01de 4A46     		mov	r2, r9
 2791 01e0 56F82330 		ldr	r3, [r6, r3, lsl #2]
 2792 01e4 3146     		mov	r1, r6
 2793 01e6 2046     		mov	r0, r4
 2794 01e8 0593     		str	r3, [sp, #20]
 2795 01ea FFF7FEFF 		bl	_sp_div_same_size
 2796 01ee 2388     		ldrh	r3, [r4]
 2797 01f0 B6F800A0 		ldrh	r10, [r6]
 2798 01f4 013B     		subs	r3, r3, #1
 2799 01f6 9BB2     		uxth	r3, r3
 2800 01f8 0193     		str	r3, [sp, #4]
 2801 01fa 0AF10103 		add	r3, r10, #1
 2802 01fe 0493     		str	r3, [sp, #16]
 2803 0200 0BEB8303 		add	r3, fp, r3, lsl #2
 2804 0204 0693     		str	r3, [sp, #24]
 2805 0206 0BEB8A03 		add	r3, fp, r10, lsl #2
 2806 020a 0793     		str	r3, [sp, #28]
 2807              	.L474:
 2808 020c 019B     		ldr	r3, [sp, #4]
 2809 020e 5345     		cmp	r3, r10
 2810 0210 37D2     		bcs	.L483
 2811 0212 0133     		adds	r3, r3, #1
 2812 0214 9BB2     		uxth	r3, r3
 2813 0216 2380     		strh	r3, [r4]	@ movhi
 2814 0218 3288     		ldrh	r2, [r6]
 2815 021a 9A42     		cmp	r2, r3
 2816 021c 04D1     		bne	.L484
 2817 021e 4A46     		mov	r2, r9
 2818 0220 3146     		mov	r1, r6
 2819 0222 2046     		mov	r0, r4
 2820 0224 FFF7FEFF 		bl	_sp_div_same_size
 2821              	.L484:
 2822 0228 C5B1     		cbz	r5, .L486
 2823 022a 18EE103A 		vmov	r3, s16	@ int
 2824 022e 202B     		cmp	r3, #32
 2825 0230 05D0     		beq	.L487
 2826 0232 2246     		mov	r2, r4
 2827 0234 18EE101A 		vmov	r1, s16	@ int
 2828 0238 2046     		mov	r0, r4
 2829 023a FFF7FEFF 		bl	sp_rshb
 2830              	.L487:
 2831 023e 2946     		mov	r1, r5
 2832 0240 2046     		mov	r0, r4
 2833 0242 FFF7FEFF 		bl	_sp_copy
 2834 0246 2B88     		ldrh	r3, [r5]
 2835 0248 43B1     		cbz	r3, .L486
 2836 024a 013B     		subs	r3, r3, #1
 2837 024c 2A1D     		adds	r2, r5, #4
ARM GAS  /tmp/ccN6vd78.s 			page 49


 2838              	.L490:
 2839 024e 52F82310 		ldr	r1, [r2, r3, lsl #2]
 2840 0252 09B9     		cbnz	r1, .L489
 2841 0254 013B     		subs	r3, r3, #1
 2842 0256 FAD2     		bcs	.L490
 2843              	.L489:
 2844 0258 0133     		adds	r3, r3, #1
 2845 025a 2B80     		strh	r3, [r5]	@ movhi
 2846              	.L486:
 2847 025c 002F     		cmp	r7, #0
 2848 025e ACD0     		beq	.L541
 2849 0260 3946     		mov	r1, r7
 2850 0262 4846     		mov	r0, r9
 2851 0264 FFF7FEFF 		bl	_sp_copy
 2852 0268 3B88     		ldrh	r3, [r7]
 2853 026a 002B     		cmp	r3, #0
 2854 026c A5D0     		beq	.L541
 2855 026e 013B     		subs	r3, r3, #1
 2856 0270 3A1D     		adds	r2, r7, #4
 2857              	.L493:
 2858 0272 52F82310 		ldr	r1, [r2, r3, lsl #2]
 2859 0276 09B9     		cbnz	r1, .L492
 2860 0278 013B     		subs	r3, r3, #1
 2861 027a FAD2     		bcs	.L493
 2862              	.L492:
 2863 027c 0133     		adds	r3, r3, #1
 2864 027e 3B80     		strh	r3, [r7]	@ movhi
 2865 0280 9BE7     		b	.L541
 2866              	.L483:
 2867 0282 019B     		ldr	r3, [sp, #4]
 2868 0284 04EB8303 		add	r3, r4, r3, lsl #2
 2869 0288 5968     		ldr	r1, [r3, #4]
 2870 028a 059B     		ldr	r3, [sp, #20]
 2871 028c 8B42     		cmp	r3, r1
 2872 028e 32D0     		beq	.L503
 2873 0290 0198     		ldr	r0, [sp, #4]
 2874 0292 1A46     		mov	r2, r3
 2875 0294 54F82000 		ldr	r0, [r4, r0, lsl #2]
 2876 0298 0023     		movs	r3, #0
 2877 029a FFF7FEFF 		bl	__aeabi_uldivmod
 2878 029e 0290     		str	r0, [sp, #8]
 2879              	.L475:
 2880 02a0 019B     		ldr	r3, [sp, #4]
 2881 02a2 A3EB0A0E 		sub	lr, r3, r10
 2882 02a6 1FFA8EF3 		uxth	r3, lr
 2883 02aa 0393     		str	r3, [sp, #12]
 2884 02ac 049B     		ldr	r3, [sp, #16]
 2885 02ae 13FA8EFE 		uxtah	lr, r3, lr
 2886 02b2 04EB8E0E 		add	lr, r4, lr, lsl #2
 2887              	.L482:
 2888 02b6 4FF0000C 		mov	ip, #0
 2889 02ba 6146     		mov	r1, ip
 2890              	.L540:
 2891 02bc 0CF1010C 		add	ip, ip, #1
 2892 02c0 0CF1FF32 		add	r2, ip, #-1
 2893 02c4 92B2     		uxth	r2, r2
 2894 02c6 9245     		cmp	r10, r2
ARM GAS  /tmp/ccN6vd78.s 			page 50


 2895 02c8 4FF00000 		mov	r0, #0
 2896 02cc 17D8     		bhi	.L477
 2897 02ce 079B     		ldr	r3, [sp, #28]
 2898 02d0 7246     		mov	r2, lr
 2899 02d2 5960     		str	r1, [r3, #4]
 2900 02d4 5346     		mov	r3, r10
 2901 02d6 0699     		ldr	r1, [sp, #24]
 2902              	.L478:
 2903 02d8 D3B9     		cbnz	r3, .L480
 2904              	.L479:
 2905 02da 0399     		ldr	r1, [sp, #12]
 2906 02dc 0BEB8302 		add	r2, fp, r3, lsl #2
 2907 02e0 0B44     		add	r3, r3, r1
 2908 02e2 04EB8303 		add	r3, r4, r3, lsl #2
 2909 02e6 5268     		ldr	r2, [r2, #4]
 2910 02e8 5B68     		ldr	r3, [r3, #4]
 2911 02ea 9A42     		cmp	r2, r3
 2912 02ec 19D9     		bls	.L504
 2913 02ee 029B     		ldr	r3, [sp, #8]
 2914 02f0 013B     		subs	r3, r3, #1
 2915 02f2 0293     		str	r3, [sp, #8]
 2916 02f4 DFE7     		b	.L482
 2917              	.L503:
 2918 02f6 4FF0FF33 		mov	r3, #-1
 2919 02fa 0293     		str	r3, [sp, #8]
 2920 02fc D0E7     		b	.L475
 2921              	.L477:
 2922 02fe 56F82C20 		ldr	r2, [r6, ip, lsl #2]
 2923 0302 029B     		ldr	r3, [sp, #8]
 2924 0304 E2FB0310 		umlal	r1, r0, r2, r3
 2925 0308 4BF82C10 		str	r1, [fp, ip, lsl #2]
 2926 030c 0146     		mov	r1, r0
 2927 030e D5E7     		b	.L540
 2928              	.L480:
 2929 0310 51F804C9 		ldr	ip, [r1], #-4
 2930 0314 52F80409 		ldr	r0, [r2], #-4
 2931 0318 8445     		cmp	ip, r0
 2932 031a DED1     		bne	.L479
 2933 031c 013B     		subs	r3, r3, #1
 2934 031e 9BB2     		uxth	r3, r3
 2935 0320 DAE7     		b	.L478
 2936              	.L504:
 2937 0322 0022     		movs	r2, #0
 2938 0324 1346     		mov	r3, r2
 2939 0326 1146     		mov	r1, r2
 2940              	.L481:
 2941 0328 0398     		ldr	r0, [sp, #12]
 2942 032a 1FFA82FE 		uxth	lr, r2
 2943 032e 10FA82FC 		uxtah	ip, r0, r2
 2944 0332 04EB8C0C 		add	ip, r4, ip, lsl #2
 2945 0336 DCF80400 		ldr	r0, [ip, #4]
 2946 033a 0BEB8E0E 		add	lr, fp, lr, lsl #2
 2947 033e C018     		adds	r0, r0, r3
 2948 0340 DEF80430 		ldr	r3, [lr, #4]
 2949 0344 02F10102 		add	r2, r2, #1
 2950 0348 41F10001 		adc	r1, r1, #0
 2951 034c C31A     		subs	r3, r0, r3
ARM GAS  /tmp/ccN6vd78.s 			page 51


 2952 034e 90B2     		uxth	r0, r2
 2953 0350 CCF80430 		str	r3, [ip, #4]
 2954 0354 61F10003 		sbc	r3, r1, #0
 2955 0358 5045     		cmp	r0, r10
 2956 035a 4FEAE371 		asr	r1, r3, #31
 2957 035e E3D9     		bls	.L481
 2958 0360 039B     		ldr	r3, [sp, #12]
 2959 0362 029A     		ldr	r2, [sp, #8]
 2960 0364 09EB8303 		add	r3, r9, r3, lsl #2
 2961 0368 5A60     		str	r2, [r3, #4]
 2962 036a 019B     		ldr	r3, [sp, #4]
 2963 036c 013B     		subs	r3, r3, #1
 2964 036e 9BB2     		uxth	r3, r3
 2965 0370 0193     		str	r3, [sp, #4]
 2966 0372 4BE7     		b	.L474
 2967              	.L501:
 2968 0374 6FF0610A 		mvn	r10, #97
 2969 0378 63E6     		b	.L457
 2970              	.L502:
 2971 037a 6FF0600A 		mvn	r10, #96
 2972 037e 60E6     		b	.L457
 2974              		.section	.text._sp_mont_red,"ax",%progbits
 2975              		.align	1
 2976              		.syntax unified
 2977              		.thumb
 2978              		.thumb_func
 2979              		.fpu fpv4-sp-d16
 2981              	_sp_mont_red:
 2982              		@ args = 0, pretend = 0, frame = 40
 2983              		@ frame_needed = 0, uses_anonymous_args = 0
 2984 0000 2DE9F04F 		push	{r4, r5, r6, r7, r8, r9, r10, fp, lr}
 2985 0004 0446     		mov	r4, r0
 2986 0006 8DB0     		sub	sp, sp, #52
 2987 0008 0846     		mov	r0, r1
 2988 000a 9A46     		mov	r10, r3
 2989 000c 0792     		str	r2, [sp, #28]
 2990 000e FFF7FEFF 		bl	sp_count_bits
 2991 0012 0E88     		ldrh	r6, [r1]
 2992 0014 0D46     		mov	r5, r1
 2993 0016 8046     		mov	r8, r0
 2994 0018 7700     		lsls	r7, r6, #1
 2995 001a BAF1000F 		cmp	r10, #0
 2996 001e 45D0     		beq	.L543
 2997 0020 0021     		movs	r1, #0
 2998 0022 201D     		adds	r0, r4, #4
 2999              	.L544:
 3000 0024 B942     		cmp	r1, r7
 3001 0026 36D1     		bne	.L545
 3002              	.L548:
 3003 0028 012E     		cmp	r6, #1
 3004 002a 4CD8     		bhi	.L570
 3005 002c 0023     		movs	r3, #0
 3006 002e 1846     		mov	r0, r3
 3007 0030 6168     		ldr	r1, [r4, #4]
 3008 0032 079A     		ldr	r2, [sp, #28]
 3009 0034 6E68     		ldr	r6, [r5, #4]
 3010 0036 4A43     		muls	r2, r1, r2
ARM GAS  /tmp/ccN6vd78.s 			page 52


 3011 0038 E2FB0610 		umlal	r1, r0, r2, r6
 3012 003c A268     		ldr	r2, [r4, #8]
 3013 003e 4FF02008 		mov	r8, #32
 3014 0042 1218     		adds	r2, r2, r0
 3015 0044 5B41     		adcs	r3, r3, r3
 3016 0046 C4E90223 		strd	r2, r3, [r4, #8]
 3017 004a 0323     		movs	r3, #3
 3018 004c 6160     		str	r1, [r4, #4]
 3019 004e 2380     		strh	r3, [r4]	@ movhi
 3020              	.L549:
 3021 0050 BAF1000F 		cmp	r10, #0
 3022 0054 40F0AB80 		bne	.L555
 3023 0058 2388     		ldrh	r3, [r4]
 3024 005a 43B1     		cbz	r3, .L556
 3025 005c 013B     		subs	r3, r3, #1
 3026 005e 221D     		adds	r2, r4, #4
 3027              	.L558:
 3028 0060 52F82310 		ldr	r1, [r2, r3, lsl #2]
 3029 0064 09B9     		cbnz	r1, .L557
 3030 0066 013B     		subs	r3, r3, #1
 3031 0068 FAD2     		bcs	.L558
 3032              	.L557:
 3033 006a 0133     		adds	r3, r3, #1
 3034 006c 2380     		strh	r3, [r4]	@ movhi
 3035              	.L556:
 3036 006e 2246     		mov	r2, r4
 3037 0070 4146     		mov	r1, r8
 3038 0072 2046     		mov	r0, r4
 3039 0074 FFF7FEFF 		bl	sp_rshb
 3040 0078 2946     		mov	r1, r5
 3041 007a 2046     		mov	r0, r4
 3042 007c FFF7FEFF 		bl	_sp_cmp_abs
 3043 0080 0130     		adds	r0, r0, #1
 3044 0082 04D0     		beq	.L559
 3045 0084 0023     		movs	r3, #0
 3046 0086 2246     		mov	r2, r4
 3047 0088 2046     		mov	r0, r4
 3048 008a FFF7FEFF 		bl	_sp_sub_off
 3049              	.L559:
 3050 008e 0020     		movs	r0, #0
 3051 0090 0DB0     		add	sp, sp, #52
 3052              		@ sp needed
 3053 0092 BDE8F08F 		pop	{r4, r5, r6, r7, r8, r9, r10, fp, pc}
 3054              	.L545:
 3055 0096 2388     		ldrh	r3, [r4]
 3056 0098 0268     		ldr	r2, [r0]
 3057 009a 013B     		subs	r3, r3, #1
 3058 009c 5B1A     		subs	r3, r3, r1
 3059 009e DB0F     		lsrs	r3, r3, #31
 3060 00a0 013B     		subs	r3, r3, #1
 3061 00a2 1340     		ands	r3, r3, r2
 3062 00a4 40F8043B 		str	r3, [r0], #4
 3063 00a8 0131     		adds	r1, r1, #1
 3064 00aa BBE7     		b	.L544
 3065              	.L543:
 3066 00ac 2388     		ldrh	r3, [r4]
 3067 00ae 5146     		mov	r1, r10
ARM GAS  /tmp/ccN6vd78.s 			page 53


 3068 00b0 FA1A     		subs	r2, r7, r3
 3069 00b2 581C     		adds	r0, r3, #1
 3070 00b4 9200     		lsls	r2, r2, #2
 3071 00b6 BB42     		cmp	r3, r7
 3072 00b8 88BF     		it	hi
 3073 00ba 0022     		movhi	r2, #0
 3074 00bc 04EB8000 		add	r0, r4, r0, lsl #2
 3075 00c0 FFF7FEFF 		bl	memset
 3076 00c4 B0E7     		b	.L548
 3077              	.L570:
 3078 00c6 0123     		movs	r3, #1
 3079 00c8 08F01F02 		and	r2, r8, #31
 3080 00cc 9340     		lsls	r3, r3, r2
 3081 00ce 0022     		movs	r2, #0
 3082 00d0 1046     		mov	r0, r2
 3083 00d2 013B     		subs	r3, r3, #1
 3084 00d4 0B93     		str	r3, [sp, #44]
 3085 00d6 04EB8603 		add	r3, r4, r6, lsl #2
 3086 00da 0593     		str	r3, [sp, #20]
 3087 00dc 731E     		subs	r3, r6, #1
 3088 00de 04F1040E 		add	lr, r4, #4
 3089 00e2 0492     		str	r2, [sp, #16]
 3090 00e4 0993     		str	r3, [sp, #36]
 3091              	.L550:
 3092 00e6 B042     		cmp	r0, r6
 3093 00e8 0ED3     		bcc	.L554
 3094 00ea 54F83630 		ldr	r3, [r4, r6, lsl #3]
 3095 00ee 7100     		lsls	r1, r6, #1
 3096 00f0 9A18     		adds	r2, r3, r2
 3097 00f2 049B     		ldr	r3, [sp, #16]
 3098 00f4 04EBC600 		add	r0, r4, r6, lsl #3
 3099 00f8 43F10003 		adc	r3, r3, #0
 3100 00fc 44F83620 		str	r2, [r4, r6, lsl #3]
 3101 0100 4360     		str	r3, [r0, #4]
 3102 0102 4B1C     		adds	r3, r1, #1
 3103 0104 2380     		strh	r3, [r4]	@ movhi
 3104 0106 A3E7     		b	.L549
 3105              	.L554:
 3106 0108 DEF80030 		ldr	r3, [lr]
 3107 010c 0799     		ldr	r1, [sp, #28]
 3108 010e 5943     		muls	r1, r3, r1
 3109 0110 0391     		str	r1, [sp, #12]
 3110 0112 0999     		ldr	r1, [sp, #36]
 3111 0114 8142     		cmp	r1, r0
 3112 0116 05D1     		bne	.L551
 3113 0118 0B9F     		ldr	r7, [sp, #44]
 3114 011a 1FB1     		cbz	r7, .L551
 3115 011c 0399     		ldr	r1, [sp, #12]
 3116 011e 0B9F     		ldr	r7, [sp, #44]
 3117 0120 3940     		ands	r1, r1, r7
 3118 0122 0391     		str	r1, [sp, #12]
 3119              	.L551:
 3120 0124 4FF0000C 		mov	ip, #0
 3121 0128 6F68     		ldr	r7, [r5, #4]
 3122 012a 0399     		ldr	r1, [sp, #12]
 3123 012c E1FB073C 		umlal	r3, ip, r1, r7
 3124 0130 4EF8043B 		str	r3, [lr], #4
ARM GAS  /tmp/ccN6vd78.s 			page 54


 3125 0134 F146     		mov	r9, lr
 3126 0136 6346     		mov	r3, ip
 3127 0138 4FF0010C 		mov	ip, #1
 3128 013c 05F10801 		add	r1, r5, #8
 3129 0140 0691     		str	r1, [sp, #24]
 3130              	.L552:
 3131 0142 0699     		ldr	r1, [sp, #24]
 3132 0144 59F804BB 		ldr	fp, [r9], #4
 3133 0148 51F8047B 		ldr	r7, [r1], #4
 3134 014c 0691     		str	r1, [sp, #24]
 3135 014e 0399     		ldr	r1, [sp, #12]
 3136 0150 A1FB0717 		umull	r1, r7, r1, r7
 3137 0154 0891     		str	r1, [sp, #32]
 3138 0156 0999     		ldr	r1, [sp, #36]
 3139 0158 6145     		cmp	r1, ip
 3140 015a 18D8     		bhi	.L553
 3141 015c 4FF0000C 		mov	ip, #0
 3142 0160 13EB0B03 		adds	r3, r3, fp
 3143 0164 4CF10001 		adc	r1, ip, #0
 3144 0168 D318     		adds	r3, r2, r3
 3145 016a 049A     		ldr	r2, [sp, #16]
 3146 016c 00F10100 		add	r0, r0, #1
 3147 0170 42EB0101 		adc	r1, r2, r1
 3148 0174 089A     		ldr	r2, [sp, #32]
 3149 0176 9B18     		adds	r3, r3, r2
 3150 0178 47F10002 		adc	r2, r7, #0
 3151 017c 059F     		ldr	r7, [sp, #20]
 3152 017e 8A18     		adds	r2, r1, r2
 3153 0180 47F8043B 		str	r3, [r7], #4
 3154 0184 4CEB0C03 		adc	r3, ip, ip
 3155 0188 0597     		str	r7, [sp, #20]
 3156 018a 0493     		str	r3, [sp, #16]
 3157 018c ABE7     		b	.L550
 3158              	.L553:
 3159 018e 13EB0B0B 		adds	fp, r3, fp
 3160 0192 4FF00003 		mov	r3, #0
 3161 0196 0899     		ldr	r1, [sp, #32]
 3162 0198 43F10003 		adc	r3, r3, #0
 3163 019c 1BEB010B 		adds	fp, fp, r1
 3164 01a0 49F804BC 		str	fp, [r9, #-4]
 3165 01a4 43EB0703 		adc	r3, r3, r7
 3166 01a8 0CF1010C 		add	ip, ip, #1
 3167 01ac C9E7     		b	.L552
 3168              	.L555:
 3169 01ae 2246     		mov	r2, r4
 3170 01b0 4146     		mov	r1, r8
 3171 01b2 2046     		mov	r0, r4
 3172 01b4 FFF7FEFF 		bl	sp_rshb
 3173 01b8 2046     		mov	r0, r4
 3174 01ba FFF7FEFF 		bl	sp_clamp_ct
 3175 01be 2B88     		ldrh	r3, [r5]
 3176 01c0 2A46     		mov	r2, r5
 3177 01c2 2946     		mov	r1, r5
 3178 01c4 0094     		str	r4, [sp]
 3179 01c6 0133     		adds	r3, r3, #1
 3180 01c8 FFF7FEFF 		bl	_sp_submod_ct
 3181 01cc 5FE7     		b	.L559
ARM GAS  /tmp/ccN6vd78.s 			page 55


 3183              		.section	.text.sp_div,"ax",%progbits
 3184              		.align	1
 3185              		.global	sp_div
 3186              		.syntax unified
 3187              		.thumb
 3188              		.thumb_func
 3189              		.fpu fpv4-sp-d16
 3191              	sp_div:
 3192              		@ args = 0, pretend = 0, frame = 0
 3193              		@ frame_needed = 0, uses_anonymous_args = 0
 3194 0000 2DE9F743 		push	{r0, r1, r2, r4, r5, r6, r7, r8, r9, lr}
 3195 0004 1746     		mov	r7, r2
 3196 0006 9846     		mov	r8, r3
 3197 0008 0646     		mov	r6, r0
 3198 000a A8B3     		cbz	r0, .L587
 3199 000c A1B3     		cbz	r1, .L587
 3200 000e 02B9     		cbnz	r2, .L573
 3201 0010 93B3     		cbz	r3, .L587
 3202              	.L573:
 3203 0012 0B88     		ldrh	r3, [r1]
 3204 0014 83B3     		cbz	r3, .L587
 3205 0016 3488     		ldrh	r4, [r6]
 3206 0018 27B1     		cbz	r7, .L574
 3207 001a 7888     		ldrh	r0, [r7, #2]
 3208 001c E21A     		subs	r2, r4, r3
 3209 001e 0132     		adds	r2, r2, #1
 3210 0020 8242     		cmp	r2, r0
 3211 0022 29DA     		bge	.L587
 3212              	.L574:
 3213 0024 B8F1000F 		cmp	r8, #0
 3214 0028 05D0     		beq	.L575
 3215 002a A342     		cmp	r3, r4
 3216 002c B8F80220 		ldrh	r2, [r8, #2]
 3217 0030 20D3     		bcc	.L576
 3218 0032 A242     		cmp	r2, r4
 3219 0034 20D9     		bls	.L587
 3220              	.L575:
 3221 0036 232C     		cmp	r4, #35
 3222 0038 21D1     		bne	.L577
 3223 003a 0846     		mov	r0, r1
 3224 003c FFF7FEFF 		bl	sp_count_bits
 3225 0040 4342     		rsbs	r3, r0, #0
 3226 0042 03F01F03 		and	r3, r3, #31
 3227 0046 00F01F05 		and	r5, r0, #31
 3228 004a 58BF     		it	pl
 3229 004c 5D42     		rsbpl	r5, r3, #0
 3230 004e C5F12009 		rsb	r9, r5, #32
 3231 0052 35B1     		cbz	r5, .L578
 3232 0054 3046     		mov	r0, r6
 3233 0056 FFF7FEFF 		bl	sp_count_bits
 3234 005a 4844     		add	r0, r0, r9
 3235 005c B0F58C6F 		cmp	r0, #1120
 3236 0060 0ADC     		bgt	.L587
 3237              	.L578:
 3238 0062 4346     		mov	r3, r8
 3239 0064 3A46     		mov	r2, r7
 3240 0066 3046     		mov	r0, r6
ARM GAS  /tmp/ccN6vd78.s 			page 56


 3241 0068 0094     		str	r4, [sp]
 3242 006a FFF7FEFF 		bl	_sp_div
 3243              	.L571:
 3244 006e 03B0     		add	sp, sp, #12
 3245              		@ sp needed
 3246 0070 BDE8F083 		pop	{r4, r5, r6, r7, r8, r9, pc}
 3247              	.L576:
 3248 0074 9342     		cmp	r3, r2
 3249 0076 DED3     		bcc	.L575
 3250              	.L587:
 3251 0078 6FF06100 		mvn	r0, #97
 3252 007c F7E7     		b	.L571
 3253              	.L577:
 3254 007e 0134     		adds	r4, r4, #1
 3255 0080 A4B2     		uxth	r4, r4
 3256 0082 EEE7     		b	.L578
 3258              		.section	.text.sp_mod,"ax",%progbits
 3259              		.align	1
 3260              		.global	sp_mod
 3261              		.syntax unified
 3262              		.thumb
 3263              		.thumb_func
 3264              		.fpu fpv4-sp-d16
 3266              	sp_mod:
 3267              		@ args = 0, pretend = 0, frame = 0
 3268              		@ frame_needed = 0, uses_anonymous_args = 0
 3269              		@ link register save eliminated.
 3270 0000 10B4     		push	{r4}
 3271 0002 50B1     		cbz	r0, .L594
 3272 0004 49B1     		cbz	r1, .L594
 3273 0006 42B1     		cbz	r2, .L594
 3274 0008 0388     		ldrh	r3, [r0]
 3275 000a 222B     		cmp	r3, #34
 3276 000c 05D8     		bhi	.L594
 3277 000e 1346     		mov	r3, r2
 3278 0010 5DF8044B 		ldr	r4, [sp], #4
 3279 0014 0022     		movs	r2, #0
 3280 0016 FFF7FEBF 		b	sp_div
 3281              	.L594:
 3282 001a 6FF06100 		mvn	r0, #97
 3283 001e 5DF8044B 		ldr	r4, [sp], #4
 3284 0022 7047     		bx	lr
 3286              		.section	.text.sp_addmod,"ax",%progbits
 3287              		.align	1
 3288              		.global	sp_addmod
 3289              		.syntax unified
 3290              		.thumb
 3291              		.thumb_func
 3292              		.fpu fpv4-sp-d16
 3294              	sp_addmod:
 3295              		@ args = 0, pretend = 0, frame = 0
 3296              		@ frame_needed = 0, uses_anonymous_args = 0
 3297 0000 2DE9F843 		push	{r3, r4, r5, r6, r7, r8, r9, lr}
 3298 0004 8946     		mov	r9, r1
 3299 0006 1646     		mov	r6, r2
 3300 0008 1F46     		mov	r7, r3
 3301 000a 8046     		mov	r8, r0
ARM GAS  /tmp/ccN6vd78.s 			page 57


 3302 000c 68B3     		cbz	r0, .L614
 3303 000e 61B3     		cbz	r1, .L614
 3304 0010 5AB3     		cbz	r2, .L614
 3305 0012 53B3     		cbz	r3, .L614
 3306 0014 0388     		ldrh	r3, [r0]
 3307 0016 222B     		cmp	r3, #34
 3308 0018 27D8     		bhi	.L614
 3309 001a 0C88     		ldrh	r4, [r1]
 3310 001c 222C     		cmp	r4, #34
 3311 001e 24D8     		bhi	.L614
 3312 0020 A342     		cmp	r3, r4
 3313 0022 1CD3     		bcc	.L605
 3314 0024 5C1C     		adds	r4, r3, #1
 3315 0026 A4B2     		uxth	r4, r4
 3316 0028 012C     		cmp	r4, #1
 3317 002a 1AD1     		bne	.L606
 3318 002c 0820     		movs	r0, #8
 3319              	.L607:
 3320 002e FFF7FEFF 		bl	wolfSSL_Malloc
 3321 0032 0546     		mov	r5, r0
 3322 0034 E0B1     		cbz	r0, .L615
 3323 0036 4480     		strh	r4, [r0, #2]	@ movhi
 3324 0038 0246     		mov	r2, r0
 3325 003a 4946     		mov	r1, r9
 3326 003c 4046     		mov	r0, r8
 3327 003e FFF7FEFF 		bl	sp_add
 3328 0042 0446     		mov	r4, r0
 3329 0044 28B9     		cbnz	r0, .L608
 3330 0046 3A46     		mov	r2, r7
 3331 0048 3146     		mov	r1, r6
 3332 004a 2846     		mov	r0, r5
 3333 004c FFF7FEFF 		bl	sp_mod
 3334 0050 0446     		mov	r4, r0
 3335              	.L608:
 3336 0052 2846     		mov	r0, r5
 3337 0054 FFF7FEFF 		bl	wolfSSL_Free
 3338              	.L603:
 3339 0058 2046     		mov	r0, r4
 3340 005a BDE8F883 		pop	{r3, r4, r5, r6, r7, r8, r9, pc}
 3341              	.L605:
 3342 005e 0134     		adds	r4, r4, #1
 3343 0060 A4B2     		uxth	r4, r4
 3344              	.L606:
 3345 0062 601C     		adds	r0, r4, #1
 3346 0064 80B2     		uxth	r0, r0
 3347 0066 8000     		lsls	r0, r0, #2
 3348 0068 E1E7     		b	.L607
 3349              	.L614:
 3350 006a 6FF06104 		mvn	r4, #97
 3351 006e F3E7     		b	.L603
 3352              	.L615:
 3353 0070 6FF06004 		mvn	r4, #96
 3354 0074 F0E7     		b	.L603
 3356              		.section	.text.sp_submod,"ax",%progbits
 3357              		.align	1
 3358              		.global	sp_submod
 3359              		.syntax unified
ARM GAS  /tmp/ccN6vd78.s 			page 58


 3360              		.thumb
 3361              		.thumb_func
 3362              		.fpu fpv4-sp-d16
 3364              	sp_submod:
 3365              		@ args = 0, pretend = 0, frame = 0
 3366              		@ frame_needed = 0, uses_anonymous_args = 0
 3367 0000 2DE9F047 		push	{r4, r5, r6, r7, r8, r9, r10, lr}
 3368 0004 0E46     		mov	r6, r1
 3369 0006 9146     		mov	r9, r2
 3370 0008 9846     		mov	r8, r3
 3371 000a 8246     		mov	r10, r0
 3372 000c 0028     		cmp	r0, #0
 3373 000e 65D0     		beq	.L634
 3374 0010 0029     		cmp	r1, #0
 3375 0012 63D0     		beq	.L634
 3376 0014 002A     		cmp	r2, #0
 3377 0016 61D0     		beq	.L634
 3378 0018 002B     		cmp	r3, #0
 3379 001a 5FD0     		beq	.L634
 3380 001c 0288     		ldrh	r2, [r0]
 3381 001e 222A     		cmp	r2, #34
 3382 0020 5CD8     		bhi	.L634
 3383 0022 0C88     		ldrh	r4, [r1]
 3384 0024 222C     		cmp	r4, #34
 3385 0026 59D8     		bhi	.L634
 3386 0028 B9F80030 		ldrh	r3, [r9]
 3387 002c 222B     		cmp	r3, #34
 3388 002e 55D8     		bhi	.L634
 3389 0030 9A42     		cmp	r2, r3
 3390 0032 0DD3     		bcc	.L618
 3391 0034 A242     		cmp	r2, r4
 3392 0036 0DD3     		bcc	.L645
 3393 0038 541C     		adds	r4, r2, #1
 3394              	.L644:
 3395 003a A4B2     		uxth	r4, r4
 3396 003c 671C     		adds	r7, r4, #1
 3397 003e BF00     		lsls	r7, r7, #2
 3398 0040 3846     		mov	r0, r7
 3399 0042 FFF7FEFF 		bl	wolfSSL_Malloc
 3400 0046 0546     		mov	r5, r0
 3401 0048 40B9     		cbnz	r0, .L643
 3402 004a 6FF06004 		mvn	r4, #96
 3403 004e 42E0     		b	.L616
 3404              	.L618:
 3405 0050 9C42     		cmp	r4, r3
 3406 0052 01D3     		bcc	.L621
 3407              	.L645:
 3408 0054 0134     		adds	r4, r4, #1
 3409 0056 F0E7     		b	.L644
 3410              	.L621:
 3411 0058 5C1C     		adds	r4, r3, #1
 3412 005a EEE7     		b	.L644
 3413              	.L643:
 3414 005c A4B2     		uxth	r4, r4
 3415 005e 3846     		mov	r0, r7
 3416 0060 6C80     		strh	r4, [r5, #2]	@ movhi
 3417 0062 FFF7FEFF 		bl	wolfSSL_Malloc
ARM GAS  /tmp/ccN6vd78.s 			page 59


 3418 0066 0746     		mov	r7, r0
 3419 0068 D8B3     		cbz	r0, .L635
 3420 006a 4480     		strh	r4, [r0, #2]	@ movhi
 3421 006c 4946     		mov	r1, r9
 3422 006e 5046     		mov	r0, r10
 3423 0070 FFF7FEFF 		bl	_sp_cmp_abs
 3424 0074 0130     		adds	r0, r0, #1
 3425 0076 06D0     		beq	.L623
 3426 0078 2A46     		mov	r2, r5
 3427 007a 5046     		mov	r0, r10
 3428 007c FFF7FEFF 		bl	sp_mod
 3429 0080 0446     		mov	r4, r0
 3430 0082 08BB     		cbnz	r0, .L622
 3431 0084 AA46     		mov	r10, r5
 3432              	.L623:
 3433 0086 4946     		mov	r1, r9
 3434 0088 3046     		mov	r0, r6
 3435 008a FFF7FEFF 		bl	_sp_cmp_abs
 3436 008e 0130     		adds	r0, r0, #1
 3437 0090 06D0     		beq	.L624
 3438 0092 3A46     		mov	r2, r7
 3439 0094 3046     		mov	r0, r6
 3440 0096 FFF7FEFF 		bl	sp_mod
 3441 009a 0446     		mov	r4, r0
 3442 009c A0B9     		cbnz	r0, .L622
 3443 009e 3E46     		mov	r6, r7
 3444              	.L624:
 3445 00a0 3146     		mov	r1, r6
 3446 00a2 5046     		mov	r0, r10
 3447 00a4 FFF7FEFF 		bl	_sp_cmp_abs
 3448 00a8 0130     		adds	r0, r0, #1
 3449 00aa 07D1     		bne	.L625
 3450 00ac 2A46     		mov	r2, r5
 3451 00ae 4946     		mov	r1, r9
 3452 00b0 5046     		mov	r0, r10
 3453 00b2 FFF7FEFF 		bl	sp_add
 3454 00b6 0446     		mov	r4, r0
 3455 00b8 30B9     		cbnz	r0, .L622
 3456 00ba AA46     		mov	r10, r5
 3457              	.L625:
 3458 00bc 4246     		mov	r2, r8
 3459 00be 3146     		mov	r1, r6
 3460 00c0 5046     		mov	r0, r10
 3461 00c2 FFF7FEFF 		bl	sp_sub
 3462 00c6 0446     		mov	r4, r0
 3463              	.L622:
 3464 00c8 2846     		mov	r0, r5
 3465 00ca FFF7FEFF 		bl	wolfSSL_Free
 3466 00ce 17B1     		cbz	r7, .L616
 3467 00d0 3846     		mov	r0, r7
 3468 00d2 FFF7FEFF 		bl	wolfSSL_Free
 3469              	.L616:
 3470 00d6 2046     		mov	r0, r4
 3471 00d8 BDE8F087 		pop	{r4, r5, r6, r7, r8, r9, r10, pc}
 3472              	.L634:
 3473 00dc 6FF06104 		mvn	r4, #97
 3474 00e0 F9E7     		b	.L616
ARM GAS  /tmp/ccN6vd78.s 			page 60


 3475              	.L635:
 3476 00e2 6FF06004 		mvn	r4, #96
 3477 00e6 EFE7     		b	.L622
 3479              		.section	.text.sp_mul,"ax",%progbits
 3480              		.align	1
 3481              		.global	sp_mul
 3482              		.syntax unified
 3483              		.thumb
 3484              		.thumb_func
 3485              		.fpu fpv4-sp-d16
 3487              	sp_mul:
 3488              		@ args = 0, pretend = 0, frame = 16
 3489              		@ frame_needed = 0, uses_anonymous_args = 0
 3490 0000 2DE9F04F 		push	{r4, r5, r6, r7, r8, r9, r10, fp, lr}
 3491 0004 0D46     		mov	r5, r1
 3492 0006 9046     		mov	r8, r2
 3493 0008 8146     		mov	r9, r0
 3494 000a 85B0     		sub	sp, sp, #20
 3495 000c 0028     		cmp	r0, #0
 3496 000e 00F08580 		beq	.L662
 3497 0012 0029     		cmp	r1, #0
 3498 0014 00F08280 		beq	.L662
 3499 0018 002A     		cmp	r2, #0
 3500 001a 7FD0     		beq	.L662
 3501 001c 0B88     		ldrh	r3, [r1]
 3502 001e 0288     		ldrh	r2, [r0]
 3503 0020 B8F80210 		ldrh	r1, [r8, #2]
 3504 0024 D018     		adds	r0, r2, r3
 3505 0026 8842     		cmp	r0, r1
 3506 0028 78DC     		bgt	.L662
 3507 002a 02B1     		cbz	r2, .L648
 3508 002c 3BB9     		cbnz	r3, .L649
 3509              	.L648:
 3510 002e 0020     		movs	r0, #0
 3511 0030 A8F80000 		strh	r0, [r8]	@ movhi
 3512 0034 C8F80400 		str	r0, [r8, #4]
 3513              	.L646:
 3514 0038 05B0     		add	sp, sp, #20
 3515              		@ sp needed
 3516 003a BDE8F08F 		pop	{r4, r5, r6, r7, r8, r9, r10, fp, pc}
 3517              	.L649:
 3518 003e 8000     		lsls	r0, r0, #2
 3519 0040 FFF7FEFF 		bl	wolfSSL_Malloc
 3520 0044 0746     		mov	r7, r0
 3521 0046 0028     		cmp	r0, #0
 3522 0048 6BD0     		beq	.L663
 3523 004a 0022     		movs	r2, #0
 3524 004c 6C68     		ldr	r4, [r5, #4]
 3525 004e D9F80430 		ldr	r3, [r9, #4]
 3526 0052 9446     		mov	ip, r2
 3527 0054 A3FB0434 		umull	r3, r4, r3, r4
 3528 0058 0360     		str	r3, [r0]
 3529 005a B9F80030 		ldrh	r3, [r9]
 3530 005e 1046     		mov	r0, r2
 3531 0060 0093     		str	r3, [sp]
 3532 0062 0099     		ldr	r1, [sp]
 3533 0064 35F8043B 		ldrh	r3, [r5], #4
ARM GAS  /tmp/ccN6vd78.s 			page 61


 3534 0068 9246     		mov	r10, r2
 3535 006a 5918     		adds	r1, r3, r1
 3536 006c C3F10103 		rsb	r3, r3, #1
 3537 0070 9BB2     		uxth	r3, r3
 3538 0072 0293     		str	r3, [sp, #8]
 3539 0074 0123     		movs	r3, #1
 3540 0076 0239     		subs	r1, r1, #2
 3541 0078 0391     		str	r1, [sp, #12]
 3542              	.L650:
 3543 007a 0399     		ldr	r1, [sp, #12]
 3544 007c 8B42     		cmp	r3, r1
 3545 007e 1ADD     		ble	.L655
 3546 0080 4546     		mov	r5, r8
 3547 0082 47F82340 		str	r4, [r7, r3, lsl #2]
 3548 0086 0133     		adds	r3, r3, #1
 3549 0088 9CB2     		uxth	r4, r3
 3550 008a 25F8044B 		strh	r4, [r5], #4	@ movhi
 3551 008e 3946     		mov	r1, r7
 3552 0090 2846     		mov	r0, r5
 3553 0092 A200     		lsls	r2, r4, #2
 3554 0094 FFF7FEFF 		bl	memcpy
 3555 0098 44B1     		cbz	r4, .L656
 3556 009a 631E     		subs	r3, r4, #1
 3557              	.L658:
 3558 009c 55F82320 		ldr	r2, [r5, r3, lsl #2]
 3559 00a0 0AB9     		cbnz	r2, .L657
 3560 00a2 013B     		subs	r3, r3, #1
 3561 00a4 FAD2     		bcs	.L658
 3562              	.L657:
 3563 00a6 0133     		adds	r3, r3, #1
 3564 00a8 A8F80030 		strh	r3, [r8]	@ movhi
 3565              	.L656:
 3566 00ac 3846     		mov	r0, r7
 3567 00ae FFF7FEFF 		bl	wolfSSL_Free
 3568 00b2 0020     		movs	r0, #0
 3569 00b4 C0E7     		b	.L646
 3570              	.L655:
 3571 00b6 0299     		ldr	r1, [sp, #8]
 3572 00b8 1944     		add	r1, r1, r3
 3573 00ba 8EB2     		uxth	r6, r1
 3574 00bc C1F3C031 		ubfx	r1, r1, #15, #1
 3575 00c0 0139     		subs	r1, r1, #1
 3576 00c2 0E40     		ands	r6, r6, r1
 3577 00c4 711C     		adds	r1, r6, #1
 3578 00c6 09EB8101 		add	r1, r9, r1, lsl #2
 3579 00ca A3EB060E 		sub	lr, r3, r6
 3580 00ce 0191     		str	r1, [sp, #4]
 3581              	.L651:
 3582 00d0 0099     		ldr	r1, [sp]
 3583 00d2 8E42     		cmp	r6, r1
 3584 00d4 0BD3     		bcc	.L652
 3585              	.L654:
 3586 00d6 47F82340 		str	r4, [r7, r3, lsl #2]
 3587 00da 8418     		adds	r4, r0, r2
 3588 00dc 03F10103 		add	r3, r3, #1
 3589 00e0 6046     		mov	r0, ip
 3590 00e2 4AEB0A02 		adc	r2, r10, r10
ARM GAS  /tmp/ccN6vd78.s 			page 62


 3591 00e6 4FF0000C 		mov	ip, #0
 3592 00ea 9BB2     		uxth	r3, r3
 3593 00ec C5E7     		b	.L650
 3594              	.L652:
 3595 00ee BEF1000F 		cmp	lr, #0
 3596 00f2 F0DB     		blt	.L654
 3597 00f4 0199     		ldr	r1, [sp, #4]
 3598 00f6 0136     		adds	r6, r6, #1
 3599 00f8 51F804BB 		ldr	fp, [r1], #4
 3600 00fc B6B2     		uxth	r6, r6
 3601 00fe 0191     		str	r1, [sp, #4]
 3602 0100 55F82E10 		ldr	r1, [r5, lr, lsl #2]
 3603 0104 0EF1FF3E 		add	lr, lr, #-1
 3604 0108 ABFB01B1 		umull	fp, r1, fp, r1
 3605 010c 1BEB0404 		adds	r4, fp, r4
 3606 0110 42F10002 		adc	r2, r2, #0
 3607 0114 0818     		adds	r0, r1, r0
 3608 0116 4CF1000C 		adc	ip, ip, #0
 3609 011a D9E7     		b	.L651
 3610              	.L662:
 3611 011c 6FF06100 		mvn	r0, #97
 3612 0120 8AE7     		b	.L646
 3613              	.L663:
 3614 0122 6FF06000 		mvn	r0, #96
 3615 0126 87E7     		b	.L646
 3617              		.section	.text._sp_mulmod,"ax",%progbits
 3618              		.align	1
 3619              		.syntax unified
 3620              		.thumb
 3621              		.thumb_func
 3622              		.fpu fpv4-sp-d16
 3624              	_sp_mulmod:
 3625              		@ args = 0, pretend = 0, frame = 0
 3626              		@ frame_needed = 0, uses_anonymous_args = 0
 3627 0000 9342     		cmp	r3, r2
 3628 0002 2DE9F843 		push	{r3, r4, r5, r6, r7, r8, r9, lr}
 3629 0006 0746     		mov	r7, r0
 3630 0008 8846     		mov	r8, r1
 3631 000a 1646     		mov	r6, r2
 3632 000c 1D46     		mov	r5, r3
 3633 000e 0BD0     		beq	.L672
 3634 0010 1A46     		mov	r2, r3
 3635 0012 FFF7FEFF 		bl	sp_mul
 3636 0016 0446     		mov	r4, r0
 3637 0018 68BB     		cbnz	r0, .L671
 3638 001a 2A46     		mov	r2, r5
 3639 001c 3146     		mov	r1, r6
 3640 001e 2846     		mov	r0, r5
 3641 0020 BDE8F843 		pop	{r3, r4, r5, r6, r7, r8, r9, lr}
 3642 0024 FFF7FEBF 		b	sp_mod
 3643              	.L672:
 3644 0028 0488     		ldrh	r4, [r0]
 3645 002a 0888     		ldrh	r0, [r1]
 3646 002c 0444     		add	r4, r4, r0
 3647 002e 232C     		cmp	r4, #35
 3648 0030 24DC     		bgt	.L676
 3649 0032 012C     		cmp	r4, #1
ARM GAS  /tmp/ccN6vd78.s 			page 63


 3650 0034 CABF     		itet	gt
 3651 0036 601C     		addgt	r0, r4, #1
 3652 0038 0820     		movle	r0, #8
 3653 003a 8000     		lslgt	r0, r0, #2
 3654 003c FFF7FEFF 		bl	wolfSSL_Malloc
 3655 0040 8146     		mov	r9, r0
 3656 0042 F0B1     		cbz	r0, .L678
 3657 0044 3988     		ldrh	r1, [r7]
 3658 0046 B8F80030 		ldrh	r3, [r8]
 3659 004a 1944     		add	r1, r1, r3
 3660 004c 89B2     		uxth	r1, r1
 3661 004e FFF7FEFF 		bl	sp_init_size
 3662 0052 0446     		mov	r4, r0
 3663 0054 60B9     		cbnz	r0, .L675
 3664 0056 4A46     		mov	r2, r9
 3665 0058 4146     		mov	r1, r8
 3666 005a 3846     		mov	r0, r7
 3667 005c FFF7FEFF 		bl	sp_mul
 3668 0060 0446     		mov	r4, r0
 3669 0062 28B9     		cbnz	r0, .L675
 3670 0064 2A46     		mov	r2, r5
 3671 0066 3146     		mov	r1, r6
 3672 0068 4846     		mov	r0, r9
 3673 006a FFF7FEFF 		bl	sp_mod
 3674 006e 0446     		mov	r4, r0
 3675              	.L675:
 3676 0070 4846     		mov	r0, r9
 3677 0072 FFF7FEFF 		bl	wolfSSL_Free
 3678              	.L671:
 3679 0076 2046     		mov	r0, r4
 3680 0078 BDE8F883 		pop	{r3, r4, r5, r6, r7, r8, r9, pc}
 3681              	.L676:
 3682 007c 6FF06104 		mvn	r4, #97
 3683 0080 F9E7     		b	.L671
 3684              	.L678:
 3685 0082 6FF06004 		mvn	r4, #96
 3686 0086 F6E7     		b	.L671
 3688              		.section	.text.sp_mulmod,"ax",%progbits
 3689              		.align	1
 3690              		.global	sp_mulmod
 3691              		.syntax unified
 3692              		.thumb
 3693              		.thumb_func
 3694              		.fpu fpv4-sp-d16
 3696              	sp_mulmod:
 3697              		@ args = 0, pretend = 0, frame = 0
 3698              		@ frame_needed = 0, uses_anonymous_args = 0
 3699              		@ link register save eliminated.
 3700 0000 30B4     		push	{r4, r5}
 3701 0002 68B1     		cbz	r0, .L679
 3702 0004 61B1     		cbz	r1, .L679
 3703 0006 5AB1     		cbz	r2, .L679
 3704 0008 53B1     		cbz	r3, .L679
 3705 000a 9A42     		cmp	r2, r3
 3706 000c 05D0     		beq	.L681
 3707 000e 0D88     		ldrh	r5, [r1]
 3708 0010 0488     		ldrh	r4, [r0]
ARM GAS  /tmp/ccN6vd78.s 			page 64


 3709 0012 2C44     		add	r4, r4, r5
 3710 0014 5D88     		ldrh	r5, [r3, #2]
 3711 0016 AC42     		cmp	r4, r5
 3712 0018 02DC     		bgt	.L679
 3713              	.L681:
 3714 001a 30BC     		pop	{r4, r5}
 3715 001c FFF7FEBF 		b	_sp_mulmod
 3716              	.L679:
 3717 0020 6FF06100 		mvn	r0, #97
 3718 0024 30BC     		pop	{r4, r5}
 3719 0026 7047     		bx	lr
 3721              		.section	.text.sp_invmod,"ax",%progbits
 3722              		.align	1
 3723              		.global	sp_invmod
 3724              		.syntax unified
 3725              		.thumb
 3726              		.thumb_func
 3727              		.fpu fpv4-sp-d16
 3729              	sp_invmod:
 3730              		@ args = 0, pretend = 0, frame = 24
 3731              		@ frame_needed = 0, uses_anonymous_args = 0
 3732 0000 2DE9F04F 		push	{r4, r5, r6, r7, r8, r9, r10, fp, lr}
 3733 0004 87B0     		sub	sp, sp, #28
 3734 0006 0F46     		mov	r7, r1
 3735 0008 8246     		mov	r10, r0
 3736 000a 0092     		str	r2, [sp]
 3737 000c 10B9     		cbnz	r0, .L692
 3738              	.L724:
 3739 000e 6FF06104 		mvn	r4, #97
 3740 0012 2DE0     		b	.L691
 3741              	.L692:
 3742 0014 0029     		cmp	r1, #0
 3743 0016 FAD0     		beq	.L724
 3744 0018 009B     		ldr	r3, [sp]
 3745 001a 002B     		cmp	r3, #0
 3746 001c F7D0     		beq	.L724
 3747 001e 9942     		cmp	r1, r3
 3748 0020 F5D0     		beq	.L724
 3749 0022 0A88     		ldrh	r2, [r1]
 3750 0024 5B88     		ldrh	r3, [r3, #2]
 3751 0026 B3EB420F 		cmp	r3, r2, lsl #1
 3752 002a F0DB     		blt	.L724
 3753 002c FFF7FEFF 		bl	_sp_cmp_abs
 3754 0030 0130     		adds	r0, r0, #1
 3755 0032 07D0     		beq	.L695
 3756 0034 5046     		mov	r0, r10
 3757 0036 009A     		ldr	r2, [sp]
 3758 0038 FFF7FEFF 		bl	sp_mod
 3759 003c 0446     		mov	r4, r0
 3760 003e B8B9     		cbnz	r0, .L691
 3761 0040 DDF800A0 		ldr	r10, [sp]
 3762              	.L695:
 3763 0044 BAF80020 		ldrh	r2, [r10]
 3764 0048 002A     		cmp	r2, #0
 3765 004a E0D0     		beq	.L724
 3766 004c 3888     		ldrh	r0, [r7]
 3767 004e 0028     		cmp	r0, #0
ARM GAS  /tmp/ccN6vd78.s 			page 65


 3768 0050 DDD0     		beq	.L724
 3769 0052 DAF80430 		ldr	r3, [r10, #4]
 3770 0056 D907     		lsls	r1, r3, #31
 3771 0058 02D4     		bmi	.L722
 3772 005a 7968     		ldr	r1, [r7, #4]
 3773 005c CC07     		lsls	r4, r1, #31
 3774 005e D6D5     		bpl	.L724
 3775              	.L722:
 3776 0060 012A     		cmp	r2, #1
 3777 0062 09D1     		bne	.L697
 3778 0064 012B     		cmp	r3, #1
 3779 0066 07D1     		bne	.L697
 3780 0068 0024     		movs	r4, #0
 3781 006a 009A     		ldr	r2, [sp]
 3782 006c 5360     		str	r3, [r2, #4]
 3783 006e 1380     		strh	r3, [r2]	@ movhi
 3784              	.L691:
 3785 0070 2046     		mov	r0, r4
 3786 0072 07B0     		add	sp, sp, #28
 3787              		@ sp needed
 3788 0074 BDE8F08F 		pop	{r4, r5, r6, r7, r8, r9, r10, fp, pc}
 3789              	.L697:
 3790 0078 0023     		movs	r3, #0
 3791 007a CDE90333 		strd	r3, r3, [sp, #12]
 3792 007e 0593     		str	r3, [sp, #20]
 3793 0080 431C     		adds	r3, r0, #1
 3794 0082 232B     		cmp	r3, #35
 3795 0084 C3D8     		bhi	.L724
 3796 0086 0C23     		movs	r3, #12
 3797 0088 5843     		muls	r0, r3, r0
 3798 008a 1830     		adds	r0, r0, #24
 3799 008c FFF7FEFF 		bl	wolfSSL_Malloc
 3800 0090 8046     		mov	r8, r0
 3801 0092 0028     		cmp	r0, #0
 3802 0094 00F08D80 		beq	.L725
 3803 0098 3B88     		ldrh	r3, [r7]
 3804 009a 0390     		str	r0, [sp, #12]
 3805 009c 581C     		adds	r0, r3, #1
 3806 009e 82B2     		uxth	r2, r0
 3807 00a0 A8F80220 		strh	r2, [r8, #2]	@ movhi
 3808 00a4 BBB1     		cbz	r3, .L726
 3809 00a6 9E1C     		adds	r6, r3, #2
 3810 00a8 B600     		lsls	r6, r6, #2
 3811              	.L699:
 3812 00aa 08EB0609 		add	r9, r8, r6
 3813 00ae 4E44     		add	r6, r6, r9
 3814 00b0 112B     		cmp	r3, #17
 3815 00b2 A9F80220 		strh	r2, [r9, #2]	@ movhi
 3816 00b6 CDF81090 		str	r9, [sp, #16]
 3817 00ba 0596     		str	r6, [sp, #20]
 3818 00bc 7280     		strh	r2, [r6, #2]	@ movhi
 3819 00be 00F3FB80 		bgt	.L727
 3820 00c2 C000     		lsls	r0, r0, #3
 3821 00c4 FFF7FEFF 		bl	wolfSSL_Malloc
 3822 00c8 0546     		mov	r5, r0
 3823 00ca 0028     		cmp	r0, #0
 3824 00cc 40F0B580 		bne	.L766
ARM GAS  /tmp/ccN6vd78.s 			page 66


 3825 00d0 6FF06004 		mvn	r4, #96
 3826 00d4 ECE0     		b	.L723
 3827              	.L726:
 3828 00d6 0826     		movs	r6, #8
 3829 00d8 E7E7     		b	.L699
 3830              	.L705:
 3831 00da D9F80430 		ldr	r3, [r9, #4]
 3832 00de 4946     		mov	r1, r9
 3833 00e0 DB07     		lsls	r3, r3, #31
 3834 00e2 0FD4     		bmi	.L708
 3835 00e4 4846     		mov	r0, r9
 3836 00e6 FFF7FEFF 		bl	_sp_div_2
 3837 00ea 2B88     		ldrh	r3, [r5]
 3838 00ec 3BB1     		cbz	r3, .L709
 3839 00ee 6B68     		ldr	r3, [r5, #4]
 3840 00f0 D807     		lsls	r0, r3, #31
 3841 00f2 04D5     		bpl	.L709
 3842 00f4 2A46     		mov	r2, r5
 3843 00f6 5946     		mov	r1, fp
 3844 00f8 2846     		mov	r0, r5
 3845 00fa FFF7FEFF 		bl	_sp_add_off.constprop.0
 3846              	.L709:
 3847 00fe 2946     		mov	r1, r5
 3848 0100 2846     		mov	r0, r5
 3849 0102 93E0     		b	.L767
 3850              	.L708:
 3851 0104 4046     		mov	r0, r8
 3852 0106 FFF7FEFF 		bl	_sp_cmp_abs
 3853 010a 0130     		adds	r0, r0, #1
 3854 010c 4FF00003 		mov	r3, #0
 3855 0110 15D0     		beq	.L710
 3856 0112 4246     		mov	r2, r8
 3857 0114 4046     		mov	r0, r8
 3858 0116 FFF7FEFF 		bl	_sp_sub_off
 3859 011a 2946     		mov	r1, r5
 3860 011c 3046     		mov	r0, r6
 3861 011e FFF7FEFF 		bl	_sp_cmp_abs
 3862 0122 0130     		adds	r0, r0, #1
 3863 0124 04D1     		bne	.L711
 3864 0126 3246     		mov	r2, r6
 3865 0128 5946     		mov	r1, fp
 3866 012a 3046     		mov	r0, r6
 3867 012c FFF7FEFF 		bl	_sp_add_off.constprop.0
 3868              	.L711:
 3869 0130 0023     		movs	r3, #0
 3870 0132 3246     		mov	r2, r6
 3871 0134 2946     		mov	r1, r5
 3872 0136 3046     		mov	r0, r6
 3873              	.L768:
 3874 0138 FFF7FEFF 		bl	_sp_sub_off
 3875 013c 55E0     		b	.L704
 3876              	.L710:
 3877 013e 4A46     		mov	r2, r9
 3878 0140 4146     		mov	r1, r8
 3879 0142 4846     		mov	r0, r9
 3880 0144 FFF7FEFF 		bl	_sp_sub_off
 3881 0148 3146     		mov	r1, r6
ARM GAS  /tmp/ccN6vd78.s 			page 67


 3882 014a 2846     		mov	r0, r5
 3883 014c FFF7FEFF 		bl	_sp_cmp_abs
 3884 0150 0130     		adds	r0, r0, #1
 3885 0152 04D1     		bne	.L712
 3886 0154 2A46     		mov	r2, r5
 3887 0156 5946     		mov	r1, fp
 3888 0158 2846     		mov	r0, r5
 3889 015a FFF7FEFF 		bl	_sp_add_off.constprop.0
 3890              	.L712:
 3891 015e 0023     		movs	r3, #0
 3892 0160 2A46     		mov	r2, r5
 3893 0162 3146     		mov	r1, r6
 3894 0164 2846     		mov	r0, r5
 3895 0166 E7E7     		b	.L768
 3896              	.L714:
 3897 0168 002A     		cmp	r2, #0
 3898 016a 00F09C80 		beq	.L716
 3899 016e 1CB3     		cbz	r4, .L717
 3900 0170 2A46     		mov	r2, r5
 3901 0172 3946     		mov	r1, r7
 3902 0174 2846     		mov	r0, r5
 3903 0176 0193     		str	r3, [sp, #4]
 3904 0178 FFF7FEFF 		bl	sp_mul
 3905 017c 019B     		ldr	r3, [sp, #4]
 3906 017e 0446     		mov	r4, r0
 3907 0180 0028     		cmp	r0, #0
 3908 0182 40F09280 		bne	.L702
 3909 0186 1946     		mov	r1, r3
 3910 0188 2A46     		mov	r2, r5
 3911 018a 2846     		mov	r0, r5
 3912 018c FFF7FEFF 		bl	_sp_sub_d
 3913 0190 2346     		mov	r3, r4
 3914 0192 2A46     		mov	r2, r5
 3915 0194 5146     		mov	r1, r10
 3916 0196 2846     		mov	r0, r5
 3917 0198 FFF7FEFF 		bl	sp_div
 3918 019c 0446     		mov	r4, r0
 3919 019e 0028     		cmp	r0, #0
 3920 01a0 40F08380 		bne	.L702
 3921 01a4 2946     		mov	r1, r5
 3922 01a6 3846     		mov	r0, r7
 3923 01a8 009A     		ldr	r2, [sp]
 3924 01aa FFF7FEFF 		bl	sp_sub
 3925 01ae 0446     		mov	r4, r0
 3926 01b0 7BE0     		b	.L702
 3927              	.L725:
 3928 01b2 6FF06004 		mvn	r4, #96
 3929 01b6 5BE7     		b	.L691
 3930              	.L717:
 3931 01b8 2846     		mov	r0, r5
 3932 01ba 0099     		ldr	r1, [sp]
 3933 01bc FFF7FEFF 		bl	_sp_copy
 3934 01c0 73E0     		b	.L702
 3935              	.L730:
 3936 01c2 5346     		mov	r3, r10
 3937 01c4 BB46     		mov	fp, r7
 3938              	.L703:
ARM GAS  /tmp/ccN6vd78.s 			page 68


 3939 01c6 4146     		mov	r1, r8
 3940 01c8 5846     		mov	r0, fp
 3941 01ca 0193     		str	r3, [sp, #4]
 3942 01cc FFF7FEFF 		bl	_sp_copy
 3943 01d0 019B     		ldr	r3, [sp, #4]
 3944 01d2 9945     		cmp	r9, r3
 3945 01d4 03D0     		beq	.L719
 3946 01d6 4946     		mov	r1, r9
 3947 01d8 1846     		mov	r0, r3
 3948 01da FFF7FEFF 		bl	_sp_copy
 3949              	.L719:
 3950 01de 0023     		movs	r3, #0
 3951 01e0 3380     		strh	r3, [r6]	@ movhi
 3952 01e2 7360     		str	r3, [r6, #4]
 3953 01e4 0123     		movs	r3, #1
 3954 01e6 6B60     		str	r3, [r5, #4]
 3955 01e8 2B80     		strh	r3, [r5]	@ movhi
 3956              	.L704:
 3957 01ea B9F80030 		ldrh	r3, [r9]
 3958 01ee B8F80020 		ldrh	r2, [r8]
 3959 01f2 012B     		cmp	r3, #1
 3960 01f4 03D1     		bne	.L713
 3961 01f6 D9F80430 		ldr	r3, [r9, #4]
 3962 01fa 012B     		cmp	r3, #1
 3963 01fc B4D0     		beq	.L714
 3964              	.L713:
 3965 01fe 002A     		cmp	r2, #0
 3966 0200 51D0     		beq	.L716
 3967 0202 D8F80430 		ldr	r3, [r8, #4]
 3968 0206 D907     		lsls	r1, r3, #31
 3969 0208 3FF567AF 		bmi	.L705
 3970 020c 4146     		mov	r1, r8
 3971 020e 4046     		mov	r0, r8
 3972 0210 FFF7FEFF 		bl	_sp_div_2
 3973 0214 3388     		ldrh	r3, [r6]
 3974 0216 3BB1     		cbz	r3, .L706
 3975 0218 7368     		ldr	r3, [r6, #4]
 3976 021a DA07     		lsls	r2, r3, #31
 3977 021c 04D5     		bpl	.L706
 3978 021e 3246     		mov	r2, r6
 3979 0220 5946     		mov	r1, fp
 3980 0222 3046     		mov	r0, r6
 3981 0224 FFF7FEFF 		bl	_sp_add_off.constprop.0
 3982              	.L706:
 3983 0228 3146     		mov	r1, r6
 3984 022a 3046     		mov	r0, r6
 3985              	.L767:
 3986 022c FFF7FEFF 		bl	_sp_div_2
 3987 0230 DBE7     		b	.L704
 3988              	.L731:
 3989 0232 4B46     		mov	r3, r9
 3990 0234 D346     		mov	fp, r10
 3991 0236 0124     		movs	r4, #1
 3992 0238 C5E7     		b	.L703
 3993              	.L766:
 3994 023a 3988     		ldrh	r1, [r7]
 3995 023c 4046     		mov	r0, r8
ARM GAS  /tmp/ccN6vd78.s 			page 69


 3996 023e 0131     		adds	r1, r1, #1
 3997 0240 89B2     		uxth	r1, r1
 3998 0242 FFF7FEFF 		bl	sp_init_size
 3999 0246 0446     		mov	r4, r0
 4000 0248 78BB     		cbnz	r0, .L702
 4001 024a 3988     		ldrh	r1, [r7]
 4002 024c 4846     		mov	r0, r9
 4003 024e 0131     		adds	r1, r1, #1
 4004 0250 89B2     		uxth	r1, r1
 4005 0252 FFF7FEFF 		bl	sp_init_size
 4006 0256 0446     		mov	r4, r0
 4007 0258 38BB     		cbnz	r0, .L702
 4008 025a 3988     		ldrh	r1, [r7]
 4009 025c 3046     		mov	r0, r6
 4010 025e 0131     		adds	r1, r1, #1
 4011 0260 89B2     		uxth	r1, r1
 4012 0262 FFF7FEFF 		bl	sp_init_size
 4013 0266 0446     		mov	r4, r0
 4014 0268 F8B9     		cbnz	r0, .L702
 4015 026a 3988     		ldrh	r1, [r7]
 4016 026c 2846     		mov	r0, r5
 4017 026e 4900     		lsls	r1, r1, #1
 4018 0270 0131     		adds	r1, r1, #1
 4019 0272 89B2     		uxth	r1, r1
 4020 0274 FFF7FEFF 		bl	sp_init_size
 4021 0278 0446     		mov	r4, r0
 4022 027a B0B9     		cbnz	r0, .L702
 4023 027c 3B88     		ldrh	r3, [r7]
 4024 027e 002B     		cmp	r3, #0
 4025 0280 9FD0     		beq	.L730
 4026 0282 7B68     		ldr	r3, [r7, #4]
 4027 0284 D807     		lsls	r0, r3, #31
 4028 0286 9CD4     		bmi	.L730
 4029 0288 4146     		mov	r1, r8
 4030 028a 5046     		mov	r0, r10
 4031 028c FFF7FEFF 		bl	_sp_copy
 4032 0290 4A46     		mov	r2, r9
 4033 0292 5146     		mov	r1, r10
 4034 0294 3846     		mov	r0, r7
 4035 0296 FFF7FEFF 		bl	sp_mod
 4036 029a 0446     		mov	r4, r0
 4037 029c 28B9     		cbnz	r0, .L702
 4038 029e B9F80030 		ldrh	r3, [r9]
 4039 02a2 002B     		cmp	r3, #0
 4040 02a4 C5D1     		bne	.L731
 4041              	.L716:
 4042 02a6 6FF06104 		mvn	r4, #97
 4043              	.L702:
 4044 02aa 2846     		mov	r0, r5
 4045 02ac FFF7FEFF 		bl	wolfSSL_Free
 4046              	.L723:
 4047 02b0 4046     		mov	r0, r8
 4048 02b2 FFF7FEFF 		bl	wolfSSL_Free
 4049 02b6 DBE6     		b	.L691
 4050              	.L727:
 4051 02b8 6FF06104 		mvn	r4, #97
 4052 02bc F8E7     		b	.L723
ARM GAS  /tmp/ccN6vd78.s 			page 70


 4054              		.section	.text.sp_div_2d,"ax",%progbits
 4055              		.align	1
 4056              		.global	sp_div_2d
 4057              		.syntax unified
 4058              		.thumb
 4059              		.thumb_func
 4060              		.fpu fpv4-sp-d16
 4062              	sp_div_2d:
 4063              		@ args = 0, pretend = 0, frame = 0
 4064              		@ frame_needed = 0, uses_anonymous_args = 0
 4065 0000 F8B5     		push	{r3, r4, r5, r6, r7, lr}
 4066 0002 0D46     		mov	r5, r1
 4067 0004 1746     		mov	r7, r2
 4068 0006 1C46     		mov	r4, r3
 4069 0008 0646     		mov	r6, r0
 4070 000a 0028     		cmp	r0, #0
 4071 000c 46D0     		beq	.L781
 4072 000e 0029     		cmp	r1, #0
 4073 0010 44DB     		blt	.L781
 4074 0012 FFF7FEFF 		bl	sp_count_bits
 4075 0016 401A     		subs	r0, r0, r1
 4076 0018 0028     		cmp	r0, #0
 4077 001a 0BDC     		bgt	.L771
 4078 001c 0023     		movs	r3, #0
 4079 001e 3B80     		strh	r3, [r7]	@ movhi
 4080 0020 7B60     		str	r3, [r7, #4]
 4081 0022 0CB9     		cbnz	r4, .L772
 4082              	.L776:
 4083 0024 0020     		movs	r0, #0
 4084              	.L769:
 4085 0026 F8BD     		pop	{r3, r4, r5, r6, r7, pc}
 4086              	.L772:
 4087 0028 2146     		mov	r1, r4
 4088 002a 3046     		mov	r0, r6
 4089 002c BDE8F840 		pop	{r3, r4, r5, r6, r7, lr}
 4090 0030 FFF7FEBF 		b	sp_copy
 4091              	.L771:
 4092 0034 5CBB     		cbnz	r4, .L773
 4093              	.L775:
 4094 0036 3A46     		mov	r2, r7
 4095 0038 2946     		mov	r1, r5
 4096 003a 3046     		mov	r0, r6
 4097 003c FFF7FEFF 		bl	sp_rshb
 4098 0040 0028     		cmp	r0, #0
 4099 0042 F0D1     		bne	.L769
 4100 0044 002C     		cmp	r4, #0
 4101 0046 EDD0     		beq	.L776
 4102 0048 05F11F06 		add	r6, r5, #31
 4103 004c 7311     		asrs	r3, r6, #5
 4104 004e 15F01F05 		ands	r5, r5, #31
 4105 0052 C6F34F16 		ubfx	r6, r6, #5, #16
 4106 0056 2680     		strh	r6, [r4]	@ movhi
 4107 0058 0BD0     		beq	.L777
 4108 005a 4FF0FF37 		mov	r7, #-1
 4109 005e 9AB2     		uxth	r2, r3
 4110 0060 013A     		subs	r2, r2, #1
 4111 0062 04EB8202 		add	r2, r4, r2, lsl #2
ARM GAS  /tmp/ccN6vd78.s 			page 71


 4112 0066 07FA05F5 		lsl	r5, r7, r5
 4113 006a 5768     		ldr	r7, [r2, #4]
 4114 006c 27EA0507 		bic	r7, r7, r5
 4115 0070 5760     		str	r7, [r2, #4]
 4116              	.L777:
 4117 0072 002E     		cmp	r6, #0
 4118 0074 D6D0     		beq	.L776
 4119 0076 9BB2     		uxth	r3, r3
 4120 0078 5A1E     		subs	r2, r3, #1
 4121 007a 04EB8303 		add	r3, r4, r3, lsl #2
 4122              	.L779:
 4123 007e 53F80419 		ldr	r1, [r3], #-4
 4124 0082 09B9     		cbnz	r1, .L778
 4125 0084 013A     		subs	r2, r2, #1
 4126 0086 FAD2     		bcs	.L779
 4127              	.L778:
 4128 0088 0132     		adds	r2, r2, #1
 4129 008a 2280     		strh	r2, [r4]	@ movhi
 4130 008c CBE7     		b	.L769
 4131              	.L773:
 4132 008e 2146     		mov	r1, r4
 4133 0090 3046     		mov	r0, r6
 4134 0092 FFF7FEFF 		bl	sp_copy
 4135 0096 0028     		cmp	r0, #0
 4136 0098 C5D1     		bne	.L769
 4137 009a CCE7     		b	.L775
 4138              	.L781:
 4139 009c 6FF06100 		mvn	r0, #97
 4140 00a0 C1E7     		b	.L769
 4142              		.section	.text.sp_mod_2d,"ax",%progbits
 4143              		.align	1
 4144              		.global	sp_mod_2d
 4145              		.syntax unified
 4146              		.thumb
 4147              		.thumb_func
 4148              		.fpu fpv4-sp-d16
 4150              	sp_mod_2d:
 4151              		@ args = 0, pretend = 0, frame = 0
 4152              		@ frame_needed = 0, uses_anonymous_args = 0
 4153 0000 2DE9F041 		push	{r4, r5, r6, r7, r8, lr}
 4154 0004 0E46     		mov	r6, r1
 4155 0006 1446     		mov	r4, r2
 4156 0008 0746     		mov	r7, r0
 4157 000a 0028     		cmp	r0, #0
 4158 000c 3FD0     		beq	.L807
 4159 000e 002A     		cmp	r2, #0
 4160 0010 3DD0     		beq	.L807
 4161 0012 0029     		cmp	r1, #0
 4162 0014 3BDB     		blt	.L807
 4163 0016 01F11F08 		add	r8, r1, #31
 4164 001a 5388     		ldrh	r3, [r2, #2]
 4165 001c 4FEA6815 		asr	r5, r8, #5
 4166 0020 C8F34F18 		ubfx	r8, r8, #5, #16
 4167 0024 4345     		cmp	r3, r8
 4168 0026 32D3     		bcc	.L807
 4169 0028 9042     		cmp	r0, r2
 4170 002a 07D0     		beq	.L797
ARM GAS  /tmp/ccN6vd78.s 			page 72


 4171 002c AAB2     		uxth	r2, r5
 4172 002e 011D     		adds	r1, r0, #4
 4173 0030 9200     		lsls	r2, r2, #2
 4174 0032 201D     		adds	r0, r4, #4
 4175 0034 FFF7FEFF 		bl	memcpy
 4176 0038 3B88     		ldrh	r3, [r7]
 4177 003a 2380     		strh	r3, [r4]	@ movhi
 4178              	.L797:
 4179 003c 3B88     		ldrh	r3, [r7]
 4180 003e 4345     		cmp	r3, r8
 4181 0040 02D2     		bcs	.L798
 4182              	.L814:
 4183 0042 0020     		movs	r0, #0
 4184              	.L795:
 4185 0044 BDE8F081 		pop	{r4, r5, r6, r7, r8, pc}
 4186              	.L798:
 4187 0048 16F01F06 		ands	r6, r6, #31
 4188 004c A4F80080 		strh	r8, [r4]	@ movhi
 4189 0050 0BD0     		beq	.L799
 4190 0052 4FF0FF32 		mov	r2, #-1
 4191 0056 ABB2     		uxth	r3, r5
 4192 0058 013B     		subs	r3, r3, #1
 4193 005a 04EB8303 		add	r3, r4, r3, lsl #2
 4194 005e 02FA06F6 		lsl	r6, r2, r6
 4195 0062 5A68     		ldr	r2, [r3, #4]
 4196 0064 22EA0602 		bic	r2, r2, r6
 4197 0068 5A60     		str	r2, [r3, #4]
 4198              	.L799:
 4199 006a B8F1000F 		cmp	r8, #0
 4200 006e E8D0     		beq	.L814
 4201 0070 ADB2     		uxth	r5, r5
 4202 0072 6B1E     		subs	r3, r5, #1
 4203 0074 04EB8505 		add	r5, r4, r5, lsl #2
 4204              	.L801:
 4205 0078 5A1C     		adds	r2, r3, #1
 4206 007a 02D1     		bne	.L803
 4207              	.L802:
 4208 007c 0133     		adds	r3, r3, #1
 4209 007e 2380     		strh	r3, [r4]	@ movhi
 4210 0080 DFE7     		b	.L814
 4211              	.L803:
 4212 0082 55F80429 		ldr	r2, [r5], #-4
 4213 0086 002A     		cmp	r2, #0
 4214 0088 F8D1     		bne	.L802
 4215 008a 013B     		subs	r3, r3, #1
 4216 008c F4E7     		b	.L801
 4217              	.L807:
 4218 008e 6FF06100 		mvn	r0, #97
 4219 0092 D7E7     		b	.L795
 4221              		.section	.text.sp_mul_2d,"ax",%progbits
 4222              		.align	1
 4223              		.global	sp_mul_2d
 4224              		.syntax unified
 4225              		.thumb
 4226              		.thumb_func
 4227              		.fpu fpv4-sp-d16
 4229              	sp_mul_2d:
ARM GAS  /tmp/ccN6vd78.s 			page 73


 4230              		@ args = 0, pretend = 0, frame = 0
 4231              		@ frame_needed = 0, uses_anonymous_args = 0
 4232 0000 70B5     		push	{r4, r5, r6, lr}
 4233 0002 0E46     		mov	r6, r1
 4234 0004 1446     		mov	r4, r2
 4235 0006 0546     		mov	r5, r0
 4236 0008 C0B1     		cbz	r0, .L822
 4237 000a BAB1     		cbz	r2, .L822
 4238 000c 0029     		cmp	r1, #0
 4239 000e 15DB     		blt	.L822
 4240 0010 FFF7FEFF 		bl	sp_count_bits
 4241 0014 6388     		ldrh	r3, [r4, #2]
 4242 0016 0844     		add	r0, r0, r1
 4243 0018 B0EB431F 		cmp	r0, r3, lsl #5
 4244 001c 0ED8     		bhi	.L822
 4245 001e A542     		cmp	r5, r4
 4246 0020 05D1     		bne	.L817
 4247              	.L818:
 4248 0022 3146     		mov	r1, r6
 4249 0024 2046     		mov	r0, r4
 4250 0026 BDE87040 		pop	{r4, r5, r6, lr}
 4251 002a FFF7FEBF 		b	sp_lshb
 4252              	.L817:
 4253 002e 2146     		mov	r1, r4
 4254 0030 2846     		mov	r0, r5
 4255 0032 FFF7FEFF 		bl	sp_copy
 4256 0036 0028     		cmp	r0, #0
 4257 0038 F3D0     		beq	.L818
 4258              	.L815:
 4259 003a 70BD     		pop	{r4, r5, r6, pc}
 4260              	.L822:
 4261 003c 6FF06100 		mvn	r0, #97
 4262 0040 FBE7     		b	.L815
 4264              		.section	.text.sp_sqr,"ax",%progbits
 4265              		.align	1
 4266              		.global	sp_sqr
 4267              		.syntax unified
 4268              		.thumb
 4269              		.thumb_func
 4270              		.fpu fpv4-sp-d16
 4272              	sp_sqr:
 4273              		@ args = 0, pretend = 0, frame = 16
 4274              		@ frame_needed = 0, uses_anonymous_args = 0
 4275 0000 2DE9F04F 		push	{r4, r5, r6, r7, r8, r9, r10, fp, lr}
 4276 0004 8846     		mov	r8, r1
 4277 0006 0746     		mov	r7, r0
 4278 0008 85B0     		sub	sp, sp, #20
 4279 000a 0028     		cmp	r0, #0
 4280 000c 00F09580 		beq	.L841
 4281 0010 0029     		cmp	r1, #0
 4282 0012 00F09280 		beq	.L841
 4283 0016 0088     		ldrh	r0, [r0]
 4284 0018 4B88     		ldrh	r3, [r1, #2]
 4285 001a B3EB400F 		cmp	r3, r0, lsl #1
 4286 001e C0F28C80 		blt	.L841
 4287 0022 20B9     		cbnz	r0, .L828
 4288 0024 0880     		strh	r0, [r1]	@ movhi
ARM GAS  /tmp/ccN6vd78.s 			page 74


 4289 0026 4860     		str	r0, [r1, #4]
 4290              	.L826:
 4291 0028 05B0     		add	sp, sp, #20
 4292              		@ sp needed
 4293 002a BDE8F08F 		pop	{r4, r5, r6, r7, r8, r9, r10, fp, pc}
 4294              	.L828:
 4295 002e C000     		lsls	r0, r0, #3
 4296 0030 FFF7FEFF 		bl	wolfSSL_Malloc
 4297 0034 8146     		mov	r9, r0
 4298 0036 0028     		cmp	r0, #0
 4299 0038 00F08280 		beq	.L842
 4300 003c 0025     		movs	r5, #0
 4301 003e 7C68     		ldr	r4, [r7, #4]
 4302 0040 4FF0010E 		mov	lr, #1
 4303 0044 A4FB0434 		umull	r3, r4, r4, r4
 4304 0048 2E46     		mov	r6, r5
 4305 004a 0360     		str	r3, [r0]
 4306 004c 2946     		mov	r1, r5
 4307 004e 2846     		mov	r0, r5
 4308 0050 3B88     		ldrh	r3, [r7]
 4309 0052 0193     		str	r3, [sp, #4]
 4310 0054 013B     		subs	r3, r3, #1
 4311 0056 5B00     		lsls	r3, r3, #1
 4312 0058 1FFA83FB 		uxth	fp, r3
 4313              	.L829:
 4314 005c 1FFA8EF2 		uxth	r2, lr
 4315 0060 9345     		cmp	fp, r2
 4316 0062 1ED2     		bcs	.L835
 4317 0064 4546     		mov	r5, r8
 4318 0066 0BF10103 		add	r3, fp, #1
 4319 006a 9BB2     		uxth	r3, r3
 4320 006c 49F82340 		str	r4, [r9, r3, lsl #2]
 4321 0070 0BF10203 		add	r3, fp, #2
 4322 0074 9CB2     		uxth	r4, r3
 4323 0076 25F8044B 		strh	r4, [r5], #4	@ movhi
 4324 007a 4946     		mov	r1, r9
 4325 007c 2846     		mov	r0, r5
 4326 007e A200     		lsls	r2, r4, #2
 4327 0080 FFF7FEFF 		bl	memcpy
 4328 0084 44B1     		cbz	r4, .L836
 4329 0086 631E     		subs	r3, r4, #1
 4330              	.L838:
 4331 0088 55F82320 		ldr	r2, [r5, r3, lsl #2]
 4332 008c 0AB9     		cbnz	r2, .L837
 4333 008e 013B     		subs	r3, r3, #1
 4334 0090 FAD2     		bcs	.L838
 4335              	.L837:
 4336 0092 0133     		adds	r3, r3, #1
 4337 0094 A8F80030 		strh	r3, [r8]	@ movhi
 4338              	.L836:
 4339 0098 4846     		mov	r0, r9
 4340 009a FFF7FEFF 		bl	wolfSSL_Free
 4341 009e 0020     		movs	r0, #0
 4342 00a0 C2E7     		b	.L826
 4343              	.L835:
 4344 00a2 AEEB5203 		sub	r3, lr, r2, lsr #1
 4345 00a6 B3EB520F 		cmp	r3, r2, lsr #1
ARM GAS  /tmp/ccN6vd78.s 			page 75


 4346 00aa 4FEA520C 		lsr	ip, r2, #1
 4347 00ae 0BD1     		bne	.L830
 4348 00b0 07EB8C02 		add	r2, r7, ip, lsl #2
 4349 00b4 5268     		ldr	r2, [r2, #4]
 4350 00b6 A2FB02A2 		umull	r10, r2, r2, r2
 4351 00ba 1AEB0404 		adds	r4, r10, r4
 4352 00be 45F10005 		adc	r5, r5, #0
 4353 00c2 9619     		adds	r6, r2, r6
 4354 00c4 41F10001 		adc	r1, r1, #0
 4355              	.L830:
 4356 00c8 5A1E     		subs	r2, r3, #1
 4357 00ca 0CF1010C 		add	ip, ip, #1
 4358 00ce 07EB8303 		add	r3, r7, r3, lsl #2
 4359 00d2 0092     		str	r2, [sp]
 4360 00d4 07EB8C0A 		add	r10, r7, ip, lsl #2
 4361 00d8 0293     		str	r3, [sp, #8]
 4362              	.L831:
 4363 00da 019B     		ldr	r3, [sp, #4]
 4364 00dc 9C45     		cmp	ip, r3
 4365 00de 09D3     		bcc	.L832
 4366              	.L834:
 4367 00e0 49F82E40 		str	r4, [r9, lr, lsl #2]
 4368 00e4 7419     		adds	r4, r6, r5
 4369 00e6 40EB0005 		adc	r5, r0, r0
 4370 00ea 0E46     		mov	r6, r1
 4371 00ec 0EF1010E 		add	lr, lr, #1
 4372 00f0 0021     		movs	r1, #0
 4373 00f2 B3E7     		b	.L829
 4374              	.L832:
 4375 00f4 009B     		ldr	r3, [sp]
 4376 00f6 0AF1040A 		add	r10, r10, #4
 4377 00fa 002B     		cmp	r3, #0
 4378 00fc F0DB     		blt	.L834
 4379 00fe 029B     		ldr	r3, [sp, #8]
 4380 0100 0CF1010C 		add	ip, ip, #1
 4381 0104 53F80429 		ldr	r2, [r3], #-4
 4382 0108 1FFA8CFC 		uxth	ip, ip
 4383 010c 0293     		str	r3, [sp, #8]
 4384 010e DAF80030 		ldr	r3, [r10]
 4385 0112 A2FB0323 		umull	r2, r3, r2, r3
 4386 0116 9218     		adds	r2, r2, r2
 4387 0118 0393     		str	r3, [sp, #12]
 4388 011a 40EB0003 		adc	r3, r0, r0
 4389 011e 1419     		adds	r4, r2, r4
 4390 0120 45EB0305 		adc	r5, r5, r3
 4391 0124 039B     		ldr	r3, [sp, #12]
 4392 0126 DB18     		adds	r3, r3, r3
 4393 0128 40EB0002 		adc	r2, r0, r0
 4394 012c 9E19     		adds	r6, r3, r6
 4395 012e 009B     		ldr	r3, [sp]
 4396 0130 41EB0201 		adc	r1, r1, r2
 4397 0134 013B     		subs	r3, r3, #1
 4398 0136 0093     		str	r3, [sp]
 4399 0138 CFE7     		b	.L831
 4400              	.L841:
 4401 013a 6FF06100 		mvn	r0, #97
 4402 013e 73E7     		b	.L826
ARM GAS  /tmp/ccN6vd78.s 			page 76


 4403              	.L842:
 4404 0140 6FF06000 		mvn	r0, #96
 4405 0144 70E7     		b	.L826
 4407              		.section	.text.sp_invmod_mont_ct,"ax",%progbits
 4408              		.align	1
 4409              		.global	sp_invmod_mont_ct
 4410              		.syntax unified
 4411              		.thumb
 4412              		.thumb_func
 4413              		.fpu fpv4-sp-d16
 4415              	sp_invmod_mont_ct:
 4416              		@ args = 0, pretend = 0, frame = 56
 4417              		@ frame_needed = 0, uses_anonymous_args = 0
 4418 0000 2DE9F04F 		push	{r4, r5, r6, r7, r8, r9, r10, fp, lr}
 4419 0004 2DED028B 		vpush.64	{d8}
 4420 0008 0E46     		mov	r6, r1
 4421 000a 08EE102A 		vmov	s16, r2	@ int
 4422 000e 9A46     		mov	r10, r3
 4423 0010 8146     		mov	r9, r0
 4424 0012 8FB0     		sub	sp, sp, #60
 4425 0014 0028     		cmp	r0, #0
 4426 0016 00F03B81 		beq	.L881
 4427 001a 0029     		cmp	r1, #0
 4428 001c 00F03881 		beq	.L881
 4429 0020 002A     		cmp	r2, #0
 4430 0022 00F03581 		beq	.L881
 4431 0026 0C88     		ldrh	r4, [r1]
 4432 0028 112C     		cmp	r4, #17
 4433 002a 4FEA4405 		lsl	r5, r4, #1
 4434 002e 00F32F81 		bgt	.L881
 4435 0032 5388     		ldrh	r3, [r2, #2]
 4436 0034 A342     		cmp	r3, r4
 4437 0036 C0F02B81 		bcc	.L881
 4438 003a 0388     		ldrh	r3, [r0]
 4439 003c 002B     		cmp	r3, #0
 4440 003e 00F02781 		beq	.L881
 4441 0042 002C     		cmp	r4, #0
 4442 0044 00F02481 		beq	.L881
 4443 0048 012C     		cmp	r4, #1
 4444 004a 03D1     		bne	.L849
 4445 004c 4B68     		ldr	r3, [r1, #4]
 4446 004e 022B     		cmp	r3, #2
 4447 0050 40F21E81 		bls	.L881
 4448              	.L849:
 4449 0054 2822     		movs	r2, #40
 4450 0056 0021     		movs	r1, #0
 4451 0058 04A8     		add	r0, sp, #16
 4452 005a 0135     		adds	r5, r5, #1
 4453 005c FFF7FEFF 		bl	memset
 4454 0060 232D     		cmp	r5, #35
 4455 0062 00F21581 		bhi	.L881
 4456 0066 5020     		movs	r0, #80
 4457 0068 04FB0000 		mla	r0, r4, r0, r0
 4458 006c FFF7FEFF 		bl	wolfSSL_Malloc
 4459 0070 0190     		str	r0, [sp, #4]
 4460 0072 0028     		cmp	r0, #0
 4461 0074 00F00981 		beq	.L883
ARM GAS  /tmp/ccN6vd78.s 			page 77


 4462 0078 3388     		ldrh	r3, [r6]
 4463 007a 0490     		str	r0, [sp, #16]
 4464 007c 5900     		lsls	r1, r3, #1
 4465 007e 4A1C     		adds	r2, r1, #1
 4466 0080 0029     		cmp	r1, #0
 4467 0082 03F10103 		add	r3, r3, #1
 4468 0086 04A9     		add	r1, sp, #16
 4469 0088 4FEAC305 		lsl	r5, r3, #3
 4470 008c 0C46     		mov	r4, r1
 4471 008e 08BF     		it	eq
 4472 0090 0825     		moveq	r5, #8
 4473 0092 0120     		movs	r0, #1
 4474 0094 92B2     		uxth	r2, r2
 4475 0096 0291     		str	r1, [sp, #8]
 4476              	.L851:
 4477 0098 2168     		ldr	r1, [r4]
 4478 009a 0130     		adds	r0, r0, #1
 4479 009c 2944     		add	r1, r1, r5
 4480 009e 0A28     		cmp	r0, #10
 4481 00a0 44F8041F 		str	r1, [r4, #4]!
 4482 00a4 4A80     		strh	r2, [r1, #2]	@ movhi
 4483 00a6 F7D1     		bne	.L851
 4484 00a8 DDE90C5B 		ldrd	r5, fp, [sp, #48]
 4485 00ac 0027     		movs	r7, #0
 4486 00ae 9BB2     		uxth	r3, r3
 4487 00b0 2F80     		strh	r7, [r5]	@ movhi
 4488 00b2 6F60     		str	r7, [r5, #4]
 4489 00b4 6A80     		strh	r2, [r5, #2]	@ movhi
 4490 00b6 ABF80230 		strh	r3, [fp, #2]	@ movhi
 4491 00ba 019B     		ldr	r3, [sp, #4]
 4492 00bc ABF80070 		strh	r7, [fp]	@ movhi
 4493 00c0 CBF80470 		str	r7, [fp, #4]
 4494 00c4 1946     		mov	r1, r3
 4495 00c6 1F80     		strh	r7, [r3]	@ movhi
 4496 00c8 5F60     		str	r7, [r3, #4]
 4497 00ca 5A80     		strh	r2, [r3, #2]	@ movhi
 4498 00cc 4846     		mov	r0, r9
 4499 00ce FFF7FEFF 		bl	_sp_copy
 4500 00d2 0BAB     		add	r3, sp, #44
 4501 00d4 0393     		str	r3, [sp, #12]
 4502              	.L854:
 4503 00d6 029A     		ldr	r2, [sp, #8]
 4504 00d8 1346     		mov	r3, r2
 4505 00da 53F8048F 		ldr	r8, [r3, #4]!
 4506 00de 1068     		ldr	r0, [r2]
 4507 00e0 0293     		str	r3, [sp, #8]
 4508 00e2 3388     		ldrh	r3, [r6]
 4509 00e4 4146     		mov	r1, r8
 4510 00e6 5B00     		lsls	r3, r3, #1
 4511 00e8 0133     		adds	r3, r3, #1
 4512 00ea 9BB2     		uxth	r3, r3
 4513 00ec A8F80070 		strh	r7, [r8]	@ movhi
 4514 00f0 C8F80470 		str	r7, [r8, #4]
 4515 00f4 A8F80230 		strh	r3, [r8, #2]	@ movhi
 4516 00f8 FFF7FEFF 		bl	sp_sqr
 4517 00fc 0446     		mov	r4, r0
 4518 00fe 0028     		cmp	r0, #0
ARM GAS  /tmp/ccN6vd78.s 			page 78


 4519 0100 4BD1     		bne	.L853
 4520 0102 0346     		mov	r3, r0
 4521 0104 5246     		mov	r2, r10
 4522 0106 3146     		mov	r1, r6
 4523 0108 4046     		mov	r0, r8
 4524 010a FFF7FEFF 		bl	_sp_mont_red
 4525 010e 0446     		mov	r4, r0
 4526 0110 0028     		cmp	r0, #0
 4527 0112 42D1     		bne	.L853
 4528 0114 4246     		mov	r2, r8
 4529 0116 4946     		mov	r1, r9
 4530 0118 4046     		mov	r0, r8
 4531 011a FFF7FEFF 		bl	sp_mul
 4532 011e 0446     		mov	r4, r0
 4533 0120 D8BB     		cbnz	r0, .L853
 4534 0122 0346     		mov	r3, r0
 4535 0124 5246     		mov	r2, r10
 4536 0126 3146     		mov	r1, r6
 4537 0128 4046     		mov	r0, r8
 4538 012a FFF7FEFF 		bl	_sp_mont_red
 4539 012e 0446     		mov	r4, r0
 4540 0130 98BB     		cbnz	r0, .L853
 4541 0132 DDE90223 		ldrd	r2, r3, [sp, #8]
 4542 0136 9342     		cmp	r3, r2
 4543 0138 CDD1     		bne	.L854
 4544 013a 5A46     		mov	r2, fp
 4545 013c 3046     		mov	r0, r6
 4546 013e 0221     		movs	r1, #2
 4547 0140 FFF7FEFF 		bl	_sp_sub_d
 4548 0144 5846     		mov	r0, fp
 4549 0146 FFF7FEFF 		bl	sp_count_bits
 4550 014a 0127     		movs	r7, #1
 4551 014c A0F10208 		sub	r8, r0, #2
 4552 0150 09E0     		b	.L873
 4553              	.L857:
 4554 0152 4146     		mov	r1, r8
 4555 0154 5846     		mov	r0, fp
 4556 0156 FFF7FEFF 		bl	sp_is_bit_set
 4557 015a 38B1     		cbz	r0, .L856
 4558 015c 082F     		cmp	r7, #8
 4559 015e 05D0     		beq	.L856
 4560 0160 08F1FF38 		add	r8, r8, #-1
 4561 0164 0137     		adds	r7, r7, #1
 4562              	.L873:
 4563 0166 B8F1000F 		cmp	r8, #0
 4564 016a F2DA     		bge	.L857
 4565              	.L856:
 4566 016c 0EAB     		add	r3, sp, #56
 4567 016e 03EB8707 		add	r7, r3, r7, lsl #2
 4568 0172 57F82C0C 		ldr	r0, [r7, #-44]
 4569 0176 0027     		movs	r7, #0
 4570 0178 2946     		mov	r1, r5
 4571 017a FFF7FEFF 		bl	_sp_copy
 4572 017e B946     		mov	r9, r7
 4573              	.L858:
 4574 0180 B8F1000F 		cmp	r8, #0
 4575 0184 12DA     		bge	.L865
ARM GAS  /tmp/ccN6vd78.s 			page 79


 4576              	.L866:
 4577 0186 002F     		cmp	r7, #0
 4578 0188 58DC     		bgt	.L868
 4579 018a B9F1000F 		cmp	r9, #0
 4580 018e 65DC     		bgt	.L871
 4581 0190 18EE101A 		vmov	r1, s16	@ int
 4582 0194 2846     		mov	r0, r5
 4583 0196 FFF7FEFF 		bl	_sp_copy
 4584              	.L853:
 4585 019a 0198     		ldr	r0, [sp, #4]
 4586 019c FFF7FEFF 		bl	wolfSSL_Free
 4587              	.L847:
 4588 01a0 2046     		mov	r0, r4
 4589 01a2 0FB0     		add	sp, sp, #60
 4590              		@ sp needed
 4591 01a4 BDEC028B 		vldm	sp!, {d8}
 4592 01a8 BDE8F08F 		pop	{r4, r5, r6, r7, r8, r9, r10, fp, pc}
 4593              	.L865:
 4594 01ac 4146     		mov	r1, r8
 4595 01ae 5846     		mov	r0, fp
 4596 01b0 FFF7FEFF 		bl	sp_is_bit_set
 4597 01b4 00EB0902 		add	r2, r0, r9
 4598 01b8 0292     		str	r2, [sp, #8]
 4599 01ba 7A1C     		adds	r2, r7, #1
 4600 01bc 0392     		str	r2, [sp, #12]
 4601 01be 029A     		ldr	r2, [sp, #8]
 4602 01c0 0346     		mov	r3, r0
 4603 01c2 082A     		cmp	r2, #8
 4604 01c4 03D0     		beq	.L859
 4605 01c6 A8BB     		cbnz	r0, .L884
 4606 01c8 B9F1000F 		cmp	r9, #0
 4607 01cc 1ADD     		ble	.L860
 4608              	.L859:
 4609 01ce C3F10102 		rsb	r2, r3, #1
 4610 01d2 0392     		str	r2, [sp, #12]
 4611 01d4 1F44     		add	r7, r7, r3
 4612              	.L861:
 4613 01d6 002F     		cmp	r7, #0
 4614 01d8 1ADC     		bgt	.L863
 4615 01da 029B     		ldr	r3, [sp, #8]
 4616 01dc 0EAA     		add	r2, sp, #56
 4617 01de 02EB8303 		add	r3, r2, r3, lsl #2
 4618 01e2 53F82C1C 		ldr	r1, [r3, #-44]
 4619 01e6 2A46     		mov	r2, r5
 4620 01e8 2846     		mov	r0, r5
 4621 01ea FFF7FEFF 		bl	sp_mul
 4622 01ee 0346     		mov	r3, r0
 4623 01f0 E8B9     		cbnz	r0, .L885
 4624 01f2 5246     		mov	r2, r10
 4625 01f4 3146     		mov	r1, r6
 4626 01f6 2846     		mov	r0, r5
 4627 01f8 0293     		str	r3, [sp, #8]
 4628 01fa FFF7FEFF 		bl	_sp_mont_red
 4629 01fe 029B     		ldr	r3, [sp, #8]
 4630 0200 9946     		mov	r9, r3
 4631 0202 0346     		mov	r3, r0
 4632              	.L860:
ARM GAS  /tmp/ccN6vd78.s 			page 80


 4633 0204 08F1FF38 		add	r8, r8, #-1
 4634 0208 002B     		cmp	r3, #0
 4635 020a 3CD1     		bne	.L886
 4636 020c 039F     		ldr	r7, [sp, #12]
 4637 020e B7E7     		b	.L858
 4638              	.L863:
 4639 0210 2946     		mov	r1, r5
 4640 0212 2846     		mov	r0, r5
 4641 0214 FFF7FEFF 		bl	sp_sqr
 4642 0218 0346     		mov	r3, r0
 4643 021a 28B9     		cbnz	r0, .L862
 4644 021c 5246     		mov	r2, r10
 4645 021e 3146     		mov	r1, r6
 4646 0220 2846     		mov	r0, r5
 4647 0222 FFF7FEFF 		bl	_sp_mont_red
 4648 0226 0346     		mov	r3, r0
 4649              	.L862:
 4650 0228 013F     		subs	r7, r7, #1
 4651 022a 002B     		cmp	r3, #0
 4652 022c D3D0     		beq	.L861
 4653              	.L885:
 4654 022e 4FF00009 		mov	r9, #0
 4655 0232 E7E7     		b	.L860
 4656              	.L884:
 4657 0234 0023     		movs	r3, #0
 4658 0236 DDF80890 		ldr	r9, [sp, #8]
 4659 023a E3E7     		b	.L860
 4660              	.L868:
 4661 023c 2946     		mov	r1, r5
 4662 023e 2846     		mov	r0, r5
 4663 0240 FFF7FEFF 		bl	sp_sqr
 4664 0244 28B9     		cbnz	r0, .L867
 4665 0246 0346     		mov	r3, r0
 4666 0248 5246     		mov	r2, r10
 4667 024a 3146     		mov	r1, r6
 4668 024c 2846     		mov	r0, r5
 4669 024e FFF7FEFF 		bl	_sp_mont_red
 4670              	.L867:
 4671 0252 013F     		subs	r7, r7, #1
 4672 0254 0028     		cmp	r0, #0
 4673 0256 96D0     		beq	.L866
 4674              	.L887:
 4675 0258 0446     		mov	r4, r0
 4676 025a 9EE7     		b	.L853
 4677              	.L871:
 4678 025c 0EAB     		add	r3, sp, #56
 4679 025e 03EB8909 		add	r9, r3, r9, lsl #2
 4680 0262 18EE102A 		vmov	r2, s16	@ int
 4681 0266 2846     		mov	r0, r5
 4682 0268 59F82C1C 		ldr	r1, [r9, #-44]
 4683 026c FFF7FEFF 		bl	sp_mul
 4684 0270 0446     		mov	r4, r0
 4685 0272 0028     		cmp	r0, #0
 4686 0274 91D1     		bne	.L853
 4687 0276 0346     		mov	r3, r0
 4688 0278 5246     		mov	r2, r10
 4689 027a 3146     		mov	r1, r6
ARM GAS  /tmp/ccN6vd78.s 			page 81


 4690 027c 18EE100A 		vmov	r0, s16	@ int
 4691 0280 FFF7FEFF 		bl	_sp_mont_red
 4692 0284 E8E7     		b	.L887
 4693              	.L886:
 4694 0286 1C46     		mov	r4, r3
 4695 0288 87E7     		b	.L853
 4696              	.L883:
 4697 028a 6FF06004 		mvn	r4, #96
 4698 028e 87E7     		b	.L847
 4699              	.L881:
 4700 0290 6FF06104 		mvn	r4, #97
 4701 0294 84E7     		b	.L847
 4703              		.section	.text.sp_sqrmod,"ax",%progbits
 4704              		.align	1
 4705              		.global	sp_sqrmod
 4706              		.syntax unified
 4707              		.thumb
 4708              		.thumb_func
 4709              		.fpu fpv4-sp-d16
 4711              	sp_sqrmod:
 4712              		@ args = 0, pretend = 0, frame = 0
 4713              		@ frame_needed = 0, uses_anonymous_args = 0
 4714 0000 2DE9F041 		push	{r4, r5, r6, r7, r8, lr}
 4715 0004 0D46     		mov	r5, r1
 4716 0006 1646     		mov	r6, r2
 4717 0008 8046     		mov	r8, r0
 4718 000a 0028     		cmp	r0, #0
 4719 000c 39D0     		beq	.L914
 4720 000e C1B3     		cbz	r1, .L914
 4721 0010 BAB3     		cbz	r2, .L914
 4722 0012 0388     		ldrh	r3, [r0]
 4723 0014 9142     		cmp	r1, r2
 4724 0016 4FEA4303 		lsl	r3, r3, #1
 4725 001a 0ED0     		beq	.L905
 4726 001c 5288     		ldrh	r2, [r2, #2]
 4727 001e 9A42     		cmp	r2, r3
 4728 0020 2FDB     		blt	.L914
 4729 0022 3146     		mov	r1, r6
 4730 0024 FFF7FEFF 		bl	sp_sqr
 4731 0028 0446     		mov	r4, r0
 4732 002a 38BB     		cbnz	r0, .L903
 4733 002c 3246     		mov	r2, r6
 4734 002e 2946     		mov	r1, r5
 4735 0030 3046     		mov	r0, r6
 4736 0032 BDE8F041 		pop	{r4, r5, r6, r7, r8, lr}
 4737 0036 FFF7FEBF 		b	sp_mod
 4738              	.L905:
 4739 003a 232B     		cmp	r3, #35
 4740 003c 21DC     		bgt	.L914
 4741 003e 012B     		cmp	r3, #1
 4742 0040 CABF     		itet	gt
 4743 0042 0133     		addgt	r3, r3, #1
 4744 0044 0820     		movle	r0, #8
 4745 0046 9800     		lslgt	r0, r3, #2
 4746 0048 FFF7FEFF 		bl	wolfSSL_Malloc
 4747 004c 0746     		mov	r7, r0
 4748 004e D8B1     		cbz	r0, .L916
ARM GAS  /tmp/ccN6vd78.s 			page 82


 4749 0050 B8F80010 		ldrh	r1, [r8]
 4750 0054 4900     		lsls	r1, r1, #1
 4751 0056 FFF7FEFF 		bl	sp_init_size
 4752 005a 0446     		mov	r4, r0
 4753 005c 58B9     		cbnz	r0, .L909
 4754 005e 3946     		mov	r1, r7
 4755 0060 4046     		mov	r0, r8
 4756 0062 FFF7FEFF 		bl	sp_sqr
 4757 0066 0446     		mov	r4, r0
 4758 0068 28B9     		cbnz	r0, .L909
 4759 006a 3246     		mov	r2, r6
 4760 006c 2946     		mov	r1, r5
 4761 006e 3846     		mov	r0, r7
 4762 0070 FFF7FEFF 		bl	sp_mod
 4763 0074 0446     		mov	r4, r0
 4764              	.L909:
 4765 0076 3846     		mov	r0, r7
 4766 0078 FFF7FEFF 		bl	wolfSSL_Free
 4767              	.L903:
 4768 007c 2046     		mov	r0, r4
 4769 007e BDE8F081 		pop	{r4, r5, r6, r7, r8, pc}
 4770              	.L914:
 4771 0082 6FF06104 		mvn	r4, #97
 4772 0086 F9E7     		b	.L903
 4773              	.L916:
 4774 0088 6FF06004 		mvn	r4, #96
 4775 008c F6E7     		b	.L903
 4777              		.section	.text._sp_exptmod_ex,"ax",%progbits
 4778              		.align	1
 4779              		.syntax unified
 4780              		.thumb
 4781              		.thumb_func
 4782              		.fpu fpv4-sp-d16
 4784              	_sp_exptmod_ex:
 4785              		@ args = 4, pretend = 0, frame = 24
 4786              		@ frame_needed = 0, uses_anonymous_args = 0
 4787 0000 2DE9F04F 		push	{r4, r5, r6, r7, r8, r9, r10, fp, lr}
 4788 0004 1F46     		mov	r7, r3
 4789 0006 0023     		movs	r3, #0
 4790 0008 9346     		mov	fp, r2
 4791 000a 3A88     		ldrh	r2, [r7]
 4792 000c 87B0     		sub	sp, sp, #28
 4793 000e CDE90333 		strd	r3, r3, [sp, #12]
 4794 0012 0593     		str	r3, [sp, #20]
 4795 0014 5300     		lsls	r3, r2, #1
 4796 0016 0133     		adds	r3, r3, #1
 4797 0018 232B     		cmp	r3, #35
 4798 001a 8046     		mov	r8, r0
 4799 001c 0091     		str	r1, [sp]
 4800 001e 00F29E80 		bhi	.L930
 4801 0022 1820     		movs	r0, #24
 4802 0024 012B     		cmp	r3, #1
 4803 0026 18BF     		it	ne
 4804 0028 02FB0000 		mlane	r0, r2, r0, r0
 4805 002c FFF7FEFF 		bl	wolfSSL_Malloc
 4806 0030 0446     		mov	r4, r0
 4807 0032 0028     		cmp	r0, #0
ARM GAS  /tmp/ccN6vd78.s 			page 83


 4808 0034 00F09680 		beq	.L932
 4809 0038 3B88     		ldrh	r3, [r7]
 4810 003a 0390     		str	r0, [sp, #12]
 4811 003c 5A00     		lsls	r2, r3, #1
 4812 003e 511C     		adds	r1, r2, #1
 4813 0040 89B2     		uxth	r1, r1
 4814 0042 52B3     		cbz	r2, .L933
 4815 0044 0133     		adds	r3, r3, #1
 4816 0046 DB00     		lsls	r3, r3, #3
 4817              	.L922:
 4818 0048 0022     		movs	r2, #0
 4819 004a E618     		adds	r6, r4, r3
 4820 004c F518     		adds	r5, r6, r3
 4821 004e 6180     		strh	r1, [r4, #2]	@ movhi
 4822 0050 2280     		strh	r2, [r4]	@ movhi
 4823 0052 6260     		str	r2, [r4, #4]
 4824 0054 4046     		mov	r0, r8
 4825 0056 E252     		strh	r2, [r4, r3]	@ movhi
 4826 0058 7180     		strh	r1, [r6, #2]	@ movhi
 4827 005a 7260     		str	r2, [r6, #4]
 4828 005c 24F81320 		strh	r2, [r4, r3, lsl #1]	@ movhi
 4829 0060 6980     		strh	r1, [r5, #2]	@ movhi
 4830 0062 6A60     		str	r2, [r5, #4]
 4831 0064 3946     		mov	r1, r7
 4832 0066 0496     		str	r6, [sp, #16]
 4833 0068 0595     		str	r5, [sp, #20]
 4834 006a FFF7FEFF 		bl	_sp_cmp_abs
 4835 006e 0130     		adds	r0, r0, #1
 4836 0070 15D0     		beq	.L923
 4837 0072 2246     		mov	r2, r4
 4838 0074 4046     		mov	r0, r8
 4839 0076 FFF7FEFF 		bl	sp_mod
 4840 007a 0346     		mov	r3, r0
 4841 007c 20B9     		cbnz	r0, .L924
 4842 007e 2288     		ldrh	r2, [r4]
 4843 0080 8AB9     		cbnz	r2, .L925
 4844 0082 109A     		ldr	r2, [sp, #64]
 4845 0084 5060     		str	r0, [r2, #4]
 4846 0086 1080     		strh	r0, [r2]	@ movhi
 4847              	.L924:
 4848 0088 2046     		mov	r0, r4
 4849 008a 0093     		str	r3, [sp]
 4850 008c FFF7FEFF 		bl	wolfSSL_Free
 4851 0090 009B     		ldr	r3, [sp]
 4852              	.L919:
 4853 0092 1846     		mov	r0, r3
 4854 0094 07B0     		add	sp, sp, #28
 4855              		@ sp needed
 4856 0096 BDE8F08F 		pop	{r4, r5, r6, r7, r8, r9, r10, fp, pc}
 4857              	.L933:
 4858 009a 0823     		movs	r3, #8
 4859 009c D4E7     		b	.L922
 4860              	.L923:
 4861 009e 2146     		mov	r1, r4
 4862 00a0 4046     		mov	r0, r8
 4863 00a2 FFF7FEFF 		bl	_sp_copy
 4864              	.L925:
ARM GAS  /tmp/ccN6vd78.s 			page 84


 4865 00a6 3146     		mov	r1, r6
 4866 00a8 2046     		mov	r0, r4
 4867 00aa FFF7FEFF 		bl	_sp_copy
 4868 00ae 4FF0000A 		mov	r10, #0
 4869 00b2 0BF1FF3B 		add	fp, fp, #-1
 4870              	.L926:
 4871 00b6 BBF1000F 		cmp	fp, #0
 4872 00ba 05DA     		bge	.L928
 4873 00bc 3046     		mov	r0, r6
 4874 00be 1099     		ldr	r1, [sp, #64]
 4875 00c0 FFF7FEFF 		bl	_sp_copy
 4876 00c4 0023     		movs	r3, #0
 4877 00c6 DFE7     		b	.L924
 4878              	.L928:
 4879 00c8 284A     		ldr	r2, .L935
 4880 00ca 8AF00103 		eor	r3, r10, #1
 4881 00ce 52F82330 		ldr	r3, [r2, r3, lsl #2]
 4882 00d2 2946     		mov	r1, r5
 4883 00d4 04EA0309 		and	r9, r4, r3
 4884 00d8 52F82A30 		ldr	r3, [r2, r10, lsl #2]
 4885 00dc 3340     		ands	r3, r3, r6
 4886 00de 9944     		add	r9, r9, r3
 4887 00e0 4846     		mov	r0, r9
 4888 00e2 FFF7FEFF 		bl	_sp_copy
 4889 00e6 2A46     		mov	r2, r5
 4890 00e8 3946     		mov	r1, r7
 4891 00ea 2846     		mov	r0, r5
 4892 00ec FFF7FEFF 		bl	sp_sqrmod
 4893 00f0 4946     		mov	r1, r9
 4894 00f2 0190     		str	r0, [sp, #4]
 4895 00f4 2846     		mov	r0, r5
 4896 00f6 FFF7FEFF 		bl	_sp_copy
 4897 00fa 019B     		ldr	r3, [sp, #4]
 4898 00fc 53BB     		cbnz	r3, .L927
 4899 00fe 009B     		ldr	r3, [sp]
 4900 0100 4FEA6B12 		asr	r2, fp, #5
 4901 0104 03EB8202 		add	r2, r3, r2, lsl #2
 4902 0108 5268     		ldr	r2, [r2, #4]
 4903 010a 0BF01F03 		and	r3, fp, #31
 4904 010e 22FA03F3 		lsr	r3, r2, r3
 4905 0112 03F00103 		and	r3, r3, #1
 4906 0116 03EA0A02 		and	r2, r3, r10
 4907 011a 1449     		ldr	r1, .L935
 4908 011c 4AEA030A 		orr	r10, r10, r3
 4909 0120 82F00103 		eor	r3, r2, #1
 4910 0124 51F82330 		ldr	r3, [r1, r3, lsl #2]
 4911 0128 04EA0309 		and	r9, r4, r3
 4912 012c 51F82230 		ldr	r3, [r1, r2, lsl #2]
 4913 0130 2946     		mov	r1, r5
 4914 0132 3340     		ands	r3, r3, r6
 4915 0134 9944     		add	r9, r9, r3
 4916 0136 4846     		mov	r0, r9
 4917 0138 FFF7FEFF 		bl	_sp_copy
 4918 013c 2B46     		mov	r3, r5
 4919 013e 3A46     		mov	r2, r7
 4920 0140 4146     		mov	r1, r8
 4921 0142 2846     		mov	r0, r5
ARM GAS  /tmp/ccN6vd78.s 			page 85


 4922 0144 FFF7FEFF 		bl	_sp_mulmod
 4923 0148 4946     		mov	r1, r9
 4924 014a 0190     		str	r0, [sp, #4]
 4925 014c 2846     		mov	r0, r5
 4926 014e FFF7FEFF 		bl	_sp_copy
 4927 0152 019B     		ldr	r3, [sp, #4]
 4928              	.L927:
 4929 0154 0BF1FF3B 		add	fp, fp, #-1
 4930 0158 002B     		cmp	r3, #0
 4931 015a ACD0     		beq	.L926
 4932 015c 94E7     		b	.L924
 4933              	.L930:
 4934 015e 6FF06103 		mvn	r3, #97
 4935 0162 96E7     		b	.L919
 4936              	.L932:
 4937 0164 6FF06003 		mvn	r3, #96
 4938 0168 93E7     		b	.L919
 4939              	.L936:
 4940 016a 00BF     		.align	2
 4941              	.L935:
 4942 016c 00000000 		.word	.LANCHOR3
 4944              		.section	.text.sp_mont_red_ex,"ax",%progbits
 4945              		.align	1
 4946              		.global	sp_mont_red_ex
 4947              		.syntax unified
 4948              		.thumb
 4949              		.thumb_func
 4950              		.fpu fpv4-sp-d16
 4952              	sp_mont_red_ex:
 4953              		@ args = 0, pretend = 0, frame = 0
 4954              		@ frame_needed = 0, uses_anonymous_args = 0
 4955              		@ link register save eliminated.
 4956 0000 30B4     		push	{r4, r5}
 4957 0002 48B1     		cbz	r0, .L937
 4958 0004 41B1     		cbz	r1, .L937
 4959 0006 0D88     		ldrh	r5, [r1]
 4960 0008 35B1     		cbz	r5, .L937
 4961 000a 4488     		ldrh	r4, [r0, #2]
 4962 000c B4EB450F 		cmp	r4, r5, lsl #1
 4963 0010 02DD     		ble	.L937
 4964 0012 30BC     		pop	{r4, r5}
 4965 0014 FFF7FEBF 		b	_sp_mont_red
 4966              	.L937:
 4967 0018 6FF06100 		mvn	r0, #97
 4968 001c 30BC     		pop	{r4, r5}
 4969 001e 7047     		bx	lr
 4971              		.section	.text.sp_mont_setup,"ax",%progbits
 4972              		.align	1
 4973              		.global	sp_mont_setup
 4974              		.syntax unified
 4975              		.thumb
 4976              		.thumb_func
 4977              		.fpu fpv4-sp-d16
 4979              	sp_mont_setup:
 4980              		@ args = 0, pretend = 0, frame = 0
 4981              		@ frame_needed = 0, uses_anonymous_args = 0
 4982 0000 08B5     		push	{r3, lr}
ARM GAS  /tmp/ccN6vd78.s 			page 86


 4983 0002 48B1     		cbz	r0, .L951
 4984 0004 41B1     		cbz	r1, .L951
 4985 0006 0388     		ldrh	r3, [r0]
 4986 0008 33B1     		cbz	r3, .L951
 4987 000a 4068     		ldr	r0, [r0, #4]
 4988 000c C307     		lsls	r3, r0, #31
 4989 000e 03D5     		bpl	.L951
 4990 0010 FFF7FEFF 		bl	_sp_mont_setup.isra.0
 4991 0014 0020     		movs	r0, #0
 4992              	.L946:
 4993 0016 08BD     		pop	{r3, pc}
 4994              	.L951:
 4995 0018 6FF06100 		mvn	r0, #97
 4996 001c FBE7     		b	.L946
 4998              		.section	.text.sp_mont_norm,"ax",%progbits
 4999              		.align	1
 5000              		.global	sp_mont_norm
 5001              		.syntax unified
 5002              		.thumb
 5003              		.thumb_func
 5004              		.fpu fpv4-sp-d16
 5006              	sp_mont_norm:
 5007              		@ args = 0, pretend = 0, frame = 0
 5008              		@ frame_needed = 0, uses_anonymous_args = 0
 5009 0000 70B5     		push	{r4, r5, r6, lr}
 5010 0002 0D46     		mov	r5, r1
 5011 0004 0446     		mov	r4, r0
 5012 0006 70B3     		cbz	r0, .L960
 5013 0008 69B3     		cbz	r1, .L960
 5014 000a 0846     		mov	r0, r1
 5015 000c FFF7FEFF 		bl	sp_count_bits
 5016 0010 6388     		ldrh	r3, [r4, #2]
 5017 0012 0646     		mov	r6, r0
 5018 0014 B0EB431F 		cmp	r0, r3, lsl #5
 5019 0018 25D2     		bcs	.L960
 5020 001a 0023     		movs	r3, #0
 5021 001c 2028     		cmp	r0, #32
 5022 001e 0146     		mov	r1, r0
 5023 0020 2380     		strh	r3, [r4]	@ movhi
 5024 0022 38BF     		it	cc
 5025 0024 2021     		movcc	r1, #32
 5026 0026 2046     		mov	r0, r4
 5027 0028 6360     		str	r3, [r4, #4]
 5028 002a FFF7FEFF 		bl	sp_set_bit
 5029 002e C8B9     		cbnz	r0, .L952
 5030 0030 2246     		mov	r2, r4
 5031 0032 2946     		mov	r1, r5
 5032 0034 2046     		mov	r0, r4
 5033 0036 FFF7FEFF 		bl	sp_sub
 5034 003a 98B9     		cbnz	r0, .L952
 5035 003c 202E     		cmp	r6, #32
 5036 003e 06D8     		bhi	.L954
 5037 0040 6368     		ldr	r3, [r4, #4]
 5038 0042 6A68     		ldr	r2, [r5, #4]
 5039 0044 B3FBF2F1 		udiv	r1, r3, r2
 5040 0048 02FB1133 		mls	r3, r2, r1, r3
 5041 004c 6360     		str	r3, [r4, #4]
ARM GAS  /tmp/ccN6vd78.s 			page 87


 5042              	.L954:
 5043 004e 2388     		ldrh	r3, [r4]
 5044 0050 43B1     		cbz	r3, .L952
 5045 0052 013B     		subs	r3, r3, #1
 5046 0054 221D     		adds	r2, r4, #4
 5047              	.L956:
 5048 0056 52F82310 		ldr	r1, [r2, r3, lsl #2]
 5049 005a 09B9     		cbnz	r1, .L955
 5050 005c 013B     		subs	r3, r3, #1
 5051 005e FAD2     		bcs	.L956
 5052              	.L955:
 5053 0060 0133     		adds	r3, r3, #1
 5054 0062 2380     		strh	r3, [r4]	@ movhi
 5055              	.L952:
 5056 0064 70BD     		pop	{r4, r5, r6, pc}
 5057              	.L960:
 5058 0066 6FF06100 		mvn	r0, #97
 5059 006a FBE7     		b	.L952
 5061              		.section	.text.sp_exptmod_ex,"ax",%progbits
 5062              		.align	1
 5063              		.global	sp_exptmod_ex
 5064              		.syntax unified
 5065              		.thumb
 5066              		.thumb_func
 5067              		.fpu fpv4-sp-d16
 5069              	sp_exptmod_ex:
 5070              		@ args = 4, pretend = 0, frame = 40
 5071              		@ frame_needed = 0, uses_anonymous_args = 0
 5072 0000 2DE9F04F 		push	{r4, r5, r6, r7, r8, r9, r10, fp, lr}
 5073 0004 8DB0     		sub	sp, sp, #52
 5074 0006 9346     		mov	fp, r2
 5075 0008 1D46     		mov	r5, r3
 5076 000a 0446     		mov	r4, r0
 5077 000c DDF85880 		ldr	r8, [sp, #88]
 5078 0010 0291     		str	r1, [sp, #8]
 5079 0012 0028     		cmp	r0, #0
 5080 0014 00F02982 		beq	.L1014
 5081 0018 0029     		cmp	r1, #0
 5082 001a 00F02682 		beq	.L1014
 5083 001e 002D     		cmp	r5, #0
 5084 0020 00F02382 		beq	.L1014
 5085 0024 B8F1000F 		cmp	r8, #0
 5086 0028 00F01F82 		beq	.L1014
 5087 002c 002A     		cmp	r2, #0
 5088 002e C0F21C82 		blt	.L1014
 5089 0032 2B88     		ldrh	r3, [r5]
 5090 0034 112B     		cmp	r3, #17
 5091 0036 00F31882 		bgt	.L1014
 5092 003a 002B     		cmp	r3, #0
 5093 003c 00F01582 		beq	.L1014
 5094 0040 012B     		cmp	r3, #1
 5095 0042 0BD1     		bne	.L964
 5096 0044 6B68     		ldr	r3, [r5, #4]
 5097 0046 012B     		cmp	r3, #1
 5098 0048 08D1     		bne	.L964
 5099              	.L968:
 5100 004a 0024     		movs	r4, #0
ARM GAS  /tmp/ccN6vd78.s 			page 88


 5101 004c C8F80440 		str	r4, [r8, #4]
 5102 0050 A8F80040 		strh	r4, [r8]	@ movhi
 5103              	.L962:
 5104 0054 2046     		mov	r0, r4
 5105 0056 0DB0     		add	sp, sp, #52
 5106              		@ sp needed
 5107 0058 BDE8F08F 		pop	{r4, r5, r6, r7, r8, r9, r10, fp, pc}
 5108              	.L964:
 5109 005c 029B     		ldr	r3, [sp, #8]
 5110 005e 1888     		ldrh	r0, [r3]
 5111 0060 30B9     		cbnz	r0, .L966
 5112 0062 0123     		movs	r3, #1
 5113 0064 0446     		mov	r4, r0
 5114 0066 C8F80430 		str	r3, [r8, #4]
 5115 006a A8F80030 		strh	r3, [r8]	@ movhi
 5116 006e F1E7     		b	.L962
 5117              	.L966:
 5118 0070 2946     		mov	r1, r5
 5119 0072 2046     		mov	r0, r4
 5120 0074 FFF7FEFF 		bl	_sp_cmp_abs
 5121 0078 0130     		adds	r0, r0, #1
 5122 007a 0ED0     		beq	.L967
 5123 007c 029B     		ldr	r3, [sp, #8]
 5124 007e 4345     		cmp	r3, r8
 5125 0080 00F0F381 		beq	.L1014
 5126 0084 4545     		cmp	r5, r8
 5127 0086 00F0F081 		beq	.L1014
 5128 008a 2046     		mov	r0, r4
 5129 008c 4246     		mov	r2, r8
 5130 008e FFF7FEFF 		bl	sp_mod
 5131 0092 0446     		mov	r4, r0
 5132 0094 0028     		cmp	r0, #0
 5133 0096 DDD1     		bne	.L962
 5134 0098 4446     		mov	r4, r8
 5135              	.L967:
 5136 009a 2388     		ldrh	r3, [r4]
 5137 009c 002B     		cmp	r3, #0
 5138 009e D4D0     		beq	.L968
 5139 00a0 2F88     		ldrh	r7, [r5]
 5140 00a2 B8F80220 		ldrh	r2, [r8, #2]
 5141 00a6 7E00     		lsls	r6, r7, #1
 5142 00a8 B2EB470F 		cmp	r2, r7, lsl #1
 5143 00ac 40F3DD81 		ble	.L1014
 5144 00b0 012B     		cmp	r3, #1
 5145 00b2 40F0D880 		bne	.L969
 5146 00b6 6368     		ldr	r3, [r4, #4]
 5147 00b8 022B     		cmp	r3, #2
 5148 00ba 40F0D480 		bne	.L969
 5149 00be 002F     		cmp	r7, #0
 5150 00c0 00F0D180 		beq	.L969
 5151 00c4 6B68     		ldr	r3, [r5, #4]
 5152 00c6 DA07     		lsls	r2, r3, #31
 5153 00c8 40F1CD80 		bpl	.L969
 5154 00cc 0023     		movs	r3, #0
 5155 00ce 0136     		adds	r6, r6, #1
 5156 00d0 232E     		cmp	r6, #35
 5157 00d2 CDE90733 		strd	r3, r3, [sp, #28]
ARM GAS  /tmp/ccN6vd78.s 			page 89


 5158 00d6 0993     		str	r3, [sp, #36]
 5159 00d8 00F2C781 		bhi	.L1014
 5160 00dc 781C     		adds	r0, r7, #1
 5161 00de 0001     		lsls	r0, r0, #4
 5162 00e0 FFF7FEFF 		bl	wolfSSL_Malloc
 5163 00e4 8146     		mov	r9, r0
 5164 00e6 0028     		cmp	r0, #0
 5165 00e8 00F0B181 		beq	.L1021
 5166 00ec 2B88     		ldrh	r3, [r5]
 5167 00ee 0890     		str	r0, [sp, #32]
 5168 00f0 5900     		lsls	r1, r3, #1
 5169 00f2 4A1C     		adds	r2, r1, #1
 5170 00f4 92B2     		uxth	r2, r2
 5171 00f6 09B3     		cbz	r1, .L1018
 5172 00f8 0133     		adds	r3, r3, #1
 5173 00fa DB00     		lsls	r3, r3, #3
 5174              	.L971:
 5175 00fc 0021     		movs	r1, #0
 5176 00fe 09EB0306 		add	r6, r9, r3
 5177 0102 012F     		cmp	r7, #1
 5178 0104 A9F80010 		strh	r1, [r9]	@ movhi
 5179 0108 C9F80410 		str	r1, [r9, #4]
 5180 010c A9F80220 		strh	r2, [r9, #2]	@ movhi
 5181 0110 0996     		str	r6, [sp, #36]
 5182 0112 29F80310 		strh	r1, [r9, r3]	@ movhi
 5183 0116 7160     		str	r1, [r6, #4]
 5184 0118 7280     		strh	r2, [r6, #2]	@ movhi
 5185 011a 11D0     		beq	.L972
 5186 011c 6868     		ldr	r0, [r5, #4]
 5187 011e 07A9     		add	r1, sp, #28
 5188 0120 FFF7FEFF 		bl	_sp_mont_setup.isra.0
 5189 0124 2946     		mov	r1, r5
 5190 0126 3046     		mov	r0, r6
 5191 0128 FFF7FEFF 		bl	sp_mont_norm
 5192 012c 0446     		mov	r4, r0
 5193 012e 0028     		cmp	r0, #0
 5194 0130 00F09E81 		beq	.L973
 5195              	.L974:
 5196 0134 4846     		mov	r0, r9
 5197              	.L1051:
 5198 0136 FFF7FEFF 		bl	wolfSSL_Free
 5199 013a 8BE7     		b	.L962
 5200              	.L1018:
 5201 013c 0823     		movs	r3, #8
 5202 013e DDE7     		b	.L971
 5203              	.L972:
 5204 0140 7760     		str	r7, [r6, #4]
 5205 0142 29F80370 		strh	r7, [r9, r3]	@ movhi
 5206              	.L1005:
 5207 0146 029B     		ldr	r3, [sp, #8]
 5208 0148 3246     		mov	r2, r6
 5209 014a 53F82BA0 		ldr	r10, [r3, fp, lsl #2]
 5210 014e 3046     		mov	r0, r6
 5211 0150 4FEA1A71 		lsr	r1, r10, #28
 5212 0154 FFF7FEFF 		bl	sp_mul_2d
 5213 0158 0446     		mov	r4, r0
 5214 015a 0028     		cmp	r0, #0
ARM GAS  /tmp/ccN6vd78.s 			page 90


 5215 015c EAD1     		bne	.L974
 5216 015e 012F     		cmp	r7, #1
 5217 0160 23D1     		bne	.L975
 5218              	.L977:
 5219 0162 ABF10203 		sub	r3, fp, #2
 5220 0166 3246     		mov	r2, r6
 5221 0168 2946     		mov	r1, r5
 5222 016a 3046     		mov	r0, r6
 5223 016c 0393     		str	r3, [sp, #12]
 5224 016e FFF7FEFF 		bl	sp_mod
 5225 0172 4FF01C0B 		mov	fp, #28
 5226 0176 0446     		mov	r4, r0
 5227 0178 4FEA0A1A 		lsl	r10, r10, #4
 5228              	.L976:
 5229 017c 002C     		cmp	r4, #0
 5230 017e D9D1     		bne	.L974
 5231 0180 039B     		ldr	r3, [sp, #12]
 5232 0182 002B     		cmp	r3, #0
 5233 0184 1ADA     		bge	.L987
 5234 0186 BBF1030F 		cmp	fp, #3
 5235 018a 40DC     		bgt	.L978
 5236 018c 012F     		cmp	r7, #1
 5237 018e 07D0     		beq	.L1004
 5238 0190 2346     		mov	r3, r4
 5239 0192 2946     		mov	r1, r5
 5240 0194 3046     		mov	r0, r6
 5241 0196 079A     		ldr	r2, [sp, #28]
 5242 0198 FFF7FEFF 		bl	_sp_mont_red
 5243 019c 0028     		cmp	r0, #0
 5244 019e 60D1     		bne	.L1019
 5245              	.L1004:
 5246 01a0 4146     		mov	r1, r8
 5247 01a2 3046     		mov	r0, r6
 5248 01a4 FFF7FEFF 		bl	_sp_copy
 5249 01a8 C4E7     		b	.L974
 5250              	.L975:
 5251 01aa 3246     		mov	r2, r6
 5252 01ac 4946     		mov	r1, r9
 5253 01ae 3046     		mov	r0, r6
 5254 01b0 FFF7FEFF 		bl	sp_add
 5255 01b4 0446     		mov	r4, r0
 5256 01b6 0028     		cmp	r0, #0
 5257 01b8 BCD1     		bne	.L974
 5258 01ba D2E7     		b	.L977
 5259              	.L987:
 5260 01bc BBF1000F 		cmp	fp, #0
 5261 01c0 25D1     		bne	.L978
 5262 01c2 DDE90232 		ldrd	r3, r2, [sp, #8]
 5263 01c6 4FF01C0B 		mov	fp, #28
 5264 01ca 03EB8203 		add	r3, r3, r2, lsl #2
 5265 01ce 5B68     		ldr	r3, [r3, #4]
 5266 01d0 1A0F     		lsrs	r2, r3, #28
 5267 01d2 4FEA031A 		lsl	r10, r3, #4
 5268 01d6 039B     		ldr	r3, [sp, #12]
 5269 01d8 0492     		str	r2, [sp, #16]
 5270 01da 013B     		subs	r3, r3, #1
 5271 01dc 0393     		str	r3, [sp, #12]
ARM GAS  /tmp/ccN6vd78.s 			page 91


 5272              	.L979:
 5273 01de 0423     		movs	r3, #4
 5274 01e0 0593     		str	r3, [sp, #20]
 5275              	.L983:
 5276 01e2 3146     		mov	r1, r6
 5277 01e4 3046     		mov	r0, r6
 5278 01e6 FFF7FEFF 		bl	sp_sqr
 5279 01ea 0446     		mov	r4, r0
 5280 01ec 40B9     		cbnz	r0, .L980
 5281 01ee 012F     		cmp	r7, #1
 5282 01f0 15D0     		beq	.L981
 5283 01f2 0346     		mov	r3, r0
 5284 01f4 2946     		mov	r1, r5
 5285 01f6 3046     		mov	r0, r6
 5286 01f8 079A     		ldr	r2, [sp, #28]
 5287 01fa FFF7FEFF 		bl	_sp_mont_red
 5288              	.L1050:
 5289 01fe 0446     		mov	r4, r0
 5290              	.L980:
 5291 0200 059B     		ldr	r3, [sp, #20]
 5292 0202 013B     		subs	r3, r3, #1
 5293 0204 0593     		str	r3, [sp, #20]
 5294 0206 10D0     		beq	.L982
 5295 0208 002C     		cmp	r4, #0
 5296 020a EAD0     		beq	.L983
 5297 020c 92E7     		b	.L974
 5298              	.L978:
 5299 020e 4FEA1A73 		lsr	r3, r10, #28
 5300 0212 0493     		str	r3, [sp, #16]
 5301 0214 4FEA0A1A 		lsl	r10, r10, #4
 5302 0218 ABF1040B 		sub	fp, fp, #4
 5303 021c DFE7     		b	.L979
 5304              	.L981:
 5305 021e 3246     		mov	r2, r6
 5306 0220 2946     		mov	r1, r5
 5307 0222 3046     		mov	r0, r6
 5308 0224 FFF7FEFF 		bl	sp_mod
 5309 0228 E9E7     		b	.L1050
 5310              	.L982:
 5311 022a 002C     		cmp	r4, #0
 5312 022c 82D1     		bne	.L974
 5313 022e 3246     		mov	r2, r6
 5314 0230 3046     		mov	r0, r6
 5315 0232 0499     		ldr	r1, [sp, #16]
 5316 0234 FFF7FEFF 		bl	sp_mul_2d
 5317 0238 0446     		mov	r4, r0
 5318 023a 0028     		cmp	r0, #0
 5319 023c 9ED1     		bne	.L976
 5320 023e 012F     		cmp	r7, #1
 5321 0240 06D1     		bne	.L985
 5322              	.L986:
 5323 0242 3246     		mov	r2, r6
 5324 0244 2946     		mov	r1, r5
 5325 0246 3046     		mov	r0, r6
 5326 0248 FFF7FEFF 		bl	sp_mod
 5327 024c 0446     		mov	r4, r0
 5328 024e 95E7     		b	.L976
ARM GAS  /tmp/ccN6vd78.s 			page 92


 5329              	.L985:
 5330 0250 3246     		mov	r2, r6
 5331 0252 4946     		mov	r1, r9
 5332 0254 3046     		mov	r0, r6
 5333 0256 FFF7FEFF 		bl	sp_add
 5334 025a 0446     		mov	r4, r0
 5335 025c 0028     		cmp	r0, #0
 5336 025e 8DD1     		bne	.L976
 5337 0260 EFE7     		b	.L986
 5338              	.L1019:
 5339 0262 0446     		mov	r4, r0
 5340 0264 66E7     		b	.L974
 5341              	.L969:
 5342 0266 012F     		cmp	r7, #1
 5343 0268 4FEA4B1B 		lsl	fp, fp, #5
 5344 026c 40F2F280 		bls	.L989
 5345 0270 6B68     		ldr	r3, [r5, #4]
 5346 0272 DB07     		lsls	r3, r3, #31
 5347 0274 40F1EE80 		bpl	.L989
 5348 0278 1022     		movs	r2, #16
 5349 027a 0021     		movs	r1, #0
 5350 027c 08A8     		add	r0, sp, #32
 5351 027e 0136     		adds	r6, r6, #1
 5352 0280 FFF7FEFF 		bl	memset
 5353 0284 232E     		cmp	r6, #35
 5354 0286 00F2F080 		bhi	.L1014
 5355 028a 781C     		adds	r0, r7, #1
 5356 028c 4001     		lsls	r0, r0, #5
 5357 028e FFF7FEFF 		bl	wolfSSL_Malloc
 5358 0292 0646     		mov	r6, r0
 5359 0294 0028     		cmp	r0, #0
 5360 0296 00F0DA80 		beq	.L1021
 5361 029a 2B88     		ldrh	r3, [r5]
 5362 029c 0890     		str	r0, [sp, #32]
 5363 029e 5A00     		lsls	r2, r3, #1
 5364 02a0 002A     		cmp	r2, #0
 5365 02a2 03F10103 		add	r3, r3, #1
 5366 02a6 4FEAC303 		lsl	r3, r3, #3
 5367 02aa 08BF     		it	eq
 5368 02ac 0823     		moveq	r3, #8
 5369 02ae 511C     		adds	r1, r2, #1
 5370 02b0 0022     		movs	r2, #0
 5371 02b2 00EB0309 		add	r9, r0, r3
 5372 02b6 09EB030A 		add	r10, r9, r3
 5373 02ba 89B2     		uxth	r1, r1
 5374 02bc 0AEB0307 		add	r7, r10, r3
 5375 02c0 4180     		strh	r1, [r0, #2]	@ movhi
 5376 02c2 0280     		strh	r2, [r0]	@ movhi
 5377 02c4 4260     		str	r2, [r0, #4]
 5378 02c6 C252     		strh	r2, [r0, r3]	@ movhi
 5379 02c8 A9F80210 		strh	r1, [r9, #2]	@ movhi
 5380 02cc C9F80420 		str	r2, [r9, #4]
 5381 02d0 20F81320 		strh	r2, [r0, r3, lsl #1]	@ movhi
 5382 02d4 AAF80210 		strh	r1, [r10, #2]	@ movhi
 5383 02d8 CAF80420 		str	r2, [r10, #4]
 5384 02dc 2046     		mov	r0, r4
 5385 02de 29F81320 		strh	r2, [r9, r3, lsl #1]	@ movhi
ARM GAS  /tmp/ccN6vd78.s 			page 93


 5386 02e2 7980     		strh	r1, [r7, #2]	@ movhi
 5387 02e4 7A60     		str	r2, [r7, #4]
 5388 02e6 2946     		mov	r1, r5
 5389 02e8 CDF82490 		str	r9, [sp, #36]
 5390 02ec CDF828A0 		str	r10, [sp, #40]
 5391 02f0 0B97     		str	r7, [sp, #44]
 5392 02f2 FFF7FEFF 		bl	_sp_cmp_abs
 5393 02f6 0130     		adds	r0, r0, #1
 5394 02f8 0DD0     		beq	.L991
 5395 02fa 2046     		mov	r0, r4
 5396 02fc 3246     		mov	r2, r6
 5397 02fe FFF7FEFF 		bl	sp_mod
 5398 0302 0446     		mov	r4, r0
 5399 0304 28B9     		cbnz	r0, .L992
 5400 0306 3388     		ldrh	r3, [r6]
 5401 0308 4BB9     		cbnz	r3, .L993
 5402 030a C8F80400 		str	r0, [r8, #4]
 5403 030e A8F80000 		strh	r0, [r8]	@ movhi
 5404              	.L992:
 5405 0312 3046     		mov	r0, r6
 5406 0314 0FE7     		b	.L1051
 5407              	.L991:
 5408 0316 3146     		mov	r1, r6
 5409 0318 2046     		mov	r0, r4
 5410 031a FFF7FEFF 		bl	_sp_copy
 5411              	.L993:
 5412 031e 6868     		ldr	r0, [r5, #4]
 5413 0320 07A9     		add	r1, sp, #28
 5414 0322 FFF7FEFF 		bl	_sp_mont_setup.isra.0
 5415 0326 2946     		mov	r1, r5
 5416 0328 4846     		mov	r0, r9
 5417 032a FFF7FEFF 		bl	sp_mont_norm
 5418 032e 0446     		mov	r4, r0
 5419 0330 C8B9     		cbnz	r0, .L994
 5420 0332 3246     		mov	r2, r6
 5421 0334 4946     		mov	r1, r9
 5422 0336 3046     		mov	r0, r6
 5423 0338 FFF7FEFF 		bl	sp_mul
 5424 033c 0446     		mov	r4, r0
 5425 033e 90B9     		cbnz	r0, .L994
 5426 0340 3388     		ldrh	r3, [r6]
 5427 0342 0246     		mov	r2, r0
 5428 0344 0133     		adds	r3, r3, #1
 5429 0346 0093     		str	r3, [sp]
 5430 0348 2946     		mov	r1, r5
 5431 034a 3346     		mov	r3, r6
 5432 034c 3046     		mov	r0, r6
 5433 034e FFF7FEFF 		bl	_sp_div
 5434 0352 0446     		mov	r4, r0
 5435 0354 38B9     		cbnz	r0, .L994
 5436 0356 4946     		mov	r1, r9
 5437 0358 3046     		mov	r0, r6
 5438 035a FFF7FEFF 		bl	_sp_copy
 5439 035e 5146     		mov	r1, r10
 5440 0360 3046     		mov	r0, r6
 5441 0362 FFF7FEFF 		bl	_sp_copy
 5442              	.L994:
ARM GAS  /tmp/ccN6vd78.s 			page 94


 5443 0366 0BF1FF33 		add	r3, fp, #-1
 5444 036a 0493     		str	r3, [sp, #16]
 5445 036c 0023     		movs	r3, #0
 5446 036e 0393     		str	r3, [sp, #12]
 5447              	.L995:
 5448 0370 002C     		cmp	r4, #0
 5449 0372 CED1     		bne	.L992
 5450 0374 049B     		ldr	r3, [sp, #16]
 5451 0376 0133     		adds	r3, r3, #1
 5452 0378 0DD1     		bne	.L1000
 5453 037a 2346     		mov	r3, r4
 5454 037c 2946     		mov	r1, r5
 5455 037e 4846     		mov	r0, r9
 5456 0380 079A     		ldr	r2, [sp, #28]
 5457 0382 FFF7FEFF 		bl	_sp_mont_red
 5458 0386 0446     		mov	r4, r0
 5459 0388 0028     		cmp	r0, #0
 5460 038a C2D1     		bne	.L992
 5461 038c 4146     		mov	r1, r8
 5462 038e 4846     		mov	r0, r9
 5463 0390 FFF7FEFF 		bl	_sp_copy
 5464 0394 BDE7     		b	.L992
 5465              	.L1000:
 5466 0396 039B     		ldr	r3, [sp, #12]
 5467 0398 3A4A     		ldr	r2, .L1052
 5468 039a 83F00103 		eor	r3, r3, #1
 5469 039e 52F82330 		ldr	r3, [r2, r3, lsl #2]
 5470 03a2 3946     		mov	r1, r7
 5471 03a4 06EA030B 		and	fp, r6, r3
 5472 03a8 039B     		ldr	r3, [sp, #12]
 5473 03aa 52F82330 		ldr	r3, [r2, r3, lsl #2]
 5474 03ae 09EA0303 		and	r3, r9, r3
 5475 03b2 9B44     		add	fp, fp, r3
 5476 03b4 5846     		mov	r0, fp
 5477 03b6 FFF7FEFF 		bl	_sp_copy
 5478 03ba 3946     		mov	r1, r7
 5479 03bc 3846     		mov	r0, r7
 5480 03be FFF7FEFF 		bl	sp_sqr
 5481 03c2 0446     		mov	r4, r0
 5482 03c4 30B9     		cbnz	r0, .L996
 5483 03c6 0346     		mov	r3, r0
 5484 03c8 2946     		mov	r1, r5
 5485 03ca 3846     		mov	r0, r7
 5486 03cc 079A     		ldr	r2, [sp, #28]
 5487 03ce FFF7FEFF 		bl	_sp_mont_red
 5488 03d2 0446     		mov	r4, r0
 5489              	.L996:
 5490 03d4 5946     		mov	r1, fp
 5491 03d6 3846     		mov	r0, r7
 5492 03d8 FFF7FEFF 		bl	_sp_copy
 5493 03dc 9CBB     		cbnz	r4, .L997
 5494 03de 049B     		ldr	r3, [sp, #16]
 5495 03e0 0399     		ldr	r1, [sp, #12]
 5496 03e2 5A11     		asrs	r2, r3, #5
 5497 03e4 029B     		ldr	r3, [sp, #8]
 5498 03e6 03EB8202 		add	r2, r3, r2, lsl #2
 5499 03ea 049B     		ldr	r3, [sp, #16]
ARM GAS  /tmp/ccN6vd78.s 			page 95


 5500 03ec 5268     		ldr	r2, [r2, #4]
 5501 03ee 03F01F03 		and	r3, r3, #31
 5502 03f2 22FA03F3 		lsr	r3, r2, r3
 5503 03f6 039A     		ldr	r2, [sp, #12]
 5504 03f8 03F00103 		and	r3, r3, #1
 5505 03fc 1A40     		ands	r2, r2, r3
 5506 03fe 0B43     		orrs	r3, r3, r1
 5507 0400 2049     		ldr	r1, .L1052
 5508 0402 0393     		str	r3, [sp, #12]
 5509 0404 82F00103 		eor	r3, r2, #1
 5510 0408 51F82330 		ldr	r3, [r1, r3, lsl #2]
 5511 040c 06EA030B 		and	fp, r6, r3
 5512 0410 51F82230 		ldr	r3, [r1, r2, lsl #2]
 5513 0414 3946     		mov	r1, r7
 5514 0416 09EA0303 		and	r3, r9, r3
 5515 041a 9B44     		add	fp, fp, r3
 5516 041c 5846     		mov	r0, fp
 5517 041e FFF7FEFF 		bl	_sp_copy
 5518 0422 3A46     		mov	r2, r7
 5519 0424 5146     		mov	r1, r10
 5520 0426 3846     		mov	r0, r7
 5521 0428 FFF7FEFF 		bl	sp_mul
 5522 042c 0446     		mov	r4, r0
 5523 042e 30B9     		cbnz	r0, .L998
 5524 0430 0346     		mov	r3, r0
 5525 0432 2946     		mov	r1, r5
 5526 0434 3846     		mov	r0, r7
 5527 0436 079A     		ldr	r2, [sp, #28]
 5528 0438 FFF7FEFF 		bl	_sp_mont_red
 5529 043c 0446     		mov	r4, r0
 5530              	.L998:
 5531 043e 5946     		mov	r1, fp
 5532 0440 3846     		mov	r0, r7
 5533 0442 FFF7FEFF 		bl	_sp_copy
 5534              	.L997:
 5535 0446 049B     		ldr	r3, [sp, #16]
 5536 0448 013B     		subs	r3, r3, #1
 5537 044a 0493     		str	r3, [sp, #16]
 5538 044c 90E7     		b	.L995
 5539              	.L1021:
 5540 044e 6FF06004 		mvn	r4, #96
 5541 0452 FFE5     		b	.L962
 5542              	.L989:
 5543 0454 2B46     		mov	r3, r5
 5544 0456 5A46     		mov	r2, fp
 5545 0458 2046     		mov	r0, r4
 5546 045a 0299     		ldr	r1, [sp, #8]
 5547 045c CDF85880 		str	r8, [sp, #88]
 5548 0460 0DB0     		add	sp, sp, #52
 5549              		@ sp needed
 5550 0462 BDE8F04F 		pop	{r4, r5, r6, r7, r8, r9, r10, fp, lr}
 5551 0466 FFF7FEBF 		b	_sp_exptmod_ex
 5552              	.L1014:
 5553 046a 6FF06104 		mvn	r4, #97
 5554 046e F1E5     		b	.L962
 5555              	.L973:
 5556 0470 4A46     		mov	r2, r9
ARM GAS  /tmp/ccN6vd78.s 			page 96


 5557 0472 1021     		movs	r1, #16
 5558 0474 2846     		mov	r0, r5
 5559 0476 FFF7FEFF 		bl	sp_mul_2d
 5560 047a 0446     		mov	r4, r0
 5561 047c 0028     		cmp	r0, #0
 5562 047e 7FF459AE 		bne	.L974
 5563 0482 60E6     		b	.L1005
 5564              	.L1053:
 5565              		.align	2
 5566              	.L1052:
 5567 0484 00000000 		.word	.LANCHOR3
 5569              		.section	.text.sp_exptmod,"ax",%progbits
 5570              		.align	1
 5571              		.global	sp_exptmod
 5572              		.syntax unified
 5573              		.thumb
 5574              		.thumb_func
 5575              		.fpu fpv4-sp-d16
 5577              	sp_exptmod:
 5578              		@ args = 0, pretend = 0, frame = 0
 5579              		@ frame_needed = 0, uses_anonymous_args = 0
 5580 0000 13B5     		push	{r0, r1, r4, lr}
 5581 0002 48B1     		cbz	r0, .L1059
 5582 0004 41B1     		cbz	r1, .L1059
 5583 0006 3AB1     		cbz	r2, .L1059
 5584 0008 33B1     		cbz	r3, .L1059
 5585 000a 0093     		str	r3, [sp]
 5586 000c 1346     		mov	r3, r2
 5587 000e 0A88     		ldrh	r2, [r1]
 5588 0010 FFF7FEFF 		bl	sp_exptmod_ex
 5589              	.L1054:
 5590 0014 02B0     		add	sp, sp, #8
 5591              		@ sp needed
 5592 0016 10BD     		pop	{r4, pc}
 5593              	.L1059:
 5594 0018 6FF06100 		mvn	r0, #97
 5595 001c FAE7     		b	.L1054
 5597              		.section	.text.sp_prime_miller_rabin,"ax",%progbits
 5598              		.align	1
 5599              		.syntax unified
 5600              		.thumb
 5601              		.thumb_func
 5602              		.fpu fpv4-sp-d16
 5604              	sp_prime_miller_rabin:
 5605              		@ args = 4, pretend = 0, frame = 0
 5606              		@ frame_needed = 0, uses_anonymous_args = 0
 5607 0000 2DE9F047 		push	{r4, r5, r6, r7, r8, r9, r10, lr}
 5608 0004 0D46     		mov	r5, r1
 5609 0006 4FF00008 		mov	r8, #0
 5610 000a 0121     		movs	r1, #1
 5611 000c 8246     		mov	r10, r0
 5612 000e C2F80080 		str	r8, [r2]
 5613 0012 2846     		mov	r0, r5
 5614 0014 1E46     		mov	r6, r3
 5615 0016 FFF7FEFF 		bl	sp_cmp_d
 5616 001a 8842     		cmp	r0, r1
 5617 001c 1746     		mov	r7, r2
ARM GAS  /tmp/ccN6vd78.s 			page 97


 5618 001e 8146     		mov	r9, r0
 5619 0020 089C     		ldr	r4, [sp, #32]
 5620 0022 6DD1     		bne	.L1072
 5621 0024 3146     		mov	r1, r6
 5622 0026 5046     		mov	r0, r10
 5623 0028 FFF7FEFF 		bl	sp_copy
 5624 002c 7368     		ldr	r3, [r6, #4]
 5625 002e 3288     		ldrh	r2, [r6]
 5626 0030 013B     		subs	r3, r3, #1
 5627 0032 7360     		str	r3, [r6, #4]
 5628 0034 DAB3     		cbz	r2, .L1073
 5629 0036 4346     		mov	r3, r8
 5630 0038 311D     		adds	r1, r6, #4
 5631              	.L1063:
 5632 003a 51F8040B 		ldr	r0, [r1], #4
 5633 003e 4FEA4318 		lsl	r8, r3, #5
 5634 0042 20B9     		cbnz	r0, .L1064
 5635 0044 0133     		adds	r3, r3, #1
 5636 0046 9342     		cmp	r3, r2
 5637 0048 08F12008 		add	r8, r8, #32
 5638 004c F5D3     		bcc	.L1063
 5639              	.L1064:
 5640 004e 06EB8303 		add	r3, r6, r3, lsl #2
 5641 0052 5968     		ldr	r1, [r3, #4]
 5642 0054 0023     		movs	r3, #0
 5643 0056 2C48     		ldr	r0, .L1085
 5644              	.L1067:
 5645 0058 21FA03F2 		lsr	r2, r1, r3
 5646 005c 02F00F02 		and	r2, r2, #15
 5647 0060 50F82220 		ldr	r2, [r0, r2, lsl #2]
 5648 0064 042A     		cmp	r2, #4
 5649 0066 1ED0     		beq	.L1066
 5650 0068 9844     		add	r8, r8, r3
 5651 006a 9044     		add	r8, r8, r2
 5652              	.L1062:
 5653 006c 2246     		mov	r2, r4
 5654 006e 4146     		mov	r1, r8
 5655 0070 3046     		mov	r0, r6
 5656 0072 FFF7FEFF 		bl	sp_rshb
 5657 0076 2146     		mov	r1, r4
 5658 0078 2B46     		mov	r3, r5
 5659 007a 5246     		mov	r2, r10
 5660 007c 2846     		mov	r0, r5
 5661 007e FFF7FEFF 		bl	sp_exptmod
 5662 0082 0446     		mov	r4, r0
 5663 0084 60B9     		cbnz	r0, .L1060
 5664 0086 0121     		movs	r1, #1
 5665 0088 2846     		mov	r0, r5
 5666 008a 3960     		str	r1, [r7]
 5667 008c FFF7FEFF 		bl	sp_cmp_d
 5668 0090 0446     		mov	r4, r0
 5669 0092 28B1     		cbz	r0, .L1060
 5670 0094 3146     		mov	r1, r6
 5671 0096 2846     		mov	r0, r5
 5672 0098 FFF7FEFF 		bl	_sp_cmp_abs
 5673 009c 0446     		mov	r4, r0
 5674 009e 50B9     		cbnz	r0, .L1068
ARM GAS  /tmp/ccN6vd78.s 			page 98


 5675              	.L1060:
 5676 00a0 2046     		mov	r0, r4
 5677 00a2 BDE8F087 		pop	{r4, r5, r6, r7, r8, r9, r10, pc}
 5678              	.L1066:
 5679 00a6 0433     		adds	r3, r3, #4
 5680 00a8 202B     		cmp	r3, #32
 5681 00aa D5D1     		bne	.L1067
 5682 00ac DEE7     		b	.L1062
 5683              	.L1073:
 5684 00ae 9046     		mov	r8, r2
 5685 00b0 DCE7     		b	.L1062
 5686              	.L1070:
 5687 00b2 09F10109 		add	r9, r9, #1
 5688              	.L1068:
 5689 00b6 C145     		cmp	r9, r8
 5690 00b8 20DA     		bge	.L1075
 5691 00ba 3146     		mov	r1, r6
 5692 00bc 2846     		mov	r0, r5
 5693 00be FFF7FEFF 		bl	_sp_cmp_abs
 5694 00c2 0446     		mov	r4, r0
 5695 00c4 70B1     		cbz	r0, .L1069
 5696 00c6 2A46     		mov	r2, r5
 5697 00c8 5146     		mov	r1, r10
 5698 00ca 2846     		mov	r0, r5
 5699 00cc FFF7FEFF 		bl	sp_sqrmod
 5700 00d0 0446     		mov	r4, r0
 5701 00d2 38B9     		cbnz	r0, .L1069
 5702 00d4 0121     		movs	r1, #1
 5703 00d6 2846     		mov	r0, r5
 5704 00d8 FFF7FEFF 		bl	sp_cmp_d
 5705 00dc 0446     		mov	r4, r0
 5706 00de 0028     		cmp	r0, #0
 5707 00e0 E7D1     		bne	.L1070
 5708 00e2 3860     		str	r0, [r7]
 5709              	.L1069:
 5710 00e4 3B68     		ldr	r3, [r7]
 5711 00e6 012B     		cmp	r3, #1
 5712 00e8 DAD1     		bne	.L1060
 5713 00ea 3146     		mov	r1, r6
 5714 00ec 2846     		mov	r0, r5
 5715 00ee FFF7FEFF 		bl	_sp_cmp_abs
 5716 00f2 0028     		cmp	r0, #0
 5717 00f4 D4D0     		beq	.L1060
 5718 00f6 0023     		movs	r3, #0
 5719 00f8 3B60     		str	r3, [r7]
 5720 00fa D1E7     		b	.L1060
 5721              	.L1075:
 5722 00fc 0024     		movs	r4, #0
 5723 00fe F1E7     		b	.L1069
 5724              	.L1072:
 5725 0100 6FF06104 		mvn	r4, #97
 5726 0104 CCE7     		b	.L1060
 5727              	.L1086:
 5728 0106 00BF     		.align	2
 5729              	.L1085:
 5730 0108 00000000 		.word	.LANCHOR4
 5732              		.section	.text.sp_exptmod_nct,"ax",%progbits
ARM GAS  /tmp/ccN6vd78.s 			page 99


 5733              		.align	1
 5734              		.global	sp_exptmod_nct
 5735              		.syntax unified
 5736              		.thumb
 5737              		.thumb_func
 5738              		.fpu fpv4-sp-d16
 5740              	sp_exptmod_nct:
 5741              		@ args = 0, pretend = 0, frame = 168
 5742              		@ frame_needed = 0, uses_anonymous_args = 0
 5743 0000 2DE9F04F 		push	{r4, r5, r6, r7, r8, r9, r10, fp, lr}
 5744 0004 ADB0     		sub	sp, sp, #180
 5745 0006 1646     		mov	r6, r2
 5746 0008 0446     		mov	r4, r0
 5747 000a 0391     		str	r1, [sp, #12]
 5748 000c 0493     		str	r3, [sp, #16]
 5749 000e 0028     		cmp	r0, #0
 5750 0010 00F02482 		beq	.L1146
 5751 0014 0029     		cmp	r1, #0
 5752 0016 00F02182 		beq	.L1146
 5753 001a 002A     		cmp	r2, #0
 5754 001c 00F01E82 		beq	.L1146
 5755 0020 049B     		ldr	r3, [sp, #16]
 5756 0022 002B     		cmp	r3, #0
 5757 0024 00F01A82 		beq	.L1146
 5758 0028 1588     		ldrh	r5, [r2]
 5759 002a 002D     		cmp	r5, #0
 5760 002c 00F01682 		beq	.L1146
 5761 0030 012D     		cmp	r5, #1
 5762 0032 0AD1     		bne	.L1089
 5763 0034 5368     		ldr	r3, [r2, #4]
 5764 0036 012B     		cmp	r3, #1
 5765 0038 07D1     		bne	.L1089
 5766              	.L1091:
 5767 003a 0022     		movs	r2, #0
 5768 003c 049B     		ldr	r3, [sp, #16]
 5769 003e 5A60     		str	r2, [r3, #4]
 5770 0040 1A80     		strh	r2, [r3]	@ movhi
 5771              	.L1087:
 5772 0042 1046     		mov	r0, r2
 5773 0044 2DB0     		add	sp, sp, #180
 5774              		@ sp needed
 5775 0046 BDE8F08F 		pop	{r4, r5, r6, r7, r8, r9, r10, fp, pc}
 5776              	.L1089:
 5777 004a 039B     		ldr	r3, [sp, #12]
 5778 004c 1A88     		ldrh	r2, [r3]
 5779 004e 22B9     		cbnz	r2, .L1090
 5780 0050 0123     		movs	r3, #1
 5781 0052 0499     		ldr	r1, [sp, #16]
 5782 0054 4B60     		str	r3, [r1, #4]
 5783 0056 0B80     		strh	r3, [r1]	@ movhi
 5784 0058 F3E7     		b	.L1087
 5785              	.L1090:
 5786 005a 2388     		ldrh	r3, [r4]
 5787 005c 002B     		cmp	r3, #0
 5788 005e ECD0     		beq	.L1091
 5789 0060 049B     		ldr	r3, [sp, #16]
 5790 0062 6F00     		lsls	r7, r5, #1
ARM GAS  /tmp/ccN6vd78.s 			page 100


 5791 0064 5B88     		ldrh	r3, [r3, #2]
 5792 0066 B3EB450F 		cmp	r3, r5, lsl #1
 5793 006a 40F3F781 		ble	.L1146
 5794 006e 7368     		ldr	r3, [r6, #4]
 5795 0070 D907     		lsls	r1, r3, #31
 5796 0072 09D4     		bmi	.L1092
 5797 0074 049B     		ldr	r3, [sp, #16]
 5798 0076 5201     		lsls	r2, r2, #5
 5799 0078 0093     		str	r3, [sp]
 5800 007a 2046     		mov	r0, r4
 5801 007c 3346     		mov	r3, r6
 5802 007e 0399     		ldr	r1, [sp, #12]
 5803 0080 FFF7FEFF 		bl	_sp_exptmod_ex
 5804 0084 0246     		mov	r2, r0
 5805 0086 DCE7     		b	.L1087
 5806              	.L1092:
 5807 0088 8822     		movs	r2, #136
 5808 008a 0021     		movs	r1, #0
 5809 008c 0AA8     		add	r0, sp, #40
 5810 008e FFF7FEFF 		bl	memset
 5811 0092 0398     		ldr	r0, [sp, #12]
 5812 0094 FFF7FEFF 		bl	sp_count_bits
 5813 0098 B0F5E17F 		cmp	r0, #450
 5814 009c 0590     		str	r0, [sp, #20]
 5815 009e 6BDC     		bgt	.L1147
 5816 00a0 1528     		cmp	r0, #21
 5817 00a2 6CDD     		ble	.L1148
 5818 00a4 2428     		cmp	r0, #36
 5819 00a6 6DDD     		ble	.L1149
 5820 00a8 8D28     		cmp	r0, #141
 5821 00aa B4BF     		ite	lt
 5822 00ac 4FF0040B 		movlt	fp, #4
 5823 00b0 4FF0050B 		movge	fp, #5
 5824              	.L1093:
 5825 00b4 0137     		adds	r7, r7, #1
 5826 00b6 232F     		cmp	r7, #35
 5827 00b8 00F2D081 		bhi	.L1146
 5828 00bc 0127     		movs	r7, #1
 5829 00be 0BF1FF39 		add	r9, fp, #-1
 5830 00c2 07FA09F9 		lsl	r9, r7, r9
 5831 00c6 09F10208 		add	r8, r9, #2
 5832 00ca 05FB0880 		mla	r0, r5, r8, r8
 5833 00ce C000     		lsls	r0, r0, #3
 5834 00d0 FFF7FEFF 		bl	wolfSSL_Malloc
 5835 00d4 8246     		mov	r10, r0
 5836 00d6 0028     		cmp	r0, #0
 5837 00d8 00F0BD81 		beq	.L1152
 5838 00dc 3388     		ldrh	r3, [r6]
 5839 00de 0A90     		str	r0, [sp, #40]
 5840 00e0 03FA07F1 		lsl	r1, r3, r7
 5841 00e4 CA19     		adds	r2, r1, r7
 5842 00e6 0029     		cmp	r1, #0
 5843 00e8 92B2     		uxth	r2, r2
 5844 00ea 0AA9     		add	r1, sp, #40
 5845 00ec 3B44     		add	r3, r3, r7
 5846 00ee 4280     		strh	r2, [r0, #2]	@ movhi
 5847 00f0 4FEAC303 		lsl	r3, r3, #3
ARM GAS  /tmp/ccN6vd78.s 			page 101


 5848 00f4 0846     		mov	r0, r1
 5849 00f6 08BF     		it	eq
 5850 00f8 0823     		moveq	r3, #8
 5851 00fa 0691     		str	r1, [sp, #24]
 5852              	.L1095:
 5853 00fc 0168     		ldr	r1, [r0]
 5854 00fe 0137     		adds	r7, r7, #1
 5855 0100 1944     		add	r1, r1, r3
 5856 0102 4745     		cmp	r7, r8
 5857 0104 40F8041F 		str	r1, [r0, #4]!
 5858 0108 4A80     		strh	r2, [r1, #2]	@ movhi
 5859 010a F7DB     		blt	.L1095
 5860 010c 0021     		movs	r1, #0
 5861 010e 2CAB     		add	r3, sp, #176
 5862 0110 03EB8903 		add	r3, r3, r9, lsl #2
 5863 0114 53F8887C 		ldr	r7, [r3, #-136]
 5864 0118 2CAB     		add	r3, sp, #176
 5865 011a 03EB8903 		add	r3, r3, r9, lsl #2
 5866 011e 53F8848C 		ldr	r8, [r3, #-132]
 5867 0122 0B46     		mov	r3, r1
 5868 0124 069D     		ldr	r5, [sp, #24]
 5869              	.L1096:
 5870 0126 55F8040B 		ldr	r0, [r5], #4
 5871 012a 0131     		adds	r1, r1, #1
 5872 012c 8945     		cmp	r9, r1
 5873 012e 0380     		strh	r3, [r0]	@ movhi
 5874 0130 4360     		str	r3, [r0, #4]
 5875 0132 4280     		strh	r2, [r0, #2]	@ movhi
 5876 0134 F7D1     		bne	.L1096
 5877 0136 3B80     		strh	r3, [r7]	@ movhi
 5878 0138 7B60     		str	r3, [r7, #4]
 5879 013a 7A80     		strh	r2, [r7, #2]	@ movhi
 5880 013c 3146     		mov	r1, r6
 5881 013e 2046     		mov	r0, r4
 5882 0140 A8F80030 		strh	r3, [r8]	@ movhi
 5883 0144 C8F80430 		str	r3, [r8, #4]
 5884 0148 A8F80220 		strh	r2, [r8, #2]	@ movhi
 5885 014c FFF7FEFF 		bl	_sp_cmp_abs
 5886 0150 0130     		adds	r0, r0, #1
 5887 0152 1AD0     		beq	.L1097
 5888 0154 4246     		mov	r2, r8
 5889 0156 2046     		mov	r0, r4
 5890 0158 FFF7FEFF 		bl	sp_mod
 5891 015c 0246     		mov	r2, r0
 5892 015e 28B9     		cbnz	r0, .L1100
 5893 0160 B8F80030 		ldrh	r3, [r8]
 5894 0164 ABB9     		cbnz	r3, .L1099
 5895 0166 049B     		ldr	r3, [sp, #16]
 5896 0168 5860     		str	r0, [r3, #4]
 5897 016a 1880     		strh	r0, [r3]	@ movhi
 5898              	.L1100:
 5899 016c 5046     		mov	r0, r10
 5900 016e 0392     		str	r2, [sp, #12]
 5901 0170 FFF7FEFF 		bl	wolfSSL_Free
 5902 0174 039A     		ldr	r2, [sp, #12]
 5903 0176 64E7     		b	.L1087
 5904              	.L1147:
ARM GAS  /tmp/ccN6vd78.s 			page 102


 5905 0178 4FF0060B 		mov	fp, #6
 5906 017c 9AE7     		b	.L1093
 5907              	.L1148:
 5908 017e 4FF0020B 		mov	fp, #2
 5909 0182 97E7     		b	.L1093
 5910              	.L1149:
 5911 0184 4FF0030B 		mov	fp, #3
 5912 0188 94E7     		b	.L1093
 5913              	.L1097:
 5914 018a 4146     		mov	r1, r8
 5915 018c 2046     		mov	r0, r4
 5916 018e FFF7FEFF 		bl	_sp_copy
 5917              	.L1099:
 5918 0192 7068     		ldr	r0, [r6, #4]
 5919 0194 09A9     		add	r1, sp, #36
 5920 0196 FFF7FEFF 		bl	_sp_mont_setup.isra.0
 5921 019a 3146     		mov	r1, r6
 5922 019c 5046     		mov	r0, r10
 5923 019e FFF7FEFF 		bl	sp_mont_norm
 5924 01a2 0246     		mov	r2, r0
 5925 01a4 0028     		cmp	r0, #0
 5926 01a6 E1D1     		bne	.L1100
 5927 01a8 4246     		mov	r2, r8
 5928 01aa 5146     		mov	r1, r10
 5929 01ac 4046     		mov	r0, r8
 5930 01ae FFF7FEFF 		bl	sp_mul
 5931 01b2 0246     		mov	r2, r0
 5932 01b4 0028     		cmp	r0, #0
 5933 01b6 D9D1     		bne	.L1100
 5934 01b8 B8F80030 		ldrh	r3, [r8]
 5935 01bc 3146     		mov	r1, r6
 5936 01be 0133     		adds	r3, r3, #1
 5937 01c0 0093     		str	r3, [sp]
 5938 01c2 4046     		mov	r0, r8
 5939 01c4 4346     		mov	r3, r8
 5940 01c6 FFF7FEFF 		bl	_sp_div
 5941 01ca 0246     		mov	r2, r0
 5942 01cc 0028     		cmp	r0, #0
 5943 01ce CDD1     		bne	.L1100
 5944 01d0 0124     		movs	r4, #1
 5945 01d2 0790     		str	r0, [sp, #28]
 5946 01d4 5146     		mov	r1, r10
 5947 01d6 4046     		mov	r0, r8
 5948 01d8 FFF7FEFF 		bl	_sp_copy
 5949 01dc 079A     		ldr	r2, [sp, #28]
 5950              	.L1102:
 5951 01de 002A     		cmp	r2, #0
 5952 01e0 C4D1     		bne	.L1100
 5953 01e2 5146     		mov	r1, r10
 5954 01e4 5046     		mov	r0, r10
 5955 01e6 FFF7FEFF 		bl	sp_sqr
 5956 01ea 0246     		mov	r2, r0
 5957 01ec 30B9     		cbnz	r0, .L1103
 5958 01ee 0346     		mov	r3, r0
 5959 01f0 099A     		ldr	r2, [sp, #36]
 5960 01f2 3146     		mov	r1, r6
 5961 01f4 5046     		mov	r0, r10
ARM GAS  /tmp/ccN6vd78.s 			page 103


 5962 01f6 FFF7FEFF 		bl	_sp_mont_red
 5963 01fa 0246     		mov	r2, r0
 5964              	.L1103:
 5965 01fc 0134     		adds	r4, r4, #1
 5966 01fe A345     		cmp	fp, r4
 5967 0200 EDD1     		bne	.L1102
 5968 0202 0124     		movs	r4, #1
 5969              	.L1104:
 5970 0204 002A     		cmp	r2, #0
 5971 0206 B1D1     		bne	.L1100
 5972 0208 069B     		ldr	r3, [sp, #24]
 5973 020a 4146     		mov	r1, r8
 5974 020c 1868     		ldr	r0, [r3]
 5975 020e 53F8045F 		ldr	r5, [r3, #4]!
 5976 0212 2A46     		mov	r2, r5
 5977 0214 0693     		str	r3, [sp, #24]
 5978 0216 FFF7FEFF 		bl	sp_mul
 5979 021a 0246     		mov	r2, r0
 5980 021c 30B9     		cbnz	r0, .L1107
 5981 021e 0346     		mov	r3, r0
 5982 0220 099A     		ldr	r2, [sp, #36]
 5983 0222 3146     		mov	r1, r6
 5984 0224 2846     		mov	r0, r5
 5985 0226 FFF7FEFF 		bl	_sp_mont_red
 5986 022a 0246     		mov	r2, r0
 5987              	.L1107:
 5988 022c 0134     		adds	r4, r4, #1
 5989 022e A145     		cmp	r9, r4
 5990 0230 E8D1     		bne	.L1104
 5991 0232 002A     		cmp	r2, #0
 5992 0234 9AD1     		bne	.L1100
 5993 0236 09F1FF33 		add	r3, r9, #-1
 5994 023a 0793     		str	r3, [sp, #28]
 5995 023c 059B     		ldr	r3, [sp, #20]
 5996 023e 591E     		subs	r1, r3, #1
 5997 0240 039B     		ldr	r3, [sp, #12]
 5998 0242 4911     		asrs	r1, r1, #5
 5999 0244 03EB8103 		add	r3, r3, r1, lsl #2
 6000 0248 5D68     		ldr	r5, [r3, #4]
 6001 024a 059B     		ldr	r3, [sp, #20]
 6002 024c 01F1FF39 		add	r9, r1, #-1
 6003 0250 13F01F04 		ands	r4, r3, #31
 6004 0254 00F08780 		beq	.L1154
 6005 0258 5B42     		rsbs	r3, r3, #0
 6006 025a 03F01F03 		and	r3, r3, #31
 6007 025e 58BF     		it	pl
 6008 0260 5C42     		rsbpl	r4, r3, #0
 6009              	.L1112:
 6010 0262 C4F12003 		rsb	r3, r4, #32
 6011 0266 9D40     		lsls	r5, r5, r3
 6012 0268 059B     		ldr	r3, [sp, #20]
 6013 026a 5B45     		cmp	r3, fp
 6014 026c C0F28280 		blt	.L1113
 6015 0270 0798     		ldr	r0, [sp, #28]
 6016 0272 CBF12003 		rsb	r3, fp, #32
 6017 0276 25FA03F3 		lsr	r3, r5, r3
 6018 027a A345     		cmp	fp, r4
ARM GAS  /tmp/ccN6vd78.s 			page 104


 6019 027c 03EA0003 		and	r3, r3, r0
 6020 0280 73DD     		ble	.L1114
 6021 0282 0398     		ldr	r0, [sp, #12]
 6022 0284 A1F10209 		sub	r9, r1, #2
 6023 0288 50F82150 		ldr	r5, [r0, r1, lsl #2]
 6024 028c ABEB0401 		sub	r1, fp, r4
 6025 0290 C1F12004 		rsb	r4, r1, #32
 6026 0294 25FA04F0 		lsr	r0, r5, r4
 6027 0298 0343     		orrs	r3, r3, r0
 6028 029a 8D40     		lsls	r5, r5, r1
 6029              	.L1115:
 6030 029c 0592     		str	r2, [sp, #20]
 6031 029e 2CAA     		add	r2, sp, #176
 6032 02a0 02EB8303 		add	r3, r2, r3, lsl #2
 6033 02a4 3946     		mov	r1, r7
 6034 02a6 53F8880C 		ldr	r0, [r3, #-136]
 6035 02aa FFF7FEFF 		bl	_sp_copy
 6036 02ae 059A     		ldr	r2, [sp, #20]
 6037              	.L1117:
 6038 02b0 CBF12003 		rsb	r3, fp, #32
 6039 02b4 0593     		str	r3, [sp, #20]
 6040              	.L1116:
 6041 02b6 002A     		cmp	r2, #0
 6042 02b8 7FF458AF 		bne	.L1100
 6043 02bc B9F1000F 		cmp	r9, #0
 6044 02c0 01DA     		bge	.L1163
 6045 02c2 A345     		cmp	fp, r4
 6046 02c4 1EDC     		bgt	.L1128
 6047              	.L1163:
 6048 02c6 34B9     		cbnz	r4, .L1118
 6049 02c8 2024     		movs	r4, #32
 6050 02ca 039B     		ldr	r3, [sp, #12]
 6051 02cc 03EB8903 		add	r3, r3, r9, lsl #2
 6052 02d0 5D68     		ldr	r5, [r3, #4]
 6053 02d2 09F1FF39 		add	r9, r9, #-1
 6054              	.L1118:
 6055 02d6 002D     		cmp	r5, #0
 6056 02d8 52DB     		blt	.L1119
 6057 02da B9F1000F 		cmp	r9, #0
 6058 02de 02F10102 		add	r2, r2, #1
 6059 02e2 4FEA4505 		lsl	r5, r5, #1
 6060 02e6 04F1FF34 		add	r4, r4, #-1
 6061 02ea ECDA     		bge	.L1163
 6062 02ec A345     		cmp	fp, r4
 6063 02ee EADD     		ble	.L1163
 6064              	.L1121:
 6065 02f0 0692     		str	r2, [sp, #24]
 6066              	.L1123:
 6067 02f2 069B     		ldr	r3, [sp, #24]
 6068 02f4 002B     		cmp	r3, #0
 6069 02f6 4AD1     		bne	.L1126
 6070 02f8 B9F1000F 		cmp	r9, #0
 6071 02fc 5ADA     		bge	.L1167
 6072 02fe A345     		cmp	fp, r4
 6073 0300 40F38D80 		ble	.L1129
 6074              	.L1128:
 6075 0304 002C     		cmp	r4, #0
ARM GAS  /tmp/ccN6vd78.s 			page 105


 6076 0306 1DDD     		ble	.L1135
 6077 0308 039B     		ldr	r3, [sp, #12]
 6078 030a 013C     		subs	r4, r4, #1
 6079 030c 5D68     		ldr	r5, [r3, #4]
 6080              	.L1134:
 6081 030e 3946     		mov	r1, r7
 6082 0310 3846     		mov	r0, r7
 6083 0312 FFF7FEFF 		bl	sp_sqr
 6084 0316 A146     		mov	r9, r4
 6085 0318 0246     		mov	r2, r0
 6086 031a 013C     		subs	r4, r4, #1
 6087 031c 0028     		cmp	r0, #0
 6088 031e 7FF425AF 		bne	.L1100
 6089 0322 0346     		mov	r3, r0
 6090 0324 099A     		ldr	r2, [sp, #36]
 6091 0326 3146     		mov	r1, r6
 6092 0328 3846     		mov	r0, r7
 6093 032a FFF7FEFF 		bl	_sp_mont_red
 6094 032e 0246     		mov	r2, r0
 6095 0330 0028     		cmp	r0, #0
 6096 0332 7FF41BAF 		bne	.L1100
 6097 0336 25FA09F9 		lsr	r9, r5, r9
 6098 033a 19F0010F 		tst	r9, #1
 6099 033e 76D1     		bne	.L1133
 6100              	.L1136:
 6101 0340 631C     		adds	r3, r4, #1
 6102 0342 E4D1     		bne	.L1134
 6103              	.L1135:
 6104 0344 099A     		ldr	r2, [sp, #36]
 6105 0346 0023     		movs	r3, #0
 6106 0348 3146     		mov	r1, r6
 6107 034a 3846     		mov	r0, r7
 6108 034c FFF7FEFF 		bl	_sp_mont_red
 6109 0350 0246     		mov	r2, r0
 6110 0352 0028     		cmp	r0, #0
 6111 0354 7FF40AAF 		bne	.L1100
 6112 0358 0390     		str	r0, [sp, #12]
 6113 035a 0499     		ldr	r1, [sp, #16]
 6114 035c 3846     		mov	r0, r7
 6115 035e FFF7FEFF 		bl	_sp_copy
 6116 0362 039A     		ldr	r2, [sp, #12]
 6117 0364 02E7     		b	.L1100
 6118              	.L1154:
 6119 0366 2024     		movs	r4, #32
 6120 0368 7BE7     		b	.L1112
 6121              	.L1114:
 6122 036a 05FA0BF5 		lsl	r5, r5, fp
 6123 036e A4EB0B04 		sub	r4, r4, fp
 6124 0372 93E7     		b	.L1115
 6125              	.L1113:
 6126 0374 3146     		mov	r1, r6
 6127 0376 3846     		mov	r0, r7
 6128 0378 FFF7FEFF 		bl	sp_mont_norm
 6129 037c 0246     		mov	r2, r0
 6130 037e 97E7     		b	.L1117
 6131              	.L1119:
 6132 0380 B9F1000F 		cmp	r9, #0
ARM GAS  /tmp/ccN6vd78.s 			page 106


 6133 0384 01DA     		bge	.L1122
 6134 0386 A345     		cmp	fp, r4
 6135 0388 B2DC     		bgt	.L1121
 6136              	.L1122:
 6137 038a 5A44     		add	r2, r2, fp
 6138 038c B0E7     		b	.L1121
 6139              	.L1126:
 6140 038e 3946     		mov	r1, r7
 6141 0390 3846     		mov	r0, r7
 6142 0392 FFF7FEFF 		bl	sp_sqr
 6143 0396 0246     		mov	r2, r0
 6144 0398 30B9     		cbnz	r0, .L1124
 6145 039a 0346     		mov	r3, r0
 6146 039c 099A     		ldr	r2, [sp, #36]
 6147 039e 3146     		mov	r1, r6
 6148 03a0 3846     		mov	r0, r7
 6149 03a2 FFF7FEFF 		bl	_sp_mont_red
 6150 03a6 0246     		mov	r2, r0
 6151              	.L1124:
 6152 03a8 069B     		ldr	r3, [sp, #24]
 6153 03aa 013B     		subs	r3, r3, #1
 6154 03ac 0693     		str	r3, [sp, #24]
 6155 03ae 002A     		cmp	r2, #0
 6156 03b0 9FD0     		beq	.L1123
 6157 03b2 DBE6     		b	.L1100
 6158              	.L1167:
 6159 03b4 0CBB     		cbnz	r4, .L1130
 6160 03b6 039B     		ldr	r3, [sp, #12]
 6161 03b8 059C     		ldr	r4, [sp, #20]
 6162 03ba 03EB8903 		add	r3, r3, r9, lsl #2
 6163 03be 5D68     		ldr	r5, [r3, #4]
 6164 03c0 25FA04F3 		lsr	r3, r5, r4
 6165 03c4 05FA0BF5 		lsl	r5, r5, fp
 6166              	.L1168:
 6167 03c8 09F1FF39 		add	r9, r9, #-1
 6168              	.L1131:
 6169 03cc 079A     		ldr	r2, [sp, #28]
 6170 03ce 3846     		mov	r0, r7
 6171 03d0 1340     		ands	r3, r3, r2
 6172 03d2 2CAA     		add	r2, sp, #176
 6173 03d4 02EB8303 		add	r3, r2, r3, lsl #2
 6174 03d8 53F8881C 		ldr	r1, [r3, #-136]
 6175 03dc 3A46     		mov	r2, r7
 6176 03de FFF7FEFF 		bl	sp_mul
 6177 03e2 0246     		mov	r2, r0
 6178 03e4 0028     		cmp	r0, #0
 6179 03e6 7FF466AF 		bne	.L1116
 6180 03ea 0346     		mov	r3, r0
 6181 03ec 099A     		ldr	r2, [sp, #36]
 6182 03ee 3146     		mov	r1, r6
 6183 03f0 3846     		mov	r0, r7
 6184 03f2 FFF7FEFF 		bl	_sp_mont_red
 6185 03f6 0246     		mov	r2, r0
 6186 03f8 5DE7     		b	.L1116
 6187              	.L1130:
 6188 03fa 059B     		ldr	r3, [sp, #20]
 6189 03fc A345     		cmp	fp, r4
ARM GAS  /tmp/ccN6vd78.s 			page 107


 6190 03fe 25FA03F1 		lsr	r1, r5, r3
 6191 0402 0CDD     		ble	.L1129
 6192 0404 039B     		ldr	r3, [sp, #12]
 6193 0406 ABEB0402 		sub	r2, fp, r4
 6194 040a 03EB8903 		add	r3, r3, r9, lsl #2
 6195 040e 5D68     		ldr	r5, [r3, #4]
 6196 0410 C2F12004 		rsb	r4, r2, #32
 6197 0414 25FA04F3 		lsr	r3, r5, r4
 6198 0418 0B43     		orrs	r3, r3, r1
 6199 041a 9540     		lsls	r5, r5, r2
 6200 041c D4E7     		b	.L1168
 6201              	.L1129:
 6202 041e 059B     		ldr	r3, [sp, #20]
 6203 0420 A4EB0B04 		sub	r4, r4, fp
 6204 0424 25FA03F3 		lsr	r3, r5, r3
 6205 0428 05FA0BF5 		lsl	r5, r5, fp
 6206 042c CEE7     		b	.L1131
 6207              	.L1133:
 6208 042e 3A46     		mov	r2, r7
 6209 0430 4146     		mov	r1, r8
 6210 0432 3846     		mov	r0, r7
 6211 0434 FFF7FEFF 		bl	sp_mul
 6212 0438 0246     		mov	r2, r0
 6213 043a 0028     		cmp	r0, #0
 6214 043c 7FF496AE 		bne	.L1100
 6215 0440 0346     		mov	r3, r0
 6216 0442 099A     		ldr	r2, [sp, #36]
 6217 0444 3146     		mov	r1, r6
 6218 0446 3846     		mov	r0, r7
 6219 0448 FFF7FEFF 		bl	_sp_mont_red
 6220 044c 0246     		mov	r2, r0
 6221 044e 0028     		cmp	r0, #0
 6222 0450 3FF476AF 		beq	.L1136
 6223 0454 8AE6     		b	.L1100
 6224              	.L1152:
 6225 0456 6FF06002 		mvn	r2, #96
 6226 045a F2E5     		b	.L1087
 6227              	.L1146:
 6228 045c 6FF06102 		mvn	r2, #97
 6229 0460 EFE5     		b	.L1087
 6231              		.section	.text.sp_unsigned_bin_size,"ax",%progbits
 6232              		.align	1
 6233              		.global	sp_unsigned_bin_size
 6234              		.syntax unified
 6235              		.thumb
 6236              		.thumb_func
 6237              		.fpu fpv4-sp-d16
 6239              	sp_unsigned_bin_size:
 6240              		@ args = 0, pretend = 0, frame = 0
 6241              		@ frame_needed = 0, uses_anonymous_args = 0
 6242 0000 08B5     		push	{r3, lr}
 6243 0002 18B1     		cbz	r0, .L1169
 6244 0004 FFF7FEFF 		bl	sp_count_bits
 6245 0008 0730     		adds	r0, r0, #7
 6246 000a C010     		asrs	r0, r0, #3
 6247              	.L1169:
 6248 000c 08BD     		pop	{r3, pc}
ARM GAS  /tmp/ccN6vd78.s 			page 108


 6250              		.section	.text.sp_read_unsigned_bin,"ax",%progbits
 6251              		.align	1
 6252              		.global	sp_read_unsigned_bin
 6253              		.syntax unified
 6254              		.thumb
 6255              		.thumb_func
 6256              		.fpu fpv4-sp-d16
 6258              	sp_read_unsigned_bin:
 6259              		@ args = 0, pretend = 0, frame = 0
 6260              		@ frame_needed = 0, uses_anonymous_args = 0
 6261 0000 2DE9F041 		push	{r4, r5, r6, r7, r8, lr}
 6262 0004 58B3     		cbz	r0, .L1183
 6263 0006 31BB     		cbnz	r1, .L1174
 6264 0008 4ABB     		cbnz	r2, .L1183
 6265              	.L1175:
 6266 000a 8646     		mov	lr, r0
 6267 000c D41C     		adds	r4, r2, #3
 6268 000e A408     		lsrs	r4, r4, #2
 6269 0010 2EF8044B 		strh	r4, [lr], #4	@ movhi
 6270 0014 561E     		subs	r6, r2, #1
 6271 0016 3746     		mov	r7, r6
 6272 0018 7546     		mov	r5, lr
 6273 001a 01EB020C 		add	ip, r1, r2
 6274              	.L1176:
 6275 001e 022F     		cmp	r7, #2
 6276 0020 20DC     		bgt	.L1177
 6277 0022 7B1C     		adds	r3, r7, #1
 6278 0024 12D0     		beq	.L1178
 6279 0026 0023     		movs	r3, #0
 6280 0028 013C     		subs	r4, r4, #1
 6281 002a 00EB8404 		add	r4, r0, r4, lsl #2
 6282 002e 012F     		cmp	r7, #1
 6283 0030 6360     		str	r3, [r4, #4]
 6284 0032 05D0     		beq	.L1179
 6285 0034 022F     		cmp	r7, #2
 6286 0036 07D1     		bne	.L1180
 6287 0038 8C78     		ldrb	r4, [r1, #2]	@ zero_extendqisi2
 6288 003a AB18     		adds	r3, r5, r2
 6289 003c 03F8034C 		strb	r4, [r3, #-3]
 6290              	.L1179:
 6291 0040 4B78     		ldrb	r3, [r1, #1]	@ zero_extendqisi2
 6292 0042 2A44     		add	r2, r2, r5
 6293 0044 02F8023C 		strb	r3, [r2, #-2]
 6294              	.L1180:
 6295 0048 0B78     		ldrb	r3, [r1]	@ zero_extendqisi2
 6296 004a AB55     		strb	r3, [r5, r6]
 6297              	.L1178:
 6298 004c FFF7FEFF 		bl	sp_clamp_ct
 6299 0050 0020     		movs	r0, #0
 6300              	.L1172:
 6301 0052 BDE8F081 		pop	{r4, r5, r6, r7, r8, pc}
 6302              	.L1174:
 6303 0056 4388     		ldrh	r3, [r0, #2]
 6304 0058 B2EB830F 		cmp	r2, r3, lsl #2
 6305 005c D5D9     		bls	.L1175
 6306              	.L1183:
 6307 005e 6FF06100 		mvn	r0, #97
ARM GAS  /tmp/ccN6vd78.s 			page 109


 6308 0062 F6E7     		b	.L1172
 6309              	.L1177:
 6310 0064 1CF8033C 		ldrb	r3, [ip, #-3]	@ zero_extendqisi2
 6311 0068 1CF8028C 		ldrb	r8, [ip, #-2]	@ zero_extendqisi2
 6312 006c 1B04     		lsls	r3, r3, #16
 6313 006e 43EA0823 		orr	r3, r3, r8, lsl #8
 6314 0072 1CF8018C 		ldrb	r8, [ip, #-1]	@ zero_extendqisi2
 6315 0076 043F     		subs	r7, r7, #4
 6316 0078 43EA0803 		orr	r3, r3, r8
 6317 007c 1CF8048D 		ldrb	r8, [ip, #-4]!	@ zero_extendqisi2
 6318 0080 43EA0863 		orr	r3, r3, r8, lsl #24
 6319 0084 4EF8043B 		str	r3, [lr], #4
 6320 0088 C9E7     		b	.L1176
 6322              		.section	.text.sp_to_unsigned_bin_len,"ax",%progbits
 6323              		.align	1
 6324              		.global	sp_to_unsigned_bin_len
 6325              		.syntax unified
 6326              		.thumb
 6327              		.thumb_func
 6328              		.fpu fpv4-sp-d16
 6330              	sp_to_unsigned_bin_len:
 6331              		@ args = 0, pretend = 0, frame = 0
 6332              		@ frame_needed = 0, uses_anonymous_args = 0
 6333 0000 F8B5     		push	{r3, r4, r5, r6, r7, lr}
 6334 0002 0F46     		mov	r7, r1
 6335 0004 88B3     		cbz	r0, .L1200
 6336 0006 81B3     		cbz	r1, .L1200
 6337 0008 002A     		cmp	r2, #0
 6338 000a 2EDB     		blt	.L1200
 6339 000c 0488     		ldrh	r4, [r0]
 6340 000e 013A     		subs	r2, r2, #1
 6341 0010 3CB1     		cbz	r4, .L1192
 6342 0012 0023     		movs	r3, #0
 6343 0014 1C46     		mov	r4, r3
 6344 0016 011D     		adds	r1, r0, #4
 6345              	.L1193:
 6346 0018 551C     		adds	r5, r2, #1
 6347 001a 07D0     		beq	.L1190
 6348 001c 0588     		ldrh	r5, [r0]
 6349 001e 9D42     		cmp	r5, r3
 6350 0020 06D8     		bhi	.L1197
 6351              	.L1192:
 6352 0022 0021     		movs	r1, #0
 6353 0024 3846     		mov	r0, r7
 6354 0026 0132     		adds	r2, r2, #1
 6355 0028 FFF7FEFF 		bl	memset
 6356              	.L1190:
 6357 002c 2046     		mov	r0, r4
 6358 002e F8BD     		pop	{r3, r4, r5, r6, r7, pc}
 6359              	.L1197:
 6360 0030 51F8045B 		ldr	r5, [r1], #4
 6361 0034 BE18     		adds	r6, r7, r2
 6362 0036 A2F1040C 		sub	ip, r2, #4
 6363              	.L1196:
 6364 003a 013A     		subs	r2, r2, #1
 6365 003c B2F1FF3F 		cmp	r2, #-1
 6366 0040 06F80159 		strb	r5, [r6], #-1
ARM GAS  /tmp/ccN6vd78.s 			page 110


 6367 0044 4FEA1525 		lsr	r5, r5, #8
 6368 0048 09D1     		bne	.L1194
 6369 004a 0688     		ldrh	r6, [r0]
 6370 004c 013E     		subs	r6, r6, #1
 6371 004e 9E42     		cmp	r6, r3
 6372 0050 08D8     		bhi	.L1202
 6373 0052 002D     		cmp	r5, #0
 6374 0054 18BF     		it	ne
 6375 0056 6FF06104 		mvnne	r4, #97
 6376              	.L1195:
 6377 005a 0133     		adds	r3, r3, #1
 6378 005c DCE7     		b	.L1193
 6379              	.L1194:
 6380 005e 6245     		cmp	r2, ip
 6381 0060 EBD1     		bne	.L1196
 6382 0062 FAE7     		b	.L1195
 6383              	.L1202:
 6384 0064 6FF06104 		mvn	r4, #97
 6385 0068 F7E7     		b	.L1195
 6386              	.L1200:
 6387 006a 6FF06104 		mvn	r4, #97
 6388 006e DDE7     		b	.L1190
 6390              		.section	.text.sp_to_unsigned_bin,"ax",%progbits
 6391              		.align	1
 6392              		.global	sp_to_unsigned_bin
 6393              		.syntax unified
 6394              		.thumb
 6395              		.thumb_func
 6396              		.fpu fpv4-sp-d16
 6398              	sp_to_unsigned_bin:
 6399              		@ args = 0, pretend = 0, frame = 0
 6400              		@ frame_needed = 0, uses_anonymous_args = 0
 6401 0000 10B5     		push	{r4, lr}
 6402 0002 0446     		mov	r4, r0
 6403 0004 FFF7FEFF 		bl	sp_unsigned_bin_size
 6404 0008 0246     		mov	r2, r0
 6405 000a 2046     		mov	r0, r4
 6406 000c BDE81040 		pop	{r4, lr}
 6407 0010 FFF7FEBF 		b	sp_to_unsigned_bin_len
 6409              		.section	.text.sp_to_unsigned_bin_len_ct,"ax",%progbits
 6410              		.align	1
 6411              		.global	sp_to_unsigned_bin_len_ct
 6412              		.syntax unified
 6413              		.thumb
 6414              		.thumb_func
 6415              		.fpu fpv4-sp-d16
 6417              	sp_to_unsigned_bin_len_ct:
 6418              		@ args = 0, pretend = 0, frame = 8
 6419              		@ frame_needed = 0, uses_anonymous_args = 0
 6420 0000 F7B5     		push	{r0, r1, r2, r4, r5, r6, r7, lr}
 6421 0002 68B3     		cbz	r0, .L1217
 6422 0004 61B3     		cbz	r1, .L1217
 6423 0006 002A     		cmp	r2, #0
 6424 0008 2ADB     		blt	.L1217
 6425 000a 4FF0FF33 		mov	r3, #-1
 6426 000e 0024     		movs	r4, #0
 6427 0010 0093     		str	r3, [sp]
ARM GAS  /tmp/ccN6vd78.s 			page 111


 6428 0012 1A44     		add	r2, r2, r3
 6429              	.L1211:
 6430 0014 531C     		adds	r3, r2, #1
 6431 0016 02D1     		bne	.L1214
 6432 0018 0020     		movs	r0, #0
 6433              	.L1209:
 6434 001a 03B0     		add	sp, sp, #12
 6435              		@ sp needed
 6436 001c F0BD     		pop	{r4, r5, r6, r7, pc}
 6437              	.L1214:
 6438 001e 0388     		ldrh	r3, [r0]
 6439 0020 8E18     		adds	r6, r1, r2
 6440 0022 013B     		subs	r3, r3, #1
 6441 0024 A342     		cmp	r3, r4
 6442 0026 94BF     		ite	ls
 6443 0028 0023     		movls	r3, #0
 6444 002a 0123     		movhi	r3, #1
 6445 002c 0193     		str	r3, [sp, #4]
 6446 002e 00EB8403 		add	r3, r0, r4, lsl #2
 6447 0032 5B68     		ldr	r3, [r3, #4]
 6448 0034 171F     		subs	r7, r2, #4
 6449              	.L1213:
 6450 0036 009D     		ldr	r5, [sp]
 6451 0038 013A     		subs	r2, r2, #1
 6452 003a 1D40     		ands	r5, r5, r3
 6453 003c 06F80159 		strb	r5, [r6], #-1
 6454 0040 551C     		adds	r5, r2, #1
 6455 0042 4FEA1323 		lsr	r3, r3, #8
 6456 0046 01D0     		beq	.L1212
 6457 0048 BA42     		cmp	r2, r7
 6458 004a F4D1     		bne	.L1213
 6459              	.L1212:
 6460 004c 019B     		ldr	r3, [sp, #4]
 6461 004e 009D     		ldr	r5, [sp]
 6462 0050 5B42     		rsbs	r3, r3, #0
 6463 0052 2B40     		ands	r3, r3, r5
 6464 0054 0093     		str	r3, [sp]
 6465 0056 009B     		ldr	r3, [sp]
 6466 0058 03F00103 		and	r3, r3, #1
 6467 005c 1C44     		add	r4, r4, r3
 6468 005e D9E7     		b	.L1211
 6469              	.L1217:
 6470 0060 6FF06100 		mvn	r0, #97
 6471 0064 D9E7     		b	.L1209
 6473              		.section	.text.sp_read_radix,"ax",%progbits
 6474              		.align	1
 6475              		.global	sp_read_radix
 6476              		.syntax unified
 6477              		.thumb
 6478              		.thumb_func
 6479              		.fpu fpv4-sp-d16
 6481              	sp_read_radix:
 6482              		@ args = 0, pretend = 0, frame = 8
 6483              		@ frame_needed = 0, uses_anonymous_args = 0
 6484 0000 2DE9F74F 		push	{r0, r1, r2, r4, r5, r6, r7, r8, r9, r10, fp, lr}
 6485 0004 0446     		mov	r4, r0
 6486 0006 20B9     		cbnz	r0, .L1223
ARM GAS  /tmp/ccN6vd78.s 			page 112


 6487              	.L1225:
 6488 0008 6FF06100 		mvn	r0, #97
 6489              	.L1222:
 6490 000c 03B0     		add	sp, sp, #12
 6491              		@ sp needed
 6492 000e BDE8F08F 		pop	{r4, r5, r6, r7, r8, r9, r10, fp, pc}
 6493              	.L1223:
 6494 0012 0029     		cmp	r1, #0
 6495 0014 F8D0     		beq	.L1225
 6496 0016 0B78     		ldrb	r3, [r1]	@ zero_extendqisi2
 6497 0018 2D2B     		cmp	r3, #45
 6498 001a F5D0     		beq	.L1225
 6499              	.L1226:
 6500 001c 8846     		mov	r8, r1
 6501 001e 11F8013B 		ldrb	r3, [r1], #1	@ zero_extendqisi2
 6502 0022 302B     		cmp	r3, #48
 6503 0024 FAD0     		beq	.L1226
 6504 0026 102A     		cmp	r2, #16
 6505 0028 EED1     		bne	.L1225
 6506 002a 4FF0000A 		mov	r10, #0
 6507 002e 4046     		mov	r0, r8
 6508 0030 FFF7FEFF 		bl	strlen
 6509 0034 5546     		mov	r5, r10
 6510 0036 5246     		mov	r2, r10
 6511 0038 5646     		mov	r6, r10
 6512 003a 08EB0007 		add	r7, r8, r0
 6513              	.L1227:
 6514 003e B845     		cmp	r8, r7
 6515 0040 15D1     		bne	.L1233
 6516 0042 6388     		ldrh	r3, [r4, #2]
 6517 0044 9342     		cmp	r3, r2
 6518 0046 02D9     		bls	.L1238
 6519 0048 04EB8203 		add	r3, r4, r2, lsl #2
 6520 004c 5D60     		str	r5, [r3, #4]
 6521              	.L1238:
 6522 004e 0132     		adds	r2, r2, #1
 6523 0050 90B2     		uxth	r0, r2
 6524 0052 2080     		strh	r0, [r4]	@ movhi
 6525 0054 0028     		cmp	r0, #0
 6526 0056 D9D0     		beq	.L1222
 6527 0058 421E     		subs	r2, r0, #1
 6528 005a 231D     		adds	r3, r4, #4
 6529              	.L1236:
 6530 005c 53F82210 		ldr	r1, [r3, r2, lsl #2]
 6531 0060 09B9     		cbnz	r1, .L1235
 6532 0062 013A     		subs	r2, r2, #1
 6533 0064 FAD2     		bcs	.L1236
 6534              	.L1235:
 6535 0066 0132     		adds	r2, r2, #1
 6536 0068 0020     		movs	r0, #0
 6537 006a 2280     		strh	r2, [r4]	@ movhi
 6538 006c CEE7     		b	.L1222
 6539              	.L1233:
 6540 006e 17F8013D 		ldrb	r3, [r7, #-1]!	@ zero_extendqisi2
 6541 0072 8DF80730 		strb	r3, [sp, #7]
 6542 0076 9DF80710 		ldrb	r1, [sp, #7]	@ zero_extendqisi2
 6543 007a CBB2     		uxtb	r3, r1
ARM GAS  /tmp/ccN6vd78.s 			page 113


 6544 007c 3039     		subs	r1, r1, #48
 6545 007e C9B2     		uxtb	r1, r1
 6546 0080 0929     		cmp	r1, #9
 6547 0082 04D8     		bhi	.L1228
 6548 0084 4BB2     		sxtb	r3, r1
 6549              	.L1229:
 6550 0086 202E     		cmp	r6, #32
 6551 0088 2BD0     		beq	.L1239
 6552 008a 1146     		mov	r1, r2
 6553 008c 33E0     		b	.L1240
 6554              	.L1228:
 6555 008e A3F14101 		sub	r1, r3, #65
 6556 0092 0529     		cmp	r1, #5
 6557 0094 02D8     		bhi	.L1230
 6558 0096 373B     		subs	r3, r3, #55
 6559              	.L1252:
 6560 0098 5BB2     		sxtb	r3, r3
 6561 009a F4E7     		b	.L1229
 6562              	.L1230:
 6563 009c A3F16101 		sub	r1, r3, #97
 6564 00a0 0529     		cmp	r1, #5
 6565 00a2 01D8     		bhi	.L1231
 6566 00a4 573B     		subs	r3, r3, #87
 6567 00a6 F7E7     		b	.L1252
 6568              	.L1231:
 6569 00a8 BAF1000F 		cmp	r10, #0
 6570 00ac ACD1     		bne	.L1225
 6571 00ae 9DF807B0 		ldrb	fp, [sp, #7]	@ zero_extendqisi2
 6572 00b2 2021     		movs	r1, #32
 6573 00b4 5FFA8BFB 		uxtb	fp, fp
 6574 00b8 5846     		mov	r0, fp
 6575 00ba FFF7FEFF 		bl	ctMaskEq
 6576 00be 0921     		movs	r1, #9
 6577 00c0 8146     		mov	r9, r0
 6578 00c2 5846     		mov	r0, fp
 6579 00c4 FFF7FEFF 		bl	ctMaskEq
 6580 00c8 49EA0000 		orr	r0, r9, r0
 6581 00cc 5FFA80F9 		uxtb	r9, r0
 6582 00d0 0A21     		movs	r1, #10
 6583 00d2 5846     		mov	r0, fp
 6584 00d4 FFF7FEFF 		bl	ctMaskEq
 6585 00d8 49EA0000 		orr	r0, r9, r0
 6586 00dc C307     		lsls	r3, r0, #31
 6587 00de AED4     		bmi	.L1227
 6588 00e0 92E7     		b	.L1225
 6589              	.L1239:
 6590 00e2 511C     		adds	r1, r2, #1
 6591 00e4 04EB8202 		add	r2, r4, r2, lsl #2
 6592 00e8 5560     		str	r5, [r2, #4]
 6593 00ea 6288     		ldrh	r2, [r4, #2]
 6594 00ec 89B2     		uxth	r1, r1
 6595 00ee 8A42     		cmp	r2, r1
 6596 00f0 8AD9     		bls	.L1225
 6597 00f2 0025     		movs	r5, #0
 6598 00f4 2E46     		mov	r6, r5
 6599              	.L1240:
 6600 00f6 B340     		lsls	r3, r3, r6
ARM GAS  /tmp/ccN6vd78.s 			page 114


 6601 00f8 0A46     		mov	r2, r1
 6602 00fa 4FF0010A 		mov	r10, #1
 6603 00fe 1D43     		orrs	r5, r5, r3
 6604 0100 0436     		adds	r6, r6, #4
 6605 0102 9CE7     		b	.L1227
 6607              		.section	.text.sp_tohex,"ax",%progbits
 6608              		.align	1
 6609              		.global	sp_tohex
 6610              		.syntax unified
 6611              		.thumb
 6612              		.thumb_func
 6613              		.fpu fpv4-sp-d16
 6615              	sp_tohex:
 6616              		@ args = 0, pretend = 0, frame = 0
 6617              		@ frame_needed = 0, uses_anonymous_args = 0
 6618 0000 F0B5     		push	{r4, r5, r6, r7, lr}
 6619 0002 0028     		cmp	r0, #0
 6620 0004 49D0     		beq	.L1266
 6621 0006 0029     		cmp	r1, #0
 6622 0008 47D0     		beq	.L1266
 6623 000a 0288     		ldrh	r2, [r0]
 6624 000c 3AB9     		cbnz	r2, .L1255
 6625 000e 3022     		movs	r2, #48
 6626 0010 0B46     		mov	r3, r1
 6627 0012 03F8022B 		strb	r2, [r3], #2
 6628 0016 4A70     		strb	r2, [r1, #1]
 6629              	.L1256:
 6630 0018 0020     		movs	r0, #0
 6631 001a 1870     		strb	r0, [r3]
 6632              	.L1253:
 6633 001c F0BD     		pop	{r4, r5, r6, r7, pc}
 6634              	.L1255:
 6635 001e 50F82240 		ldr	r4, [r0, r2, lsl #2]
 6636 0022 531E     		subs	r3, r2, #1
 6637 0024 1822     		movs	r2, #24
 6638              	.L1259:
 6639 0026 24FA02F5 		lsr	r5, r4, r2
 6640 002a EDB2     		uxtb	r5, r5
 6641 002c 4DB9     		cbnz	r5, .L1257
 6642 002e 22B9     		cbnz	r2, .L1258
 6643 0030 013B     		subs	r3, r3, #1
 6644 0032 00EB8302 		add	r2, r0, r3, lsl #2
 6645 0036 5468     		ldr	r4, [r2, #4]
 6646 0038 1822     		movs	r2, #24
 6647              	.L1258:
 6648 003a 083A     		subs	r2, r2, #8
 6649 003c 01D4     		bmi	.L1257
 6650 003e 5F1C     		adds	r7, r3, #1
 6651 0040 F1D1     		bne	.L1259
 6652              	.L1257:
 6653 0042 174E     		ldr	r6, .L1269
 6654 0044 0432     		adds	r2, r2, #4
 6655              	.L1260:
 6656 0046 002A     		cmp	r2, #0
 6657 0048 0CDA     		bge	.L1261
 6658 004a 0D46     		mov	r5, r1
 6659 004c DFF850C0 		ldr	ip, .L1269
ARM GAS  /tmp/ccN6vd78.s 			page 115


 6660 0050 5C1E     		subs	r4, r3, #1
 6661 0052 00EB8300 		add	r0, r0, r3, lsl #2
 6662              	.L1262:
 6663 0056 002C     		cmp	r4, #0
 6664 0058 0DDA     		bge	.L1264
 6665 005a 23EAE373 		bic	r3, r3, r3, asr #31
 6666 005e 01EBC303 		add	r3, r1, r3, lsl #3
 6667 0062 D9E7     		b	.L1256
 6668              	.L1261:
 6669 0064 24FA02F5 		lsr	r5, r4, r2
 6670 0068 05F00F05 		and	r5, r5, #15
 6671 006c 755D     		ldrb	r5, [r6, r5]	@ zero_extendqisi2
 6672 006e 043A     		subs	r2, r2, #4
 6673 0070 01F8015B 		strb	r5, [r1], #1
 6674 0074 E7E7     		b	.L1260
 6675              	.L1264:
 6676 0076 2F46     		mov	r7, r5
 6677 0078 1C22     		movs	r2, #28
 6678 007a 50F804E9 		ldr	lr, [r0], #-4
 6679              	.L1263:
 6680 007e 2EFA02F6 		lsr	r6, lr, r2
 6681 0082 06F00F06 		and	r6, r6, #15
 6682 0086 1CF80660 		ldrb	r6, [ip, r6]	@ zero_extendqisi2
 6683 008a 043A     		subs	r2, r2, #4
 6684 008c 07F8016B 		strb	r6, [r7], #1
 6685 0090 161D     		adds	r6, r2, #4
 6686 0092 F4D1     		bne	.L1263
 6687 0094 0835     		adds	r5, r5, #8
 6688 0096 013C     		subs	r4, r4, #1
 6689 0098 DDE7     		b	.L1262
 6690              	.L1266:
 6691 009a 6FF06100 		mvn	r0, #97
 6692 009e BDE7     		b	.L1253
 6693              	.L1270:
 6694              		.align	2
 6695              	.L1269:
 6696 00a0 00000000 		.word	.LANCHOR5
 6698              		.section	.text.sp_todecimal,"ax",%progbits
 6699              		.align	1
 6700              		.global	sp_todecimal
 6701              		.syntax unified
 6702              		.thumb
 6703              		.thumb_func
 6704              		.fpu fpv4-sp-d16
 6706              	sp_todecimal:
 6707              		@ args = 0, pretend = 0, frame = 8
 6708              		@ frame_needed = 0, uses_anonymous_args = 0
 6709 0000 2DE9F341 		push	{r0, r1, r4, r5, r6, r7, r8, lr}
 6710 0004 0026     		movs	r6, #0
 6711 0006 0C46     		mov	r4, r1
 6712 0008 0746     		mov	r7, r0
 6713 000a 0196     		str	r6, [sp, #4]
 6714 000c 0028     		cmp	r0, #0
 6715 000e 3BD0     		beq	.L1278
 6716 0010 0029     		cmp	r1, #0
 6717 0012 39D0     		beq	.L1278
 6718 0014 0088     		ldrh	r0, [r0]
ARM GAS  /tmp/ccN6vd78.s 			page 116


 6719 0016 28B9     		cbnz	r0, .L1273
 6720 0018 3022     		movs	r2, #48
 6721 001a 4870     		strb	r0, [r1, #1]
 6722 001c 0A70     		strb	r2, [r1]
 6723              	.L1271:
 6724 001e 02B0     		add	sp, sp, #8
 6725              		@ sp needed
 6726 0020 BDE8F081 		pop	{r4, r5, r6, r7, r8, pc}
 6727              	.L1273:
 6728 0024 2228     		cmp	r0, #34
 6729 0026 2FD8     		bhi	.L1278
 6730 0028 831C     		adds	r3, r0, #2
 6731 002a 9BB2     		uxth	r3, r3
 6732 002c 9800     		lsls	r0, r3, #2
 6733 002e FFF7FEFF 		bl	wolfSSL_Malloc
 6734 0032 0546     		mov	r5, r0
 6735 0034 58B3     		cbz	r0, .L1279
 6736 0036 3B88     		ldrh	r3, [r7]
 6737 0038 0146     		mov	r1, r0
 6738 003a 0133     		adds	r3, r3, #1
 6739 003c 4380     		strh	r3, [r0, #2]	@ movhi
 6740 003e 3846     		mov	r0, r7
 6741 0040 671E     		subs	r7, r4, #1
 6742 0042 FFF7FEFF 		bl	_sp_copy
 6743 0046 B846     		mov	r8, r7
 6744              	.L1274:
 6745 0048 0A21     		movs	r1, #10
 6746 004a 01AB     		add	r3, sp, #4
 6747 004c 2A46     		mov	r2, r5
 6748 004e 2846     		mov	r0, r5
 6749 0050 FFF7FEFF 		bl	sp_div_d
 6750 0054 019B     		ldr	r3, [sp, #4]
 6751 0056 3146     		mov	r1, r6
 6752 0058 3033     		adds	r3, r3, #48
 6753 005a 08F8013F 		strb	r3, [r8, #1]!
 6754 005e 2B88     		ldrh	r3, [r5]
 6755 0060 0136     		adds	r6, r6, #1
 6756 0062 002B     		cmp	r3, #0
 6757 0064 F0D1     		bne	.L1274
 6758 0066 A355     		strb	r3, [r4, r6]
 6759 0068 6318     		adds	r3, r4, r1
 6760 006a 04EB6104 		add	r4, r4, r1, asr #1
 6761              	.L1275:
 6762 006e 17F8012F 		ldrb	r2, [r7, #1]!	@ zero_extendqisi2
 6763 0072 1978     		ldrb	r1, [r3]	@ zero_extendqisi2
 6764 0074 BC42     		cmp	r4, r7
 6765 0076 3970     		strb	r1, [r7]
 6766 0078 03F80129 		strb	r2, [r3], #-1
 6767 007c F7D1     		bne	.L1275
 6768 007e 2846     		mov	r0, r5
 6769 0080 FFF7FEFF 		bl	wolfSSL_Free
 6770 0084 0020     		movs	r0, #0
 6771 0086 CAE7     		b	.L1271
 6772              	.L1278:
 6773 0088 6FF06100 		mvn	r0, #97
 6774 008c C7E7     		b	.L1271
 6775              	.L1279:
ARM GAS  /tmp/ccN6vd78.s 			page 117


 6776 008e 6FF06000 		mvn	r0, #96
 6777 0092 C4E7     		b	.L1271
 6779              		.section	.text.sp_toradix,"ax",%progbits
 6780              		.align	1
 6781              		.global	sp_toradix
 6782              		.syntax unified
 6783              		.thumb
 6784              		.thumb_func
 6785              		.fpu fpv4-sp-d16
 6787              	sp_toradix:
 6788              		@ args = 0, pretend = 0, frame = 0
 6789              		@ frame_needed = 0, uses_anonymous_args = 0
 6790              		@ link register save eliminated.
 6791 0000 40B1     		cbz	r0, .L1282
 6792 0002 39B1     		cbz	r1, .L1282
 6793 0004 102A     		cmp	r2, #16
 6794 0006 01D1     		bne	.L1284
 6795 0008 FFF7FEBF 		b	sp_tohex
 6796              	.L1284:
 6797 000c 0A2A     		cmp	r2, #10
 6798 000e 01D1     		bne	.L1282
 6799 0010 FFF7FEBF 		b	sp_todecimal
 6800              	.L1282:
 6801 0014 6FF06100 		mvn	r0, #97
 6802 0018 7047     		bx	lr
 6804              		.section	.text.sp_radix_size,"ax",%progbits
 6805              		.align	1
 6806              		.global	sp_radix_size
 6807              		.syntax unified
 6808              		.thumb
 6809              		.thumb_func
 6810              		.fpu fpv4-sp-d16
 6812              	sp_radix_size:
 6813              		@ args = 0, pretend = 0, frame = 8
 6814              		@ frame_needed = 0, uses_anonymous_args = 0
 6815 0000 F7B5     		push	{r0, r1, r2, r4, r5, r6, r7, lr}
 6816 0002 1646     		mov	r6, r2
 6817 0004 0446     		mov	r4, r0
 6818 0006 0028     		cmp	r0, #0
 6819 0008 40D0     		beq	.L1302
 6820 000a 002A     		cmp	r2, #0
 6821 000c 3ED0     		beq	.L1302
 6822 000e 1029     		cmp	r1, #16
 6823 0010 10D1     		bne	.L1292
 6824 0012 0388     		ldrh	r3, [r0]
 6825 0014 23B9     		cbnz	r3, .L1293
 6826 0016 0322     		movs	r2, #3
 6827 0018 3260     		str	r2, [r6]
 6828              	.L1309:
 6829 001a 0020     		movs	r0, #0
 6830              	.L1290:
 6831 001c 03B0     		add	sp, sp, #12
 6832              		@ sp needed
 6833 001e F0BD     		pop	{r4, r5, r6, r7, pc}
 6834              	.L1293:
 6835 0020 FFF7FEFF 		bl	sp_count_bits
 6836 0024 0330     		adds	r0, r0, #3
ARM GAS  /tmp/ccN6vd78.s 			page 118


 6837 0026 8310     		asrs	r3, r0, #2
 6838 0028 4207     		lsls	r2, r0, #29
 6839 002a 48BF     		it	mi
 6840 002c 0133     		addmi	r3, r3, #1
 6841 002e 0133     		adds	r3, r3, #1
 6842 0030 3360     		str	r3, [r6]
 6843 0032 F2E7     		b	.L1309
 6844              	.L1292:
 6845 0034 0A29     		cmp	r1, #10
 6846 0036 29D1     		bne	.L1302
 6847 0038 0088     		ldrh	r0, [r0]
 6848 003a 10B9     		cbnz	r0, .L1295
 6849 003c 0223     		movs	r3, #2
 6850 003e 1360     		str	r3, [r2]
 6851 0040 ECE7     		b	.L1290
 6852              	.L1295:
 6853 0042 2328     		cmp	r0, #35
 6854 0044 22D8     		bhi	.L1302
 6855 0046 0128     		cmp	r0, #1
 6856 0048 1BBF     		ittet	ne
 6857 004a 431C     		addne	r3, r0, #1
 6858 004c 9BB2     		uxthne	r3, r3
 6859 004e 0820     		moveq	r0, #8
 6860 0050 9800     		lslne	r0, r3, #2
 6861 0052 FFF7FEFF 		bl	wolfSSL_Malloc
 6862 0056 0546     		mov	r5, r0
 6863 0058 A8B1     		cbz	r0, .L1305
 6864 005a 2388     		ldrh	r3, [r4]
 6865 005c 0146     		mov	r1, r0
 6866 005e 4380     		strh	r3, [r0, #2]	@ movhi
 6867 0060 2046     		mov	r0, r4
 6868 0062 FFF7FEFF 		bl	_sp_copy
 6869 0066 0027     		movs	r7, #0
 6870              	.L1298:
 6871 0068 2C88     		ldrh	r4, [r5]
 6872 006a 0137     		adds	r7, r7, #1
 6873 006c 24B9     		cbnz	r4, .L1299
 6874 006e 2846     		mov	r0, r5
 6875 0070 3760     		str	r7, [r6]
 6876 0072 FFF7FEFF 		bl	wolfSSL_Free
 6877 0076 D0E7     		b	.L1309
 6878              	.L1299:
 6879 0078 2A46     		mov	r2, r5
 6880 007a 0A21     		movs	r1, #10
 6881 007c 2846     		mov	r0, r5
 6882 007e 01AB     		add	r3, sp, #4
 6883 0080 FFF7FEFF 		bl	sp_div_d
 6884 0084 F0E7     		b	.L1298
 6885              	.L1305:
 6886 0086 6FF06000 		mvn	r0, #96
 6887 008a C7E7     		b	.L1290
 6888              	.L1302:
 6889 008c 6FF06100 		mvn	r0, #97
 6890 0090 C4E7     		b	.L1290
 6892              		.section	.text.sp_prime_is_prime,"ax",%progbits
 6893              		.align	1
 6894              		.global	sp_prime_is_prime
ARM GAS  /tmp/ccN6vd78.s 			page 119


 6895              		.syntax unified
 6896              		.thumb
 6897              		.thumb_func
 6898              		.fpu fpv4-sp-d16
 6900              	sp_prime_is_prime:
 6901              		@ args = 0, pretend = 0, frame = 16
 6902              		@ frame_needed = 0, uses_anonymous_args = 0
 6903 0000 0023     		movs	r3, #0
 6904 0002 2DE9F04F 		push	{r4, r5, r6, r7, r8, r9, r10, fp, lr}
 6905 0006 87B0     		sub	sp, sp, #28
 6906 0008 8A46     		mov	r10, r1
 6907 000a 1646     		mov	r6, r2
 6908 000c 0546     		mov	r5, r0
 6909 000e 0593     		str	r3, [sp, #20]
 6910 0010 18B1     		cbz	r0, .L1311
 6911 0012 3AB9     		cbnz	r2, .L1344
 6912              	.L1333:
 6913 0014 6FF06104 		mvn	r4, #97
 6914 0018 1DE0     		b	.L1310
 6915              	.L1311:
 6916 001a 002A     		cmp	r2, #0
 6917 001c FAD0     		beq	.L1333
 6918              	.L1314:
 6919 001e 0023     		movs	r3, #0
 6920 0020 3360     		str	r3, [r6]
 6921 0022 F7E7     		b	.L1333
 6922              	.L1344:
 6923 0024 0288     		ldrh	r2, [r0]
 6924 0026 112A     		cmp	r2, #17
 6925 0028 F4DC     		bgt	.L1333
 6926 002a 0139     		subs	r1, r1, #1
 6927 002c FF29     		cmp	r1, #255
 6928 002e F6D8     		bhi	.L1314
 6929 0030 012A     		cmp	r2, #1
 6930 0032 09D1     		bne	.L1315
 6931 0034 4268     		ldr	r2, [r0, #4]
 6932 0036 012A     		cmp	r2, #1
 6933 0038 02D1     		bne	.L1316
 6934              	.L1347:
 6935 003a 3360     		str	r3, [r6]
 6936              	.L1317:
 6937 003c 0024     		movs	r4, #0
 6938 003e 0AE0     		b	.L1310
 6939              	.L1316:
 6940 0040 40F25361 		movw	r1, #1619
 6941 0044 8A42     		cmp	r2, r1
 6942 0046 0AD9     		bls	.L1318
 6943              	.L1315:
 6944 0048 3246     		mov	r2, r6
 6945 004a 2846     		mov	r0, r5
 6946 004c 05A9     		add	r1, sp, #20
 6947 004e FFF7FEFF 		bl	sp_div_primes
 6948 0052 0446     		mov	r4, r0
 6949 0054 A8B1     		cbz	r0, .L1319
 6950              	.L1310:
 6951 0056 2046     		mov	r0, r4
 6952 0058 07B0     		add	sp, sp, #28
ARM GAS  /tmp/ccN6vd78.s 			page 120


 6953              		@ sp needed
 6954 005a BDE8F08F 		pop	{r4, r5, r6, r7, r8, r9, r10, fp, pc}
 6955              	.L1318:
 6956 005e 1A46     		mov	r2, r3
 6957 0060 434C     		ldr	r4, .L1348
 6958 0062 3360     		str	r3, [r6]
 6959              	.L1321:
 6960 0064 2846     		mov	r0, r5
 6961 0066 34F8021B 		ldrh	r1, [r4], #2
 6962 006a FFF7FEFF 		bl	sp_cmp_d
 6963 006e 08B9     		cbnz	r0, .L1320
 6964 0070 0123     		movs	r3, #1
 6965 0072 E2E7     		b	.L1347
 6966              	.L1320:
 6967 0074 0132     		adds	r2, r2, #1
 6968 0076 B2F5807F 		cmp	r2, #256
 6969 007a F3D1     		bne	.L1321
 6970 007c 0023     		movs	r3, #0
 6971 007e 0593     		str	r3, [sp, #20]
 6972 0080 E2E7     		b	.L1315
 6973              	.L1319:
 6974 0082 DDF81490 		ldr	r9, [sp, #20]
 6975 0086 B9F1000F 		cmp	r9, #0
 6976 008a D7D1     		bne	.L1317
 6977 008c 2888     		ldrh	r0, [r5]
 6978 008e 2228     		cmp	r0, #34
 6979 0090 C0D8     		bhi	.L1333
 6980 0092 0230     		adds	r0, r0, #2
 6981 0094 80B2     		uxth	r0, r0
 6982 0096 8000     		lsls	r0, r0, #2
 6983 0098 FFF7FEFF 		bl	wolfSSL_Malloc
 6984 009c 0746     		mov	r7, r0
 6985 009e 68B1     		cbz	r0, .L1334
 6986 00a0 2888     		ldrh	r0, [r5]
 6987 00a2 2228     		cmp	r0, #34
 6988 00a4 60D8     		bhi	.L1335
 6989 00a6 0230     		adds	r0, r0, #2
 6990 00a8 80B2     		uxth	r0, r0
 6991 00aa 8000     		lsls	r0, r0, #2
 6992 00ac FFF7FEFF 		bl	wolfSSL_Malloc
 6993 00b0 8046     		mov	r8, r0
 6994 00b2 0028     		cmp	r0, #0
 6995 00b4 52D1     		bne	.L1345
 6996 00b6 6FF06004 		mvn	r4, #96
 6997 00ba 41E0     		b	.L1329
 6998              	.L1334:
 6999 00bc 6FF06004 		mvn	r4, #96
 7000 00c0 C9E7     		b	.L1310
 7001              	.L1346:
 7002 00c2 2B88     		ldrh	r3, [r5]
 7003 00c4 A7F80090 		strh	r9, [r7]	@ movhi
 7004 00c8 5A1C     		adds	r2, r3, #1
 7005 00ca 5B00     		lsls	r3, r3, #1
 7006 00cc 0133     		adds	r3, r3, #1
 7007 00ce 92B2     		uxth	r2, r2
 7008 00d0 9BB2     		uxth	r3, r3
 7009 00d2 C7F80490 		str	r9, [r7, #4]
ARM GAS  /tmp/ccN6vd78.s 			page 121


 7010 00d6 7A80     		strh	r2, [r7, #2]	@ movhi
 7011 00d8 A8F80090 		strh	r9, [r8]	@ movhi
 7012 00dc C8F80490 		str	r9, [r8, #4]
 7013 00e0 A8F80220 		strh	r2, [r8, #2]	@ movhi
 7014 00e4 ABF80230 		strh	r3, [fp, #2]	@ movhi
 7015 00e8 214B     		ldr	r3, .L1348
 7016 00ea 0393     		str	r3, [sp, #12]
 7017              	.L1325:
 7018 00ec 039A     		ldr	r2, [sp, #12]
 7019 00ee 5946     		mov	r1, fp
 7020 00f0 32F8023B 		ldrh	r3, [r2], #2
 7021 00f4 2846     		mov	r0, r5
 7022 00f6 CBF80430 		str	r3, [fp, #4]
 7023 00fa 003B     		subs	r3, r3, #0
 7024 00fc 18BF     		it	ne
 7025 00fe 0123     		movne	r3, #1
 7026 0100 0392     		str	r2, [sp, #12]
 7027 0102 ABF80030 		strh	r3, [fp]	@ movhi
 7028 0106 3246     		mov	r2, r6
 7029 0108 3B46     		mov	r3, r7
 7030 010a CDF80080 		str	r8, [sp]
 7031 010e FFF7FEFF 		bl	sp_prime_miller_rabin
 7032 0112 0446     		mov	r4, r0
 7033 0114 28B9     		cbnz	r0, .L1324
 7034 0116 3368     		ldr	r3, [r6]
 7035 0118 1BB1     		cbz	r3, .L1324
 7036 011a 09F10109 		add	r9, r9, #1
 7037 011e CA45     		cmp	r10, r9
 7038 0120 E4DC     		bgt	.L1325
 7039              	.L1324:
 7040 0122 3846     		mov	r0, r7
 7041 0124 FFF7FEFF 		bl	sp_clear
 7042 0128 4046     		mov	r0, r8
 7043 012a FFF7FEFF 		bl	sp_clear
 7044 012e 5846     		mov	r0, fp
 7045 0130 FFF7FEFF 		bl	sp_clear
 7046 0134 5846     		mov	r0, fp
 7047 0136 FFF7FEFF 		bl	wolfSSL_Free
 7048              	.L1326:
 7049 013a 4046     		mov	r0, r8
 7050 013c FFF7FEFF 		bl	wolfSSL_Free
 7051              	.L1329:
 7052 0140 3846     		mov	r0, r7
 7053 0142 FFF7FEFF 		bl	wolfSSL_Free
 7054 0146 86E7     		b	.L1310
 7055              	.L1328:
 7056 0148 0130     		adds	r0, r0, #1
 7057 014a C000     		lsls	r0, r0, #3
 7058 014c FFF7FEFF 		bl	wolfSSL_Malloc
 7059 0150 8346     		mov	fp, r0
 7060 0152 0028     		cmp	r0, #0
 7061 0154 B5D1     		bne	.L1346
 7062 0156 6FF06004 		mvn	r4, #96
 7063 015a EEE7     		b	.L1326
 7064              	.L1345:
 7065 015c 2888     		ldrh	r0, [r5]
 7066 015e 1128     		cmp	r0, #17
ARM GAS  /tmp/ccN6vd78.s 			page 122


 7067 0160 F2DD     		ble	.L1328
 7068 0162 6FF06104 		mvn	r4, #97
 7069 0166 E8E7     		b	.L1326
 7070              	.L1335:
 7071 0168 6FF06104 		mvn	r4, #97
 7072 016c E8E7     		b	.L1329
 7073              	.L1349:
 7074 016e 00BF     		.align	2
 7075              	.L1348:
 7076 0170 00000000 		.word	.LANCHOR2
 7078              		.section	.text.sp_prime_is_prime_ex,"ax",%progbits
 7079              		.align	1
 7080              		.global	sp_prime_is_prime_ex
 7081              		.syntax unified
 7082              		.thumb
 7083              		.thumb_func
 7084              		.fpu fpv4-sp-d16
 7086              	sp_prime_is_prime_ex:
 7087              		@ args = 0, pretend = 0, frame = 40
 7088              		@ frame_needed = 0, uses_anonymous_args = 0
 7089 0000 2DE9F04F 		push	{r4, r5, r6, r7, r8, r9, r10, fp, lr}
 7090 0004 2DED028B 		vpush.64	{d8}
 7091 0008 8DB0     		sub	sp, sp, #52
 7092 000a 0F46     		mov	r7, r1
 7093 000c CDE90323 		strd	r2, r3, [sp, #12]
 7094 0010 0121     		movs	r1, #1
 7095 0012 0023     		movs	r3, #0
 7096 0014 0646     		mov	r6, r0
 7097 0016 CDE90613 		strd	r1, r3, [sp, #24]
 7098 001a 0028     		cmp	r0, #0
 7099 001c 00F0F880 		beq	.L1351
 7100 0020 002A     		cmp	r2, #0
 7101 0022 00F00181 		beq	.L1375
 7102 0026 049A     		ldr	r2, [sp, #16]
 7103 0028 002A     		cmp	r2, #0
 7104 002a 00F00081 		beq	.L1378
 7105 002e 0288     		ldrh	r2, [r0]
 7106 0030 112A     		cmp	r2, #17
 7107 0032 00F3FC80 		bgt	.L1378
 7108 0036 791E     		subs	r1, r7, #1
 7109 0038 FF29     		cmp	r1, #255
 7110 003a 00F2F880 		bhi	.L1378
 7111 003e 012A     		cmp	r2, #1
 7112 0040 09D1     		bne	.L1354
 7113 0042 4268     		ldr	r2, [r0, #4]
 7114 0044 012A     		cmp	r2, #1
 7115 0046 02D1     		bne	.L1355
 7116              	.L1393:
 7117 0048 0693     		str	r3, [sp, #24]
 7118              	.L1356:
 7119 004a 0024     		movs	r4, #0
 7120 004c 0AE0     		b	.L1374
 7121              	.L1355:
 7122 004e 40F25361 		movw	r1, #1619
 7123 0052 8A42     		cmp	r2, r1
 7124 0054 0AD9     		bls	.L1357
 7125              	.L1354:
ARM GAS  /tmp/ccN6vd78.s 			page 123


 7126 0056 3046     		mov	r0, r6
 7127 0058 06AA     		add	r2, sp, #24
 7128 005a 07A9     		add	r1, sp, #28
 7129 005c FFF7FEFF 		bl	sp_div_primes
 7130 0060 0446     		mov	r4, r0
 7131 0062 A8B1     		cbz	r0, .L1358
 7132              	.L1374:
 7133 0064 069B     		ldr	r3, [sp, #24]
 7134 0066 039A     		ldr	r2, [sp, #12]
 7135 0068 1360     		str	r3, [r2]
 7136 006a D7E0     		b	.L1350
 7137              	.L1357:
 7138 006c 1A46     		mov	r2, r3
 7139 006e 714C     		ldr	r4, .L1394
 7140 0070 0693     		str	r3, [sp, #24]
 7141              	.L1360:
 7142 0072 3046     		mov	r0, r6
 7143 0074 34F8021B 		ldrh	r1, [r4], #2
 7144 0078 FFF7FEFF 		bl	sp_cmp_d
 7145 007c 08B9     		cbnz	r0, .L1359
 7146 007e 0123     		movs	r3, #1
 7147 0080 E2E7     		b	.L1393
 7148              	.L1359:
 7149 0082 0132     		adds	r2, r2, #1
 7150 0084 B2F5807F 		cmp	r2, #256
 7151 0088 F3D1     		bne	.L1360
 7152 008a 0023     		movs	r3, #0
 7153 008c 0793     		str	r3, [sp, #28]
 7154 008e E2E7     		b	.L1354
 7155              	.L1358:
 7156 0090 0799     		ldr	r1, [sp, #28]
 7157 0092 0029     		cmp	r1, #0
 7158 0094 D9D1     		bne	.L1356
 7159 0096 3046     		mov	r0, r6
 7160 0098 FFF7FEFF 		bl	sp_count_bits
 7161 009c 8046     		mov	r8, r0
 7162 009e 3088     		ldrh	r0, [r6]
 7163 00a0 CDE90811 		strd	r1, r1, [sp, #32]
 7164 00a4 2228     		cmp	r0, #34
 7165 00a6 CDE90A11 		strd	r1, r1, [sp, #40]
 7166 00aa 00F2C080 		bhi	.L1378
 7167 00ae 0230     		adds	r0, r0, #2
 7168 00b0 80B2     		uxth	r0, r0
 7169 00b2 C000     		lsls	r0, r0, #3
 7170 00b4 FFF7FEFF 		bl	wolfSSL_Malloc
 7171 00b8 0546     		mov	r5, r0
 7172 00ba 0028     		cmp	r0, #0
 7173 00bc 00F0A580 		beq	.L1380
 7174 00c0 3388     		ldrh	r3, [r6]
 7175 00c2 0890     		str	r0, [sp, #32]
 7176 00c4 03F1020B 		add	fp, r3, #2
 7177 00c8 581C     		adds	r0, r3, #1
 7178 00ca 82B2     		uxth	r2, r0
 7179 00cc 05EB8B09 		add	r9, r5, fp, lsl #2
 7180 00d0 112B     		cmp	r3, #17
 7181 00d2 6A80     		strh	r2, [r5, #2]	@ movhi
 7182 00d4 CDF82490 		str	r9, [sp, #36]
ARM GAS  /tmp/ccN6vd78.s 			page 124


 7183 00d8 A9F80220 		strh	r2, [r9, #2]	@ movhi
 7184 00dc 00F38F80 		bgt	.L1381
 7185 00e0 0001     		lsls	r0, r0, #4
 7186 00e2 FFF7FEFF 		bl	wolfSSL_Malloc
 7187 00e6 0446     		mov	r4, r0
 7188 00e8 0028     		cmp	r0, #0
 7189 00ea 00F08B80 		beq	.L1382
 7190 00ee 3388     		ldrh	r3, [r6]
 7191 00f0 0A90     		str	r0, [sp, #40]
 7192 00f2 5A00     		lsls	r2, r3, #1
 7193 00f4 0132     		adds	r2, r2, #1
 7194 00f6 92B2     		uxth	r2, r2
 7195 00f8 591C     		adds	r1, r3, #1
 7196 00fa 002B     		cmp	r3, #0
 7197 00fc 73D0     		beq	.L1383
 7198 00fe C800     		lsls	r0, r1, #3
 7199              	.L1364:
 7200 0100 08F10703 		add	r3, r8, #7
 7201 0104 DB08     		lsrs	r3, r3, #3
 7202 0106 08EE103A 		vmov	s16, r3	@ int
 7203 010a 0023     		movs	r3, #0
 7204 010c 04EB000A 		add	r10, r4, r0
 7205 0110 89B2     		uxth	r1, r1
 7206 0112 2B80     		strh	r3, [r5]	@ movhi
 7207 0114 6B60     		str	r3, [r5, #4]
 7208 0116 6980     		strh	r1, [r5, #2]	@ movhi
 7209 0118 25F82B30 		strh	r3, [r5, fp, lsl #2]	@ movhi
 7210 011c C9F80430 		str	r3, [r9, #4]
 7211 0120 A9F80210 		strh	r1, [r9, #2]	@ movhi
 7212 0124 2380     		strh	r3, [r4]	@ movhi
 7213 0126 6360     		str	r3, [r4, #4]
 7214 0128 6280     		strh	r2, [r4, #2]	@ movhi
 7215 012a 0221     		movs	r1, #2
 7216 012c 2352     		strh	r3, [r4, r0]	@ movhi
 7217 012e CAF80430 		str	r3, [r10, #4]
 7218 0132 AAF80220 		strh	r2, [r10, #2]	@ movhi
 7219 0136 3046     		mov	r0, r6
 7220 0138 2A46     		mov	r2, r5
 7221 013a CDF82CA0 		str	r10, [sp, #44]
 7222 013e FFF7FEFF 		bl	_sp_sub_d
 7223 0142 4FF0FF33 		mov	r3, #-1
 7224 0146 08F01F08 		and	r8, r8, #31
 7225 014a 03FA08F3 		lsl	r3, r3, r8
 7226 014e DB43     		mvns	r3, r3
 7227 0150 04F1040B 		add	fp, r4, #4
 7228 0154 0593     		str	r3, [sp, #20]
 7229              	.L1373:
 7230 0156 18EE102A 		vmov	r2, s16	@ int
 7231 015a 5946     		mov	r1, fp
 7232 015c 0498     		ldr	r0, [sp, #16]
 7233 015e FFF7FEFF 		bl	wc_RNG_GenerateBlock
 7234 0162 0028     		cmp	r0, #0
 7235 0164 47D1     		bne	.L1385
 7236 0166 3288     		ldrh	r2, [r6]
 7237 0168 2280     		strh	r2, [r4]	@ movhi
 7238 016a B8F1000F 		cmp	r8, #0
 7239 016e 0DD0     		beq	.L1367
ARM GAS  /tmp/ccN6vd78.s 			page 125


 7240 0170 531E     		subs	r3, r2, #1
 7241 0172 04EB830C 		add	ip, r4, r3, lsl #2
 7242 0176 DCF80410 		ldr	r1, [ip, #4]
 7243 017a 0598     		ldr	r0, [sp, #20]
 7244 017c 0140     		ands	r1, r1, r0
 7245 017e CCF80410 		str	r1, [ip, #4]
 7246 0182 1AB1     		cbz	r2, .L1367
 7247              	.L1368:
 7248 0184 5A1C     		adds	r2, r3, #1
 7249 0186 30D1     		bne	.L1371
 7250              	.L1370:
 7251 0188 0133     		adds	r3, r3, #1
 7252 018a 2380     		strh	r3, [r4]	@ movhi
 7253              	.L1367:
 7254 018c 0221     		movs	r1, #2
 7255 018e 2046     		mov	r0, r4
 7256 0190 FFF7FEFF 		bl	sp_cmp_d
 7257 0194 0128     		cmp	r0, #1
 7258 0196 DED1     		bne	.L1373
 7259 0198 2946     		mov	r1, r5
 7260 019a 2046     		mov	r0, r4
 7261 019c FFF7FEFF 		bl	_sp_cmp_abs
 7262 01a0 0130     		adds	r0, r0, #1
 7263 01a2 D8D1     		bne	.L1373
 7264 01a4 4B46     		mov	r3, r9
 7265 01a6 2146     		mov	r1, r4
 7266 01a8 3046     		mov	r0, r6
 7267 01aa CDF800A0 		str	r10, [sp]
 7268 01ae 06AA     		add	r2, sp, #24
 7269 01b0 FFF7FEFF 		bl	sp_prime_miller_rabin
 7270 01b4 F8B9     		cbnz	r0, .L1385
 7271 01b6 069B     		ldr	r3, [sp, #24]
 7272 01b8 FBB1     		cbz	r3, .L1386
 7273 01ba 013F     		subs	r7, r7, #1
 7274 01bc CBD1     		bne	.L1373
 7275              	.L1365:
 7276 01be 4846     		mov	r0, r9
 7277 01c0 FFF7FEFF 		bl	sp_forcezero
 7278 01c4 5046     		mov	r0, r10
 7279 01c6 FFF7FEFF 		bl	sp_forcezero
 7280 01ca 2046     		mov	r0, r4
 7281 01cc FFF7FEFF 		bl	sp_forcezero
 7282 01d0 2846     		mov	r0, r5
 7283 01d2 FFF7FEFF 		bl	sp_forcezero
 7284 01d6 2046     		mov	r0, r4
 7285 01d8 FFF7FEFF 		bl	wolfSSL_Free
 7286 01dc 3C46     		mov	r4, r7
 7287              	.L1363:
 7288 01de 2846     		mov	r0, r5
 7289 01e0 FFF7FEFF 		bl	wolfSSL_Free
 7290 01e4 3EE7     		b	.L1374
 7291              	.L1383:
 7292 01e6 0820     		movs	r0, #8
 7293 01e8 8AE7     		b	.L1364
 7294              	.L1371:
 7295 01ea 5BF82320 		ldr	r2, [fp, r3, lsl #2]
 7296 01ee 002A     		cmp	r2, #0
ARM GAS  /tmp/ccN6vd78.s 			page 126


 7297 01f0 CAD1     		bne	.L1370
 7298 01f2 013B     		subs	r3, r3, #1
 7299 01f4 C6E7     		b	.L1368
 7300              	.L1385:
 7301 01f6 0746     		mov	r7, r0
 7302 01f8 E1E7     		b	.L1365
 7303              	.L1386:
 7304 01fa 1F46     		mov	r7, r3
 7305 01fc DFE7     		b	.L1365
 7306              	.L1381:
 7307 01fe 6FF06104 		mvn	r4, #97
 7308 0202 ECE7     		b	.L1363
 7309              	.L1382:
 7310 0204 6FF06004 		mvn	r4, #96
 7311 0208 E9E7     		b	.L1363
 7312              	.L1380:
 7313 020a 6FF06004 		mvn	r4, #96
 7314 020e 29E7     		b	.L1374
 7315              	.L1351:
 7316 0210 039B     		ldr	r3, [sp, #12]
 7317 0212 6FF06104 		mvn	r4, #97
 7318 0216 002B     		cmp	r3, #0
 7319 0218 7FF424AF 		bne	.L1374
 7320              	.L1350:
 7321 021c 2046     		mov	r0, r4
 7322 021e 0DB0     		add	sp, sp, #52
 7323              		@ sp needed
 7324 0220 BDEC028B 		vldm	sp!, {d8}
 7325 0224 BDE8F08F 		pop	{r4, r5, r6, r7, r8, r9, r10, fp, pc}
 7326              	.L1375:
 7327 0228 6FF06104 		mvn	r4, #97
 7328 022c F6E7     		b	.L1350
 7329              	.L1378:
 7330 022e 6FF06104 		mvn	r4, #97
 7331 0232 17E7     		b	.L1374
 7332              	.L1395:
 7333              		.align	2
 7334              	.L1394:
 7335 0234 00000000 		.word	.LANCHOR2
 7337              		.section	.text.CheckRunTimeSettings,"ax",%progbits
 7338              		.align	1
 7339              		.global	CheckRunTimeSettings
 7340              		.syntax unified
 7341              		.thumb
 7342              		.thumb_func
 7343              		.fpu fpv4-sp-d16
 7345              	CheckRunTimeSettings:
 7346              		@ args = 0, pretend = 0, frame = 0
 7347              		@ frame_needed = 0, uses_anonymous_args = 0
 7348              		@ link register save eliminated.
 7349 0000 0220     		movs	r0, #2
 7350 0002 7047     		bx	lr
 7352              		.section	.text.CheckRunTimeFastMath,"ax",%progbits
 7353              		.align	1
 7354              		.global	CheckRunTimeFastMath
 7355              		.syntax unified
 7356              		.thumb
ARM GAS  /tmp/ccN6vd78.s 			page 127


 7357              		.thumb_func
 7358              		.fpu fpv4-sp-d16
 7360              	CheckRunTimeFastMath:
 7361              		@ args = 0, pretend = 0, frame = 0
 7362              		@ frame_needed = 0, uses_anonymous_args = 0
 7363              		@ link register save eliminated.
 7364 0000 2020     		movs	r0, #32
 7365 0002 7047     		bx	lr
 7367              		.global	sp_off_on_addr
 7368              		.section	.rodata.kHexChar.0,"a"
 7369              		.set	.LANCHOR5,. + 0
 7372              	kHexChar.0:
 7373 0000 30313233 		.ascii	"0123456789ABCDEF"
 7373      34353637 
 7373      38394142 
 7373      43444546 
 7374              		.section	.rodata.sp_lnz,"a"
 7375              		.align	2
 7376              		.set	.LANCHOR4,. + 0
 7379              	sp_lnz:
 7380 0000 04000000 		.word	4
 7381 0004 00000000 		.word	0
 7382 0008 01000000 		.word	1
 7383 000c 00000000 		.word	0
 7384 0010 02000000 		.word	2
 7385 0014 00000000 		.word	0
 7386 0018 01000000 		.word	1
 7387 001c 00000000 		.word	0
 7388 0020 03000000 		.word	3
 7389 0024 00000000 		.word	0
 7390 0028 01000000 		.word	1
 7391 002c 00000000 		.word	0
 7392 0030 02000000 		.word	2
 7393 0034 00000000 		.word	0
 7394 0038 01000000 		.word	1
 7395 003c 00000000 		.word	0
 7396              		.section	.rodata.sp_off_on_addr,"a"
 7397              		.align	2
 7398              		.set	.LANCHOR3,. + 0
 7401              	sp_off_on_addr:
 7402 0000 00000000 		.word	0
 7403 0004 FFFFFFFF 		.word	-1
 7404              		.section	.rodata.sp_primes,"a"
 7405              		.align	1
 7406              		.set	.LANCHOR2,. + 0
 7409              	sp_primes:
 7410 0000 0200     		.short	2
 7411 0002 0300     		.short	3
 7412 0004 0500     		.short	5
 7413 0006 0700     		.short	7
 7414 0008 0B00     		.short	11
 7415 000a 0D00     		.short	13
 7416 000c 1100     		.short	17
 7417 000e 1300     		.short	19
 7418 0010 1700     		.short	23
 7419 0012 1D00     		.short	29
 7420 0014 1F00     		.short	31
ARM GAS  /tmp/ccN6vd78.s 			page 128


 7421 0016 2500     		.short	37
 7422 0018 2900     		.short	41
 7423 001a 2B00     		.short	43
 7424 001c 2F00     		.short	47
 7425 001e 3500     		.short	53
 7426 0020 3B00     		.short	59
 7427 0022 3D00     		.short	61
 7428 0024 4300     		.short	67
 7429 0026 4700     		.short	71
 7430 0028 4900     		.short	73
 7431 002a 4F00     		.short	79
 7432 002c 5300     		.short	83
 7433 002e 5900     		.short	89
 7434 0030 6100     		.short	97
 7435 0032 6500     		.short	101
 7436 0034 6700     		.short	103
 7437 0036 6B00     		.short	107
 7438 0038 6D00     		.short	109
 7439 003a 7100     		.short	113
 7440 003c 7F00     		.short	127
 7441 003e 8300     		.short	131
 7442 0040 8900     		.short	137
 7443 0042 8B00     		.short	139
 7444 0044 9500     		.short	149
 7445 0046 9700     		.short	151
 7446 0048 9D00     		.short	157
 7447 004a A300     		.short	163
 7448 004c A700     		.short	167
 7449 004e AD00     		.short	173
 7450 0050 B300     		.short	179
 7451 0052 B500     		.short	181
 7452 0054 BF00     		.short	191
 7453 0056 C100     		.short	193
 7454 0058 C500     		.short	197
 7455 005a C700     		.short	199
 7456 005c D300     		.short	211
 7457 005e DF00     		.short	223
 7458 0060 E300     		.short	227
 7459 0062 E500     		.short	229
 7460 0064 E900     		.short	233
 7461 0066 EF00     		.short	239
 7462 0068 F100     		.short	241
 7463 006a FB00     		.short	251
 7464 006c 0101     		.short	257
 7465 006e 0701     		.short	263
 7466 0070 0D01     		.short	269
 7467 0072 0F01     		.short	271
 7468 0074 1501     		.short	277
 7469 0076 1901     		.short	281
 7470 0078 1B01     		.short	283
 7471 007a 2501     		.short	293
 7472 007c 3301     		.short	307
 7473 007e 3701     		.short	311
 7474 0080 3901     		.short	313
 7475 0082 3D01     		.short	317
 7476 0084 4B01     		.short	331
 7477 0086 5101     		.short	337
ARM GAS  /tmp/ccN6vd78.s 			page 129


 7478 0088 5B01     		.short	347
 7479 008a 5D01     		.short	349
 7480 008c 6101     		.short	353
 7481 008e 6701     		.short	359
 7482 0090 6F01     		.short	367
 7483 0092 7501     		.short	373
 7484 0094 7B01     		.short	379
 7485 0096 7F01     		.short	383
 7486 0098 8501     		.short	389
 7487 009a 8D01     		.short	397
 7488 009c 9101     		.short	401
 7489 009e 9901     		.short	409
 7490 00a0 A301     		.short	419
 7491 00a2 A501     		.short	421
 7492 00a4 AF01     		.short	431
 7493 00a6 B101     		.short	433
 7494 00a8 B701     		.short	439
 7495 00aa BB01     		.short	443
 7496 00ac C101     		.short	449
 7497 00ae C901     		.short	457
 7498 00b0 CD01     		.short	461
 7499 00b2 CF01     		.short	463
 7500 00b4 D301     		.short	467
 7501 00b6 DF01     		.short	479
 7502 00b8 E701     		.short	487
 7503 00ba EB01     		.short	491
 7504 00bc F301     		.short	499
 7505 00be F701     		.short	503
 7506 00c0 FD01     		.short	509
 7507 00c2 0902     		.short	521
 7508 00c4 0B02     		.short	523
 7509 00c6 1D02     		.short	541
 7510 00c8 2302     		.short	547
 7511 00ca 2D02     		.short	557
 7512 00cc 3302     		.short	563
 7513 00ce 3902     		.short	569
 7514 00d0 3B02     		.short	571
 7515 00d2 4102     		.short	577
 7516 00d4 4B02     		.short	587
 7517 00d6 5102     		.short	593
 7518 00d8 5702     		.short	599
 7519 00da 5902     		.short	601
 7520 00dc 5F02     		.short	607
 7521 00de 6502     		.short	613
 7522 00e0 6902     		.short	617
 7523 00e2 6B02     		.short	619
 7524 00e4 7702     		.short	631
 7525 00e6 8102     		.short	641
 7526 00e8 8302     		.short	643
 7527 00ea 8702     		.short	647
 7528 00ec 8D02     		.short	653
 7529 00ee 9302     		.short	659
 7530 00f0 9502     		.short	661
 7531 00f2 A102     		.short	673
 7532 00f4 A502     		.short	677
 7533 00f6 AB02     		.short	683
 7534 00f8 B302     		.short	691
ARM GAS  /tmp/ccN6vd78.s 			page 130


 7535 00fa BD02     		.short	701
 7536 00fc C502     		.short	709
 7537 00fe CF02     		.short	719
 7538 0100 D702     		.short	727
 7539 0102 DD02     		.short	733
 7540 0104 E302     		.short	739
 7541 0106 E702     		.short	743
 7542 0108 EF02     		.short	751
 7543 010a F502     		.short	757
 7544 010c F902     		.short	761
 7545 010e 0103     		.short	769
 7546 0110 0503     		.short	773
 7547 0112 1303     		.short	787
 7548 0114 1D03     		.short	797
 7549 0116 2903     		.short	809
 7550 0118 2B03     		.short	811
 7551 011a 3503     		.short	821
 7552 011c 3703     		.short	823
 7553 011e 3B03     		.short	827
 7554 0120 3D03     		.short	829
 7555 0122 4703     		.short	839
 7556 0124 5503     		.short	853
 7557 0126 5903     		.short	857
 7558 0128 5B03     		.short	859
 7559 012a 5F03     		.short	863
 7560 012c 6D03     		.short	877
 7561 012e 7103     		.short	881
 7562 0130 7303     		.short	883
 7563 0132 7703     		.short	887
 7564 0134 8B03     		.short	907
 7565 0136 8F03     		.short	911
 7566 0138 9703     		.short	919
 7567 013a A103     		.short	929
 7568 013c A903     		.short	937
 7569 013e AD03     		.short	941
 7570 0140 B303     		.short	947
 7571 0142 B903     		.short	953
 7572 0144 C703     		.short	967
 7573 0146 CB03     		.short	971
 7574 0148 D103     		.short	977
 7575 014a D703     		.short	983
 7576 014c DF03     		.short	991
 7577 014e E503     		.short	997
 7578 0150 F103     		.short	1009
 7579 0152 F503     		.short	1013
 7580 0154 FB03     		.short	1019
 7581 0156 FD03     		.short	1021
 7582 0158 0704     		.short	1031
 7583 015a 0904     		.short	1033
 7584 015c 0F04     		.short	1039
 7585 015e 1904     		.short	1049
 7586 0160 1B04     		.short	1051
 7587 0162 2504     		.short	1061
 7588 0164 2704     		.short	1063
 7589 0166 2D04     		.short	1069
 7590 0168 3F04     		.short	1087
 7591 016a 4304     		.short	1091
ARM GAS  /tmp/ccN6vd78.s 			page 131


 7592 016c 4504     		.short	1093
 7593 016e 4904     		.short	1097
 7594 0170 4F04     		.short	1103
 7595 0172 5504     		.short	1109
 7596 0174 5D04     		.short	1117
 7597 0176 6304     		.short	1123
 7598 0178 6904     		.short	1129
 7599 017a 7F04     		.short	1151
 7600 017c 8104     		.short	1153
 7601 017e 8B04     		.short	1163
 7602 0180 9304     		.short	1171
 7603 0182 9D04     		.short	1181
 7604 0184 A304     		.short	1187
 7605 0186 A904     		.short	1193
 7606 0188 B104     		.short	1201
 7607 018a BD04     		.short	1213
 7608 018c C104     		.short	1217
 7609 018e C704     		.short	1223
 7610 0190 CD04     		.short	1229
 7611 0192 CF04     		.short	1231
 7612 0194 D504     		.short	1237
 7613 0196 E104     		.short	1249
 7614 0198 EB04     		.short	1259
 7615 019a FD04     		.short	1277
 7616 019c FF04     		.short	1279
 7617 019e 0305     		.short	1283
 7618 01a0 0905     		.short	1289
 7619 01a2 0B05     		.short	1291
 7620 01a4 1105     		.short	1297
 7621 01a6 1505     		.short	1301
 7622 01a8 1705     		.short	1303
 7623 01aa 1B05     		.short	1307
 7624 01ac 2705     		.short	1319
 7625 01ae 2905     		.short	1321
 7626 01b0 2F05     		.short	1327
 7627 01b2 5105     		.short	1361
 7628 01b4 5705     		.short	1367
 7629 01b6 5D05     		.short	1373
 7630 01b8 6505     		.short	1381
 7631 01ba 7705     		.short	1399
 7632 01bc 8105     		.short	1409
 7633 01be 8F05     		.short	1423
 7634 01c0 9305     		.short	1427
 7635 01c2 9505     		.short	1429
 7636 01c4 9905     		.short	1433
 7637 01c6 9F05     		.short	1439
 7638 01c8 A705     		.short	1447
 7639 01ca AB05     		.short	1451
 7640 01cc AD05     		.short	1453
 7641 01ce B305     		.short	1459
 7642 01d0 BF05     		.short	1471
 7643 01d2 C905     		.short	1481
 7644 01d4 CB05     		.short	1483
 7645 01d6 CF05     		.short	1487
 7646 01d8 D105     		.short	1489
 7647 01da D505     		.short	1493
 7648 01dc DB05     		.short	1499
ARM GAS  /tmp/ccN6vd78.s 			page 132


 7649 01de E705     		.short	1511
 7650 01e0 F305     		.short	1523
 7651 01e2 FB05     		.short	1531
 7652 01e4 0706     		.short	1543
 7653 01e6 0D06     		.short	1549
 7654 01e8 1106     		.short	1553
 7655 01ea 1706     		.short	1559
 7656 01ec 1F06     		.short	1567
 7657 01ee 2306     		.short	1571
 7658 01f0 2B06     		.short	1579
 7659 01f2 2F06     		.short	1583
 7660 01f4 3D06     		.short	1597
 7661 01f6 4106     		.short	1601
 7662 01f8 4706     		.short	1607
 7663 01fa 4906     		.short	1609
 7664 01fc 4D06     		.short	1613
 7665 01fe 5306     		.short	1619
 7666              		.section	.rodata.sp_r6.1,"a"
 7667              		.set	.LANCHOR1,. + 0
 7670              	sp_r6.1:
 7671 0000 00000001 		.ascii	"\000\000\000\001\001\001"
 7671      0101
 7672              		.section	.rodata.sp_rem6.2,"a"
 7673              		.set	.LANCHOR0,. + 0
 7676              	sp_rem6.2:
 7677 0000 00010200 		.ascii	"\000\001\002\000\001\002"
 7677      0102
 7678              		.ident	"GCC: (15:10.3-2021.07-4) 10.3.1 20210621 (release)"
ARM GAS  /tmp/ccN6vd78.s 			page 133


DEFINED SYMBOLS
                            *ABS*:0000000000000000 sp_int.c
     /tmp/ccN6vd78.s:16     .text.ctMaskEq:0000000000000000 $t
     /tmp/ccN6vd78.s:24     .text.ctMaskEq:0000000000000000 ctMaskEq
     /tmp/ccN6vd78.s:38     .text._sp_cmp_abs:0000000000000000 $t
     /tmp/ccN6vd78.s:44     .text._sp_cmp_abs:0000000000000000 _sp_cmp_abs
     /tmp/ccN6vd78.s:73     .text._sp_sub_d:0000000000000000 $t
     /tmp/ccN6vd78.s:79     .text._sp_sub_d:0000000000000000 _sp_sub_d
     /tmp/ccN6vd78.s:142    .text._sp_div_2:0000000000000000 $t
     /tmp/ccN6vd78.s:148    .text._sp_div_2:0000000000000000 _sp_div_2
     /tmp/ccN6vd78.s:188    .text._sp_sub_off:0000000000000000 $t
     /tmp/ccN6vd78.s:194    .text._sp_sub_off:0000000000000000 _sp_sub_off
     /tmp/ccN6vd78.s:288    .text.sp_clamp_ct:0000000000000000 $t
     /tmp/ccN6vd78.s:294    .text.sp_clamp_ct:0000000000000000 sp_clamp_ct
     /tmp/ccN6vd78.s:324    .text._sp_submod_ct:0000000000000000 $t
     /tmp/ccN6vd78.s:330    .text._sp_submod_ct:0000000000000000 _sp_submod_ct
     /tmp/ccN6vd78.s:405    .text._sp_div_same_size:0000000000000000 $t
     /tmp/ccN6vd78.s:411    .text._sp_div_same_size:0000000000000000 _sp_div_same_size
     /tmp/ccN6vd78.s:455    .text._sp_copy:0000000000000000 $t
     /tmp/ccN6vd78.s:461    .text._sp_copy:0000000000000000 _sp_copy
     /tmp/ccN6vd78.s:482    .text.sp_lshb:0000000000000000 $t
     /tmp/ccN6vd78.s:488    .text.sp_lshb:0000000000000000 sp_lshb
     /tmp/ccN6vd78.s:557    .text._sp_add_off.constprop.0:0000000000000000 $t
     /tmp/ccN6vd78.s:563    .text._sp_add_off.constprop.0:0000000000000000 _sp_add_off.constprop.0
     /tmp/ccN6vd78.s:658    .text._sp_mont_setup.isra.0:0000000000000000 $t
     /tmp/ccN6vd78.s:664    .text._sp_mont_setup.isra.0:0000000000000000 _sp_mont_setup.isra.0
     /tmp/ccN6vd78.s:683    .text.sp_init_size:0000000000000000 $t
     /tmp/ccN6vd78.s:690    .text.sp_init_size:0000000000000000 sp_init_size
     /tmp/ccN6vd78.s:710    .text.sp_init:0000000000000000 $t
     /tmp/ccN6vd78.s:717    .text.sp_init:0000000000000000 sp_init
     /tmp/ccN6vd78.s:734    .text.sp_init_multi:0000000000000000 $t
     /tmp/ccN6vd78.s:741    .text.sp_init_multi:0000000000000000 sp_init_multi
     /tmp/ccN6vd78.s:792    .text.sp_free:0000000000000000 $t
     /tmp/ccN6vd78.s:799    .text.sp_free:0000000000000000 sp_free
     /tmp/ccN6vd78.s:806    .text.sp_grow:0000000000000000 $t
     /tmp/ccN6vd78.s:813    .text.sp_grow:0000000000000000 sp_grow
     /tmp/ccN6vd78.s:844    .text.sp_zero:0000000000000000 $t
     /tmp/ccN6vd78.s:851    .text.sp_zero:0000000000000000 sp_zero
     /tmp/ccN6vd78.s:863    .text.sp_clear:0000000000000000 $t
     /tmp/ccN6vd78.s:870    .text.sp_clear:0000000000000000 sp_clear
     /tmp/ccN6vd78.s:887    .text.sp_forcezero:0000000000000000 $t
     /tmp/ccN6vd78.s:894    .text.sp_forcezero:0000000000000000 sp_forcezero
     /tmp/ccN6vd78.s:936    .text.sp_copy:0000000000000000 $t
     /tmp/ccN6vd78.s:943    .text.sp_copy:0000000000000000 sp_copy
     /tmp/ccN6vd78.s:968    .text.sp_init_copy:0000000000000000 $t
     /tmp/ccN6vd78.s:975    .text.sp_init_copy:0000000000000000 sp_init_copy
     /tmp/ccN6vd78.s:991    .text.sp_exch:0000000000000000 $t
     /tmp/ccN6vd78.s:998    .text.sp_exch:0000000000000000 sp_exch
     /tmp/ccN6vd78.s:1070   .text.sp_cond_swap_ct_ex:0000000000000000 $t
     /tmp/ccN6vd78.s:1077   .text.sp_cond_swap_ct_ex:0000000000000000 sp_cond_swap_ct_ex
     /tmp/ccN6vd78.s:1143   .text.sp_cond_swap_ct:0000000000000000 $t
     /tmp/ccN6vd78.s:1150   .text.sp_cond_swap_ct:0000000000000000 sp_cond_swap_ct
     /tmp/ccN6vd78.s:1189   .text.sp_cmp_mag:0000000000000000 $t
     /tmp/ccN6vd78.s:1196   .text.sp_cmp_mag:0000000000000000 sp_cmp_mag
     /tmp/ccN6vd78.s:1216   .text.sp_cmp:0000000000000000 $t
     /tmp/ccN6vd78.s:1223   .text.sp_cmp:0000000000000000 sp_cmp
     /tmp/ccN6vd78.s:1230   .text.sp_is_bit_set:0000000000000000 $t
ARM GAS  /tmp/ccN6vd78.s 			page 134


     /tmp/ccN6vd78.s:1237   .text.sp_is_bit_set:0000000000000000 sp_is_bit_set
     /tmp/ccN6vd78.s:1258   .text.sp_count_bits:0000000000000000 $t
     /tmp/ccN6vd78.s:1265   .text.sp_count_bits:0000000000000000 sp_count_bits
     /tmp/ccN6vd78.s:1307   .text.sp_leading_bit:0000000000000000 $t
     /tmp/ccN6vd78.s:1314   .text.sp_leading_bit:0000000000000000 sp_leading_bit
     /tmp/ccN6vd78.s:1336   .text.sp_set_bit:0000000000000000 $t
     /tmp/ccN6vd78.s:1343   .text.sp_set_bit:0000000000000000 sp_set_bit
     /tmp/ccN6vd78.s:1390   .text.sp_2expt:0000000000000000 $t
     /tmp/ccN6vd78.s:1397   .text.sp_2expt:0000000000000000 sp_2expt
     /tmp/ccN6vd78.s:1413   .text.sp_set:0000000000000000 $t
     /tmp/ccN6vd78.s:1420   .text.sp_set:0000000000000000 sp_set
     /tmp/ccN6vd78.s:1437   .text.sp_set_int:0000000000000000 $t
     /tmp/ccN6vd78.s:1444   .text.sp_set_int:0000000000000000 sp_set_int
     /tmp/ccN6vd78.s:1461   .text.sp_cmp_d:0000000000000000 $t
     /tmp/ccN6vd78.s:1468   .text.sp_cmp_d:0000000000000000 sp_cmp_d
     /tmp/ccN6vd78.s:1498   .text.sp_add_d:0000000000000000 $t
     /tmp/ccN6vd78.s:1505   .text.sp_add_d:0000000000000000 sp_add_d
     /tmp/ccN6vd78.s:1580   .text.sp_sub_d:0000000000000000 $t
     /tmp/ccN6vd78.s:1587   .text.sp_sub_d:0000000000000000 sp_sub_d
     /tmp/ccN6vd78.s:1606   .text.sp_mul_d:0000000000000000 $t
     /tmp/ccN6vd78.s:1613   .text.sp_mul_d:0000000000000000 sp_mul_d
     /tmp/ccN6vd78.s:1676   .text.sp_div_d:0000000000000000 $t
     /tmp/ccN6vd78.s:1683   .text.sp_div_d:0000000000000000 sp_div_d
     /tmp/ccN6vd78.s:1933   .text.sp_div_d:000000000000024c $d
     /tmp/ccN6vd78.s:1938   .text.sp_mod_d:0000000000000000 $t
     /tmp/ccN6vd78.s:1945   .text.sp_mod_d:0000000000000000 sp_mod_d
     /tmp/ccN6vd78.s:2058   .text.sp_mod_d:00000000000000f4 $d
     /tmp/ccN6vd78.s:2062   .text.sp_div_primes:0000000000000000 $t
     /tmp/ccN6vd78.s:2068   .text.sp_div_primes:0000000000000000 sp_div_primes
     /tmp/ccN6vd78.s:2102   .text.sp_div_primes:000000000000003c $d
     /tmp/ccN6vd78.s:2105   .text.sp_div_2:0000000000000000 $t
     /tmp/ccN6vd78.s:2112   .text.sp_div_2:0000000000000000 sp_div_2
     /tmp/ccN6vd78.s:2131   .text.sp_div_2_mod_ct:0000000000000000 $t
     /tmp/ccN6vd78.s:2138   .text.sp_div_2_mod_ct:0000000000000000 sp_div_2_mod_ct
     /tmp/ccN6vd78.s:2202   .text.sp_add:0000000000000000 $t
     /tmp/ccN6vd78.s:2209   .text.sp_add:0000000000000000 sp_add
     /tmp/ccN6vd78.s:2232   .text.sp_sub:0000000000000000 $t
     /tmp/ccN6vd78.s:2239   .text.sp_sub:0000000000000000 sp_sub
     /tmp/ccN6vd78.s:2263   .text.sp_addmod_ct:0000000000000000 $t
     /tmp/ccN6vd78.s:2270   .text.sp_addmod_ct:0000000000000000 sp_addmod_ct
     /tmp/ccN6vd78.s:2369   .text.sp_submod_ct:0000000000000000 $t
     /tmp/ccN6vd78.s:2376   .text.sp_submod_ct:0000000000000000 sp_submod_ct
     /tmp/ccN6vd78.s:2399   .text.sp_lshd:0000000000000000 $t
     /tmp/ccN6vd78.s:2406   .text.sp_lshd:0000000000000000 sp_lshd
     /tmp/ccN6vd78.s:2452   .text.sp_rshd:0000000000000000 $t
     /tmp/ccN6vd78.s:2459   .text.sp_rshd:0000000000000000 sp_rshd
     /tmp/ccN6vd78.s:2490   .text.sp_rshb:0000000000000000 $t
     /tmp/ccN6vd78.s:2497   .text.sp_rshb:0000000000000000 sp_rshb
     /tmp/ccN6vd78.s:2576   .text._sp_div:0000000000000000 $t
     /tmp/ccN6vd78.s:2582   .text._sp_div:0000000000000000 _sp_div
     /tmp/ccN6vd78.s:2975   .text._sp_mont_red:0000000000000000 $t
     /tmp/ccN6vd78.s:2981   .text._sp_mont_red:0000000000000000 _sp_mont_red
     /tmp/ccN6vd78.s:3184   .text.sp_div:0000000000000000 $t
     /tmp/ccN6vd78.s:3191   .text.sp_div:0000000000000000 sp_div
     /tmp/ccN6vd78.s:3259   .text.sp_mod:0000000000000000 $t
     /tmp/ccN6vd78.s:3266   .text.sp_mod:0000000000000000 sp_mod
     /tmp/ccN6vd78.s:3287   .text.sp_addmod:0000000000000000 $t
ARM GAS  /tmp/ccN6vd78.s 			page 135


     /tmp/ccN6vd78.s:3294   .text.sp_addmod:0000000000000000 sp_addmod
     /tmp/ccN6vd78.s:3357   .text.sp_submod:0000000000000000 $t
     /tmp/ccN6vd78.s:3364   .text.sp_submod:0000000000000000 sp_submod
     /tmp/ccN6vd78.s:3480   .text.sp_mul:0000000000000000 $t
     /tmp/ccN6vd78.s:3487   .text.sp_mul:0000000000000000 sp_mul
     /tmp/ccN6vd78.s:3618   .text._sp_mulmod:0000000000000000 $t
     /tmp/ccN6vd78.s:3624   .text._sp_mulmod:0000000000000000 _sp_mulmod
     /tmp/ccN6vd78.s:3689   .text.sp_mulmod:0000000000000000 $t
     /tmp/ccN6vd78.s:3696   .text.sp_mulmod:0000000000000000 sp_mulmod
     /tmp/ccN6vd78.s:3722   .text.sp_invmod:0000000000000000 $t
     /tmp/ccN6vd78.s:3729   .text.sp_invmod:0000000000000000 sp_invmod
     /tmp/ccN6vd78.s:4055   .text.sp_div_2d:0000000000000000 $t
     /tmp/ccN6vd78.s:4062   .text.sp_div_2d:0000000000000000 sp_div_2d
     /tmp/ccN6vd78.s:4143   .text.sp_mod_2d:0000000000000000 $t
     /tmp/ccN6vd78.s:4150   .text.sp_mod_2d:0000000000000000 sp_mod_2d
     /tmp/ccN6vd78.s:4222   .text.sp_mul_2d:0000000000000000 $t
     /tmp/ccN6vd78.s:4229   .text.sp_mul_2d:0000000000000000 sp_mul_2d
     /tmp/ccN6vd78.s:4265   .text.sp_sqr:0000000000000000 $t
     /tmp/ccN6vd78.s:4272   .text.sp_sqr:0000000000000000 sp_sqr
     /tmp/ccN6vd78.s:4408   .text.sp_invmod_mont_ct:0000000000000000 $t
     /tmp/ccN6vd78.s:4415   .text.sp_invmod_mont_ct:0000000000000000 sp_invmod_mont_ct
     /tmp/ccN6vd78.s:4704   .text.sp_sqrmod:0000000000000000 $t
     /tmp/ccN6vd78.s:4711   .text.sp_sqrmod:0000000000000000 sp_sqrmod
     /tmp/ccN6vd78.s:4778   .text._sp_exptmod_ex:0000000000000000 $t
     /tmp/ccN6vd78.s:4784   .text._sp_exptmod_ex:0000000000000000 _sp_exptmod_ex
     /tmp/ccN6vd78.s:4942   .text._sp_exptmod_ex:000000000000016c $d
     /tmp/ccN6vd78.s:4945   .text.sp_mont_red_ex:0000000000000000 $t
     /tmp/ccN6vd78.s:4952   .text.sp_mont_red_ex:0000000000000000 sp_mont_red_ex
     /tmp/ccN6vd78.s:4972   .text.sp_mont_setup:0000000000000000 $t
     /tmp/ccN6vd78.s:4979   .text.sp_mont_setup:0000000000000000 sp_mont_setup
     /tmp/ccN6vd78.s:4999   .text.sp_mont_norm:0000000000000000 $t
     /tmp/ccN6vd78.s:5006   .text.sp_mont_norm:0000000000000000 sp_mont_norm
     /tmp/ccN6vd78.s:5062   .text.sp_exptmod_ex:0000000000000000 $t
     /tmp/ccN6vd78.s:5069   .text.sp_exptmod_ex:0000000000000000 sp_exptmod_ex
     /tmp/ccN6vd78.s:5567   .text.sp_exptmod_ex:0000000000000484 $d
     /tmp/ccN6vd78.s:5570   .text.sp_exptmod:0000000000000000 $t
     /tmp/ccN6vd78.s:5577   .text.sp_exptmod:0000000000000000 sp_exptmod
     /tmp/ccN6vd78.s:5598   .text.sp_prime_miller_rabin:0000000000000000 $t
     /tmp/ccN6vd78.s:5604   .text.sp_prime_miller_rabin:0000000000000000 sp_prime_miller_rabin
     /tmp/ccN6vd78.s:5730   .text.sp_prime_miller_rabin:0000000000000108 $d
     /tmp/ccN6vd78.s:5733   .text.sp_exptmod_nct:0000000000000000 $t
     /tmp/ccN6vd78.s:5740   .text.sp_exptmod_nct:0000000000000000 sp_exptmod_nct
     /tmp/ccN6vd78.s:6232   .text.sp_unsigned_bin_size:0000000000000000 $t
     /tmp/ccN6vd78.s:6239   .text.sp_unsigned_bin_size:0000000000000000 sp_unsigned_bin_size
     /tmp/ccN6vd78.s:6251   .text.sp_read_unsigned_bin:0000000000000000 $t
     /tmp/ccN6vd78.s:6258   .text.sp_read_unsigned_bin:0000000000000000 sp_read_unsigned_bin
     /tmp/ccN6vd78.s:6323   .text.sp_to_unsigned_bin_len:0000000000000000 $t
     /tmp/ccN6vd78.s:6330   .text.sp_to_unsigned_bin_len:0000000000000000 sp_to_unsigned_bin_len
     /tmp/ccN6vd78.s:6391   .text.sp_to_unsigned_bin:0000000000000000 $t
     /tmp/ccN6vd78.s:6398   .text.sp_to_unsigned_bin:0000000000000000 sp_to_unsigned_bin
     /tmp/ccN6vd78.s:6410   .text.sp_to_unsigned_bin_len_ct:0000000000000000 $t
     /tmp/ccN6vd78.s:6417   .text.sp_to_unsigned_bin_len_ct:0000000000000000 sp_to_unsigned_bin_len_ct
     /tmp/ccN6vd78.s:6474   .text.sp_read_radix:0000000000000000 $t
     /tmp/ccN6vd78.s:6481   .text.sp_read_radix:0000000000000000 sp_read_radix
     /tmp/ccN6vd78.s:6608   .text.sp_tohex:0000000000000000 $t
     /tmp/ccN6vd78.s:6615   .text.sp_tohex:0000000000000000 sp_tohex
     /tmp/ccN6vd78.s:6696   .text.sp_tohex:00000000000000a0 $d
ARM GAS  /tmp/ccN6vd78.s 			page 136


     /tmp/ccN6vd78.s:6699   .text.sp_todecimal:0000000000000000 $t
     /tmp/ccN6vd78.s:6706   .text.sp_todecimal:0000000000000000 sp_todecimal
     /tmp/ccN6vd78.s:6780   .text.sp_toradix:0000000000000000 $t
     /tmp/ccN6vd78.s:6787   .text.sp_toradix:0000000000000000 sp_toradix
     /tmp/ccN6vd78.s:6805   .text.sp_radix_size:0000000000000000 $t
     /tmp/ccN6vd78.s:6812   .text.sp_radix_size:0000000000000000 sp_radix_size
     /tmp/ccN6vd78.s:6893   .text.sp_prime_is_prime:0000000000000000 $t
     /tmp/ccN6vd78.s:6900   .text.sp_prime_is_prime:0000000000000000 sp_prime_is_prime
     /tmp/ccN6vd78.s:7076   .text.sp_prime_is_prime:0000000000000170 $d
     /tmp/ccN6vd78.s:7079   .text.sp_prime_is_prime_ex:0000000000000000 $t
     /tmp/ccN6vd78.s:7086   .text.sp_prime_is_prime_ex:0000000000000000 sp_prime_is_prime_ex
     /tmp/ccN6vd78.s:7335   .text.sp_prime_is_prime_ex:0000000000000234 $d
     /tmp/ccN6vd78.s:7338   .text.CheckRunTimeSettings:0000000000000000 $t
     /tmp/ccN6vd78.s:7345   .text.CheckRunTimeSettings:0000000000000000 CheckRunTimeSettings
     /tmp/ccN6vd78.s:7353   .text.CheckRunTimeFastMath:0000000000000000 $t
     /tmp/ccN6vd78.s:7360   .text.CheckRunTimeFastMath:0000000000000000 CheckRunTimeFastMath
     /tmp/ccN6vd78.s:7401   .rodata.sp_off_on_addr:0000000000000000 sp_off_on_addr
     /tmp/ccN6vd78.s:7372   .rodata.kHexChar.0:0000000000000000 kHexChar.0
     /tmp/ccN6vd78.s:7375   .rodata.sp_lnz:0000000000000000 $d
     /tmp/ccN6vd78.s:7379   .rodata.sp_lnz:0000000000000000 sp_lnz
     /tmp/ccN6vd78.s:7397   .rodata.sp_off_on_addr:0000000000000000 $d
     /tmp/ccN6vd78.s:7405   .rodata.sp_primes:0000000000000000 $d
     /tmp/ccN6vd78.s:7409   .rodata.sp_primes:0000000000000000 sp_primes
     /tmp/ccN6vd78.s:7670   .rodata.sp_r6.1:0000000000000000 sp_r6.1
     /tmp/ccN6vd78.s:7676   .rodata.sp_rem6.2:0000000000000000 sp_rem6.2

UNDEFINED SYMBOLS
memmove
memcpy
memset
wolfSSL_Malloc
wolfSSL_Free
__aeabi_uldivmod
strlen
wc_RNG_GenerateBlock
