ARM GAS  /tmp/ccgxHvGY.s 			page 1


   1              		.cpu cortex-m33
   2              		.eabi_attribute 27, 1
   3              		.eabi_attribute 28, 1
   4              		.eabi_attribute 20, 1
   5              		.eabi_attribute 21, 1
   6              		.eabi_attribute 23, 3
   7              		.eabi_attribute 24, 1
   8              		.eabi_attribute 25, 1
   9              		.eabi_attribute 26, 1
  10              		.eabi_attribute 30, 4
  11              		.eabi_attribute 34, 1
  12              		.eabi_attribute 18, 4
  13              		.file	"stm32u5xx_hal_hash_ex.c"
  14              		.text
  15              		.section	.text.HAL_HASHEx_SHA224_Start,"ax",%progbits
  16              		.align	1
  17              		.global	HAL_HASHEx_SHA224_Start
  18              		.arch armv8-m.main
  19              		.arch_extension dsp
  20              		.syntax unified
  21              		.thumb
  22              		.thumb_func
  23              		.fpu fpv4-sp-d16
  25              	HAL_HASHEx_SHA224_Start:
  26              		@ args = 4, pretend = 0, frame = 0
  27              		@ frame_needed = 0, uses_anonymous_args = 0
  28 0000 13B5     		push	{r0, r1, r4, lr}
  29 0002 4FF48024 		mov	r4, #262144
  30 0006 0194     		str	r4, [sp, #4]
  31 0008 049C     		ldr	r4, [sp, #16]
  32 000a 0094     		str	r4, [sp]
  33 000c FFF7FEFF 		bl	HASH_Start
  34 0010 02B0     		add	sp, sp, #8
  35              		@ sp needed
  36 0012 10BD     		pop	{r4, pc}
  38              		.section	.text.HAL_HASHEx_SHA224_Accmlt,"ax",%progbits
  39              		.align	1
  40              		.global	HAL_HASHEx_SHA224_Accmlt
  41              		.syntax unified
  42              		.thumb
  43              		.thumb_func
  44              		.fpu fpv4-sp-d16
  46              	HAL_HASHEx_SHA224_Accmlt:
  47              		@ args = 0, pretend = 0, frame = 0
  48              		@ frame_needed = 0, uses_anonymous_args = 0
  49              		@ link register save eliminated.
  50 0000 4FF48023 		mov	r3, #262144
  51 0004 FFF7FEBF 		b	HASH_Accumulate
  53              		.section	.text.HAL_HASHEx_SHA224_Accmlt_End,"ax",%progbits
  54              		.align	1
  55              		.global	HAL_HASHEx_SHA224_Accmlt_End
  56              		.syntax unified
  57              		.thumb
  58              		.thumb_func
  59              		.fpu fpv4-sp-d16
  61              	HAL_HASHEx_SHA224_Accmlt_End:
  62              		@ args = 4, pretend = 0, frame = 0
ARM GAS  /tmp/ccgxHvGY.s 			page 2


  63              		@ frame_needed = 0, uses_anonymous_args = 0
  64              		@ link register save eliminated.
  65 0000 FFF7FEBF 		b	HAL_HASHEx_SHA224_Start
  67              		.section	.text.HAL_HASHEx_SHA256_Start,"ax",%progbits
  68              		.align	1
  69              		.global	HAL_HASHEx_SHA256_Start
  70              		.syntax unified
  71              		.thumb
  72              		.thumb_func
  73              		.fpu fpv4-sp-d16
  75              	HAL_HASHEx_SHA256_Start:
  76              		@ args = 4, pretend = 0, frame = 0
  77              		@ frame_needed = 0, uses_anonymous_args = 0
  78 0000 13B5     		push	{r0, r1, r4, lr}
  79 0002 4FF4C024 		mov	r4, #393216
  80 0006 0194     		str	r4, [sp, #4]
  81 0008 049C     		ldr	r4, [sp, #16]
  82 000a 0094     		str	r4, [sp]
  83 000c FFF7FEFF 		bl	HASH_Start
  84 0010 02B0     		add	sp, sp, #8
  85              		@ sp needed
  86 0012 10BD     		pop	{r4, pc}
  88              		.section	.text.HAL_HASHEx_SHA256_Accmlt,"ax",%progbits
  89              		.align	1
  90              		.global	HAL_HASHEx_SHA256_Accmlt
  91              		.syntax unified
  92              		.thumb
  93              		.thumb_func
  94              		.fpu fpv4-sp-d16
  96              	HAL_HASHEx_SHA256_Accmlt:
  97              		@ args = 0, pretend = 0, frame = 0
  98              		@ frame_needed = 0, uses_anonymous_args = 0
  99              		@ link register save eliminated.
 100 0000 4FF4C023 		mov	r3, #393216
 101 0004 FFF7FEBF 		b	HASH_Accumulate
 103              		.section	.text.HAL_HASHEx_SHA256_Accmlt_End,"ax",%progbits
 104              		.align	1
 105              		.global	HAL_HASHEx_SHA256_Accmlt_End
 106              		.syntax unified
 107              		.thumb
 108              		.thumb_func
 109              		.fpu fpv4-sp-d16
 111              	HAL_HASHEx_SHA256_Accmlt_End:
 112              		@ args = 4, pretend = 0, frame = 0
 113              		@ frame_needed = 0, uses_anonymous_args = 0
 114              		@ link register save eliminated.
 115 0000 FFF7FEBF 		b	HAL_HASHEx_SHA256_Start
 117              		.section	.text.HAL_HASHEx_SHA224_Start_IT,"ax",%progbits
 118              		.align	1
 119              		.global	HAL_HASHEx_SHA224_Start_IT
 120              		.syntax unified
 121              		.thumb
 122              		.thumb_func
 123              		.fpu fpv4-sp-d16
 125              	HAL_HASHEx_SHA224_Start_IT:
 126              		@ args = 0, pretend = 0, frame = 0
 127              		@ frame_needed = 0, uses_anonymous_args = 0
ARM GAS  /tmp/ccgxHvGY.s 			page 3


 128 0000 13B5     		push	{r0, r1, r4, lr}
 129 0002 4FF48024 		mov	r4, #262144
 130 0006 0094     		str	r4, [sp]
 131 0008 FFF7FEFF 		bl	HASH_Start_IT
 132 000c 02B0     		add	sp, sp, #8
 133              		@ sp needed
 134 000e 10BD     		pop	{r4, pc}
 136              		.section	.text.HAL_HASHEx_SHA224_Accmlt_IT,"ax",%progbits
 137              		.align	1
 138              		.global	HAL_HASHEx_SHA224_Accmlt_IT
 139              		.syntax unified
 140              		.thumb
 141              		.thumb_func
 142              		.fpu fpv4-sp-d16
 144              	HAL_HASHEx_SHA224_Accmlt_IT:
 145              		@ args = 0, pretend = 0, frame = 0
 146              		@ frame_needed = 0, uses_anonymous_args = 0
 147              		@ link register save eliminated.
 148 0000 4FF48023 		mov	r3, #262144
 149 0004 FFF7FEBF 		b	HASH_Accumulate_IT
 151              		.section	.text.HAL_HASHEx_SHA224_Accmlt_End_IT,"ax",%progbits
 152              		.align	1
 153              		.global	HAL_HASHEx_SHA224_Accmlt_End_IT
 154              		.syntax unified
 155              		.thumb
 156              		.thumb_func
 157              		.fpu fpv4-sp-d16
 159              	HAL_HASHEx_SHA224_Accmlt_End_IT:
 160              		@ args = 0, pretend = 0, frame = 0
 161              		@ frame_needed = 0, uses_anonymous_args = 0
 162              		@ link register save eliminated.
 163 0000 FFF7FEBF 		b	HAL_HASHEx_SHA224_Start_IT
 165              		.section	.text.HAL_HASHEx_SHA256_Start_IT,"ax",%progbits
 166              		.align	1
 167              		.global	HAL_HASHEx_SHA256_Start_IT
 168              		.syntax unified
 169              		.thumb
 170              		.thumb_func
 171              		.fpu fpv4-sp-d16
 173              	HAL_HASHEx_SHA256_Start_IT:
 174              		@ args = 0, pretend = 0, frame = 0
 175              		@ frame_needed = 0, uses_anonymous_args = 0
 176 0000 13B5     		push	{r0, r1, r4, lr}
 177 0002 4FF4C024 		mov	r4, #393216
 178 0006 0094     		str	r4, [sp]
 179 0008 FFF7FEFF 		bl	HASH_Start_IT
 180 000c 02B0     		add	sp, sp, #8
 181              		@ sp needed
 182 000e 10BD     		pop	{r4, pc}
 184              		.section	.text.HAL_HASHEx_SHA256_Accmlt_IT,"ax",%progbits
 185              		.align	1
 186              		.global	HAL_HASHEx_SHA256_Accmlt_IT
 187              		.syntax unified
 188              		.thumb
 189              		.thumb_func
 190              		.fpu fpv4-sp-d16
 192              	HAL_HASHEx_SHA256_Accmlt_IT:
ARM GAS  /tmp/ccgxHvGY.s 			page 4


 193              		@ args = 0, pretend = 0, frame = 0
 194              		@ frame_needed = 0, uses_anonymous_args = 0
 195              		@ link register save eliminated.
 196 0000 4FF4C023 		mov	r3, #393216
 197 0004 FFF7FEBF 		b	HASH_Accumulate_IT
 199              		.section	.text.HAL_HASHEx_SHA256_Accmlt_End_IT,"ax",%progbits
 200              		.align	1
 201              		.global	HAL_HASHEx_SHA256_Accmlt_End_IT
 202              		.syntax unified
 203              		.thumb
 204              		.thumb_func
 205              		.fpu fpv4-sp-d16
 207              	HAL_HASHEx_SHA256_Accmlt_End_IT:
 208              		@ args = 0, pretend = 0, frame = 0
 209              		@ frame_needed = 0, uses_anonymous_args = 0
 210              		@ link register save eliminated.
 211 0000 FFF7FEBF 		b	HAL_HASHEx_SHA256_Start_IT
 213              		.section	.text.HAL_HASHEx_SHA224_Start_DMA,"ax",%progbits
 214              		.align	1
 215              		.global	HAL_HASHEx_SHA224_Start_DMA
 216              		.syntax unified
 217              		.thumb
 218              		.thumb_func
 219              		.fpu fpv4-sp-d16
 221              	HAL_HASHEx_SHA224_Start_DMA:
 222              		@ args = 0, pretend = 0, frame = 0
 223              		@ frame_needed = 0, uses_anonymous_args = 0
 224              		@ link register save eliminated.
 225 0000 4FF48023 		mov	r3, #262144
 226 0004 FFF7FEBF 		b	HASH_Start_DMA
 228              		.section	.text.HAL_HASHEx_SHA224_Finish,"ax",%progbits
 229              		.align	1
 230              		.global	HAL_HASHEx_SHA224_Finish
 231              		.syntax unified
 232              		.thumb
 233              		.thumb_func
 234              		.fpu fpv4-sp-d16
 236              	HAL_HASHEx_SHA224_Finish:
 237              		@ args = 0, pretend = 0, frame = 0
 238              		@ frame_needed = 0, uses_anonymous_args = 0
 239              		@ link register save eliminated.
 240 0000 FFF7FEBF 		b	HASH_Finish
 242              		.section	.text.HAL_HASHEx_SHA256_Start_DMA,"ax",%progbits
 243              		.align	1
 244              		.global	HAL_HASHEx_SHA256_Start_DMA
 245              		.syntax unified
 246              		.thumb
 247              		.thumb_func
 248              		.fpu fpv4-sp-d16
 250              	HAL_HASHEx_SHA256_Start_DMA:
 251              		@ args = 0, pretend = 0, frame = 0
 252              		@ frame_needed = 0, uses_anonymous_args = 0
 253              		@ link register save eliminated.
 254 0000 4FF4C023 		mov	r3, #393216
 255 0004 FFF7FEBF 		b	HASH_Start_DMA
 257              		.section	.text.HAL_HASHEx_SHA256_Finish,"ax",%progbits
 258              		.align	1
ARM GAS  /tmp/ccgxHvGY.s 			page 5


 259              		.global	HAL_HASHEx_SHA256_Finish
 260              		.syntax unified
 261              		.thumb
 262              		.thumb_func
 263              		.fpu fpv4-sp-d16
 265              	HAL_HASHEx_SHA256_Finish:
 266              		@ args = 0, pretend = 0, frame = 0
 267              		@ frame_needed = 0, uses_anonymous_args = 0
 268              		@ link register save eliminated.
 269 0000 FFF7FEBF 		b	HASH_Finish
 271              		.section	.text.HAL_HMACEx_SHA224_Start,"ax",%progbits
 272              		.align	1
 273              		.global	HAL_HMACEx_SHA224_Start
 274              		.syntax unified
 275              		.thumb
 276              		.thumb_func
 277              		.fpu fpv4-sp-d16
 279              	HAL_HMACEx_SHA224_Start:
 280              		@ args = 4, pretend = 0, frame = 0
 281              		@ frame_needed = 0, uses_anonymous_args = 0
 282 0000 13B5     		push	{r0, r1, r4, lr}
 283 0002 4FF48024 		mov	r4, #262144
 284 0006 0194     		str	r4, [sp, #4]
 285 0008 049C     		ldr	r4, [sp, #16]
 286 000a 0094     		str	r4, [sp]
 287 000c FFF7FEFF 		bl	HMAC_Start
 288 0010 02B0     		add	sp, sp, #8
 289              		@ sp needed
 290 0012 10BD     		pop	{r4, pc}
 292              		.section	.text.HAL_HMACEx_SHA256_Start,"ax",%progbits
 293              		.align	1
 294              		.global	HAL_HMACEx_SHA256_Start
 295              		.syntax unified
 296              		.thumb
 297              		.thumb_func
 298              		.fpu fpv4-sp-d16
 300              	HAL_HMACEx_SHA256_Start:
 301              		@ args = 4, pretend = 0, frame = 0
 302              		@ frame_needed = 0, uses_anonymous_args = 0
 303 0000 13B5     		push	{r0, r1, r4, lr}
 304 0002 4FF4C024 		mov	r4, #393216
 305 0006 0194     		str	r4, [sp, #4]
 306 0008 049C     		ldr	r4, [sp, #16]
 307 000a 0094     		str	r4, [sp]
 308 000c FFF7FEFF 		bl	HMAC_Start
 309 0010 02B0     		add	sp, sp, #8
 310              		@ sp needed
 311 0012 10BD     		pop	{r4, pc}
 313              		.section	.text.HAL_HMACEx_SHA224_Start_IT,"ax",%progbits
 314              		.align	1
 315              		.global	HAL_HMACEx_SHA224_Start_IT
 316              		.syntax unified
 317              		.thumb
 318              		.thumb_func
 319              		.fpu fpv4-sp-d16
 321              	HAL_HMACEx_SHA224_Start_IT:
 322              		@ args = 0, pretend = 0, frame = 0
ARM GAS  /tmp/ccgxHvGY.s 			page 6


 323              		@ frame_needed = 0, uses_anonymous_args = 0
 324 0000 13B5     		push	{r0, r1, r4, lr}
 325 0002 4FF48024 		mov	r4, #262144
 326 0006 0094     		str	r4, [sp]
 327 0008 FFF7FEFF 		bl	HMAC_Start_IT
 328 000c 02B0     		add	sp, sp, #8
 329              		@ sp needed
 330 000e 10BD     		pop	{r4, pc}
 332              		.section	.text.HAL_HMACEx_SHA256_Start_IT,"ax",%progbits
 333              		.align	1
 334              		.global	HAL_HMACEx_SHA256_Start_IT
 335              		.syntax unified
 336              		.thumb
 337              		.thumb_func
 338              		.fpu fpv4-sp-d16
 340              	HAL_HMACEx_SHA256_Start_IT:
 341              		@ args = 0, pretend = 0, frame = 0
 342              		@ frame_needed = 0, uses_anonymous_args = 0
 343 0000 13B5     		push	{r0, r1, r4, lr}
 344 0002 4FF4C024 		mov	r4, #393216
 345 0006 0094     		str	r4, [sp]
 346 0008 FFF7FEFF 		bl	HMAC_Start_IT
 347 000c 02B0     		add	sp, sp, #8
 348              		@ sp needed
 349 000e 10BD     		pop	{r4, pc}
 351              		.section	.text.HAL_HMACEx_SHA224_Start_DMA,"ax",%progbits
 352              		.align	1
 353              		.global	HAL_HMACEx_SHA224_Start_DMA
 354              		.syntax unified
 355              		.thumb
 356              		.thumb_func
 357              		.fpu fpv4-sp-d16
 359              	HAL_HMACEx_SHA224_Start_DMA:
 360              		@ args = 0, pretend = 0, frame = 0
 361              		@ frame_needed = 0, uses_anonymous_args = 0
 362              		@ link register save eliminated.
 363 0000 4FF48023 		mov	r3, #262144
 364 0004 FFF7FEBF 		b	HMAC_Start_DMA
 366              		.section	.text.HAL_HMACEx_SHA256_Start_DMA,"ax",%progbits
 367              		.align	1
 368              		.global	HAL_HMACEx_SHA256_Start_DMA
 369              		.syntax unified
 370              		.thumb
 371              		.thumb_func
 372              		.fpu fpv4-sp-d16
 374              	HAL_HMACEx_SHA256_Start_DMA:
 375              		@ args = 0, pretend = 0, frame = 0
 376              		@ frame_needed = 0, uses_anonymous_args = 0
 377              		@ link register save eliminated.
 378 0000 4FF4C023 		mov	r3, #393216
 379 0004 FFF7FEBF 		b	HMAC_Start_DMA
 381              		.section	.text.HAL_HMACEx_MD5_Step1_2_DMA,"ax",%progbits
 382              		.align	1
 383              		.global	HAL_HMACEx_MD5_Step1_2_DMA
 384              		.syntax unified
 385              		.thumb
 386              		.thumb_func
ARM GAS  /tmp/ccgxHvGY.s 			page 7


 387              		.fpu fpv4-sp-d16
 389              	HAL_HMACEx_MD5_Step1_2_DMA:
 390              		@ args = 0, pretend = 0, frame = 0
 391              		@ frame_needed = 0, uses_anonymous_args = 0
 392              		@ link register save eliminated.
 393 0000 0123     		movs	r3, #1
 394 0002 80F83730 		strb	r3, [r0, #55]
 395 0006 4FF40033 		mov	r3, #131072
 396 000a FFF7FEBF 		b	HMAC_Start_DMA
 398              		.section	.text.HAL_HMACEx_MD5_Step2_DMA,"ax",%progbits
 399              		.align	1
 400              		.global	HAL_HMACEx_MD5_Step2_DMA
 401              		.syntax unified
 402              		.thumb
 403              		.thumb_func
 404              		.fpu fpv4-sp-d16
 406              	HAL_HMACEx_MD5_Step2_DMA:
 407              		@ args = 0, pretend = 0, frame = 0
 408              		@ frame_needed = 0, uses_anonymous_args = 0
 409              		@ link register save eliminated.
 410 0000 90F83730 		ldrb	r3, [r0, #55]	@ zero_extendqisi2
 411 0004 012B     		cmp	r3, #1
 412 0006 03D1     		bne	.L25
 413 0008 4FF40033 		mov	r3, #131072
 414 000c FFF7FEBF 		b	HMAC_Start_DMA
 415              	.L25:
 416 0010 0120     		movs	r0, #1
 417 0012 7047     		bx	lr
 419              		.section	.text.HAL_HMACEx_MD5_Step2_3_DMA,"ax",%progbits
 420              		.align	1
 421              		.global	HAL_HMACEx_MD5_Step2_3_DMA
 422              		.syntax unified
 423              		.thumb
 424              		.thumb_func
 425              		.fpu fpv4-sp-d16
 427              	HAL_HMACEx_MD5_Step2_3_DMA:
 428              		@ args = 0, pretend = 0, frame = 0
 429              		@ frame_needed = 0, uses_anonymous_args = 0
 430              		@ link register save eliminated.
 431 0000 10B4     		push	{r4}
 432 0002 0024     		movs	r4, #0
 433 0004 80F83740 		strb	r4, [r0, #55]
 434 0008 4FF40033 		mov	r3, #131072
 435 000c 5DF8044B 		ldr	r4, [sp], #4
 436 0010 FFF7FEBF 		b	HMAC_Start_DMA
 438              		.section	.text.HAL_HMACEx_SHA1_Step1_2_DMA,"ax",%progbits
 439              		.align	1
 440              		.global	HAL_HMACEx_SHA1_Step1_2_DMA
 441              		.syntax unified
 442              		.thumb
 443              		.thumb_func
 444              		.fpu fpv4-sp-d16
 446              	HAL_HMACEx_SHA1_Step1_2_DMA:
 447              		@ args = 0, pretend = 0, frame = 0
 448              		@ frame_needed = 0, uses_anonymous_args = 0
 449              		@ link register save eliminated.
 450 0000 0123     		movs	r3, #1
ARM GAS  /tmp/ccgxHvGY.s 			page 8


 451 0002 80F83730 		strb	r3, [r0, #55]
 452 0006 0023     		movs	r3, #0
 453 0008 FFF7FEBF 		b	HMAC_Start_DMA
 455              		.section	.text.HAL_HMACEx_SHA1_Step2_DMA,"ax",%progbits
 456              		.align	1
 457              		.global	HAL_HMACEx_SHA1_Step2_DMA
 458              		.syntax unified
 459              		.thumb
 460              		.thumb_func
 461              		.fpu fpv4-sp-d16
 463              	HAL_HMACEx_SHA1_Step2_DMA:
 464              		@ args = 0, pretend = 0, frame = 0
 465              		@ frame_needed = 0, uses_anonymous_args = 0
 466              		@ link register save eliminated.
 467 0000 90F83730 		ldrb	r3, [r0, #55]	@ zero_extendqisi2
 468 0004 012B     		cmp	r3, #1
 469 0006 02D1     		bne	.L29
 470 0008 0023     		movs	r3, #0
 471 000a FFF7FEBF 		b	HMAC_Start_DMA
 472              	.L29:
 473 000e 0120     		movs	r0, #1
 474 0010 7047     		bx	lr
 476              		.section	.text.HAL_HMACEx_SHA1_Step2_3_DMA,"ax",%progbits
 477              		.align	1
 478              		.global	HAL_HMACEx_SHA1_Step2_3_DMA
 479              		.syntax unified
 480              		.thumb
 481              		.thumb_func
 482              		.fpu fpv4-sp-d16
 484              	HAL_HMACEx_SHA1_Step2_3_DMA:
 485              		@ args = 0, pretend = 0, frame = 0
 486              		@ frame_needed = 0, uses_anonymous_args = 0
 487              		@ link register save eliminated.
 488 0000 0023     		movs	r3, #0
 489 0002 10B4     		push	{r4}
 490 0004 80F83730 		strb	r3, [r0, #55]
 491 0008 5DF8044B 		ldr	r4, [sp], #4
 492 000c FFF7FEBF 		b	HMAC_Start_DMA
 494              		.section	.text.HAL_HMACEx_SHA224_Step1_2_DMA,"ax",%progbits
 495              		.align	1
 496              		.global	HAL_HMACEx_SHA224_Step1_2_DMA
 497              		.syntax unified
 498              		.thumb
 499              		.thumb_func
 500              		.fpu fpv4-sp-d16
 502              	HAL_HMACEx_SHA224_Step1_2_DMA:
 503              		@ args = 0, pretend = 0, frame = 0
 504              		@ frame_needed = 0, uses_anonymous_args = 0
 505              		@ link register save eliminated.
 506 0000 0123     		movs	r3, #1
 507 0002 80F83730 		strb	r3, [r0, #55]
 508 0006 4FF48023 		mov	r3, #262144
 509 000a FFF7FEBF 		b	HMAC_Start_DMA
 511              		.section	.text.HAL_HMACEx_SHA224_Step2_DMA,"ax",%progbits
 512              		.align	1
 513              		.global	HAL_HMACEx_SHA224_Step2_DMA
 514              		.syntax unified
ARM GAS  /tmp/ccgxHvGY.s 			page 9


 515              		.thumb
 516              		.thumb_func
 517              		.fpu fpv4-sp-d16
 519              	HAL_HMACEx_SHA224_Step2_DMA:
 520              		@ args = 0, pretend = 0, frame = 0
 521              		@ frame_needed = 0, uses_anonymous_args = 0
 522              		@ link register save eliminated.
 523 0000 90F83730 		ldrb	r3, [r0, #55]	@ zero_extendqisi2
 524 0004 012B     		cmp	r3, #1
 525 0006 03D1     		bne	.L33
 526 0008 4FF48023 		mov	r3, #262144
 527 000c FFF7FEBF 		b	HMAC_Start_DMA
 528              	.L33:
 529 0010 0120     		movs	r0, #1
 530 0012 7047     		bx	lr
 532              		.section	.text.HAL_HMACEx_SHA224_Step2_3_DMA,"ax",%progbits
 533              		.align	1
 534              		.global	HAL_HMACEx_SHA224_Step2_3_DMA
 535              		.syntax unified
 536              		.thumb
 537              		.thumb_func
 538              		.fpu fpv4-sp-d16
 540              	HAL_HMACEx_SHA224_Step2_3_DMA:
 541              		@ args = 0, pretend = 0, frame = 0
 542              		@ frame_needed = 0, uses_anonymous_args = 0
 543              		@ link register save eliminated.
 544 0000 10B4     		push	{r4}
 545 0002 0024     		movs	r4, #0
 546 0004 80F83740 		strb	r4, [r0, #55]
 547 0008 4FF48023 		mov	r3, #262144
 548 000c 5DF8044B 		ldr	r4, [sp], #4
 549 0010 FFF7FEBF 		b	HMAC_Start_DMA
 551              		.section	.text.HAL_HMACEx_SHA256_Step1_2_DMA,"ax",%progbits
 552              		.align	1
 553              		.global	HAL_HMACEx_SHA256_Step1_2_DMA
 554              		.syntax unified
 555              		.thumb
 556              		.thumb_func
 557              		.fpu fpv4-sp-d16
 559              	HAL_HMACEx_SHA256_Step1_2_DMA:
 560              		@ args = 0, pretend = 0, frame = 0
 561              		@ frame_needed = 0, uses_anonymous_args = 0
 562              		@ link register save eliminated.
 563 0000 0123     		movs	r3, #1
 564 0002 80F83730 		strb	r3, [r0, #55]
 565 0006 4FF4C023 		mov	r3, #393216
 566 000a FFF7FEBF 		b	HMAC_Start_DMA
 568              		.section	.text.HAL_HMACEx_SHA256_Step2_DMA,"ax",%progbits
 569              		.align	1
 570              		.global	HAL_HMACEx_SHA256_Step2_DMA
 571              		.syntax unified
 572              		.thumb
 573              		.thumb_func
 574              		.fpu fpv4-sp-d16
 576              	HAL_HMACEx_SHA256_Step2_DMA:
 577              		@ args = 0, pretend = 0, frame = 0
 578              		@ frame_needed = 0, uses_anonymous_args = 0
ARM GAS  /tmp/ccgxHvGY.s 			page 10


 579              		@ link register save eliminated.
 580 0000 90F83730 		ldrb	r3, [r0, #55]	@ zero_extendqisi2
 581 0004 012B     		cmp	r3, #1
 582 0006 03D1     		bne	.L37
 583 0008 4FF4C023 		mov	r3, #393216
 584 000c FFF7FEBF 		b	HMAC_Start_DMA
 585              	.L37:
 586 0010 0120     		movs	r0, #1
 587 0012 7047     		bx	lr
 589              		.section	.text.HAL_HMACEx_SHA256_Step2_3_DMA,"ax",%progbits
 590              		.align	1
 591              		.global	HAL_HMACEx_SHA256_Step2_3_DMA
 592              		.syntax unified
 593              		.thumb
 594              		.thumb_func
 595              		.fpu fpv4-sp-d16
 597              	HAL_HMACEx_SHA256_Step2_3_DMA:
 598              		@ args = 0, pretend = 0, frame = 0
 599              		@ frame_needed = 0, uses_anonymous_args = 0
 600              		@ link register save eliminated.
 601 0000 10B4     		push	{r4}
 602 0002 0024     		movs	r4, #0
 603 0004 80F83740 		strb	r4, [r0, #55]
 604 0008 4FF4C023 		mov	r3, #393216
 605 000c 5DF8044B 		ldr	r4, [sp], #4
 606 0010 FFF7FEBF 		b	HMAC_Start_DMA
 608              		.ident	"GCC: (15:10.3-2021.07-4) 10.3.1 20210621 (release)"
ARM GAS  /tmp/ccgxHvGY.s 			page 11

