ARM GAS  /tmp/ccPyXy2z.s 			page 1


   1              		.cpu cortex-m33
   2              		.eabi_attribute 27, 1
   3              		.eabi_attribute 28, 1
   4              		.eabi_attribute 20, 1
   5              		.eabi_attribute 21, 1
   6              		.eabi_attribute 23, 3
   7              		.eabi_attribute 24, 1
   8              		.eabi_attribute 25, 1
   9              		.eabi_attribute 26, 1
  10              		.eabi_attribute 30, 4
  11              		.eabi_attribute 34, 1
  12              		.eabi_attribute 18, 4
  13              		.file	"stm32u5xx_ll_exti.c"
  14              		.text
  15              		.section	.text.LL_EXTI_DeInit,"ax",%progbits
  16              		.align	1
  17              		.global	LL_EXTI_DeInit
  18              		.arch armv8-m.main
  19              		.arch_extension dsp
  20              		.syntax unified
  21              		.thumb
  22              		.thumb_func
  23              		.fpu fpv4-sp-d16
  25              	LL_EXTI_DeInit:
  26              		@ args = 0, pretend = 0, frame = 0
  27              		@ frame_needed = 0, uses_anonymous_args = 0
  28              		@ link register save eliminated.
  29 0000 0020     		movs	r0, #0
  30 0002 4FF0FF32 		mov	r2, #-1
  31 0006 064B     		ldr	r3, .L2
  32 0008 C3F88000 		str	r0, [r3, #128]
  33 000c C3F88400 		str	r0, [r3, #132]
  34 0010 1860     		str	r0, [r3]
  35 0012 5860     		str	r0, [r3, #4]
  36 0014 9860     		str	r0, [r3, #8]
  37 0016 DA60     		str	r2, [r3, #12]
  38 0018 1A61     		str	r2, [r3, #16]
  39 001a 9861     		str	r0, [r3, #24]
  40 001c 7047     		bx	lr
  41              	.L3:
  42 001e 00BF     		.align	2
  43              	.L2:
  44 0020 00200246 		.word	1174544384
  46              		.section	.text.LL_EXTI_Init,"ax",%progbits
  47              		.align	1
  48              		.global	LL_EXTI_Init
  49              		.syntax unified
  50              		.thumb
  51              		.thumb_func
  52              		.fpu fpv4-sp-d16
  54              	LL_EXTI_Init:
  55              		@ args = 0, pretend = 0, frame = 0
  56              		@ frame_needed = 0, uses_anonymous_args = 0
  57 0000 0246     		mov	r2, r0
  58 0002 10B5     		push	{r4, lr}
  59 0004 0079     		ldrb	r0, [r0, #4]	@ zero_extendqisi2
  60 0006 1368     		ldr	r3, [r2]
ARM GAS  /tmp/ccPyXy2z.s 			page 2


  61 0008 0028     		cmp	r0, #0
  62 000a 46D0     		beq	.L5
  63 000c 002B     		cmp	r3, #0
  64 000e 52D0     		beq	.L12
  65 0010 5079     		ldrb	r0, [r2, #5]	@ zero_extendqisi2
  66 0012 0128     		cmp	r0, #1
  67 0014 1FD0     		beq	.L7
  68 0016 0228     		cmp	r0, #2
  69 0018 2BD0     		beq	.L8
  70 001a 78BB     		cbnz	r0, .L13
  71 001c 2849     		ldr	r1, .L20
  72 001e D1F88440 		ldr	r4, [r1, #132]
  73 0022 24EA0304 		bic	r4, r4, r3
  74 0026 C1F88440 		str	r4, [r1, #132]
  75 002a D1F88040 		ldr	r4, [r1, #128]
  76 002e 1C43     		orrs	r4, r4, r3
  77 0030 C1F88040 		str	r4, [r1, #128]
  78              	.L9:
  79 0034 9279     		ldrb	r2, [r2, #6]	@ zero_extendqisi2
  80 0036 6AB1     		cbz	r2, .L6
  81 0038 022A     		cmp	r2, #2
  82 003a 21D0     		beq	.L10
  83 003c 032A     		cmp	r2, #3
  84 003e 28D0     		beq	.L11
  85 0040 012A     		cmp	r2, #1
  86 0042 3AD1     		bne	.L14
  87 0044 1E4A     		ldr	r2, .L20
  88 0046 5168     		ldr	r1, [r2, #4]
  89 0048 21EA0301 		bic	r1, r1, r3
  90 004c 5160     		str	r1, [r2, #4]
  91 004e 1168     		ldr	r1, [r2]
  92 0050 0B43     		orrs	r3, r3, r1
  93 0052 1360     		str	r3, [r2]
  94              	.L6:
  95 0054 10BD     		pop	{r4, pc}
  96              	.L7:
  97 0056 1A49     		ldr	r1, .L20
  98 0058 D1F88000 		ldr	r0, [r1, #128]
  99 005c 20EA0300 		bic	r0, r0, r3
 100              	.L18:
 101 0060 C1F88000 		str	r0, [r1, #128]
 102 0064 D1F88400 		ldr	r0, [r1, #132]
 103 0068 1843     		orrs	r0, r0, r3
 104 006a C1F88400 		str	r0, [r1, #132]
 105 006e 0020     		movs	r0, #0
 106 0070 E0E7     		b	.L9
 107              	.L8:
 108 0072 1349     		ldr	r1, .L20
 109 0074 D1F88000 		ldr	r0, [r1, #128]
 110 0078 1843     		orrs	r0, r0, r3
 111 007a F1E7     		b	.L18
 112              	.L13:
 113 007c 0120     		movs	r0, #1
 114 007e D9E7     		b	.L9
 115              	.L10:
 116 0080 0F4A     		ldr	r2, .L20
 117 0082 1168     		ldr	r1, [r2]
ARM GAS  /tmp/ccPyXy2z.s 			page 3


 118 0084 21EA0301 		bic	r1, r1, r3
 119              	.L19:
 120 0088 1160     		str	r1, [r2]
 121 008a 5168     		ldr	r1, [r2, #4]
 122 008c 0B43     		orrs	r3, r3, r1
 123 008e 5360     		str	r3, [r2, #4]
 124 0090 E0E7     		b	.L6
 125              	.L11:
 126 0092 0B4A     		ldr	r2, .L20
 127 0094 1168     		ldr	r1, [r2]
 128 0096 1943     		orrs	r1, r1, r3
 129 0098 F6E7     		b	.L19
 130              	.L5:
 131 009a 094A     		ldr	r2, .L20
 132 009c D2F88010 		ldr	r1, [r2, #128]
 133 00a0 21EA0301 		bic	r1, r1, r3
 134 00a4 C2F88010 		str	r1, [r2, #128]
 135 00a8 D2F88410 		ldr	r1, [r2, #132]
 136 00ac 21EA0303 		bic	r3, r1, r3
 137 00b0 C2F88430 		str	r3, [r2, #132]
 138 00b4 CEE7     		b	.L6
 139              	.L12:
 140 00b6 1846     		mov	r0, r3
 141 00b8 CCE7     		b	.L6
 142              	.L14:
 143 00ba 0120     		movs	r0, #1
 144 00bc CAE7     		b	.L6
 145              	.L21:
 146 00be 00BF     		.align	2
 147              	.L20:
 148 00c0 00200246 		.word	1174544384
 150              		.section	.text.LL_EXTI_StructInit,"ax",%progbits
 151              		.align	1
 152              		.global	LL_EXTI_StructInit
 153              		.syntax unified
 154              		.thumb
 155              		.thumb_func
 156              		.fpu fpv4-sp-d16
 158              	LL_EXTI_StructInit:
 159              		@ args = 0, pretend = 0, frame = 0
 160              		@ frame_needed = 0, uses_anonymous_args = 0
 161              		@ link register save eliminated.
 162 0000 0023     		movs	r3, #0
 163 0002 0360     		str	r3, [r0]
 164 0004 8380     		strh	r3, [r0, #4]	@ movhi
 165 0006 0223     		movs	r3, #2
 166 0008 8371     		strb	r3, [r0, #6]
 167 000a 7047     		bx	lr
 169              		.ident	"GCC: (15:10.3-2021.07-4) 10.3.1 20210621 (release)"
ARM GAS  /tmp/ccPyXy2z.s 			page 4

