ARM GAS  /tmp/ccfMDNDa.s 			page 1


   1              		.cpu cortex-m33
   2              		.eabi_attribute 27, 1
   3              		.eabi_attribute 28, 1
   4              		.eabi_attribute 20, 1
   5              		.eabi_attribute 21, 1
   6              		.eabi_attribute 23, 3
   7              		.eabi_attribute 24, 1
   8              		.eabi_attribute 25, 1
   9              		.eabi_attribute 26, 1
  10              		.eabi_attribute 30, 4
  11              		.eabi_attribute 34, 1
  12              		.eabi_attribute 18, 4
  13              		.file	"reduce.c"
  14              		.text
  15              		.section	.text.PQCLEAN_MLDSA65_CLEAN_montgomery_reduce,"ax",%progbits
  16              		.align	1
  17              		.global	PQCLEAN_MLDSA65_CLEAN_montgomery_reduce
  18              		.arch armv8-m.main
  19              		.arch_extension dsp
  20              		.syntax unified
  21              		.thumb
  22              		.thumb_func
  23              		.fpu fpv4-sp-d16
  25              	PQCLEAN_MLDSA65_CLEAN_montgomery_reduce:
  26              		@ args = 0, pretend = 0, frame = 0
  27              		@ frame_needed = 0, uses_anonymous_args = 0
  28 0000 C0EBC002 		rsb	r2, r0, r0, lsl #3
  29 0004 10B5     		push	{r4, lr}
  30 0006 00EB8222 		add	r2, r0, r2, lsl #10
  31 000a 034C     		ldr	r4, .L2
  32 000c 00EB4232 		add	r2, r0, r2, lsl #13
  33 0010 C2FB0401 		smlal	r0, r1, r2, r4
  34 0014 0846     		mov	r0, r1
  35 0016 10BD     		pop	{r4, pc}
  36              	.L3:
  37              		.align	2
  38              	.L2:
  39 0018 FF1F80FF 		.word	-8380417
  41              		.section	.text.PQCLEAN_MLDSA65_CLEAN_reduce32,"ax",%progbits
  42              		.align	1
  43              		.global	PQCLEAN_MLDSA65_CLEAN_reduce32
  44              		.syntax unified
  45              		.thumb
  46              		.thumb_func
  47              		.fpu fpv4-sp-d16
  49              	PQCLEAN_MLDSA65_CLEAN_reduce32:
  50              		@ args = 0, pretend = 0, frame = 0
  51              		@ frame_needed = 0, uses_anonymous_args = 0
  52              		@ link register save eliminated.
  53 0000 034A     		ldr	r2, .L5
  54 0002 00F58003 		add	r3, r0, #4194304
  55 0006 DB15     		asrs	r3, r3, #23
  56 0008 02FB0300 		mla	r0, r2, r3, r0
  57 000c 7047     		bx	lr
  58              	.L6:
  59 000e 00BF     		.align	2
  60              	.L5:
ARM GAS  /tmp/ccfMDNDa.s 			page 2


  61 0010 FF1F80FF 		.word	-8380417
  63              		.section	.text.PQCLEAN_MLDSA65_CLEAN_caddq,"ax",%progbits
  64              		.align	1
  65              		.global	PQCLEAN_MLDSA65_CLEAN_caddq
  66              		.syntax unified
  67              		.thumb
  68              		.thumb_func
  69              		.fpu fpv4-sp-d16
  71              	PQCLEAN_MLDSA65_CLEAN_caddq:
  72              		@ args = 0, pretend = 0, frame = 0
  73              		@ frame_needed = 0, uses_anonymous_args = 0
  74              		@ link register save eliminated.
  75 0000 024B     		ldr	r3, .L8
  76 0002 03EAE073 		and	r3, r3, r0, asr #31
  77 0006 1844     		add	r0, r0, r3
  78 0008 7047     		bx	lr
  79              	.L9:
  80 000a 00BF     		.align	2
  81              	.L8:
  82 000c 01E07F00 		.word	8380417
  84              		.section	.text.PQCLEAN_MLDSA65_CLEAN_freeze,"ax",%progbits
  85              		.align	1
  86              		.global	PQCLEAN_MLDSA65_CLEAN_freeze
  87              		.syntax unified
  88              		.thumb
  89              		.thumb_func
  90              		.fpu fpv4-sp-d16
  92              	PQCLEAN_MLDSA65_CLEAN_freeze:
  93              		@ args = 0, pretend = 0, frame = 0
  94              		@ frame_needed = 0, uses_anonymous_args = 0
  95 0000 08B5     		push	{r3, lr}
  96 0002 FFF7FEFF 		bl	PQCLEAN_MLDSA65_CLEAN_reduce32
  97 0006 024B     		ldr	r3, .L11
  98 0008 03EAE073 		and	r3, r3, r0, asr #31
  99 000c 1844     		add	r0, r0, r3
 100 000e 08BD     		pop	{r3, pc}
 101              	.L12:
 102              		.align	2
 103              	.L11:
 104 0010 01E07F00 		.word	8380417
 106              		.ident	"GCC: (15:10.3-2021.07-4) 10.3.1 20210621 (release)"
ARM GAS  /tmp/ccfMDNDa.s 			page 3

