ARM GAS  /tmp/cc0JdWKx.s 			page 1


   1              		.cpu cortex-m33
   2              		.eabi_attribute 27, 1
   3              		.eabi_attribute 28, 1
   4              		.eabi_attribute 20, 1
   5              		.eabi_attribute 21, 1
   6              		.eabi_attribute 23, 3
   7              		.eabi_attribute 24, 1
   8              		.eabi_attribute 25, 1
   9              		.eabi_attribute 26, 1
  10              		.eabi_attribute 30, 4
  11              		.eabi_attribute 34, 1
  12              		.eabi_attribute 18, 4
  13              		.file	"ssl.c"
  14              		.text
  15              		.section	.text.isValidCurveGroup,"ax",%progbits
  16              		.align	1
  17              		.arch armv8-m.main
  18              		.arch_extension dsp
  19              		.syntax unified
  20              		.thumb
  21              		.thumb_func
  22              		.fpu fpv4-sp-d16
  24              	isValidCurveGroup:
  25              		@ args = 0, pretend = 0, frame = 0
  26              		@ frame_needed = 0, uses_anonymous_args = 0
  27              		@ link register save eliminated.
  28 0000 40F20223 		movw	r3, #514
  29 0004 9842     		cmp	r0, r3
  30 0006 0FD8     		bhi	.L2
  31 0008 B0F5007F 		cmp	r0, #512
  32 000c 1ED2     		bcs	.L8
  33 000e 2928     		cmp	r0, #41
  34 0010 1CD0     		beq	.L8
  35 0012 05D8     		bhi	.L4
  36 0014 0F38     		subs	r0, r0, #15
  37 0016 0F28     		cmp	r0, #15
  38              	.L9:
  39 0018 8CBF     		ite	hi
  40 001a 0020     		movhi	r0, #0
  41 001c 0120     		movls	r0, #1
  42 001e 7047     		bx	lr
  43              	.L4:
  44 0020 A0F58070 		sub	r0, r0, #256
  45 0024 0428     		cmp	r0, #4
  46 0026 F7E7     		b	.L9
  47              	.L2:
  48 0028 42F64D73 		movw	r3, #12109
  49 002c 9842     		cmp	r0, r3
  50 002e 08D8     		bhi	.L5
  51 0030 42F64A73 		movw	r3, #12106
  52 0034 9842     		cmp	r0, r3
  53 0036 09D8     		bhi	.L8
  54 0038 A0F58F50 		sub	r0, r0, #4576
  55 003c 0B38     		subs	r0, r0, #11
  56 003e 0228     		cmp	r0, #2
  57 0040 EAE7     		b	.L9
  58              	.L5:
ARM GAS  /tmp/cc0JdWKx.s 			page 2


  59 0042 A0F53E50 		sub	r0, r0, #12160
  60 0046 3638     		subs	r0, r0, #54
  61 0048 0128     		cmp	r0, #1
  62 004a E5E7     		b	.L9
  63              	.L8:
  64 004c 0120     		movs	r0, #1
  65 004e 7047     		bx	lr
  67              		.section	.text.HashSigner,"ax",%progbits
  68              		.align	1
  69              		.syntax unified
  70              		.thumb
  71              		.thumb_func
  72              		.fpu fpv4-sp-d16
  74              	HashSigner:
  75              		@ args = 0, pretend = 0, frame = 0
  76              		@ frame_needed = 0, uses_anonymous_args = 0
  77              		@ link register save eliminated.
  78 0000 0B22     		movs	r2, #11
  79 0002 0368     		ldr	r3, [r0]	@ unaligned
  80 0004 1BBA     		rev	r3, r3
  81 0006 B3FBF2F0 		udiv	r0, r3, r2
  82 000a 02FB1030 		mls	r0, r2, r0, r3
  83 000e 7047     		bx	lr
  85              		.section	.text.ModeToVerifyOptions,"ax",%progbits
  86              		.align	1
  87              		.syntax unified
  88              		.thumb
  89              		.thumb_func
  90              		.fpu fpv4-sp-d16
  92              	ModeToVerifyOptions:
  93              		@ args = 0, pretend = 0, frame = 8
  94              		@ frame_needed = 0, uses_anonymous_args = 0
  95              		@ link register save eliminated.
  96 0000 0023     		movs	r3, #0
  97 0002 82B0     		sub	sp, sp, #8
  98 0004 B0F5007F 		cmp	r0, #512
  99 0008 8DF80430 		strb	r3, [sp, #4]
 100 000c 15D0     		beq	.L13
 101 000e B0FA80F2 		clz	r2, r0
 102 0012 5209     		lsrs	r2, r2, #5
 103 0014 62F34103 		bfi	r3, r2, #1, #1
 104 0018 DAB2     		uxtb	r2, r3
 105 001a 8DF80430 		strb	r3, [sp, #4]
 106 001e 62B9     		cbnz	r2, .L13
 107 0020 C0F34001 		ubfx	r1, r0, #1, #1
 108 0024 00F00103 		and	r3, r0, #1
 109 0028 43EA8103 		orr	r3, r3, r1, lsl #2
 110 002c C0F30010 		ubfx	r0, r0, #4, #1
 111 0030 43EAC000 		orr	r0, r3, r0, lsl #3
 112 0034 1043     		orrs	r0, r0, r2
 113 0036 8DF80400 		strb	r0, [sp, #4]
 114              	.L13:
 115 003a 9DF80400 		ldrb	r0, [sp, #4]	@ zero_extendqisi2
 116 003e 02B0     		add	sp, sp, #8
 117              		@ sp needed
 118 0040 7047     		bx	lr
 120              		.section	.text.ForceZero,"ax",%progbits
ARM GAS  /tmp/cc0JdWKx.s 			page 3


 121              		.align	1
 122              		.syntax unified
 123              		.thumb
 124              		.thumb_func
 125              		.fpu fpv4-sp-d16
 127              	ForceZero:
 128              		@ args = 0, pretend = 0, frame = 8
 129              		@ frame_needed = 0, uses_anonymous_args = 0
 130 0000 73B5     		push	{r0, r1, r4, r5, r6, lr}
 131 0002 0346     		mov	r3, r0
 132 0004 0C46     		mov	r4, r1
 133 0006 BFF35B8F 		dmb	ish
 134 000a 0022     		movs	r2, #0
 135              	.L16:
 136 000c 13F00301 		ands	r1, r3, #3
 137 0010 13D1     		bne	.L18
 138 0012 24F00305 		bic	r5, r4, #3
 139 0016 2A46     		mov	r2, r5
 140 0018 1846     		mov	r0, r3
 141 001a 0191     		str	r1, [sp, #4]
 142 001c FFF7FEFF 		bl	memset
 143 0020 6FF00302 		mvn	r2, #3
 144 0024 A608     		lsrs	r6, r4, #2
 145 0026 02FB0642 		mla	r2, r2, r6, r4
 146 002a 0199     		ldr	r1, [sp, #4]
 147 002c 2844     		add	r0, r0, r5
 148 002e FFF7FEFF 		bl	memset
 149 0032 BFF35B8F 		dmb	ish
 150              	.L15:
 151 0036 02B0     		add	sp, sp, #8
 152              		@ sp needed
 153 0038 70BD     		pop	{r4, r5, r6, pc}
 154              	.L18:
 155 003a 002C     		cmp	r4, #0
 156 003c FBD0     		beq	.L15
 157 003e 03F8012B 		strb	r2, [r3], #1
 158 0042 013C     		subs	r4, r4, #1
 159 0044 E2E7     		b	.L16
 161              		.section	.text.wolfSSL_read_internal,"ax",%progbits
 162              		.align	1
 163              		.syntax unified
 164              		.thumb
 165              		.thumb_func
 166              		.fpu fpv4-sp-d16
 168              	wolfSSL_read_internal:
 169              		@ args = 0, pretend = 0, frame = 0
 170              		@ frame_needed = 0, uses_anonymous_args = 0
 171 0000 10B5     		push	{r4, lr}
 172 0002 28B1     		cbz	r0, .L26
 173 0004 21B1     		cbz	r1, .L26
 174 0006 FFF7FEFF 		bl	ReceiveData
 175 000a 40EAE070 		orr	r0, r0, r0, asr #31
 176              	.L23:
 177 000e 10BD     		pop	{r4, pc}
 178              	.L26:
 179 0010 6FF0AC00 		mvn	r0, #172
 180 0014 FBE7     		b	.L23
ARM GAS  /tmp/cc0JdWKx.s 			page 4


 182              		.section	.text.DataToDerBuffer,"ax",%progbits
 183              		.align	1
 184              		.syntax unified
 185              		.thumb
 186              		.thumb_func
 187              		.fpu fpv4-sp-d16
 189              	DataToDerBuffer:
 190              		@ args = 16, pretend = 0, frame = 8
 191              		@ frame_needed = 0, uses_anonymous_args = 0
 192 0000 2DE9F043 		push	{r4, r5, r6, r7, r8, r9, lr}
 193 0004 1D46     		mov	r5, r3
 194 0006 0023     		movs	r3, #0
 195 0008 87B0     		sub	sp, sp, #28
 196 000a 012A     		cmp	r2, #1
 197 000c DDE90E89 		ldrd	r8, r9, [sp, #56]
 198 0010 0646     		mov	r6, r0
 199 0012 DDE9107C 		ldrd	r7, ip, [sp, #64]
 200 0016 0C46     		mov	r4, r1
 201 0018 C8F80030 		str	r3, [r8]
 202 001c 10D1     		bne	.L28
 203 001e 3B46     		mov	r3, r7
 204 0020 2A46     		mov	r2, r5
 205 0022 CDE9018C 		strd	r8, ip, [sp, #4]
 206 0026 CDF80090 		str	r9, [sp]
 207 002a FFF7FEFF 		bl	PemToDer
 208 002e 0446     		mov	r4, r0
 209 0030 10B1     		cbz	r0, .L27
 210 0032 3846     		mov	r0, r7
 211 0034 FFF7FEFF 		bl	FreeDer
 212              	.L27:
 213 0038 2046     		mov	r0, r4
 214 003a 07B0     		add	sp, sp, #28
 215              		@ sp needed
 216 003c BDE8F083 		pop	{r4, r5, r6, r7, r8, r9, pc}
 217              	.L28:
 218 0040 04AA     		add	r2, sp, #16
 219 0042 CDE90433 		strd	r3, r3, [sp, #16]
 220 0046 0093     		str	r3, [sp]
 221 0048 0B46     		mov	r3, r1
 222 004a 05A9     		add	r1, sp, #20
 223 004c FFF7FEFF 		bl	GetSequence_ex
 224 0050 0028     		cmp	r0, #0
 225 0052 A2BF     		ittt	ge
 226 0054 DDE90432 		ldrdge	r3, r2, [sp, #16]
 227 0058 9B18     		addge	r3, r3, r2
 228 005a 0493     		strge	r3, [sp, #16]
 229 005c 049A     		ldr	r2, [sp, #16]
 230 005e 002A     		cmp	r2, #0
 231 0060 C8F80020 		str	r2, [r8]
 232 0064 02DC     		bgt	.L31
 233              	.L33:
 234 0066 6FF08B04 		mvn	r4, #139
 235 006a E5E7     		b	.L27
 236              	.L31:
 237 006c A242     		cmp	r2, r4
 238 006e FADC     		bgt	.L33
 239 0070 2B46     		mov	r3, r5
ARM GAS  /tmp/cc0JdWKx.s 			page 5


 240 0072 3146     		mov	r1, r6
 241 0074 3846     		mov	r0, r7
 242 0076 CDF83890 		str	r9, [sp, #56]
 243 007a 07B0     		add	sp, sp, #28
 244              		@ sp needed
 245 007c BDE8F043 		pop	{r4, r5, r6, r7, r8, r9, lr}
 246 0080 FFF7FEBF 		b	AllocCopyDer
 248              		.section	.text.wolfSSL_CertManagerFree,"ax",%progbits
 249              		.align	1
 250              		.global	wolfSSL_CertManagerFree
 251              		.syntax unified
 252              		.thumb
 253              		.thumb_func
 254              		.fpu fpv4-sp-d16
 256              	wolfSSL_CertManagerFree:
 257              		@ args = 0, pretend = 0, frame = 0
 258              		@ frame_needed = 0, uses_anonymous_args = 0
 259 0000 10B5     		push	{r4, lr}
 260 0002 0446     		mov	r4, r0
 261 0004 88B1     		cbz	r0, .L38
 262 0006 436E     		ldr	r3, [r0, #100]
 263 0008 5A1E     		subs	r2, r3, #1
 264 000a 012B     		cmp	r3, #1
 265 000c 4266     		str	r2, [r0, #100]
 266 000e 0CD1     		bne	.L38
 267 0010 C26A     		ldr	r2, [r0, #44]
 268 0012 0B21     		movs	r1, #11
 269 0014 FFF7FEFF 		bl	FreeSignerTable
 270 0018 04F15C00 		add	r0, r4, #92
 271 001c FFF7FEFF 		bl	wc_FreeMutex
 272 0020 2046     		mov	r0, r4
 273 0022 BDE81040 		pop	{r4, lr}
 274 0026 FFF7FEBF 		b	wolfSSL_Free
 275              	.L38:
 276 002a 10BD     		pop	{r4, pc}
 278              		.section	.text.wolfSSL_CertManagerNew_ex,"ax",%progbits
 279              		.align	1
 280              		.global	wolfSSL_CertManagerNew_ex
 281              		.syntax unified
 282              		.thumb
 283              		.thumb_func
 284              		.fpu fpv4-sp-d16
 286              	wolfSSL_CertManagerNew_ex:
 287              		@ args = 0, pretend = 0, frame = 0
 288              		@ frame_needed = 0, uses_anonymous_args = 0
 289 0000 38B5     		push	{r3, r4, r5, lr}
 290 0002 0546     		mov	r5, r0
 291 0004 6820     		movs	r0, #104
 292 0006 FFF7FEFF 		bl	wolfSSL_Malloc
 293 000a 0446     		mov	r4, r0
 294 000c 70B1     		cbz	r0, .L42
 295 000e 6822     		movs	r2, #104
 296 0010 0021     		movs	r1, #0
 297 0012 FFF7FEFF 		bl	memset
 298 0016 04F15C00 		add	r0, r4, #92
 299 001a FFF7FEFF 		bl	wc_InitMutex
 300 001e 38B9     		cbnz	r0, .L44
ARM GAS  /tmp/cc0JdWKx.s 			page 6


 301 0020 0123     		movs	r3, #1
 302 0022 6366     		str	r3, [r4, #100]
 303 0024 1C23     		movs	r3, #28
 304 0026 E562     		str	r5, [r4, #44]
 305 0028 A4F86230 		strh	r3, [r4, #98]	@ movhi
 306              	.L42:
 307 002c 2046     		mov	r0, r4
 308 002e 38BD     		pop	{r3, r4, r5, pc}
 309              	.L44:
 310 0030 2046     		mov	r0, r4
 311 0032 FFF7FEFF 		bl	wolfSSL_CertManagerFree
 312 0036 0024     		movs	r4, #0
 313 0038 F8E7     		b	.L42
 315              		.section	.text.wolfSSL_CertManagerNew,"ax",%progbits
 316              		.align	1
 317              		.global	wolfSSL_CertManagerNew
 318              		.syntax unified
 319              		.thumb
 320              		.thumb_func
 321              		.fpu fpv4-sp-d16
 323              	wolfSSL_CertManagerNew:
 324              		@ args = 0, pretend = 0, frame = 0
 325              		@ frame_needed = 0, uses_anonymous_args = 0
 326              		@ link register save eliminated.
 327 0000 0020     		movs	r0, #0
 328 0002 FFF7FEBF 		b	wolfSSL_CertManagerNew_ex
 330              		.section	.text.wolfSSL_CertManager_up_ref,"ax",%progbits
 331              		.align	1
 332              		.global	wolfSSL_CertManager_up_ref
 333              		.syntax unified
 334              		.thumb
 335              		.thumb_func
 336              		.fpu fpv4-sp-d16
 338              	wolfSSL_CertManager_up_ref:
 339              		@ args = 0, pretend = 0, frame = 0
 340              		@ frame_needed = 0, uses_anonymous_args = 0
 341              		@ link register save eliminated.
 342 0000 18B1     		cbz	r0, .L49
 343 0002 436E     		ldr	r3, [r0, #100]
 344 0004 0133     		adds	r3, r3, #1
 345 0006 4366     		str	r3, [r0, #100]
 346 0008 0120     		movs	r0, #1
 347              	.L49:
 348 000a 7047     		bx	lr
 350              		.section	.text.wolfSSL_CertManagerUnloadCAs,"ax",%progbits
 351              		.align	1
 352              		.global	wolfSSL_CertManagerUnloadCAs
 353              		.syntax unified
 354              		.thumb
 355              		.thumb_func
 356              		.fpu fpv4-sp-d16
 358              	wolfSSL_CertManagerUnloadCAs:
 359              		@ args = 0, pretend = 0, frame = 0
 360              		@ frame_needed = 0, uses_anonymous_args = 0
 361 0000 38B5     		push	{r3, r4, r5, lr}
 362 0002 0446     		mov	r4, r0
 363 0004 78B1     		cbz	r0, .L54
ARM GAS  /tmp/cc0JdWKx.s 			page 7


 364 0006 00F15C05 		add	r5, r0, #92
 365 000a 2846     		mov	r0, r5
 366 000c FFF7FEFF 		bl	wc_LockMutex
 367 0010 60B9     		cbnz	r0, .L55
 368 0012 0B21     		movs	r1, #11
 369 0014 2046     		mov	r0, r4
 370 0016 E26A     		ldr	r2, [r4, #44]
 371 0018 FFF7FEFF 		bl	FreeSignerTable
 372 001c 2846     		mov	r0, r5
 373 001e FFF7FEFF 		bl	wc_UnLockMutex
 374 0022 0120     		movs	r0, #1
 375              	.L52:
 376 0024 38BD     		pop	{r3, r4, r5, pc}
 377              	.L54:
 378 0026 6FF0AC00 		mvn	r0, #172
 379 002a FBE7     		b	.L52
 380              	.L55:
 381 002c 6FF06900 		mvn	r0, #105
 382 0030 F8E7     		b	.L52
 384              		.section	.text.wolfSSL_CertManagerUnloadTypeCerts,"ax",%progbits
 385              		.align	1
 386              		.global	wolfSSL_CertManagerUnloadTypeCerts
 387              		.syntax unified
 388              		.thumb
 389              		.thumb_func
 390              		.fpu fpv4-sp-d16
 392              	wolfSSL_CertManagerUnloadTypeCerts:
 393              		@ args = 0, pretend = 0, frame = 8
 394              		@ frame_needed = 0, uses_anonymous_args = 0
 395 0000 37B5     		push	{r0, r1, r2, r4, r5, lr}
 396 0002 0446     		mov	r4, r0
 397 0004 0191     		str	r1, [sp, #4]
 398 0006 88B1     		cbz	r0, .L58
 399 0008 00F15C05 		add	r5, r0, #92
 400 000c 2846     		mov	r0, r5
 401 000e FFF7FEFF 		bl	wc_LockMutex
 402 0012 70B9     		cbnz	r0, .L59
 403 0014 0B21     		movs	r1, #11
 404 0016 2046     		mov	r0, r4
 405 0018 E36A     		ldr	r3, [r4, #44]
 406 001a 019A     		ldr	r2, [sp, #4]
 407 001c FFF7FEFF 		bl	FreeSignerTableType
 408 0020 2846     		mov	r0, r5
 409 0022 FFF7FEFF 		bl	wc_UnLockMutex
 410 0026 0120     		movs	r0, #1
 411              	.L56:
 412 0028 03B0     		add	sp, sp, #12
 413              		@ sp needed
 414 002a 30BD     		pop	{r4, r5, pc}
 415              	.L58:
 416 002c 6FF0AC00 		mvn	r0, #172
 417 0030 FAE7     		b	.L56
 418              	.L59:
 419 0032 6FF06900 		mvn	r0, #105
 420 0036 F7E7     		b	.L56
 422              		.section	.text.wolfSSL_CertManagerUnloadIntermediateCerts,"ax",%progbits
 423              		.align	1
ARM GAS  /tmp/cc0JdWKx.s 			page 8


 424              		.global	wolfSSL_CertManagerUnloadIntermediateCerts
 425              		.syntax unified
 426              		.thumb
 427              		.thumb_func
 428              		.fpu fpv4-sp-d16
 430              	wolfSSL_CertManagerUnloadIntermediateCerts:
 431              		@ args = 0, pretend = 0, frame = 0
 432              		@ frame_needed = 0, uses_anonymous_args = 0
 433              		@ link register save eliminated.
 434 0000 0221     		movs	r1, #2
 435 0002 FFF7FEBF 		b	wolfSSL_CertManagerUnloadTypeCerts
 437              		.section	.text.wolfSSL_CertManagerSetVerify,"ax",%progbits
 438              		.align	1
 439              		.global	wolfSSL_CertManagerSetVerify
 440              		.syntax unified
 441              		.thumb
 442              		.thumb_func
 443              		.fpu fpv4-sp-d16
 445              	wolfSSL_CertManagerSetVerify:
 446              		@ args = 0, pretend = 0, frame = 0
 447              		@ frame_needed = 0, uses_anonymous_args = 0
 448              		@ link register save eliminated.
 449 0000 00B1     		cbz	r0, .L61
 450 0002 0164     		str	r1, [r0, #64]
 451              	.L61:
 452 0004 7047     		bx	lr
 454              		.section	.text.CM_VerifyBuffer_ex,"ax",%progbits
 455              		.align	1
 456              		.global	CM_VerifyBuffer_ex
 457              		.syntax unified
 458              		.thumb
 459              		.thumb_func
 460              		.fpu fpv4-sp-d16
 462              	CM_VerifyBuffer_ex:
 463              		@ args = 4, pretend = 0, frame = 16
 464              		@ frame_needed = 0, uses_anonymous_args = 0
 465 0000 2DE9F047 		push	{r4, r5, r6, r7, r8, r9, r10, lr}
 466 0004 0024     		movs	r4, #0
 467 0006 88B0     		sub	sp, sp, #32
 468 0008 0746     		mov	r7, r0
 469 000a 4FF45970 		mov	r0, #868
 470 000e 8846     		mov	r8, r1
 471 0010 9146     		mov	r9, r2
 472 0012 1D46     		mov	r5, r3
 473 0014 DDF840A0 		ldr	r10, [sp, #64]
 474 0018 0594     		str	r4, [sp, #20]
 475 001a FFF7FEFF 		bl	wolfSSL_Malloc
 476 001e 0646     		mov	r6, r0
 477 0020 10B9     		cbnz	r0, .L86
 478              	.L77:
 479 0022 6FF07C04 		mvn	r4, #124
 480 0026 4EE0     		b	.L69
 481              	.L86:
 482 0028 4FF45972 		mov	r2, #868
 483 002c 2146     		mov	r1, r4
 484 002e FFF7FEFF 		bl	memset
 485 0032 012D     		cmp	r5, #1
ARM GAS  /tmp/cc0JdWKx.s 			page 9


 486 0034 11D1     		bne	.L75
 487 0036 FB6A     		ldr	r3, [r7, #44]
 488 0038 2246     		mov	r2, r4
 489 003a CDE90144 		strd	r4, r4, [sp, #4]
 490 003e 0093     		str	r3, [sp]
 491 0040 4946     		mov	r1, r9
 492 0042 4046     		mov	r0, r8
 493 0044 05AB     		add	r3, sp, #20
 494 0046 FFF7FEFF 		bl	PemToDer
 495 004a 0446     		mov	r4, r0
 496 004c 0028     		cmp	r0, #0
 497 004e 3AD1     		bne	.L69
 498 0050 059B     		ldr	r3, [sp, #20]
 499 0052 D3F80080 		ldr	r8, [r3]
 500 0056 D3F80890 		ldr	r9, [r3, #8]
 501              	.L75:
 502 005a 4A46     		mov	r2, r9
 503 005c 4146     		mov	r1, r8
 504 005e 3046     		mov	r0, r6
 505 0060 FB6A     		ldr	r3, [r7, #44]
 506 0062 FFF7FEFF 		bl	InitDecodedCert
 507 0066 0021     		movs	r1, #0
 508 0068 3B46     		mov	r3, r7
 509 006a 0122     		movs	r2, #1
 510 006c 3046     		mov	r0, r6
 511 006e 0091     		str	r1, [sp]
 512 0070 FFF7FEFF 		bl	ParseCertRelative
 513 0074 3B6C     		ldr	r3, [r7, #64]
 514 0076 0446     		mov	r4, r0
 515 0078 2BB3     		cbz	r3, .L69
 516 007a 2C20     		movs	r0, #44
 517 007c FFF7FEFF 		bl	wolfSSL_Malloc
 518 0080 0546     		mov	r5, r0
 519 0082 0028     		cmp	r0, #0
 520 0084 CDD0     		beq	.L77
 521 0086 2822     		movs	r2, #40
 522 0088 0021     		movs	r1, #0
 523 008a 0430     		adds	r0, r0, #4
 524 008c FFF7FEFF 		bl	memset
 525 0090 0123     		movs	r3, #1
 526 0092 6B61     		str	r3, [r5, #20]
 527 0094 06AB     		add	r3, sp, #24
 528 0096 CDE90689 		strd	r8, r9, [sp, #24]
 529 009a 2B60     		str	r3, [r5]
 530 009c 95F82930 		ldrb	r3, [r5, #41]	@ zero_extendqisi2
 531 00a0 BAF1000F 		cmp	r10, #0
 532 00a4 14BF     		ite	ne
 533 00a6 5246     		movne	r2, r10
 534 00a8 2246     		moveq	r2, r4
 535 00aa 43F00403 		orr	r3, r3, #4
 536 00ae 85F82930 		strb	r3, [r5, #41]
 537 00b2 0021     		movs	r1, #0
 538 00b4 2B46     		mov	r3, r5
 539 00b6 3846     		mov	r0, r7
 540 00b8 AE60     		str	r6, [r5, #8]
 541 00ba FFF7FEFF 		bl	DoVerifyCallback
 542 00be 0446     		mov	r4, r0
ARM GAS  /tmp/cc0JdWKx.s 			page 10


 543 00c0 2846     		mov	r0, r5
 544 00c2 FFF7FEFF 		bl	wolfSSL_Free
 545              	.L69:
 546 00c6 3046     		mov	r0, r6
 547 00c8 FFF7FEFF 		bl	FreeDecodedCert
 548 00cc 05A8     		add	r0, sp, #20
 549 00ce FFF7FEFF 		bl	FreeDer
 550 00d2 16B1     		cbz	r6, .L72
 551 00d4 3046     		mov	r0, r6
 552 00d6 FFF7FEFF 		bl	wolfSSL_Free
 553              	.L72:
 554 00da 002C     		cmp	r4, #0
 555 00dc 08BF     		it	eq
 556 00de 0124     		moveq	r4, #1
 557 00e0 2046     		mov	r0, r4
 558 00e2 08B0     		add	sp, sp, #32
 559              		@ sp needed
 560 00e4 BDE8F087 		pop	{r4, r5, r6, r7, r8, r9, r10, pc}
 562              		.section	.text.wolfSSL_CertManagerVerifyBuffer,"ax",%progbits
 563              		.align	1
 564              		.global	wolfSSL_CertManagerVerifyBuffer
 565              		.syntax unified
 566              		.thumb
 567              		.thumb_func
 568              		.fpu fpv4-sp-d16
 570              	wolfSSL_CertManagerVerifyBuffer:
 571              		@ args = 0, pretend = 0, frame = 0
 572              		@ frame_needed = 0, uses_anonymous_args = 0
 573 0000 73B5     		push	{r0, r1, r4, r5, r6, lr}
 574 0002 58B1     		cbz	r0, .L92
 575 0004 51B1     		cbz	r1, .L92
 576 0006 002A     		cmp	r2, #0
 577 0008 08DD     		ble	.L92
 578 000a 5C1E     		subs	r4, r3, #1
 579 000c 012C     		cmp	r4, #1
 580 000e 08D8     		bhi	.L93
 581 0010 0024     		movs	r4, #0
 582 0012 0094     		str	r4, [sp]
 583 0014 FFF7FEFF 		bl	CM_VerifyBuffer_ex
 584              	.L88:
 585 0018 02B0     		add	sp, sp, #8
 586              		@ sp needed
 587 001a 70BD     		pop	{r4, r5, r6, pc}
 588              	.L92:
 589 001c 6FF0AC00 		mvn	r0, #172
 590 0020 FAE7     		b	.L88
 591              	.L93:
 592 0022 0148     		ldr	r0, .L94
 593 0024 F8E7     		b	.L88
 594              	.L95:
 595 0026 00BF     		.align	2
 596              	.L94:
 597 0028 32FEFFFF 		.word	-462
 599              		.section	.text.wolfSSL_CertManagerEnableCRL,"ax",%progbits
 600              		.align	1
 601              		.global	wolfSSL_CertManagerEnableCRL
 602              		.syntax unified
ARM GAS  /tmp/cc0JdWKx.s 			page 11


 603              		.thumb
 604              		.thumb_func
 605              		.fpu fpv4-sp-d16
 607              	wolfSSL_CertManagerEnableCRL:
 608              		@ args = 0, pretend = 0, frame = 0
 609              		@ frame_needed = 0, uses_anonymous_args = 0
 610              		@ link register save eliminated.
 611 0000 0028     		cmp	r0, #0
 612 0002 14BF     		ite	ne
 613 0004 6FF0AD00 		mvnne	r0, #173
 614 0008 6FF0AC00 		mvneq	r0, #172
 615 000c 7047     		bx	lr
 617              		.section	.text.wolfSSL_CertManagerDisableCRL,"ax",%progbits
 618              		.align	1
 619              		.global	wolfSSL_CertManagerDisableCRL
 620              		.syntax unified
 621              		.thumb
 622              		.thumb_func
 623              		.fpu fpv4-sp-d16
 625              	wolfSSL_CertManagerDisableCRL:
 626              		@ args = 0, pretend = 0, frame = 0
 627              		@ frame_needed = 0, uses_anonymous_args = 0
 628              		@ link register save eliminated.
 629 0000 38B1     		cbz	r0, .L101
 630 0002 90F86030 		ldrb	r3, [r0, #96]	@ zero_extendqisi2
 631 0006 23F00303 		bic	r3, r3, #3
 632 000a 80F86030 		strb	r3, [r0, #96]
 633 000e 0120     		movs	r0, #1
 634 0010 7047     		bx	lr
 635              	.L101:
 636 0012 6FF0AC00 		mvn	r0, #172
 637 0016 7047     		bx	lr
 639              		.section	.text.wolfSSL_CertManagerEnableOCSP,"ax",%progbits
 640              		.align	1
 641              		.global	wolfSSL_CertManagerEnableOCSP
 642              		.syntax unified
 643              		.thumb
 644              		.thumb_func
 645              		.fpu fpv4-sp-d16
 647              	wolfSSL_CertManagerEnableOCSP:
 648              		@ args = 0, pretend = 0, frame = 0
 649              		@ frame_needed = 0, uses_anonymous_args = 0
 650              		@ link register save eliminated.
 651 0000 0028     		cmp	r0, #0
 652 0002 14BF     		ite	ne
 653 0004 6FF0AD00 		mvnne	r0, #173
 654 0008 6FF0AC00 		mvneq	r0, #172
 655 000c 7047     		bx	lr
 657              		.section	.text.wolfSSL_CertManagerDisableOCSP,"ax",%progbits
 658              		.align	1
 659              		.global	wolfSSL_CertManagerDisableOCSP
 660              		.syntax unified
 661              		.thumb
 662              		.thumb_func
 663              		.fpu fpv4-sp-d16
 665              	wolfSSL_CertManagerDisableOCSP:
 666              		@ args = 0, pretend = 0, frame = 0
ARM GAS  /tmp/cc0JdWKx.s 			page 12


 667              		@ frame_needed = 0, uses_anonymous_args = 0
 668              		@ link register save eliminated.
 669 0000 38B1     		cbz	r0, .L107
 670 0002 90F86030 		ldrb	r3, [r0, #96]	@ zero_extendqisi2
 671 0006 6FF38203 		bfc	r3, #2, #1
 672 000a 80F86030 		strb	r3, [r0, #96]
 673 000e 0120     		movs	r0, #1
 674 0010 7047     		bx	lr
 675              	.L107:
 676 0012 6FF0AC00 		mvn	r0, #172
 677 0016 7047     		bx	lr
 679              		.section	.text.wolfSSL_CertManagerEnableOCSPStapling,"ax",%progbits
 680              		.align	1
 681              		.global	wolfSSL_CertManagerEnableOCSPStapling
 682              		.syntax unified
 683              		.thumb
 684              		.thumb_func
 685              		.fpu fpv4-sp-d16
 687              	wolfSSL_CertManagerEnableOCSPStapling:
 688              		@ args = 0, pretend = 0, frame = 0
 689              		@ frame_needed = 0, uses_anonymous_args = 0
 690              		@ link register save eliminated.
 691 0000 0028     		cmp	r0, #0
 692 0002 14BF     		ite	ne
 693 0004 6FF0AD00 		mvnne	r0, #173
 694 0008 6FF0AC00 		mvneq	r0, #172
 695 000c 7047     		bx	lr
 697              		.section	.text.wolfSSL_CertManagerDisableOCSPStapling,"ax",%progbits
 698              		.align	1
 699              		.global	wolfSSL_CertManagerDisableOCSPStapling
 700              		.syntax unified
 701              		.thumb
 702              		.thumb_func
 703              		.fpu fpv4-sp-d16
 705              	wolfSSL_CertManagerDisableOCSPStapling:
 706              		@ args = 0, pretend = 0, frame = 0
 707              		@ frame_needed = 0, uses_anonymous_args = 0
 708              		@ link register save eliminated.
 709 0000 0028     		cmp	r0, #0
 710 0002 14BF     		ite	ne
 711 0004 6FF0AD00 		mvnne	r0, #173
 712 0008 6FF0AC00 		mvneq	r0, #172
 713 000c 7047     		bx	lr
 715              		.section	.text.wolfSSL_CertManagerEnableOCSPMustStaple,"ax",%progbits
 716              		.align	1
 717              		.global	wolfSSL_CertManagerEnableOCSPMustStaple
 718              		.syntax unified
 719              		.thumb
 720              		.thumb_func
 721              		.fpu fpv4-sp-d16
 723              	wolfSSL_CertManagerEnableOCSPMustStaple:
 724              		@ args = 0, pretend = 0, frame = 0
 725              		@ frame_needed = 0, uses_anonymous_args = 0
 726              		@ link register save eliminated.
 727 0000 0028     		cmp	r0, #0
 728 0002 14BF     		ite	ne
 729 0004 6FF0AD00 		mvnne	r0, #173
ARM GAS  /tmp/cc0JdWKx.s 			page 13


 730 0008 6FF0AC00 		mvneq	r0, #172
 731 000c 7047     		bx	lr
 733              		.section	.text.wolfSSL_CertManagerDisableOCSPMustStaple,"ax",%progbits
 734              		.align	1
 735              		.global	wolfSSL_CertManagerDisableOCSPMustStaple
 736              		.syntax unified
 737              		.thumb
 738              		.thumb_func
 739              		.fpu fpv4-sp-d16
 741              	wolfSSL_CertManagerDisableOCSPMustStaple:
 742              		@ args = 0, pretend = 0, frame = 0
 743              		@ frame_needed = 0, uses_anonymous_args = 0
 744              		@ link register save eliminated.
 745 0000 0028     		cmp	r0, #0
 746 0002 14BF     		ite	ne
 747 0004 6FF0AD00 		mvnne	r0, #173
 748 0008 6FF0AC00 		mvneq	r0, #172
 749 000c 7047     		bx	lr
 751              		.section	.text.ClientSessionToSession,"ax",%progbits
 752              		.align	1
 753              		.global	ClientSessionToSession
 754              		.syntax unified
 755              		.thumb
 756              		.thumb_func
 757              		.fpu fpv4-sp-d16
 759              	ClientSessionToSession:
 760              		@ args = 0, pretend = 0, frame = 0
 761              		@ frame_needed = 0, uses_anonymous_args = 0
 762              		@ link register save eliminated.
 763 0000 7047     		bx	lr
 765              		.section	.text.wolfSSL_GetSession,"ax",%progbits
 766              		.align	1
 767              		.global	wolfSSL_GetSession
 768              		.syntax unified
 769              		.thumb
 770              		.thumb_func
 771              		.fpu fpv4-sp-d16
 773              	wolfSSL_GetSession:
 774              		@ args = 0, pretend = 0, frame = 0
 775              		@ frame_needed = 0, uses_anonymous_args = 0
 776              		@ link register save eliminated.
 777 0000 0020     		movs	r0, #0
 778 0002 7047     		bx	lr
 780              		.section	.text.SetupSession,"ax",%progbits
 781              		.align	1
 782              		.global	SetupSession
 783              		.syntax unified
 784              		.thumb
 785              		.thumb_func
 786              		.fpu fpv4-sp-d16
 788              	SetupSession:
 789              		@ args = 0, pretend = 0, frame = 0
 790              		@ frame_needed = 0, uses_anonymous_args = 0
 791 0000 38B5     		push	{r3, r4, r5, lr}
 792 0002 0546     		mov	r5, r0
 793 0004 D0F85041 		ldr	r4, [r0, #336]
 794 0008 B0F89E01 		ldrh	r0, [r0, #414]
ARM GAS  /tmp/cc0JdWKx.s 			page 14


 795 000c FFF7FEFF 		bl	IsAtLeastTLSv1_3
 796 0010 B0B9     		cbnz	r0, .L123
 797 0012 EA68     		ldr	r2, [r5, #12]
 798 0014 A2B1     		cbz	r2, .L123
 799 0016 94F82810 		ldrb	r1, [r4, #40]	@ zero_extendqisi2
 800 001a 04F13C03 		add	r3, r4, #60
 801 001e C907     		lsls	r1, r1, #31
 802 0020 44D4     		bmi	.L124
 803 0022 02F69A41 		addw	r1, r2, #3226
 804 0026 02F6BA42 		addw	r2, r2, #3258
 805              	.L125:
 806 002a 51F8040B 		ldr	r0, [r1], #4	@ unaligned
 807 002e 9142     		cmp	r1, r2
 808 0030 43F8040B 		str	r0, [r3], #4	@ unaligned
 809 0034 F9D1     		bne	.L125
 810 0036 EB68     		ldr	r3, [r5, #12]
 811 0038 93F8BA3C 		ldrb	r3, [r3, #3258]	@ zero_extendqisi2
 812              	.L140:
 813 003c 84F85C30 		strb	r3, [r4, #92]
 814              	.L123:
 815 0040 95F8EC32 		ldrb	r3, [r5, #748]	@ zero_extendqisi2
 816 0044 C3F34113 		ubfx	r3, r3, #5, #2
 817 0048 84F83030 		strb	r3, [r4, #48]
 818 004c B5F89E01 		ldrh	r0, [r5, #414]
 819 0050 FFF7FEFF 		bl	IsAtLeastTLSv1_3
 820 0054 68B9     		cbnz	r0, .L127
 821 0056 EB68     		ldr	r3, [r5, #12]
 822 0058 5BB1     		cbz	r3, .L127
 823 005a 03F6EB42 		addw	r2, r3, #3307
 824 005e 04F15D01 		add	r1, r4, #93
 825 0062 03F61B53 		addw	r3, r3, #3355
 826              	.L128:
 827 0066 52F8040B 		ldr	r0, [r2], #4	@ unaligned
 828 006a 9A42     		cmp	r2, r3
 829 006c 41F8040B 		str	r0, [r1], #4	@ unaligned
 830 0070 F9D1     		bne	.L128
 831              	.L127:
 832 0072 B5F89E01 		ldrh	r0, [r5, #414]
 833 0076 FFF7FEFF 		bl	IsAtLeastTLSv1_3
 834 007a 18BB     		cbnz	r0, .L130
 835 007c 95F8F132 		ldrb	r3, [r5, #753]	@ zero_extendqisi2
 836 0080 C3F30013 		ubfx	r3, r3, #4, #1
 837              	.L129:
 838 0084 A4F88E30 		strh	r3, [r4, #142]	@ movhi
 839 0088 D5F88431 		ldr	r3, [r5, #388]
 840 008c A363     		str	r3, [r4, #56]
 841 008e 95F8F932 		ldrb	r3, [r5, #761]	@ zero_extendqisi2
 842 0092 84F89030 		strb	r3, [r4, #144]
 843 0096 95F8FA32 		ldrb	r3, [r5, #762]	@ zero_extendqisi2
 844 009a 84F89130 		strb	r3, [r4, #145]
 845 009e 94F8C530 		ldrb	r3, [r4, #197]	@ zero_extendqisi2
 846 00a2 43F00103 		orr	r3, r3, #1
 847 00a6 84F8C530 		strb	r3, [r4, #197]
 848 00aa 38BD     		pop	{r3, r4, r5, pc}
 849              	.L124:
 850 00ac 04F10802 		add	r2, r4, #8
 851 00b0 04F12801 		add	r1, r4, #40
ARM GAS  /tmp/cc0JdWKx.s 			page 15


 852              	.L126:
 853 00b4 52F8040B 		ldr	r0, [r2], #4	@ unaligned
 854 00b8 8A42     		cmp	r2, r1
 855 00ba 43F8040B 		str	r0, [r3], #4	@ unaligned
 856 00be F9D1     		bne	.L126
 857 00c0 2023     		movs	r3, #32
 858 00c2 BBE7     		b	.L140
 859              	.L130:
 860 00c4 0123     		movs	r3, #1
 861 00c6 DDE7     		b	.L129
 863              		.section	.text.wolfSSL_NewSession,"ax",%progbits
 864              		.align	1
 865              		.global	wolfSSL_NewSession
 866              		.syntax unified
 867              		.thumb
 868              		.thumb_func
 869              		.fpu fpv4-sp-d16
 871              	wolfSSL_NewSession:
 872              		@ args = 0, pretend = 0, frame = 0
 873              		@ frame_needed = 0, uses_anonymous_args = 0
 874 0000 38B5     		push	{r3, r4, r5, lr}
 875 0002 0546     		mov	r5, r0
 876 0004 C820     		movs	r0, #200
 877 0006 FFF7FEFF 		bl	wolfSSL_Malloc
 878 000a 0446     		mov	r4, r0
 879 000c 40B1     		cbz	r0, .L141
 880 000e C822     		movs	r2, #200
 881 0010 0021     		movs	r1, #0
 882 0012 FFF7FEFF 		bl	memset
 883 0016 0123     		movs	r3, #1
 884 0018 6360     		str	r3, [r4, #4]
 885 001a 0323     		movs	r3, #3
 886 001c E562     		str	r5, [r4, #44]
 887 001e 2370     		strb	r3, [r4]
 888              	.L141:
 889 0020 2046     		mov	r0, r4
 890 0022 38BD     		pop	{r3, r4, r5, pc}
 892              		.section	.text.wolfSSL_SESSION_new_ex,"ax",%progbits
 893              		.align	1
 894              		.global	wolfSSL_SESSION_new_ex
 895              		.syntax unified
 896              		.thumb
 897              		.thumb_func
 898              		.fpu fpv4-sp-d16
 900              	wolfSSL_SESSION_new_ex:
 901              		@ args = 0, pretend = 0, frame = 0
 902              		@ frame_needed = 0, uses_anonymous_args = 0
 903              		@ link register save eliminated.
 904 0000 FFF7FEBF 		b	wolfSSL_NewSession
 906              		.section	.text.wolfSSL_SESSION_new,"ax",%progbits
 907              		.align	1
 908              		.global	wolfSSL_SESSION_new
 909              		.syntax unified
 910              		.thumb
 911              		.thumb_func
 912              		.fpu fpv4-sp-d16
 914              	wolfSSL_SESSION_new:
ARM GAS  /tmp/cc0JdWKx.s 			page 16


 915              		@ args = 0, pretend = 0, frame = 0
 916              		@ frame_needed = 0, uses_anonymous_args = 0
 917              		@ link register save eliminated.
 918 0000 0020     		movs	r0, #0
 919 0002 FFF7FEBF 		b	wolfSSL_NewSession
 921              		.section	.text.wolfSSL_SESSION_up_ref,"ax",%progbits
 922              		.align	1
 923              		.global	wolfSSL_SESSION_up_ref
 924              		.syntax unified
 925              		.thumb
 926              		.thumb_func
 927              		.fpu fpv4-sp-d16
 929              	wolfSSL_SESSION_up_ref:
 930              		@ args = 0, pretend = 0, frame = 0
 931              		@ frame_needed = 0, uses_anonymous_args = 0
 932              		@ link register save eliminated.
 933 0000 40B1     		cbz	r0, .L148
 934 0002 0378     		ldrb	r3, [r0]	@ zero_extendqisi2
 935 0004 032B     		cmp	r3, #3
 936 0006 04D1     		bne	.L151
 937 0008 4368     		ldr	r3, [r0, #4]
 938 000a 0133     		adds	r3, r3, #1
 939 000c 4360     		str	r3, [r0, #4]
 940 000e 0120     		movs	r0, #1
 941 0010 7047     		bx	lr
 942              	.L151:
 943 0012 0020     		movs	r0, #0
 944              	.L148:
 945 0014 7047     		bx	lr
 947              		.section	.text.wolfSSL_DupSession,"ax",%progbits
 948              		.align	1
 949              		.global	wolfSSL_DupSession
 950              		.syntax unified
 951              		.thumb
 952              		.thumb_func
 953              		.fpu fpv4-sp-d16
 955              	wolfSSL_DupSession:
 956              		@ args = 0, pretend = 0, frame = 0
 957              		@ frame_needed = 0, uses_anonymous_args = 0
 958 0000 08B5     		push	{r3, lr}
 959 0002 0B46     		mov	r3, r1
 960 0004 50B1     		cbz	r0, .L152
 961 0006 51B1     		cbz	r1, .L156
 962 0008 8842     		cmp	r0, r1
 963 000a 08D0     		beq	.L156
 964 000c 00F13001 		add	r1, r0, #48
 965 0010 9822     		movs	r2, #152
 966 0012 03F13000 		add	r0, r3, #48
 967 0016 FFF7FEFF 		bl	memcpy
 968 001a 0120     		movs	r0, #1
 969              	.L152:
 970 001c 08BD     		pop	{r3, pc}
 971              	.L156:
 972 001e 0020     		movs	r0, #0
 973 0020 FCE7     		b	.L152
 975              		.section	.text.wolfSSL_FreeSession,"ax",%progbits
 976              		.align	1
ARM GAS  /tmp/cc0JdWKx.s 			page 17


 977              		.global	wolfSSL_FreeSession
 978              		.syntax unified
 979              		.thumb
 980              		.thumb_func
 981              		.fpu fpv4-sp-d16
 983              	wolfSSL_FreeSession:
 984              		@ args = 0, pretend = 0, frame = 0
 985              		@ frame_needed = 0, uses_anonymous_args = 0
 986 0000 10B5     		push	{r4, lr}
 987 0002 0C46     		mov	r4, r1
 988 0004 C1B1     		cbz	r1, .L157
 989 0006 4B68     		ldr	r3, [r1, #4]
 990 0008 002B     		cmp	r3, #0
 991 000a 11DC     		bgt	.L160
 992              	.L163:
 993 000c 3021     		movs	r1, #48
 994 000e 04F15D00 		add	r0, r4, #93
 995 0012 FFF7FEFF 		bl	ForceZero
 996 0016 2021     		movs	r1, #32
 997 0018 04F13C00 		add	r0, r4, #60
 998 001c FFF7FEFF 		bl	ForceZero
 999 0020 2378     		ldrb	r3, [r4]	@ zero_extendqisi2
 1000 0022 032B     		cmp	r3, #3
 1001 0024 08D1     		bne	.L157
 1002 0026 2046     		mov	r0, r4
 1003 0028 BDE81040 		pop	{r4, lr}
 1004 002c FFF7FEBF 		b	wolfSSL_Free
 1005              	.L160:
 1006 0030 5A1E     		subs	r2, r3, #1
 1007 0032 012B     		cmp	r3, #1
 1008 0034 4A60     		str	r2, [r1, #4]
 1009 0036 E9D0     		beq	.L163
 1010              	.L157:
 1011 0038 10BD     		pop	{r4, pc}
 1013              		.section	.text.wolfSSL_SESSION_dup,"ax",%progbits
 1014              		.align	1
 1015              		.global	wolfSSL_SESSION_dup
 1016              		.syntax unified
 1017              		.thumb
 1018              		.thumb_func
 1019              		.fpu fpv4-sp-d16
 1021              	wolfSSL_SESSION_dup:
 1022              		@ args = 0, pretend = 0, frame = 0
 1023              		@ frame_needed = 0, uses_anonymous_args = 0
 1024 0000 38B5     		push	{r3, r4, r5, lr}
 1025 0002 0546     		mov	r5, r0
 1026 0004 10B9     		cbnz	r0, .L165
 1027              	.L174:
 1028 0006 0024     		movs	r4, #0
 1029              	.L164:
 1030 0008 2046     		mov	r0, r4
 1031 000a 38BD     		pop	{r3, r4, r5, pc}
 1032              	.L165:
 1033 000c C06A     		ldr	r0, [r0, #44]
 1034 000e FFF7FEFF 		bl	wolfSSL_NewSession
 1035 0012 0446     		mov	r4, r0
 1036 0014 0028     		cmp	r0, #0
ARM GAS  /tmp/cc0JdWKx.s 			page 18


 1037 0016 F6D0     		beq	.L174
 1038 0018 0146     		mov	r1, r0
 1039 001a 0022     		movs	r2, #0
 1040 001c 2846     		mov	r0, r5
 1041 001e FFF7FEFF 		bl	wolfSSL_DupSession
 1042 0022 0128     		cmp	r0, #1
 1043 0024 F0D0     		beq	.L164
 1044 0026 2146     		mov	r1, r4
 1045 0028 0020     		movs	r0, #0
 1046 002a FFF7FEFF 		bl	wolfSSL_FreeSession
 1047 002e EAE7     		b	.L174
 1049              		.section	.text.wolfSSL_SESSION_free,"ax",%progbits
 1050              		.align	1
 1051              		.global	wolfSSL_SESSION_free
 1052              		.syntax unified
 1053              		.thumb
 1054              		.thumb_func
 1055              		.fpu fpv4-sp-d16
 1057              	wolfSSL_SESSION_free:
 1058              		@ args = 0, pretend = 0, frame = 0
 1059              		@ frame_needed = 0, uses_anonymous_args = 0
 1060              		@ link register save eliminated.
 1061 0000 0146     		mov	r1, r0
 1062 0002 0020     		movs	r0, #0
 1063 0004 FFF7FEBF 		b	wolfSSL_FreeSession
 1065              		.section	.text.wolfSSL_SESSION_CIPHER_get_name,"ax",%progbits
 1066              		.align	1
 1067              		.global	wolfSSL_SESSION_CIPHER_get_name
 1068              		.syntax unified
 1069              		.thumb
 1070              		.thumb_func
 1071              		.fpu fpv4-sp-d16
 1073              	wolfSSL_SESSION_CIPHER_get_name:
 1074              		@ args = 0, pretend = 0, frame = 0
 1075              		@ frame_needed = 0, uses_anonymous_args = 0
 1076              		@ link register save eliminated.
 1077 0000 28B1     		cbz	r0, .L177
 1078 0002 90F89110 		ldrb	r1, [r0, #145]	@ zero_extendqisi2
 1079 0006 90F89000 		ldrb	r0, [r0, #144]	@ zero_extendqisi2
 1080 000a FFF7FEBF 		b	GetCipherNameIana
 1081              	.L177:
 1082 000e 7047     		bx	lr
 1084              		.section	.text.wolfssl_get_global_rng,"ax",%progbits
 1085              		.align	1
 1086              		.global	wolfssl_get_global_rng
 1087              		.syntax unified
 1088              		.thumb
 1089              		.thumb_func
 1090              		.fpu fpv4-sp-d16
 1092              	wolfssl_get_global_rng:
 1093              		@ args = 0, pretend = 0, frame = 0
 1094              		@ frame_needed = 0, uses_anonymous_args = 0
 1095              		@ link register save eliminated.
 1096 0000 034B     		ldr	r3, .L181
 1097 0002 0448     		ldr	r0, .L181+4
 1098 0004 1B68     		ldr	r3, [r3]
 1099 0006 002B     		cmp	r3, #0
ARM GAS  /tmp/cc0JdWKx.s 			page 19


 1100 0008 08BF     		it	eq
 1101 000a 0020     		moveq	r0, #0
 1102 000c 7047     		bx	lr
 1103              	.L182:
 1104 000e 00BF     		.align	2
 1105              	.L181:
 1106 0010 00000000 		.word	.LANCHOR1
 1107 0014 00000000 		.word	.LANCHOR0
 1109              		.section	.text.wolfssl_make_global_rng,"ax",%progbits
 1110              		.align	1
 1111              		.global	wolfssl_make_global_rng
 1112              		.syntax unified
 1113              		.thumb
 1114              		.thumb_func
 1115              		.fpu fpv4-sp-d16
 1117              	wolfssl_make_global_rng:
 1118              		@ args = 0, pretend = 0, frame = 0
 1119              		@ frame_needed = 0, uses_anonymous_args = 0
 1120              		@ link register save eliminated.
 1121 0000 FFF7FEBF 		b	wolfssl_get_global_rng
 1123              		.section	.text.wolfssl_make_rng,"ax",%progbits
 1124              		.align	1
 1125              		.global	wolfssl_make_rng
 1126              		.syntax unified
 1127              		.thumb
 1128              		.thumb_func
 1129              		.fpu fpv4-sp-d16
 1131              	wolfssl_make_rng:
 1132              		@ args = 0, pretend = 0, frame = 0
 1133              		@ frame_needed = 0, uses_anonymous_args = 0
 1134 0000 70B5     		push	{r4, r5, r6, lr}
 1135 0002 0D46     		mov	r5, r1
 1136 0004 0446     		mov	r4, r0
 1137 0006 30B9     		cbnz	r0, .L190
 1138 0008 1020     		movs	r0, #16
 1139 000a FFF7FEFF 		bl	wolfSSL_Malloc
 1140 000e 0446     		mov	r4, r0
 1141 0010 50B1     		cbz	r0, .L186
 1142 0012 0126     		movs	r6, #1
 1143 0014 00E0     		b	.L185
 1144              	.L190:
 1145 0016 0026     		movs	r6, #0
 1146              	.L185:
 1147 0018 2046     		mov	r0, r4
 1148 001a FFF7FEFF 		bl	wc_InitRng
 1149 001e 38B1     		cbz	r0, .L196
 1150 0020 16B1     		cbz	r6, .L186
 1151 0022 2046     		mov	r0, r4
 1152 0024 FFF7FEFF 		bl	wolfSSL_Free
 1153              	.L186:
 1154 0028 BDE87040 		pop	{r4, r5, r6, lr}
 1155 002c FFF7FEBF 		b	wolfssl_get_global_rng
 1156              	.L196:
 1157 0030 0123     		movs	r3, #1
 1158 0032 2046     		mov	r0, r4
 1159 0034 2B60     		str	r3, [r5]
 1160 0036 70BD     		pop	{r4, r5, r6, pc}
ARM GAS  /tmp/cc0JdWKx.s 			page 20


 1162              		.section	.text.wolfSSL_CTX_up_ref,"ax",%progbits
 1163              		.align	1
 1164              		.global	wolfSSL_CTX_up_ref
 1165              		.syntax unified
 1166              		.thumb
 1167              		.thumb_func
 1168              		.fpu fpv4-sp-d16
 1170              	wolfSSL_CTX_up_ref:
 1171              		@ args = 0, pretend = 0, frame = 0
 1172              		@ frame_needed = 0, uses_anonymous_args = 0
 1173              		@ link register save eliminated.
 1174 0000 8368     		ldr	r3, [r0, #8]
 1175 0002 0133     		adds	r3, r3, #1
 1176 0004 8360     		str	r3, [r0, #8]
 1177 0006 0120     		movs	r0, #1
 1178 0008 7047     		bx	lr
 1180              		.section	.text.wolfSSL_CTX_free,"ax",%progbits
 1181              		.align	1
 1182              		.global	wolfSSL_CTX_free
 1183              		.syntax unified
 1184              		.thumb
 1185              		.thumb_func
 1186              		.fpu fpv4-sp-d16
 1188              	wolfSSL_CTX_free:
 1189              		@ args = 0, pretend = 0, frame = 0
 1190              		@ frame_needed = 0, uses_anonymous_args = 0
 1191              		@ link register save eliminated.
 1192 0000 08B1     		cbz	r0, .L198
 1193 0002 FFF7FEBF 		b	FreeSSL_Ctx
 1194              	.L198:
 1195 0006 7047     		bx	lr
 1197              		.section	.text.wolfSSL_CTX_new_rng,"ax",%progbits
 1198              		.align	1
 1199              		.global	wolfSSL_CTX_new_rng
 1200              		.syntax unified
 1201              		.thumb
 1202              		.thumb_func
 1203              		.fpu fpv4-sp-d16
 1205              	wolfSSL_CTX_new_rng:
 1206              		@ args = 0, pretend = 0, frame = 0
 1207              		@ frame_needed = 0, uses_anonymous_args = 0
 1208 0000 70B5     		push	{r4, r5, r6, lr}
 1209 0002 0546     		mov	r5, r0
 1210 0004 98B1     		cbz	r0, .L203
 1211 0006 1020     		movs	r0, #16
 1212 0008 FFF7FEFF 		bl	wolfSSL_Malloc
 1213 000c 0646     		mov	r6, r0
 1214 000e 88B1     		cbz	r0, .L204
 1215 0010 D5F8D426 		ldr	r2, [r5, #1748]
 1216 0014 696B     		ldr	r1, [r5, #52]
 1217 0016 FFF7FEFF 		bl	wc_InitRng_ex
 1218 001a 0446     		mov	r4, r0
 1219 001c 20B1     		cbz	r0, .L202
 1220 001e 3046     		mov	r0, r6
 1221 0020 FFF7FEFF 		bl	wolfSSL_Free
 1222              	.L200:
 1223 0024 2046     		mov	r0, r4
ARM GAS  /tmp/cc0JdWKx.s 			page 21


 1224 0026 70BD     		pop	{r4, r5, r6, pc}
 1225              	.L202:
 1226 0028 0124     		movs	r4, #1
 1227 002a 6E60     		str	r6, [r5, #4]
 1228 002c FAE7     		b	.L200
 1229              	.L203:
 1230 002e 6FF0AC04 		mvn	r4, #172
 1231 0032 F7E7     		b	.L200
 1232              	.L204:
 1233 0034 6FF07C04 		mvn	r4, #124
 1234 0038 F4E7     		b	.L200
 1236              		.section	.text.wolfSSL_new,"ax",%progbits
 1237              		.align	1
 1238              		.global	wolfSSL_new
 1239              		.syntax unified
 1240              		.thumb
 1241              		.thumb_func
 1242              		.fpu fpv4-sp-d16
 1244              	wolfSSL_new:
 1245              		@ args = 0, pretend = 0, frame = 0
 1246              		@ frame_needed = 0, uses_anonymous_args = 0
 1247 0000 38B5     		push	{r3, r4, r5, lr}
 1248 0002 0546     		mov	r5, r0
 1249 0004 10B9     		cbnz	r0, .L206
 1250              	.L212:
 1251 0006 0024     		movs	r4, #0
 1252              	.L205:
 1253 0008 2046     		mov	r0, r4
 1254 000a 38BD     		pop	{r3, r4, r5, pc}
 1255              	.L206:
 1256 000c 4FF46D70 		mov	r0, #948
 1257 0010 FFF7FEFF 		bl	wolfSSL_Malloc
 1258 0014 0446     		mov	r4, r0
 1259 0016 0028     		cmp	r0, #0
 1260 0018 F5D0     		beq	.L212
 1261 001a 0022     		movs	r2, #0
 1262 001c 2946     		mov	r1, r5
 1263 001e FFF7FEFF 		bl	InitSSL
 1264 0022 0028     		cmp	r0, #0
 1265 0024 F0DA     		bge	.L205
 1266 0026 2046     		mov	r0, r4
 1267 0028 696B     		ldr	r1, [r5, #52]
 1268 002a FFF7FEFF 		bl	FreeSSL
 1269 002e EAE7     		b	.L212
 1271              		.section	.text.wolfSSL_free,"ax",%progbits
 1272              		.align	1
 1273              		.global	wolfSSL_free
 1274              		.syntax unified
 1275              		.thumb
 1276              		.thumb_func
 1277              		.fpu fpv4-sp-d16
 1279              	wolfSSL_free:
 1280              		@ args = 0, pretend = 0, frame = 0
 1281              		@ frame_needed = 0, uses_anonymous_args = 0
 1282              		@ link register save eliminated.
 1283 0000 18B1     		cbz	r0, .L213
 1284 0002 0368     		ldr	r3, [r0]
ARM GAS  /tmp/cc0JdWKx.s 			page 22


 1285 0004 596B     		ldr	r1, [r3, #52]
 1286 0006 FFF7FEBF 		b	FreeSSL
 1287              	.L213:
 1288 000a 7047     		bx	lr
 1290              		.section	.text.wolfSSL_is_server,"ax",%progbits
 1291              		.align	1
 1292              		.global	wolfSSL_is_server
 1293              		.syntax unified
 1294              		.thumb
 1295              		.thumb_func
 1296              		.fpu fpv4-sp-d16
 1298              	wolfSSL_is_server:
 1299              		@ args = 0, pretend = 0, frame = 0
 1300              		@ frame_needed = 0, uses_anonymous_args = 0
 1301              		@ link register save eliminated.
 1302 0000 38B1     		cbz	r0, .L217
 1303 0002 90F8EC32 		ldrb	r3, [r0, #748]	@ zero_extendqisi2
 1304 0006 13F0600F 		tst	r3, #96
 1305 000a 0CBF     		ite	eq
 1306 000c 0120     		moveq	r0, #1
 1307 000e 0020     		movne	r0, #0
 1308 0010 7047     		bx	lr
 1309              	.L217:
 1310 0012 6FF0AC00 		mvn	r0, #172
 1311 0016 7047     		bx	lr
 1313              		.section	.text.wolfSSL_set_fd,"ax",%progbits
 1314              		.align	1
 1315              		.global	wolfSSL_set_fd
 1316              		.syntax unified
 1317              		.thumb
 1318              		.thumb_func
 1319              		.fpu fpv4-sp-d16
 1321              	wolfSSL_set_fd:
 1322              		@ args = 0, pretend = 0, frame = 0
 1323              		@ frame_needed = 0, uses_anonymous_args = 0
 1324              		@ link register save eliminated.
 1325 0000 58B1     		cbz	r0, .L220
 1326 0002 00F5BA73 		add	r3, r0, #372
 1327 0006 4367     		str	r3, [r0, #116]
 1328 0008 00F5BC73 		add	r3, r0, #376
 1329 000c C0F87411 		str	r1, [r0, #372]
 1330 0010 C0F87811 		str	r1, [r0, #376]
 1331 0014 8367     		str	r3, [r0, #120]
 1332 0016 0120     		movs	r0, #1
 1333 0018 7047     		bx	lr
 1334              	.L220:
 1335 001a 6FF0AC00 		mvn	r0, #172
 1336 001e 7047     		bx	lr
 1338              		.section	.text.wolfSSL_set_read_fd,"ax",%progbits
 1339              		.align	1
 1340              		.global	wolfSSL_set_read_fd
 1341              		.syntax unified
 1342              		.thumb
 1343              		.thumb_func
 1344              		.fpu fpv4-sp-d16
 1346              	wolfSSL_set_read_fd:
 1347              		@ args = 0, pretend = 0, frame = 0
ARM GAS  /tmp/cc0JdWKx.s 			page 23


 1348              		@ frame_needed = 0, uses_anonymous_args = 0
 1349              		@ link register save eliminated.
 1350 0000 30B1     		cbz	r0, .L223
 1351 0002 00F5BA73 		add	r3, r0, #372
 1352 0006 C0F87411 		str	r1, [r0, #372]
 1353 000a 4367     		str	r3, [r0, #116]
 1354 000c 0120     		movs	r0, #1
 1355 000e 7047     		bx	lr
 1356              	.L223:
 1357 0010 6FF0AC00 		mvn	r0, #172
 1358 0014 7047     		bx	lr
 1360              		.section	.text.wolfSSL_set_write_fd,"ax",%progbits
 1361              		.align	1
 1362              		.global	wolfSSL_set_write_fd
 1363              		.syntax unified
 1364              		.thumb
 1365              		.thumb_func
 1366              		.fpu fpv4-sp-d16
 1368              	wolfSSL_set_write_fd:
 1369              		@ args = 0, pretend = 0, frame = 0
 1370              		@ frame_needed = 0, uses_anonymous_args = 0
 1371              		@ link register save eliminated.
 1372 0000 30B1     		cbz	r0, .L226
 1373 0002 00F5BC73 		add	r3, r0, #376
 1374 0006 C0F87811 		str	r1, [r0, #376]
 1375 000a 8367     		str	r3, [r0, #120]
 1376 000c 0120     		movs	r0, #1
 1377 000e 7047     		bx	lr
 1378              	.L226:
 1379 0010 6FF0AC00 		mvn	r0, #172
 1380 0014 7047     		bx	lr
 1382              		.section	.text.wolfSSL_get_cipher_list,"ax",%progbits
 1383              		.align	1
 1384              		.global	wolfSSL_get_cipher_list
 1385              		.syntax unified
 1386              		.thumb
 1387              		.thumb_func
 1388              		.fpu fpv4-sp-d16
 1390              	wolfSSL_get_cipher_list:
 1391              		@ args = 0, pretend = 0, frame = 0
 1392              		@ frame_needed = 0, uses_anonymous_args = 0
 1393 0000 38B5     		push	{r3, r4, r5, lr}
 1394 0002 0446     		mov	r4, r0
 1395 0004 FFF7FEFF 		bl	GetCipherNames
 1396 0008 0546     		mov	r5, r0
 1397 000a FFF7FEFF 		bl	GetCipherNamesSize
 1398 000e A042     		cmp	r0, r4
 1399 0010 05DD     		ble	.L230
 1400 0012 002C     		cmp	r4, #0
 1401 0014 03DB     		blt	.L230
 1402 0016 0C20     		movs	r0, #12
 1403 0018 4443     		muls	r4, r0, r4
 1404 001a 2859     		ldr	r0, [r5, r4]
 1405              	.L227:
 1406 001c 38BD     		pop	{r3, r4, r5, pc}
 1407              	.L230:
 1408 001e 0020     		movs	r0, #0
ARM GAS  /tmp/cc0JdWKx.s 			page 24


 1409 0020 FCE7     		b	.L227
 1411              		.section	.text.wolfSSL_get_cipher_list_ex,"ax",%progbits
 1412              		.align	1
 1413              		.global	wolfSSL_get_cipher_list_ex
 1414              		.syntax unified
 1415              		.thumb
 1416              		.thumb_func
 1417              		.fpu fpv4-sp-d16
 1419              	wolfSSL_get_cipher_list_ex:
 1420              		@ args = 0, pretend = 0, frame = 0
 1421              		@ frame_needed = 0, uses_anonymous_args = 0
 1422 0000 10B5     		push	{r4, lr}
 1423 0002 0C46     		mov	r4, r1
 1424 0004 18B1     		cbz	r0, .L232
 1425 0006 FFF7FEFF 		bl	wolfSSL_get_cipher_name_internal
 1426 000a 10B1     		cbz	r0, .L233
 1427 000c 04B1     		cbz	r4, .L231
 1428              	.L232:
 1429 000e 0020     		movs	r0, #0
 1430              	.L231:
 1431 0010 10BD     		pop	{r4, pc}
 1432              	.L233:
 1433 0012 2046     		mov	r0, r4
 1434 0014 BDE81040 		pop	{r4, lr}
 1435 0018 FFF7FEBF 		b	wolfSSL_get_cipher_list
 1437              		.section	.text.wolfSSL_get_ciphers,"ax",%progbits
 1438              		.align	1
 1439              		.global	wolfSSL_get_ciphers
 1440              		.syntax unified
 1441              		.thumb
 1442              		.thumb_func
 1443              		.fpu fpv4-sp-d16
 1445              	wolfSSL_get_ciphers:
 1446              		@ args = 0, pretend = 0, frame = 16
 1447              		@ frame_needed = 0, uses_anonymous_args = 0
 1448 0000 2DE9F04F 		push	{r4, r5, r6, r7, r8, r9, r10, fp, lr}
 1449 0004 85B0     		sub	sp, sp, #20
 1450 0006 8846     		mov	r8, r1
 1451 0008 0446     		mov	r4, r0
 1452 000a FFF7FEFF 		bl	GetCipherNames
 1453 000e 0190     		str	r0, [sp, #4]
 1454 0010 FFF7FEFF 		bl	GetCipherNamesSize
 1455 0014 0646     		mov	r6, r0
 1456 0016 6CB3     		cbz	r4, .L247
 1457 0018 B8F1000F 		cmp	r8, #0
 1458 001c 2ADD     		ble	.L247
 1459 001e 0025     		movs	r5, #0
 1460 0020 4FF00C09 		mov	r9, #12
 1461 0024 4FF03A0B 		mov	fp, #58
 1462 0028 00F1FF3A 		add	r10, r0, #-1
 1463              	.L243:
 1464 002c B542     		cmp	r5, r6
 1465 002e 03DB     		blt	.L245
 1466 0030 0120     		movs	r0, #1
 1467              	.L241:
 1468 0032 05B0     		add	sp, sp, #20
 1469              		@ sp needed
ARM GAS  /tmp/cc0JdWKx.s 			page 25


 1470 0034 BDE8F08F 		pop	{r4, r5, r6, r7, r8, r9, r10, fp, pc}
 1471              	.L245:
 1472 0038 09FB05F3 		mul	r3, r9, r5
 1473 003c 019A     		ldr	r2, [sp, #4]
 1474 003e D158     		ldr	r1, [r2, r3]
 1475 0040 0846     		mov	r0, r1
 1476 0042 0391     		str	r1, [sp, #12]
 1477 0044 FFF7FEFF 		bl	strlen
 1478 0048 431C     		adds	r3, r0, #1
 1479 004a 4345     		cmp	r3, r8
 1480 004c 0746     		mov	r7, r0
 1481 004e 0293     		str	r3, [sp, #8]
 1482 0050 13DA     		bge	.L248
 1483 0052 4246     		mov	r2, r8
 1484 0054 2046     		mov	r0, r4
 1485 0056 0399     		ldr	r1, [sp, #12]
 1486 0058 FFF7FEFF 		bl	strncpy
 1487 005c 0021     		movs	r1, #0
 1488 005e 3C44     		add	r4, r4, r7
 1489 0060 AA45     		cmp	r10, r5
 1490 0062 029B     		ldr	r3, [sp, #8]
 1491 0064 C8BF     		it	gt
 1492 0066 04F801BB 		strbgt	fp, [r4], #1
 1493 006a 2170     		strb	r1, [r4]
 1494 006c A8EB0308 		sub	r8, r8, r3
 1495 0070 0135     		adds	r5, r5, #1
 1496 0072 DBE7     		b	.L243
 1497              	.L247:
 1498 0074 6FF0AC00 		mvn	r0, #172
 1499 0078 DBE7     		b	.L241
 1500              	.L248:
 1501 007a 6FF08300 		mvn	r0, #131
 1502 007e D8E7     		b	.L241
 1504              		.section	.text.wolfSSL_get_ciphers_iana,"ax",%progbits
 1505              		.align	1
 1506              		.global	wolfSSL_get_ciphers_iana
 1507              		.syntax unified
 1508              		.thumb
 1509              		.thumb_func
 1510              		.fpu fpv4-sp-d16
 1512              	wolfSSL_get_ciphers_iana:
 1513              		@ args = 0, pretend = 0, frame = 16
 1514              		@ frame_needed = 0, uses_anonymous_args = 0
 1515 0000 2DE9F04F 		push	{r4, r5, r6, r7, r8, r9, r10, fp, lr}
 1516 0004 85B0     		sub	sp, sp, #20
 1517 0006 8946     		mov	r9, r1
 1518 0008 0446     		mov	r4, r0
 1519 000a FFF7FEFF 		bl	GetCipherNames
 1520 000e 0546     		mov	r5, r0
 1521 0010 FFF7FEFF 		bl	GetCipherNamesSize
 1522 0014 0746     		mov	r7, r0
 1523 0016 74B3     		cbz	r4, .L256
 1524 0018 B9F1000F 		cmp	r9, #0
 1525 001c 2BDD     		ble	.L256
 1526 001e 0026     		movs	r6, #0
 1527 0020 4FF03A0B 		mov	fp, #58
 1528 0024 B246     		mov	r10, r6
ARM GAS  /tmp/cc0JdWKx.s 			page 26


 1529 0026 431E     		subs	r3, r0, #1
 1530 0028 0193     		str	r3, [sp, #4]
 1531              	.L251:
 1532 002a BE42     		cmp	r6, r7
 1533 002c 03DB     		blt	.L254
 1534 002e 0120     		movs	r0, #1
 1535              	.L249:
 1536 0030 05B0     		add	sp, sp, #20
 1537              		@ sp needed
 1538 0032 BDE8F08F 		pop	{r4, r5, r6, r7, r8, r9, r10, fp, pc}
 1539              	.L254:
 1540 0036 AB7A     		ldrb	r3, [r5, #10]	@ zero_extendqisi2
 1541 0038 DB07     		lsls	r3, r3, #31
 1542 003a 19D4     		bmi	.L252
 1543 003c 6968     		ldr	r1, [r5, #4]
 1544 003e 0846     		mov	r0, r1
 1545 0040 0391     		str	r1, [sp, #12]
 1546 0042 FFF7FEFF 		bl	strlen
 1547 0046 431C     		adds	r3, r0, #1
 1548 0048 4B45     		cmp	r3, r9
 1549 004a 8046     		mov	r8, r0
 1550 004c 0293     		str	r3, [sp, #8]
 1551 004e 15DA     		bge	.L257
 1552 0050 4A46     		mov	r2, r9
 1553 0052 2046     		mov	r0, r4
 1554 0054 0399     		ldr	r1, [sp, #12]
 1555 0056 FFF7FEFF 		bl	strncpy
 1556 005a 019B     		ldr	r3, [sp, #4]
 1557 005c 4444     		add	r4, r4, r8
 1558 005e B342     		cmp	r3, r6
 1559 0060 029B     		ldr	r3, [sp, #8]
 1560 0062 C8BF     		it	gt
 1561 0064 04F801BB 		strbgt	fp, [r4], #1
 1562 0068 84F800A0 		strb	r10, [r4]
 1563 006c A9EB0309 		sub	r9, r9, r3
 1564              	.L252:
 1565 0070 0136     		adds	r6, r6, #1
 1566 0072 0C35     		adds	r5, r5, #12
 1567 0074 D9E7     		b	.L251
 1568              	.L256:
 1569 0076 6FF0AC00 		mvn	r0, #172
 1570 007a D9E7     		b	.L249
 1571              	.L257:
 1572 007c 6FF08300 		mvn	r0, #131
 1573 0080 D6E7     		b	.L249
 1575              		.section	.text.wolfSSL_get_shared_ciphers,"ax",%progbits
 1576              		.align	1
 1577              		.global	wolfSSL_get_shared_ciphers
 1578              		.syntax unified
 1579              		.thumb
 1580              		.thumb_func
 1581              		.fpu fpv4-sp-d16
 1583              	wolfSSL_get_shared_ciphers:
 1584              		@ args = 0, pretend = 0, frame = 16
 1585              		@ frame_needed = 0, uses_anonymous_args = 0
 1586 0000 30B5     		push	{r4, r5, lr}
 1587 0002 0346     		mov	r3, r0
ARM GAS  /tmp/cc0JdWKx.s 			page 27


 1588 0004 0D46     		mov	r5, r1
 1589 0006 1446     		mov	r4, r2
 1590 0008 85B0     		sub	sp, sp, #20
 1591 000a B0B1     		cbz	r0, .L259
 1592 000c FFF7FEFF 		bl	wolfSSL_get_cipher_name_iana
 1593 0010 0190     		str	r0, [sp, #4]
 1594 0012 FFF7FEFF 		bl	strlen
 1595 0016 431C     		adds	r3, r0, #1
 1596 0018 9C42     		cmp	r4, r3
 1597 001a 4FF0FF32 		mov	r2, #-1
 1598 001e 38BF     		it	cc
 1599 0020 0022     		movcc	r2, #0
 1600 0022 0392     		str	r2, [sp, #12]
 1601 0024 039A     		ldr	r2, [sp, #12]
 1602 0026 0398     		ldr	r0, [sp, #12]
 1603 0028 24EA0202 		bic	r2, r4, r2
 1604 002c 0340     		ands	r3, r3, r0
 1605 002e 1A43     		orrs	r2, r2, r3
 1606 0030 2846     		mov	r0, r5
 1607 0032 0199     		ldr	r1, [sp, #4]
 1608 0034 FFF7FEFF 		bl	memcpy
 1609 0038 2B46     		mov	r3, r5
 1610              	.L259:
 1611 003a 1846     		mov	r0, r3
 1612 003c 05B0     		add	sp, sp, #20
 1613              		@ sp needed
 1614 003e 30BD     		pop	{r4, r5, pc}
 1616              		.section	.text.wolfSSL_get_fd,"ax",%progbits
 1617              		.align	1
 1618              		.global	wolfSSL_get_fd
 1619              		.syntax unified
 1620              		.thumb
 1621              		.thumb_func
 1622              		.fpu fpv4-sp-d16
 1624              	wolfSSL_get_fd:
 1625              		@ args = 0, pretend = 0, frame = 0
 1626              		@ frame_needed = 0, uses_anonymous_args = 0
 1627              		@ link register save eliminated.
 1628 0000 10B1     		cbz	r0, .L265
 1629 0002 D0F87401 		ldr	r0, [r0, #372]
 1630 0006 7047     		bx	lr
 1631              	.L265:
 1632 0008 4FF0FF30 		mov	r0, #-1
 1633 000c 7047     		bx	lr
 1635              		.section	.text.wolfSSL_get_wfd,"ax",%progbits
 1636              		.align	1
 1637              		.global	wolfSSL_get_wfd
 1638              		.syntax unified
 1639              		.thumb
 1640              		.thumb_func
 1641              		.fpu fpv4-sp-d16
 1643              	wolfSSL_get_wfd:
 1644              		@ args = 0, pretend = 0, frame = 0
 1645              		@ frame_needed = 0, uses_anonymous_args = 0
 1646              		@ link register save eliminated.
 1647 0000 10B1     		cbz	r0, .L268
 1648 0002 D0F87801 		ldr	r0, [r0, #376]
ARM GAS  /tmp/cc0JdWKx.s 			page 28


 1649 0006 7047     		bx	lr
 1650              	.L268:
 1651 0008 4FF0FF30 		mov	r0, #-1
 1652 000c 7047     		bx	lr
 1654              		.section	.text.wolfSSL_dtls,"ax",%progbits
 1655              		.align	1
 1656              		.global	wolfSSL_dtls
 1657              		.syntax unified
 1658              		.thumb
 1659              		.thumb_func
 1660              		.fpu fpv4-sp-d16
 1662              	wolfSSL_dtls:
 1663              		@ args = 0, pretend = 0, frame = 0
 1664              		@ frame_needed = 0, uses_anonymous_args = 0
 1665              		@ link register save eliminated.
 1666 0000 18B1     		cbz	r0, .L269
 1667 0002 90F8EE02 		ldrb	r0, [r0, #750]	@ zero_extendqisi2
 1668 0006 C0F38000 		ubfx	r0, r0, #2, #1
 1669              	.L269:
 1670 000a 7047     		bx	lr
 1672              		.section	.text.wolfSSL_CTX_mutual_auth,"ax",%progbits
 1673              		.align	1
 1674              		.global	wolfSSL_CTX_mutual_auth
 1675              		.syntax unified
 1676              		.thumb
 1677              		.thumb_func
 1678              		.fpu fpv4-sp-d16
 1680              	wolfSSL_CTX_mutual_auth:
 1681              		@ args = 0, pretend = 0, frame = 0
 1682              		@ frame_needed = 0, uses_anonymous_args = 0
 1683              		@ link register save eliminated.
 1684 0000 50B1     		cbz	r0, .L274
 1685 0002 0368     		ldr	r3, [r0]
 1686 0004 9B78     		ldrb	r3, [r3, #2]	@ zero_extendqisi2
 1687 0006 53B9     		cbnz	r3, .L275
 1688 0008 90F83D20 		ldrb	r2, [r0, #61]	@ zero_extendqisi2
 1689 000c 61F34512 		bfi	r2, r1, #5, #1
 1690 0010 80F83D20 		strb	r2, [r0, #61]
 1691 0014 1846     		mov	r0, r3
 1692 0016 7047     		bx	lr
 1693              	.L274:
 1694 0018 6FF0AC00 		mvn	r0, #172
 1695 001c 7047     		bx	lr
 1696              	.L275:
 1697 001e 0148     		ldr	r0, .L276
 1698 0020 7047     		bx	lr
 1699              	.L277:
 1700 0022 00BF     		.align	2
 1701              	.L276:
 1702 0024 A8FEFFFF 		.word	-344
 1704              		.section	.text.wolfSSL_mutual_auth,"ax",%progbits
 1705              		.align	1
 1706              		.global	wolfSSL_mutual_auth
 1707              		.syntax unified
 1708              		.thumb
 1709              		.thumb_func
 1710              		.fpu fpv4-sp-d16
ARM GAS  /tmp/cc0JdWKx.s 			page 29


 1712              	wolfSSL_mutual_auth:
 1713              		@ args = 0, pretend = 0, frame = 0
 1714              		@ frame_needed = 0, uses_anonymous_args = 0
 1715              		@ link register save eliminated.
 1716 0000 60B1     		cbz	r0, .L280
 1717 0002 90F8EC32 		ldrb	r3, [r0, #748]	@ zero_extendqisi2
 1718 0006 13F06003 		ands	r3, r3, #96
 1719 000a 0AD1     		bne	.L281
 1720 000c 90F8F222 		ldrb	r2, [r0, #754]	@ zero_extendqisi2
 1721 0010 61F34102 		bfi	r2, r1, #1, #1
 1722 0014 80F8F222 		strb	r2, [r0, #754]
 1723 0018 1846     		mov	r0, r3
 1724 001a 7047     		bx	lr
 1725              	.L280:
 1726 001c 6FF0AC00 		mvn	r0, #172
 1727 0020 7047     		bx	lr
 1728              	.L281:
 1729 0022 0148     		ldr	r0, .L282
 1730 0024 7047     		bx	lr
 1731              	.L283:
 1732 0026 00BF     		.align	2
 1733              	.L282:
 1734 0028 A8FEFFFF 		.word	-344
 1736              		.section	.text.wolfSSL_dtls_set_peer,"ax",%progbits
 1737              		.align	1
 1738              		.global	wolfSSL_dtls_set_peer
 1739              		.syntax unified
 1740              		.thumb
 1741              		.thumb_func
 1742              		.fpu fpv4-sp-d16
 1744              	wolfSSL_dtls_set_peer:
 1745              		@ args = 0, pretend = 0, frame = 0
 1746              		@ frame_needed = 0, uses_anonymous_args = 0
 1747              		@ link register save eliminated.
 1748 0000 0048     		ldr	r0, .L285
 1749 0002 7047     		bx	lr
 1750              	.L286:
 1751              		.align	2
 1752              	.L285:
 1753 0004 30FEFFFF 		.word	-464
 1755              		.section	.text.wolfSSL_dtls_get_peer,"ax",%progbits
 1756              		.align	1
 1757              		.global	wolfSSL_dtls_get_peer
 1758              		.syntax unified
 1759              		.thumb
 1760              		.thumb_func
 1761              		.fpu fpv4-sp-d16
 1763              	wolfSSL_dtls_get_peer:
 1764              		@ args = 0, pretend = 0, frame = 0
 1765              		@ frame_needed = 0, uses_anonymous_args = 0
 1766              		@ link register save eliminated.
 1767 0000 0048     		ldr	r0, .L288
 1768 0002 7047     		bx	lr
 1769              	.L289:
 1770              		.align	2
 1771              	.L288:
 1772 0004 30FEFFFF 		.word	-464
ARM GAS  /tmp/cc0JdWKx.s 			page 30


 1774              		.section	.text.wolfSSL_dtls_get0_peer,"ax",%progbits
 1775              		.align	1
 1776              		.global	wolfSSL_dtls_get0_peer
 1777              		.syntax unified
 1778              		.thumb
 1779              		.thumb_func
 1780              		.fpu fpv4-sp-d16
 1782              	wolfSSL_dtls_get0_peer:
 1783              		@ args = 0, pretend = 0, frame = 0
 1784              		@ frame_needed = 0, uses_anonymous_args = 0
 1785              		@ link register save eliminated.
 1786 0000 0048     		ldr	r0, .L291
 1787 0002 7047     		bx	lr
 1788              	.L292:
 1789              		.align	2
 1790              	.L291:
 1791 0004 30FEFFFF 		.word	-464
 1793              		.section	.text.wolfSSL_GetRNG,"ax",%progbits
 1794              		.align	1
 1795              		.global	wolfSSL_GetRNG
 1796              		.syntax unified
 1797              		.thumb
 1798              		.thumb_func
 1799              		.fpu fpv4-sp-d16
 1801              	wolfSSL_GetRNG:
 1802              		@ args = 0, pretend = 0, frame = 0
 1803              		@ frame_needed = 0, uses_anonymous_args = 0
 1804              		@ link register save eliminated.
 1805 0000 00B1     		cbz	r0, .L294
 1806 0002 C06F     		ldr	r0, [r0, #124]
 1807              	.L294:
 1808 0004 7047     		bx	lr
 1810              		.section	.text.wolfSSL_GetObjectSize,"ax",%progbits
 1811              		.align	1
 1812              		.global	wolfSSL_GetObjectSize
 1813              		.syntax unified
 1814              		.thumb
 1815              		.thumb_func
 1816              		.fpu fpv4-sp-d16
 1818              	wolfSSL_GetObjectSize:
 1819              		@ args = 0, pretend = 0, frame = 0
 1820              		@ frame_needed = 0, uses_anonymous_args = 0
 1821              		@ link register save eliminated.
 1822 0000 4FF46D70 		mov	r0, #948
 1823 0004 7047     		bx	lr
 1825              		.section	.text.wolfSSL_CTX_GetObjectSize,"ax",%progbits
 1826              		.align	1
 1827              		.global	wolfSSL_CTX_GetObjectSize
 1828              		.syntax unified
 1829              		.thumb
 1830              		.thumb_func
 1831              		.fpu fpv4-sp-d16
 1833              	wolfSSL_CTX_GetObjectSize:
 1834              		@ args = 0, pretend = 0, frame = 0
 1835              		@ frame_needed = 0, uses_anonymous_args = 0
 1836              		@ link register save eliminated.
 1837 0000 4FF4DC60 		mov	r0, #1760
ARM GAS  /tmp/cc0JdWKx.s 			page 31


 1838 0004 7047     		bx	lr
 1840              		.section	.text.wolfSSL_METHOD_GetObjectSize,"ax",%progbits
 1841              		.align	1
 1842              		.global	wolfSSL_METHOD_GetObjectSize
 1843              		.syntax unified
 1844              		.thumb
 1845              		.thumb_func
 1846              		.fpu fpv4-sp-d16
 1848              	wolfSSL_METHOD_GetObjectSize:
 1849              		@ args = 0, pretend = 0, frame = 0
 1850              		@ frame_needed = 0, uses_anonymous_args = 0
 1851              		@ link register save eliminated.
 1852 0000 0420     		movs	r0, #4
 1853 0002 7047     		bx	lr
 1855              		.section	.text.wolfSSL_GetMaxOutputSize,"ax",%progbits
 1856              		.align	1
 1857              		.global	wolfSSL_GetMaxOutputSize
 1858              		.syntax unified
 1859              		.thumb
 1860              		.thumb_func
 1861              		.fpu fpv4-sp-d16
 1863              	wolfSSL_GetMaxOutputSize:
 1864              		@ args = 0, pretend = 0, frame = 0
 1865              		@ frame_needed = 0, uses_anonymous_args = 0
 1866              		@ link register save eliminated.
 1867 0000 38B1     		cbz	r0, .L301
 1868 0002 90F80333 		ldrb	r3, [r0, #771]	@ zero_extendqisi2
 1869 0006 102B     		cmp	r3, #16
 1870 0008 03D1     		bne	.L301
 1871 000a 4FF48041 		mov	r1, #16384
 1872 000e FFF7FEBF 		b	wolfSSL_GetMaxFragSize
 1873              	.L301:
 1874 0012 6FF0AC00 		mvn	r0, #172
 1875 0016 7047     		bx	lr
 1877              		.section	.text.wolfSSL_GetOutputSize,"ax",%progbits
 1878              		.align	1
 1879              		.global	wolfSSL_GetOutputSize
 1880              		.syntax unified
 1881              		.thumb
 1882              		.thumb_func
 1883              		.fpu fpv4-sp-d16
 1885              	wolfSSL_GetOutputSize:
 1886              		@ args = 0, pretend = 0, frame = 0
 1887              		@ frame_needed = 0, uses_anonymous_args = 0
 1888 0000 30B5     		push	{r4, r5, lr}
 1889 0002 0C1E     		subs	r4, r1, #0
 1890 0004 0546     		mov	r5, r0
 1891 0006 87B0     		sub	sp, sp, #28
 1892 0008 15DB     		blt	.L308
 1893 000a FFF7FEFF 		bl	wolfSSL_GetMaxOutputSize
 1894 000e 0028     		cmp	r0, #0
 1895 0010 0FDB     		blt	.L306
 1896 0012 8442     		cmp	r4, r0
 1897 0014 12DC     		bgt	.L309
 1898 0016 0023     		movs	r3, #0
 1899 0018 0122     		movs	r2, #1
 1900 001a CDE90232 		strd	r3, r2, [sp, #8]
ARM GAS  /tmp/cc0JdWKx.s 			page 32


 1901 001e 1722     		movs	r2, #23
 1902 0020 1946     		mov	r1, r3
 1903 0022 CDE90042 		strd	r4, r2, [sp]
 1904 0026 2846     		mov	r0, r5
 1905 0028 1A46     		mov	r2, r3
 1906 002a CDE90433 		strd	r3, r3, [sp, #16]
 1907 002e FFF7FEFF 		bl	BuildMessage
 1908              	.L306:
 1909 0032 07B0     		add	sp, sp, #28
 1910              		@ sp needed
 1911 0034 30BD     		pop	{r4, r5, pc}
 1912              	.L308:
 1913 0036 6FF0AC00 		mvn	r0, #172
 1914 003a FAE7     		b	.L306
 1915              	.L309:
 1916 003c 0048     		ldr	r0, .L310
 1917 003e F8E7     		b	.L306
 1918              	.L311:
 1919              		.align	2
 1920              	.L310:
 1921 0040 64FEFFFF 		.word	-412
 1923              		.section	.text.wolfSSL_CTX_SetMinEccKey_Sz,"ax",%progbits
 1924              		.align	1
 1925              		.global	wolfSSL_CTX_SetMinEccKey_Sz
 1926              		.syntax unified
 1927              		.thumb
 1928              		.thumb_func
 1929              		.fpu fpv4-sp-d16
 1931              	wolfSSL_CTX_SetMinEccKey_Sz:
 1932              		@ args = 0, pretend = 0, frame = 0
 1933              		@ frame_needed = 0, uses_anonymous_args = 0
 1934              		@ link register save eliminated.
 1935 0000 68B1     		cbz	r0, .L316
 1936 0002 0029     		cmp	r1, #0
 1937 0004 0BDB     		blt	.L316
 1938 0006 CB10     		asrs	r3, r1, #3
 1939 0008 4A07     		lsls	r2, r1, #29
 1940 000a 18BF     		it	ne
 1941 000c 0133     		addne	r3, r3, #1
 1942 000e C26A     		ldr	r2, [r0, #44]
 1943 0010 18BF     		it	ne
 1944 0012 1BB2     		sxthne	r3, r3
 1945 0014 C387     		strh	r3, [r0, #62]	@ movhi
 1946 0016 0120     		movs	r0, #1
 1947 0018 A2F86230 		strh	r3, [r2, #98]	@ movhi
 1948 001c 7047     		bx	lr
 1949              	.L316:
 1950 001e 6FF0AC00 		mvn	r0, #172
 1951 0022 7047     		bx	lr
 1953              		.section	.text.wolfSSL_SetMinEccKey_Sz,"ax",%progbits
 1954              		.align	1
 1955              		.global	wolfSSL_SetMinEccKey_Sz
 1956              		.syntax unified
 1957              		.thumb
 1958              		.thumb_func
 1959              		.fpu fpv4-sp-d16
 1961              	wolfSSL_SetMinEccKey_Sz:
ARM GAS  /tmp/cc0JdWKx.s 			page 33


 1962              		@ args = 0, pretend = 0, frame = 0
 1963              		@ frame_needed = 0, uses_anonymous_args = 0
 1964              		@ link register save eliminated.
 1965 0000 50B1     		cbz	r0, .L324
 1966 0002 0029     		cmp	r1, #0
 1967 0004 08DB     		blt	.L324
 1968 0006 CB10     		asrs	r3, r1, #3
 1969 0008 4A07     		lsls	r2, r1, #29
 1970 000a 1CBF     		itt	ne
 1971 000c 0133     		addne	r3, r3, #1
 1972 000e 1BB2     		sxthne	r3, r3
 1973 0010 A0F80C33 		strh	r3, [r0, #780]	@ movhi
 1974 0014 0120     		movs	r0, #1
 1975 0016 7047     		bx	lr
 1976              	.L324:
 1977 0018 6FF0AC00 		mvn	r0, #172
 1978 001c 7047     		bx	lr
 1980              		.section	.text.wolfSSL_write,"ax",%progbits
 1981              		.align	1
 1982              		.global	wolfSSL_write
 1983              		.syntax unified
 1984              		.thumb
 1985              		.thumb_func
 1986              		.fpu fpv4-sp-d16
 1988              	wolfSSL_write:
 1989              		@ args = 0, pretend = 0, frame = 0
 1990              		@ frame_needed = 0, uses_anonymous_args = 0
 1991 0000 002A     		cmp	r2, #0
 1992 0002 10B5     		push	{r4, lr}
 1993 0004 06DB     		blt	.L332
 1994 0006 28B1     		cbz	r0, .L332
 1995 0008 21B1     		cbz	r1, .L332
 1996 000a FFF7FEFF 		bl	SendData
 1997 000e 40EAE070 		orr	r0, r0, r0, asr #31
 1998              	.L328:
 1999 0012 10BD     		pop	{r4, pc}
 2000              	.L332:
 2001 0014 6FF0AC00 		mvn	r0, #172
 2002 0018 FBE7     		b	.L328
 2004              		.section	.text.wolfSSL_inject,"ax",%progbits
 2005              		.align	1
 2006              		.global	wolfSSL_inject
 2007              		.syntax unified
 2008              		.thumb
 2009              		.thumb_func
 2010              		.fpu fpv4-sp-d16
 2012              	wolfSSL_inject:
 2013              		@ args = 0, pretend = 0, frame = 0
 2014              		@ frame_needed = 0, uses_anonymous_args = 0
 2015 0000 70B5     		push	{r4, r5, r6, lr}
 2016 0002 0E46     		mov	r6, r1
 2017 0004 1546     		mov	r5, r2
 2018 0006 0446     		mov	r4, r0
 2019 0008 20B3     		cbz	r0, .L339
 2020 000a 19B3     		cbz	r1, .L339
 2021 000c 002A     		cmp	r2, #0
 2022 000e 21DD     		ble	.L339
ARM GAS  /tmp/cc0JdWKx.s 			page 34


 2023 0010 D0E93612 		ldrd	r1, r2, [r0, #216]
 2024 0014 D0F8E030 		ldr	r3, [r0, #224]
 2025 0018 1344     		add	r3, r3, r2
 2026 001a 5B1A     		subs	r3, r3, r1
 2027 001c 9D42     		cmp	r5, r3
 2028 001e 0FDC     		bgt	.L335
 2029              	.L336:
 2030 0020 D4F8D400 		ldr	r0, [r4, #212]
 2031 0024 D4F8DC30 		ldr	r3, [r4, #220]
 2032 0028 2A46     		mov	r2, r5
 2033 002a 3146     		mov	r1, r6
 2034 002c 1844     		add	r0, r0, r3
 2035 002e FFF7FEFF 		bl	memcpy
 2036 0032 0120     		movs	r0, #1
 2037 0034 D4F8D820 		ldr	r2, [r4, #216]
 2038 0038 2A44     		add	r2, r2, r5
 2039 003a C4F8D820 		str	r2, [r4, #216]
 2040              	.L333:
 2041 003e 70BD     		pop	{r4, r5, r6, pc}
 2042              	.L335:
 2043 0040 D0F81031 		ldr	r3, [r0, #272]
 2044 0044 4BB9     		cbnz	r3, .L340
 2045 0046 8A1A     		subs	r2, r1, r2
 2046 0048 2946     		mov	r1, r5
 2047 004a FFF7FEFF 		bl	GrowInputBuffer
 2048 004e 0028     		cmp	r0, #0
 2049 0050 E6DA     		bge	.L336
 2050 0052 F4E7     		b	.L333
 2051              	.L339:
 2052 0054 6FF0AC00 		mvn	r0, #172
 2053 0058 F1E7     		b	.L333
 2054              	.L340:
 2055 005a 6FF4DC70 		mvn	r0, #440
 2056 005e EEE7     		b	.L333
 2058              		.section	.text.wolfSSL_write_ex,"ax",%progbits
 2059              		.align	1
 2060              		.global	wolfSSL_write_ex
 2061              		.syntax unified
 2062              		.thumb
 2063              		.thumb_func
 2064              		.fpu fpv4-sp-d16
 2066              	wolfSSL_write_ex:
 2067              		@ args = 0, pretend = 0, frame = 0
 2068              		@ frame_needed = 0, uses_anonymous_args = 0
 2069 0000 70B5     		push	{r4, r5, r6, lr}
 2070 0002 0446     		mov	r4, r0
 2071 0004 1646     		mov	r6, r2
 2072 0006 1D46     		mov	r5, r3
 2073 0008 0BB1     		cbz	r3, .L342
 2074 000a 0023     		movs	r3, #0
 2075 000c 2B60     		str	r3, [r5]
 2076              	.L342:
 2077 000e 0CB9     		cbnz	r4, .L343
 2078              	.L345:
 2079 0010 0020     		movs	r0, #0
 2080              	.L341:
 2081 0012 70BD     		pop	{r4, r5, r6, pc}
ARM GAS  /tmp/cc0JdWKx.s 			page 35


 2082              	.L343:
 2083 0014 0029     		cmp	r1, #0
 2084 0016 FBD0     		beq	.L345
 2085 0018 3246     		mov	r2, r6
 2086 001a 2046     		mov	r0, r4
 2087 001c FFF7FEFF 		bl	SendData
 2088 0020 0028     		cmp	r0, #0
 2089 0022 F5DB     		blt	.L345
 2090 0024 05B1     		cbz	r5, .L346
 2091 0026 2860     		str	r0, [r5]
 2092              	.L346:
 2093 0028 18B9     		cbnz	r0, .L347
 2094 002a 94F8F032 		ldrb	r3, [r4, #752]	@ zero_extendqisi2
 2095 002e 9A06     		lsls	r2, r3, #26
 2096 0030 EED4     		bmi	.L345
 2097              	.L347:
 2098 0032 B042     		cmp	r0, r6
 2099 0034 03D2     		bcs	.L348
 2100 0036 94F8F032 		ldrb	r3, [r4, #752]	@ zero_extendqisi2
 2101 003a 9B06     		lsls	r3, r3, #26
 2102 003c E8D5     		bpl	.L345
 2103              	.L348:
 2104 003e 0120     		movs	r0, #1
 2105 0040 E7E7     		b	.L341
 2107              		.section	.text.wolfSSL_peek,"ax",%progbits
 2108              		.align	1
 2109              		.global	wolfSSL_peek
 2110              		.syntax unified
 2111              		.thumb
 2112              		.thumb_func
 2113              		.fpu fpv4-sp-d16
 2115              	wolfSSL_peek:
 2116              		@ args = 0, pretend = 0, frame = 0
 2117              		@ frame_needed = 0, uses_anonymous_args = 0
 2118              		@ link register save eliminated.
 2119 0000 002A     		cmp	r2, #0
 2120 0002 02DB     		blt	.L362
 2121 0004 0123     		movs	r3, #1
 2122 0006 FFF7FEBF 		b	wolfSSL_read_internal
 2123              	.L362:
 2124 000a 6FF0AC00 		mvn	r0, #172
 2125 000e 7047     		bx	lr
 2127              		.section	.text.wolfSSL_read,"ax",%progbits
 2128              		.align	1
 2129              		.global	wolfSSL_read
 2130              		.syntax unified
 2131              		.thumb
 2132              		.thumb_func
 2133              		.fpu fpv4-sp-d16
 2135              	wolfSSL_read:
 2136              		@ args = 0, pretend = 0, frame = 0
 2137              		@ frame_needed = 0, uses_anonymous_args = 0
 2138              		@ link register save eliminated.
 2139 0000 002A     		cmp	r2, #0
 2140 0002 02DB     		blt	.L364
 2141 0004 0023     		movs	r3, #0
 2142 0006 FFF7FEBF 		b	wolfSSL_read_internal
ARM GAS  /tmp/cc0JdWKx.s 			page 36


 2143              	.L364:
 2144 000a 6FF0AC00 		mvn	r0, #172
 2145 000e 7047     		bx	lr
 2147              		.section	.text.wolfSSL_read_ex,"ax",%progbits
 2148              		.align	1
 2149              		.global	wolfSSL_read_ex
 2150              		.syntax unified
 2151              		.thumb
 2152              		.thumb_func
 2153              		.fpu fpv4-sp-d16
 2155              	wolfSSL_read_ex:
 2156              		@ args = 0, pretend = 0, frame = 0
 2157              		@ frame_needed = 0, uses_anonymous_args = 0
 2158 0000 10B5     		push	{r4, lr}
 2159 0002 1C46     		mov	r4, r3
 2160 0004 0023     		movs	r3, #0
 2161 0006 FFF7FEFF 		bl	wolfSSL_read_internal
 2162 000a 0028     		cmp	r0, #0
 2163 000c 01DD     		ble	.L366
 2164 000e 04B1     		cbz	r4, .L366
 2165 0010 2060     		str	r0, [r4]
 2166              	.L366:
 2167 0012 0028     		cmp	r0, #0
 2168 0014 D4BF     		ite	le
 2169 0016 0020     		movle	r0, #0
 2170 0018 0120     		movgt	r0, #1
 2171 001a 10BD     		pop	{r4, pc}
 2173              		.section	.text.wolfSSL_SetDevId,"ax",%progbits
 2174              		.align	1
 2175              		.global	wolfSSL_SetDevId
 2176              		.syntax unified
 2177              		.thumb
 2178              		.thumb_func
 2179              		.fpu fpv4-sp-d16
 2181              	wolfSSL_SetDevId:
 2182              		@ args = 0, pretend = 0, frame = 0
 2183              		@ frame_needed = 0, uses_anonymous_args = 0
 2184              		@ link register save eliminated.
 2185 0000 18B1     		cbz	r0, .L372
 2186 0002 C0F8AC13 		str	r1, [r0, #940]
 2187 0006 0120     		movs	r0, #1
 2188 0008 7047     		bx	lr
 2189              	.L372:
 2190 000a 6FF0AC00 		mvn	r0, #172
 2191 000e 7047     		bx	lr
 2193              		.section	.text.wolfSSL_CTX_SetDevId,"ax",%progbits
 2194              		.align	1
 2195              		.global	wolfSSL_CTX_SetDevId
 2196              		.syntax unified
 2197              		.thumb
 2198              		.thumb_func
 2199              		.fpu fpv4-sp-d16
 2201              	wolfSSL_CTX_SetDevId:
 2202              		@ args = 0, pretend = 0, frame = 0
 2203              		@ frame_needed = 0, uses_anonymous_args = 0
 2204              		@ link register save eliminated.
 2205 0000 18B1     		cbz	r0, .L375
ARM GAS  /tmp/cc0JdWKx.s 			page 37


 2206 0002 C0F8D416 		str	r1, [r0, #1748]
 2207 0006 0120     		movs	r0, #1
 2208 0008 7047     		bx	lr
 2209              	.L375:
 2210 000a 6FF0AC00 		mvn	r0, #172
 2211 000e 7047     		bx	lr
 2213              		.section	.text.wolfSSL_CTX_GetDevId,"ax",%progbits
 2214              		.align	1
 2215              		.global	wolfSSL_CTX_GetDevId
 2216              		.syntax unified
 2217              		.thumb
 2218              		.thumb_func
 2219              		.fpu fpv4-sp-d16
 2221              	wolfSSL_CTX_GetDevId:
 2222              		@ args = 0, pretend = 0, frame = 0
 2223              		@ frame_needed = 0, uses_anonymous_args = 0
 2224              		@ link register save eliminated.
 2225 0000 41B1     		cbz	r1, .L377
 2226 0002 D1F8AC33 		ldr	r3, [r1, #940]
 2227 0006 18B1     		cbz	r0, .L376
 2228 0008 9A1C     		adds	r2, r3, #2
 2229 000a 01D1     		bne	.L376
 2230              	.L379:
 2231 000c D0F8D436 		ldr	r3, [r0, #1748]
 2232              	.L376:
 2233 0010 1846     		mov	r0, r3
 2234 0012 7047     		bx	lr
 2235              	.L377:
 2236 0014 0028     		cmp	r0, #0
 2237 0016 F9D1     		bne	.L379
 2238 0018 6FF00103 		mvn	r3, #1
 2239 001c F8E7     		b	.L376
 2241              		.section	.text.wolfSSL_CTX_GetHeap,"ax",%progbits
 2242              		.align	1
 2243              		.global	wolfSSL_CTX_GetHeap
 2244              		.syntax unified
 2245              		.thumb
 2246              		.thumb_func
 2247              		.fpu fpv4-sp-d16
 2249              	wolfSSL_CTX_GetHeap:
 2250              		@ args = 0, pretend = 0, frame = 0
 2251              		@ frame_needed = 0, uses_anonymous_args = 0
 2252              		@ link register save eliminated.
 2253 0000 10B1     		cbz	r0, .L384
 2254 0002 416B     		ldr	r1, [r0, #52]
 2255              	.L385:
 2256 0004 0846     		mov	r0, r1
 2257 0006 7047     		bx	lr
 2258              	.L384:
 2259 0008 0029     		cmp	r1, #0
 2260 000a FBD0     		beq	.L385
 2261 000c D1F88810 		ldr	r1, [r1, #136]
 2262 0010 F8E7     		b	.L385
 2264              		.section	.text.wolfSSL_UseSNI,"ax",%progbits
 2265              		.align	1
 2266              		.global	wolfSSL_UseSNI
 2267              		.syntax unified
ARM GAS  /tmp/cc0JdWKx.s 			page 38


 2268              		.thumb
 2269              		.thumb_func
 2270              		.fpu fpv4-sp-d16
 2272              	wolfSSL_UseSNI:
 2273              		@ args = 0, pretend = 0, frame = 0
 2274              		@ frame_needed = 0, uses_anonymous_args = 0
 2275 0000 13B5     		push	{r0, r1, r4, lr}
 2276 0002 40B1     		cbz	r0, .L391
 2277 0004 D0F88840 		ldr	r4, [r0, #136]
 2278 0008 00F56C70 		add	r0, r0, #944
 2279 000c 0094     		str	r4, [sp]
 2280 000e FFF7FEFF 		bl	TLSX_UseSNI
 2281              	.L389:
 2282 0012 02B0     		add	sp, sp, #8
 2283              		@ sp needed
 2284 0014 10BD     		pop	{r4, pc}
 2285              	.L391:
 2286 0016 6FF0AC00 		mvn	r0, #172
 2287 001a FAE7     		b	.L389
 2289              		.section	.text.wolfSSL_CTX_UseSNI,"ax",%progbits
 2290              		.align	1
 2291              		.global	wolfSSL_CTX_UseSNI
 2292              		.syntax unified
 2293              		.thumb
 2294              		.thumb_func
 2295              		.fpu fpv4-sp-d16
 2297              	wolfSSL_CTX_UseSNI:
 2298              		@ args = 0, pretend = 0, frame = 0
 2299              		@ frame_needed = 0, uses_anonymous_args = 0
 2300 0000 13B5     		push	{r0, r1, r4, lr}
 2301 0002 38B1     		cbz	r0, .L394
 2302 0004 446B     		ldr	r4, [r0, #52]
 2303 0006 00F5DB60 		add	r0, r0, #1752
 2304 000a 0094     		str	r4, [sp]
 2305 000c FFF7FEFF 		bl	TLSX_UseSNI
 2306              	.L392:
 2307 0010 02B0     		add	sp, sp, #8
 2308              		@ sp needed
 2309 0012 10BD     		pop	{r4, pc}
 2310              	.L394:
 2311 0014 6FF0AC00 		mvn	r0, #172
 2312 0018 FAE7     		b	.L392
 2314              		.section	.text.wolfSSL_SNI_SetOptions,"ax",%progbits
 2315              		.align	1
 2316              		.global	wolfSSL_SNI_SetOptions
 2317              		.syntax unified
 2318              		.thumb
 2319              		.thumb_func
 2320              		.fpu fpv4-sp-d16
 2322              	wolfSSL_SNI_SetOptions:
 2323              		@ args = 0, pretend = 0, frame = 0
 2324              		@ frame_needed = 0, uses_anonymous_args = 0
 2325              		@ link register save eliminated.
 2326 0000 20B1     		cbz	r0, .L395
 2327 0002 D0F8B003 		ldr	r0, [r0, #944]
 2328 0006 08B1     		cbz	r0, .L395
 2329 0008 FFF7FEBF 		b	TLSX_SNI_SetOptions
ARM GAS  /tmp/cc0JdWKx.s 			page 39


 2330              	.L395:
 2331 000c 7047     		bx	lr
 2333              		.section	.text.wolfSSL_CTX_SNI_SetOptions,"ax",%progbits
 2334              		.align	1
 2335              		.global	wolfSSL_CTX_SNI_SetOptions
 2336              		.syntax unified
 2337              		.thumb
 2338              		.thumb_func
 2339              		.fpu fpv4-sp-d16
 2341              	wolfSSL_CTX_SNI_SetOptions:
 2342              		@ args = 0, pretend = 0, frame = 0
 2343              		@ frame_needed = 0, uses_anonymous_args = 0
 2344              		@ link register save eliminated.
 2345 0000 20B1     		cbz	r0, .L403
 2346 0002 D0F8D806 		ldr	r0, [r0, #1752]
 2347 0006 08B1     		cbz	r0, .L403
 2348 0008 FFF7FEBF 		b	TLSX_SNI_SetOptions
 2349              	.L403:
 2350 000c 7047     		bx	lr
 2352              		.section	.text.wolfSSL_SNI_Status,"ax",%progbits
 2353              		.align	1
 2354              		.global	wolfSSL_SNI_Status
 2355              		.syntax unified
 2356              		.thumb
 2357              		.thumb_func
 2358              		.fpu fpv4-sp-d16
 2360              	wolfSSL_SNI_Status:
 2361              		@ args = 0, pretend = 0, frame = 0
 2362              		@ frame_needed = 0, uses_anonymous_args = 0
 2363              		@ link register save eliminated.
 2364 0000 08B1     		cbz	r0, .L412
 2365 0002 D0F8B003 		ldr	r0, [r0, #944]
 2366              	.L412:
 2367 0006 FFF7FEBF 		b	TLSX_SNI_Status
 2369              		.section	.text.wolfSSL_SNI_GetRequest,"ax",%progbits
 2370              		.align	1
 2371              		.global	wolfSSL_SNI_GetRequest
 2372              		.syntax unified
 2373              		.thumb
 2374              		.thumb_func
 2375              		.fpu fpv4-sp-d16
 2377              	wolfSSL_SNI_GetRequest:
 2378              		@ args = 0, pretend = 0, frame = 0
 2379              		@ frame_needed = 0, uses_anonymous_args = 0
 2380              		@ link register save eliminated.
 2381 0000 0AB1     		cbz	r2, .L417
 2382 0002 0023     		movs	r3, #0
 2383 0004 1360     		str	r3, [r2]
 2384              	.L417:
 2385 0006 28B1     		cbz	r0, .L418
 2386 0008 D0F8B003 		ldr	r0, [r0, #944]
 2387 000c 10B1     		cbz	r0, .L418
 2388 000e 0023     		movs	r3, #0
 2389 0010 FFF7FEBF 		b	TLSX_SNI_GetRequest
 2390              	.L418:
 2391 0014 0020     		movs	r0, #0
 2392 0016 7047     		bx	lr
ARM GAS  /tmp/cc0JdWKx.s 			page 40


 2394              		.section	.text.wolfSSL_SNI_GetFromBuffer,"ax",%progbits
 2395              		.align	1
 2396              		.global	wolfSSL_SNI_GetFromBuffer
 2397              		.syntax unified
 2398              		.thumb
 2399              		.thumb_func
 2400              		.fpu fpv4-sp-d16
 2402              	wolfSSL_SNI_GetFromBuffer:
 2403              		@ args = 4, pretend = 0, frame = 0
 2404              		@ frame_needed = 0, uses_anonymous_args = 0
 2405              		@ link register save eliminated.
 2406 0000 70B4     		push	{r4, r5, r6}
 2407 0002 039C     		ldr	r4, [sp, #12]
 2408 0004 38B1     		cbz	r0, .L426
 2409 0006 31B1     		cbz	r1, .L426
 2410 0008 2BB1     		cbz	r3, .L426
 2411 000a 24B1     		cbz	r4, .L426
 2412 000c 2568     		ldr	r5, [r4]
 2413 000e 15B1     		cbz	r5, .L426
 2414 0010 70BC     		pop	{r4, r5, r6}
 2415 0012 FFF7FEBF 		b	TLSX_SNI_GetFromBuffer
 2416              	.L426:
 2417 0016 6FF0AC00 		mvn	r0, #172
 2418 001a 70BC     		pop	{r4, r5, r6}
 2419 001c 7047     		bx	lr
 2421              		.section	.text.wolfSSL_UseSupportedCurve,"ax",%progbits
 2422              		.align	1
 2423              		.global	wolfSSL_UseSupportedCurve
 2424              		.syntax unified
 2425              		.thumb
 2426              		.thumb_func
 2427              		.fpu fpv4-sp-d16
 2429              	wolfSSL_UseSupportedCurve:
 2430              		@ args = 0, pretend = 0, frame = 0
 2431              		@ frame_needed = 0, uses_anonymous_args = 0
 2432 0000 10B5     		push	{r4, lr}
 2433 0002 0446     		mov	r4, r0
 2434 0004 0846     		mov	r0, r1
 2435 0006 84B1     		cbz	r4, .L438
 2436 0008 FFF7FEFF 		bl	isValidCurveGroup
 2437 000c 68B1     		cbz	r0, .L438
 2438 000e 94F8F132 		ldrb	r3, [r4, #753]	@ zero_extendqisi2
 2439 0012 D4F88820 		ldr	r2, [r4, #136]
 2440 0016 43F04003 		orr	r3, r3, #64
 2441 001a 84F8F132 		strb	r3, [r4, #753]
 2442 001e 04F56C70 		add	r0, r4, #944
 2443 0022 BDE81040 		pop	{r4, lr}
 2444 0026 FFF7FEBF 		b	TLSX_UseSupportedCurve
 2445              	.L438:
 2446 002a 6FF0AC00 		mvn	r0, #172
 2447 002e 10BD     		pop	{r4, pc}
 2449              		.section	.text.wolfSSL_CTX_UseSupportedCurve,"ax",%progbits
 2450              		.align	1
 2451              		.global	wolfSSL_CTX_UseSupportedCurve
 2452              		.syntax unified
 2453              		.thumb
 2454              		.thumb_func
ARM GAS  /tmp/cc0JdWKx.s 			page 41


 2455              		.fpu fpv4-sp-d16
 2457              	wolfSSL_CTX_UseSupportedCurve:
 2458              		@ args = 0, pretend = 0, frame = 0
 2459              		@ frame_needed = 0, uses_anonymous_args = 0
 2460 0000 10B5     		push	{r4, lr}
 2461 0002 0446     		mov	r4, r0
 2462 0004 0846     		mov	r0, r1
 2463 0006 64B1     		cbz	r4, .L444
 2464 0008 FFF7FEFF 		bl	isValidCurveGroup
 2465 000c 48B1     		cbz	r0, .L444
 2466 000e 0123     		movs	r3, #1
 2467 0010 626B     		ldr	r2, [r4, #52]
 2468 0012 84F8DC36 		strb	r3, [r4, #1756]
 2469 0016 04F5DB60 		add	r0, r4, #1752
 2470 001a BDE81040 		pop	{r4, lr}
 2471 001e FFF7FEBF 		b	TLSX_UseSupportedCurve
 2472              	.L444:
 2473 0022 6FF0AC00 		mvn	r0, #172
 2474 0026 10BD     		pop	{r4, pc}
 2476              		.section	.text.wolfSSL_send,"ax",%progbits
 2477              		.align	1
 2478              		.global	wolfSSL_send
 2479              		.syntax unified
 2480              		.thumb
 2481              		.thumb_func
 2482              		.fpu fpv4-sp-d16
 2484              	wolfSSL_send:
 2485              		@ args = 0, pretend = 0, frame = 0
 2486              		@ frame_needed = 0, uses_anonymous_args = 0
 2487 0000 70B5     		push	{r4, r5, r6, lr}
 2488 0002 0446     		mov	r4, r0
 2489 0004 58B1     		cbz	r0, .L454
 2490 0006 51B1     		cbz	r1, .L454
 2491 0008 002A     		cmp	r2, #0
 2492 000a 08DB     		blt	.L454
 2493 000c D0F88051 		ldr	r5, [r0, #384]
 2494 0010 C0F88031 		str	r3, [r0, #384]
 2495 0014 FFF7FEFF 		bl	wolfSSL_write
 2496 0018 C4F88051 		str	r5, [r4, #384]
 2497              	.L450:
 2498 001c 70BD     		pop	{r4, r5, r6, pc}
 2499              	.L454:
 2500 001e 6FF0AC00 		mvn	r0, #172
 2501 0022 FBE7     		b	.L450
 2503              		.section	.text.wolfSSL_recv,"ax",%progbits
 2504              		.align	1
 2505              		.global	wolfSSL_recv
 2506              		.syntax unified
 2507              		.thumb
 2508              		.thumb_func
 2509              		.fpu fpv4-sp-d16
 2511              	wolfSSL_recv:
 2512              		@ args = 0, pretend = 0, frame = 0
 2513              		@ frame_needed = 0, uses_anonymous_args = 0
 2514 0000 70B5     		push	{r4, r5, r6, lr}
 2515 0002 0446     		mov	r4, r0
 2516 0004 58B1     		cbz	r0, .L459
ARM GAS  /tmp/cc0JdWKx.s 			page 42


 2517 0006 51B1     		cbz	r1, .L459
 2518 0008 002A     		cmp	r2, #0
 2519 000a 08DB     		blt	.L459
 2520 000c D0F87C51 		ldr	r5, [r0, #380]
 2521 0010 C0F87C31 		str	r3, [r0, #380]
 2522 0014 FFF7FEFF 		bl	wolfSSL_read
 2523 0018 C4F87C51 		str	r5, [r4, #380]
 2524              	.L455:
 2525 001c 70BD     		pop	{r4, r5, r6, pc}
 2526              	.L459:
 2527 001e 6FF0AC00 		mvn	r0, #172
 2528 0022 FBE7     		b	.L455
 2530              		.section	.text.wolfSSL_shutdown,"ax",%progbits
 2531              		.align	1
 2532              		.global	wolfSSL_shutdown
 2533              		.syntax unified
 2534              		.thumb
 2535              		.thumb_func
 2536              		.fpu fpv4-sp-d16
 2538              	wolfSSL_shutdown:
 2539              		@ args = 0, pretend = 0, frame = 0
 2540              		@ frame_needed = 0, uses_anonymous_args = 0
 2541 0000 10B5     		push	{r4, lr}
 2542 0002 0446     		mov	r4, r0
 2543 0004 90B1     		cbz	r0, .L461
 2544 0006 90F8F032 		ldrb	r3, [r0, #752]	@ zero_extendqisi2
 2545 000a 5B06     		lsls	r3, r3, #25
 2546 000c 64D4     		bmi	.L473
 2547 000e 6FF4A373 		mvn	r3, #326
 2548 0012 D0F87021 		ldr	r2, [r0, #368]
 2549 0016 9A42     		cmp	r2, r3
 2550 0018 4CD1     		bne	.L475
 2551 001a D0F8F430 		ldr	r3, [r0, #244]
 2552 001e 002B     		cmp	r3, #0
 2553 0020 48D0     		beq	.L475
 2554 0022 FFF7FEFF 		bl	SendBuffered
 2555 0026 C4F87001 		str	r0, [r4, #368]
 2556 002a 10B1     		cbz	r0, .L464
 2557              	.L461:
 2558 002c 4FF0FF30 		mov	r0, #-1
 2559 0030 06E0     		b	.L460
 2560              	.L464:
 2561 0032 94F8EE32 		ldrb	r3, [r4, #750]	@ zero_extendqisi2
 2562 0036 5906     		lsls	r1, r3, #25
 2563 0038 06D5     		bpl	.L463
 2564 003a 9A06     		lsls	r2, r3, #26
 2565 003c 01D4     		bmi	.L465
 2566              	.L469:
 2567 003e 0220     		movs	r0, #2
 2568              	.L460:
 2569 0040 10BD     		pop	{r4, pc}
 2570              	.L465:
 2571 0042 0120     		movs	r0, #1
 2572 0044 84F8F602 		strb	r0, [r4, #758]
 2573              	.L463:
 2574 0048 94F8EE22 		ldrb	r2, [r4, #750]	@ zero_extendqisi2
 2575 004c 12F05802 		ands	r2, r2, #88
ARM GAS  /tmp/cc0JdWKx.s 			page 43


 2576 0050 19D1     		bne	.L466
 2577 0052 0121     		movs	r1, #1
 2578 0054 2046     		mov	r0, r4
 2579 0056 FFF7FEFF 		bl	SendAlert
 2580 005a C4F87001 		str	r0, [r4, #368]
 2581 005e 18B1     		cbz	r0, .L467
 2582 0060 6FF4A373 		mvn	r3, #326
 2583 0064 9842     		cmp	r0, r3
 2584 0066 05D1     		bne	.L468
 2585              	.L467:
 2586 0068 94F8EE32 		ldrb	r3, [r4, #750]	@ zero_extendqisi2
 2587 006c 43F04003 		orr	r3, r3, #64
 2588 0070 84F8EE32 		strb	r3, [r4, #750]
 2589              	.L468:
 2590 0074 0028     		cmp	r0, #0
 2591 0076 D9DB     		blt	.L461
 2592 0078 94F8EE32 		ldrb	r3, [r4, #750]	@ zero_extendqisi2
 2593 007c 9B06     		lsls	r3, r3, #26
 2594 007e DED5     		bpl	.L469
 2595 0080 0120     		movs	r0, #1
 2596 0082 84F8F602 		strb	r0, [r4, #758]
 2597              	.L466:
 2598 0086 94F8EE32 		ldrb	r3, [r4, #750]	@ zero_extendqisi2
 2599 008a 03F06003 		and	r3, r3, #96
 2600 008e 402B     		cmp	r3, #64
 2601 0090 D6D1     		bne	.L460
 2602 0092 2046     		mov	r0, r4
 2603 0094 FFF7FEFF 		bl	ProcessReply
 2604 0098 6FF4AB73 		mvn	r3, #342
 2605 009c 9842     		cmp	r0, r3
 2606 009e 02D0     		beq	.L470
 2607 00a0 10F59A7F 		cmn	r0, #308
 2608 00a4 09D1     		bne	.L471
 2609              	.L470:
 2610 00a6 0120     		movs	r0, #1
 2611 00a8 0023     		movs	r3, #0
 2612 00aa 84F8F602 		strb	r0, [r4, #758]
 2613 00ae C4F87031 		str	r3, [r4, #368]
 2614 00b2 C5E7     		b	.L460
 2615              	.L475:
 2616 00b4 4FF0FF30 		mov	r0, #-1
 2617 00b8 C6E7     		b	.L463
 2618              	.L471:
 2619 00ba 10F17D0F 		cmn	r0, #125
 2620 00be B5D0     		beq	.L461
 2621 00c0 6FF4A173 		mvn	r3, #322
 2622 00c4 9842     		cmp	r0, r3
 2623 00c6 02D1     		bne	.L472
 2624 00c8 C4F87001 		str	r0, [r4, #368]
 2625 00cc AEE7     		b	.L461
 2626              	.L472:
 2627 00ce D4F87031 		ldr	r3, [r4, #368]
 2628 00d2 002B     		cmp	r3, #0
 2629 00d4 B3D0     		beq	.L469
 2630 00d6 A9E7     		b	.L461
 2631              	.L473:
 2632 00d8 0120     		movs	r0, #1
ARM GAS  /tmp/cc0JdWKx.s 			page 44


 2633 00da B1E7     		b	.L460
 2635              		.section	.text.wolfSSL_SendUserCanceled,"ax",%progbits
 2636              		.align	1
 2637              		.global	wolfSSL_SendUserCanceled
 2638              		.syntax unified
 2639              		.thumb
 2640              		.thumb_func
 2641              		.fpu fpv4-sp-d16
 2643              	wolfSSL_SendUserCanceled:
 2644              		@ args = 0, pretend = 0, frame = 0
 2645              		@ frame_needed = 0, uses_anonymous_args = 0
 2646 0000 10B5     		push	{r4, lr}
 2647 0002 0446     		mov	r4, r0
 2648 0004 60B1     		cbz	r0, .L496
 2649 0006 5A22     		movs	r2, #90
 2650 0008 0121     		movs	r1, #1
 2651 000a FFF7FEFF 		bl	SendAlert
 2652 000e 0028     		cmp	r0, #0
 2653 0010 C4F87001 		str	r0, [r4, #368]
 2654 0014 04DB     		blt	.L496
 2655 0016 2046     		mov	r0, r4
 2656 0018 BDE81040 		pop	{r4, lr}
 2657 001c FFF7FEBF 		b	wolfSSL_shutdown
 2658              	.L496:
 2659 0020 0020     		movs	r0, #0
 2660 0022 10BD     		pop	{r4, pc}
 2662              		.section	.text.wolfSSL_state,"ax",%progbits
 2663              		.align	1
 2664              		.global	wolfSSL_state
 2665              		.syntax unified
 2666              		.thumb
 2667              		.thumb_func
 2668              		.fpu fpv4-sp-d16
 2670              	wolfSSL_state:
 2671              		@ args = 0, pretend = 0, frame = 0
 2672              		@ frame_needed = 0, uses_anonymous_args = 0
 2673              		@ link register save eliminated.
 2674 0000 10B1     		cbz	r0, .L500
 2675 0002 D0F87001 		ldr	r0, [r0, #368]
 2676 0006 7047     		bx	lr
 2677              	.L500:
 2678 0008 6FF0AC00 		mvn	r0, #172
 2679 000c 7047     		bx	lr
 2681              		.section	.text.wolfSSL_get_error,"ax",%progbits
 2682              		.align	1
 2683              		.global	wolfSSL_get_error
 2684              		.syntax unified
 2685              		.thumb
 2686              		.thumb_func
 2687              		.fpu fpv4-sp-d16
 2689              	wolfSSL_get_error:
 2690              		@ args = 0, pretend = 0, frame = 0
 2691              		@ frame_needed = 0, uses_anonymous_args = 0
 2692              		@ link register save eliminated.
 2693 0000 0029     		cmp	r1, #0
 2694 0002 0346     		mov	r3, r0
 2695 0004 14DC     		bgt	.L503
ARM GAS  /tmp/cc0JdWKx.s 			page 45


 2696 0006 A8B1     		cbz	r0, .L504
 2697 0008 6FF4A172 		mvn	r2, #322
 2698 000c D0F87001 		ldr	r0, [r0, #368]
 2699 0010 9042     		cmp	r0, r2
 2700 0012 12D0     		beq	.L505
 2701 0014 6FF4A372 		mvn	r2, #326
 2702 0018 9042     		cmp	r0, r2
 2703 001a 10D0     		beq	.L506
 2704 001c 6FF4AB72 		mvn	r2, #342
 2705 0020 9042     		cmp	r0, r2
 2706 0022 0ED0     		beq	.L507
 2707 0024 93F8F632 		ldrb	r3, [r3, #758]	@ zero_extendqisi2
 2708 0028 002B     		cmp	r3, #0
 2709 002a 18BF     		it	ne
 2710 002c 0620     		movne	r0, #6
 2711 002e 7047     		bx	lr
 2712              	.L503:
 2713 0030 0020     		movs	r0, #0
 2714 0032 7047     		bx	lr
 2715              	.L504:
 2716 0034 6FF0AC00 		mvn	r0, #172
 2717 0038 7047     		bx	lr
 2718              	.L505:
 2719 003a 0220     		movs	r0, #2
 2720 003c 7047     		bx	lr
 2721              	.L506:
 2722 003e 0320     		movs	r0, #3
 2723 0040 7047     		bx	lr
 2724              	.L507:
 2725 0042 0620     		movs	r0, #6
 2726 0044 7047     		bx	lr
 2728              		.section	.text.wolfSSL_get_alert_history,"ax",%progbits
 2729              		.align	1
 2730              		.global	wolfSSL_get_alert_history
 2731              		.syntax unified
 2732              		.thumb
 2733              		.thumb_func
 2734              		.fpu fpv4-sp-d16
 2736              	wolfSSL_get_alert_history:
 2737              		@ args = 0, pretend = 0, frame = 0
 2738              		@ frame_needed = 0, uses_anonymous_args = 0
 2739 0000 10B5     		push	{r4, lr}
 2740 0002 0C46     		mov	r4, r1
 2741 0004 28B1     		cbz	r0, .L510
 2742 0006 21B1     		cbz	r1, .L510
 2743 0008 00F5AC70 		add	r0, r0, #344
 2744 000c 0FC8     		ldm	r0, {r0, r1, r2, r3}
 2745 000e 84E80F00 		stm	r4, {r0, r1, r2, r3}
 2746              	.L510:
 2747 0012 0120     		movs	r0, #1
 2748 0014 10BD     		pop	{r4, pc}
 2750              		.section	.text.wolfSSL_want_read,"ax",%progbits
 2751              		.align	1
 2752              		.global	wolfSSL_want_read
 2753              		.syntax unified
 2754              		.thumb
 2755              		.thumb_func
ARM GAS  /tmp/cc0JdWKx.s 			page 46


 2756              		.fpu fpv4-sp-d16
 2758              	wolfSSL_want_read:
 2759              		@ args = 0, pretend = 0, frame = 0
 2760              		@ frame_needed = 0, uses_anonymous_args = 0
 2761              		@ link register save eliminated.
 2762 0000 6FF4A173 		mvn	r3, #322
 2763 0004 D0F87001 		ldr	r0, [r0, #368]
 2764 0008 C31A     		subs	r3, r0, r3
 2765 000a 5842     		rsbs	r0, r3, #0
 2766 000c 5841     		adcs	r0, r0, r3
 2767 000e 7047     		bx	lr
 2769              		.section	.text.wolfSSL_want_write,"ax",%progbits
 2770              		.align	1
 2771              		.global	wolfSSL_want_write
 2772              		.syntax unified
 2773              		.thumb
 2774              		.thumb_func
 2775              		.fpu fpv4-sp-d16
 2777              	wolfSSL_want_write:
 2778              		@ args = 0, pretend = 0, frame = 0
 2779              		@ frame_needed = 0, uses_anonymous_args = 0
 2780              		@ link register save eliminated.
 2781 0000 6FF4A373 		mvn	r3, #326
 2782 0004 D0F87001 		ldr	r0, [r0, #368]
 2783 0008 C31A     		subs	r3, r0, r3
 2784 000a 5842     		rsbs	r0, r3, #0
 2785 000c 5841     		adcs	r0, r0, r3
 2786 000e 7047     		bx	lr
 2788              		.section	.text.wolfSSL_ERR_error_string,"ax",%progbits
 2789              		.align	1
 2790              		.global	wolfSSL_ERR_error_string
 2791              		.syntax unified
 2792              		.thumb
 2793              		.thumb_func
 2794              		.fpu fpv4-sp-d16
 2796              	wolfSSL_ERR_error_string:
 2797              		@ args = 0, pretend = 0, frame = 0
 2798              		@ frame_needed = 0, uses_anonymous_args = 0
 2799 0000 10B5     		push	{r4, lr}
 2800 0002 0C46     		mov	r4, r1
 2801 0004 19B1     		cbz	r1, .L520
 2802 0006 FFF7FEFF 		bl	SetErrorString
 2803              	.L521:
 2804 000a 2046     		mov	r0, r4
 2805 000c 10BD     		pop	{r4, pc}
 2806              	.L520:
 2807 000e 0249     		ldr	r1, .L522
 2808 0010 FFF7FEFF 		bl	SetErrorString
 2809 0014 004C     		ldr	r4, .L522
 2810 0016 F8E7     		b	.L521
 2811              	.L523:
 2812              		.align	2
 2813              	.L522:
 2814 0018 00000000 		.word	.LANCHOR2
 2816              		.section	.text.wolfSSL_ERR_error_string_n,"ax",%progbits
 2817              		.align	1
 2818              		.global	wolfSSL_ERR_error_string_n
ARM GAS  /tmp/cc0JdWKx.s 			page 47


 2819              		.syntax unified
 2820              		.thumb
 2821              		.thumb_func
 2822              		.fpu fpv4-sp-d16
 2824              	wolfSSL_ERR_error_string_n:
 2825              		@ args = 0, pretend = 0, frame = 80
 2826              		@ frame_needed = 0, uses_anonymous_args = 0
 2827 0000 30B5     		push	{r4, r5, lr}
 2828 0002 4F2A     		cmp	r2, #79
 2829 0004 0D46     		mov	r5, r1
 2830 0006 1446     		mov	r4, r2
 2831 0008 95B0     		sub	sp, sp, #84
 2832 000a 04D9     		bls	.L525
 2833 000c 15B0     		add	sp, sp, #84
 2834              		@ sp needed
 2835 000e BDE83040 		pop	{r4, r5, lr}
 2836 0012 FFF7FEBF 		b	wolfSSL_ERR_error_string
 2837              	.L525:
 2838 0016 52B1     		cbz	r2, .L524
 2839 0018 6946     		mov	r1, sp
 2840 001a 013C     		subs	r4, r4, #1
 2841 001c FFF7FEFF 		bl	SetErrorString
 2842 0020 2246     		mov	r2, r4
 2843 0022 6946     		mov	r1, sp
 2844 0024 2846     		mov	r0, r5
 2845 0026 FFF7FEFF 		bl	memcpy
 2846 002a 0023     		movs	r3, #0
 2847 002c 2B55     		strb	r3, [r5, r4]
 2848              	.L524:
 2849 002e 15B0     		add	sp, sp, #84
 2850              		@ sp needed
 2851 0030 30BD     		pop	{r4, r5, pc}
 2853              		.section	.text.wolfSSL_KeepArrays,"ax",%progbits
 2854              		.align	1
 2855              		.global	wolfSSL_KeepArrays
 2856              		.syntax unified
 2857              		.thumb
 2858              		.thumb_func
 2859              		.fpu fpv4-sp-d16
 2861              	wolfSSL_KeepArrays:
 2862              		@ args = 0, pretend = 0, frame = 0
 2863              		@ frame_needed = 0, uses_anonymous_args = 0
 2864              		@ link register save eliminated.
 2865 0000 28B1     		cbz	r0, .L530
 2866 0002 90F8F132 		ldrb	r3, [r0, #753]	@ zero_extendqisi2
 2867 0006 43F00203 		orr	r3, r3, #2
 2868 000a 80F8F132 		strb	r3, [r0, #753]
 2869              	.L530:
 2870 000e 7047     		bx	lr
 2872              		.section	.text.wolfSSL_FreeArrays,"ax",%progbits
 2873              		.align	1
 2874              		.global	wolfSSL_FreeArrays
 2875              		.syntax unified
 2876              		.thumb
 2877              		.thumb_func
 2878              		.fpu fpv4-sp-d16
 2880              	wolfSSL_FreeArrays:
ARM GAS  /tmp/cc0JdWKx.s 			page 48


 2881              		@ args = 0, pretend = 0, frame = 0
 2882              		@ frame_needed = 0, uses_anonymous_args = 0
 2883              		@ link register save eliminated.
 2884 0000 60B1     		cbz	r0, .L535
 2885 0002 90F80323 		ldrb	r2, [r0, #771]	@ zero_extendqisi2
 2886 0006 102A     		cmp	r2, #16
 2887 0008 08D1     		bne	.L535
 2888 000a 90F8F122 		ldrb	r2, [r0, #753]	@ zero_extendqisi2
 2889 000e 0121     		movs	r1, #1
 2890 0010 6FF34102 		bfc	r2, #1, #1
 2891 0014 80F8F122 		strb	r2, [r0, #753]
 2892 0018 FFF7FEBF 		b	FreeArrays
 2893              	.L535:
 2894 001c 7047     		bx	lr
 2896              		.section	.text.wolfSSL_KeepHandshakeResources,"ax",%progbits
 2897              		.align	1
 2898              		.global	wolfSSL_KeepHandshakeResources
 2899              		.syntax unified
 2900              		.thumb
 2901              		.thumb_func
 2902              		.fpu fpv4-sp-d16
 2904              	wolfSSL_KeepHandshakeResources:
 2905              		@ args = 0, pretend = 0, frame = 0
 2906              		@ frame_needed = 0, uses_anonymous_args = 0
 2907              		@ link register save eliminated.
 2908 0000 38B1     		cbz	r0, .L542
 2909 0002 90F8F132 		ldrb	r3, [r0, #753]	@ zero_extendqisi2
 2910 0006 43F08003 		orr	r3, r3, #128
 2911 000a 80F8F132 		strb	r3, [r0, #753]
 2912 000e 0020     		movs	r0, #0
 2913 0010 7047     		bx	lr
 2914              	.L542:
 2915 0012 6FF0AC00 		mvn	r0, #172
 2916 0016 7047     		bx	lr
 2918              		.section	.text.wolfSSL_FreeHandshakeResources,"ax",%progbits
 2919              		.align	1
 2920              		.global	wolfSSL_FreeHandshakeResources
 2921              		.syntax unified
 2922              		.thumb
 2923              		.thumb_func
 2924              		.fpu fpv4-sp-d16
 2926              	wolfSSL_FreeHandshakeResources:
 2927              		@ args = 0, pretend = 0, frame = 0
 2928              		@ frame_needed = 0, uses_anonymous_args = 0
 2929 0000 08B5     		push	{r3, lr}
 2930 0002 18B1     		cbz	r0, .L545
 2931 0004 FFF7FEFF 		bl	FreeHandshakeResources
 2932 0008 0020     		movs	r0, #0
 2933              	.L543:
 2934 000a 08BD     		pop	{r3, pc}
 2935              	.L545:
 2936 000c 6FF0AC00 		mvn	r0, #172
 2937 0010 FBE7     		b	.L543
 2939              		.section	.text.wolfSSL_CTX_UseClientSuites,"ax",%progbits
 2940              		.align	1
 2941              		.global	wolfSSL_CTX_UseClientSuites
 2942              		.syntax unified
ARM GAS  /tmp/cc0JdWKx.s 			page 49


 2943              		.thumb
 2944              		.thumb_func
 2945              		.fpu fpv4-sp-d16
 2947              	wolfSSL_CTX_UseClientSuites:
 2948              		@ args = 0, pretend = 0, frame = 0
 2949              		@ frame_needed = 0, uses_anonymous_args = 0
 2950              		@ link register save eliminated.
 2951 0000 38B1     		cbz	r0, .L548
 2952 0002 90F83D30 		ldrb	r3, [r0, #61]	@ zero_extendqisi2
 2953 0006 43F00203 		orr	r3, r3, #2
 2954 000a 80F83D30 		strb	r3, [r0, #61]
 2955 000e 0020     		movs	r0, #0
 2956 0010 7047     		bx	lr
 2957              	.L548:
 2958 0012 6FF0AC00 		mvn	r0, #172
 2959 0016 7047     		bx	lr
 2961              		.section	.text.wolfSSL_UseClientSuites,"ax",%progbits
 2962              		.align	1
 2963              		.global	wolfSSL_UseClientSuites
 2964              		.syntax unified
 2965              		.thumb
 2966              		.thumb_func
 2967              		.fpu fpv4-sp-d16
 2969              	wolfSSL_UseClientSuites:
 2970              		@ args = 0, pretend = 0, frame = 0
 2971              		@ frame_needed = 0, uses_anonymous_args = 0
 2972              		@ link register save eliminated.
 2973 0000 38B1     		cbz	r0, .L551
 2974 0002 90F8F232 		ldrb	r3, [r0, #754]	@ zero_extendqisi2
 2975 0006 43F00103 		orr	r3, r3, #1
 2976 000a 80F8F232 		strb	r3, [r0, #754]
 2977 000e 0020     		movs	r0, #0
 2978 0010 7047     		bx	lr
 2979              	.L551:
 2980 0012 6FF0AC00 		mvn	r0, #172
 2981 0016 7047     		bx	lr
 2983              		.section	.text.wolfSSL_GetMacSecret,"ax",%progbits
 2984              		.align	1
 2985              		.global	wolfSSL_GetMacSecret
 2986              		.syntax unified
 2987              		.thumb
 2988              		.thumb_func
 2989              		.fpu fpv4-sp-d16
 2991              	wolfSSL_GetMacSecret:
 2992              		@ args = 0, pretend = 0, frame = 0
 2993              		@ frame_needed = 0, uses_anonymous_args = 0
 2994              		@ link register save eliminated.
 2995 0000 70B1     		cbz	r0, .L553
 2996 0002 90F8EC32 		ldrb	r3, [r0, #748]	@ zero_extendqisi2
 2997 0006 03F06003 		and	r3, r3, #96
 2998 000a 202B     		cmp	r3, #32
 2999 000c 03D1     		bne	.L554
 3000 000e 29B9     		cbnz	r1, .L556
 3001              	.L555:
 3002 0010 00F5DA70 		add	r0, r0, #436
 3003 0014 7047     		bx	lr
 3004              	.L554:
ARM GAS  /tmp/cc0JdWKx.s 			page 50


 3005 0016 0BB9     		cbnz	r3, .L556
 3006 0018 0029     		cmp	r1, #0
 3007 001a F9D1     		bne	.L555
 3008              	.L556:
 3009 001c 00F5FA70 		add	r0, r0, #500
 3010              	.L553:
 3011 0020 7047     		bx	lr
 3013              		.section	.text.wolfSSL_GetSide,"ax",%progbits
 3014              		.align	1
 3015              		.global	wolfSSL_GetSide
 3016              		.syntax unified
 3017              		.thumb
 3018              		.thumb_func
 3019              		.fpu fpv4-sp-d16
 3021              	wolfSSL_GetSide:
 3022              		@ args = 0, pretend = 0, frame = 0
 3023              		@ frame_needed = 0, uses_anonymous_args = 0
 3024              		@ link register save eliminated.
 3025 0000 20B1     		cbz	r0, .L568
 3026 0002 90F8EC02 		ldrb	r0, [r0, #748]	@ zero_extendqisi2
 3027 0006 C0F34110 		ubfx	r0, r0, #5, #2
 3028 000a 7047     		bx	lr
 3029              	.L568:
 3030 000c 6FF0AC00 		mvn	r0, #172
 3031 0010 7047     		bx	lr
 3033              		.section	.text.wolfSSL_CTX_GetCertManager,"ax",%progbits
 3034              		.align	1
 3035              		.global	wolfSSL_CTX_GetCertManager
 3036              		.syntax unified
 3037              		.thumb
 3038              		.thumb_func
 3039              		.fpu fpv4-sp-d16
 3041              	wolfSSL_CTX_GetCertManager:
 3042              		@ args = 0, pretend = 0, frame = 0
 3043              		@ frame_needed = 0, uses_anonymous_args = 0
 3044              		@ link register save eliminated.
 3045 0000 00B1     		cbz	r0, .L570
 3046 0002 C06A     		ldr	r0, [r0, #44]
 3047              	.L570:
 3048 0004 7047     		bx	lr
 3050              		.section	.text.wolfSSL_pending,"ax",%progbits
 3051              		.align	1
 3052              		.global	wolfSSL_pending
 3053              		.syntax unified
 3054              		.thumb
 3055              		.thumb_func
 3056              		.fpu fpv4-sp-d16
 3058              	wolfSSL_pending:
 3059              		@ args = 0, pretend = 0, frame = 0
 3060              		@ frame_needed = 0, uses_anonymous_args = 0
 3061              		@ link register save eliminated.
 3062 0000 08B1     		cbz	r0, .L574
 3063 0002 D0F81001 		ldr	r0, [r0, #272]
 3064              	.L574:
 3065 0006 7047     		bx	lr
 3067              		.section	.text.wolfSSL_has_pending,"ax",%progbits
 3068              		.align	1
ARM GAS  /tmp/cc0JdWKx.s 			page 51


 3069              		.global	wolfSSL_has_pending
 3070              		.syntax unified
 3071              		.thumb
 3072              		.thumb_func
 3073              		.fpu fpv4-sp-d16
 3075              	wolfSSL_has_pending:
 3076              		@ args = 0, pretend = 0, frame = 0
 3077              		@ frame_needed = 0, uses_anonymous_args = 0
 3078              		@ link register save eliminated.
 3079 0000 20B1     		cbz	r0, .L577
 3080 0002 D0F81001 		ldr	r0, [r0, #272]
 3081 0006 0038     		subs	r0, r0, #0
 3082 0008 18BF     		it	ne
 3083 000a 0120     		movne	r0, #1
 3084              	.L577:
 3085 000c 7047     		bx	lr
 3087              		.section	.text.wolfSSL_CTX_set_group_messages,"ax",%progbits
 3088              		.align	1
 3089              		.global	wolfSSL_CTX_set_group_messages
 3090              		.syntax unified
 3091              		.thumb
 3092              		.thumb_func
 3093              		.fpu fpv4-sp-d16
 3095              	wolfSSL_CTX_set_group_messages:
 3096              		@ args = 0, pretend = 0, frame = 0
 3097              		@ frame_needed = 0, uses_anonymous_args = 0
 3098              		@ link register save eliminated.
 3099 0000 38B1     		cbz	r0, .L582
 3100 0002 90F83B30 		ldrb	r3, [r0, #59]	@ zero_extendqisi2
 3101 0006 43F00403 		orr	r3, r3, #4
 3102 000a 80F83B30 		strb	r3, [r0, #59]
 3103 000e 0120     		movs	r0, #1
 3104 0010 7047     		bx	lr
 3105              	.L582:
 3106 0012 6FF0AC00 		mvn	r0, #172
 3107 0016 7047     		bx	lr
 3109              		.section	.text.wolfSSL_CTX_clear_group_messages,"ax",%progbits
 3110              		.align	1
 3111              		.global	wolfSSL_CTX_clear_group_messages
 3112              		.syntax unified
 3113              		.thumb
 3114              		.thumb_func
 3115              		.fpu fpv4-sp-d16
 3117              	wolfSSL_CTX_clear_group_messages:
 3118              		@ args = 0, pretend = 0, frame = 0
 3119              		@ frame_needed = 0, uses_anonymous_args = 0
 3120              		@ link register save eliminated.
 3121 0000 38B1     		cbz	r0, .L585
 3122 0002 90F83B30 		ldrb	r3, [r0, #59]	@ zero_extendqisi2
 3123 0006 6FF38203 		bfc	r3, #2, #1
 3124 000a 80F83B30 		strb	r3, [r0, #59]
 3125 000e 0120     		movs	r0, #1
 3126 0010 7047     		bx	lr
 3127              	.L585:
 3128 0012 6FF0AC00 		mvn	r0, #172
 3129 0016 7047     		bx	lr
 3131              		.section	.text.wolfSSL_set_group_messages,"ax",%progbits
ARM GAS  /tmp/cc0JdWKx.s 			page 52


 3132              		.align	1
 3133              		.global	wolfSSL_set_group_messages
 3134              		.syntax unified
 3135              		.thumb
 3136              		.thumb_func
 3137              		.fpu fpv4-sp-d16
 3139              	wolfSSL_set_group_messages:
 3140              		@ args = 0, pretend = 0, frame = 0
 3141              		@ frame_needed = 0, uses_anonymous_args = 0
 3142              		@ link register save eliminated.
 3143 0000 38B1     		cbz	r0, .L588
 3144 0002 90F8F132 		ldrb	r3, [r0, #753]	@ zero_extendqisi2
 3145 0006 43F00103 		orr	r3, r3, #1
 3146 000a 80F8F132 		strb	r3, [r0, #753]
 3147 000e 0120     		movs	r0, #1
 3148 0010 7047     		bx	lr
 3149              	.L588:
 3150 0012 6FF0AC00 		mvn	r0, #172
 3151 0016 7047     		bx	lr
 3153              		.section	.text.wolfSSL_clear_group_messages,"ax",%progbits
 3154              		.align	1
 3155              		.global	wolfSSL_clear_group_messages
 3156              		.syntax unified
 3157              		.thumb
 3158              		.thumb_func
 3159              		.fpu fpv4-sp-d16
 3161              	wolfSSL_clear_group_messages:
 3162              		@ args = 0, pretend = 0, frame = 0
 3163              		@ frame_needed = 0, uses_anonymous_args = 0
 3164              		@ link register save eliminated.
 3165 0000 38B1     		cbz	r0, .L591
 3166 0002 90F8F132 		ldrb	r3, [r0, #753]	@ zero_extendqisi2
 3167 0006 6FF30003 		bfc	r3, #0, #1
 3168 000a 80F8F132 		strb	r3, [r0, #753]
 3169 000e 0120     		movs	r0, #1
 3170 0010 7047     		bx	lr
 3171              	.L591:
 3172 0012 6FF0AC00 		mvn	r0, #172
 3173 0016 7047     		bx	lr
 3175              		.section	.text.wolfSSL_CTX_SetMinVersion,"ax",%progbits
 3176              		.align	1
 3177              		.global	wolfSSL_CTX_SetMinVersion
 3178              		.syntax unified
 3179              		.thumb
 3180              		.thumb_func
 3181              		.fpu fpv4-sp-d16
 3183              	wolfSSL_CTX_SetMinVersion:
 3184              		@ args = 0, pretend = 0, frame = 0
 3185              		@ frame_needed = 0, uses_anonymous_args = 0
 3186              		@ link register save eliminated.
 3187 0000 18B1     		cbz	r0, .L596
 3188 0002 0329     		cmp	r1, #3
 3189 0004 04D0     		beq	.L595
 3190 0006 0429     		cmp	r1, #4
 3191 0008 02D0     		beq	.L595
 3192              	.L596:
 3193 000a 6FF0AC00 		mvn	r0, #172
ARM GAS  /tmp/cc0JdWKx.s 			page 53


 3194 000e 7047     		bx	lr
 3195              	.L595:
 3196 0010 80F83C10 		strb	r1, [r0, #60]
 3197 0014 0120     		movs	r0, #1
 3198 0016 7047     		bx	lr
 3200              		.section	.text.wolfSSL_SetMinVersion,"ax",%progbits
 3201              		.align	1
 3202              		.global	wolfSSL_SetMinVersion
 3203              		.syntax unified
 3204              		.thumb
 3205              		.thumb_func
 3206              		.fpu fpv4-sp-d16
 3208              	wolfSSL_SetMinVersion:
 3209              		@ args = 0, pretend = 0, frame = 0
 3210              		@ frame_needed = 0, uses_anonymous_args = 0
 3211              		@ link register save eliminated.
 3212 0000 18B1     		cbz	r0, .L601
 3213 0002 0329     		cmp	r1, #3
 3214 0004 04D0     		beq	.L600
 3215 0006 0429     		cmp	r1, #4
 3216 0008 02D0     		beq	.L600
 3217              	.L601:
 3218 000a 6FF0AC00 		mvn	r0, #172
 3219 000e 7047     		bx	lr
 3220              	.L600:
 3221 0010 80F80513 		strb	r1, [r0, #773]
 3222 0014 0120     		movs	r0, #1
 3223 0016 7047     		bx	lr
 3225              		.section	.text.wolfSSL_GetVersion,"ax",%progbits
 3226              		.align	1
 3227              		.global	wolfSSL_GetVersion
 3228              		.syntax unified
 3229              		.thumb
 3230              		.thumb_func
 3231              		.fpu fpv4-sp-d16
 3233              	wolfSSL_GetVersion:
 3234              		@ args = 0, pretend = 0, frame = 0
 3235              		@ frame_needed = 0, uses_anonymous_args = 0
 3236              		@ link register save eliminated.
 3237 0000 50B1     		cbz	r0, .L604
 3238 0002 90F89E31 		ldrb	r3, [r0, #414]	@ zero_extendqisi2
 3239 0006 032B     		cmp	r3, #3
 3240 0008 09D1     		bne	.L605
 3241 000a 90F89F31 		ldrb	r3, [r0, #415]	@ zero_extendqisi2
 3242 000e 0548     		ldr	r0, .L607
 3243 0010 042B     		cmp	r3, #4
 3244 0012 98BF     		it	ls
 3245 0014 1846     		movls	r0, r3
 3246 0016 7047     		bx	lr
 3247              	.L604:
 3248 0018 6FF0AC00 		mvn	r0, #172
 3249 001c 7047     		bx	lr
 3250              	.L605:
 3251 001e 0148     		ldr	r0, .L607
 3252 0020 7047     		bx	lr
 3253              	.L608:
 3254 0022 00BF     		.align	2
ARM GAS  /tmp/cc0JdWKx.s 			page 54


 3255              	.L607:
 3256 0024 BAFEFFFF 		.word	-326
 3258              		.section	.text.wolfSSL_SetVersion,"ax",%progbits
 3259              		.align	1
 3260              		.global	wolfSSL_SetVersion
 3261              		.syntax unified
 3262              		.thumb
 3263              		.thumb_func
 3264              		.fpu fpv4-sp-d16
 3266              	wolfSSL_SetVersion:
 3267              		@ args = 0, pretend = 0, frame = 8
 3268              		@ frame_needed = 0, uses_anonymous_args = 0
 3269 0000 70B5     		push	{r4, r5, r6, lr}
 3270 0002 0446     		mov	r4, r0
 3271 0004 8EB0     		sub	sp, sp, #56
 3272 0006 18B1     		cbz	r0, .L614
 3273 0008 0329     		cmp	r1, #3
 3274 000a 04D0     		beq	.L611
 3275 000c 0429     		cmp	r1, #4
 3276 000e 3DD0     		beq	.L612
 3277              	.L614:
 3278 0010 6FF0AC00 		mvn	r0, #172
 3279 0014 38E0     		b	.L609
 3280              	.L611:
 3281 0016 FFF7FEFF 		bl	MakeTLSv1_2
 3282              	.L616:
 3283 001a 94F8EC62 		ldrb	r6, [r4, #748]	@ zero_extendqisi2
 3284 001e D4F83C21 		ldr	r2, [r4, #316]
 3285 0022 A4F89E01 		strh	r0, [r4, #414]	@ movhi
 3286 0026 2046     		mov	r0, r4
 3287 0028 06F00106 		and	r6, r6, #1
 3288 002c 0D92     		str	r2, [sp, #52]
 3289 002e FFF7FEFF 		bl	AllocateSuites
 3290 0032 70BB     		cbnz	r0, .L615
 3291 0034 0125     		movs	r5, #1
 3292 0036 94F8EC32 		ldrb	r3, [r4, #748]	@ zero_extendqisi2
 3293 003a CDE90955 		strd	r5, r5, [sp, #36]
 3294 003e CDE90755 		strd	r5, r5, [sp, #28]
 3295 0042 C3F34113 		ubfx	r3, r3, #5, #2
 3296 0046 0B93     		str	r3, [sp, #44]
 3297 0048 94F8F132 		ldrb	r3, [r4, #753]	@ zero_extendqisi2
 3298 004c 0D9A     		ldr	r2, [sp, #52]
 3299 004e C3F34013 		ubfx	r3, r3, #5, #1
 3300 0052 0693     		str	r3, [sp, #24]
 3301 0054 94F8EF12 		ldrb	r1, [r4, #751]	@ zero_extendqisi2
 3302 0058 C1F30013 		ubfx	r3, r1, #4, #1
 3303 005c CDE90453 		strd	r5, r3, [sp, #16]
 3304 0060 C1F34003 		ubfx	r3, r1, #1, #1
 3305 0064 0393     		str	r3, [sp, #12]
 3306 0066 C1F3C003 		ubfx	r3, r1, #3, #1
 3307 006a C1F38001 		ubfx	r1, r1, #2, #1
 3308 006e CDE90061 		strd	r6, r1, [sp]
 3309 0072 0146     		mov	r1, r0
 3310 0074 0293     		str	r3, [sp, #8]
 3311 0076 B4F89E31 		ldrh	r3, [r4, #414]
 3312 007a 63F30F01 		bfi	r1, r3, #0, #16
 3313 007e 0346     		mov	r3, r0
ARM GAS  /tmp/cc0JdWKx.s 			page 55


 3314 0080 6068     		ldr	r0, [r4, #4]
 3315 0082 FFF7FEFF 		bl	InitSuites
 3316 0086 2846     		mov	r0, r5
 3317              	.L609:
 3318 0088 0EB0     		add	sp, sp, #56
 3319              		@ sp needed
 3320 008a 70BD     		pop	{r4, r5, r6, pc}
 3321              	.L612:
 3322 008c FFF7FEFF 		bl	MakeTLSv1_3
 3323 0090 C3E7     		b	.L616
 3324              	.L615:
 3325 0092 0020     		movs	r0, #0
 3326 0094 F8E7     		b	.L609
 3328              		.section	.text.AlreadySigner,"ax",%progbits
 3329              		.align	1
 3330              		.global	AlreadySigner
 3331              		.syntax unified
 3332              		.thumb
 3333              		.thumb_func
 3334              		.fpu fpv4-sp-d16
 3336              	AlreadySigner:
 3337              		@ args = 0, pretend = 0, frame = 0
 3338              		@ frame_needed = 0, uses_anonymous_args = 0
 3339 0000 2DE9F041 		push	{r4, r5, r6, r7, r8, lr}
 3340 0004 0D46     		mov	r5, r1
 3341 0006 0646     		mov	r6, r0
 3342 0008 18B9     		cbnz	r0, .L618
 3343              	.L620:
 3344 000a 0024     		movs	r4, #0
 3345              	.L617:
 3346 000c 2046     		mov	r0, r4
 3347 000e BDE8F081 		pop	{r4, r5, r6, r7, r8, pc}
 3348              	.L618:
 3349 0012 0029     		cmp	r1, #0
 3350 0014 F9D0     		beq	.L620
 3351 0016 0846     		mov	r0, r1
 3352 0018 FFF7FEFF 		bl	HashSigner
 3353 001c 06F15C08 		add	r8, r6, #92
 3354 0020 0746     		mov	r7, r0
 3355 0022 4046     		mov	r0, r8
 3356 0024 FFF7FEFF 		bl	wc_LockMutex
 3357 0028 0446     		mov	r4, r0
 3358 002a 0028     		cmp	r0, #0
 3359 002c EDD1     		bne	.L620
 3360 002e 56F82760 		ldr	r6, [r6, r7, lsl #2]
 3361              	.L621:
 3362 0032 1EB9     		cbnz	r6, .L623
 3363              	.L622:
 3364 0034 4046     		mov	r0, r8
 3365 0036 FFF7FEFF 		bl	wc_UnLockMutex
 3366 003a E7E7     		b	.L617
 3367              	.L623:
 3368 003c 1422     		movs	r2, #20
 3369 003e 2846     		mov	r0, r5
 3370 0040 06F13801 		add	r1, r6, #56
 3371 0044 FFF7FEFF 		bl	memcmp
 3372 0048 08B1     		cbz	r0, .L624
ARM GAS  /tmp/cc0JdWKx.s 			page 56


 3373 004a 366D     		ldr	r6, [r6, #80]
 3374 004c F1E7     		b	.L621
 3375              	.L624:
 3376 004e 0124     		movs	r4, #1
 3377 0050 F0E7     		b	.L622
 3379              		.section	.text.GetCA,"ax",%progbits
 3380              		.align	1
 3381              		.global	GetCA
 3382              		.syntax unified
 3383              		.thumb
 3384              		.thumb_func
 3385              		.fpu fpv4-sp-d16
 3387              	GetCA:
 3388              		@ args = 0, pretend = 0, frame = 0
 3389              		@ frame_needed = 0, uses_anonymous_args = 0
 3390 0000 F8B5     		push	{r3, r4, r5, r6, r7, lr}
 3391 0002 0D46     		mov	r5, r1
 3392 0004 0446     		mov	r4, r0
 3393 0006 10B9     		cbnz	r0, .L629
 3394              	.L631:
 3395 0008 0024     		movs	r4, #0
 3396              	.L628:
 3397 000a 2046     		mov	r0, r4
 3398 000c F8BD     		pop	{r3, r4, r5, r6, r7, pc}
 3399              	.L629:
 3400 000e 0029     		cmp	r1, #0
 3401 0010 FAD0     		beq	.L631
 3402 0012 0846     		mov	r0, r1
 3403 0014 FFF7FEFF 		bl	HashSigner
 3404 0018 04F15C07 		add	r7, r4, #92
 3405 001c 0646     		mov	r6, r0
 3406 001e 3846     		mov	r0, r7
 3407 0020 FFF7FEFF 		bl	wc_LockMutex
 3408 0024 0028     		cmp	r0, #0
 3409 0026 EFD1     		bne	.L631
 3410 0028 54F82640 		ldr	r4, [r4, r6, lsl #2]
 3411              	.L632:
 3412 002c 1CB9     		cbnz	r4, .L634
 3413              	.L633:
 3414 002e 3846     		mov	r0, r7
 3415 0030 FFF7FEFF 		bl	wc_UnLockMutex
 3416 0034 E9E7     		b	.L628
 3417              	.L634:
 3418 0036 1422     		movs	r2, #20
 3419 0038 2846     		mov	r0, r5
 3420 003a 04F13801 		add	r1, r4, #56
 3421 003e FFF7FEFF 		bl	memcmp
 3422 0042 0028     		cmp	r0, #0
 3423 0044 F3D0     		beq	.L633
 3424 0046 246D     		ldr	r4, [r4, #80]
 3425 0048 F0E7     		b	.L632
 3427              		.section	.text.GetCAByName,"ax",%progbits
 3428              		.align	1
 3429              		.global	GetCAByName
 3430              		.syntax unified
 3431              		.thumb
 3432              		.thumb_func
ARM GAS  /tmp/cc0JdWKx.s 			page 57


 3433              		.fpu fpv4-sp-d16
 3435              	GetCAByName:
 3436              		@ args = 0, pretend = 0, frame = 0
 3437              		@ frame_needed = 0, uses_anonymous_args = 0
 3438 0000 2DE9F843 		push	{r3, r4, r5, r6, r7, r8, r9, lr}
 3439 0004 8846     		mov	r8, r1
 3440 0006 0446     		mov	r4, r0
 3441 0008 18B9     		cbnz	r0, .L642
 3442              	.L644:
 3443 000a 0025     		movs	r5, #0
 3444              	.L641:
 3445 000c 2846     		mov	r0, r5
 3446 000e BDE8F883 		pop	{r3, r4, r5, r6, r7, r8, r9, pc}
 3447              	.L642:
 3448 0012 00F15C09 		add	r9, r0, #92
 3449 0016 4846     		mov	r0, r9
 3450 0018 FFF7FEFF 		bl	wc_LockMutex
 3451 001c 0028     		cmp	r0, #0
 3452 001e F4D1     		bne	.L644
 3453 0020 271F     		subs	r7, r4, #4
 3454 0022 2834     		adds	r4, r4, #40
 3455              	.L651:
 3456 0024 0025     		movs	r5, #0
 3457 0026 57F8046F 		ldr	r6, [r7, #4]!
 3458              	.L645:
 3459 002a 2EB9     		cbnz	r6, .L647
 3460 002c A742     		cmp	r7, r4
 3461 002e 10D1     		bne	.L648
 3462              	.L649:
 3463 0030 4846     		mov	r0, r9
 3464 0032 FFF7FEFF 		bl	wc_UnLockMutex
 3465 0036 E9E7     		b	.L641
 3466              	.L647:
 3467 0038 002D     		cmp	r5, #0
 3468 003a F9D1     		bne	.L649
 3469 003c 06F12401 		add	r1, r6, #36
 3470 0040 1422     		movs	r2, #20
 3471 0042 4046     		mov	r0, r8
 3472 0044 FFF7FEFF 		bl	memcmp
 3473 0048 0028     		cmp	r0, #0
 3474 004a 08BF     		it	eq
 3475 004c 3546     		moveq	r5, r6
 3476 004e 366D     		ldr	r6, [r6, #80]
 3477 0050 EBE7     		b	.L645
 3478              	.L648:
 3479 0052 002D     		cmp	r5, #0
 3480 0054 E6D0     		beq	.L651
 3481 0056 EBE7     		b	.L649
 3483              		.section	.text.AddSigner,"ax",%progbits
 3484              		.align	1
 3485              		.global	AddSigner
 3486              		.syntax unified
 3487              		.thumb
 3488              		.thumb_func
 3489              		.fpu fpv4-sp-d16
 3491              	AddSigner:
 3492              		@ args = 0, pretend = 0, frame = 0
ARM GAS  /tmp/cc0JdWKx.s 			page 58


 3493              		@ frame_needed = 0, uses_anonymous_args = 0
 3494 0000 2DE9F041 		push	{r4, r5, r6, r7, r8, lr}
 3495 0004 0E46     		mov	r6, r1
 3496 0006 0546     		mov	r5, r0
 3497 0008 10B3     		cbz	r0, .L658
 3498 000a 09B3     		cbz	r1, .L658
 3499 000c 01F13804 		add	r4, r1, #56
 3500 0010 2146     		mov	r1, r4
 3501 0012 FFF7FEFF 		bl	AlreadySigner
 3502 0016 38B1     		cbz	r0, .L656
 3503 0018 3046     		mov	r0, r6
 3504 001a E96A     		ldr	r1, [r5, #44]
 3505 001c FFF7FEFF 		bl	FreeSigner
 3506 0020 0024     		movs	r4, #0
 3507              	.L654:
 3508 0022 2046     		mov	r0, r4
 3509 0024 BDE8F081 		pop	{r4, r5, r6, r7, r8, pc}
 3510              	.L656:
 3511 0028 2046     		mov	r0, r4
 3512 002a FFF7FEFF 		bl	HashSigner
 3513 002e 05F15C08 		add	r8, r5, #92
 3514 0032 0746     		mov	r7, r0
 3515 0034 4046     		mov	r0, r8
 3516 0036 FFF7FEFF 		bl	wc_LockMutex
 3517 003a 0446     		mov	r4, r0
 3518 003c 58B9     		cbnz	r0, .L659
 3519 003e 55F82730 		ldr	r3, [r5, r7, lsl #2]
 3520 0042 4046     		mov	r0, r8
 3521 0044 3365     		str	r3, [r6, #80]
 3522 0046 45F82760 		str	r6, [r5, r7, lsl #2]
 3523 004a FFF7FEFF 		bl	wc_UnLockMutex
 3524 004e E8E7     		b	.L654
 3525              	.L658:
 3526 0050 6FF0AC04 		mvn	r4, #172
 3527 0054 E5E7     		b	.L654
 3528              	.L659:
 3529 0056 6FF06904 		mvn	r4, #105
 3530 005a E2E7     		b	.L654
 3532              		.section	.text.AddCA,"ax",%progbits
 3533              		.align	1
 3534              		.global	AddCA
 3535              		.syntax unified
 3536              		.thumb
 3537              		.thumb_func
 3538              		.fpu fpv4-sp-d16
 3540              	AddCA:
 3541              		@ args = 0, pretend = 0, frame = 8
 3542              		@ frame_needed = 0, uses_anonymous_args = 0
 3543 0000 2DE9F74F 		push	{r0, r1, r2, r4, r5, r6, r7, r8, r9, r10, fp, lr}
 3544 0004 8846     		mov	r8, r1
 3545 0006 9246     		mov	r10, r2
 3546 0008 1C46     		mov	r4, r3
 3547 000a 0746     		mov	r7, r0
 3548 000c D1F80090 		ldr	r9, [r1]
 3549 0010 40B9     		cbnz	r0, .L661
 3550 0012 0846     		mov	r0, r1
 3551 0014 FFF7FEFF 		bl	FreeDer
ARM GAS  /tmp/cc0JdWKx.s 			page 59


 3552 0018 6FF0AC05 		mvn	r5, #172
 3553              	.L660:
 3554 001c 2846     		mov	r0, r5
 3555 001e 03B0     		add	sp, sp, #12
 3556              		@ sp needed
 3557 0020 BDE8F08F 		pop	{r4, r5, r6, r7, r8, r9, r10, fp, pc}
 3558              	.L661:
 3559 0024 4FF45970 		mov	r0, #868
 3560 0028 FFF7FEFF 		bl	wolfSSL_Malloc
 3561 002c 0646     		mov	r6, r0
 3562 002e 28B9     		cbnz	r0, .L663
 3563 0030 4046     		mov	r0, r8
 3564 0032 FFF7FEFF 		bl	FreeDer
 3565 0036 6FF07C05 		mvn	r5, #124
 3566 003a EFE7     		b	.L660
 3567              	.L663:
 3568 003c FB6A     		ldr	r3, [r7, #44]
 3569 003e D9F80820 		ldr	r2, [r9, #8]
 3570 0042 D9F80010 		ldr	r1, [r9]
 3571 0046 FFF7FEFF 		bl	InitDecodedCert
 3572 004a 3B46     		mov	r3, r7
 3573 004c 2246     		mov	r2, r4
 3574 004e 0621     		movs	r1, #6
 3575 0050 3046     		mov	r0, r6
 3576 0052 FFF7FEFF 		bl	ParseCert
 3577 0056 0546     		mov	r5, r0
 3578 0058 2CB3     		cbz	r4, .L664
 3579 005a 0028     		cmp	r0, #0
 3580 005c 66D1     		bne	.L673
 3581 005e F269     		ldr	r2, [r6, #28]
 3582 0060 3B4B     		ldr	r3, .L697
 3583 0062 9A42     		cmp	r2, r3
 3584 0064 06D1     		bne	.L666
 3585 0066 B7F96230 		ldrsh	r3, [r7, #98]
 3586 006a 002B     		cmp	r3, #0
 3587 006c 60DB     		blt	.L675
 3588 006e 7268     		ldr	r2, [r6, #4]
 3589 0070 9A42     		cmp	r2, r3
 3590 0072 5DD3     		bcc	.L675
 3591              	.L666:
 3592 0074 96F86043 		ldrb	r4, [r6, #864]	@ zero_extendqisi2
 3593 0078 2AF00203 		bic	r3, r10, #2
 3594 007c 14F01004 		ands	r4, r4, #16
 3595 0080 26D1     		bne	.L667
 3596 0082 012B     		cmp	r3, #1
 3597 0084 2FD1     		bne	.L678
 3598              	.L668:
 3599 0086 3846     		mov	r0, r7
 3600 0088 06F53371 		add	r1, r6, #716
 3601 008c FFF7FEFF 		bl	AlreadySigner
 3602 0090 0028     		cmp	r0, #0
 3603 0092 50D1     		bne	.L681
 3604 0094 F86A     		ldr	r0, [r7, #44]
 3605 0096 FFF7FEFF 		bl	MakeSigner
 3606 009a 0446     		mov	r4, r0
 3607 009c 0028     		cmp	r0, #0
 3608 009e 4DD1     		bne	.L694
ARM GAS  /tmp/cc0JdWKx.s 			page 60


 3609 00a0 6FF49775 		mvn	r5, #302
 3610 00a4 01E0     		b	.L665
 3611              	.L664:
 3612 00a6 0028     		cmp	r0, #0
 3613 00a8 E4D0     		beq	.L666
 3614              	.L665:
 3615 00aa 3046     		mov	r0, r6
 3616 00ac FFF7FEFF 		bl	FreeDecodedCert
 3617 00b0 25B1     		cbz	r5, .L669
 3618 00b2 1CB1     		cbz	r4, .L669
 3619 00b4 2046     		mov	r0, r4
 3620 00b6 F96A     		ldr	r1, [r7, #44]
 3621 00b8 FFF7FEFF 		bl	FreeSigner
 3622              	.L669:
 3623 00bc 3046     		mov	r0, r6
 3624 00be FFF7FEFF 		bl	wolfSSL_Free
 3625 00c2 4046     		mov	r0, r8
 3626 00c4 FFF7FEFF 		bl	FreeDer
 3627 00c8 002D     		cmp	r5, #0
 3628 00ca 08BF     		it	eq
 3629 00cc 0125     		moveq	r5, #1
 3630 00ce A5E7     		b	.L660
 3631              	.L667:
 3632 00d0 012B     		cmp	r3, #1
 3633 00d2 D8D0     		beq	.L668
 3634 00d4 96F86233 		ldrb	r3, [r6, #866]	@ zero_extendqisi2
 3635 00d8 9B07     		lsls	r3, r3, #30
 3636 00da D4D4     		bmi	.L668
 3637 00dc B6F80243 		ldrh	r4, [r6, #770]
 3638 00e0 14F00404 		ands	r4, r4, #4
 3639 00e4 CFD1     		bne	.L668
 3640              	.L678:
 3641 00e6 6FF4B275 		mvn	r5, #356
 3642 00ea DEE7     		b	.L665
 3643              	.L670:
 3644 00ec 04F13800 		add	r0, r4, #56
 3645 00f0 FFF7FEFF 		bl	HashSigner
 3646 00f4 07F15C03 		add	r3, r7, #92
 3647 00f8 8346     		mov	fp, r0
 3648 00fa 1846     		mov	r0, r3
 3649 00fc 0193     		str	r3, [sp, #4]
 3650 00fe FFF7FEFF 		bl	wc_LockMutex
 3651 0102 019B     		ldr	r3, [sp, #4]
 3652 0104 0546     		mov	r5, r0
 3653 0106 00BB     		cbnz	r0, .L696
 3654 0108 57F82B20 		ldr	r2, [r7, fp, lsl #2]
 3655 010c 1846     		mov	r0, r3
 3656 010e 2265     		str	r2, [r4, #80]
 3657 0110 47F82B40 		str	r4, [r7, fp, lsl #2]
 3658 0114 FFF7FEFF 		bl	wc_UnLockMutex
 3659 0118 7B6C     		ldr	r3, [r7, #68]
 3660 011a 002B     		cmp	r3, #0
 3661 011c C5D0     		beq	.L665
 3662 011e 5246     		mov	r2, r10
 3663 0120 D9F80810 		ldr	r1, [r9, #8]
 3664 0124 D9F80000 		ldr	r0, [r9]
 3665 0128 9847     		blx	r3
ARM GAS  /tmp/cc0JdWKx.s 			page 61


 3666 012a BEE7     		b	.L665
 3667              	.L673:
 3668 012c 0024     		movs	r4, #0
 3669 012e BCE7     		b	.L665
 3670              	.L675:
 3671 0130 2C46     		mov	r4, r5
 3672 0132 084D     		ldr	r5, .L697+4
 3673 0134 B9E7     		b	.L665
 3674              	.L681:
 3675 0136 0024     		movs	r4, #0
 3676 0138 2546     		mov	r5, r4
 3677 013a B6E7     		b	.L665
 3678              	.L694:
 3679 013c 4B46     		mov	r3, r9
 3680 013e 5246     		mov	r2, r10
 3681 0140 3146     		mov	r1, r6
 3682 0142 FFF7FEFF 		bl	FillSigner
 3683 0146 0028     		cmp	r0, #0
 3684 0148 D0D0     		beq	.L670
 3685              	.L696:
 3686 014a 6FF06905 		mvn	r5, #105
 3687 014e ACE7     		b	.L665
 3688              	.L698:
 3689              		.align	2
 3690              	.L697:
 3691 0150 17844931 		.word	826901527
 3692 0154 66FEFFFF 		.word	-410
 3694              		.section	.text.RemoveCA,"ax",%progbits
 3695              		.align	1
 3696              		.global	RemoveCA
 3697              		.syntax unified
 3698              		.thumb
 3699              		.thumb_func
 3700              		.fpu fpv4-sp-d16
 3702              	RemoveCA:
 3703              		@ args = 0, pretend = 0, frame = 0
 3704              		@ frame_needed = 0, uses_anonymous_args = 0
 3705 0000 2DE9F84F 		push	{r3, r4, r5, r6, r7, r8, r9, r10, fp, lr}
 3706 0004 8846     		mov	r8, r1
 3707 0006 9146     		mov	r9, r2
 3708 0008 0746     		mov	r7, r0
 3709 000a 70B3     		cbz	r0, .L706
 3710 000c 69B3     		cbz	r1, .L706
 3711 000e 0846     		mov	r0, r1
 3712 0010 FFF7FEFF 		bl	HashSigner
 3713 0014 07F15C0A 		add	r10, r7, #92
 3714 0018 0646     		mov	r6, r0
 3715 001a 5046     		mov	r0, r10
 3716 001c FFF7FEFF 		bl	wc_LockMutex
 3717 0020 0446     		mov	r4, r0
 3718 0022 28BB     		cbnz	r0, .L707
 3719 0024 57F82650 		ldr	r5, [r7, r6, lsl #2]
 3720 0028 07EB8606 		add	r6, r7, r6, lsl #2
 3721              	.L701:
 3722 002c 9DB1     		cbz	r5, .L703
 3723 002e 95F84C30 		ldrb	r3, [r5, #76]	@ zero_extendqisi2
 3724 0032 D5F850B0 		ldr	fp, [r5, #80]
ARM GAS  /tmp/cc0JdWKx.s 			page 62


 3725 0036 4B45     		cmp	r3, r9
 3726 0038 13D1     		bne	.L702
 3727 003a 1422     		movs	r2, #20
 3728 003c 4046     		mov	r0, r8
 3729 003e 05F13801 		add	r1, r5, #56
 3730 0042 FFF7FEFF 		bl	memcmp
 3731 0046 60B9     		cbnz	r0, .L702
 3732 0048 C6F800B0 		str	fp, [r6]
 3733 004c 2846     		mov	r0, r5
 3734 004e F96A     		ldr	r1, [r7, #44]
 3735 0050 FFF7FEFF 		bl	FreeSigner
 3736 0054 0124     		movs	r4, #1
 3737              	.L703:
 3738 0056 5046     		mov	r0, r10
 3739 0058 FFF7FEFF 		bl	wc_UnLockMutex
 3740              	.L699:
 3741 005c 2046     		mov	r0, r4
 3742 005e BDE8F88F 		pop	{r3, r4, r5, r6, r7, r8, r9, r10, fp, pc}
 3743              	.L702:
 3744 0062 05F15006 		add	r6, r5, #80
 3745 0066 5D46     		mov	r5, fp
 3746 0068 E0E7     		b	.L701
 3747              	.L706:
 3748 006a 6FF0AC04 		mvn	r4, #172
 3749 006e F5E7     		b	.L699
 3750              	.L707:
 3751 0070 6FF06904 		mvn	r4, #105
 3752 0074 F2E7     		b	.L699
 3754              		.section	.text.SetCAType,"ax",%progbits
 3755              		.align	1
 3756              		.global	SetCAType
 3757              		.syntax unified
 3758              		.thumb
 3759              		.thumb_func
 3760              		.fpu fpv4-sp-d16
 3762              	SetCAType:
 3763              		@ args = 0, pretend = 0, frame = 0
 3764              		@ frame_needed = 0, uses_anonymous_args = 0
 3765 0000 2DE9F843 		push	{r3, r4, r5, r6, r7, r8, r9, lr}
 3766 0004 0E46     		mov	r6, r1
 3767 0006 1746     		mov	r7, r2
 3768 0008 0546     		mov	r5, r0
 3769 000a 18B9     		cbnz	r0, .L709
 3770              	.L711:
 3771 000c 0024     		movs	r4, #0
 3772              	.L708:
 3773 000e 2046     		mov	r0, r4
 3774 0010 BDE8F883 		pop	{r3, r4, r5, r6, r7, r8, r9, pc}
 3775              	.L709:
 3776 0014 0029     		cmp	r1, #0
 3777 0016 F9D0     		beq	.L711
 3778 0018 531E     		subs	r3, r2, #1
 3779 001a 032B     		cmp	r3, #3
 3780 001c F6D8     		bhi	.L711
 3781 001e 0846     		mov	r0, r1
 3782 0020 FFF7FEFF 		bl	HashSigner
 3783 0024 05F15C09 		add	r9, r5, #92
ARM GAS  /tmp/cc0JdWKx.s 			page 63


 3784 0028 8046     		mov	r8, r0
 3785 002a 4846     		mov	r0, r9
 3786 002c FFF7FEFF 		bl	wc_LockMutex
 3787 0030 0446     		mov	r4, r0
 3788 0032 0028     		cmp	r0, #0
 3789 0034 EAD1     		bne	.L711
 3790 0036 55F82850 		ldr	r5, [r5, r8, lsl #2]
 3791              	.L712:
 3792 003a 4DB1     		cbz	r5, .L714
 3793 003c 1422     		movs	r2, #20
 3794 003e 3046     		mov	r0, r6
 3795 0040 05F13801 		add	r1, r5, #56
 3796 0044 FFF7FEFF 		bl	memcmp
 3797 0048 30B9     		cbnz	r0, .L713
 3798 004a 0124     		movs	r4, #1
 3799 004c 85F84C70 		strb	r7, [r5, #76]
 3800              	.L714:
 3801 0050 4846     		mov	r0, r9
 3802 0052 FFF7FEFF 		bl	wc_UnLockMutex
 3803 0056 DAE7     		b	.L708
 3804              	.L713:
 3805 0058 2D6D     		ldr	r5, [r5, #80]
 3806 005a EEE7     		b	.L712
 3808              		.section	.text.ProcessBuffer,"ax",%progbits
 3809              		.align	1
 3810              		.global	ProcessBuffer
 3811              		.syntax unified
 3812              		.thumb
 3813              		.thumb_func
 3814              		.fpu fpv4-sp-d16
 3816              	ProcessBuffer:
 3817              		@ args = 24, pretend = 0, frame = 48
 3818              		@ frame_needed = 0, uses_anonymous_args = 0
 3819 0000 2DE9F04F 		push	{r4, r5, r6, r7, r8, r9, r10, fp, lr}
 3820 0004 2DED048B 		vpush.64	{d8, d9}
 3821 0008 08EE103A 		vmov	s16, r3	@ int
 3822 000c 0023     		movs	r3, #0
 3823 000e 99B0     		sub	sp, sp, #100
 3824 0010 08EE901A 		vmov	s17, r1	@ int
 3825 0014 DDE92674 		ldrd	r7, r4, [sp, #152]
 3826 0018 0546     		mov	r5, r0
 3827 001a 0F92     		str	r2, [sp, #60]
 3828 001c 1593     		str	r3, [sp, #84]
 3829 001e 0028     		cmp	r0, #0
 3830 0020 3DD0     		beq	.L720
 3831 0022 D0F83490 		ldr	r9, [r0, #52]
 3832              	.L721:
 3833 0026 1693     		str	r3, [sp, #88]
 3834 0028 18EE103A 		vmov	r3, s16	@ int
 3835 002c 013B     		subs	r3, r3, #1
 3836 002e 012B     		cmp	r3, #1
 3837 0030 00F26582 		bhi	.L828
 3838 0034 2DB9     		cbnz	r5, .L723
 3839 0036 002C     		cmp	r4, #0
 3840 0038 00F06482 		beq	.L831
 3841 003c 062F     		cmp	r7, #6
 3842 003e 00F06182 		beq	.L831
ARM GAS  /tmp/cc0JdWKx.s 			page 64


 3843              	.L723:
 3844 0042 2A2F     		cmp	r7, #42
 3845 0044 00F05E82 		beq	.L831
 3846 0048 0420     		movs	r0, #4
 3847 004a FFF7FEFF 		bl	wolfSSL_Malloc
 3848 004e 8346     		mov	fp, r0
 3849 0050 0028     		cmp	r0, #0
 3850 0052 00F05A82 		beq	.L832
 3851 0056 0023     		movs	r3, #0
 3852 0058 0360     		str	r3, [r0]	@ unaligned
 3853 005a 16AB     		add	r3, sp, #88
 3854 005c 0393     		str	r3, [sp, #12]
 3855 005e 15AB     		add	r3, sp, #84
 3856 0060 CDE90193 		strd	r9, r3, [sp, #4]
 3857 0064 0090     		str	r0, [sp]
 3858 0066 3B46     		mov	r3, r7
 3859 0068 18EE102A 		vmov	r2, s16	@ int
 3860 006c 18EE900A 		vmov	r0, s17	@ int
 3861 0070 0F99     		ldr	r1, [sp, #60]
 3862 0072 FFF7FEFF 		bl	DataToDerBuffer
 3863 0076 289B     		ldr	r3, [sp, #160]
 3864 0078 8246     		mov	r10, r0
 3865 007a 13B1     		cbz	r3, .L724
 3866 007c DBF80020 		ldr	r2, [fp]
 3867 0080 1A60     		str	r2, [r3]
 3868              	.L724:
 3869 0082 BAF1000F 		cmp	r10, #0
 3870 0086 00F01A83 		beq	.L725
 3871 008a 5846     		mov	r0, fp
 3872 008c FFF7FEFF 		bl	wolfSSL_Free
 3873              	.L726:
 3874 0090 BAF1FF3F 		cmp	r10, #-1
 3875 0094 40F01E81 		bne	.L719
 3876              	.L813:
 3877 0098 4FF0000A 		mov	r10, #0
 3878 009c 1AE1     		b	.L719
 3879              	.L720:
 3880 009e 14B1     		cbz	r4, .L827
 3881 00a0 D4F88890 		ldr	r9, [r4, #136]
 3882 00a4 BFE7     		b	.L721
 3883              	.L827:
 3884 00a6 A146     		mov	r9, r4
 3885 00a8 BDE7     		b	.L721
 3886              	.L727:
 3887 00aa 002D     		cmp	r5, #0
 3888 00ac 00F02883 		beq	.L849
 3889 00b0 05F11C00 		add	r0, r5, #28
 3890 00b4 FFF7FEFF 		bl	FreeDer
 3891 00b8 95F82120 		ldrb	r2, [r5, #33]	@ zero_extendqisi2
 3892 00bc EE61     		str	r6, [r5, #28]
 3893 00be 22F00302 		bic	r2, r2, #3
 3894 00c2 85F82120 		strb	r2, [r5, #33]
 3895 00c6 6FF00102 		mvn	r2, #1
 3896 00ca AA62     		str	r2, [r5, #40]
 3897 00cc 002E     		cmp	r6, #0
 3898 00ce 00F01783 		beq	.L849
 3899              	.L732:
ARM GAS  /tmp/cc0JdWKx.s 			page 65


 3900 00d2 05F12003 		add	r3, r5, #32
 3901 00d6 0D93     		str	r3, [sp, #52]
 3902 00d8 05F12403 		add	r3, r5, #36
 3903 00dc 08E0     		b	.L930
 3904              	.L913:
 3905 00de DDB9     		cbnz	r5, .L733
 3906 00e0 002C     		cmp	r4, #0
 3907 00e2 00F00D83 		beq	.L849
 3908              	.L734:
 3909 00e6 04F59C73 		add	r3, r4, #312
 3910 00ea 0D93     		str	r3, [sp, #52]
 3911 00ec 04F59E73 		add	r3, r4, #316
 3912              	.L930:
 3913 00f0 0E93     		str	r3, [sp, #56]
 3914 00f2 B8F1000F 		cmp	r8, #0
 3915 00f6 12D1     		bne	.L923
 3916              	.L736:
 3917 00f8 2146     		mov	r1, r4
 3918 00fa 2846     		mov	r0, r5
 3919 00fc FFF7FEFF 		bl	wolfSSL_CTX_GetDevId
 3920 0100 0F90     		str	r0, [sp, #60]
 3921 0102 4FF41B70 		mov	r0, #620
 3922 0106 FFF7FEFF 		bl	wolfSSL_Malloc
 3923 010a 0F9A     		ldr	r2, [sp, #60]
 3924 010c 0746     		mov	r7, r0
 3925 010e 0028     		cmp	r0, #0
 3926 0110 4AD1     		bne	.L737
 3927 0112 6FF07C0A 		mvn	r10, #124
 3928 0116 07E0     		b	.L814
 3929              	.L733:
 3930 0118 002C     		cmp	r4, #0
 3931 011a E4D1     		bne	.L734
 3932 011c D9E7     		b	.L732
 3933              	.L923:
 3934 011e AB4A     		ldr	r2, .L932
 3935 0120 9045     		cmp	r8, r2
 3936 0122 E9D0     		beq	.L736
 3937              	.L745:
 3938 0124 6FF4E77A 		mvn	r10, #462
 3939              	.L814:
 3940 0128 5846     		mov	r0, fp
 3941 012a FFF7FEFF 		bl	wolfSSL_Free
 3942 012e BAF1000F 		cmp	r10, #0
 3943 0132 ADD1     		bne	.L726
 3944 0134 002C     		cmp	r4, #0
 3945 0136 00F0BF82 		beq	.L779
 3946              	.L747:
 3947 013a 94F8EC32 		ldrb	r3, [r4, #748]	@ zero_extendqisi2
 3948 013e 13F0600F 		tst	r3, #96
 3949 0142 40F0B982 		bne	.L779
 3950 0146 2046     		mov	r0, r4
 3951 0148 FFF7FEFF 		bl	AllocateSuites
 3952 014c 0028     		cmp	r0, #0
 3953 014e A3D1     		bne	.L813
 3954 0150 0126     		movs	r6, #1
 3955 0152 94F8EC32 		ldrb	r3, [r4, #748]	@ zero_extendqisi2
 3956 0156 CDE90966 		strd	r6, r6, [sp, #36]
ARM GAS  /tmp/cc0JdWKx.s 			page 66


 3957 015a CDE90766 		strd	r6, r6, [sp, #28]
 3958 015e C3F34112 		ubfx	r2, r3, #5, #2
 3959 0162 0B92     		str	r2, [sp, #44]
 3960 0164 94F8F122 		ldrb	r2, [r4, #753]	@ zero_extendqisi2
 3961 0168 3340     		ands	r3, r3, r6
 3962 016a C2F34012 		ubfx	r2, r2, #5, #1
 3963 016e 0692     		str	r2, [sp, #24]
 3964 0170 94F8EF22 		ldrb	r2, [r4, #751]	@ zero_extendqisi2
 3965 0174 0093     		str	r3, [sp]
 3966 0176 C2F30011 		ubfx	r1, r2, #4, #1
 3967 017a CDE90461 		strd	r6, r1, [sp, #16]
 3968 017e C2F34001 		ubfx	r1, r2, #1, #1
 3969 0182 0391     		str	r1, [sp, #12]
 3970 0184 C2F3C001 		ubfx	r1, r2, #3, #1
 3971 0188 0291     		str	r1, [sp, #8]
 3972 018a 0146     		mov	r1, r0
 3973 018c C2F38002 		ubfx	r2, r2, #2, #1
 3974 0190 0192     		str	r2, [sp, #4]
 3975 0192 B4F89E31 		ldrh	r3, [r4, #414]
 3976 0196 D4F83C21 		ldr	r2, [r4, #316]
 3977 019a 63F30F01 		bfi	r1, r3, #0, #16
 3978 019e 0346     		mov	r3, r0
 3979 01a0 6068     		ldr	r0, [r4, #4]
 3980              	.L931:
 3981 01a2 FFF7FEFF 		bl	InitSuites
 3982 01a6 87E2     		b	.L779
 3983              	.L737:
 3984 01a8 4946     		mov	r1, r9
 3985 01aa FFF7FEFF 		bl	wc_ecc_init_ex
 3986 01ae 28BB     		cbnz	r0, .L738
 3987 01b0 1790     		str	r0, [sp, #92]
 3988 01b2 3A46     		mov	r2, r7
 3989 01b4 B368     		ldr	r3, [r6, #8]
 3990 01b6 3068     		ldr	r0, [r6]
 3991 01b8 17A9     		add	r1, sp, #92
 3992 01ba FFF7FEFF 		bl	wc_EccPrivateKeyDecode
 3993 01be 8246     		mov	r10, r0
 3994 01c0 80BB     		cbnz	r0, .L739
 3995 01c2 2CB3     		cbz	r4, .L740
 3996 01c4 B4F90C63 		ldrsh	r6, [r4, #780]
 3997              	.L741:
 3998 01c8 3846     		mov	r0, r7
 3999 01ca FFF7FEFF 		bl	wc_ecc_size
 4000 01ce 0322     		movs	r2, #3
 4001 01d0 0D9B     		ldr	r3, [sp, #52]
 4002 01d2 1A70     		strb	r2, [r3]
 4003 01d4 0E9B     		ldr	r3, [sp, #56]
 4004 01d6 1860     		str	r0, [r3]
 4005 01d8 6FF4CE73 		mvn	r3, #412
 4006 01dc 1A44     		add	r2, r2, r3
 4007 01de B042     		cmp	r0, r6
 4008 01e0 B8BF     		it	lt
 4009 01e2 9246     		movlt	r10, r2
 4010 01e4 BCB1     		cbz	r4, .L743
 4011 01e6 94F8EF22 		ldrb	r2, [r4, #751]	@ zero_extendqisi2
 4012 01ea 42F01002 		orr	r2, r2, #16
 4013 01ee 84F8EF22 		strb	r2, [r4, #751]
ARM GAS  /tmp/cc0JdWKx.s 			page 67


 4014              	.L927:
 4015 01f2 DFF8D881 		ldr	r8, .L932
 4016              	.L744:
 4017 01f6 3846     		mov	r0, r7
 4018 01f8 FFF7FEFF 		bl	wc_ecc_free
 4019              	.L738:
 4020 01fc 3846     		mov	r0, r7
 4021 01fe FFF7FEFF 		bl	wolfSSL_Free
 4022 0202 BAF1000F 		cmp	r10, #0
 4023 0206 8FD1     		bne	.L814
 4024 0208 B8F1000F 		cmp	r8, #0
 4025 020c 8CD1     		bne	.L814
 4026 020e 89E7     		b	.L745
 4027              	.L740:
 4028 0210 B5F93E60 		ldrsh	r6, [r5, #62]
 4029 0214 D8E7     		b	.L741
 4030              	.L743:
 4031 0216 95F83A20 		ldrb	r2, [r5, #58]	@ zero_extendqisi2
 4032 021a 42F04002 		orr	r2, r2, #64
 4033 021e 85F83A20 		strb	r2, [r5, #58]
 4034 0222 E6E7     		b	.L927
 4035              	.L739:
 4036 0224 B8F1000F 		cmp	r8, #0
 4037 0228 08BF     		it	eq
 4038 022a 4FF0000A 		moveq	r10, #0
 4039 022e E2E7     		b	.L744
 4040              	.L749:
 4041 0230 14B1     		cbz	r4, .L836
 4042 0232 D4F88830 		ldr	r3, [r4, #136]
 4043 0236 95E1     		b	.L928
 4044              	.L836:
 4045 0238 1094     		str	r4, [sp, #64]
 4046 023a 94E1     		b	.L750
 4047              	.L837:
 4048 023c 6FF08303 		mvn	r3, #131
 4049 0240 0D93     		str	r3, [sp, #52]
 4050              	.L755:
 4051 0242 17A8     		add	r0, sp, #92
 4052 0244 FFF7FEFF 		bl	FreeDer
 4053 0248 0D9B     		ldr	r3, [sp, #52]
 4054 024a 5BB9     		cbnz	r3, .L757
 4055 024c DBF80030 		ldr	r3, [fp]
 4056 0250 9A44     		add	r10, r10, r3
 4057 0252 129B     		ldr	r3, [sp, #72]
 4058 0254 062F     		cmp	r7, #6
 4059 0256 18BF     		it	ne
 4060 0258 43F00103 		orrne	r3, r3, #1
 4061 025c 1293     		str	r3, [sp, #72]
 4062 025e 0E9B     		ldr	r3, [sp, #56]
 4063 0260 0133     		adds	r3, r3, #1
 4064 0262 0E93     		str	r3, [sp, #56]
 4065              	.L757:
 4066 0264 0D9E     		ldr	r6, [sp, #52]
 4067 0266 95E1     		b	.L758
 4068              	.L763:
 4069 0268 002D     		cmp	r5, #0
 4070 026a 00F06681 		beq	.L762
ARM GAS  /tmp/cc0JdWKx.s 			page 68


 4071 026e 05F11400 		add	r0, r5, #20
 4072 0272 0D90     		str	r0, [sp, #52]
 4073 0274 FFF7FEFF 		bl	FreeDer
 4074 0278 109B     		ldr	r3, [sp, #64]
 4075 027a 4A46     		mov	r2, r9
 4076 027c 0093     		str	r3, [sp]
 4077 027e 4146     		mov	r1, r8
 4078 0280 3B46     		mov	r3, r7
 4079 0282 0D98     		ldr	r0, [sp, #52]
 4080 0284 FFF7FEFF 		bl	AllocCopyDer
 4081 0288 0E9B     		ldr	r3, [sp, #56]
 4082 028a 0646     		mov	r6, r0
 4083 028c AB61     		str	r3, [r5, #24]
 4084 028e F6E1     		b	.L761
 4085              	.L768:
 4086 0290 DFB9     		cbnz	r7, .L771
 4087 0292 84B1     		cbz	r4, .L772
 4088 0294 94F82C31 		ldrb	r3, [r4, #300]	@ zero_extendqisi2
 4089 0298 1BB1     		cbz	r3, .L773
 4090 029a 04F59870 		add	r0, r4, #304
 4091 029e FFF7FEFF 		bl	FreeDer
 4092              	.L773:
 4093 02a2 179B     		ldr	r3, [sp, #92]
 4094 02a4 C4F83031 		str	r3, [r4, #304]
 4095 02a8 0123     		movs	r3, #1
 4096 02aa 84F82C31 		strb	r3, [r4, #300]
 4097 02ae 4DB9     		cbnz	r5, .L774
 4098 02b0 D4F88890 		ldr	r9, [r4, #136]
 4099 02b4 15E0     		b	.L778
 4100              	.L772:
 4101 02b6 9DB1     		cbz	r5, .L776
 4102 02b8 05F11000 		add	r0, r5, #16
 4103 02bc FFF7FEFF 		bl	FreeDer
 4104 02c0 179B     		ldr	r3, [sp, #92]
 4105 02c2 2B61     		str	r3, [r5, #16]
 4106              	.L774:
 4107 02c4 D5F83490 		ldr	r9, [r5, #52]
 4108 02c8 0BE0     		b	.L778
 4109              	.L771:
 4110 02ca 17A8     		add	r0, sp, #92
 4111 02cc FFF7FEFF 		bl	FreeDer
 4112 02d0 6FF4E57A 		mvn	r10, #458
 4113              	.L719:
 4114 02d4 5046     		mov	r0, r10
 4115 02d6 19B0     		add	sp, sp, #100
 4116              		@ sp needed
 4117 02d8 BDEC048B 		vldm	sp!, {d8-d9}
 4118 02dc BDE8F08F 		pop	{r4, r5, r6, r7, r8, r9, r10, fp, pc}
 4119              	.L776:
 4120 02e0 A946     		mov	r9, r5
 4121              	.L778:
 4122 02e2 4FF45970 		mov	r0, #868
 4123 02e6 FFF7FEFF 		bl	wolfSSL_Malloc
 4124 02ea 8046     		mov	r8, r0
 4125 02ec 0028     		cmp	r0, #0
 4126 02ee 40F00F81 		bne	.L918
 4127 02f2 6FF07C0A 		mvn	r10, #124
ARM GAS  /tmp/cc0JdWKx.s 			page 69


 4128 02f6 AAE0     		b	.L781
 4129              	.L915:
 4130 02f8 0028     		cmp	r0, #0
 4131 02fa 00F0DD81 		beq	.L779
 4132 02fe BFF6C7AE 		bge	.L726
 4133              	.L816:
 4134 0302 E86A     		ldr	r0, [r5, #44]
 4135 0304 0028     		cmp	r0, #0
 4136 0306 3FF4C3AE 		beq	.L726
 4137 030a 026C     		ldr	r2, [r0, #64]
 4138 030c 002A     		cmp	r2, #0
 4139 030e 3FF4BFAE 		beq	.L726
 4140 0312 CDF800A0 		str	r10, [sp]
 4141 0316 18EE103A 		vmov	r3, s16	@ int
 4142 031a 18EE901A 		vmov	r1, s17	@ int
 4143 031e 0F9A     		ldr	r2, [sp, #60]
 4144 0320 FFF7FEFF 		bl	CM_VerifyBuffer_ex
 4145 0324 8246     		mov	r10, r0
 4146 0326 0028     		cmp	r0, #0
 4147 0328 3FF4B6AE 		beq	.L813
 4148 032c 0128     		cmp	r0, #1
 4149 032e 7FF4AFAE 		bne	.L726
 4150 0332 012F     		cmp	r7, #1
 4151 0334 00F2C081 		bhi	.L779
 4152 0338 96E0     		b	.L812
 4153              	.L924:
 4154 033a 2CB1     		cbz	r4, .L783
 4155 033c 94F8EF32 		ldrb	r3, [r4, #751]	@ zero_extendqisi2
 4156 0340 23F06803 		bic	r3, r3, #104
 4157 0344 84F8EF32 		strb	r3, [r4, #751]
 4158              	.L783:
 4159 0348 214A     		ldr	r2, .L932+4
 4160 034a D8F81830 		ldr	r3, [r8, #24]
 4161 034e 9342     		cmp	r3, r2
 4162 0350 02F16542 		add	r2, r2, #-452984832
 4163 0354 A2F5FF32 		sub	r2, r2, #130560
 4164 0358 09D0     		beq	.L784
 4165 035a 25D8     		bhi	.L785
 4166 035c 1D49     		ldr	r1, .L932+8
 4167 035e 8B42     		cmp	r3, r1
 4168 0360 05D0     		beq	.L784
 4169 0362 01F1C851 		add	r1, r1, #419430400
 4170 0366 01F50031 		add	r1, r1, #131072
 4171              	.L929:
 4172 036a 8B42     		cmp	r3, r1
 4173 036c 29D1     		bne	.L786
 4174              	.L784:
 4175 036e ECB1     		cbz	r4, .L787
 4176 0370 94F8EF32 		ldrb	r3, [r4, #751]	@ zero_extendqisi2
 4177 0374 43F00803 		orr	r3, r3, #8
 4178 0378 84F8EF32 		strb	r3, [r4, #751]
 4179              	.L788:
 4180 037c D8F80833 		ldr	r3, [r8, #776]
 4181 0380 C4F8A433 		str	r3, [r4, #932]
 4182              	.L793:
 4183 0384 D8F81C30 		ldr	r3, [r8, #28]
 4184 0388 9342     		cmp	r3, r2
ARM GAS  /tmp/cc0JdWKx.s 			page 70


 4185 038a 4AD1     		bne	.L794
 4186 038c 34B3     		cbz	r4, .L795
 4187 038e 94F8EF32 		ldrb	r3, [r4, #751]	@ zero_extendqisi2
 4188 0392 43F00203 		orr	r3, r3, #2
 4189 0396 84F8EF32 		strb	r3, [r4, #751]
 4190              	.L796:
 4191 039a 94F8ED62 		ldrb	r6, [r4, #749]	@ zero_extendqisi2
 4192 039e 06F00106 		and	r6, r6, #1
 4193 03a2 C6F10106 		rsb	r6, r6, #1
 4194 03a6 25E0     		b	.L798
 4195              	.L785:
 4196 03a8 0B49     		ldr	r1, .L932+12
 4197 03aa DEE7     		b	.L929
 4198              	.L787:
 4199 03ac E5B1     		cbz	r5, .L790
 4200 03ae 95F83A30 		ldrb	r3, [r5, #58]	@ zero_extendqisi2
 4201 03b2 43F00803 		orr	r3, r3, #8
 4202 03b6 85F83A30 		strb	r3, [r5, #58]
 4203              	.L791:
 4204 03ba D8F80833 		ldr	r3, [r8, #776]
 4205 03be 2B66     		str	r3, [r5, #96]
 4206 03c0 E0E7     		b	.L793
 4207              	.L786:
 4208 03c2 002C     		cmp	r4, #0
 4209 03c4 DAD1     		bne	.L788
 4210 03c6 002D     		cmp	r5, #0
 4211 03c8 F7D1     		bne	.L791
 4212 03ca 0DE0     		b	.L790
 4213              	.L933:
 4214              		.align	2
 4215              	.L932:
 4216 03cc 17844931 		.word	826901527
 4217 03d0 17824B4C 		.word	1280016919
 4218 03d4 17824931 		.word	826901015
 4219 03d8 17824B4D 		.word	1296794135
 4220              	.L795:
 4221 03dc 95F83A30 		ldrb	r3, [r5, #58]	@ zero_extendqisi2
 4222 03e0 43F00203 		orr	r3, r3, #2
 4223 03e4 85F83A30 		strb	r3, [r5, #58]
 4224              	.L790:
 4225 03e8 95F83960 		ldrb	r6, [r5, #57]	@ zero_extendqisi2
 4226 03ec 86F00206 		eor	r6, r6, #2
 4227 03f0 C6F34006 		ubfx	r6, r6, #1, #1
 4228              	.L798:
 4229 03f4 D8F81C30 		ldr	r3, [r8, #28]
 4230 03f8 9342     		cmp	r3, r2
 4231 03fa 6FD1     		bne	.L839
 4232 03fc 0022     		movs	r2, #0
 4233 03fe D8F80803 		ldr	r0, [r8, #776]
 4234 0402 1146     		mov	r1, r2
 4235 0404 FFF7FEFF 		bl	wc_ecc_get_oid
 4236 0408 FFF7FEFF 		bl	wc_ecc_get_curve_size_from_id
 4237 040c 002E     		cmp	r6, #0
 4238 040e 6FD0     		beq	.L840
 4239 0410 54B1     		cbz	r4, .L800
 4240 0412 B4F90C33 		ldrsh	r3, [r4, #780]
 4241 0416 002B     		cmp	r3, #0
ARM GAS  /tmp/cc0JdWKx.s 			page 71


 4242 0418 0EDA     		bge	.L919
 4243              	.L847:
 4244 041a 0322     		movs	r2, #3
 4245 041c DFF8F0A2 		ldr	r10, .L934
 4246 0420 11E0     		b	.L801
 4247              	.L794:
 4248 0422 002C     		cmp	r4, #0
 4249 0424 B9D1     		bne	.L796
 4250 0426 DFE7     		b	.L790
 4251              	.L800:
 4252 0428 B5F93E30 		ldrsh	r3, [r5, #62]
 4253 042c 002B     		cmp	r3, #0
 4254 042e 4FDA     		bge	.L920
 4255              	.L848:
 4256 0430 0322     		movs	r2, #3
 4257 0432 DFF8DCA2 		ldr	r10, .L934
 4258 0436 57E0     		b	.L803
 4259              	.L919:
 4260 0438 9842     		cmp	r0, r3
 4261 043a EEDB     		blt	.L847
 4262 043c 2028     		cmp	r0, #32
 4263 043e ECDC     		bgt	.L847
 4264 0440 0322     		movs	r2, #3
 4265              	.L807:
 4266 0442 4FF0000A 		mov	r10, #0
 4267              	.L801:
 4268 0446 84F83821 		strb	r2, [r4, #312]
 4269 044a C4F83C01 		str	r0, [r4, #316]
 4270              	.L781:
 4271 044e 4046     		mov	r0, r8
 4272 0450 FFF7FEFF 		bl	FreeDecodedCert
 4273 0454 B8F1000F 		cmp	r8, #0
 4274 0458 02D0     		beq	.L808
 4275 045a 4046     		mov	r0, r8
 4276 045c FFF7FEFF 		bl	wolfSSL_Free
 4277              	.L808:
 4278 0460 BAF1000F 		cmp	r10, #0
 4279 0464 40F04F81 		bne	.L809
 4280              	.L812:
 4281 0468 002C     		cmp	r4, #0
 4282 046a 7FF466AE 		bne	.L747
 4283 046e 2B68     		ldr	r3, [r5]
 4284 0470 9B78     		ldrb	r3, [r3, #2]	@ zero_extendqisi2
 4285 0472 002B     		cmp	r3, #0
 4286 0474 40F02081 		bne	.L779
 4287 0478 2846     		mov	r0, r5
 4288 047a FFF7FEFF 		bl	AllocateCtxSuites
 4289 047e 0028     		cmp	r0, #0
 4290 0480 7FF40AAE 		bne	.L813
 4291 0484 0126     		movs	r6, #1
 4292 0486 2A68     		ldr	r2, [r5]
 4293 0488 9378     		ldrb	r3, [r2, #2]	@ zero_extendqisi2
 4294 048a CDE90966 		strd	r6, r6, [sp, #36]
 4295 048e CDE90766 		strd	r6, r6, [sp, #28]
 4296 0492 0B93     		str	r3, [sp, #44]
 4297 0494 0694     		str	r4, [sp, #24]
 4298 0496 95F83A30 		ldrb	r3, [r5, #58]	@ zero_extendqisi2
ARM GAS  /tmp/cc0JdWKx.s 			page 72


 4299 049a C3F38011 		ubfx	r1, r3, #6, #1
 4300 049e CDE90461 		strd	r6, r1, [sp, #16]
 4301 04a2 C3F34001 		ubfx	r1, r3, #1, #1
 4302 04a6 0391     		str	r1, [sp, #12]
 4303 04a8 C3F3C001 		ubfx	r1, r3, #3, #1
 4304 04ac 0291     		str	r1, [sp, #8]
 4305 04ae 2146     		mov	r1, r4
 4306 04b0 C3F38003 		ubfx	r3, r3, #2, #1
 4307 04b4 0193     		str	r3, [sp, #4]
 4308 04b6 95F86430 		ldrb	r3, [r5, #100]	@ zero_extendqisi2
 4309 04ba 0093     		str	r3, [sp]
 4310 04bc 1378     		ldrb	r3, [r2]	@ zero_extendqisi2
 4311 04be 5278     		ldrb	r2, [r2, #1]	@ zero_extendqisi2
 4312 04c0 286B     		ldr	r0, [r5, #48]
 4313 04c2 43EA0223 		orr	r3, r3, r2, lsl #8
 4314 04c6 63F30F01 		bfi	r1, r3, #0, #16
 4315 04ca 6A6A     		ldr	r2, [r5, #36]
 4316 04cc 2346     		mov	r3, r4
 4317 04ce 68E6     		b	.L931
 4318              	.L920:
 4319 04d0 9842     		cmp	r0, r3
 4320 04d2 ADDB     		blt	.L848
 4321 04d4 2028     		cmp	r0, #32
 4322 04d6 ABDC     		bgt	.L848
 4323 04d8 0322     		movs	r2, #3
 4324 04da 03E0     		b	.L825
 4325              	.L839:
 4326 04dc 0020     		movs	r0, #0
 4327 04de 0246     		mov	r2, r0
 4328              	.L799:
 4329 04e0 002C     		cmp	r4, #0
 4330 04e2 AED1     		bne	.L807
 4331              	.L825:
 4332 04e4 4FF0000A 		mov	r10, #0
 4333              	.L803:
 4334 04e8 85F82020 		strb	r2, [r5, #32]
 4335 04ec 6862     		str	r0, [r5, #36]
 4336 04ee AEE7     		b	.L781
 4337              	.L840:
 4338 04f0 0322     		movs	r2, #3
 4339 04f2 F5E7     		b	.L799
 4340              	.L767:
 4341 04f4 15A8     		add	r0, sp, #84
 4342 04f6 FFF7FEFF 		bl	FreeDer
 4343 04fa B246     		mov	r10, r6
 4344 04fc C8E5     		b	.L726
 4345              	.L828:
 4346 04fe DFF814A2 		ldr	r10, .L934+4
 4347 0502 E7E6     		b	.L719
 4348              	.L831:
 4349 0504 6FF0AC0A 		mvn	r10, #172
 4350 0508 E4E6     		b	.L719
 4351              	.L832:
 4352 050a 6FF07C0A 		mvn	r10, #124
 4353 050e E1E6     		b	.L719
 4354              	.L918:
 4355 0510 2146     		mov	r1, r4
ARM GAS  /tmp/cc0JdWKx.s 			page 73


 4356 0512 2846     		mov	r0, r5
 4357 0514 FFF7FEFF 		bl	wolfSSL_CTX_GetDevId
 4358 0518 0090     		str	r0, [sp]
 4359 051a 4B46     		mov	r3, r9
 4360 051c 4046     		mov	r0, r8
 4361 051e B268     		ldr	r2, [r6, #8]
 4362 0520 3168     		ldr	r1, [r6]
 4363 0522 FFF7FEFF 		bl	InitDecodedCert_ex
 4364 0526 0021     		movs	r1, #0
 4365 0528 4046     		mov	r0, r8
 4366 052a FFF7FEFF 		bl	DecodeToKey
 4367 052e 0028     		cmp	r0, #0
 4368 0530 BFF603AF 		bge	.L924
 4369 0534 6FF4E77A 		mvn	r10, #462
 4370 0538 89E7     		b	.L781
 4371              	.L762:
 4372 053a B8F1000F 		cmp	r8, #0
 4373 053e 00F0A580 		beq	.L751
 4374 0542 0026     		movs	r6, #0
 4375              	.L818:
 4376 0544 4046     		mov	r0, r8
 4377 0546 FFF7FEFF 		bl	wolfSSL_Free
 4378 054a 9CE0     		b	.L765
 4379              	.L759:
 4380 054c 289B     		ldr	r3, [sp, #160]
 4381 054e 002B     		cmp	r3, #0
 4382 0550 71D1     		bne	.L820
 4383 0552 94E0     		b	.L761
 4384              	.L926:
 4385 0554 299B     		ldr	r3, [sp, #164]
 4386 0556 002B     		cmp	r3, #0
 4387 0558 00F09880 		beq	.L751
 4388 055c 002D     		cmp	r5, #0
 4389 055e 3FF467AE 		beq	.L749
 4390 0562 6B6B     		ldr	r3, [r5, #52]
 4391              	.L928:
 4392 0564 1093     		str	r3, [sp, #64]
 4393              	.L750:
 4394 0566 DBF800A0 		ldr	r10, [fp]
 4395 056a 0F9B     		ldr	r3, [sp, #60]
 4396 056c 5345     		cmp	r3, r10
 4397 056e 40F38D80 		ble	.L751
 4398 0572 A3EB0A03 		sub	r3, r3, r10
 4399 0576 1B33     		adds	r3, r3, #27
 4400 0578 1846     		mov	r0, r3
 4401 057a 1393     		str	r3, [sp, #76]
 4402 057c FFF7FEFF 		bl	wolfSSL_Malloc
 4403 0580 0023     		movs	r3, #0
 4404 0582 B0F10008 		subs	r8, r0, #0
 4405 0586 0CBF     		ite	eq
 4406 0588 6FF07C06 		mvneq	r6, #124
 4407 058c 0026     		movne	r6, #0
 4408 058e 9946     		mov	r9, r3
 4409 0590 0E93     		str	r3, [sp, #56]
 4410 0592 1293     		str	r3, [sp, #72]
 4411              	.L758:
 4412 0594 002E     		cmp	r6, #0
ARM GAS  /tmp/cc0JdWKx.s 			page 74


 4413 0596 D9D1     		bne	.L759
 4414 0598 0F9B     		ldr	r3, [sp, #60]
 4415 059a 5345     		cmp	r3, r10
 4416 059c 49DD     		ble	.L756
 4417 059e 18EE900A 		vmov	r0, s17	@ int
 4418 05a2 17AB     		add	r3, sp, #92
 4419 05a4 0F99     		ldr	r1, [sp, #60]
 4420 05a6 0293     		str	r3, [sp, #8]
 4421 05a8 109B     		ldr	r3, [sp, #64]
 4422 05aa 18EE102A 		vmov	r2, s16	@ int
 4423 05ae CDE900B3 		strd	fp, r3, [sp]
 4424 05b2 0396     		str	r6, [sp, #12]
 4425 05b4 3B46     		mov	r3, r7
 4426 05b6 A1EB0A01 		sub	r1, r1, r10
 4427 05ba 5044     		add	r0, r0, r10
 4428 05bc 1796     		str	r6, [sp, #92]
 4429 05be FFF7FEFF 		bl	DataToDerBuffer
 4430 05c2 0D90     		str	r0, [sp, #52]
 4431 05c4 68BB     		cbnz	r0, .L754
 4432 05c6 EB6A     		ldr	r3, [r5, #44]
 4433 05c8 1399     		ldr	r1, [sp, #76]
 4434 05ca 09EE103A 		vmov	s18, r3	@ int
 4435 05ce 179B     		ldr	r3, [sp, #92]
 4436 05d0 1193     		str	r3, [sp, #68]
 4437 05d2 9B68     		ldr	r3, [r3, #8]
 4438 05d4 DA1C     		adds	r2, r3, #3
 4439 05d6 4A44     		add	r2, r2, r9
 4440 05d8 9142     		cmp	r1, r2
 4441 05da FFF42FAE 		bcc	.L837
 4442 05de 08EB0902 		add	r2, r8, r9
 4443 05e2 190C     		lsrs	r1, r3, #16
 4444 05e4 08F80910 		strb	r1, [r8, r9]
 4445 05e8 9370     		strb	r3, [r2, #2]
 4446 05ea 190A     		lsrs	r1, r3, #8
 4447 05ec 119B     		ldr	r3, [sp, #68]
 4448 05ee 5170     		strb	r1, [r2, #1]
 4449 05f0 09F10309 		add	r9, r9, #3
 4450 05f4 9A68     		ldr	r2, [r3, #8]
 4451 05f6 1968     		ldr	r1, [r3]
 4452 05f8 08EB0900 		add	r0, r8, r9
 4453 05fc FFF7FEFF 		bl	memcpy
 4454 0600 119B     		ldr	r3, [sp, #68]
 4455 0602 062F     		cmp	r7, #6
 4456 0604 9B68     		ldr	r3, [r3, #8]
 4457 0606 9944     		add	r9, r9, r3
 4458 0608 7FF41BAE 		bne	.L755
 4459 060c 0122     		movs	r2, #1
 4460 060e 19EE100A 		vmov	r0, s18	@ int
 4461 0612 2A9B     		ldr	r3, [sp, #168]
 4462 0614 17A9     		add	r1, sp, #92
 4463 0616 FFF7FEFF 		bl	AddCA
 4464 061a 0128     		cmp	r0, #1
 4465 061c 3FF411AE 		beq	.L755
 4466 0620 0D90     		str	r0, [sp, #52]
 4467              	.L754:
 4468 0622 0D9B     		ldr	r3, [sp, #52]
 4469 0624 A233     		adds	r3, r3, #162
ARM GAS  /tmp/cc0JdWKx.s 			page 75


 4470 0626 7FF40CAE 		bne	.L755
 4471 062a 129B     		ldr	r3, [sp, #72]
 4472 062c 002B     		cmp	r3, #0
 4473 062e 3FF408AE 		beq	.L755
 4474              	.L756:
 4475 0632 289B     		ldr	r3, [sp, #160]
 4476 0634 1BB1     		cbz	r3, .L821
 4477              	.L820:
 4478 0636 289B     		ldr	r3, [sp, #160]
 4479 0638 C3F800A0 		str	r10, [r3]
 4480 063c FEB9     		cbnz	r6, .L761
 4481              	.L821:
 4482 063e B9F1000F 		cmp	r9, #0
 4483 0642 3FF47AAF 		beq	.L762
 4484 0646 002C     		cmp	r4, #0
 4485 0648 3FF40EAE 		beq	.L763
 4486 064c 94F82D31 		ldrb	r3, [r4, #301]	@ zero_extendqisi2
 4487 0650 04F5A270 		add	r0, r4, #324
 4488 0654 1BB1     		cbz	r3, .L764
 4489 0656 0D90     		str	r0, [sp, #52]
 4490 0658 FFF7FEFF 		bl	FreeDer
 4491 065c 0D98     		ldr	r0, [sp, #52]
 4492              	.L764:
 4493 065e 109B     		ldr	r3, [sp, #64]
 4494 0660 4A46     		mov	r2, r9
 4495 0662 0093     		str	r3, [sp]
 4496 0664 4146     		mov	r1, r8
 4497 0666 3B46     		mov	r3, r7
 4498 0668 FFF7FEFF 		bl	AllocCopyDer
 4499 066c 0646     		mov	r6, r0
 4500 066e B0FA80F0 		clz	r0, r0
 4501 0672 0E9B     		ldr	r3, [sp, #56]
 4502 0674 4009     		lsrs	r0, r0, #5
 4503 0676 84F82D01 		strb	r0, [r4, #301]
 4504 067a C4F84831 		str	r3, [r4, #328]
 4505              	.L761:
 4506 067e B8F1000F 		cmp	r8, #0
 4507 0682 7FF45FAF 		bne	.L818
 4508              	.L765:
 4509 0686 16F1A20F 		cmn	r6, #162
 4510 068a 00D1     		bne	.L766
 4511              	.L751:
 4512 068c 0026     		movs	r6, #0
 4513              	.L766:
 4514 068e 5846     		mov	r0, fp
 4515 0690 FFF7FEFF 		bl	wolfSSL_Free
 4516 0694 002E     		cmp	r6, #0
 4517 0696 7FF42DAF 		bne	.L767
 4518 069a 159E     		ldr	r6, [sp, #84]
 4519 069c 062F     		cmp	r7, #6
 4520 069e 1796     		str	r6, [sp, #92]
 4521 06a0 7FF4F6AD 		bne	.L768
 4522 06a4 0122     		movs	r2, #1
 4523 06a6 2A9B     		ldr	r3, [sp, #168]
 4524 06a8 E86A     		ldr	r0, [r5, #44]
 4525 06aa 17A9     		add	r1, sp, #92
 4526 06ac FFF7FEFF 		bl	AddCA
ARM GAS  /tmp/cc0JdWKx.s 			page 76


 4527 06b0 0128     		cmp	r0, #1
 4528 06b2 8246     		mov	r10, r0
 4529 06b4 7FF420AE 		bne	.L915
 4530              	.L779:
 4531 06b8 4FF0010A 		mov	r10, #1
 4532 06bc 0AE6     		b	.L719
 4533              	.L725:
 4534 06be 012F     		cmp	r7, #1
 4535 06c0 7FF448AF 		bne	.L926
 4536 06c4 DDE91568 		ldrd	r6, r8, [sp, #84]
 4537 06c8 002C     		cmp	r4, #0
 4538 06ca 3FF4EEAC 		beq	.L727
 4539 06ce 94F82E21 		ldrb	r2, [r4, #302]	@ zero_extendqisi2
 4540 06d2 1AB1     		cbz	r2, .L728
 4541 06d4 04F59A70 		add	r0, r4, #308
 4542 06d8 FFF7FEFF 		bl	FreeDer
 4543              	.L728:
 4544 06dc 94F83921 		ldrb	r2, [r4, #313]	@ zero_extendqisi2
 4545 06e0 C4F83461 		str	r6, [r4, #308]
 4546 06e4 22F00302 		bic	r2, r2, #3
 4547 06e8 84F83921 		strb	r2, [r4, #313]
 4548 06ec 6FF00102 		mvn	r2, #1
 4549 06f0 C4F84021 		str	r2, [r4, #320]
 4550 06f4 0122     		movs	r2, #1
 4551 06f6 84F82E21 		strb	r2, [r4, #302]
 4552 06fa 002E     		cmp	r6, #0
 4553 06fc 7FF4EFAC 		bne	.L913
 4554              	.L849:
 4555 0700 6FF0AC0A 		mvn	r10, #172
 4556 0704 10E5     		b	.L814
 4557              	.L809:
 4558 0706 002D     		cmp	r5, #0
 4559 0708 7FF4FBAD 		bne	.L816
 4560 070c E2E5     		b	.L719
 4561              	.L935:
 4562 070e 00BF     		.align	2
 4563              	.L934:
 4564 0710 66FEFFFF 		.word	-410
 4565 0714 32FEFFFF 		.word	-462
 4567              		.section	.rodata.wolfSSL_use_certificate_ASN1.str1.1,"aMS",%progbits,1
 4568              	.LC0:
 4569 0000 61736E31 		.ascii	"asn1 buffer\000"
 4569      20627566 
 4569      66657200 
 4570              		.section	.text.wolfSSL_use_certificate_ASN1,"ax",%progbits
 4571              		.align	1
 4572              		.global	wolfSSL_use_certificate_ASN1
 4573              		.syntax unified
 4574              		.thumb
 4575              		.thumb_func
 4576              		.fpu fpv4-sp-d16
 4578              	wolfSSL_use_certificate_ASN1:
 4579              		@ args = 0, pretend = 0, frame = 8
 4580              		@ frame_needed = 0, uses_anonymous_args = 0
 4581 0000 10B5     		push	{r4, lr}
 4582 0002 0024     		movs	r4, #0
 4583 0004 88B0     		sub	sp, sp, #32
ARM GAS  /tmp/cc0JdWKx.s 			page 77


 4584 0006 90B1     		cbz	r0, .L937
 4585 0008 B1B1     		cbz	r1, .L939
 4586 000a 0C4B     		ldr	r3, .L940
 4587 000c 0794     		str	r4, [sp, #28]
 4588 000e 0593     		str	r3, [sp, #20]
 4589 0010 90F8ED32 		ldrb	r3, [r0, #749]	@ zero_extendqisi2
 4590 0014 0094     		str	r4, [sp]
 4591 0016 DB43     		mvns	r3, r3
 4592 0018 03F00103 		and	r3, r3, #1
 4593 001c CDE90343 		strd	r4, r3, [sp, #12]
 4594 0020 07AB     		add	r3, sp, #28
 4595 0022 CDE90103 		strd	r0, r3, [sp, #4]
 4596 0026 0223     		movs	r3, #2
 4597 0028 2046     		mov	r0, r4
 4598 002a FFF7FEFF 		bl	ProcessBuffer
 4599              	.L937:
 4600 002e 431E     		subs	r3, r0, #1
 4601 0030 5842     		rsbs	r0, r3, #0
 4602 0032 5841     		adcs	r0, r0, r3
 4603 0034 08B0     		add	sp, sp, #32
 4604              		@ sp needed
 4605 0036 10BD     		pop	{r4, pc}
 4606              	.L939:
 4607 0038 0846     		mov	r0, r1
 4608 003a F8E7     		b	.L937
 4609              	.L941:
 4610              		.align	2
 4611              	.L940:
 4612 003c 00000000 		.word	.LC0
 4614              		.section	.rodata.wolfSSL_CTX_load_verify_buffer_ex.str1.1,"aMS",%progbits,1
 4615              	.LC1:
 4616 0000 50454D20 		.ascii	"PEM buffer\000"
 4616      62756666 
 4616      657200
 4617              	.LC2:
 4618 000b 62756666 		.ascii	"buffer\000"
 4618      657200
 4619              		.section	.text.wolfSSL_CTX_load_verify_buffer_ex,"ax",%progbits
 4620              		.align	1
 4621              		.global	wolfSSL_CTX_load_verify_buffer_ex
 4622              		.syntax unified
 4623              		.thumb
 4624              		.thumb_func
 4625              		.fpu fpv4-sp-d16
 4627              	wolfSSL_CTX_load_verify_buffer_ex:
 4628              		@ args = 8, pretend = 0, frame = 8
 4629              		@ frame_needed = 0, uses_anonymous_args = 0
 4630 0000 2DE9F04F 		push	{r4, r5, r6, r7, r8, r9, r10, fp, lr}
 4631 0004 8946     		mov	r9, r1
 4632 0006 9046     		mov	r8, r2
 4633 0008 0746     		mov	r7, r0
 4634 000a 89B0     		sub	sp, sp, #36
 4635 000c 0028     		cmp	r0, #0
 4636 000e 3BD0     		beq	.L951
 4637 0010 90F83940 		ldrb	r4, [r0, #57]	@ zero_extendqisi2
 4638 0014 84F00204 		eor	r4, r4, #2
 4639 0018 C4F34004 		ubfx	r4, r4, #1, #1
ARM GAS  /tmp/cc0JdWKx.s 			page 78


 4640              	.L943:
 4641 001c 139A     		ldr	r2, [sp, #76]
 4642 001e 12F0020F 		tst	r2, #2
 4643 0022 18BF     		it	ne
 4644 0024 0524     		movne	r4, #5
 4645 0026 012B     		cmp	r3, #1
 4646 0028 34D1     		bne	.L959
 4647 002a 0025     		movs	r5, #0
 4648 002c 2846     		mov	r0, r5
 4649 002e 2E46     		mov	r6, r5
 4650 0030 AA46     		mov	r10, r5
 4651 0032 0DF11C0B 		add	fp, sp, #28
 4652              	.L945:
 4653 0036 B045     		cmp	r8, r6
 4654 0038 20DD     		ble	.L948
 4655 003a 1E4B     		ldr	r3, .L960
 4656 003c 3846     		mov	r0, r7
 4657 003e CDE90443 		strd	r4, r3, [sp, #16]
 4658 0042 0623     		movs	r3, #6
 4659 0044 CDE902BA 		strd	fp, r10, [sp, #8]
 4660 0048 0093     		str	r3, [sp]
 4661 004a CDF804A0 		str	r10, [sp, #4]
 4662 004e 0123     		movs	r3, #1
 4663 0050 A8EB0602 		sub	r2, r8, r6
 4664 0054 09EB0601 		add	r1, r9, r6
 4665 0058 0796     		str	r6, [sp, #28]
 4666 005a FFF7FEFF 		bl	ProcessBuffer
 4667 005e 10F17D0F 		cmn	r0, #125
 4668 0062 079B     		ldr	r3, [sp, #28]
 4669 0064 12D0     		beq	.L953
 4670 0066 0028     		cmp	r0, #0
 4671 0068 12DA     		bge	.L954
 4672 006a 002B     		cmp	r3, #0
 4673 006c 03DD     		ble	.L947
 4674 006e 9A19     		adds	r2, r3, r6
 4675 0070 9045     		cmp	r8, r2
 4676 0072 C8BF     		it	gt
 4677 0074 0020     		movgt	r0, #0
 4678              	.L947:
 4679 0076 0028     		cmp	r0, #0
 4680 0078 1E44     		add	r6, r6, r3
 4681 007a DCDA     		bge	.L945
 4682              	.L948:
 4683 007c 002D     		cmp	r5, #0
 4684 007e 18BF     		it	ne
 4685 0080 2846     		movne	r0, r5
 4686              	.L942:
 4687 0082 09B0     		add	sp, sp, #36
 4688              		@ sp needed
 4689 0084 BDE8F08F 		pop	{r4, r5, r6, r7, r8, r9, r10, fp, pc}
 4690              	.L951:
 4691 0088 0124     		movs	r4, #1
 4692 008a C7E7     		b	.L943
 4693              	.L953:
 4694 008c 0025     		movs	r5, #0
 4695 008e F2E7     		b	.L947
 4696              	.L954:
ARM GAS  /tmp/cc0JdWKx.s 			page 79


 4697 0090 0125     		movs	r5, #1
 4698 0092 F0E7     		b	.L947
 4699              	.L959:
 4700 0094 084A     		ldr	r2, .L960+4
 4701 0096 4946     		mov	r1, r9
 4702 0098 CDE90442 		strd	r4, r2, [sp, #16]
 4703 009c 129A     		ldr	r2, [sp, #72]
 4704 009e 3846     		mov	r0, r7
 4705 00a0 0392     		str	r2, [sp, #12]
 4706 00a2 0022     		movs	r2, #0
 4707 00a4 CDE90122 		strd	r2, r2, [sp, #4]
 4708 00a8 0622     		movs	r2, #6
 4709 00aa 0092     		str	r2, [sp]
 4710 00ac 4246     		mov	r2, r8
 4711 00ae FFF7FEFF 		bl	ProcessBuffer
 4712 00b2 E6E7     		b	.L942
 4713              	.L961:
 4714              		.align	2
 4715              	.L960:
 4716 00b4 00000000 		.word	.LC1
 4717 00b8 0B000000 		.word	.LC2
 4719              		.section	.text.wolfSSL_CTX_load_verify_buffer,"ax",%progbits
 4720              		.align	1
 4721              		.global	wolfSSL_CTX_load_verify_buffer
 4722              		.syntax unified
 4723              		.thumb
 4724              		.thumb_func
 4725              		.fpu fpv4-sp-d16
 4727              	wolfSSL_CTX_load_verify_buffer:
 4728              		@ args = 0, pretend = 0, frame = 0
 4729              		@ frame_needed = 0, uses_anonymous_args = 0
 4730 0000 13B5     		push	{r0, r1, r4, lr}
 4731 0002 0024     		movs	r4, #0
 4732 0004 CDE90044 		strd	r4, r4, [sp]
 4733 0008 FFF7FEFF 		bl	wolfSSL_CTX_load_verify_buffer_ex
 4734 000c 02B0     		add	sp, sp, #8
 4735              		@ sp needed
 4736 000e 10BD     		pop	{r4, pc}
 4738              		.section	.text.wolfSSL_CTX_load_verify_chain_buffer_format,"ax",%progbits
 4739              		.align	1
 4740              		.global	wolfSSL_CTX_load_verify_chain_buffer_format
 4741              		.syntax unified
 4742              		.thumb
 4743              		.thumb_func
 4744              		.fpu fpv4-sp-d16
 4746              	wolfSSL_CTX_load_verify_chain_buffer_format:
 4747              		@ args = 0, pretend = 0, frame = 0
 4748              		@ frame_needed = 0, uses_anonymous_args = 0
 4749 0000 13B5     		push	{r0, r1, r4, lr}
 4750 0002 4FF0000C 		mov	ip, #0
 4751 0006 0124     		movs	r4, #1
 4752 0008 CDE9004C 		strd	r4, ip, [sp]
 4753 000c FFF7FEFF 		bl	wolfSSL_CTX_load_verify_buffer_ex
 4754 0010 02B0     		add	sp, sp, #8
 4755              		@ sp needed
 4756 0012 10BD     		pop	{r4, pc}
 4758              		.section	.text.wolfSSL_CTX_use_certificate_buffer,"ax",%progbits
ARM GAS  /tmp/cc0JdWKx.s 			page 80


 4759              		.align	1
 4760              		.global	wolfSSL_CTX_use_certificate_buffer
 4761              		.syntax unified
 4762              		.thumb
 4763              		.thumb_func
 4764              		.fpu fpv4-sp-d16
 4766              	wolfSSL_CTX_use_certificate_buffer:
 4767              		@ args = 0, pretend = 0, frame = 0
 4768              		@ frame_needed = 0, uses_anonymous_args = 0
 4769 0000 30B5     		push	{r4, r5, lr}
 4770 0002 87B0     		sub	sp, sp, #28
 4771 0004 88B1     		cbz	r0, .L966
 4772 0006 90F83940 		ldrb	r4, [r0, #57]	@ zero_extendqisi2
 4773 000a 84F00204 		eor	r4, r4, #2
 4774 000e C4F34004 		ubfx	r4, r4, #1, #1
 4775              	.L965:
 4776 0012 074D     		ldr	r5, .L967
 4777 0014 CDE90445 		strd	r4, r5, [sp, #16]
 4778 0018 0024     		movs	r4, #0
 4779 001a CDE90244 		strd	r4, r4, [sp, #8]
 4780 001e CDE90044 		strd	r4, r4, [sp]
 4781 0022 FFF7FEFF 		bl	ProcessBuffer
 4782 0026 07B0     		add	sp, sp, #28
 4783              		@ sp needed
 4784 0028 30BD     		pop	{r4, r5, pc}
 4785              	.L966:
 4786 002a 0124     		movs	r4, #1
 4787 002c F1E7     		b	.L965
 4788              	.L968:
 4789 002e 00BF     		.align	2
 4790              	.L967:
 4791 0030 0B000000 		.word	.LC2
 4793              		.section	.rodata.wolfSSL_CTX_use_PrivateKey_buffer.str1.1,"aMS",%progbits,1
 4794              	.LC3:
 4795 0000 6B657920 		.ascii	"key buffer\000"
 4795      62756666 
 4795      657200
 4796              		.section	.text.wolfSSL_CTX_use_PrivateKey_buffer,"ax",%progbits
 4797              		.align	1
 4798              		.global	wolfSSL_CTX_use_PrivateKey_buffer
 4799              		.syntax unified
 4800              		.thumb
 4801              		.thumb_func
 4802              		.fpu fpv4-sp-d16
 4804              	wolfSSL_CTX_use_PrivateKey_buffer:
 4805              		@ args = 0, pretend = 0, frame = 8
 4806              		@ frame_needed = 0, uses_anonymous_args = 0
 4807 0000 30B5     		push	{r4, r5, lr}
 4808 0002 0024     		movs	r4, #0
 4809 0004 89B0     		sub	sp, sp, #36
 4810 0006 0794     		str	r4, [sp, #28]
 4811 0008 98B1     		cbz	r0, .L971
 4812 000a 90F83940 		ldrb	r4, [r0, #57]	@ zero_extendqisi2
 4813 000e 84F00204 		eor	r4, r4, #2
 4814 0012 C4F34004 		ubfx	r4, r4, #1, #1
 4815              	.L970:
 4816 0016 084D     		ldr	r5, .L972
ARM GAS  /tmp/cc0JdWKx.s 			page 81


 4817 0018 CDE90445 		strd	r4, r5, [sp, #16]
 4818 001c 0024     		movs	r4, #0
 4819 001e 07AD     		add	r5, sp, #28
 4820 0020 CDE90145 		strd	r4, r5, [sp, #4]
 4821 0024 0394     		str	r4, [sp, #12]
 4822 0026 0124     		movs	r4, #1
 4823 0028 0094     		str	r4, [sp]
 4824 002a FFF7FEFF 		bl	ProcessBuffer
 4825 002e 09B0     		add	sp, sp, #36
 4826              		@ sp needed
 4827 0030 30BD     		pop	{r4, r5, pc}
 4828              	.L971:
 4829 0032 0124     		movs	r4, #1
 4830 0034 EFE7     		b	.L970
 4831              	.L973:
 4832 0036 00BF     		.align	2
 4833              	.L972:
 4834 0038 00000000 		.word	.LC3
 4836              		.section	.rodata.wolfSSL_CTX_use_certificate_chain_buffer_format.str1.1,"aMS",%progbits,1
 4837              	.LC4:
 4838 0000 63657274 		.ascii	"cert chain buffer\000"
 4838      20636861 
 4838      696E2062 
 4838      75666665 
 4838      7200
 4839              		.section	.text.wolfSSL_CTX_use_certificate_chain_buffer_format,"ax",%progbits
 4840              		.align	1
 4841              		.global	wolfSSL_CTX_use_certificate_chain_buffer_format
 4842              		.syntax unified
 4843              		.thumb
 4844              		.thumb_func
 4845              		.fpu fpv4-sp-d16
 4847              	wolfSSL_CTX_use_certificate_chain_buffer_format:
 4848              		@ args = 0, pretend = 0, frame = 0
 4849              		@ frame_needed = 0, uses_anonymous_args = 0
 4850 0000 30B5     		push	{r4, r5, lr}
 4851 0002 87B0     		sub	sp, sp, #28
 4852 0004 90B1     		cbz	r0, .L976
 4853 0006 90F83940 		ldrb	r4, [r0, #57]	@ zero_extendqisi2
 4854 000a 84F00204 		eor	r4, r4, #2
 4855 000e C4F34004 		ubfx	r4, r4, #1, #1
 4856              	.L975:
 4857 0012 074D     		ldr	r5, .L977
 4858 0014 CDE90445 		strd	r4, r5, [sp, #16]
 4859 0018 0024     		movs	r4, #0
 4860 001a 0125     		movs	r5, #1
 4861 001c CDE90044 		strd	r4, r4, [sp]
 4862 0020 CDE90245 		strd	r4, r5, [sp, #8]
 4863 0024 FFF7FEFF 		bl	ProcessBuffer
 4864 0028 07B0     		add	sp, sp, #28
 4865              		@ sp needed
 4866 002a 30BD     		pop	{r4, r5, pc}
 4867              	.L976:
 4868 002c 0124     		movs	r4, #1
 4869 002e F0E7     		b	.L975
 4870              	.L978:
 4871              		.align	2
ARM GAS  /tmp/cc0JdWKx.s 			page 82


 4872              	.L977:
 4873 0030 00000000 		.word	.LC4
 4875              		.section	.text.wolfSSL_CTX_use_certificate_chain_buffer,"ax",%progbits
 4876              		.align	1
 4877              		.global	wolfSSL_CTX_use_certificate_chain_buffer
 4878              		.syntax unified
 4879              		.thumb
 4880              		.thumb_func
 4881              		.fpu fpv4-sp-d16
 4883              	wolfSSL_CTX_use_certificate_chain_buffer:
 4884              		@ args = 0, pretend = 0, frame = 0
 4885              		@ frame_needed = 0, uses_anonymous_args = 0
 4886              		@ link register save eliminated.
 4887 0000 0123     		movs	r3, #1
 4888 0002 FFF7FEBF 		b	wolfSSL_CTX_use_certificate_chain_buffer_format
 4890              		.section	.rodata.wolfSSL_use_certificate_buffer.str1.1,"aMS",%progbits,1
 4891              	.LC5:
 4892 0000 63657274 		.ascii	"cert buffer\000"
 4892      20627566 
 4892      66657200 
 4893              		.section	.text.wolfSSL_use_certificate_buffer,"ax",%progbits
 4894              		.align	1
 4895              		.global	wolfSSL_use_certificate_buffer
 4896              		.syntax unified
 4897              		.thumb
 4898              		.thumb_func
 4899              		.fpu fpv4-sp-d16
 4901              	wolfSSL_use_certificate_buffer:
 4902              		@ args = 0, pretend = 0, frame = 0
 4903              		@ frame_needed = 0, uses_anonymous_args = 0
 4904 0000 10B5     		push	{r4, lr}
 4905 0002 86B0     		sub	sp, sp, #24
 4906 0004 88B1     		cbz	r0, .L982
 4907 0006 0A4C     		ldr	r4, .L983
 4908 0008 0594     		str	r4, [sp, #20]
 4909 000a 90F8ED42 		ldrb	r4, [r0, #749]	@ zero_extendqisi2
 4910 000e E443     		mvns	r4, r4
 4911 0010 04F00104 		and	r4, r4, #1
 4912 0014 0494     		str	r4, [sp, #16]
 4913 0016 0024     		movs	r4, #0
 4914 0018 CDE90244 		strd	r4, r4, [sp, #8]
 4915 001c CDE90040 		strd	r4, r0, [sp]
 4916 0020 0068     		ldr	r0, [r0]
 4917 0022 FFF7FEFF 		bl	ProcessBuffer
 4918              	.L980:
 4919 0026 06B0     		add	sp, sp, #24
 4920              		@ sp needed
 4921 0028 10BD     		pop	{r4, pc}
 4922              	.L982:
 4923 002a 6FF0AC00 		mvn	r0, #172
 4924 002e FAE7     		b	.L980
 4925              	.L984:
 4926              		.align	2
 4927              	.L983:
 4928 0030 00000000 		.word	.LC5
 4930              		.section	.text.wolfSSL_use_PrivateKey_buffer,"ax",%progbits
 4931              		.align	1
ARM GAS  /tmp/cc0JdWKx.s 			page 83


 4932              		.global	wolfSSL_use_PrivateKey_buffer
 4933              		.syntax unified
 4934              		.thumb
 4935              		.thumb_func
 4936              		.fpu fpv4-sp-d16
 4938              	wolfSSL_use_PrivateKey_buffer:
 4939              		@ args = 0, pretend = 0, frame = 8
 4940              		@ frame_needed = 0, uses_anonymous_args = 0
 4941 0000 30B5     		push	{r4, r5, lr}
 4942 0002 0025     		movs	r5, #0
 4943 0004 89B0     		sub	sp, sp, #36
 4944 0006 0795     		str	r5, [sp, #28]
 4945 0008 90B1     		cbz	r0, .L987
 4946 000a 0B4C     		ldr	r4, .L988
 4947 000c 0594     		str	r4, [sp, #20]
 4948 000e 90F8ED42 		ldrb	r4, [r0, #749]	@ zero_extendqisi2
 4949 0012 E443     		mvns	r4, r4
 4950 0014 04F00104 		and	r4, r4, #1
 4951 0018 CDE90354 		strd	r5, r4, [sp, #12]
 4952 001c 07AC     		add	r4, sp, #28
 4953 001e CDE90104 		strd	r0, r4, [sp, #4]
 4954 0022 0124     		movs	r4, #1
 4955 0024 0094     		str	r4, [sp]
 4956 0026 0068     		ldr	r0, [r0]
 4957 0028 FFF7FEFF 		bl	ProcessBuffer
 4958              	.L985:
 4959 002c 09B0     		add	sp, sp, #36
 4960              		@ sp needed
 4961 002e 30BD     		pop	{r4, r5, pc}
 4962              	.L987:
 4963 0030 6FF0AC00 		mvn	r0, #172
 4964 0034 FAE7     		b	.L985
 4965              	.L989:
 4966 0036 00BF     		.align	2
 4967              	.L988:
 4968 0038 00000000 		.word	.LC3
 4970              		.section	.text.wolfSSL_use_certificate_chain_buffer_format,"ax",%progbits
 4971              		.align	1
 4972              		.global	wolfSSL_use_certificate_chain_buffer_format
 4973              		.syntax unified
 4974              		.thumb
 4975              		.thumb_func
 4976              		.fpu fpv4-sp-d16
 4978              	wolfSSL_use_certificate_chain_buffer_format:
 4979              		@ args = 0, pretend = 0, frame = 0
 4980              		@ frame_needed = 0, uses_anonymous_args = 0
 4981 0000 10B5     		push	{r4, lr}
 4982 0002 86B0     		sub	sp, sp, #24
 4983 0004 98B1     		cbz	r0, .L992
 4984 0006 0B4C     		ldr	r4, .L993
 4985 0008 4FF0010C 		mov	ip, #1
 4986 000c 0594     		str	r4, [sp, #20]
 4987 000e 90F8ED42 		ldrb	r4, [r0, #749]	@ zero_extendqisi2
 4988 0012 E443     		mvns	r4, r4
 4989 0014 04F00104 		and	r4, r4, #1
 4990 0018 0494     		str	r4, [sp, #16]
 4991 001a 0024     		movs	r4, #0
ARM GAS  /tmp/cc0JdWKx.s 			page 84


 4992 001c CDE9024C 		strd	r4, ip, [sp, #8]
 4993 0020 CDE90040 		strd	r4, r0, [sp]
 4994 0024 0068     		ldr	r0, [r0]
 4995 0026 FFF7FEFF 		bl	ProcessBuffer
 4996              	.L990:
 4997 002a 06B0     		add	sp, sp, #24
 4998              		@ sp needed
 4999 002c 10BD     		pop	{r4, pc}
 5000              	.L992:
 5001 002e 6FF0AC00 		mvn	r0, #172
 5002 0032 FAE7     		b	.L990
 5003              	.L994:
 5004              		.align	2
 5005              	.L993:
 5006 0034 00000000 		.word	.LC4
 5008              		.section	.text.wolfSSL_use_certificate_chain_buffer,"ax",%progbits
 5009              		.align	1
 5010              		.global	wolfSSL_use_certificate_chain_buffer
 5011              		.syntax unified
 5012              		.thumb
 5013              		.thumb_func
 5014              		.fpu fpv4-sp-d16
 5016              	wolfSSL_use_certificate_chain_buffer:
 5017              		@ args = 0, pretend = 0, frame = 0
 5018              		@ frame_needed = 0, uses_anonymous_args = 0
 5019              		@ link register save eliminated.
 5020 0000 0123     		movs	r3, #1
 5021 0002 FFF7FEBF 		b	wolfSSL_use_certificate_chain_buffer_format
 5023              		.section	.text.wolfSSL_CTX_set_verify_depth,"ax",%progbits
 5024              		.align	1
 5025              		.global	wolfSSL_CTX_set_verify_depth
 5026              		.syntax unified
 5027              		.thumb
 5028              		.thumb_func
 5029              		.fpu fpv4-sp-d16
 5031              	wolfSSL_CTX_set_verify_depth:
 5032              		@ args = 0, pretend = 0, frame = 0
 5033              		@ frame_needed = 0, uses_anonymous_args = 0
 5034              		@ link register save eliminated.
 5035 0000 18B1     		cbz	r0, .L996
 5036 0002 0929     		cmp	r1, #9
 5037 0004 98BF     		it	ls
 5038 0006 80F83810 		strbls	r1, [r0, #56]
 5039              	.L996:
 5040 000a 7047     		bx	lr
 5042              		.section	.text.wolfSSL_get_verify_depth,"ax",%progbits
 5043              		.align	1
 5044              		.global	wolfSSL_get_verify_depth
 5045              		.syntax unified
 5046              		.thumb
 5047              		.thumb_func
 5048              		.fpu fpv4-sp-d16
 5050              	wolfSSL_get_verify_depth:
 5051              		@ args = 0, pretend = 0, frame = 0
 5052              		@ frame_needed = 0, uses_anonymous_args = 0
 5053              		@ link register save eliminated.
 5054 0000 0028     		cmp	r0, #0
ARM GAS  /tmp/cc0JdWKx.s 			page 85


 5055 0002 14BF     		ite	ne
 5056 0004 0920     		movne	r0, #9
 5057 0006 6FF0AC00 		mvneq	r0, #172
 5058 000a 7047     		bx	lr
 5060              		.section	.text.wolfSSL_CTX_get_verify_depth,"ax",%progbits
 5061              		.align	1
 5062              		.global	wolfSSL_CTX_get_verify_depth
 5063              		.syntax unified
 5064              		.thumb
 5065              		.thumb_func
 5066              		.fpu fpv4-sp-d16
 5068              	wolfSSL_CTX_get_verify_depth:
 5069              		@ args = 0, pretend = 0, frame = 0
 5070              		@ frame_needed = 0, uses_anonymous_args = 0
 5071              		@ link register save eliminated.
 5072 0000 0028     		cmp	r0, #0
 5073 0002 14BF     		ite	ne
 5074 0004 0920     		movne	r0, #9
 5075 0006 6FF0AC00 		mvneq	r0, #172
 5076 000a 7047     		bx	lr
 5078              		.section	.text.wolfSSL_CTX_check_private_key,"ax",%progbits
 5079              		.align	1
 5080              		.global	wolfSSL_CTX_check_private_key
 5081              		.syntax unified
 5082              		.thumb
 5083              		.thumb_func
 5084              		.fpu fpv4-sp-d16
 5086              	wolfSSL_CTX_check_private_key:
 5087              		@ args = 0, pretend = 0, frame = 0
 5088              		@ frame_needed = 0, uses_anonymous_args = 0
 5089 0000 2DE9F341 		push	{r0, r1, r4, r5, r6, r7, r8, lr}
 5090 0004 88B3     		cbz	r0, .L1010
 5091 0006 0469     		ldr	r4, [r0, #16]
 5092 0008 0CB3     		cbz	r4, .L1007
 5093 000a C569     		ldr	r5, [r0, #28]
 5094 000c 7DB3     		cbz	r5, .L1012
 5095 000e 476B     		ldr	r7, [r0, #52]
 5096 0010 D0F82880 		ldr	r8, [r0, #40]
 5097 0014 4FF45970 		mov	r0, #868
 5098 0018 FFF7FEFF 		bl	wolfSSL_Malloc
 5099 001c 0646     		mov	r6, r0
 5100 001e 40B3     		cbz	r0, .L1013
 5101 0020 CDF80080 		str	r8, [sp]
 5102 0024 A268     		ldr	r2, [r4, #8]
 5103 0026 2168     		ldr	r1, [r4]
 5104 0028 0024     		movs	r4, #0
 5105 002a 3B46     		mov	r3, r7
 5106 002c FFF7FEFF 		bl	InitDecodedCert_ex
 5107 0030 2346     		mov	r3, r4
 5108 0032 2246     		mov	r2, r4
 5109 0034 2146     		mov	r1, r4
 5110 0036 3046     		mov	r0, r6
 5111 0038 0094     		str	r4, [sp]
 5112 003a FFF7FEFF 		bl	ParseCertRelative
 5113 003e 0346     		mov	r3, r0
 5114 0040 48B1     		cbz	r0, .L1009
 5115              	.L1014:
ARM GAS  /tmp/cc0JdWKx.s 			page 86


 5116 0042 3046     		mov	r0, r6
 5117 0044 FFF7FEFF 		bl	FreeDecodedCert
 5118 0048 3046     		mov	r0, r6
 5119 004a FFF7FEFF 		bl	wolfSSL_Free
 5120              	.L1007:
 5121 004e 2046     		mov	r0, r4
 5122 0050 02B0     		add	sp, sp, #8
 5123              		@ sp needed
 5124 0052 BDE8F081 		pop	{r4, r5, r6, r7, r8, pc}
 5125              	.L1009:
 5126 0056 0097     		str	r7, [sp]
 5127 0058 3246     		mov	r2, r6
 5128 005a A968     		ldr	r1, [r5, #8]
 5129 005c 2868     		ldr	r0, [r5]
 5130 005e FFF7FEFF 		bl	wc_CheckPrivateKeyCert
 5131 0062 431E     		subs	r3, r0, #1
 5132 0064 5C42     		rsbs	r4, r3, #0
 5133 0066 5C41     		adcs	r4, r4, r3
 5134 0068 EBE7     		b	.L1014
 5135              	.L1010:
 5136 006a 0446     		mov	r4, r0
 5137 006c EFE7     		b	.L1007
 5138              	.L1012:
 5139 006e 2C46     		mov	r4, r5
 5140 0070 EDE7     		b	.L1007
 5141              	.L1013:
 5142 0072 6FF07C04 		mvn	r4, #124
 5143 0076 EAE7     		b	.L1007
 5145              		.section	.text.wolfSSL_CTX_SetTmpEC_DHE_Sz,"ax",%progbits
 5146              		.align	1
 5147              		.global	wolfSSL_CTX_SetTmpEC_DHE_Sz
 5148              		.syntax unified
 5149              		.thumb
 5150              		.thumb_func
 5151              		.fpu fpv4-sp-d16
 5153              	wolfSSL_CTX_SetTmpEC_DHE_Sz:
 5154              		@ args = 0, pretend = 0, frame = 0
 5155              		@ frame_needed = 0, uses_anonymous_args = 0
 5156              		@ link register save eliminated.
 5157 0000 78B1     		cbz	r0, .L1021
 5158 0002 31B9     		cbnz	r1, .L1017
 5159 0004 90F82030 		ldrb	r3, [r0, #32]	@ zero_extendqisi2
 5160 0008 032B     		cmp	r3, #3
 5161 000a 08D1     		bne	.L1019
 5162 000c 416A     		ldr	r1, [r0, #36]
 5163 000e 41B1     		cbz	r1, .L1021
 5164 0010 89B2     		uxth	r1, r1
 5165              	.L1017:
 5166 0012 A1F11C03 		sub	r3, r1, #28
 5167 0016 262B     		cmp	r3, #38
 5168 0018 03D8     		bhi	.L1021
 5169 001a A0F85C10 		strh	r1, [r0, #92]	@ movhi
 5170              	.L1019:
 5171 001e 0120     		movs	r0, #1
 5172 0020 7047     		bx	lr
 5173              	.L1021:
 5174 0022 6FF0AC00 		mvn	r0, #172
ARM GAS  /tmp/cc0JdWKx.s 			page 87


 5175 0026 7047     		bx	lr
 5177              		.section	.text.wolfSSL_SetTmpEC_DHE_Sz,"ax",%progbits
 5178              		.align	1
 5179              		.global	wolfSSL_SetTmpEC_DHE_Sz
 5180              		.syntax unified
 5181              		.thumb
 5182              		.thumb_func
 5183              		.fpu fpv4-sp-d16
 5185              	wolfSSL_SetTmpEC_DHE_Sz:
 5186              		@ args = 0, pretend = 0, frame = 0
 5187              		@ frame_needed = 0, uses_anonymous_args = 0
 5188              		@ link register save eliminated.
 5189 0000 38B1     		cbz	r0, .L1025
 5190 0002 A1F11C03 		sub	r3, r1, #28
 5191 0006 262B     		cmp	r3, #38
 5192 0008 03D8     		bhi	.L1025
 5193 000a A0F8A013 		strh	r1, [r0, #928]	@ movhi
 5194 000e 0120     		movs	r0, #1
 5195 0010 7047     		bx	lr
 5196              	.L1025:
 5197 0012 6FF0AC00 		mvn	r0, #172
 5198 0016 7047     		bx	lr
 5200              		.section	.text.wolfSSL_CTX_set_verify,"ax",%progbits
 5201              		.align	1
 5202              		.global	wolfSSL_CTX_set_verify
 5203              		.syntax unified
 5204              		.thumb
 5205              		.thumb_func
 5206              		.fpu fpv4-sp-d16
 5208              	wolfSSL_CTX_set_verify:
 5209              		@ args = 0, pretend = 0, frame = 0
 5210              		@ frame_needed = 0, uses_anonymous_args = 0
 5211 0000 38B5     		push	{r3, r4, r5, lr}
 5212 0002 1546     		mov	r5, r2
 5213 0004 0446     		mov	r4, r0
 5214 0006 C0B1     		cbz	r0, .L1026
 5215 0008 0846     		mov	r0, r1
 5216 000a FFF7FEFF 		bl	ModeToVerifyOptions
 5217 000e 0146     		mov	r1, r0
 5218 0010 C1F30002 		ubfx	r2, r1, #0, #1
 5219 0014 01F00203 		and	r3, r1, #2
 5220 0018 1343     		orrs	r3, r3, r2
 5221 001a C1F38002 		ubfx	r2, r1, #2, #1
 5222 001e 43EA8203 		orr	r3, r3, r2, lsl #2
 5223 0022 94F83920 		ldrb	r2, [r4, #57]	@ zero_extendqisi2
 5224 0026 C1F3C001 		ubfx	r1, r1, #3, #1
 5225 002a 43EAC103 		orr	r3, r3, r1, lsl #3
 5226 002e 22F00F02 		bic	r2, r2, #15
 5227 0032 1343     		orrs	r3, r3, r2
 5228 0034 84F83930 		strb	r3, [r4, #57]
 5229 0038 E564     		str	r5, [r4, #76]
 5230              	.L1026:
 5231 003a 38BD     		pop	{r3, r4, r5, pc}
 5233              		.section	.text.wolfSSL_set_verify,"ax",%progbits
 5234              		.align	1
 5235              		.global	wolfSSL_set_verify
 5236              		.syntax unified
ARM GAS  /tmp/cc0JdWKx.s 			page 88


 5237              		.thumb
 5238              		.thumb_func
 5239              		.fpu fpv4-sp-d16
 5241              	wolfSSL_set_verify:
 5242              		@ args = 0, pretend = 0, frame = 0
 5243              		@ frame_needed = 0, uses_anonymous_args = 0
 5244 0000 38B5     		push	{r3, r4, r5, lr}
 5245 0002 0446     		mov	r4, r0
 5246 0004 1546     		mov	r5, r2
 5247 0006 0846     		mov	r0, r1
 5248 0008 6CB1     		cbz	r4, .L1031
 5249 000a FFF7FEFF 		bl	ModeToVerifyOptions
 5250 000e C301     		lsls	r3, r0, #7
 5251 0010 B4F8EC02 		ldrh	r0, [r4, #748]
 5252 0014 03F4F063 		and	r3, r3, #1920
 5253 0018 20F4F060 		bic	r0, r0, #1920
 5254 001c 0343     		orrs	r3, r3, r0
 5255 001e A4F8EC32 		strh	r3, [r4, #748]	@ movhi
 5256 0022 C4F88450 		str	r5, [r4, #132]
 5257              	.L1031:
 5258 0026 38BD     		pop	{r3, r4, r5, pc}
 5260              		.section	.text.wolfSSL_set_verify_result,"ax",%progbits
 5261              		.align	1
 5262              		.global	wolfSSL_set_verify_result
 5263              		.syntax unified
 5264              		.thumb
 5265              		.thumb_func
 5266              		.fpu fpv4-sp-d16
 5268              	wolfSSL_set_verify_result:
 5269              		@ args = 0, pretend = 0, frame = 0
 5270              		@ frame_needed = 0, uses_anonymous_args = 0
 5271              		@ link register save eliminated.
 5272 0000 7047     		bx	lr
 5274              		.section	.text.wolfSSL_SetCertCbCtx,"ax",%progbits
 5275              		.align	1
 5276              		.global	wolfSSL_SetCertCbCtx
 5277              		.syntax unified
 5278              		.thumb
 5279              		.thumb_func
 5280              		.fpu fpv4-sp-d16
 5282              	wolfSSL_SetCertCbCtx:
 5283              		@ args = 0, pretend = 0, frame = 0
 5284              		@ frame_needed = 0, uses_anonymous_args = 0
 5285              		@ link register save eliminated.
 5286 0000 08B1     		cbz	r0, .L1035
 5287 0002 C0F88010 		str	r1, [r0, #128]
 5288              	.L1035:
 5289 0006 7047     		bx	lr
 5291              		.section	.text.wolfSSL_CTX_SetCertCbCtx,"ax",%progbits
 5292              		.align	1
 5293              		.global	wolfSSL_CTX_SetCertCbCtx
 5294              		.syntax unified
 5295              		.thumb
 5296              		.thumb_func
 5297              		.fpu fpv4-sp-d16
 5299              	wolfSSL_CTX_SetCertCbCtx:
 5300              		@ args = 0, pretend = 0, frame = 0
ARM GAS  /tmp/cc0JdWKx.s 			page 89


 5301              		@ frame_needed = 0, uses_anonymous_args = 0
 5302              		@ link register save eliminated.
 5303 0000 00B1     		cbz	r0, .L1040
 5304 0002 0165     		str	r1, [r0, #80]
 5305              	.L1040:
 5306 0004 7047     		bx	lr
 5308              		.section	.text.wolfSSL_CTX_SetCACb,"ax",%progbits
 5309              		.align	1
 5310              		.global	wolfSSL_CTX_SetCACb
 5311              		.syntax unified
 5312              		.thumb
 5313              		.thumb_func
 5314              		.fpu fpv4-sp-d16
 5316              	wolfSSL_CTX_SetCACb:
 5317              		@ args = 0, pretend = 0, frame = 0
 5318              		@ frame_needed = 0, uses_anonymous_args = 0
 5319              		@ link register save eliminated.
 5320 0000 10B1     		cbz	r0, .L1045
 5321 0002 C36A     		ldr	r3, [r0, #44]
 5322 0004 03B1     		cbz	r3, .L1045
 5323 0006 5964     		str	r1, [r3, #68]
 5324              	.L1045:
 5325 0008 7047     		bx	lr
 5327              		.section	.text.wolfSSL_load_error_strings,"ax",%progbits
 5328              		.align	1
 5329              		.global	wolfSSL_load_error_strings
 5330              		.syntax unified
 5331              		.thumb
 5332              		.thumb_func
 5333              		.fpu fpv4-sp-d16
 5335              	wolfSSL_load_error_strings:
 5336              		@ args = 0, pretend = 0, frame = 0
 5337              		@ frame_needed = 0, uses_anonymous_args = 0
 5338              		@ link register save eliminated.
 5339 0000 7047     		bx	lr
 5341              		.section	.text.wolfSSL_CTX_set_cipher_list,"ax",%progbits
 5342              		.align	1
 5343              		.global	wolfSSL_CTX_set_cipher_list
 5344              		.syntax unified
 5345              		.thumb
 5346              		.thumb_func
 5347              		.fpu fpv4-sp-d16
 5349              	wolfSSL_CTX_set_cipher_list:
 5350              		@ args = 0, pretend = 0, frame = 8
 5351              		@ frame_needed = 0, uses_anonymous_args = 0
 5352 0000 13B5     		push	{r0, r1, r4, lr}
 5353 0002 0446     		mov	r4, r0
 5354 0004 10B9     		cbnz	r0, .L1055
 5355              	.L1057:
 5356 0006 0020     		movs	r0, #0
 5357              	.L1054:
 5358 0008 02B0     		add	sp, sp, #8
 5359              		@ sp needed
 5360 000a 10BD     		pop	{r4, pc}
 5361              	.L1055:
 5362 000c 0191     		str	r1, [sp, #4]
 5363 000e FFF7FEFF 		bl	AllocateCtxSuites
ARM GAS  /tmp/cc0JdWKx.s 			page 90


 5364 0012 0028     		cmp	r0, #0
 5365 0014 F7D1     		bne	.L1057
 5366 0016 2046     		mov	r0, r4
 5367 0018 019A     		ldr	r2, [sp, #4]
 5368 001a 216B     		ldr	r1, [r4, #48]
 5369 001c FFF7FEFF 		bl	SetCipherList
 5370 0020 0038     		subs	r0, r0, #0
 5371 0022 18BF     		it	ne
 5372 0024 0120     		movne	r0, #1
 5373 0026 EFE7     		b	.L1054
 5375              		.section	.text.wolfSSL_set_cipher_list,"ax",%progbits
 5376              		.align	1
 5377              		.global	wolfSSL_set_cipher_list
 5378              		.syntax unified
 5379              		.thumb
 5380              		.thumb_func
 5381              		.fpu fpv4-sp-d16
 5383              	wolfSSL_set_cipher_list:
 5384              		@ args = 0, pretend = 0, frame = 8
 5385              		@ frame_needed = 0, uses_anonymous_args = 0
 5386 0000 13B5     		push	{r0, r1, r4, lr}
 5387 0002 0446     		mov	r4, r0
 5388 0004 10B9     		cbnz	r0, .L1059
 5389              	.L1061:
 5390 0006 0020     		movs	r0, #0
 5391              	.L1058:
 5392 0008 02B0     		add	sp, sp, #8
 5393              		@ sp needed
 5394 000a 10BD     		pop	{r4, pc}
 5395              	.L1059:
 5396 000c 0268     		ldr	r2, [r0]
 5397 000e 0191     		str	r1, [sp, #4]
 5398 0010 002A     		cmp	r2, #0
 5399 0012 F8D0     		beq	.L1061
 5400 0014 FFF7FEFF 		bl	AllocateSuites
 5401 0018 0028     		cmp	r0, #0
 5402 001a F4D1     		bne	.L1061
 5403 001c 2146     		mov	r1, r4
 5404 001e 019B     		ldr	r3, [sp, #4]
 5405 0020 6268     		ldr	r2, [r4, #4]
 5406 0022 FFF7FEFF 		bl	SetCipherList_ex
 5407 0026 0038     		subs	r0, r0, #0
 5408 0028 18BF     		it	ne
 5409 002a 0120     		movne	r0, #1
 5410 002c ECE7     		b	.L1058
 5412              		.section	.text.wolfSSL_dtls_get_using_nonblock,"ax",%progbits
 5413              		.align	1
 5414              		.global	wolfSSL_dtls_get_using_nonblock
 5415              		.syntax unified
 5416              		.thumb
 5417              		.thumb_func
 5418              		.fpu fpv4-sp-d16
 5420              	wolfSSL_dtls_get_using_nonblock:
 5421              		@ args = 0, pretend = 0, frame = 0
 5422              		@ frame_needed = 0, uses_anonymous_args = 0
 5423              		@ link register save eliminated.
 5424 0000 0020     		movs	r0, #0
ARM GAS  /tmp/cc0JdWKx.s 			page 91


 5425 0002 7047     		bx	lr
 5427              		.section	.text.wolfSSL_dtls_set_using_nonblock,"ax",%progbits
 5428              		.align	1
 5429              		.global	wolfSSL_dtls_set_using_nonblock
 5430              		.syntax unified
 5431              		.thumb
 5432              		.thumb_func
 5433              		.fpu fpv4-sp-d16
 5435              	wolfSSL_dtls_set_using_nonblock:
 5436              		@ args = 0, pretend = 0, frame = 0
 5437              		@ frame_needed = 0, uses_anonymous_args = 0
 5438              		@ link register save eliminated.
 5439 0000 7047     		bx	lr
 5441              		.section	.text.wolfSSLv23_client_method_ex,"ax",%progbits
 5442              		.align	1
 5443              		.global	wolfSSLv23_client_method_ex
 5444              		.syntax unified
 5445              		.thumb
 5446              		.thumb_func
 5447              		.fpu fpv4-sp-d16
 5449              	wolfSSLv23_client_method_ex:
 5450              		@ args = 0, pretend = 0, frame = 8
 5451              		@ frame_needed = 0, uses_anonymous_args = 0
 5452 0000 13B5     		push	{r0, r1, r4, lr}
 5453 0002 0420     		movs	r0, #4
 5454 0004 FFF7FEFF 		bl	wolfSSL_Malloc
 5455 0008 0446     		mov	r4, r0
 5456 000a 48B1     		cbz	r0, .L1067
 5457 000c FFF7FEFF 		bl	MakeTLSv1_3
 5458 0010 ADF80400 		strh	r0, [sp, #4]	@ movhi
 5459 0014 0199     		ldr	r1, [sp, #4]
 5460 0016 2046     		mov	r0, r4
 5461 0018 FFF7FEFF 		bl	InitSSL_Method
 5462 001c 0123     		movs	r3, #1
 5463 001e E370     		strb	r3, [r4, #3]
 5464              	.L1067:
 5465 0020 2046     		mov	r0, r4
 5466 0022 02B0     		add	sp, sp, #8
 5467              		@ sp needed
 5468 0024 10BD     		pop	{r4, pc}
 5470              		.section	.text.wolfSSLv23_client_method,"ax",%progbits
 5471              		.align	1
 5472              		.global	wolfSSLv23_client_method
 5473              		.syntax unified
 5474              		.thumb
 5475              		.thumb_func
 5476              		.fpu fpv4-sp-d16
 5478              	wolfSSLv23_client_method:
 5479              		@ args = 0, pretend = 0, frame = 0
 5480              		@ frame_needed = 0, uses_anonymous_args = 0
 5481              		@ link register save eliminated.
 5482 0000 0020     		movs	r0, #0
 5483 0002 FFF7FEBF 		b	wolfSSLv23_client_method_ex
 5485              		.section	.text.wolfSSL_connect,"ax",%progbits
 5486              		.align	1
 5487              		.global	wolfSSL_connect
 5488              		.syntax unified
ARM GAS  /tmp/cc0JdWKx.s 			page 92


 5489              		.thumb
 5490              		.thumb_func
 5491              		.fpu fpv4-sp-d16
 5493              	wolfSSL_connect:
 5494              		@ args = 0, pretend = 0, frame = 0
 5495              		@ frame_needed = 0, uses_anonymous_args = 0
 5496 0000 38B5     		push	{r3, r4, r5, lr}
 5497 0002 0446     		mov	r4, r0
 5498 0004 0028     		cmp	r0, #0
 5499 0006 00F00D81 		beq	.L1114
 5500 000a 90F8EE22 		ldrb	r2, [r0, #750]	@ zero_extendqisi2
 5501 000e 12F00202 		ands	r2, r2, #2
 5502 0012 03D0     		beq	.L1075
 5503              	.L1133:
 5504 0014 BDE83840 		pop	{r3, r4, r5, lr}
 5505 0018 FFF7FEBF 		b	wolfSSL_connect_TLSv13
 5506              	.L1075:
 5507 001c 0168     		ldr	r1, [r0]
 5508 001e FFF7FEFF 		bl	ReinitSSL
 5509 0022 0546     		mov	r5, r0
 5510 0024 A0BB     		cbnz	r0, .L1073
 5511 0026 94F8EC32 		ldrb	r3, [r4, #748]	@ zero_extendqisi2
 5512 002a 03F06003 		and	r3, r3, #96
 5513 002e 202B     		cmp	r3, #32
 5514 0030 03D0     		beq	.L1076
 5515 0032 7E4B     		ldr	r3, .L1136
 5516              	.L1135:
 5517 0034 C4F87031 		str	r3, [r4, #368]
 5518 0038 28E0     		b	.L1132
 5519              	.L1076:
 5520 003a D4F88831 		ldr	r3, [r4, #392]
 5521 003e 4BB9     		cbnz	r3, .L1077
 5522 0040 94F80653 		ldrb	r5, [r4, #774]	@ zero_extendqisi2
 5523 0044 15F0FD0F 		tst	r5, #253
 5524 0048 24D0     		beq	.L1115
 5525 004a 043D     		subs	r5, r5, #4
 5526 004c 042D     		cmp	r5, #4
 5527 004e 8CBF     		ite	hi
 5528 0050 0025     		movhi	r5, #0
 5529 0052 0125     		movls	r5, #1
 5530              	.L1077:
 5531 0054 D4F8F430 		ldr	r3, [r4, #244]
 5532 0058 93B1     		cbz	r3, .L1080
 5533 005a 2046     		mov	r0, r4
 5534 005c FFF7FEFF 		bl	SendBuffered
 5535 0060 90B9     		cbnz	r0, .L1079
 5536 0062 D4F88831 		ldr	r3, [r4, #392]
 5537 0066 5BB9     		cbnz	r3, .L1080
 5538 0068 94F8F412 		ldrb	r1, [r4, #756]	@ zero_extendqisi2
 5539 006c 41B9     		cbnz	r1, .L1080
 5540 006e 3DB1     		cbz	r5, .L1080
 5541 0070 94F80633 		ldrb	r3, [r4, #774]	@ zero_extendqisi2
 5542 0074 2046     		mov	r0, r4
 5543 0076 0133     		adds	r3, r3, #1
 5544 0078 84F80633 		strb	r3, [r4, #774]
 5545 007c FFF7FEFF 		bl	FreeAsyncCtx
 5546              	.L1080:
ARM GAS  /tmp/cc0JdWKx.s 			page 93


 5547 0080 2046     		mov	r0, r4
 5548 0082 FFF7FEFF 		bl	RetrySendAlert
 5549 0086 38B1     		cbz	r0, .L1081
 5550              	.L1079:
 5551 0088 C4F87001 		str	r0, [r4, #368]
 5552              	.L1132:
 5553 008c 4FF0FF35 		mov	r5, #-1
 5554              	.L1073:
 5555 0090 2846     		mov	r0, r5
 5556 0092 38BD     		pop	{r3, r4, r5, pc}
 5557              	.L1115:
 5558 0094 0125     		movs	r5, #1
 5559 0096 DDE7     		b	.L1077
 5560              	.L1081:
 5561 0098 94F80633 		ldrb	r3, [r4, #774]	@ zero_extendqisi2
 5562 009c 0A2B     		cmp	r3, #10
 5563 009e F5D8     		bhi	.L1132
 5564 00a0 DFE803F0 		tbb	[pc, r3]
 5565              	.L1083:
 5566 00a4 06       		.byte	(.L1093-.L1083)/2
 5567 00a5 10       		.byte	(.L1092-.L1083)/2
 5568 00a6 23       		.byte	(.L1091-.L1083)/2
 5569 00a7 39       		.byte	(.L1090-.L1083)/2
 5570 00a8 3C       		.byte	(.L1089-.L1083)/2
 5571 00a9 4C       		.byte	(.L1088-.L1083)/2
 5572 00aa 57       		.byte	(.L1087-.L1083)/2
 5573 00ab 75       		.byte	(.L1086-.L1083)/2
 5574 00ac 80       		.byte	(.L1085-.L1083)/2
 5575 00ad 8B       		.byte	(.L1110-.L1083)/2
 5576 00ae 92       		.byte	(.L1082-.L1083)/2
 5577 00af 00       		.p2align 1
 5578              	.L1093:
 5579 00b0 2046     		mov	r0, r4
 5580 00b2 FFF7FEFF 		bl	SendClientHello
 5581 00b6 C4F87001 		str	r0, [r4, #368]
 5582 00ba 0028     		cmp	r0, #0
 5583 00bc E6D1     		bne	.L1132
 5584 00be 0123     		movs	r3, #1
 5585 00c0 84F80633 		strb	r3, [r4, #774]
 5586              	.L1092:
 5587 00c4 94F8ED32 		ldrb	r3, [r4, #749]	@ zero_extendqisi2
 5588 00c8 13F0100F 		tst	r3, #16
 5589 00cc 18BF     		it	ne
 5590 00ce 0A25     		movne	r5, #10
 5591              	.L1131:
 5592 00d0 08BF     		it	eq
 5593 00d2 0825     		moveq	r5, #8
 5594              	.L1096:
 5595 00d4 94F80123 		ldrb	r2, [r4, #769]	@ zero_extendqisi2
 5596 00d8 94F8EE32 		ldrb	r3, [r4, #750]	@ zero_extendqisi2
 5597 00dc 9542     		cmp	r5, r2
 5598 00de 03F00203 		and	r3, r3, #2
 5599 00e2 08DC     		bgt	.L1100
 5600 00e4 0223     		movs	r3, #2
 5601 00e6 84F80633 		strb	r3, [r4, #774]
 5602              	.L1091:
 5603 00ea 94F8EE32 		ldrb	r3, [r4, #750]	@ zero_extendqisi2
ARM GAS  /tmp/cc0JdWKx.s 			page 94


 5604 00ee 9B07     		lsls	r3, r3, #30
 5605 00f0 11D5     		bpl	.L1090
 5606              	.L1134:
 5607 00f2 2046     		mov	r0, r4
 5608 00f4 8EE7     		b	.L1133
 5609              	.L1100:
 5610 00f6 2046     		mov	r0, r4
 5611 00f8 002B     		cmp	r3, #0
 5612 00fa 8BD1     		bne	.L1133
 5613 00fc FFF7FEFF 		bl	ProcessReply
 5614 0100 0028     		cmp	r0, #0
 5615 0102 C4F87001 		str	r0, [r4, #368]
 5616 0106 C1DB     		blt	.L1132
 5617 0108 0A2D     		cmp	r5, #10
 5618 010a E3D1     		bne	.L1096
 5619 010c 94F8ED32 		ldrb	r3, [r4, #749]	@ zero_extendqisi2
 5620 0110 13F0100F 		tst	r3, #16
 5621 0114 DCE7     		b	.L1131
 5622              	.L1090:
 5623 0116 0423     		movs	r3, #4
 5624 0118 84F80633 		strb	r3, [r4, #774]
 5625              	.L1089:
 5626 011c 94F9F032 		ldrsb	r3, [r4, #752]
 5627 0120 002B     		cmp	r3, #0
 5628 0122 6DDB     		blt	.L1118
 5629 0124 94F8EE32 		ldrb	r3, [r4, #750]	@ zero_extendqisi2
 5630 0128 9D07     		lsls	r5, r3, #30
 5631 012a E2D4     		bmi	.L1134
 5632 012c 94F8EC32 		ldrb	r3, [r4, #748]	@ zero_extendqisi2
 5633 0130 13F0060F 		tst	r3, #6
 5634 0134 13D1     		bne	.L1102
 5635              	.L1103:
 5636 0136 0523     		movs	r3, #5
 5637 0138 84F80633 		strb	r3, [r4, #774]
 5638              	.L1088:
 5639 013c 94F8EE32 		ldrb	r3, [r4, #750]	@ zero_extendqisi2
 5640 0140 9807     		lsls	r0, r3, #30
 5641 0142 D6D4     		bmi	.L1134
 5642 0144 94F8ED32 		ldrb	r3, [r4, #749]	@ zero_extendqisi2
 5643 0148 D906     		lsls	r1, r3, #27
 5644 014a 10D5     		bpl	.L1105
 5645              	.L1106:
 5646 014c 0623     		movs	r3, #6
 5647 014e 84F80633 		strb	r3, [r4, #774]
 5648              	.L1087:
 5649 0152 94F8F232 		ldrb	r3, [r4, #754]	@ zero_extendqisi2
 5650 0156 5A07     		lsls	r2, r3, #29
 5651 0158 11D4     		bmi	.L1107
 5652 015a 354B     		ldr	r3, .L1136+4
 5653 015c 6AE7     		b	.L1135
 5654              	.L1102:
 5655 015e 2046     		mov	r0, r4
 5656 0160 FFF7FEFF 		bl	SendCertificate
 5657 0164 C4F87001 		str	r0, [r4, #368]
 5658 0168 0028     		cmp	r0, #0
 5659 016a E4D0     		beq	.L1103
 5660 016c 8EE7     		b	.L1132
ARM GAS  /tmp/cc0JdWKx.s 			page 95


 5661              	.L1105:
 5662 016e 2046     		mov	r0, r4
 5663 0170 FFF7FEFF 		bl	SendClientKeyExchange
 5664 0174 C4F87001 		str	r0, [r4, #368]
 5665 0178 0028     		cmp	r0, #0
 5666 017a E7D0     		beq	.L1106
 5667 017c 86E7     		b	.L1132
 5668              	.L1107:
 5669 017e 94F8EC32 		ldrb	r3, [r4, #748]	@ zero_extendqisi2
 5670 0182 13F0060F 		tst	r3, #6
 5671 0186 3DD1     		bne	.L1108
 5672              	.L1109:
 5673 0188 0723     		movs	r3, #7
 5674 018a 84F80633 		strb	r3, [r4, #774]
 5675              	.L1086:
 5676 018e 2046     		mov	r0, r4
 5677 0190 FFF7FEFF 		bl	SendChangeCipher
 5678 0194 C4F87001 		str	r0, [r4, #368]
 5679 0198 0028     		cmp	r0, #0
 5680 019a 7FF477AF 		bne	.L1132
 5681 019e 0823     		movs	r3, #8
 5682 01a0 84F80633 		strb	r3, [r4, #774]
 5683              	.L1085:
 5684 01a4 2046     		mov	r0, r4
 5685 01a6 FFF7FEFF 		bl	SendFinished
 5686 01aa C4F87001 		str	r0, [r4, #368]
 5687 01ae 0028     		cmp	r0, #0
 5688 01b0 7FF46CAF 		bne	.L1132
 5689 01b4 0923     		movs	r3, #9
 5690 01b6 84F80633 		strb	r3, [r4, #774]
 5691              	.L1110:
 5692 01ba 94F80133 		ldrb	r3, [r4, #769]	@ zero_extendqisi2
 5693 01be 092B     		cmp	r3, #9
 5694 01c0 28D9     		bls	.L1111
 5695 01c2 0A23     		movs	r3, #10
 5696 01c4 84F80633 		strb	r3, [r4, #774]
 5697              	.L1082:
 5698 01c8 D4F89430 		ldr	r3, [r4, #148]
 5699 01cc 33B1     		cbz	r3, .L1112
 5700 01ce 2046     		mov	r0, r4
 5701 01d0 D4F89810 		ldr	r1, [r4, #152]
 5702 01d4 9847     		blx	r3
 5703 01d6 0028     		cmp	r0, #0
 5704 01d8 FFF656AF 		blt	.L1079
 5705              	.L1112:
 5706 01dc 94F8EE32 		ldrb	r3, [r4, #750]	@ zero_extendqisi2
 5707 01e0 5B07     		lsls	r3, r3, #29
 5708 01e2 06D4     		bmi	.L1113
 5709 01e4 94F9F132 		ldrsb	r3, [r4, #753]
 5710 01e8 002B     		cmp	r3, #0
 5711 01ea 02DB     		blt	.L1113
 5712 01ec 2046     		mov	r0, r4
 5713 01ee FFF7FEFF 		bl	FreeHandshakeResources
 5714              	.L1113:
 5715 01f2 0121     		movs	r1, #1
 5716 01f4 2046     		mov	r0, r4
 5717 01f6 FFF7FEFF 		bl	FreeAsyncCtx
ARM GAS  /tmp/cc0JdWKx.s 			page 96


 5718 01fa 0023     		movs	r3, #0
 5719 01fc C4F87031 		str	r3, [r4, #368]
 5720              	.L1118:
 5721 0200 0125     		movs	r5, #1
 5722 0202 45E7     		b	.L1073
 5723              	.L1108:
 5724 0204 2046     		mov	r0, r4
 5725 0206 FFF7FEFF 		bl	SendCertificateVerify
 5726 020a C4F87001 		str	r0, [r4, #368]
 5727 020e 0028     		cmp	r0, #0
 5728 0210 BAD0     		beq	.L1109
 5729 0212 3BE7     		b	.L1132
 5730              	.L1111:
 5731 0214 2046     		mov	r0, r4
 5732 0216 FFF7FEFF 		bl	ProcessReply
 5733 021a 0028     		cmp	r0, #0
 5734 021c C4F87001 		str	r0, [r4, #368]
 5735 0220 CBDA     		bge	.L1110
 5736 0222 33E7     		b	.L1132
 5737              	.L1114:
 5738 0224 6FF0AC05 		mvn	r5, #172
 5739 0228 32E7     		b	.L1073
 5740              	.L1137:
 5741 022a 00BF     		.align	2
 5742              	.L1136:
 5743 022c A8FEFFFF 		.word	-344
 5744 0230 86FEFFFF 		.word	-378
 5746              		.section	.text.wolfSSL_connect_cert,"ax",%progbits
 5747              		.align	1
 5748              		.global	wolfSSL_connect_cert
 5749              		.syntax unified
 5750              		.thumb
 5751              		.thumb_func
 5752              		.fpu fpv4-sp-d16
 5754              	wolfSSL_connect_cert:
 5755              		@ args = 0, pretend = 0, frame = 0
 5756              		@ frame_needed = 0, uses_anonymous_args = 0
 5757 0000 10B5     		push	{r4, lr}
 5758 0002 0446     		mov	r4, r0
 5759 0004 68B1     		cbz	r0, .L1138
 5760 0006 90F8F032 		ldrb	r3, [r0, #752]	@ zero_extendqisi2
 5761 000a 43F08003 		orr	r3, r3, #128
 5762 000e 80F8F032 		strb	r3, [r0, #752]
 5763 0012 FFF7FEFF 		bl	wolfSSL_connect
 5764 0016 94F8F032 		ldrb	r3, [r4, #752]	@ zero_extendqisi2
 5765 001a 6FF3C713 		bfc	r3, #7, #1
 5766 001e 84F8F032 		strb	r3, [r4, #752]
 5767              	.L1138:
 5768 0022 10BD     		pop	{r4, pc}
 5770              		.section	.text.wolfSSLv23_server_method_ex,"ax",%progbits
 5771              		.align	1
 5772              		.global	wolfSSLv23_server_method_ex
 5773              		.syntax unified
 5774              		.thumb
 5775              		.thumb_func
 5776              		.fpu fpv4-sp-d16
 5778              	wolfSSLv23_server_method_ex:
ARM GAS  /tmp/cc0JdWKx.s 			page 97


 5779              		@ args = 0, pretend = 0, frame = 8
 5780              		@ frame_needed = 0, uses_anonymous_args = 0
 5781 0000 13B5     		push	{r0, r1, r4, lr}
 5782 0002 0420     		movs	r0, #4
 5783 0004 FFF7FEFF 		bl	wolfSSL_Malloc
 5784 0008 0446     		mov	r4, r0
 5785 000a 58B1     		cbz	r0, .L1141
 5786 000c FFF7FEFF 		bl	MakeTLSv1_3
 5787 0010 ADF80400 		strh	r0, [sp, #4]	@ movhi
 5788 0014 0199     		ldr	r1, [sp, #4]
 5789 0016 2046     		mov	r0, r4
 5790 0018 FFF7FEFF 		bl	InitSSL_Method
 5791 001c 0123     		movs	r3, #1
 5792 001e E370     		strb	r3, [r4, #3]
 5793 0020 0023     		movs	r3, #0
 5794 0022 A370     		strb	r3, [r4, #2]
 5795              	.L1141:
 5796 0024 2046     		mov	r0, r4
 5797 0026 02B0     		add	sp, sp, #8
 5798              		@ sp needed
 5799 0028 10BD     		pop	{r4, pc}
 5801              		.section	.text.wolfSSLv23_server_method,"ax",%progbits
 5802              		.align	1
 5803              		.global	wolfSSLv23_server_method
 5804              		.syntax unified
 5805              		.thumb
 5806              		.thumb_func
 5807              		.fpu fpv4-sp-d16
 5809              	wolfSSLv23_server_method:
 5810              		@ args = 0, pretend = 0, frame = 0
 5811              		@ frame_needed = 0, uses_anonymous_args = 0
 5812              		@ link register save eliminated.
 5813 0000 0020     		movs	r0, #0
 5814 0002 FFF7FEBF 		b	wolfSSLv23_server_method_ex
 5816              		.section	.text.wolfSSL_accept,"ax",%progbits
 5817              		.align	1
 5818              		.global	wolfSSL_accept
 5819              		.syntax unified
 5820              		.thumb
 5821              		.thumb_func
 5822              		.fpu fpv4-sp-d16
 5824              	wolfSSL_accept:
 5825              		@ args = 0, pretend = 0, frame = 0
 5826              		@ frame_needed = 0, uses_anonymous_args = 0
 5827 0000 10B5     		push	{r4, lr}
 5828 0002 0446     		mov	r4, r0
 5829 0004 10B9     		cbnz	r0, .L1148
 5830              	.L1202:
 5831 0006 4FF0FF30 		mov	r0, #-1
 5832 000a 31E1     		b	.L1147
 5833              	.L1148:
 5834 000c 90F8EE22 		ldrb	r2, [r0, #750]	@ zero_extendqisi2
 5835 0010 12F00202 		ands	r2, r2, #2
 5836 0014 03D0     		beq	.L1150
 5837              	.L1225:
 5838 0016 BDE81040 		pop	{r4, lr}
 5839 001a FFF7FEBF 		b	wolfSSL_accept_TLSv13
ARM GAS  /tmp/cc0JdWKx.s 			page 98


 5840              	.L1150:
 5841 001e 0168     		ldr	r1, [r0]
 5842 0020 FFF7FEFF 		bl	ReinitSSL
 5843 0024 0028     		cmp	r0, #0
 5844 0026 40F02381 		bne	.L1147
 5845 002a 94F8EC32 		ldrb	r3, [r4, #748]	@ zero_extendqisi2
 5846 002e 13F0600F 		tst	r3, #96
 5847 0032 03F00102 		and	r2, r3, #1
 5848 0036 03D0     		beq	.L1151
 5849 0038 B04B     		ldr	r3, .L1229
 5850              	.L1228:
 5851 003a C4F87031 		str	r3, [r4, #368]
 5852 003e E2E7     		b	.L1202
 5853              	.L1151:
 5854 0040 72B9     		cbnz	r2, .L1152
 5855 0042 D4F83031 		ldr	r3, [r4, #304]
 5856 0046 0BB1     		cbz	r3, .L1153
 5857 0048 1B68     		ldr	r3, [r3]
 5858 004a 13B9     		cbnz	r3, .L1154
 5859              	.L1153:
 5860 004c 6FF49E73 		mvn	r3, #316
 5861 0050 F3E7     		b	.L1228
 5862              	.L1154:
 5863 0052 D4F83431 		ldr	r3, [r4, #308]
 5864 0056 002B     		cmp	r3, #0
 5865 0058 F8D0     		beq	.L1153
 5866 005a 1B68     		ldr	r3, [r3]
 5867 005c 002B     		cmp	r3, #0
 5868 005e F5D0     		beq	.L1153
 5869              	.L1152:
 5870 0060 D4F8F430 		ldr	r3, [r4, #244]
 5871 0064 DBB1     		cbz	r3, .L1158
 5872 0066 2046     		mov	r0, r4
 5873 0068 FFF7FEFF 		bl	SendBuffered
 5874 006c D8B9     		cbnz	r0, .L1227
 5875 006e D4F88831 		ldr	r3, [r4, #392]
 5876 0072 A3B9     		cbnz	r3, .L1158
 5877 0074 94F8F432 		ldrb	r3, [r4, #756]	@ zero_extendqisi2
 5878 0078 8BB9     		cbnz	r3, .L1158
 5879 007a 94F80733 		ldrb	r3, [r4, #775]	@ zero_extendqisi2
 5880 007e 23F00802 		bic	r2, r3, #8
 5881 0082 043A     		subs	r2, r2, #4
 5882 0084 022A     		cmp	r2, #2
 5883 0086 03D9     		bls	.L1157
 5884 0088 A3F10802 		sub	r2, r3, #8
 5885 008c 022A     		cmp	r2, #2
 5886 008e 06D8     		bhi	.L1158
 5887              	.L1157:
 5888 0090 0133     		adds	r3, r3, #1
 5889 0092 0021     		movs	r1, #0
 5890 0094 2046     		mov	r0, r4
 5891 0096 84F80733 		strb	r3, [r4, #775]
 5892 009a FFF7FEFF 		bl	FreeAsyncCtx
 5893              	.L1158:
 5894 009e 2046     		mov	r0, r4
 5895 00a0 FFF7FEFF 		bl	RetrySendAlert
 5896 00a4 10B1     		cbz	r0, .L1159
ARM GAS  /tmp/cc0JdWKx.s 			page 99


 5897              	.L1227:
 5898 00a6 C4F87001 		str	r0, [r4, #368]
 5899 00aa ACE7     		b	.L1202
 5900              	.L1159:
 5901 00ac 94F80733 		ldrb	r3, [r4, #775]	@ zero_extendqisi2
 5902 00b0 102B     		cmp	r3, #16
 5903 00b2 A8D8     		bhi	.L1202
 5904 00b4 01A2     		adr	r2, .L1161
 5905 00b6 52F823F0 		ldr	pc, [r2, r3, lsl #2]
 5906 00ba 00BF     		.p2align 2
 5907              	.L1161:
 5908 00bc 11010000 		.word	.L1174+1
 5909 00c0 07000000 		.word	.L1202+1
 5910 00c4 1F010000 		.word	.L1173+1
 5911 00c8 07000000 		.word	.L1202+1
 5912 00cc 31010000 		.word	.L1172+1
 5913 00d0 55010000 		.word	.L1171+1
 5914 00d4 6D010000 		.word	.L1170+1
 5915 00d8 07000000 		.word	.L1202+1
 5916 00dc 7D010000 		.word	.L1169+1
 5917 00e0 95010000 		.word	.L1168+1
 5918 00e4 BD010000 		.word	.L1167+1
 5919 00e8 CB010000 		.word	.L1166+1
 5920 00ec D5010000 		.word	.L1165+1
 5921 00f0 F3010000 		.word	.L1164+1
 5922 00f4 13020000 		.word	.L1163+1
 5923 00f8 29020000 		.word	.L1162+1
 5924 00fc 37020000 		.word	.L1160+1
 5925              		.p2align 1
 5926              	.L1176:
 5927 0100 2046     		mov	r0, r4
 5928 0102 FFF7FEFF 		bl	ProcessReply
 5929 0106 0028     		cmp	r0, #0
 5930 0108 C4F87001 		str	r0, [r4, #368]
 5931 010c FFF67BAF 		blt	.L1202
 5932              	.L1174:
 5933 0110 94F80233 		ldrb	r3, [r4, #770]	@ zero_extendqisi2
 5934 0114 0B2B     		cmp	r3, #11
 5935 0116 F3D9     		bls	.L1176
 5936 0118 0223     		movs	r3, #2
 5937 011a 84F80733 		strb	r3, [r4, #775]
 5938              	.L1173:
 5939 011e 94F8EE32 		ldrb	r3, [r4, #750]	@ zero_extendqisi2
 5940 0122 9807     		lsls	r0, r3, #30
 5941 0124 01D5     		bpl	.L1177
 5942              	.L1226:
 5943 0126 2046     		mov	r0, r4
 5944 0128 75E7     		b	.L1225
 5945              	.L1177:
 5946 012a 0423     		movs	r3, #4
 5947 012c 84F80733 		strb	r3, [r4, #775]
 5948              	.L1172:
 5949 0130 94F9F232 		ldrsb	r3, [r4, #754]
 5950 0134 002B     		cmp	r3, #0
 5951 0136 02DA     		bge	.L1178
 5952 0138 6FF4A373 		mvn	r3, #326
 5953 013c 7DE7     		b	.L1228
ARM GAS  /tmp/cc0JdWKx.s 			page 100


 5954              	.L1178:
 5955 013e 2046     		mov	r0, r4
 5956 0140 FFF7FEFF 		bl	SendServerHello
 5957 0144 C4F87001 		str	r0, [r4, #368]
 5958 0148 0028     		cmp	r0, #0
 5959 014a 7FF45CAF 		bne	.L1202
 5960 014e 0523     		movs	r3, #5
 5961 0150 84F80733 		strb	r3, [r4, #775]
 5962              	.L1171:
 5963 0154 94F8EE32 		ldrb	r3, [r4, #750]	@ zero_extendqisi2
 5964 0158 9907     		lsls	r1, r3, #30
 5965 015a E4D4     		bmi	.L1226
 5966 015c 94F8ED32 		ldrb	r3, [r4, #749]	@ zero_extendqisi2
 5967 0160 DA06     		lsls	r2, r3, #27
 5968 0162 40F18680 		bpl	.L1180
 5969              	.L1181:
 5970 0166 0623     		movs	r3, #6
 5971 0168 84F80733 		strb	r3, [r4, #775]
 5972              	.L1170:
 5973 016c 94F8ED32 		ldrb	r3, [r4, #749]	@ zero_extendqisi2
 5974 0170 DB06     		lsls	r3, r3, #27
 5975 0172 40F18780 		bpl	.L1182
 5976              	.L1183:
 5977 0176 0823     		movs	r3, #8
 5978 0178 84F80733 		strb	r3, [r4, #775]
 5979              	.L1169:
 5980 017c 94F8EE32 		ldrb	r3, [r4, #750]	@ zero_extendqisi2
 5981 0180 9807     		lsls	r0, r3, #30
 5982 0182 D0D4     		bmi	.L1226
 5983 0184 94F8ED32 		ldrb	r3, [r4, #749]	@ zero_extendqisi2
 5984 0188 D906     		lsls	r1, r3, #27
 5985 018a 40F18480 		bpl	.L1185
 5986              	.L1186:
 5987 018e 0923     		movs	r3, #9
 5988 0190 84F80733 		strb	r3, [r4, #775]
 5989              	.L1168:
 5990 0194 94F8ED32 		ldrb	r3, [r4, #749]	@ zero_extendqisi2
 5991 0198 DA06     		lsls	r2, r3, #27
 5992 019a 0CD4     		bmi	.L1188
 5993 019c 94F9EC32 		ldrsb	r3, [r4, #748]
 5994 01a0 002B     		cmp	r3, #0
 5995 01a2 80F28180 		bge	.L1189
 5996 01a6 2046     		mov	r0, r4
 5997 01a8 FFF7FEFF 		bl	SendCertificateRequest
 5998 01ac C4F87001 		str	r0, [r4, #368]
 5999 01b0 0028     		cmp	r0, #0
 6000 01b2 7FF428AF 		bne	.L1202
 6001              	.L1188:
 6002 01b6 0A23     		movs	r3, #10
 6003 01b8 84F80733 		strb	r3, [r4, #775]
 6004              	.L1167:
 6005 01bc 94F8ED32 		ldrb	r3, [r4, #749]	@ zero_extendqisi2
 6006 01c0 DB06     		lsls	r3, r3, #27
 6007 01c2 78D5     		bpl	.L1191
 6008              	.L1192:
 6009 01c4 0B23     		movs	r3, #11
 6010 01c6 84F80733 		strb	r3, [r4, #775]
ARM GAS  /tmp/cc0JdWKx.s 			page 101


 6011              	.L1166:
 6012 01ca 94F8ED32 		ldrb	r3, [r4, #749]	@ zero_extendqisi2
 6013 01ce D806     		lsls	r0, r3, #27
 6014 01d0 40F18280 		bpl	.L1193
 6015              	.L1165:
 6016 01d4 D4F8EC22 		ldr	r2, [r4, #748]
 6017 01d8 494B     		ldr	r3, .L1229+4
 6018 01da 1340     		ands	r3, r3, r2
 6019 01dc 802B     		cmp	r3, #128
 6020 01de 02BF     		ittt	eq
 6021 01e0 94F8F232 		ldrbeq	r3, [r4, #754]	@ zero_extendqisi2
 6022 01e4 43F00403 		orreq	r3, r3, #4
 6023 01e8 84F8F232 		strbeq	r3, [r4, #754]
 6024 01ec 0D23     		movs	r3, #13
 6025 01ee 84F80733 		strb	r3, [r4, #775]
 6026              	.L1164:
 6027 01f2 94F8F232 		ldrb	r3, [r4, #754]	@ zero_extendqisi2
 6028 01f6 5907     		lsls	r1, r3, #29
 6029 01f8 7FF505AF 		bpl	.L1202
 6030 01fc 2046     		mov	r0, r4
 6031 01fe FFF7FEFF 		bl	SendChangeCipher
 6032 0202 C4F87001 		str	r0, [r4, #368]
 6033 0206 0028     		cmp	r0, #0
 6034 0208 7FF4FDAE 		bne	.L1202
 6035 020c 0E23     		movs	r3, #14
 6036 020e 84F80733 		strb	r3, [r4, #775]
 6037              	.L1163:
 6038 0212 2046     		mov	r0, r4
 6039 0214 FFF7FEFF 		bl	SendFinished
 6040 0218 C4F87001 		str	r0, [r4, #368]
 6041 021c 0028     		cmp	r0, #0
 6042 021e 7FF4F2AE 		bne	.L1202
 6043 0222 0F23     		movs	r3, #15
 6044 0224 84F80733 		strb	r3, [r4, #775]
 6045              	.L1162:
 6046 0228 94F8ED32 		ldrb	r3, [r4, #749]	@ zero_extendqisi2
 6047 022c DA06     		lsls	r2, r3, #27
 6048 022e 60D4     		bmi	.L1197
 6049              	.L1199:
 6050 0230 1023     		movs	r3, #16
 6051 0232 84F80733 		strb	r3, [r4, #775]
 6052              	.L1160:
 6053 0236 D4F89430 		ldr	r3, [r4, #148]
 6054 023a 33B1     		cbz	r3, .L1200
 6055 023c 2046     		mov	r0, r4
 6056 023e D4F89810 		ldr	r1, [r4, #152]
 6057 0242 9847     		blx	r3
 6058 0244 0028     		cmp	r0, #0
 6059 0246 FFF62EAF 		blt	.L1227
 6060              	.L1200:
 6061 024a 94F8EE32 		ldrb	r3, [r4, #750]	@ zero_extendqisi2
 6062 024e 5B07     		lsls	r3, r3, #29
 6063 0250 06D4     		bmi	.L1201
 6064 0252 94F9F132 		ldrsb	r3, [r4, #753]
 6065 0256 002B     		cmp	r3, #0
 6066 0258 02DB     		blt	.L1201
 6067 025a 2046     		mov	r0, r4
ARM GAS  /tmp/cc0JdWKx.s 			page 102


 6068 025c FFF7FEFF 		bl	FreeHandshakeResources
 6069              	.L1201:
 6070 0260 2046     		mov	r0, r4
 6071 0262 0121     		movs	r1, #1
 6072 0264 FFF7FEFF 		bl	FreeAsyncCtx
 6073 0268 0023     		movs	r3, #0
 6074 026a 0120     		movs	r0, #1
 6075 026c C4F87031 		str	r3, [r4, #368]
 6076              	.L1147:
 6077 0270 10BD     		pop	{r4, pc}
 6078              	.L1180:
 6079 0272 2046     		mov	r0, r4
 6080 0274 FFF7FEFF 		bl	SendCertificate
 6081 0278 C4F87001 		str	r0, [r4, #368]
 6082 027c 0028     		cmp	r0, #0
 6083 027e 3FF472AF 		beq	.L1181
 6084 0282 C0E6     		b	.L1202
 6085              	.L1182:
 6086 0284 2046     		mov	r0, r4
 6087 0286 FFF7FEFF 		bl	SendCertificateStatus
 6088 028a C4F87001 		str	r0, [r4, #368]
 6089 028e 0028     		cmp	r0, #0
 6090 0290 3FF471AF 		beq	.L1183
 6091 0294 B7E6     		b	.L1202
 6092              	.L1185:
 6093 0296 2046     		mov	r0, r4
 6094 0298 FFF7FEFF 		bl	SendServerKeyExchange
 6095 029c C4F87001 		str	r0, [r4, #368]
 6096 02a0 0028     		cmp	r0, #0
 6097 02a2 3FF474AF 		beq	.L1186
 6098 02a6 AEE6     		b	.L1202
 6099              	.L1189:
 6100 02a8 94F8F232 		ldrb	r3, [r4, #754]	@ zero_extendqisi2
 6101 02ac 43F00403 		orr	r3, r3, #4
 6102 02b0 84F8F232 		strb	r3, [r4, #754]
 6103 02b4 7FE7     		b	.L1188
 6104              	.L1191:
 6105 02b6 2046     		mov	r0, r4
 6106 02b8 FFF7FEFF 		bl	SendServerHelloDone
 6107 02bc C4F87001 		str	r0, [r4, #368]
 6108 02c0 0028     		cmp	r0, #0
 6109 02c2 3FF47FAF 		beq	.L1192
 6110 02c6 9EE6     		b	.L1202
 6111              	.L1194:
 6112 02c8 2046     		mov	r0, r4
 6113 02ca FFF7FEFF 		bl	ProcessReply
 6114 02ce 0028     		cmp	r0, #0
 6115 02d0 C4F87001 		str	r0, [r4, #368]
 6116 02d4 FFF697AE 		blt	.L1202
 6117              	.L1193:
 6118 02d8 94F80233 		ldrb	r3, [r4, #770]	@ zero_extendqisi2
 6119 02dc 0E2B     		cmp	r3, #14
 6120 02de F3D9     		bls	.L1194
 6121 02e0 78E7     		b	.L1165
 6122              	.L1198:
 6123 02e2 2046     		mov	r0, r4
 6124 02e4 FFF7FEFF 		bl	ProcessReply
ARM GAS  /tmp/cc0JdWKx.s 			page 103


 6125 02e8 0028     		cmp	r0, #0
 6126 02ea C4F87001 		str	r0, [r4, #368]
 6127 02ee FFF68AAE 		blt	.L1202
 6128              	.L1197:
 6129 02f2 94F80233 		ldrb	r3, [r4, #770]	@ zero_extendqisi2
 6130 02f6 0E2B     		cmp	r3, #14
 6131 02f8 F3D9     		bls	.L1198
 6132 02fa 99E7     		b	.L1199
 6133              	.L1230:
 6134              		.align	2
 6135              	.L1229:
 6136 02fc A8FEFFFF 		.word	-344
 6137 0300 80120080 		.word	-2147478912
 6139              		.section	.text.wolfSSL_negotiate,"ax",%progbits
 6140              		.align	1
 6141              		.global	wolfSSL_negotiate
 6142              		.syntax unified
 6143              		.thumb
 6144              		.thumb_func
 6145              		.fpu fpv4-sp-d16
 6147              	wolfSSL_negotiate:
 6148              		@ args = 0, pretend = 0, frame = 0
 6149              		@ frame_needed = 0, uses_anonymous_args = 0
 6150 0000 10B5     		push	{r4, lr}
 6151 0002 0446     		mov	r4, r0
 6152 0004 40B3     		cbz	r0, .L1236
 6153 0006 90F8EC32 		ldrb	r3, [r0, #748]	@ zero_extendqisi2
 6154 000a 13F06003 		ands	r3, r3, #96
 6155 000e 1BD1     		bne	.L1237
 6156 0010 B0F89E01 		ldrh	r0, [r0, #414]
 6157 0014 FFF7FEFF 		bl	IsAtLeastTLSv1_3
 6158 0018 90B1     		cbz	r0, .L1234
 6159 001a 2046     		mov	r0, r4
 6160 001c FFF7FEFF 		bl	wolfSSL_accept_TLSv13
 6161              	.L1233:
 6162 0020 94F8EC32 		ldrb	r3, [r4, #748]	@ zero_extendqisi2
 6163 0024 03F06003 		and	r3, r3, #96
 6164 0028 202B     		cmp	r3, #32
 6165 002a 17D1     		bne	.L1231
 6166 002c B4F89E01 		ldrh	r0, [r4, #414]
 6167 0030 FFF7FEFF 		bl	IsAtLeastTLSv1_3
 6168 0034 58B1     		cbz	r0, .L1235
 6169 0036 2046     		mov	r0, r4
 6170 0038 BDE81040 		pop	{r4, lr}
 6171 003c FFF7FEBF 		b	wolfSSL_connect_TLSv13
 6172              	.L1234:
 6173 0040 2046     		mov	r0, r4
 6174 0042 FFF7FEFF 		bl	wolfSSL_accept
 6175 0046 EBE7     		b	.L1233
 6176              	.L1237:
 6177 0048 4FF0FF30 		mov	r0, #-1
 6178 004c E8E7     		b	.L1233
 6179              	.L1235:
 6180 004e 2046     		mov	r0, r4
 6181 0050 BDE81040 		pop	{r4, lr}
 6182 0054 FFF7FEBF 		b	wolfSSL_connect
 6183              	.L1236:
ARM GAS  /tmp/cc0JdWKx.s 			page 104


 6184 0058 4FF0FF30 		mov	r0, #-1
 6185              	.L1231:
 6186 005c 10BD     		pop	{r4, pc}
 6188              		.section	.text.wolfSSL_SetHsDoneCb,"ax",%progbits
 6189              		.align	1
 6190              		.global	wolfSSL_SetHsDoneCb
 6191              		.syntax unified
 6192              		.thumb
 6193              		.thumb_func
 6194              		.fpu fpv4-sp-d16
 6196              	wolfSSL_SetHsDoneCb:
 6197              		@ args = 0, pretend = 0, frame = 0
 6198              		@ frame_needed = 0, uses_anonymous_args = 0
 6199              		@ link register save eliminated.
 6200 0000 18B1     		cbz	r0, .L1240
 6201 0002 C0E92512 		strd	r1, r2, [r0, #148]
 6202 0006 0120     		movs	r0, #1
 6203 0008 7047     		bx	lr
 6204              	.L1240:
 6205 000a 6FF0AC00 		mvn	r0, #172
 6206 000e 7047     		bx	lr
 6208              		.section	.text.wolfSSL_Cleanup,"ax",%progbits
 6209              		.align	1
 6210              		.global	wolfSSL_Cleanup
 6211              		.syntax unified
 6212              		.thumb
 6213              		.thumb_func
 6214              		.fpu fpv4-sp-d16
 6216              	wolfSSL_Cleanup:
 6217              		@ args = 0, pretend = 0, frame = 0
 6218              		@ frame_needed = 0, uses_anonymous_args = 0
 6219 0000 38B5     		push	{r3, r4, r5, lr}
 6220 0002 224D     		ldr	r5, .L1263
 6221 0004 2B68     		ldr	r3, [r5]
 6222 0006 012B     		cmp	r3, #1
 6223 0008 2ED0     		beq	.L1242
 6224              	.L1246:
 6225 000a 214B     		ldr	r3, .L1263+4
 6226 000c 1A68     		ldr	r2, [r3]
 6227 000e 002A     		cmp	r2, #0
 6228 0010 32DC     		bgt	.L1243
 6229 0012 0024     		movs	r4, #0
 6230              	.L1244:
 6231 0014 2B68     		ldr	r3, [r5]
 6232 0016 012B     		cmp	r3, #1
 6233 0018 02D1     		bne	.L1247
 6234 001a 1E48     		ldr	r0, .L1263+8
 6235 001c FFF7FEFF 		bl	wc_UnLockMutex
 6236              	.L1247:
 6237 0020 94B3     		cbz	r4, .L1254
 6238 0022 2B68     		ldr	r3, [r5]
 6239 0024 012B     		cmp	r3, #1
 6240 0026 06D1     		bne	.L1249
 6241 0028 1A48     		ldr	r0, .L1263+8
 6242 002a FFF7FEFF 		bl	wc_FreeMutex
 6243 002e 0028     		cmp	r0, #0
 6244 0030 18BF     		it	ne
ARM GAS  /tmp/cc0JdWKx.s 			page 105


 6245 0032 6FF06904 		mvnne	r4, #105
 6246              	.L1249:
 6247 0036 0023     		movs	r3, #0
 6248 0038 2B60     		str	r3, [r5]
 6249 003a FFF7FEFF 		bl	wolfCrypt_Cleanup
 6250 003e 18B1     		cbz	r0, .L1251
 6251 0040 012C     		cmp	r4, #1
 6252 0042 08BF     		it	eq
 6253 0044 6FF0F004 		mvneq	r4, #240
 6254              	.L1251:
 6255 0048 134D     		ldr	r5, .L1263+12
 6256 004a 2B68     		ldr	r3, [r5]
 6257 004c 012B     		cmp	r3, #1
 6258 004e 07D1     		bne	.L1252
 6259 0050 1248     		ldr	r0, .L1263+16
 6260 0052 FFF7FEFF 		bl	wc_FreeMutex
 6261 0056 18B1     		cbz	r0, .L1252
 6262 0058 012C     		cmp	r4, #1
 6263 005a 08BF     		it	eq
 6264 005c 6FF06904 		mvneq	r4, #105
 6265              	.L1252:
 6266 0060 0023     		movs	r3, #0
 6267 0062 2B60     		str	r3, [r5]
 6268              	.L1241:
 6269 0064 2046     		mov	r0, r4
 6270 0066 38BD     		pop	{r3, r4, r5, pc}
 6271              	.L1242:
 6272 0068 0A48     		ldr	r0, .L1263+8
 6273 006a FFF7FEFF 		bl	wc_LockMutex
 6274 006e 0028     		cmp	r0, #0
 6275 0070 CBD0     		beq	.L1246
 6276 0072 6FF06904 		mvn	r4, #105
 6277 0076 F5E7     		b	.L1241
 6278              	.L1243:
 6279 0078 1A68     		ldr	r2, [r3]
 6280 007a 013A     		subs	r2, r2, #1
 6281 007c 1A60     		str	r2, [r3]
 6282 007e 1C68     		ldr	r4, [r3]
 6283 0080 B4FA84F4 		clz	r4, r4
 6284 0084 6409     		lsrs	r4, r4, #5
 6285 0086 C5E7     		b	.L1244
 6286              	.L1254:
 6287 0088 0124     		movs	r4, #1
 6288 008a EBE7     		b	.L1241
 6289              	.L1264:
 6290              		.align	2
 6291              	.L1263:
 6292 008c 00000000 		.word	.LANCHOR3
 6293 0090 00000000 		.word	.LANCHOR4
 6294 0094 00000000 		.word	.LANCHOR5
 6295 0098 00000000 		.word	.LANCHOR6
 6296 009c 00000000 		.word	.LANCHOR7
 6298              		.section	.text.wolfSSL_Init,"ax",%progbits
 6299              		.align	1
 6300              		.global	wolfSSL_Init
 6301              		.syntax unified
 6302              		.thumb
ARM GAS  /tmp/cc0JdWKx.s 			page 106


 6303              		.thumb_func
 6304              		.fpu fpv4-sp-d16
 6306              	wolfSSL_Init:
 6307              		@ args = 0, pretend = 0, frame = 0
 6308              		@ frame_needed = 0, uses_anonymous_args = 0
 6309 0000 38B5     		push	{r3, r4, r5, lr}
 6310 0002 194C     		ldr	r4, .L1278
 6311 0004 2368     		ldr	r3, [r4]
 6312 0006 4BB9     		cbnz	r3, .L1266
 6313 0008 1848     		ldr	r0, .L1278+4
 6314 000a FFF7FEFF 		bl	wc_InitMutex
 6315 000e 18B1     		cbz	r0, .L1267
 6316              	.L1269:
 6317 0010 6FF06904 		mvn	r4, #105
 6318              	.L1265:
 6319 0014 2046     		mov	r0, r4
 6320 0016 38BD     		pop	{r3, r4, r5, pc}
 6321              	.L1267:
 6322 0018 0123     		movs	r3, #1
 6323 001a 2360     		str	r3, [r4]
 6324              	.L1266:
 6325 001c 1348     		ldr	r0, .L1278+4
 6326 001e FFF7FEFF 		bl	wc_LockMutex
 6327 0022 0028     		cmp	r0, #0
 6328 0024 F4D1     		bne	.L1269
 6329 0026 124D     		ldr	r5, .L1278+8
 6330 0028 2B68     		ldr	r3, [r5]
 6331 002a 4BB9     		cbnz	r3, .L1270
 6332 002c FFF7FEFF 		bl	wolfCrypt_Init
 6333 0030 90B9     		cbnz	r0, .L1273
 6334 0032 1048     		ldr	r0, .L1278+12
 6335 0034 FFF7FEFF 		bl	wc_InitMutex
 6336 0038 98B9     		cbnz	r0, .L1274
 6337 003a 0122     		movs	r2, #1
 6338 003c 0E4B     		ldr	r3, .L1278+16
 6339 003e 1A60     		str	r2, [r3]
 6340              	.L1270:
 6341 0040 0124     		movs	r4, #1
 6342 0042 2B68     		ldr	r3, [r5]
 6343 0044 0133     		adds	r3, r3, #1
 6344 0046 2B60     		str	r3, [r5]
 6345              	.L1272:
 6346 0048 0848     		ldr	r0, .L1278+4
 6347 004a FFF7FEFF 		bl	wc_UnLockMutex
 6348 004e 012C     		cmp	r4, #1
 6349 0050 E0D0     		beq	.L1265
 6350 0052 FFF7FEFF 		bl	wolfSSL_Cleanup
 6351 0056 DDE7     		b	.L1265
 6352              	.L1273:
 6353 0058 6FF0E304 		mvn	r4, #227
 6354              	.L1271:
 6355 005c 0123     		movs	r3, #1
 6356 005e 2B60     		str	r3, [r5]
 6357 0060 F2E7     		b	.L1272
 6358              	.L1274:
 6359 0062 6FF06904 		mvn	r4, #105
 6360 0066 F9E7     		b	.L1271
ARM GAS  /tmp/cc0JdWKx.s 			page 107


 6361              	.L1279:
 6362              		.align	2
 6363              	.L1278:
 6364 0068 00000000 		.word	.LANCHOR3
 6365 006c 00000000 		.word	.LANCHOR5
 6366 0070 00000000 		.word	.LANCHOR4
 6367 0074 00000000 		.word	.LANCHOR7
 6368 0078 00000000 		.word	.LANCHOR6
 6370              		.section	.text.wolfSSL_CTX_new_ex,"ax",%progbits
 6371              		.align	1
 6372              		.global	wolfSSL_CTX_new_ex
 6373              		.syntax unified
 6374              		.thumb
 6375              		.thumb_func
 6376              		.fpu fpv4-sp-d16
 6378              	wolfSSL_CTX_new_ex:
 6379              		@ args = 0, pretend = 0, frame = 0
 6380              		@ frame_needed = 0, uses_anonymous_args = 0
 6381 0000 124B     		ldr	r3, .L1295
 6382 0002 70B5     		push	{r4, r5, r6, lr}
 6383 0004 1B68     		ldr	r3, [r3]
 6384 0006 0546     		mov	r5, r0
 6385 0008 0E46     		mov	r6, r1
 6386 000a 5BB9     		cbnz	r3, .L1281
 6387 000c FFF7FEFF 		bl	wolfSSL_Init
 6388 0010 0128     		cmp	r0, #1
 6389 0012 07D0     		beq	.L1281
 6390 0014 15B9     		cbnz	r5, .L1282
 6391              	.L1294:
 6392 0016 0024     		movs	r4, #0
 6393              	.L1280:
 6394 0018 2046     		mov	r0, r4
 6395 001a 70BD     		pop	{r4, r5, r6, pc}
 6396              	.L1282:
 6397 001c 2846     		mov	r0, r5
 6398 001e FFF7FEFF 		bl	wolfSSL_Free
 6399 0022 F8E7     		b	.L1294
 6400              	.L1281:
 6401 0024 002D     		cmp	r5, #0
 6402 0026 F6D0     		beq	.L1294
 6403 0028 4FF4DC60 		mov	r0, #1760
 6404 002c FFF7FEFF 		bl	wolfSSL_Malloc
 6405 0030 0446     		mov	r4, r0
 6406 0032 0028     		cmp	r0, #0
 6407 0034 F2D0     		beq	.L1282
 6408 0036 3246     		mov	r2, r6
 6409 0038 2946     		mov	r1, r5
 6410 003a FFF7FEFF 		bl	InitSSL_Ctx
 6411 003e 0028     		cmp	r0, #0
 6412 0040 EADA     		bge	.L1280
 6413 0042 2046     		mov	r0, r4
 6414 0044 FFF7FEFF 		bl	wolfSSL_CTX_free
 6415 0048 E5E7     		b	.L1294
 6416              	.L1296:
 6417 004a 00BF     		.align	2
 6418              	.L1295:
 6419 004c 00000000 		.word	.LANCHOR4
ARM GAS  /tmp/cc0JdWKx.s 			page 108


 6421              		.section	.text.wolfSSL_CertManagerLoadCABufferType,"ax",%progbits
 6422              		.align	1
 6423              		.global	wolfSSL_CertManagerLoadCABufferType
 6424              		.syntax unified
 6425              		.thumb
 6426              		.thumb_func
 6427              		.fpu fpv4-sp-d16
 6429              	wolfSSL_CertManagerLoadCABufferType:
 6430              		@ args = 12, pretend = 0, frame = 8
 6431              		@ frame_needed = 0, uses_anonymous_args = 0
 6432 0000 2DE9F04F 		push	{r4, r5, r6, r7, r8, r9, r10, fp, lr}
 6433 0004 4FF00009 		mov	r9, #0
 6434 0008 87B0     		sub	sp, sp, #28
 6435 000a 0F46     		mov	r7, r1
 6436 000c 9046     		mov	r8, r2
 6437 000e 9A46     		mov	r10, r3
 6438 0010 0646     		mov	r6, r0
 6439 0012 CDF81490 		str	r9, [sp, #20]
 6440 0016 18B9     		cbnz	r0, .L1298
 6441              	.L1300:
 6442 0018 0024     		movs	r4, #0
 6443              	.L1307:
 6444 001a 4FF0FF3B 		mov	fp, #-1
 6445 001e 45E0     		b	.L1299
 6446              	.L1298:
 6447 0020 C06A     		ldr	r0, [r0, #44]
 6448 0022 FFF7FEFF 		bl	wolfTLSv1_2_client_method_ex
 6449 0026 F16A     		ldr	r1, [r6, #44]
 6450 0028 FFF7FEFF 		bl	wolfSSL_CTX_new_ex
 6451 002c 0446     		mov	r4, r0
 6452 002e 0028     		cmp	r0, #0
 6453 0030 F2D0     		beq	.L1300
 6454 0032 4A46     		mov	r2, r9
 6455 0034 4FF40071 		mov	r1, #512
 6456 0038 FFF7FEFF 		bl	wolfSSL_CTX_set_verify
 6457 003c E06A     		ldr	r0, [r4, #44]
 6458 003e FFF7FEFF 		bl	wolfSSL_CertManagerFree
 6459 0042 119B     		ldr	r3, [sp, #68]
 6460 0044 E662     		str	r6, [r4, #44]
 6461 0046 0193     		str	r3, [sp, #4]
 6462 0048 109B     		ldr	r3, [sp, #64]
 6463 004a 4246     		mov	r2, r8
 6464 004c 0093     		str	r3, [sp]
 6465 004e 3946     		mov	r1, r7
 6466 0050 5346     		mov	r3, r10
 6467 0052 2046     		mov	r0, r4
 6468 0054 FFF7FEFF 		bl	wolfSSL_CTX_load_verify_buffer_ex
 6469 0058 0128     		cmp	r0, #1
 6470 005a 8346     		mov	fp, r0
 6471 005c C4F82C90 		str	r9, [r4, #44]
 6472 0060 24D1     		bne	.L1299
 6473 0062 129B     		ldr	r3, [sp, #72]
 6474 0064 012B     		cmp	r3, #1
 6475 0066 21D0     		beq	.L1299
 6476 0068 4FF45970 		mov	r0, #868
 6477 006c FFF7FEFF 		bl	wolfSSL_Malloc
 6478 0070 0546     		mov	r5, r0
ARM GAS  /tmp/cc0JdWKx.s 			page 109


 6479 0072 0028     		cmp	r0, #0
 6480 0074 D1D0     		beq	.L1307
 6481 0076 BAF1010F 		cmp	r10, #1
 6482 007a 22D1     		bne	.L1301
 6483 007c CDE90199 		strd	r9, r9, [sp, #4]
 6484 0080 F36A     		ldr	r3, [r6, #44]
 6485 0082 4A46     		mov	r2, r9
 6486 0084 0093     		str	r3, [sp]
 6487 0086 4146     		mov	r1, r8
 6488 0088 3846     		mov	r0, r7
 6489 008a 05AB     		add	r3, sp, #20
 6490 008c FFF7FEFF 		bl	PemToDer
 6491 0090 98B1     		cbz	r0, .L1302
 6492              	.L1304:
 6493 0092 4FF0FF3B 		mov	fp, #-1
 6494              	.L1303:
 6495 0096 2846     		mov	r0, r5
 6496 0098 FFF7FEFF 		bl	wc_FreeDecodedCert
 6497 009c 2846     		mov	r0, r5
 6498 009e FFF7FEFF 		bl	wolfSSL_Free
 6499 00a2 059A     		ldr	r2, [sp, #20]
 6500 00a4 12B1     		cbz	r2, .L1299
 6501 00a6 05A8     		add	r0, sp, #20
 6502 00a8 FFF7FEFF 		bl	FreeDer
 6503              	.L1299:
 6504 00ac 2046     		mov	r0, r4
 6505 00ae FFF7FEFF 		bl	wolfSSL_CTX_free
 6506 00b2 5846     		mov	r0, fp
 6507 00b4 07B0     		add	sp, sp, #28
 6508              		@ sp needed
 6509 00b6 BDE8F08F 		pop	{r4, r5, r6, r7, r8, r9, r10, fp, pc}
 6510              	.L1302:
 6511 00ba 059B     		ldr	r3, [sp, #20]
 6512 00bc 1F68     		ldr	r7, [r3]
 6513 00be D3F80880 		ldr	r8, [r3, #8]
 6514              	.L1301:
 6515 00c2 4FF45972 		mov	r2, #868
 6516 00c6 0021     		movs	r1, #0
 6517 00c8 2846     		mov	r0, r5
 6518 00ca FFF7FEFF 		bl	memset
 6519 00ce 4246     		mov	r2, r8
 6520 00d0 3946     		mov	r1, r7
 6521 00d2 2846     		mov	r0, r5
 6522 00d4 F36A     		ldr	r3, [r6, #44]
 6523 00d6 FFF7FEFF 		bl	wc_InitDecodedCert
 6524 00da 0023     		movs	r3, #0
 6525 00dc 2846     		mov	r0, r5
 6526 00de 1A46     		mov	r2, r3
 6527 00e0 1946     		mov	r1, r3
 6528 00e2 FFF7FEFF 		bl	wc_ParseCert
 6529 00e6 0028     		cmp	r0, #0
 6530 00e8 D3D1     		bne	.L1304
 6531 00ea 3046     		mov	r0, r6
 6532 00ec 129A     		ldr	r2, [sp, #72]
 6533 00ee 05F53371 		add	r1, r5, #716
 6534 00f2 FFF7FEFF 		bl	SetCAType
 6535 00f6 8346     		mov	fp, r0
ARM GAS  /tmp/cc0JdWKx.s 			page 110


 6536 00f8 CDE7     		b	.L1303
 6538              		.section	.text.wolfSSL_CertManagerLoadCABuffer_ex,"ax",%progbits
 6539              		.align	1
 6540              		.global	wolfSSL_CertManagerLoadCABuffer_ex
 6541              		.syntax unified
 6542              		.thumb
 6543              		.thumb_func
 6544              		.fpu fpv4-sp-d16
 6546              	wolfSSL_CertManagerLoadCABuffer_ex:
 6547              		@ args = 8, pretend = 0, frame = 0
 6548              		@ frame_needed = 0, uses_anonymous_args = 0
 6549 0000 1FB5     		push	{r0, r1, r2, r3, r4, lr}
 6550 0002 0124     		movs	r4, #1
 6551 0004 0294     		str	r4, [sp, #8]
 6552 0006 079C     		ldr	r4, [sp, #28]
 6553 0008 0194     		str	r4, [sp, #4]
 6554 000a 069C     		ldr	r4, [sp, #24]
 6555 000c 0094     		str	r4, [sp]
 6556 000e FFF7FEFF 		bl	wolfSSL_CertManagerLoadCABufferType
 6557 0012 04B0     		add	sp, sp, #16
 6558              		@ sp needed
 6559 0014 10BD     		pop	{r4, pc}
 6561              		.section	.text.wolfSSL_CertManagerLoadCABuffer,"ax",%progbits
 6562              		.align	1
 6563              		.global	wolfSSL_CertManagerLoadCABuffer
 6564              		.syntax unified
 6565              		.thumb
 6566              		.thumb_func
 6567              		.fpu fpv4-sp-d16
 6569              	wolfSSL_CertManagerLoadCABuffer:
 6570              		@ args = 0, pretend = 0, frame = 0
 6571              		@ frame_needed = 0, uses_anonymous_args = 0
 6572 0000 13B5     		push	{r0, r1, r4, lr}
 6573 0002 0024     		movs	r4, #0
 6574 0004 CDE90044 		strd	r4, r4, [sp]
 6575 0008 FFF7FEFF 		bl	wolfSSL_CertManagerLoadCABuffer_ex
 6576 000c 02B0     		add	sp, sp, #8
 6577              		@ sp needed
 6578 000e 10BD     		pop	{r4, pc}
 6580              		.section	.text.wolfSSL_CTX_new,"ax",%progbits
 6581              		.align	1
 6582              		.global	wolfSSL_CTX_new
 6583              		.syntax unified
 6584              		.thumb
 6585              		.thumb_func
 6586              		.fpu fpv4-sp-d16
 6588              	wolfSSL_CTX_new:
 6589              		@ args = 0, pretend = 0, frame = 0
 6590              		@ frame_needed = 0, uses_anonymous_args = 0
 6591              		@ link register save eliminated.
 6592 0000 0021     		movs	r1, #0
 6593 0002 FFF7FEBF 		b	wolfSSL_CTX_new_ex
 6595              		.section	.text.wolfSSL_library_init,"ax",%progbits
 6596              		.align	1
 6597              		.global	wolfSSL_library_init
 6598              		.syntax unified
 6599              		.thumb
ARM GAS  /tmp/cc0JdWKx.s 			page 111


 6600              		.thumb_func
 6601              		.fpu fpv4-sp-d16
 6603              	wolfSSL_library_init:
 6604              		@ args = 0, pretend = 0, frame = 0
 6605              		@ frame_needed = 0, uses_anonymous_args = 0
 6606 0000 08B5     		push	{r3, lr}
 6607 0002 FFF7FEFF 		bl	wolfSSL_Init
 6608 0006 0128     		cmp	r0, #1
 6609 0008 18BF     		it	ne
 6610 000a 4FF0FF30 		movne	r0, #-1
 6611 000e 08BD     		pop	{r3, pc}
 6613              		.section	.text.wolfSSL_check_domain_name,"ax",%progbits
 6614              		.align	1
 6615              		.global	wolfSSL_check_domain_name
 6616              		.syntax unified
 6617              		.thumb
 6618              		.thumb_func
 6619              		.fpu fpv4-sp-d16
 6621              	wolfSSL_check_domain_name:
 6622              		@ args = 0, pretend = 0, frame = 0
 6623              		@ frame_needed = 0, uses_anonymous_args = 0
 6624 0000 70B5     		push	{r4, r5, r6, lr}
 6625 0002 0C46     		mov	r4, r1
 6626 0004 0546     		mov	r5, r0
 6627 0006 D8B1     		cbz	r0, .L1326
 6628 0008 01B3     		cbz	r1, .L1331
 6629 000a D0F80401 		ldr	r0, [r0, #260]
 6630 000e 08B1     		cbz	r0, .L1328
 6631 0010 FFF7FEFF 		bl	wolfSSL_Free
 6632              	.L1328:
 6633 0014 2046     		mov	r0, r4
 6634 0016 FFF7FEFF 		bl	strlen
 6635 001a C5F80801 		str	r0, [r5, #264]
 6636 001e 0130     		adds	r0, r0, #1
 6637 0020 FFF7FEFF 		bl	wolfSSL_Malloc
 6638 0024 0646     		mov	r6, r0
 6639 0026 C5F80401 		str	r0, [r5, #260]
 6640 002a 50B1     		cbz	r0, .L1329
 6641 002c D5F80821 		ldr	r2, [r5, #264]
 6642 0030 2146     		mov	r1, r4
 6643 0032 FFF7FEFF 		bl	memcpy
 6644 0036 0022     		movs	r2, #0
 6645 0038 0120     		movs	r0, #1
 6646 003a D5F80831 		ldr	r3, [r5, #264]
 6647 003e F254     		strb	r2, [r6, r3]
 6648              	.L1326:
 6649 0040 70BD     		pop	{r4, r5, r6, pc}
 6650              	.L1329:
 6651 0042 6FF49773 		mvn	r3, #302
 6652 0046 C5F87031 		str	r3, [r5, #368]
 6653 004a F9E7     		b	.L1326
 6654              	.L1331:
 6655 004c 0846     		mov	r0, r1
 6656 004e F7E7     		b	.L1326
 6658              		.section	.text.wolfSSL_set_compression,"ax",%progbits
 6659              		.align	1
 6660              		.global	wolfSSL_set_compression
ARM GAS  /tmp/cc0JdWKx.s 			page 112


 6661              		.syntax unified
 6662              		.thumb
 6663              		.thumb_func
 6664              		.fpu fpv4-sp-d16
 6666              	wolfSSL_set_compression:
 6667              		@ args = 0, pretend = 0, frame = 0
 6668              		@ frame_needed = 0, uses_anonymous_args = 0
 6669              		@ link register save eliminated.
 6670 0000 6FF0AD00 		mvn	r0, #173
 6671 0004 7047     		bx	lr
 6673              		.section	.text.wolfSSL_CTX_set_psk_client_callback,"ax",%progbits
 6674              		.align	1
 6675              		.global	wolfSSL_CTX_set_psk_client_callback
 6676              		.syntax unified
 6677              		.thumb
 6678              		.thumb_func
 6679              		.fpu fpv4-sp-d16
 6681              	wolfSSL_CTX_set_psk_client_callback:
 6682              		@ args = 0, pretend = 0, frame = 0
 6683              		@ frame_needed = 0, uses_anonymous_args = 0
 6684              		@ link register save eliminated.
 6685 0000 18B1     		cbz	r0, .L1336
 6686 0002 0123     		movs	r3, #1
 6687 0004 8166     		str	r1, [r0, #104]
 6688 0006 80F86430 		strb	r3, [r0, #100]
 6689              	.L1336:
 6690 000a 7047     		bx	lr
 6692              		.section	.text.wolfSSL_set_psk_client_callback,"ax",%progbits
 6693              		.align	1
 6694              		.global	wolfSSL_set_psk_client_callback
 6695              		.syntax unified
 6696              		.thumb
 6697              		.thumb_func
 6698              		.fpu fpv4-sp-d16
 6700              	wolfSSL_set_psk_client_callback:
 6701              		@ args = 0, pretend = 0, frame = 8
