ARM GAS  /tmp/cc36Vpy0.s 			page 1


   1              		.cpu cortex-m33
   2              		.eabi_attribute 27, 1
   3              		.eabi_attribute 28, 1
   4              		.eabi_attribute 20, 1
   5              		.eabi_attribute 21, 1
   6              		.eabi_attribute 23, 3
   7              		.eabi_attribute 24, 1
   8              		.eabi_attribute 25, 1
   9              		.eabi_attribute 26, 1
  10              		.eabi_attribute 30, 4
  11              		.eabi_attribute 34, 1
  12              		.eabi_attribute 18, 4
  13              		.file	"tls13.c"
  14              		.text
  15              		.section	.text.min,"ax",%progbits
  16              		.align	1
  17              		.arch armv8-m.main
  18              		.arch_extension dsp
  19              		.syntax unified
  20              		.thumb
  21              		.thumb_func
  22              		.fpu fpv4-sp-d16
  24              	min:
  25              		@ args = 0, pretend = 0, frame = 8
  26              		@ frame_needed = 0, uses_anonymous_args = 0
  27              		@ link register save eliminated.
  28 0000 8842     		cmp	r0, r1
  29 0002 4FF0FF33 		mov	r3, #-1
  30 0006 38BF     		it	cc
  31 0008 0023     		movcc	r3, #0
  32 000a 82B0     		sub	sp, sp, #8
  33 000c 0193     		str	r3, [sp, #4]
  34 000e 019A     		ldr	r2, [sp, #4]
  35 0010 019B     		ldr	r3, [sp, #4]
  36 0012 20EA0200 		bic	r0, r0, r2
  37 0016 1940     		ands	r1, r1, r3
  38 0018 0843     		orrs	r0, r0, r1
  39 001a 02B0     		add	sp, sp, #8
  40              		@ sp needed
  41 001c 7047     		bx	lr
  43              		.section	.text.ForceZero,"ax",%progbits
  44              		.align	1
  45              		.syntax unified
  46              		.thumb
  47              		.thumb_func
  48              		.fpu fpv4-sp-d16
  50              	ForceZero:
  51              		@ args = 0, pretend = 0, frame = 8
  52              		@ frame_needed = 0, uses_anonymous_args = 0
  53 0000 73B5     		push	{r0, r1, r4, r5, r6, lr}
  54 0002 0346     		mov	r3, r0
  55 0004 0C46     		mov	r4, r1
  56 0006 BFF35B8F 		dmb	ish
  57 000a 0022     		movs	r2, #0
  58              	.L3:
  59 000c 13F00301 		ands	r1, r3, #3
  60 0010 13D1     		bne	.L5
ARM GAS  /tmp/cc36Vpy0.s 			page 2


  61 0012 24F00305 		bic	r5, r4, #3
  62 0016 2A46     		mov	r2, r5
  63 0018 1846     		mov	r0, r3
  64 001a 0191     		str	r1, [sp, #4]
  65 001c FFF7FEFF 		bl	memset
  66 0020 6FF00302 		mvn	r2, #3
  67 0024 A608     		lsrs	r6, r4, #2
  68 0026 02FB0642 		mla	r2, r2, r6, r4
  69 002a 0199     		ldr	r1, [sp, #4]
  70 002c 2844     		add	r0, r0, r5
  71 002e FFF7FEFF 		bl	memset
  72 0032 BFF35B8F 		dmb	ish
  73              	.L2:
  74 0036 02B0     		add	sp, sp, #8
  75              		@ sp needed
  76 0038 70BD     		pop	{r4, r5, r6, pc}
  77              	.L5:
  78 003a 002C     		cmp	r4, #0
  79 003c FBD0     		beq	.L2
  80 003e 03F8012B 		strb	r2, [r3], #1
  81 0042 013C     		subs	r4, r4, #1
  82 0044 E2E7     		b	.L3
  84              		.section	.text.CreateECCEncodedSig,"ax",%progbits
  85              		.align	1
  86              		.syntax unified
  87              		.thumb
  88              		.thumb_func
  89              		.fpu fpv4-sp-d16
  91              	CreateECCEncodedSig:
  92              		@ args = 0, pretend = 0, frame = 320
  93              		@ frame_needed = 0, uses_anonymous_args = 0
  94 0000 70B5     		push	{r4, r5, r6, lr}
  95 0002 042A     		cmp	r2, #4
  96 0004 0546     		mov	r5, r0
  97 0006 0E46     		mov	r6, r1
  98 0008 D0B0     		sub	sp, sp, #320
  99 000a 19D1     		bne	.L13
 100 000c 01A8     		add	r0, sp, #4
 101 000e FFF7FEFF 		bl	wc_InitSha256
 102 0012 0446     		mov	r4, r0
 103 0014 88B9     		cbnz	r0, .L10
 104 0016 3246     		mov	r2, r6
 105 0018 2946     		mov	r1, r5
 106 001a 01A8     		add	r0, sp, #4
 107 001c FFF7FEFF 		bl	wc_Sha256Update
 108 0020 0446     		mov	r4, r0
 109 0022 20B9     		cbnz	r0, .L12
 110 0024 2946     		mov	r1, r5
 111 0026 01A8     		add	r0, sp, #4
 112 0028 FFF7FEFF 		bl	wc_Sha256Final
 113 002c 0446     		mov	r4, r0
 114              	.L12:
 115 002e 01A8     		add	r0, sp, #4
 116 0030 FFF7FEFF 		bl	wc_Sha256Free
 117 0034 002C     		cmp	r4, #0
 118 0036 08BF     		it	eq
 119 0038 2024     		moveq	r4, #32
ARM GAS  /tmp/cc36Vpy0.s 			page 3


 120              	.L10:
 121 003a 2046     		mov	r0, r4
 122 003c 50B0     		add	sp, sp, #320
 123              		@ sp needed
 124 003e 70BD     		pop	{r4, r5, r6, pc}
 125              	.L13:
 126 0040 6FF0AC04 		mvn	r4, #172
 127 0044 F9E7     		b	.L10
 129              		.section	.text.BuildTls13HandshakeHmac,"ax",%progbits
 130              		.align	1
 131              		.syntax unified
 132              		.thumb
 133              		.thumb_func
 134              		.fpu fpv4-sp-d16
 136              	BuildTls13HandshakeHmac:
 137              		@ args = 0, pretend = 0, frame = 0
 138              		@ frame_needed = 0, uses_anonymous_args = 0
 139 0000 2DE9F843 		push	{r3, r4, r5, r6, r7, r8, r9, lr}
 140 0004 8946     		mov	r9, r1
 141 0006 1746     		mov	r7, r2
 142 0008 1E46     		mov	r6, r3
 143 000a 8046     		mov	r8, r0
 144 000c C8B3     		cbz	r0, .L19
 145 000e 90F8AC31 		ldrb	r3, [r0, #428]	@ zero_extendqisi2
 146 0012 042B     		cmp	r3, #4
 147 0014 35D1     		bne	.L19
 148 0016 006F     		ldr	r0, [r0, #112]
 149 0018 1146     		mov	r1, r2
 150 001a 4030     		adds	r0, r0, #64
 151 001c FFF7FEFF 		bl	wc_Sha256GetHash
 152 0020 0446     		mov	r4, r0
 153 0022 58BB     		cbnz	r0, .L14
 154 0024 4FF44070 		mov	r0, #768
 155 0028 FFF7FEFF 		bl	wolfSSL_Malloc
 156 002c 0546     		mov	r5, r0
 157 002e 58B3     		cbz	r0, .L20
 158 0030 D8F8AC23 		ldr	r2, [r8, #940]
 159 0034 D8F88810 		ldr	r1, [r8, #136]
 160 0038 FFF7FEFF 		bl	wc_HmacInit
 161 003c 0446     		mov	r4, r0
 162 003e B8B9     		cbnz	r0, .L16
 163 0040 4A46     		mov	r2, r9
 164 0042 0621     		movs	r1, #6
 165 0044 2846     		mov	r0, r5
 166 0046 98F8AF31 		ldrb	r3, [r8, #431]	@ zero_extendqisi2
 167 004a FFF7FEFF 		bl	wc_HmacSetKey
 168 004e 0446     		mov	r4, r0
 169 0050 58B9     		cbnz	r0, .L17
 170 0052 2022     		movs	r2, #32
 171 0054 3946     		mov	r1, r7
 172 0056 2846     		mov	r0, r5
 173 0058 FFF7FEFF 		bl	wc_HmacUpdate
 174 005c 0446     		mov	r4, r0
 175 005e 20B9     		cbnz	r0, .L17
 176 0060 3946     		mov	r1, r7
 177 0062 2846     		mov	r0, r5
 178 0064 FFF7FEFF 		bl	wc_HmacFinal
ARM GAS  /tmp/cc36Vpy0.s 			page 4


 179 0068 0446     		mov	r4, r0
 180              	.L17:
 181 006a 2846     		mov	r0, r5
 182 006c FFF7FEFF 		bl	wc_HmacFree
 183              	.L16:
 184 0070 2846     		mov	r0, r5
 185 0072 FFF7FEFF 		bl	wolfSSL_Free
 186 0076 0EB1     		cbz	r6, .L14
 187 0078 2023     		movs	r3, #32
 188 007a 3360     		str	r3, [r6]
 189              	.L14:
 190 007c 2046     		mov	r0, r4
 191 007e BDE8F883 		pop	{r3, r4, r5, r6, r7, r8, r9, pc}
 192              	.L19:
 193 0082 6FF0AC04 		mvn	r4, #172
 194 0086 F9E7     		b	.L14
 195              	.L20:
 196 0088 6FF07C04 		mvn	r4, #124
 197 008c F6E7     		b	.L14
 199              		.section	.text.AddCertExt.constprop.0,"ax",%progbits
 200              		.align	1
 201              		.syntax unified
 202              		.thumb
 203              		.thumb_func
 204              		.fpu fpv4-sp-d16
 206              	AddCertExt.constprop.0:
 207              		@ args = 12, pretend = 0, frame = 8
 208              		@ frame_needed = 0, uses_anonymous_args = 0
 209 0000 2DE9F74F 		push	{r0, r1, r2, r4, r5, r6, r7, r8, r9, r10, fp, lr}
 210 0004 DDE90C54 		ldrd	r5, r4, [sp, #48]
 211 0008 561B     		subs	r6, r2, r5
 212 000a 1746     		mov	r7, r2
 213 000c 0190     		str	r0, [sp, #4]
 214 000e 8B46     		mov	fp, r1
 215 0010 3046     		mov	r0, r6
 216 0012 2146     		mov	r1, r4
 217 0014 9946     		mov	r9, r3
 218 0016 DDF83880 		ldr	r8, [sp, #56]
 219 001a FFF7FEFF 		bl	min
 220 001e AF42     		cmp	r7, r5
 221 0020 8246     		mov	r10, r0
 222 0022 0BD9     		bls	.L28
 223 0024 0246     		mov	r2, r0
 224 0026 0BEB0501 		add	r1, fp, r5
 225 002a 4046     		mov	r0, r8
 226 002c FFF7FEFF 		bl	memcpy
 227 0030 5445     		cmp	r4, r10
 228 0032 05D1     		bne	.L25
 229              	.L24:
 230 0034 5046     		mov	r0, r10
 231 0036 03B0     		add	sp, sp, #12
 232              		@ sp needed
 233 0038 BDE8F08F 		pop	{r4, r5, r6, r7, r8, r9, r10, fp, pc}
 234              	.L28:
 235 003c 4FF0000A 		mov	r10, #0
 236              	.L25:
 237 0040 09EB0602 		add	r2, r9, r6
ARM GAS  /tmp/cc36Vpy0.s 			page 5


 238 0044 B9F1020F 		cmp	r9, #2
 239 0048 A2EB0A02 		sub	r2, r2, r10
 240 004c 0BD1     		bne	.L27
 241 004e 9442     		cmp	r4, r2
 242 0050 F0D3     		bcc	.L24
 243 0052 0021     		movs	r1, #0
 244 0054 0AF10102 		add	r2, r10, #1
 245 0058 08F80A10 		strb	r1, [r8, r10]
 246 005c 08F80210 		strb	r1, [r8, r2]
 247 0060 0AF1020A 		add	r10, r10, #2
 248 0064 E6E7     		b	.L24
 249              	.L27:
 250 0066 A4EB0A04 		sub	r4, r4, r10
 251 006a 9442     		cmp	r4, r2
 252 006c 28BF     		it	cs
 253 006e 1446     		movcs	r4, r2
 254 0070 019B     		ldr	r3, [sp, #4]
 255 0072 ED1B     		subs	r5, r5, r7
 256 0074 D3F84C21 		ldr	r2, [r3, #332]
 257 0078 5544     		add	r5, r5, r10
 258 007a 1168     		ldr	r1, [r2]
 259 007c 08EB0A00 		add	r0, r8, r10
 260 0080 2246     		mov	r2, r4
 261 0082 2944     		add	r1, r1, r5
 262 0084 FFF7FEFF 		bl	memcpy
 263 0088 A244     		add	r10, r10, r4
 264 008a D3E7     		b	.L24
 266              		.section	.text.DeriveKeyMsg.constprop.0,"ax",%progbits
 267              		.align	1
 268              		.syntax unified
 269              		.thumb
 270              		.thumb_func
 271              		.fpu fpv4-sp-d16
 273              	DeriveKeyMsg.constprop.0:
 274              		@ args = 8, pretend = 0, frame = 384
 275              		@ frame_needed = 0, uses_anonymous_args = 0
 276 0000 2DE9F041 		push	{r4, r5, r6, r7, r8, lr}
 277 0004 EAB0     		sub	sp, sp, #424
 278 0006 9846     		mov	r8, r3
 279 0008 719B     		ldr	r3, [sp, #452]
 280 000a 0546     		mov	r5, r0
 281 000c 042B     		cmp	r3, #4
 282 000e 0E46     		mov	r6, r1
 283 0010 1746     		mov	r7, r2
 284 0012 38D1     		bne	.L32
 285 0014 D0F8AC23 		ldr	r2, [r0, #940]
 286 0018 D0F88810 		ldr	r1, [r0, #136]
 287 001c 1BA8     		add	r0, sp, #108
 288 001e FFF7FEFF 		bl	wc_InitSha256_ex
 289 0022 0446     		mov	r4, r0
 290 0024 58BB     		cbnz	r0, .L29
 291 0026 0246     		mov	r2, r0
 292 0028 0146     		mov	r1, r0
 293 002a 1BA8     		add	r0, sp, #108
 294 002c FFF7FEFF 		bl	wc_Sha256Update
 295 0030 0446     		mov	r4, r0
 296 0032 20B9     		cbnz	r0, .L31
ARM GAS  /tmp/cc36Vpy0.s 			page 6


 297 0034 0BA9     		add	r1, sp, #44
 298 0036 1BA8     		add	r0, sp, #108
 299 0038 FFF7FEFF 		bl	wc_Sha256Final
 300 003c 0446     		mov	r4, r0
 301              	.L31:
 302 003e 1BA8     		add	r0, sp, #108
 303 0040 FFF7FEFF 		bl	wc_Sha256Free
 304 0044 DCB9     		cbnz	r4, .L29
 305 0046 95F89F31 		ldrb	r3, [r5, #415]	@ zero_extendqisi2
 306 004a 042B     		cmp	r3, #4
 307 004c 1ED1     		bne	.L33
 308 004e D5F8AC33 		ldr	r3, [r5, #940]
 309 0052 0622     		movs	r2, #6
 310 0054 0893     		str	r3, [sp, #32]
 311 0056 D5F88830 		ldr	r3, [r5, #136]
 312 005a 0BA9     		add	r1, sp, #44
 313 005c 0793     		str	r3, [sp, #28]
 314 005e 2023     		movs	r3, #32
 315 0060 0491     		str	r1, [sp, #16]
 316 0062 CDE90532 		strd	r3, r2, [sp, #20]
 317 0066 7099     		ldr	r1, [sp, #448]
 318 0068 0192     		str	r2, [sp, #4]
 319 006a 094A     		ldr	r2, .L34
 320 006c CDE90281 		strd	r8, r1, [sp, #8]
 321 0070 0092     		str	r2, [sp]
 322 0072 1946     		mov	r1, r3
 323 0074 3A46     		mov	r2, r7
 324 0076 3046     		mov	r0, r6
 325 0078 FFF7FEFF 		bl	wc_Tls13_HKDF_Expand_Label_ex
 326 007c 0446     		mov	r4, r0
 327              	.L29:
 328 007e 2046     		mov	r0, r4
 329 0080 6AB0     		add	sp, sp, #424
 330              		@ sp needed
 331 0082 BDE8F081 		pop	{r4, r5, r6, r7, r8, pc}
 332              	.L32:
 333 0086 6FF0E704 		mvn	r4, #231
 334 008a F8E7     		b	.L29
 335              	.L33:
 336 008c 014C     		ldr	r4, .L34+4
 337 008e F6E7     		b	.L29
 338              	.L35:
 339              		.align	2
 340              	.L34:
 341 0090 00000000 		.word	.LANCHOR0
 342 0094 BAFEFFFF 		.word	-326
 344              		.section	.text.DeriveBinderKey,"ax",%progbits
 345              		.align	1
 346              		.syntax unified
 347              		.thumb
 348              		.thumb_func
 349              		.fpu fpv4-sp-d16
 351              	DeriveBinderKey:
 352              		@ args = 0, pretend = 0, frame = 0
 353              		@ frame_needed = 0, uses_anonymous_args = 0
 354 0000 07B5     		push	{r0, r1, r2, lr}
 355 0002 70B1     		cbz	r0, .L39
ARM GAS  /tmp/cc36Vpy0.s 			page 7


 356 0004 C268     		ldr	r2, [r0, #12]
 357 0006 62B1     		cbz	r2, .L39
 358 0008 90F8AC31 		ldrb	r3, [r0, #428]	@ zero_extendqisi2
 359 000c 02F6BB42 		addw	r2, r2, #3259
 360 0010 0193     		str	r3, [sp, #4]
 361 0012 0A23     		movs	r3, #10
 362 0014 0093     		str	r3, [sp]
 363 0016 044B     		ldr	r3, .L40
 364 0018 FFF7FEFF 		bl	DeriveKeyMsg.constprop.0
 365              	.L36:
 366 001c 03B0     		add	sp, sp, #12
 367              		@ sp needed
 368 001e 5DF804FB 		ldr	pc, [sp], #4
 369              	.L39:
 370 0022 6FF0AC00 		mvn	r0, #172
 371 0026 F9E7     		b	.L36
 372              	.L41:
 373              		.align	2
 374              	.L40:
 375 0028 00000000 		.word	.LANCHOR1
 377              		.section	.text.DoTls13CertificateRequest,"ax",%progbits
 378              		.align	1
 379              		.syntax unified
 380              		.thumb
 381              		.thumb_func
 382              		.fpu fpv4-sp-d16
 384              	DoTls13CertificateRequest:
 385              		@ args = 0, pretend = 0, frame = 344
 386              		@ frame_needed = 0, uses_anonymous_args = 0
 387 0000 2DE9F047 		push	{r4, r5, r6, r7, r8, r9, r10, lr}
 388 0004 1E46     		mov	r6, r3
 389 0006 D8B0     		sub	sp, sp, #352
 390 0008 0DF10808 		add	r8, sp, #8
 391 000c 0446     		mov	r4, r0
 392 000e 0F46     		mov	r7, r1
 393 0010 1546     		mov	r5, r2
 394 0012 D2F80090 		ldr	r9, [r2]
 395 0016 0021     		movs	r1, #0
 396 0018 4FF4AC72 		mov	r2, #344
 397 001c 4046     		mov	r0, r8
 398 001e FFF7FEFF 		bl	memset
 399 0022 26B9     		cbnz	r6, .L43
 400              	.L45:
 401 0024 2E4E     		ldr	r6, .L64
 402              	.L42:
 403 0026 3046     		mov	r0, r6
 404 0028 58B0     		add	sp, sp, #352
 405              		@ sp needed
 406 002a BDE8F087 		pop	{r4, r5, r6, r7, r8, r9, r10, pc}
 407              	.L43:
 408 002e 09F10100 		add	r0, r9, #1
 409 0032 2860     		str	r0, [r5]
 410 0034 17F80910 		ldrb	r1, [r7, r9]	@ zero_extendqisi2
 411 0038 4B1C     		adds	r3, r1, #1
 412 003a B342     		cmp	r3, r6
 413 003c F2D8     		bhi	.L45
 414 003e 94F80633 		ldrb	r3, [r4, #774]	@ zero_extendqisi2
ARM GAS  /tmp/cc36Vpy0.s 			page 8


 415 0042 082B     		cmp	r3, #8
 416 0044 01D8     		bhi	.L46
 417 0046 0029     		cmp	r1, #0
 418 0048 ECD1     		bne	.L45
 419              	.L46:
 420 004a 0844     		add	r0, r0, r1
 421 004c C9F10203 		rsb	r3, r9, #2
 422 0050 0344     		add	r3, r3, r0
 423 0052 B342     		cmp	r3, r6
 424 0054 2860     		str	r0, [r5]
 425 0056 E5D8     		bhi	.L45
 426 0058 3B5A     		ldrh	r3, [r7, r0]	@ unaligned
 427 005a 0230     		adds	r0, r0, #2
 428 005c 5BBA     		rev16	r3, r3
 429 005e A0EB0909 		sub	r9, r0, r9
 430 0062 1FFA83FA 		uxth	r10, r3
 431 0066 19FA83F3 		uxtah	r3, r9, r3
 432 006a B342     		cmp	r3, r6
 433 006c 2860     		str	r0, [r5]
 434 006e D9D8     		bhi	.L45
 435 0070 BAF1000F 		cmp	r10, #0
 436 0074 02D1     		bne	.L47
 437              	.L49:
 438 0076 6FF4D476 		mvn	r6, #424
 439 007a D4E7     		b	.L42
 440              	.L47:
 441 007c 3918     		adds	r1, r7, r0
 442 007e 0D23     		movs	r3, #13
 443 0080 5246     		mov	r2, r10
 444 0082 2046     		mov	r0, r4
 445 0084 CDF80080 		str	r8, [sp]
 446 0088 FFF7FEFF 		bl	TLSX_Parse
 447 008c 0646     		mov	r6, r0
 448 008e 0028     		cmp	r0, #0
 449 0090 C9D1     		bne	.L42
 450 0092 2B68     		ldr	r3, [r5]
 451 0094 5344     		add	r3, r3, r10
 452 0096 2B60     		str	r3, [r5]
 453 0098 D4F83031 		ldr	r3, [r4, #304]
 454 009c E3B1     		cbz	r3, .L48
 455 009e 1B68     		ldr	r3, [r3]
 456 00a0 D3B1     		cbz	r3, .L48
 457 00a2 D4F83431 		ldr	r3, [r4, #308]
 458 00a6 BBB1     		cbz	r3, .L48
 459 00a8 1B68     		ldr	r3, [r3]
 460 00aa ABB1     		cbz	r3, .L48
 461 00ac 0346     		mov	r3, r0
 462 00ae B8F80220 		ldrh	r2, [r8, #2]
 463 00b2 2046     		mov	r0, r4
 464 00b4 4EA9     		add	r1, sp, #312
 465 00b6 FFF7FEFF 		bl	PickHashSigAlgo
 466 00ba 0028     		cmp	r0, #0
 467 00bc DBD1     		bne	.L49
 468 00be 0122     		movs	r2, #1
 469 00c0 94F8EC32 		ldrb	r3, [r4, #748]	@ zero_extendqisi2
 470              	.L63:
 471 00c4 62F34203 		bfi	r3, r2, #1, #2
ARM GAS  /tmp/cc36Vpy0.s 			page 9


 472 00c8 84F8EC32 		strb	r3, [r4, #748]
 473 00cc D4F8C822 		ldr	r2, [r4, #712]
 474 00d0 2B68     		ldr	r3, [r5]
 475 00d2 1344     		add	r3, r3, r2
 476 00d4 2B60     		str	r3, [r5]
 477 00d6 A6E7     		b	.L42
 478              	.L48:
 479 00d8 0222     		movs	r2, #2
 480 00da 94F8EC32 		ldrb	r3, [r4, #748]	@ zero_extendqisi2
 481 00de F1E7     		b	.L63
 482              	.L65:
 483              		.align	2
 484              	.L64:
 485 00e0 B8FEFFFF 		.word	-328
 487              		.section	.text.AddTls13Headers.isra.0,"ax",%progbits
 488              		.align	1
 489              		.syntax unified
 490              		.thumb
 491              		.thumb_func
 492              		.fpu fpv4-sp-d16
 494              	AddTls13Headers.isra.0:
 495              		@ args = 0, pretend = 0, frame = 0
 496              		@ frame_needed = 0, uses_anonymous_args = 0
 497 0000 4370     		strb	r3, [r0, #1]
 498 0002 0323     		movs	r3, #3
 499 0004 30B5     		push	{r4, r5, lr}
 500 0006 1625     		movs	r5, #22
 501 0008 0C1D     		adds	r4, r1, #4
 502 000a 8370     		strb	r3, [r0, #2]
 503 000c C4F30723 		ubfx	r3, r4, #8, #8
 504 0010 C370     		strb	r3, [r0, #3]
 505 0012 0B0C     		lsrs	r3, r1, #16
 506 0014 8371     		strb	r3, [r0, #6]
 507 0016 0B0A     		lsrs	r3, r1, #8
 508 0018 0570     		strb	r5, [r0]
 509 001a 0471     		strb	r4, [r0, #4]
 510 001c 4271     		strb	r2, [r0, #5]
 511 001e C371     		strb	r3, [r0, #7]
 512 0020 0172     		strb	r1, [r0, #8]
 513 0022 30BD     		pop	{r4, r5, pc}
 515              		.section	.text.BuildTls13Nonce,"ax",%progbits
 516              		.align	1
 517              		.syntax unified
 518              		.thumb
 519              		.thumb_func
 520              		.fpu fpv4-sp-d16
 522              	BuildTls13Nonce:
 523              		@ args = 0, pretend = 0, frame = 0
 524              		@ frame_needed = 0, uses_anonymous_args = 0
 525 0000 F0B5     		push	{r4, r5, r6, r7, lr}
 526 0002 90F8EE52 		ldrb	r5, [r0, #750]	@ zero_extendqisi2
 527 0006 0C1D     		adds	r4, r1, #4
 528 0008 6F07     		lsls	r7, r5, #29
 529 000a 29D4     		bmi	.L84
 530 000c 012B     		cmp	r3, #1
 531 000e 1DD1     		bne	.L69
 532 0010 D0E9AD53 		ldrd	r5, r3, [r0, #692]
ARM GAS  /tmp/cc36Vpy0.s 			page 10


 533 0014 5E1C     		adds	r6, r3, #1
 534 0016 C0F8B862 		str	r6, [r0, #696]
 535 001a 04D3     		bcc	.L68
 536 001c 6B1C     		adds	r3, r5, #1
 537 001e C0F8B432 		str	r3, [r0, #692]
 538              	.L95:
 539 0022 4FF0FF33 		mov	r3, #-1
 540              	.L68:
 541 0026 18BA     		rev	r0, r3
 542 0028 1346     		mov	r3, r2
 543 002a 2DBA     		rev	r5, r5
 544 002c 4D60     		str	r5, [r1, #4]
 545 002e 8860     		str	r0, [r1, #8]
 546 0030 53F8046B 		ldr	r6, [r3], #4	@ unaligned
 547 0034 0E60     		str	r6, [r1]	@ unaligned
 548 0036 44EA0306 		orr	r6, r4, r3
 549 003a B607     		lsls	r6, r6, #30
 550 003c 13D1     		bne	.L74
 551 003e 5368     		ldr	r3, [r2, #4]
 552 0040 5D40     		eors	r5, r5, r3
 553 0042 4D60     		str	r5, [r1, #4]
 554 0044 9368     		ldr	r3, [r2, #8]
 555 0046 4340     		eors	r3, r3, r0
 556 0048 8B60     		str	r3, [r1, #8]
 557              	.L67:
 558 004a F0BD     		pop	{r4, r5, r6, r7, pc}
 559              	.L69:
 560 004c D0E9AF53 		ldrd	r5, r3, [r0, #700]
 561 0050 5E1C     		adds	r6, r3, #1
 562 0052 C0F8C062 		str	r6, [r0, #704]
 563 0056 E6D3     		bcc	.L68
 564 0058 6B1C     		adds	r3, r5, #1
 565 005a C0F8BC32 		str	r3, [r0, #700]
 566 005e E0E7     		b	.L95
 567              	.L84:
 568 0060 0023     		movs	r3, #0
 569 0062 1D46     		mov	r5, r3
 570 0064 DFE7     		b	.L68
 571              	.L74:
 572 0066 84EA0302 		eor	r2, r4, r3
 573 006a 12F0030F 		tst	r2, #3
 574 006e 4FF00802 		mov	r2, #8
 575 0072 12D0     		beq	.L75
 576              	.L76:
 577 0074 1A44     		add	r2, r2, r3
 578              	.L81:
 579 0076 9342     		cmp	r3, r2
 580 0078 E7D0     		beq	.L67
 581 007a 13F8011B 		ldrb	r1, [r3], #1	@ zero_extendqisi2
 582 007e 14F8010B 		ldrb	r0, [r4], #1	@ zero_extendqisi2
 583 0082 4140     		eors	r1, r1, r0
 584 0084 04F8011C 		strb	r1, [r4, #-1]
 585 0088 F5E7     		b	.L81
 586              	.L78:
 587 008a 13F8011B 		ldrb	r1, [r3], #1	@ zero_extendqisi2
 588 008e 14F8010B 		ldrb	r0, [r4], #1	@ zero_extendqisi2
 589 0092 013A     		subs	r2, r2, #1
ARM GAS  /tmp/cc36Vpy0.s 			page 11


 590 0094 4140     		eors	r1, r1, r0
 591 0096 04F8011C 		strb	r1, [r4, #-1]
 592              	.L75:
 593 009a A107     		lsls	r1, r4, #30
 594 009c 01D0     		beq	.L77
 595 009e 002A     		cmp	r2, #0
 596 00a0 F3D1     		bne	.L78
 597              	.L77:
 598 00a2 1946     		mov	r1, r3
 599 00a4 2546     		mov	r5, r4
 600 00a6 22F00300 		bic	r0, r2, #3
 601 00aa 1844     		add	r0, r0, r3
 602              	.L79:
 603 00ac 8842     		cmp	r0, r1
 604 00ae 0DD8     		bhi	.L80
 605 00b0 C3F10301 		rsb	r1, r3, #3
 606 00b4 0144     		add	r1, r1, r0
 607 00b6 DD1E     		subs	r5, r3, #3
 608 00b8 21F00301 		bic	r1, r1, #3
 609 00bc 8542     		cmp	r5, r0
 610 00be 88BF     		it	hi
 611 00c0 0021     		movhi	r1, #0
 612 00c2 02F00302 		and	r2, r2, #3
 613 00c6 0C44     		add	r4, r4, r1
 614 00c8 0B44     		add	r3, r3, r1
 615 00ca D3E7     		b	.L76
 616              	.L80:
 617 00cc 55F8046B 		ldr	r6, [r5], #4
 618 00d0 51F8047B 		ldr	r7, [r1], #4
 619 00d4 7E40     		eors	r6, r6, r7
 620 00d6 45F8046C 		str	r6, [r5, #-4]
 621 00da E7E7     		b	.L79
 623              		.section	.text.Tls13DeriveKey,"ax",%progbits
 624              		.align	1
 625              		.global	Tls13DeriveKey
 626              		.syntax unified
 627              		.thumb
 628              		.thumb_func
 629              		.fpu fpv4-sp-d16
 631              	Tls13DeriveKey:
 632              		@ args = 20, pretend = 0, frame = 64
 633              		@ frame_needed = 0, uses_anonymous_args = 0
 634 0000 2DE9F043 		push	{r4, r5, r6, r7, r8, r9, lr}
 635 0004 9BB0     		sub	sp, sp, #108
 636 0006 9846     		mov	r8, r3
 637 0008 DDE92435 		ldrd	r3, r5, [sp, #144]
 638 000c 042B     		cmp	r3, #4
 639 000e 0646     		mov	r6, r0
 640 0010 0F46     		mov	r7, r1
 641 0012 1446     		mov	r4, r2
 642 0014 26D1     		bne	.L103
 643 0016 0DF12809 		add	r9, sp, #40
 644 001a 35B3     		cbz	r5, .L98
 645 001c 006F     		ldr	r0, [r0, #112]
 646 001e 4946     		mov	r1, r9
 647 0020 4030     		adds	r0, r0, #64
 648 0022 FFF7FEFF 		bl	wc_Sha256GetHash
ARM GAS  /tmp/cc36Vpy0.s 			page 12


 649 0026 50B3     		cbz	r0, .L106
 650              	.L96:
 651 0028 1BB0     		add	sp, sp, #108
 652              		@ sp needed
 653 002a BDE8F083 		pop	{r4, r5, r6, r7, r8, r9, pc}
 654              	.L105:
 655 002e 2024     		movs	r4, #32
 656 0030 2546     		mov	r5, r4
 657              	.L102:
 658 0032 D6F8AC33 		ldr	r3, [r6, #940]
 659 0036 239A     		ldr	r2, [sp, #140]
 660 0038 0893     		str	r3, [sp, #32]
 661 003a D6F88830 		ldr	r3, [r6, #136]
 662 003e 0392     		str	r2, [sp, #12]
 663 0040 0793     		str	r3, [sp, #28]
 664 0042 0623     		movs	r3, #6
 665 0044 229A     		ldr	r2, [sp, #136]
 666 0046 CDE90553 		strd	r5, r3, [sp, #20]
 667 004a CDE90132 		strd	r3, r2, [sp, #4]
 668 004e 0E4B     		ldr	r3, .L107
 669 0050 4246     		mov	r2, r8
 670 0052 0093     		str	r3, [sp]
 671 0054 2146     		mov	r1, r4
 672 0056 2023     		movs	r3, #32
 673 0058 3846     		mov	r0, r7
 674 005a CDF81090 		str	r9, [sp, #16]
 675 005e FFF7FEFF 		bl	wc_Tls13_HKDF_Expand_Label_ex
 676 0062 E1E7     		b	.L96
 677              	.L103:
 678 0064 6FF0E700 		mvn	r0, #231
 679 0068 DEE7     		b	.L96
 680              	.L98:
 681 006a 621C     		adds	r2, r4, #1
 682 006c 2946     		mov	r1, r5
 683 006e 4FF04002 		mov	r2, #64
 684 0072 4846     		mov	r0, r9
 685 0074 08BF     		it	eq
 686 0076 2024     		moveq	r4, #32
 687 0078 FFF7FEFF 		bl	memset
 688 007c D9E7     		b	.L102
 689              	.L106:
 690 007e 631C     		adds	r3, r4, #1
 691 0080 D5D0     		beq	.L105
 692 0082 2025     		movs	r5, #32
 693 0084 D5E7     		b	.L102
 694              	.L108:
 695 0086 00BF     		.align	2
 696              	.L107:
 697 0088 00000000 		.word	.LANCHOR0
 699              		.section	.text.DeriveFinishedSecret,"ax",%progbits
 700              		.align	1
 701              		.syntax unified
 702              		.thumb
 703              		.thumb_func
 704              		.fpu fpv4-sp-d16
 706              	DeriveFinishedSecret:
 707              		@ args = 0, pretend = 0, frame = 0
ARM GAS  /tmp/cc36Vpy0.s 			page 13


 708              		@ frame_needed = 0, uses_anonymous_args = 0
 709 0000 10B5     		push	{r4, lr}
 710 0002 86B0     		sub	sp, sp, #24
 711 0004 0493     		str	r3, [sp, #16]
 712 0006 0023     		movs	r3, #0
 713 0008 0393     		str	r3, [sp, #12]
 714 000a 90F8AC31 		ldrb	r3, [r0, #428]	@ zero_extendqisi2
 715 000e 0C46     		mov	r4, r1
 716 0010 0293     		str	r3, [sp, #8]
 717 0012 0823     		movs	r3, #8
 718 0014 0193     		str	r3, [sp, #4]
 719 0016 054B     		ldr	r3, .L110
 720 0018 1146     		mov	r1, r2
 721 001a 0093     		str	r3, [sp]
 722 001c 4FF0FF32 		mov	r2, #-1
 723 0020 2346     		mov	r3, r4
 724 0022 FFF7FEFF 		bl	Tls13DeriveKey
 725 0026 06B0     		add	sp, sp, #24
 726              		@ sp needed
 727 0028 10BD     		pop	{r4, pc}
 728              	.L111:
 729 002a 00BF     		.align	2
 730              	.L110:
 731 002c 00000000 		.word	.LANCHOR2
 733              		.section	.text.DeriveResumptionSecret,"ax",%progbits
 734              		.align	1
 735              		.global	DeriveResumptionSecret
 736              		.syntax unified
 737              		.thumb
 738              		.thumb_func
 739              		.fpu fpv4-sp-d16
 741              	DeriveResumptionSecret:
 742              		@ args = 0, pretend = 0, frame = 0
 743              		@ frame_needed = 0, uses_anonymous_args = 0
 744 0000 7FB5     		push	{r0, r1, r2, r3, r4, r5, r6, lr}
 745 0002 D0B1     		cbz	r0, .L116
 746 0004 C368     		ldr	r3, [r0, #12]
 747 0006 A3B1     		cbz	r3, .L114
 748 0008 03F6EB43 		addw	r3, r3, #3307
 749              	.L115:
 750 000c 0122     		movs	r2, #1
 751 000e 4FF0000C 		mov	ip, #0
 752 0012 CDE9032C 		strd	r2, ip, [sp, #12]
 753 0016 90F8AC21 		ldrb	r2, [r0, #428]	@ zero_extendqisi2
 754 001a 0292     		str	r2, [sp, #8]
 755 001c 0A22     		movs	r2, #10
 756 001e 0192     		str	r2, [sp, #4]
 757 0020 074A     		ldr	r2, .L117
 758 0022 0092     		str	r2, [sp]
 759 0024 4FF0FF32 		mov	r2, #-1
 760 0028 FFF7FEFF 		bl	Tls13DeriveKey
 761              	.L112:
 762 002c 07B0     		add	sp, sp, #28
 763              		@ sp needed
 764 002e 5DF804FB 		ldr	pc, [sp], #4
 765              	.L114:
 766 0032 D0F85031 		ldr	r3, [r0, #336]
ARM GAS  /tmp/cc36Vpy0.s 			page 14


 767 0036 5D33     		adds	r3, r3, #93
 768 0038 E8E7     		b	.L115
 769              	.L116:
 770 003a 6FF0AC00 		mvn	r0, #172
 771 003e F5E7     		b	.L112
 772              	.L118:
 773              		.align	2
 774              	.L117:
 775 0040 00000000 		.word	.LANCHOR3
 777              		.section	.text.DeriveEarlySecret,"ax",%progbits
 778              		.align	1
 779              		.global	DeriveEarlySecret
 780              		.syntax unified
 781              		.thumb
 782              		.thumb_func
 783              		.fpu fpv4-sp-d16
 785              	DeriveEarlySecret:
 786              		@ args = 0, pretend = 0, frame = 0
 787              		@ frame_needed = 0, uses_anonymous_args = 0
 788 0000 30B5     		push	{r4, r5, lr}
 789 0002 0246     		mov	r2, r0
 790 0004 85B0     		sub	sp, sp, #20
 791 0006 E0B1     		cbz	r0, .L123
 792 0008 C168     		ldr	r1, [r0, #12]
 793 000a D1B1     		cbz	r1, .L123
 794 000c 92F8AC41 		ldrb	r4, [r2, #428]	@ zero_extendqisi2
 795 0010 01F6BB40 		addw	r0, r1, #3259
 796 0014 01F61A43 		addw	r3, r1, #3098
 797 0018 4969     		ldr	r1, [r1, #20]
 798 001a 042C     		cmp	r4, #4
 799 001c 0CBF     		ite	eq
 800 001e 0624     		moveq	r4, #6
 801 0020 0024     		movne	r4, #0
 802 0022 0029     		cmp	r1, #0
 803 0024 10DB     		blt	.L125
 804 0026 D2F8AC53 		ldr	r5, [r2, #940]
 805 002a 0395     		str	r5, [sp, #12]
 806 002c D2F88820 		ldr	r2, [r2, #136]
 807 0030 0091     		str	r1, [sp]
 808 0032 CDE90142 		strd	r4, r2, [sp, #4]
 809 0036 0022     		movs	r2, #0
 810 0038 1146     		mov	r1, r2
 811 003a FFF7FEFF 		bl	wc_Tls13_HKDF_Extract_ex
 812              	.L119:
 813 003e 05B0     		add	sp, sp, #20
 814              		@ sp needed
 815 0040 30BD     		pop	{r4, r5, pc}
 816              	.L123:
 817 0042 6FF0AC00 		mvn	r0, #172
 818 0046 FAE7     		b	.L119
 819              	.L125:
 820 0048 6FF4A670 		mvn	r0, #332
 821 004c F7E7     		b	.L119
 823              		.section	.text.SetupPskKey,"ax",%progbits
 824              		.align	1
 825              		.syntax unified
 826              		.thumb
ARM GAS  /tmp/cc36Vpy0.s 			page 15


 827              		.thumb_func
 828              		.fpu fpv4-sp-d16
 830              	SetupPskKey:
 831              		@ args = 0, pretend = 0, frame = 16
 832              		@ frame_needed = 0, uses_anonymous_args = 0
 833 0000 2DE9F04F 		push	{r4, r5, r6, r7, r8, r9, r10, fp, lr}
 834 0004 0446     		mov	r4, r0
 835 0006 1646     		mov	r6, r2
 836 0008 0D46     		mov	r5, r1
 837 000a 89B0     		sub	sp, sp, #36
 838 000c 0029     		cmp	r1, #0
 839 000e 00F0D680 		beq	.L146
 840 0012 FFF7FEFF 		bl	HaveUniqueSessionObj
 841 0016 0028     		cmp	r0, #0
 842 0018 00F0D480 		beq	.L147
 843 001c 95F85510 		ldrb	r1, [r5, #85]	@ zero_extendqisi2
 844 0020 11F00101 		ands	r1, r1, #1
 845 0024 40F0BA80 		bne	.L128
 846 0028 E068     		ldr	r0, [r4, #12]
 847 002a 40F20162 		movw	r2, #1537
 848 002e 1830     		adds	r0, r0, #24
 849 0030 0691     		str	r1, [sp, #24]
 850 0032 94F8F992 		ldrb	r9, [r4, #761]	@ zero_extendqisi2
 851 0036 94F8FA82 		ldrb	r8, [r4, #762]	@ zero_extendqisi2
 852 003a FFF7FEFF 		bl	memset
 853 003e E068     		ldr	r0, [r4, #12]
 854 0040 2A88     		ldrh	r2, [r5]
 855 0042 6968     		ldr	r1, [r5, #4]
 856 0044 1830     		adds	r0, r0, #24
 857 0046 FFF7FEFF 		bl	memcpy
 858 004a D4F8D872 		ldr	r7, [r4, #728]
 859 004e D4F80CA0 		ldr	r10, [r4, #12]
 860 0052 002F     		cmp	r7, #0
 861 0054 63D0     		beq	.L129
 862 0056 697B     		ldrb	r1, [r5, #13]	@ zero_extendqisi2
 863 0058 287B     		ldrb	r0, [r5, #12]	@ zero_extendqisi2
 864 005a FFF7FEFF 		bl	GetCipherNameInternal
 865 005e 4023     		movs	r3, #64
 866 0060 0193     		str	r3, [sp, #4]
 867 0062 0AF61A43 		addw	r3, r10, #3098
 868 0066 0290     		str	r0, [sp, #8]
 869 0068 0093     		str	r3, [sp]
 870 006a 2046     		mov	r0, r4
 871 006c 4FF4C063 		mov	r3, #1536
 872 0070 0AF11802 		add	r2, r10, #24
 873 0074 0AF21961 		addw	r1, r10, #1561
 874 0078 D4F80CB0 		ldr	fp, [r4, #12]
 875 007c B847     		blx	r7
 876 007e CBF81400 		str	r0, [fp, #20]
 877 0082 36B1     		cbz	r6, .L130
 878 0084 2B7B     		ldrb	r3, [r5, #12]	@ zero_extendqisi2
 879 0086 84F8F932 		strb	r3, [r4, #761]
 880 008a 6B7B     		ldrb	r3, [r5, #13]	@ zero_extendqisi2
 881              	.L170:
 882 008c 84F8FA32 		strb	r3, [r4, #762]
 883 0090 03E0     		b	.L131
 884              	.L130:
ARM GAS  /tmp/cc36Vpy0.s 			page 16


 885 0092 85F80C90 		strb	r9, [r5, #12]
 886 0096 85F80D80 		strb	r8, [r5, #13]
 887              	.L131:
 888 009a E368     		ldr	r3, [r4, #12]
 889 009c 5B69     		ldr	r3, [r3, #20]
 890 009e 002B     		cmp	r3, #0
 891 00a0 61D0     		beq	.L144
 892 00a2 402B     		cmp	r3, #64
 893 00a4 03D9     		bls	.L136
 894 00a6 6FF49272 		mvn	r2, #292
 895 00aa 9342     		cmp	r3, r2
 896 00ac 5BD1     		bne	.L144
 897              	.L136:
 898 00ae 2046     		mov	r0, r4
 899 00b0 FFF7FEFF 		bl	SetCipherSpecs
 900 00b4 0028     		cmp	r0, #0
 901 00b6 58D1     		bne	.L126
 902 00b8 002E     		cmp	r6, #0
 903 00ba 71D1     		bne	.L138
 904 00bc 2B7B     		ldrb	r3, [r5, #12]	@ zero_extendqisi2
 905 00be 4B45     		cmp	r3, r9
 906 00c0 51D1     		bne	.L144
 907 00c2 6B7B     		ldrb	r3, [r5, #13]	@ zero_extendqisi2
 908 00c4 4345     		cmp	r3, r8
 909 00c6 4ED1     		bne	.L144
 910 00c8 94F8F232 		ldrb	r3, [r4, #754]	@ zero_extendqisi2
 911 00cc 43F00403 		orr	r3, r3, #4
 912 00d0 84F8F232 		strb	r3, [r4, #754]
 913              	.L169:
 914 00d4 2D21     		movs	r1, #45
 915 00d6 D4F8B003 		ldr	r0, [r4, #944]
 916 00da FFF7FEFF 		bl	TLSX_Find
 917 00de 0028     		cmp	r0, #0
 918 00e0 41D0     		beq	.L144
 919 00e2 8568     		ldr	r5, [r0, #8]
 920 00e4 3321     		movs	r1, #51
 921 00e6 D4F8B003 		ldr	r0, [r4, #944]
 922 00ea FFF7FEFF 		bl	TLSX_Find
 923 00ee 00B1     		cbz	r0, .L140
 924 00f0 4068     		ldr	r0, [r0, #4]
 925              	.L140:
 926 00f2 AE07     		lsls	r6, r5, #30
 927 00f4 94F8F032 		ldrb	r3, [r4, #752]	@ zero_extendqisi2
 928 00f8 59D5     		bpl	.L141
 929 00fa 1D07     		lsls	r5, r3, #28
 930 00fc 57D4     		bmi	.L141
 931 00fe 0028     		cmp	r0, #0
 932 0100 55D0     		beq	.L141
 933 0102 C28C     		ldrh	r2, [r0, #38]
 934 0104 002A     		cmp	r2, #0
 935 0106 52D0     		beq	.L141
 936 0108 838C     		ldrh	r3, [r0, #36]
 937 010a 13B1     		cbz	r3, .L143
 938 010c 0288     		ldrh	r2, [r0]
 939 010e 9A42     		cmp	r2, r3
 940 0110 29D1     		bne	.L144
 941              	.L143:
ARM GAS  /tmp/cc36Vpy0.s 			page 17


 942 0112 2046     		mov	r0, r4
 943 0114 09B0     		add	sp, sp, #36
 944              		@ sp needed
 945 0116 BDE8F04F 		pop	{r4, r5, r6, r7, r8, r9, r10, fp, lr}
 946 011a FFF7FEBF 		b	DeriveEarlySecret
 947              	.L129:
 948 011e D4F8DCB2 		ldr	fp, [r4, #732]
 949 0122 4020     		movs	r0, #64
 950 0124 0AF21961 		addw	r1, r10, #1561
 951 0128 0AF11802 		add	r2, r10, #24
 952 012c 0AF61A43 		addw	r3, r10, #3098
 953 0130 BBF1000F 		cmp	fp, #0
 954 0134 23D0     		beq	.L132
 955 0136 0DF1180C 		add	ip, sp, #24
 956 013a CDE9010C 		strd	r0, ip, [sp, #4]
 957 013e 0093     		str	r3, [sp]
 958 0140 2046     		mov	r0, r4
 959 0142 4FF4C063 		mov	r3, #1536
 960 0146 0797     		str	r7, [sp, #28]
 961 0148 D847     		blx	fp
 962 014a 07AB     		add	r3, sp, #28
 963 014c CAF81400 		str	r0, [r10, #20]
 964 0150 0DF11702 		add	r2, sp, #23
 965 0154 CDE90073 		strd	r7, r3, [sp]
 966 0158 0698     		ldr	r0, [sp, #24]
 967 015a 3B46     		mov	r3, r7
 968 015c 0DF11601 		add	r1, sp, #22
 969 0160 FFF7FEFF 		bl	GetCipherSuiteFromName
 970 0164 20B1     		cbz	r0, .L133
 971              	.L144:
 972 0166 6FF4A670 		mvn	r0, #332
 973              	.L126:
 974 016a 09B0     		add	sp, sp, #36
 975              		@ sp needed
 976 016c BDE8F08F 		pop	{r4, r5, r6, r7, r8, r9, r10, fp, pc}
 977              	.L133:
 978 0170 9DF81630 		ldrb	r3, [sp, #22]	@ zero_extendqisi2
 979 0174 84F8F932 		strb	r3, [r4, #761]
 980 0178 9DF81730 		ldrb	r3, [sp, #23]	@ zero_extendqisi2
 981 017c 86E7     		b	.L170
 982              	.L132:
 983 017e CDE90030 		strd	r3, r0, [sp]
 984 0182 D4F8D072 		ldr	r7, [r4, #720]
 985 0186 4FF4C063 		mov	r3, #1536
 986 018a 2046     		mov	r0, r4
 987 018c B847     		blx	r7
 988 018e 1323     		movs	r3, #19
 989 0190 CAF81400 		str	r0, [r10, #20]
 990 0194 84F8F932 		strb	r3, [r4, #761]
 991 0198 0123     		movs	r3, #1
 992 019a 77E7     		b	.L170
 993              	.L128:
 994 019c 002E     		cmp	r6, #0
 995 019e 99D0     		beq	.L169
 996              	.L138:
 997 01a0 94F8F032 		ldrb	r3, [r4, #752]	@ zero_extendqisi2
 998 01a4 1B07     		lsls	r3, r3, #28
ARM GAS  /tmp/cc36Vpy0.s 			page 18


 999 01a6 B4D5     		bpl	.L143
 1000 01a8 0022     		movs	r2, #0
 1001 01aa E368     		ldr	r3, [r4, #12]
 1002 01ac 05E0     		b	.L171
 1003              	.L141:
 1004 01ae 13F01002 		ands	r2, r3, #16
 1005 01b2 D8D1     		bne	.L144
 1006 01b4 1907     		lsls	r1, r3, #28
 1007 01b6 ACD5     		bpl	.L143
 1008 01b8 E368     		ldr	r3, [r4, #12]
 1009              	.L171:
 1010 01ba 9A60     		str	r2, [r3, #8]
 1011 01bc A9E7     		b	.L143
 1012              	.L146:
 1013 01be 6FF0AC00 		mvn	r0, #172
 1014 01c2 D2E7     		b	.L126
 1015              	.L147:
 1016 01c4 6FF49770 		mvn	r0, #302
 1017 01c8 CFE7     		b	.L126
 1019              		.section	.text.DeriveHandshakeSecret,"ax",%progbits
 1020              		.align	1
 1021              		.global	DeriveHandshakeSecret
 1022              		.syntax unified
 1023              		.thumb
 1024              		.thumb_func
 1025              		.fpu fpv4-sp-d16
 1027              	DeriveHandshakeSecret:
 1028              		@ args = 0, pretend = 0, frame = 64
 1029              		@ frame_needed = 0, uses_anonymous_args = 0
 1030 0000 70B5     		push	{r4, r5, r6, lr}
 1031 0002 0446     		mov	r4, r0
 1032 0004 94B0     		sub	sp, sp, #80
 1033 0006 40B3     		cbz	r0, .L176
 1034 0008 C268     		ldr	r2, [r0, #12]
 1035 000a 32B3     		cbz	r2, .L176
 1036 000c 90F8AC31 		ldrb	r3, [r0, #428]	@ zero_extendqisi2
 1037 0010 02F6BB42 		addw	r2, r2, #3259
 1038 0014 0193     		str	r3, [sp, #4]
 1039 0016 0723     		movs	r3, #7
 1040 0018 04A9     		add	r1, sp, #16
 1041 001a 0093     		str	r3, [sp]
 1042 001c 124B     		ldr	r3, .L179
 1043 001e FFF7FEFF 		bl	DeriveKeyMsg.constprop.0
 1044 0022 C0B9     		cbnz	r0, .L172
 1045 0024 E168     		ldr	r1, [r4, #12]
 1046 0026 94F8AC61 		ldrb	r6, [r4, #428]	@ zero_extendqisi2
 1047 002a 4B68     		ldr	r3, [r1, #4]
 1048 002c 8D68     		ldr	r5, [r1, #8]
 1049 002e 4969     		ldr	r1, [r1, #20]
 1050 0030 042E     		cmp	r6, #4
 1051 0032 08BF     		it	eq
 1052 0034 0620     		moveq	r0, #6
 1053 0036 0029     		cmp	r1, #0
 1054 0038 94F8AF21 		ldrb	r2, [r4, #431]	@ zero_extendqisi2
 1055 003c 10DB     		blt	.L178
 1056 003e D4F8AC13 		ldr	r1, [r4, #940]
 1057 0042 0391     		str	r1, [sp, #12]
ARM GAS  /tmp/cc36Vpy0.s 			page 19


 1058 0044 D4F88810 		ldr	r1, [r4, #136]
 1059 0048 0095     		str	r5, [sp]
 1060 004a CDE90101 		strd	r0, r1, [sp, #4]
 1061 004e 1846     		mov	r0, r3
 1062 0050 04A9     		add	r1, sp, #16
 1063 0052 FFF7FEFF 		bl	wc_Tls13_HKDF_Extract_ex
 1064              	.L172:
 1065 0056 14B0     		add	sp, sp, #80
 1066              		@ sp needed
 1067 0058 70BD     		pop	{r4, r5, r6, pc}
 1068              	.L176:
 1069 005a 6FF0AC00 		mvn	r0, #172
 1070 005e FAE7     		b	.L172
 1071              	.L178:
 1072 0060 6FF4A670 		mvn	r0, #332
 1073 0064 F7E7     		b	.L172
 1074              	.L180:
 1075 0066 00BF     		.align	2
 1076              	.L179:
 1077 0068 00000000 		.word	.LANCHOR4
 1079              		.section	.text.DeriveMasterSecret,"ax",%progbits
 1080              		.align	1
 1081              		.global	DeriveMasterSecret
 1082              		.syntax unified
 1083              		.thumb
 1084              		.thumb_func
 1085              		.fpu fpv4-sp-d16
 1087              	DeriveMasterSecret:
 1088              		@ args = 0, pretend = 0, frame = 64
 1089              		@ frame_needed = 0, uses_anonymous_args = 0
 1090 0000 70B5     		push	{r4, r5, r6, lr}
 1091 0002 0446     		mov	r4, r0
 1092 0004 94B0     		sub	sp, sp, #80
 1093 0006 50B3     		cbz	r0, .L185
 1094 0008 C268     		ldr	r2, [r0, #12]
 1095 000a 42B3     		cbz	r2, .L185
 1096 000c 90F8AC31 		ldrb	r3, [r0, #428]	@ zero_extendqisi2
 1097 0010 04A9     		add	r1, sp, #16
 1098 0012 0193     		str	r3, [sp, #4]
 1099 0014 0723     		movs	r3, #7
 1100 0016 0093     		str	r3, [sp]
 1101 0018 5268     		ldr	r2, [r2, #4]
 1102 001a 144B     		ldr	r3, .L188
 1103 001c FFF7FEFF 		bl	DeriveKeyMsg.constprop.0
 1104 0020 0146     		mov	r1, r0
 1105 0022 C8B9     		cbnz	r0, .L181
 1106 0024 E568     		ldr	r5, [r4, #12]
 1107 0026 94F8AC61 		ldrb	r6, [r4, #428]	@ zero_extendqisi2
 1108 002a 05F6EB43 		addw	r3, r5, #3307
 1109 002e 6D69     		ldr	r5, [r5, #20]
 1110 0030 042E     		cmp	r6, #4
 1111 0032 08BF     		it	eq
 1112 0034 0621     		moveq	r1, #6
 1113 0036 002D     		cmp	r5, #0
 1114 0038 94F8AF21 		ldrb	r2, [r4, #431]	@ zero_extendqisi2
 1115 003c 12DB     		blt	.L187
 1116 003e D4F8AC53 		ldr	r5, [r4, #940]
ARM GAS  /tmp/cc36Vpy0.s 			page 20


 1117 0042 0395     		str	r5, [sp, #12]
 1118 0044 D4F88840 		ldr	r4, [r4, #136]
 1119 0048 0090     		str	r0, [sp]
 1120 004a CDE90114 		strd	r1, r4, [sp, #4]
 1121 004e 1846     		mov	r0, r3
 1122 0050 04A9     		add	r1, sp, #16
 1123 0052 FFF7FEFF 		bl	wc_Tls13_HKDF_Extract_ex
 1124 0056 0146     		mov	r1, r0
 1125              	.L181:
 1126 0058 0846     		mov	r0, r1
 1127 005a 14B0     		add	sp, sp, #80
 1128              		@ sp needed
 1129 005c 70BD     		pop	{r4, r5, r6, pc}
 1130              	.L185:
 1131 005e 6FF0AC01 		mvn	r1, #172
 1132 0062 F9E7     		b	.L181
 1133              	.L187:
 1134 0064 6FF4A671 		mvn	r1, #332
 1135 0068 F6E7     		b	.L181
 1136              	.L189:
 1137 006a 00BF     		.align	2
 1138              	.L188:
 1139 006c 00000000 		.word	.LANCHOR4
 1141              		.section	.text.DeriveTls13Keys,"ax",%progbits
 1142              		.align	1
 1143              		.global	DeriveTls13Keys
 1144              		.syntax unified
 1145              		.thumb
 1146              		.thumb_func
 1147              		.fpu fpv4-sp-d16
 1149              	DeriveTls13Keys:
 1150              		@ args = 0, pretend = 0, frame = 0
 1151              		@ frame_needed = 0, uses_anonymous_args = 0
 1152 0000 2DE9F047 		push	{r4, r5, r6, r7, r8, r9, r10, lr}
 1153 0004 0546     		mov	r5, r0
 1154 0006 86B0     		sub	sp, sp, #24
 1155 0008 E020     		movs	r0, #224
 1156 000a 0C46     		mov	r4, r1
 1157 000c 9046     		mov	r8, r2
 1158 000e 1E46     		mov	r6, r3
 1159 0010 FFF7FEFF 		bl	wolfSSL_Malloc
 1160 0014 0746     		mov	r7, r0
 1161 0016 0028     		cmp	r0, #0
 1162 0018 00F06781 		beq	.L208
 1163 001c B8F1030F 		cmp	r8, #3
 1164 0020 12D0     		beq	.L192
 1165 0022 95F8EC32 		ldrb	r3, [r5, #748]	@ zero_extendqisi2
 1166 0026 08F1FF31 		add	r1, r8, #-1
 1167 002a 03F06003 		and	r3, r3, #96
 1168 002e 203B     		subs	r3, r3, #32
 1169 0030 18BF     		it	ne
 1170 0032 0123     		movne	r3, #1
 1171 0034 D1F10008 		rsbs	r8, r1, #0
 1172 0038 48EB0108 		adc	r8, r8, r1
 1173 003c 4345     		cmp	r3, r8
 1174 003e 14BF     		ite	ne
 1175 0040 4FF00108 		movne	r8, #1
ARM GAS  /tmp/cc36Vpy0.s 			page 21


 1176 0044 4FF00208 		moveq	r8, #2
 1177              	.L192:
 1178 0048 032C     		cmp	r4, #3
 1179 004a 00F0CE80 		beq	.L193
 1180 004e 042C     		cmp	r4, #4
 1181 0050 00F01481 		beq	.L194
 1182 0054 022C     		cmp	r4, #2
 1183 0056 40F04381 		bne	.L210
 1184 005a 18F0010F 		tst	r8, #1
 1185 005e 27D0     		beq	.L211
 1186 0060 05F11001 		add	r1, r5, #16
 1187 0064 6DB9     		cbnz	r5, .L197
 1188              	.L199:
 1189 0066 0026     		movs	r6, #0
 1190 0068 6FF0AC04 		mvn	r4, #172
 1191              	.L198:
 1192 006c 3846     		mov	r0, r7
 1193 006e 3146     		mov	r1, r6
 1194 0070 FFF7FEFF 		bl	ForceZero
 1195 0074 3846     		mov	r0, r7
 1196 0076 FFF7FEFF 		bl	wolfSSL_Free
 1197              	.L190:
 1198 007a 2046     		mov	r0, r4
 1199 007c 06B0     		add	sp, sp, #24
 1200              		@ sp needed
 1201 007e BDE8F087 		pop	{r4, r5, r6, r7, r8, r9, r10, pc}
 1202              	.L197:
 1203 0082 EB68     		ldr	r3, [r5, #12]
 1204 0084 002B     		cmp	r3, #0
 1205 0086 EED0     		beq	.L199
 1206 0088 0122     		movs	r2, #1
 1207 008a CDE90322 		strd	r2, r2, [sp, #12]
 1208 008e 95F8AC21 		ldrb	r2, [r5, #428]	@ zero_extendqisi2
 1209 0092 2846     		mov	r0, r5
 1210 0094 0292     		str	r2, [sp, #8]
 1211 0096 0C22     		movs	r2, #12
 1212 0098 0192     		str	r2, [sp, #4]
 1213 009a 984A     		ldr	r2, .L265
 1214 009c 0092     		str	r2, [sp]
 1215 009e 5B68     		ldr	r3, [r3, #4]
 1216 00a0 4FF0FF32 		mov	r2, #-1
 1217 00a4 FFF7FEFF 		bl	Tls13DeriveKey
 1218 00a8 0446     		mov	r4, r0
 1219 00aa 18B1     		cbz	r0, .L196
 1220              	.L215:
 1221 00ac 0026     		movs	r6, #0
 1222 00ae DDE7     		b	.L198
 1223              	.L211:
 1224 00b0 6FF0AC04 		mvn	r4, #172
 1225              	.L196:
 1226 00b4 18F0020F 		tst	r8, #2
 1227 00b8 1DD0     		beq	.L195
 1228 00ba 05F14001 		add	r1, r5, #64
 1229 00be 002D     		cmp	r5, #0
 1230 00c0 D1D0     		beq	.L199
 1231 00c2 EB68     		ldr	r3, [r5, #12]
 1232 00c4 002B     		cmp	r3, #0
ARM GAS  /tmp/cc36Vpy0.s 			page 22


 1233 00c6 CED0     		beq	.L199
 1234 00c8 0122     		movs	r2, #1
 1235 00ca 4FF00009 		mov	r9, #0
 1236 00ce CDE90329 		strd	r2, r9, [sp, #12]
 1237 00d2 95F8AC21 		ldrb	r2, [r5, #428]	@ zero_extendqisi2
 1238 00d6 0292     		str	r2, [sp, #8]
 1239 00d8 0C22     		movs	r2, #12
 1240 00da 0192     		str	r2, [sp, #4]
 1241 00dc 884A     		ldr	r2, .L265+4
 1242 00de 0092     		str	r2, [sp]
 1243 00e0 4FF0FF32 		mov	r2, #-1
 1244 00e4 5B68     		ldr	r3, [r3, #4]
 1245              	.L264:
 1246 00e6 2846     		mov	r0, r5
 1247 00e8 FFF7FEFF 		bl	Tls13DeriveKey
 1248 00ec 0446     		mov	r4, r0
 1249 00ee 0028     		cmp	r0, #0
 1250 00f0 40F0DD80 		bne	.L219
 1251              	.L201:
 1252 00f4 0024     		movs	r4, #0
 1253              	.L195:
 1254 00f6 002E     		cmp	r6, #0
 1255 00f8 B8D0     		beq	.L198
 1256 00fa 18F0010A 		ands	r10, r8, #1
 1257 00fe 00F0F280 		beq	.L220
 1258 0102 0123     		movs	r3, #1
 1259 0104 0026     		movs	r6, #0
 1260 0106 CDE90363 		strd	r6, r3, [sp, #12]
 1261 010a 95F8AC31 		ldrb	r3, [r5, #428]	@ zero_extendqisi2
 1262 010e 3946     		mov	r1, r7
 1263 0110 0293     		str	r3, [sp, #8]
 1264 0112 0323     		movs	r3, #3
 1265 0114 0193     		str	r3, [sp, #4]
 1266 0116 7B4B     		ldr	r3, .L265+8
 1267 0118 2846     		mov	r0, r5
 1268 011a 0093     		str	r3, [sp]
 1269 011c B5F8A221 		ldrh	r2, [r5, #418]
 1270 0120 05F11003 		add	r3, r5, #16
 1271 0124 FFF7FEFF 		bl	Tls13DeriveKey
 1272 0128 0446     		mov	r4, r0
 1273 012a 0028     		cmp	r0, #0
 1274 012c 9ED1     		bne	.L198
 1275 012e B5F8A261 		ldrh	r6, [r5, #418]
 1276              	.L203:
 1277 0132 18F00209 		ands	r9, r8, #2
 1278 0136 00F0DB80 		beq	.L204
 1279 013a 0023     		movs	r3, #0
 1280 013c CDE90333 		strd	r3, r3, [sp, #12]
 1281 0140 95F8AC31 		ldrb	r3, [r5, #428]	@ zero_extendqisi2
 1282 0144 2846     		mov	r0, r5
 1283 0146 0293     		str	r3, [sp, #8]
 1284 0148 0323     		movs	r3, #3
 1285 014a 0193     		str	r3, [sp, #4]
 1286 014c 6D4B     		ldr	r3, .L265+8
 1287 014e B5F8A221 		ldrh	r2, [r5, #418]
 1288 0152 0093     		str	r3, [sp]
 1289 0154 B919     		adds	r1, r7, r6
ARM GAS  /tmp/cc36Vpy0.s 			page 23


 1290 0156 05F14003 		add	r3, r5, #64
 1291 015a FFF7FEFF 		bl	Tls13DeriveKey
 1292 015e 0446     		mov	r4, r0
 1293 0160 0028     		cmp	r0, #0
 1294 0162 83D1     		bne	.L198
 1295 0164 B5F8A231 		ldrh	r3, [r5, #418]
 1296 0168 1E44     		add	r6, r6, r3
 1297 016a BAF1000F 		cmp	r10, #0
 1298 016e 1CD0     		beq	.L205
 1299              	.L207:
 1300 0170 0023     		movs	r3, #0
 1301 0172 0122     		movs	r2, #1
 1302 0174 CDE90332 		strd	r3, r2, [sp, #12]
 1303 0178 95F8AC31 		ldrb	r3, [r5, #428]	@ zero_extendqisi2
 1304 017c 2846     		mov	r0, r5
 1305 017e 0293     		str	r3, [sp, #8]
 1306 0180 0223     		movs	r3, #2
 1307 0182 0193     		str	r3, [sp, #4]
 1308 0184 604B     		ldr	r3, .L265+12
 1309 0186 B5F8A421 		ldrh	r2, [r5, #420]
 1310 018a 0093     		str	r3, [sp]
 1311 018c B919     		adds	r1, r7, r6
 1312 018e 05F11003 		add	r3, r5, #16
 1313 0192 FFF7FEFF 		bl	Tls13DeriveKey
 1314 0196 0446     		mov	r4, r0
 1315 0198 0028     		cmp	r0, #0
 1316 019a 7FF467AF 		bne	.L198
 1317 019e B5F8A431 		ldrh	r3, [r5, #420]
 1318 01a2 1E44     		add	r6, r6, r3
 1319 01a4 B9F1000F 		cmp	r9, #0
 1320 01a8 18D0     		beq	.L206
 1321              	.L205:
 1322 01aa 0023     		movs	r3, #0
 1323 01ac CDE90333 		strd	r3, r3, [sp, #12]
 1324 01b0 95F8AC31 		ldrb	r3, [r5, #428]	@ zero_extendqisi2
 1325 01b4 2846     		mov	r0, r5
 1326 01b6 0293     		str	r3, [sp, #8]
 1327 01b8 0223     		movs	r3, #2
 1328 01ba 0193     		str	r3, [sp, #4]
 1329 01bc 524B     		ldr	r3, .L265+12
 1330 01be B5F8A421 		ldrh	r2, [r5, #420]
 1331 01c2 0093     		str	r3, [sp]
 1332 01c4 B919     		adds	r1, r7, r6
 1333 01c6 05F14003 		add	r3, r5, #64
 1334 01ca FFF7FEFF 		bl	Tls13DeriveKey
 1335 01ce 0446     		mov	r4, r0
 1336 01d0 0028     		cmp	r0, #0
 1337 01d2 7FF44BAF 		bne	.L198
 1338 01d6 B5F8A431 		ldrh	r3, [r5, #420]
 1339 01da 1E44     		add	r6, r6, r3
 1340              	.L206:
 1341 01dc 4246     		mov	r2, r8
 1342 01de 3946     		mov	r1, r7
 1343 01e0 2846     		mov	r0, r5
 1344 01e2 FFF7FEFF 		bl	StoreKeys
 1345 01e6 0446     		mov	r4, r0
 1346 01e8 40E7     		b	.L198
ARM GAS  /tmp/cc36Vpy0.s 			page 24


 1347              	.L193:
 1348 01ea 18F0010F 		tst	r8, #1
 1349 01ee 42D0     		beq	.L214
 1350 01f0 05F11001 		add	r1, r5, #16
 1351 01f4 002D     		cmp	r5, #0
 1352 01f6 3FF436AF 		beq	.L199
 1353 01fa EB68     		ldr	r3, [r5, #12]
 1354 01fc 002B     		cmp	r3, #0
 1355 01fe 3FF432AF 		beq	.L199
 1356 0202 0122     		movs	r2, #1
 1357 0204 CDE90322 		strd	r2, r2, [sp, #12]
 1358 0208 95F8AC21 		ldrb	r2, [r5, #428]	@ zero_extendqisi2
 1359 020c 2846     		mov	r0, r5
 1360 020e 0292     		str	r2, [sp, #8]
 1361 0210 0C22     		movs	r2, #12
 1362 0212 0192     		str	r2, [sp, #4]
 1363 0214 3D4A     		ldr	r2, .L265+16
 1364 0216 03F6EB43 		addw	r3, r3, #3307
 1365 021a 0092     		str	r2, [sp]
 1366 021c 4FF0FF32 		mov	r2, #-1
 1367 0220 FFF7FEFF 		bl	Tls13DeriveKey
 1368 0224 0446     		mov	r4, r0
 1369 0226 0028     		cmp	r0, #0
 1370 0228 7FF440AF 		bne	.L215
 1371              	.L200:
 1372 022c 18F0020F 		tst	r8, #2
 1373 0230 3FF461AF 		beq	.L195
 1374 0234 05F14001 		add	r1, r5, #64
 1375 0238 002D     		cmp	r5, #0
 1376 023a 3FF414AF 		beq	.L199
 1377 023e EB68     		ldr	r3, [r5, #12]
 1378 0240 002B     		cmp	r3, #0
 1379 0242 3FF410AF 		beq	.L199
 1380 0246 0122     		movs	r2, #1
 1381 0248 4FF00009 		mov	r9, #0
 1382 024c CDE90329 		strd	r2, r9, [sp, #12]
 1383 0250 95F8AC21 		ldrb	r2, [r5, #428]	@ zero_extendqisi2
 1384 0254 2846     		mov	r0, r5
 1385 0256 0292     		str	r2, [sp, #8]
 1386 0258 0C22     		movs	r2, #12
 1387 025a 0192     		str	r2, [sp, #4]
 1388 025c 2C4A     		ldr	r2, .L265+20
 1389 025e 03F6EB43 		addw	r3, r3, #3307
 1390 0262 0092     		str	r2, [sp]
 1391 0264 4FF0FF32 		mov	r2, #-1
 1392 0268 FFF7FEFF 		bl	Tls13DeriveKey
 1393 026c 0446     		mov	r4, r0
 1394 026e 0028     		cmp	r0, #0
 1395 0270 3FF440AF 		beq	.L201
 1396 0274 1AE7     		b	.L215
 1397              	.L214:
 1398 0276 6FF0AC04 		mvn	r4, #172
 1399 027a D7E7     		b	.L200
 1400              	.L194:
 1401 027c 18F0010F 		tst	r8, #1
 1402 0280 17D0     		beq	.L217
 1403 0282 0122     		movs	r2, #1
ARM GAS  /tmp/cc36Vpy0.s 			page 25


 1404 0284 4FF00009 		mov	r9, #0
 1405 0288 CDE90392 		strd	r9, r2, [sp, #12]
 1406 028c 95F8AC21 		ldrb	r2, [r5, #428]	@ zero_extendqisi2
 1407 0290 05F11003 		add	r3, r5, #16
 1408 0294 0292     		str	r2, [sp, #8]
 1409 0296 0B22     		movs	r2, #11
 1410 0298 0192     		str	r2, [sp, #4]
 1411 029a 1E4A     		ldr	r2, .L265+24
 1412 029c 1946     		mov	r1, r3
 1413 029e 0092     		str	r2, [sp]
 1414 02a0 2846     		mov	r0, r5
 1415 02a2 4FF0FF32 		mov	r2, #-1
 1416 02a6 FFF7FEFF 		bl	Tls13DeriveKey
 1417 02aa 0446     		mov	r4, r0
 1418 02ac 18B1     		cbz	r0, .L202
 1419              	.L219:
 1420 02ae 4E46     		mov	r6, r9
 1421 02b0 DCE6     		b	.L198
 1422              	.L217:
 1423 02b2 6FF0AC04 		mvn	r4, #172
 1424              	.L202:
 1425 02b6 18F0020F 		tst	r8, #2
 1426 02ba 3FF41CAF 		beq	.L195
 1427 02be 95F8AC21 		ldrb	r2, [r5, #428]	@ zero_extendqisi2
 1428 02c2 4FF00009 		mov	r9, #0
 1429 02c6 0292     		str	r2, [sp, #8]
 1430 02c8 0B22     		movs	r2, #11
 1431 02ca 0192     		str	r2, [sp, #4]
 1432 02cc 114A     		ldr	r2, .L265+24
 1433 02ce 05F14003 		add	r3, r5, #64
 1434 02d2 0092     		str	r2, [sp]
 1435 02d4 1946     		mov	r1, r3
 1436 02d6 4FF0FF32 		mov	r2, #-1
 1437 02da CDE90399 		strd	r9, r9, [sp, #12]
 1438 02de 02E7     		b	.L264
 1439              	.L210:
 1440 02e0 6FF0AC04 		mvn	r4, #172
 1441 02e4 07E7     		b	.L195
 1442              	.L220:
 1443 02e6 5646     		mov	r6, r10
 1444 02e8 23E7     		b	.L203
 1445              	.L208:
 1446 02ea 6FF07C04 		mvn	r4, #124
 1447 02ee C4E6     		b	.L190
 1448              	.L204:
 1449 02f0 BAF1000F 		cmp	r10, #0
 1450 02f4 3FF472AF 		beq	.L206
 1451 02f8 3AE7     		b	.L207
 1452              	.L266:
 1453 02fa 00BF     		.align	2
 1454              	.L265:
 1455 02fc 00000000 		.word	.LANCHOR5
 1456 0300 00000000 		.word	.LANCHOR6
 1457 0304 00000000 		.word	.LANCHOR10
 1458 0308 00000000 		.word	.LANCHOR11
 1459 030c 00000000 		.word	.LANCHOR7
 1460 0310 00000000 		.word	.LANCHOR8
ARM GAS  /tmp/cc36Vpy0.s 			page 26


 1461 0314 00000000 		.word	.LANCHOR9
 1463              		.section	.text.DecryptTls13,"ax",%progbits
 1464              		.align	1
 1465              		.global	DecryptTls13
 1466              		.syntax unified
 1467              		.thumb
 1468              		.thumb_func
 1469              		.fpu fpv4-sp-d16
 1471              	DecryptTls13:
 1472              		@ args = 8, pretend = 0, frame = 0
 1473              		@ frame_needed = 0, uses_anonymous_args = 0
 1474 0000 0023     		movs	r3, #0
 1475 0002 10B5     		push	{r4, lr}
 1476 0004 80F8C830 		strb	r3, [r0, #200]
 1477 0008 D0F8C430 		ldr	r3, [r0, #196]
 1478 000c 0446     		mov	r4, r0
 1479 000e 23B9     		cbnz	r3, .L268
 1480 0010 0C20     		movs	r0, #12
 1481 0012 FFF7FEFF 		bl	wolfSSL_Malloc
 1482 0016 C4F8C400 		str	r0, [r4, #196]
 1483              	.L268:
 1484 001a D4F8C410 		ldr	r1, [r4, #196]
 1485 001e 51B1     		cbz	r1, .L270
 1486 0020 0123     		movs	r3, #1
 1487 0022 2046     		mov	r0, r4
 1488 0024 04F52A72 		add	r2, r4, #680
 1489 0028 FFF7FEFF 		bl	BuildTls13Nonce
 1490 002c 0123     		movs	r3, #1
 1491 002e 0348     		ldr	r0, .L271
 1492 0030 84F8C830 		strb	r3, [r4, #200]
 1493              	.L267:
 1494 0034 10BD     		pop	{r4, pc}
 1495              	.L270:
 1496 0036 6FF07C00 		mvn	r0, #124
 1497 003a FBE7     		b	.L267
 1498              	.L272:
 1499              		.align	2
 1500              	.L271:
 1501 003c C8FEFFFF 		.word	-312
 1503              		.section	.text.BuildTls13Message,"ax",%progbits
 1504              		.align	1
 1505              		.global	BuildTls13Message
 1506              		.syntax unified
 1507              		.thumb
 1508              		.thumb_func
 1509              		.fpu fpv4-sp-d16
 1511              	BuildTls13Message:
 1512              		@ args = 20, pretend = 0, frame = 24
 1513              		@ frame_needed = 0, uses_anonymous_args = 0
 1514 0000 2DE9F04F 		push	{r4, r5, r6, r7, r8, r9, r10, fp, lr}
 1515 0004 0E46     		mov	r6, r1
 1516 0006 0021     		movs	r1, #0
 1517 0008 87B0     		sub	sp, sp, #28
 1518 000a 80F80913 		strb	r1, [r0, #777]
 1519 000e 0446     		mov	r4, r0
 1520 0010 9046     		mov	r8, r2
 1521 0012 01A8     		add	r0, sp, #4
ARM GAS  /tmp/cc36Vpy0.s 			page 27


 1522 0014 1422     		movs	r2, #20
 1523 0016 9B46     		mov	fp, r3
 1524 0018 109D     		ldr	r5, [sp, #64]
 1525 001a DDF84C90 		ldr	r9, [sp, #76]
 1526 001e FFF7FEFF 		bl	memset
 1527 0022 0522     		movs	r2, #5
 1528 0024 CDE90222 		strd	r2, r2, [sp, #8]
 1529 0028 B9F1000F 		cmp	r9, #0
 1530 002c 06D0     		beq	.L274
 1531 002e 16B9     		cbnz	r6, .L291
 1532 0030 BBF1000F 		cmp	fp, #0
 1533 0034 07D0     		beq	.L276
 1534              	.L291:
 1535 0036 6FF0AC05 		mvn	r5, #172
 1536 003a 0EE0     		b	.L273
 1537              	.L274:
 1538 003c 002E     		cmp	r6, #0
 1539 003e FAD0     		beq	.L291
 1540 0040 BBF1000F 		cmp	fp, #0
 1541 0044 F7D0     		beq	.L291
 1542              	.L276:
 1543 0046 B4F8A871 		ldrh	r7, [r4, #424]
 1544 004a 05F1060A 		add	r10, r5, #6
 1545 004e 5744     		add	r7, r7, r10
 1546 0050 0197     		str	r7, [sp, #4]
 1547 0052 B9F1000F 		cmp	r9, #0
 1548 0056 04D0     		beq	.L277
 1549              	.L295:
 1550 0058 3D46     		mov	r5, r7
 1551              	.L273:
 1552 005a 2846     		mov	r0, r5
 1553 005c 07B0     		add	sp, sp, #28
 1554              		@ sp needed
 1555 005e BDE8F08F 		pop	{r4, r5, r6, r7, r8, r9, r10, fp, pc}
 1556              	.L277:
 1557 0062 4745     		cmp	r7, r8
 1558 0064 6BD8     		bhi	.L292
 1559 0066 94F8EE22 		ldrb	r2, [r4, #750]	@ zero_extendqisi2
 1560 006a A7F10508 		sub	r8, r7, #5
 1561 006e 1FFA88F8 		uxth	r8, r8
 1562 0072 5307     		lsls	r3, r2, #29
 1563 0074 ADF81080 		strh	r8, [sp, #16]	@ movhi
 1564 0078 0BD4     		bmi	.L278
 1565 007a 1722     		movs	r2, #23
 1566 007c 3270     		strb	r2, [r6]
 1567 007e 94F89E21 		ldrb	r2, [r4, #414]	@ zero_extendqisi2
 1568 0082 86F80480 		strb	r8, [r6, #4]
 1569 0086 7270     		strb	r2, [r6, #1]
 1570 0088 0322     		movs	r2, #3
 1571 008a B270     		strb	r2, [r6, #2]
 1572 008c 4FEA1822 		lsr	r2, r8, #8
 1573 0090 F270     		strb	r2, [r6, #3]
 1574              	.L278:
 1575 0092 06F10509 		add	r9, r6, #5
 1576 0096 D945     		cmp	r9, fp
 1577 0098 04D0     		beq	.L279
 1578 009a 2A46     		mov	r2, r5
ARM GAS  /tmp/cc36Vpy0.s 			page 28


 1579 009c 5946     		mov	r1, fp
 1580 009e 4846     		mov	r0, r9
 1581 00a0 FFF7FEFF 		bl	memcpy
 1582              	.L279:
 1583 00a4 0223     		movs	r3, #2
 1584 00a6 84F80933 		strb	r3, [r4, #777]
 1585 00aa 129B     		ldr	r3, [sp, #72]
 1586 00ac 05F1050B 		add	fp, r5, #5
 1587 00b0 CDF808B0 		str	fp, [sp, #8]
 1588 00b4 43BB     		cbnz	r3, .L280
 1589              	.L286:
 1590 00b6 119B     		ldr	r3, [sp, #68]
 1591 00b8 CDF808A0 		str	r10, [sp, #8]
 1592 00bc 06F80B30 		strb	r3, [r6, fp]
 1593 00c0 0423     		movs	r3, #4
 1594 00c2 84F80933 		strb	r3, [r4, #777]
 1595 00c6 94F8BC30 		ldrb	r3, [r4, #188]	@ zero_extendqisi2
 1596 00ca 012B     		cmp	r3, #1
 1597 00cc 16D0     		beq	.L293
 1598 00ce 022B     		cmp	r3, #2
 1599 00d0 27D0     		beq	.L282
 1600 00d2 5BBB     		cbnz	r3, .L284
 1601 00d4 D4F8B830 		ldr	r3, [r4, #184]
 1602 00d8 23B9     		cbnz	r3, .L287
 1603 00da 0C20     		movs	r0, #12
 1604 00dc FFF7FEFF 		bl	wolfSSL_Malloc
 1605 00e0 C4F8B800 		str	r0, [r4, #184]
 1606              	.L287:
 1607 00e4 D4F8B810 		ldr	r1, [r4, #184]
 1608 00e8 31B3     		cbz	r1, .L294
 1609 00ea 0023     		movs	r3, #0
 1610 00ec 2046     		mov	r0, r4
 1611 00ee 04F52772 		add	r2, r4, #668
 1612 00f2 FFF7FEFF 		bl	BuildTls13Nonce
 1613 00f6 0123     		movs	r3, #1
 1614 00f8 84F8BC30 		strb	r3, [r4, #188]
 1615              	.L293:
 1616 00fc 114D     		ldr	r5, .L296
 1617              	.L281:
 1618 00fe 4146     		mov	r1, r8
 1619 0100 4846     		mov	r0, r9
 1620 0102 FFF7FEFF 		bl	ForceZero
 1621 0106 08E0     		b	.L285
 1622              	.L280:
 1623 0108 0023     		movs	r3, #0
 1624 010a 5A46     		mov	r2, fp
 1625 010c 3146     		mov	r1, r6
 1626 010e 2046     		mov	r0, r4
 1627 0110 FFF7FEFF 		bl	HashOutput
 1628 0114 0546     		mov	r5, r0
 1629 0116 0028     		cmp	r0, #0
 1630 0118 CDD0     		beq	.L286
 1631              	.L285:
 1632 011a 0023     		movs	r3, #0
 1633 011c 84F80933 		strb	r3, [r4, #777]
 1634 0120 9BE7     		b	.L273
 1635              	.L282:
ARM GAS  /tmp/cc36Vpy0.s 			page 29


 1636 0122 0C21     		movs	r1, #12
 1637 0124 D4F8B800 		ldr	r0, [r4, #184]
 1638 0128 FFF7FEFF 		bl	ForceZero
 1639              	.L284:
 1640 012c 0023     		movs	r3, #0
 1641 012e 84F8BC30 		strb	r3, [r4, #188]
 1642 0132 84F80933 		strb	r3, [r4, #777]
 1643 0136 8FE7     		b	.L295
 1644              	.L294:
 1645 0138 6FF07C05 		mvn	r5, #124
 1646 013c DFE7     		b	.L281
 1647              	.L292:
 1648 013e 6FF08305 		mvn	r5, #131
 1649 0142 8AE7     		b	.L273
 1650              	.L297:
 1651              		.align	2
 1652              	.L296:
 1653 0144 C6FEFFFF 		.word	-314
 1655              		.section	.text.SendTls13Certificate,"ax",%progbits
 1656              		.align	1
 1657              		.syntax unified
 1658              		.thumb
 1659              		.thumb_func
 1660              		.fpu fpv4-sp-d16
 1662              	SendTls13Certificate:
 1663              		@ args = 0, pretend = 0, frame = 64
 1664              		@ frame_needed = 0, uses_anonymous_args = 0
 1665 0000 2DE9F04F 		push	{r4, r5, r6, r7, r8, r9, r10, fp, lr}
 1666 0004 0123     		movs	r3, #1
 1667 0006 2DED028B 		vpush.64	{d8}
 1668 000a 80F8F432 		strb	r3, [r0, #756]
 1669 000e 90F8EC32 		ldrb	r3, [r0, #748]	@ zero_extendqisi2
 1670 0012 0446     		mov	r4, r0
 1671 0014 03F00603 		and	r3, r3, #6
 1672 0018 042B     		cmp	r3, #4
 1673 001a 97B0     		sub	sp, sp, #92
 1674 001c 2AD0     		beq	.L317
 1675 001e D0F83031 		ldr	r3, [r0, #304]
 1676 0022 002B     		cmp	r3, #0
 1677 0024 00F08981 		beq	.L319
 1678 0028 1A68     		ldr	r2, [r3]
 1679 002a 002A     		cmp	r2, #0
 1680 002c 00F08581 		beq	.L319
 1681 0030 D3F80880 		ldr	r8, [r3, #8]
 1682 0034 D0F84831 		ldr	r3, [r0, #328]
 1683 0038 08F10702 		add	r2, r8, #7
 1684 003c 5D00     		lsls	r5, r3, #1
 1685 003e 0235     		adds	r5, r5, #2
 1686 0040 02EB050B 		add	fp, r2, r5
 1687 0044 08F10302 		add	r2, r8, #3
 1688 0048 2A44     		add	r2, r2, r5
 1689 004a 0B92     		str	r2, [sp, #44]
 1690 004c B8F1000F 		cmp	r8, #0
 1691 0050 57D0     		beq	.L320
 1692 0052 002B     		cmp	r3, #0
 1693 0054 5CDD     		ble	.L321
 1694 0056 4FF0020A 		mov	r10, #2
ARM GAS  /tmp/cc36Vpy0.s 			page 30


 1695 005a D0F84431 		ldr	r3, [r0, #324]
 1696 005e 1A68     		ldr	r2, [r3]
 1697 0060 9B68     		ldr	r3, [r3, #8]
 1698 0062 0692     		str	r2, [sp, #24]
 1699 0064 0793     		str	r3, [sp, #28]
 1700 0066 079A     		ldr	r2, [sp, #28]
 1701 0068 9B44     		add	fp, fp, r3
 1702 006a 0B9B     		ldr	r3, [sp, #44]
 1703 006c 1344     		add	r3, r3, r2
 1704 006e 0B93     		str	r3, [sp, #44]
 1705              	.L336:
 1706 0070 0726     		movs	r6, #7
 1707 0072 0BE0     		b	.L299
 1708              	.L317:
 1709 0074 4FF0000A 		mov	r10, #0
 1710 0078 9B46     		mov	fp, r3
 1711 007a 5546     		mov	r5, r10
 1712 007c 1E46     		mov	r6, r3
 1713 007e D046     		mov	r8, r10
 1714 0080 CDF818A0 		str	r10, [sp, #24]
 1715 0084 CDF82CA0 		str	r10, [sp, #44]
 1716 0088 CDF81CA0 		str	r10, [sp, #28]
 1717              	.L299:
 1718 008c D4F88831 		ldr	r3, [r4, #392]
 1719 0090 002B     		cmp	r3, #0
 1720 0092 44D0     		beq	.L322
 1721 0094 ABEB0609 		sub	r9, fp, r6
 1722 0098 A9EB0309 		sub	r9, r9, r3
 1723              	.L301:
 1724 009c 4FF48041 		mov	r1, #16384
 1725 00a0 2046     		mov	r0, r4
 1726 00a2 FFF7FEFF 		bl	wolfSSL_GetMaxFragSize
 1727 00a6 CBF30743 		ubfx	r3, fp, #16, #8
 1728 00aa 1193     		str	r3, [sp, #68]
 1729 00ac CBF30723 		ubfx	r3, fp, #8, #8
 1730 00b0 1293     		str	r3, [sp, #72]
 1731 00b2 0B9B     		ldr	r3, [sp, #44]
 1732 00b4 0021     		movs	r1, #0
 1733 00b6 C3F30743 		ubfx	r3, r3, #16, #8
 1734 00ba 0F93     		str	r3, [sp, #60]
 1735 00bc 0B9B     		ldr	r3, [sp, #44]
 1736 00be 0E90     		str	r0, [sp, #56]
 1737 00c0 C3F30723 		ubfx	r3, r3, #8, #8
 1738 00c4 1093     		str	r3, [sp, #64]
 1739 00c6 C8F30743 		ubfx	r3, r8, #16, #8
 1740 00ca 1393     		str	r3, [sp, #76]
 1741 00cc C8F30723 		ubfx	r3, r8, #8, #8
 1742 00d0 1493     		str	r3, [sp, #80]
 1743 00d2 0223     		movs	r3, #2
 1744 00d4 CDE90931 		strd	r3, r1, [sp, #36]
 1745 00d8 0023     		movs	r3, #0
 1746 00da 1846     		mov	r0, r3
 1747 00dc 0893     		str	r3, [sp, #32]
 1748 00de 079B     		ldr	r3, [sp, #28]
 1749 00e0 4344     		add	r3, r8, r3
 1750 00e2 1E44     		add	r6, r6, r3
 1751 00e4 7319     		adds	r3, r6, r5
ARM GAS  /tmp/cc36Vpy0.s 			page 31


 1752 00e6 1593     		str	r3, [sp, #84]
 1753              	.L302:
 1754 00e8 B9F1000F 		cmp	r9, #0
 1755 00ec 63DC     		bgt	.L313
 1756              	.L316:
 1757 00ee 6FF4A373 		mvn	r3, #326
 1758 00f2 9842     		cmp	r0, r3
 1759 00f4 40F01281 		bne	.L314
 1760              	.L298:
 1761 00f8 17B0     		add	sp, sp, #92
 1762              		@ sp needed
 1763 00fa BDEC028B 		vldm	sp!, {d8}
 1764 00fe BDE8F08F 		pop	{r4, r5, r6, r7, r8, r9, r10, fp, pc}
 1765              	.L320:
 1766 0102 4FF0020A 		mov	r10, #2
 1767 0106 CDF81C80 		str	r8, [sp, #28]
 1768 010a CDF81880 		str	r8, [sp, #24]
 1769 010e AFE7     		b	.L336
 1770              	.L321:
 1771 0110 0023     		movs	r3, #0
 1772 0112 4FF0020A 		mov	r10, #2
 1773 0116 0726     		movs	r6, #7
 1774 0118 0693     		str	r3, [sp, #24]
 1775 011a 0793     		str	r3, [sp, #28]
 1776 011c B6E7     		b	.L299
 1777              	.L322:
 1778 011e D946     		mov	r9, fp
 1779 0120 BCE7     		b	.L301
 1780              	.L303:
 1781 0122 4846     		mov	r0, r9
 1782 0124 0E99     		ldr	r1, [sp, #56]
 1783 0126 FFF7FEFF 		bl	min
 1784 012a 0527     		movs	r7, #5
 1785 012c 0646     		mov	r6, r0
 1786 012e 431D     		adds	r3, r0, #5
 1787 0130 50E0     		b	.L304
 1788              	.L306:
 1789 0132 1399     		ldr	r1, [sp, #76]
 1790 0134 C218     		adds	r2, r0, r3
 1791 0136 C154     		strb	r1, [r0, r3]
 1792 0138 149B     		ldr	r3, [sp, #80]
 1793 013a 82F80280 		strb	r8, [r2, #2]
 1794 013e 5370     		strb	r3, [r2, #1]
 1795 0140 0737     		adds	r7, r7, #7
 1796 0142 A9F10709 		sub	r9, r9, #7
 1797 0146 073E     		subs	r6, r6, #7
 1798              	.L308:
 1799 0148 D4F88831 		ldr	r3, [r4, #392]
 1800 014c 0AEB0802 		add	r2, r10, r8
 1801 0150 9342     		cmp	r3, r2
 1802 0152 0D92     		str	r2, [sp, #52]
 1803 0154 78D2     		bcs	.L307
 1804 0156 EA19     		adds	r2, r5, r7
 1805 0158 CDE90162 		strd	r6, r2, [sp, #4]
 1806 015c D4F83011 		ldr	r1, [r4, #304]
 1807 0160 0093     		str	r3, [sp]
 1808 0162 4246     		mov	r2, r8
ARM GAS  /tmp/cc36Vpy0.s 			page 32


 1809 0164 5346     		mov	r3, r10
 1810 0166 2046     		mov	r0, r4
 1811 0168 0968     		ldr	r1, [r1]
 1812 016a FFF7FEFF 		bl	AddCertExt.constprop.0
 1813 016e D4F88831 		ldr	r3, [r4, #392]
 1814 0172 0D9A     		ldr	r2, [sp, #52]
 1815 0174 0344     		add	r3, r3, r0
 1816 0176 9A42     		cmp	r2, r3
 1817 0178 0744     		add	r7, r7, r0
 1818 017a C4F88831 		str	r3, [r4, #392]
 1819 017e A9EB0009 		sub	r9, r9, r0
 1820 0182 A6EB0006 		sub	r6, r6, r0
 1821 0186 5FD1     		bne	.L307
 1822 0188 04F5A670 		add	r0, r4, #332
 1823 018c FFF7FEFF 		bl	FreeDer
 1824 0190 5AE0     		b	.L307
 1825              	.L305:
 1826 0192 0270     		strb	r2, [r0]
 1827 0194 94F89E31 		ldrb	r3, [r4, #414]	@ zero_extendqisi2
 1828 0198 0671     		strb	r6, [r0, #4]
 1829 019a 4370     		strb	r3, [r0, #1]
 1830 019c 0323     		movs	r3, #3
 1831 019e 8370     		strb	r3, [r0, #2]
 1832 01a0 C6F30723 		ubfx	r3, r6, #8, #8
 1833 01a4 C370     		strb	r3, [r0, #3]
 1834 01a6 B8F1000F 		cmp	r8, #0
 1835 01aa CDD1     		bne	.L308
 1836 01ac 4CE0     		b	.L307
 1837              	.L324:
 1838 01ae 0023     		movs	r3, #0
 1839 01b0 CDE90833 		strd	r3, r3, [sp, #32]
 1840 01b4 8CE0     		b	.L309
 1841              	.L313:
 1842 01b6 0028     		cmp	r0, #0
 1843 01b8 99D1     		bne	.L316
 1844 01ba D4F88831 		ldr	r3, [r4, #392]
 1845 01be 002B     		cmp	r3, #0
 1846 01c0 AFD1     		bne	.L303
 1847 01c2 0E9B     		ldr	r3, [sp, #56]
 1848 01c4 0927     		movs	r7, #9
 1849 01c6 1E1F     		subs	r6, r3, #4
 1850 01c8 159B     		ldr	r3, [sp, #84]
 1851 01ca 9E42     		cmp	r6, r3
 1852 01cc 28BF     		it	cs
 1853 01ce 1E46     		movcs	r6, r3
 1854 01d0 06F10903 		add	r3, r6, #9
 1855              	.L304:
 1856 01d4 6633     		adds	r3, r3, #102
 1857 01d6 1946     		mov	r1, r3
 1858 01d8 2046     		mov	r0, r4
 1859 01da 08EE103A 		vmov	s16, r3	@ int
 1860 01de FFF7FEFF 		bl	CheckAvailableSize
 1861 01e2 0C90     		str	r0, [sp, #48]
 1862 01e4 0028     		cmp	r0, #0
 1863 01e6 40F0AA80 		bne	.L323
 1864 01ea 2046     		mov	r0, r4
 1865 01ec FFF7FEFF 		bl	GetOutputBuffer
ARM GAS  /tmp/cc36Vpy0.s 			page 33


 1866 01f0 D4F88831 		ldr	r3, [r4, #392]
 1867 01f4 0546     		mov	r5, r0
 1868 01f6 1622     		movs	r2, #22
 1869 01f8 002B     		cmp	r3, #0
 1870 01fa CAD1     		bne	.L305
 1871 01fc 94F89E11 		ldrb	r1, [r4, #414]	@ zero_extendqisi2
 1872 0200 0270     		strb	r2, [r0]
 1873 0202 0322     		movs	r2, #3
 1874 0204 331D     		adds	r3, r6, #4
 1875 0206 8270     		strb	r2, [r0, #2]
 1876 0208 0371     		strb	r3, [r0, #4]
 1877 020a C3F30722 		ubfx	r2, r3, #8, #8
 1878 020e 0B23     		movs	r3, #11
 1879 0210 4371     		strb	r3, [r0, #5]
 1880 0212 119B     		ldr	r3, [sp, #68]
 1881 0214 4170     		strb	r1, [r0, #1]
 1882 0216 8371     		strb	r3, [r0, #6]
 1883 0218 129B     		ldr	r3, [sp, #72]
 1884 021a 0F99     		ldr	r1, [sp, #60]
 1885 021c C371     		strb	r3, [r0, #7]
 1886 021e 0C9B     		ldr	r3, [sp, #48]
 1887 0220 C270     		strb	r2, [r0, #3]
 1888 0222 7A1C     		adds	r2, r7, #1
 1889 0224 80F808B0 		strb	fp, [r0, #8]
 1890 0228 C355     		strb	r3, [r0, r7]
 1891 022a 8318     		adds	r3, r0, r2
 1892 022c 8154     		strb	r1, [r0, r2]
 1893 022e 109A     		ldr	r2, [sp, #64]
 1894 0230 5A70     		strb	r2, [r3, #1]
 1895 0232 0B9A     		ldr	r2, [sp, #44]
 1896 0234 9A70     		strb	r2, [r3, #2]
 1897 0236 3B1D     		adds	r3, r7, #4
 1898 0238 B8F1000F 		cmp	r8, #0
 1899 023c 7FF479AF 		bne	.L306
 1900 0240 1F46     		mov	r7, r3
 1901 0242 A9F10409 		sub	r9, r9, #4
 1902 0246 043E     		subs	r6, r6, #4
 1903              	.L307:
 1904 0248 079B     		ldr	r3, [sp, #28]
 1905 024a 002B     		cmp	r3, #0
 1906 024c 40D0     		beq	.L309
 1907 024e 002E     		cmp	r6, #0
 1908 0250 3ED0     		beq	.L309
 1909 0252 AAF10203 		sub	r3, r10, #2
 1910 0256 0D93     		str	r3, [sp, #52]
 1911              	.L311:
 1912 0258 089B     		ldr	r3, [sp, #32]
 1913 025a 099A     		ldr	r2, [sp, #36]
 1914 025c 0233     		adds	r3, r3, #2
 1915 025e 9342     		cmp	r3, r2
 1916 0260 1AD1     		bne	.L310
 1917 0262 D4F84421 		ldr	r2, [r4, #324]
 1918 0266 0A99     		ldr	r1, [sp, #40]
 1919 0268 1368     		ldr	r3, [r2]
 1920 026a 9268     		ldr	r2, [r2, #8]
 1921 026c 5918     		adds	r1, r3, r1
 1922 026e 0691     		str	r1, [sp, #24]
ARM GAS  /tmp/cc36Vpy0.s 			page 34


 1923 0270 0A99     		ldr	r1, [sp, #40]
 1924 0272 8A42     		cmp	r2, r1
 1925 0274 9BD0     		beq	.L324
 1926 0276 5A5C     		ldrb	r2, [r3, r1]	@ zero_extendqisi2
 1927 0278 069B     		ldr	r3, [sp, #24]
 1928 027a 5B78     		ldrb	r3, [r3, #1]	@ zero_extendqisi2
 1929 027c 1B02     		lsls	r3, r3, #8
 1930 027e 43EA0243 		orr	r3, r3, r2, lsl #16
 1931 0282 069A     		ldr	r2, [sp, #24]
 1932 0284 9278     		ldrb	r2, [r2, #2]	@ zero_extendqisi2
 1933 0286 1343     		orrs	r3, r3, r2
 1934 0288 0333     		adds	r3, r3, #3
 1935 028a 0893     		str	r3, [sp, #32]
 1936 028c 0B46     		mov	r3, r1
 1937 028e 089A     		ldr	r2, [sp, #32]
 1938 0290 1344     		add	r3, r3, r2
 1939 0292 0A93     		str	r3, [sp, #40]
 1940 0294 0023     		movs	r3, #0
 1941 0296 0993     		str	r3, [sp, #36]
 1942              	.L310:
 1943 0298 EB19     		adds	r3, r5, r7
 1944 029a CDE90163 		strd	r6, r3, [sp, #4]
 1945 029e 099B     		ldr	r3, [sp, #36]
 1946 02a0 089A     		ldr	r2, [sp, #32]
 1947 02a2 0093     		str	r3, [sp]
 1948 02a4 2046     		mov	r0, r4
 1949 02a6 5346     		mov	r3, r10
 1950 02a8 0699     		ldr	r1, [sp, #24]
 1951 02aa FFF7FEFF 		bl	AddCertExt.constprop.0
 1952 02ae D4F88831 		ldr	r3, [r4, #392]
 1953 02b2 0D9A     		ldr	r2, [sp, #52]
 1954 02b4 0344     		add	r3, r3, r0
 1955 02b6 C4F88831 		str	r3, [r4, #392]
 1956 02ba 099B     		ldr	r3, [sp, #36]
 1957 02bc 361A     		subs	r6, r6, r0
 1958 02be 0344     		add	r3, r3, r0
 1959 02c0 0993     		str	r3, [sp, #36]
 1960 02c2 089B     		ldr	r3, [sp, #32]
 1961 02c4 0744     		add	r7, r7, r0
 1962 02c6 1344     		add	r3, r3, r2
 1963 02c8 A9EB0009 		sub	r9, r9, r0
 1964 02cc 0893     		str	r3, [sp, #32]
 1965 02ce C3D1     		bne	.L311
 1966              	.L309:
 1967 02d0 042F     		cmp	r7, #4
 1968 02d2 36DD     		ble	.L325
 1969 02d4 1623     		movs	r3, #22
 1970 02d6 0122     		movs	r2, #1
 1971 02d8 0026     		movs	r6, #0
 1972 02da 053F     		subs	r7, r7, #5
 1973 02dc CDE90132 		strd	r3, r2, [sp, #4]
 1974 02e0 2946     		mov	r1, r5
 1975 02e2 18EE102A 		vmov	r2, s16	@ int
 1976 02e6 2046     		mov	r0, r4
 1977 02e8 CDE90366 		strd	r6, r6, [sp, #12]
 1978 02ec 0097     		str	r7, [sp]
 1979 02ee 6B1D     		adds	r3, r5, #5
ARM GAS  /tmp/cc36Vpy0.s 			page 35


 1980 02f0 FFF7FEFF 		bl	BuildTls13Message
 1981 02f4 0028     		cmp	r0, #0
 1982 02f6 FFF6FFAE 		blt	.L298
 1983 02fa D4F8F430 		ldr	r3, [r4, #244]
 1984 02fe 84F8F462 		strb	r6, [r4, #756]
 1985 0302 1844     		add	r0, r0, r3
 1986 0304 94F8F132 		ldrb	r3, [r4, #753]	@ zero_extendqisi2
 1987 0308 C4F8F400 		str	r0, [r4, #244]
 1988 030c DB07     		lsls	r3, r3, #31
 1989 030e 03D4     		bmi	.L312
 1990 0310 2046     		mov	r0, r4
 1991 0312 FFF7FEFF 		bl	SendBuffered
 1992 0316 0C90     		str	r0, [sp, #48]
 1993              	.L312:
 1994 0318 0C98     		ldr	r0, [sp, #48]
 1995 031a E5E6     		b	.L302
 1996              	.L314:
 1997 031c 0023     		movs	r3, #0
 1998 031e 84F8F432 		strb	r3, [r4, #756]
 1999 0322 C4F88831 		str	r3, [r4, #392]
 2000 0326 94F8EC32 		ldrb	r3, [r4, #748]	@ zero_extendqisi2
 2001 032a 13F0600F 		tst	r3, #96
 2002 032e 7FF4E3AE 		bne	.L298
 2003 0332 0523     		movs	r3, #5
 2004 0334 84F80133 		strb	r3, [r4, #769]
 2005 0338 DEE6     		b	.L298
 2006              	.L319:
 2007 033a 0348     		ldr	r0, .L337
 2008 033c DCE6     		b	.L298
 2009              	.L323:
 2010 033e 0C98     		ldr	r0, [sp, #48]
 2011 0340 DAE6     		b	.L298
 2012              	.L325:
 2013 0342 6FF08300 		mvn	r0, #131
 2014 0346 D7E6     		b	.L298
 2015              	.L338:
 2016              		.align	2
 2017              	.L337:
 2018 0348 48FEFFFF 		.word	-440
 2020              		.section	.text.SendTls13Finished,"ax",%progbits
 2021              		.align	1
 2022              		.syntax unified
 2023              		.thumb
 2024              		.thumb_func
 2025              		.fpu fpv4-sp-d16
 2027              	SendTls13Finished:
 2028              		@ args = 0, pretend = 0, frame = 0
 2029              		@ frame_needed = 0, uses_anonymous_args = 0
 2030 0000 2DE9F043 		push	{r4, r5, r6, r7, r8, r9, lr}
 2031 0004 4FF00109 		mov	r9, #1
 2032 0008 B221     		movs	r1, #178
 2033 000a 87B0     		sub	sp, sp, #28
 2034 000c 80F8F492 		strb	r9, [r0, #756]
 2035 0010 0546     		mov	r5, r0
 2036 0012 90F8AF81 		ldrb	r8, [r0, #431]	@ zero_extendqisi2
 2037 0016 FFF7FEFF 		bl	CheckAvailableSize
 2038 001a 0446     		mov	r4, r0
ARM GAS  /tmp/cc36Vpy0.s 			page 36


 2039 001c 0028     		cmp	r0, #0
 2040 001e 40F09D80 		bne	.L339
 2041 0022 2846     		mov	r0, r5
 2042 0024 FFF7FEFF 		bl	GetOutputBuffer
 2043 0028 1423     		movs	r3, #20
 2044 002a 8471     		strb	r4, [r0, #6]
 2045 002c 4371     		strb	r3, [r0, #5]
 2046 002e C471     		strb	r4, [r0, #7]
 2047 0030 80F80880 		strb	r8, [r0, #8]
 2048 0034 95F80433 		ldrb	r3, [r5, #772]	@ zero_extendqisi2
 2049 0038 0646     		mov	r6, r0
 2050 003a 05F5DA77 		add	r7, r5, #436
 2051 003e 002B     		cmp	r3, #0
 2052 0040 5DD0     		beq	.L341
 2053 0042 4B46     		mov	r3, r9
 2054 0044 3A46     		mov	r2, r7
 2055 0046 05F11001 		add	r1, r5, #16
 2056              	.L355:
 2057 004a 2846     		mov	r0, r5
 2058 004c FFF7FEFF 		bl	DeriveFinishedSecret
 2059 0050 0446     		mov	r4, r0
 2060 0052 0028     		cmp	r0, #0
 2061 0054 40F08280 		bne	.L339
 2062              	.L342:
 2063 0058 0023     		movs	r3, #0
 2064 005a 3946     		mov	r1, r7
 2065 005c 2846     		mov	r0, r5
 2066 005e 06F10902 		add	r2, r6, #9
 2067 0062 FFF7FEFF 		bl	BuildTls13HandshakeHmac
 2068 0066 0446     		mov	r4, r0
 2069 0068 0028     		cmp	r0, #0
 2070 006a 77D1     		bne	.L339
 2071 006c 1623     		movs	r3, #22
 2072 006e 0127     		movs	r7, #1
 2073 0070 CDE90137 		strd	r3, r7, [sp, #4]
 2074 0074 08F10403 		add	r3, r8, #4
 2075 0078 CDE90300 		strd	r0, r0, [sp, #12]
 2076 007c 0093     		str	r3, [sp]
 2077 007e B222     		movs	r2, #178
 2078 0080 3146     		mov	r1, r6
 2079 0082 2846     		mov	r0, r5
 2080 0084 731D     		adds	r3, r6, #5
 2081 0086 FFF7FEFF 		bl	BuildTls13Message
 2082 008a 0028     		cmp	r0, #0
 2083 008c 70DB     		blt	.L350
 2084 008e D5F8F430 		ldr	r3, [r5, #244]
 2085 0092 85F8F442 		strb	r4, [r5, #756]
 2086 0096 1844     		add	r0, r0, r3
 2087 0098 95F8EC32 		ldrb	r3, [r5, #748]	@ zero_extendqisi2
 2088 009c C5F8F400 		str	r0, [r5, #244]
 2089 00a0 13F0600F 		tst	r3, #96
 2090 00a4 41D0     		beq	.L343
 2091              	.L346:
 2092 00a6 95F8EC32 		ldrb	r3, [r5, #748]	@ zero_extendqisi2
 2093 00aa 03F06003 		and	r3, r3, #96
 2094 00ae 202B     		cmp	r3, #32
 2095 00b0 12D1     		bne	.L345
ARM GAS  /tmp/cc36Vpy0.s 			page 37


 2096 00b2 95F80433 		ldrb	r3, [r5, #772]	@ zero_extendqisi2
 2097 00b6 7BB9     		cbnz	r3, .L345
 2098 00b8 0121     		movs	r1, #1
 2099 00ba 2846     		mov	r0, r5
 2100 00bc FFF7FEFF 		bl	SetKeysSide
 2101 00c0 0446     		mov	r4, r0
 2102 00c2 0028     		cmp	r0, #0
 2103 00c4 4AD1     		bne	.L339
 2104 00c6 D5F85011 		ldr	r1, [r5, #336]
 2105 00ca 2846     		mov	r0, r5
 2106 00cc 5D31     		adds	r1, r1, #93
 2107 00ce FFF7FEFF 		bl	DeriveResumptionSecret
 2108 00d2 0446     		mov	r4, r0
 2109 00d4 0028     		cmp	r0, #0
 2110 00d6 41D1     		bne	.L339
 2111              	.L345:
 2112 00d8 95F8EC32 		ldrb	r3, [r5, #748]	@ zero_extendqisi2
 2113 00dc 03F06003 		and	r3, r3, #96
 2114 00e0 202B     		cmp	r3, #32
 2115 00e2 3FD1     		bne	.L354
 2116 00e4 41F20F03 		movw	r3, #4111
 2117 00e8 A5F80233 		strh	r3, [r5, #770]	@ movhi
 2118 00ec 0123     		movs	r3, #1
 2119 00ee 85F80433 		strb	r3, [r5, #772]
 2120              	.L349:
 2121 00f2 2846     		mov	r0, r5
 2122 00f4 07B0     		add	sp, sp, #28
 2123              		@ sp needed
 2124 00f6 BDE8F043 		pop	{r4, r5, r6, r7, r8, r9, lr}
 2125 00fa FFF7FEBF 		b	SendBuffered
 2126              	.L341:
 2127 00fe 95F8EC32 		ldrb	r3, [r5, #748]	@ zero_extendqisi2
 2128 0102 03F06003 		and	r3, r3, #96
 2129 0106 202B     		cmp	r3, #32
 2130 0108 A6D0     		beq	.L342
 2131 010a 2346     		mov	r3, r4
 2132 010c 3A46     		mov	r2, r7
 2133 010e 2846     		mov	r0, r5
 2134 0110 05F11001 		add	r1, r5, #16
 2135 0114 FFF7FEFF 		bl	DeriveFinishedSecret
 2136 0118 0446     		mov	r4, r0
 2137 011a F8B9     		cbnz	r0, .L339
 2138 011c 05F5FA77 		add	r7, r5, #500
 2139 0120 4B46     		mov	r3, r9
 2140 0122 3A46     		mov	r2, r7
 2141 0124 05F14001 		add	r1, r5, #64
 2142 0128 8FE7     		b	.L355
 2143              	.L343:
 2144 012a 2846     		mov	r0, r5
 2145 012c FFF7FEFF 		bl	DeriveMasterSecret
 2146 0130 0446     		mov	r4, r0
 2147 0132 98B9     		cbnz	r0, .L339
 2148 0134 EB68     		ldr	r3, [r5, #12]
 2149 0136 D3E90101 		ldrd	r0, r1, [r3, #4]
 2150 013a FFF7FEFF 		bl	ForceZero
 2151 013e 0322     		movs	r2, #3
 2152 0140 3B46     		mov	r3, r7
ARM GAS  /tmp/cc36Vpy0.s 			page 38


 2153 0142 1146     		mov	r1, r2
 2154 0144 2846     		mov	r0, r5
 2155 0146 FFF7FEFF 		bl	DeriveTls13Keys
 2156 014a 0446     		mov	r4, r0
 2157 014c 30B9     		cbnz	r0, .L339
 2158 014e 3946     		mov	r1, r7
 2159 0150 2846     		mov	r0, r5
 2160 0152 FFF7FEFF 		bl	SetKeysSide
 2161 0156 0446     		mov	r4, r0
 2162 0158 0028     		cmp	r0, #0
 2163 015a A4D0     		beq	.L346
 2164              	.L339:
 2165 015c 2046     		mov	r0, r4
 2166 015e 07B0     		add	sp, sp, #28
 2167              		@ sp needed
 2168 0160 BDE8F083 		pop	{r4, r5, r6, r7, r8, r9, pc}
 2169              	.L354:
 2170 0164 002B     		cmp	r3, #0
 2171 0166 C4D1     		bne	.L349
 2172 0168 0A23     		movs	r3, #10
 2173 016a 85F80133 		strb	r3, [r5, #769]
 2174 016e C0E7     		b	.L349
 2175              	.L350:
 2176 0170 004C     		ldr	r4, .L356
 2177 0172 F3E7     		b	.L339
 2178              	.L357:
 2179              		.align	2
 2180              	.L356:
 2181 0174 C0FEFFFF 		.word	-320
 2183              		.section	.text.FindSuiteSSL,"ax",%progbits
 2184              		.align	1
 2185              		.global	FindSuiteSSL
 2186              		.syntax unified
 2187              		.thumb
 2188              		.thumb_func
 2189              		.fpu fpv4-sp-d16
 2191              	FindSuiteSSL:
 2192              		@ args = 0, pretend = 0, frame = 0
 2193              		@ frame_needed = 0, uses_anonymous_args = 0
 2194 0000 4268     		ldr	r2, [r0, #4]
 2195 0002 70B5     		push	{r4, r5, r6, lr}
 2196 0004 0AB9     		cbnz	r2, .L359
 2197 0006 0368     		ldr	r3, [r0]
 2198 0008 1A6B     		ldr	r2, [r3, #48]
 2199              	.L359:
 2200 000a 0023     		movs	r3, #0
 2201 000c 1488     		ldrh	r4, [r2]
 2202              	.L360:
 2203 000e 9C42     		cmp	r4, r3
 2204 0010 01D8     		bhi	.L363
 2205 0012 0020     		movs	r0, #0
 2206              	.L358:
 2207 0014 70BD     		pop	{r4, r5, r6, pc}
 2208              	.L363:
 2209 0016 D018     		adds	r0, r2, r3
 2210 0018 0679     		ldrb	r6, [r0, #4]	@ zero_extendqisi2
 2211 001a 0D78     		ldrb	r5, [r1]	@ zero_extendqisi2
ARM GAS  /tmp/cc36Vpy0.s 			page 39


 2212 001c AE42     		cmp	r6, r5
 2213 001e 03D1     		bne	.L361
 2214 0020 4579     		ldrb	r5, [r0, #5]	@ zero_extendqisi2
 2215 0022 4878     		ldrb	r0, [r1, #1]	@ zero_extendqisi2
 2216 0024 8542     		cmp	r5, r0
 2217 0026 02D0     		beq	.L364
 2218              	.L361:
 2219 0028 0233     		adds	r3, r3, #2
 2220 002a 9BB2     		uxth	r3, r3
 2221 002c EFE7     		b	.L360
 2222              	.L364:
 2223 002e 0120     		movs	r0, #1
 2224 0030 F0E7     		b	.L358
 2226              		.section	.text.SuiteMac,"ax",%progbits
 2227              		.align	1
 2228              		.global	SuiteMac
 2229              		.syntax unified
 2230              		.thumb
 2231              		.thumb_func
 2232              		.fpu fpv4-sp-d16
 2234              	SuiteMac:
 2235              		@ args = 0, pretend = 0, frame = 0
 2236              		@ frame_needed = 0, uses_anonymous_args = 0
 2237              		@ link register save eliminated.
 2238 0000 0020     		movs	r0, #0
 2239 0002 7047     		bx	lr
 2241              		.section	.text.RestartHandshakeHash,"ax",%progbits
 2242              		.align	1
 2243              		.global	RestartHandshakeHash
 2244              		.syntax unified
 2245              		.thumb
 2246              		.thumb_func
 2247              		.fpu fpv4-sp-d16
 2249              	RestartHandshakeHash:
 2250              		@ args = 0, pretend = 0, frame = 40
 2251              		@ frame_needed = 0, uses_anonymous_args = 0
 2252 0000 0023     		movs	r3, #0
 2253 0002 70B5     		push	{r4, r5, r6, lr}
 2254 0004 8AB0     		sub	sp, sp, #40
 2255 0006 02A9     		add	r1, sp, #8
 2256 0008 0446     		mov	r4, r0
 2257 000a 0193     		str	r3, [sp, #4]
 2258 000c FFF7FEFF 		bl	BuildCertHashes
 2259 0010 08BB     		cbnz	r0, .L366
 2260 0012 94F8AC31 		ldrb	r3, [r4, #428]	@ zero_extendqisi2
 2261 0016 94F8AF61 		ldrb	r6, [r4, #431]	@ zero_extendqisi2
 2262 001a 042B     		cmp	r3, #4
 2263 001c 1DD0     		beq	.L369
 2264 001e F6B9     		cbnz	r6, .L370
 2265 0020 3546     		mov	r5, r6
 2266              	.L368:
 2267 0022 FE23     		movs	r3, #254
 2268 0024 8DF80430 		strb	r3, [sp, #4]
 2269 0028 0023     		movs	r3, #0
 2270 002a 2046     		mov	r0, r4
 2271 002c 8DF80530 		strb	r3, [sp, #5]
 2272 0030 8DF80630 		strb	r3, [sp, #6]
ARM GAS  /tmp/cc36Vpy0.s 			page 40


 2273 0034 8DF80760 		strb	r6, [sp, #7]
 2274 0038 FFF7FEFF 		bl	InitHandshakeHashes
 2275 003c 58B9     		cbnz	r0, .L366
 2276 003e 0422     		movs	r2, #4
 2277 0040 2046     		mov	r0, r4
 2278 0042 0DEB0201 		add	r1, sp, r2
 2279 0046 FFF7FEFF 		bl	HashRaw
 2280 004a 20B9     		cbnz	r0, .L366
 2281 004c 3246     		mov	r2, r6
 2282 004e 2946     		mov	r1, r5
 2283 0050 2046     		mov	r0, r4
 2284 0052 FFF7FEFF 		bl	HashRaw
 2285              	.L366:
 2286 0056 0AB0     		add	sp, sp, #40
 2287              		@ sp needed
 2288 0058 70BD     		pop	{r4, r5, r6, pc}
 2289              	.L369:
 2290 005a 02AD     		add	r5, sp, #8
 2291 005c E1E7     		b	.L368
 2292              	.L370:
 2293 005e 6FF0AC00 		mvn	r0, #172
 2294 0062 F8E7     		b	.L366
 2296              		.section	.text.SendTls13ClientHello,"ax",%progbits
 2297              		.align	1
 2298              		.global	SendTls13ClientHello
 2299              		.syntax unified
 2300              		.thumb
 2301              		.thumb_func
 2302              		.fpu fpv4-sp-d16
 2304              	SendTls13ClientHello:
 2305              		@ args = 0, pretend = 0, frame = 96
 2306              		@ frame_needed = 0, uses_anonymous_args = 0
 2307 0000 2DE9F047 		push	{r4, r5, r6, r7, r8, r9, r10, lr}
 2308 0004 0546     		mov	r5, r0
 2309 0006 98B0     		sub	sp, sp, #96
 2310 0008 28B9     		cbnz	r0, .L372
 2311              	.L377:
 2312 000a 6FF0AC04 		mvn	r4, #172
 2313              	.L371:
 2314 000e 2046     		mov	r0, r4
 2315 0010 18B0     		add	sp, sp, #96
 2316              		@ sp needed
 2317 0012 BDE8F087 		pop	{r4, r5, r6, r7, r8, r9, r10, pc}
 2318              	.L372:
 2319 0016 0123     		movs	r3, #1
 2320 0018 4668     		ldr	r6, [r0, #4]
 2321 001a 80F8F432 		strb	r3, [r0, #756]
 2322 001e 26B9     		cbnz	r6, .L374
 2323 0020 0368     		ldr	r3, [r0]
 2324 0022 1E6B     		ldr	r6, [r3, #48]
 2325 0024 002E     		cmp	r6, #0
 2326 0026 00F06E81 		beq	.L400
 2327              	.L374:
 2328 002a 1022     		movs	r2, #16
 2329 002c 0021     		movs	r1, #0
 2330 002e 0DEB0200 		add	r0, sp, r2
 2331 0032 FFF7FEFF 		bl	memset
ARM GAS  /tmp/cc36Vpy0.s 			page 41


 2332 0036 0923     		movs	r3, #9
 2333 0038 D5F85011 		ldr	r1, [r5, #336]
 2334 003c 0593     		str	r3, [sp, #20]
 2335 003e 3388     		ldrh	r3, [r6]
 2336 0040 03F12602 		add	r2, r3, #38
 2337 0044 91F85C30 		ldrb	r3, [r1, #92]	@ zero_extendqisi2
 2338 0048 002B     		cmp	r3, #0
 2339 004a 00F0C480 		beq	.L401
 2340 004e 202B     		cmp	r3, #32
 2341 0050 00F2BE80 		bhi	.L376
 2342 0054 0133     		adds	r3, r3, #1
 2343 0056 DBB2     		uxtb	r3, r3
 2344              	.L375:
 2345 0058 0127     		movs	r7, #1
 2346 005a 1344     		add	r3, r3, r2
 2347 005c 0021     		movs	r1, #0
 2348 005e 2846     		mov	r0, r5
 2349 0060 85F80873 		strb	r7, [r5, #776]
 2350 0064 0793     		str	r3, [sp, #28]
 2351 0066 FFF7FEFF 		bl	TLSX_PopulateExtensions
 2352 006a 0446     		mov	r4, r0
 2353 006c 0028     		cmp	r0, #0
 2354 006e CED1     		bne	.L371
 2355 0070 0423     		movs	r3, #4
 2356 0072 3946     		mov	r1, r7
 2357 0074 2846     		mov	r0, r5
 2358 0076 85F80833 		strb	r3, [r5, #776]
 2359 007a 07AA     		add	r2, sp, #28
 2360 007c FFF7FEFF 		bl	TLSX_GetRequestSize
 2361 0080 0446     		mov	r4, r0
 2362 0082 0028     		cmp	r0, #0
 2363 0084 C3D1     		bne	.L371
 2364 0086 0799     		ldr	r1, [sp, #28]
 2365 0088 2846     		mov	r0, r5
 2366 008a 0931     		adds	r1, r1, #9
 2367 008c 0691     		str	r1, [sp, #24]
 2368 008e FFF7FEFF 		bl	CheckAvailableSize
 2369 0092 0446     		mov	r4, r0
 2370 0094 0028     		cmp	r0, #0
 2371 0096 BAD1     		bne	.L371
 2372 0098 2846     		mov	r0, r5
 2373 009a FFF7FEFF 		bl	GetOutputBuffer
 2374 009e 3A46     		mov	r2, r7
 2375 00a0 95F89E31 		ldrb	r3, [r5, #414]	@ zero_extendqisi2
 2376 00a4 0799     		ldr	r1, [sp, #28]
 2377 00a6 0490     		str	r0, [sp, #16]
 2378 00a8 FFF7FEFF 		bl	AddTls13Headers.isra.0
 2379 00ac 059B     		ldr	r3, [sp, #20]
 2380 00ae 0499     		ldr	r1, [sp, #16]
 2381 00b0 DA19     		adds	r2, r3, r7
 2382 00b2 0592     		str	r2, [sp, #20]
 2383 00b4 0322     		movs	r2, #3
 2384 00b6 CA54     		strb	r2, [r1, r3]
 2385 00b8 059B     		ldr	r3, [sp, #20]
 2386 00ba D919     		adds	r1, r3, r7
 2387 00bc 0591     		str	r1, [sp, #20]
 2388 00be 0499     		ldr	r1, [sp, #16]
ARM GAS  /tmp/cc36Vpy0.s 			page 42


 2389 00c0 CA54     		strb	r2, [r1, r3]
 2390 00c2 B5F89E31 		ldrh	r3, [r5, #414]
 2391 00c6 A5F8A031 		strh	r3, [r5, #416]	@ movhi
 2392 00ca EB68     		ldr	r3, [r5, #12]
 2393 00cc 002B     		cmp	r3, #0
 2394 00ce 9CD0     		beq	.L377
 2395 00d0 DDE90412 		ldrd	r1, r2, [sp, #16]
 2396 00d4 1144     		add	r1, r1, r2
 2397 00d6 95F80623 		ldrb	r2, [r5, #774]	@ zero_extendqisi2
 2398 00da 002A     		cmp	r2, #0
 2399 00dc 7DD1     		bne	.L378
 2400 00de 2022     		movs	r2, #32
 2401 00e0 E86F     		ldr	r0, [r5, #124]
 2402 00e2 FFF7FEFF 		bl	wc_RNG_GenerateBlock
 2403 00e6 0446     		mov	r4, r0
 2404 00e8 0028     		cmp	r0, #0
 2405 00ea 90D1     		bne	.L371
 2406 00ec DDE90431 		ldrd	r3, r1, [sp, #16]
 2407 00f0 EA68     		ldr	r2, [r5, #12]
 2408 00f2 0B44     		add	r3, r3, r1
 2409 00f4 02F65A42 		addw	r2, r2, #3162
 2410 00f8 03F12001 		add	r1, r3, #32
 2411              	.L379:
 2412 00fc 53F8040B 		ldr	r0, [r3], #4	@ unaligned
 2413 0100 8B42     		cmp	r3, r1
 2414 0102 42F8040B 		str	r0, [r2], #4	@ unaligned
 2415 0106 F9D1     		bne	.L379
 2416              	.L380:
 2417 0108 D5F85001 		ldr	r0, [r5, #336]
 2418 010c 059A     		ldr	r2, [sp, #20]
 2419 010e 90F85C10 		ldrb	r1, [r0, #92]	@ zero_extendqisi2
 2420 0112 2032     		adds	r2, r2, #32
 2421 0114 049B     		ldr	r3, [sp, #16]
 2422 0116 0592     		str	r2, [sp, #20]
 2423 0118 0029     		cmp	r1, #0
 2424 011a 6CD0     		beq	.L382
 2425 011c 2029     		cmp	r1, #32
 2426 011e 67D8     		bhi	.L383
 2427 0120 03B1     		cbz	r3, .L384
 2428 0122 9954     		strb	r1, [r3, r2]
 2429              	.L384:
 2430 0124 0598     		ldr	r0, [sp, #20]
 2431 0126 0130     		adds	r0, r0, #1
 2432 0128 0590     		str	r0, [sp, #20]
 2433 012a 3BB1     		cbz	r3, .L385
 2434 012c D5F85011 		ldr	r1, [r5, #336]
 2435 0130 1844     		add	r0, r0, r3
 2436 0132 91F85C20 		ldrb	r2, [r1, #92]	@ zero_extendqisi2
 2437 0136 3C31     		adds	r1, r1, #60
 2438 0138 FFF7FEFF 		bl	memcpy
 2439              	.L385:
 2440 013c D5F85031 		ldr	r3, [r5, #336]
 2441 0140 93F85C20 		ldrb	r2, [r3, #92]	@ zero_extendqisi2
 2442 0144 059B     		ldr	r3, [sp, #20]
 2443 0146 1344     		add	r3, r3, r2
 2444              	.L421:
 2445 0148 0593     		str	r3, [sp, #20]
ARM GAS  /tmp/cc36Vpy0.s 			page 43


 2446 014a 3388     		ldrh	r3, [r6]
 2447 014c DDE90412 		ldrd	r1, r2, [sp, #16]
 2448 0150 1C0A     		lsrs	r4, r3, #8
 2449 0152 8C54     		strb	r4, [r1, r2]
 2450 0154 8818     		adds	r0, r1, r2
 2451 0156 3146     		mov	r1, r6
 2452 0158 4FF0010A 		mov	r10, #1
 2453 015c 4370     		strb	r3, [r0, #1]
 2454 015e 059B     		ldr	r3, [sp, #20]
 2455 0160 0498     		ldr	r0, [sp, #16]
 2456 0162 0233     		adds	r3, r3, #2
 2457 0164 31F8042B 		ldrh	r2, [r1], #4
 2458 0168 1844     		add	r0, r0, r3
 2459 016a 0593     		str	r3, [sp, #20]
 2460 016c FFF7FEFF 		bl	memcpy
 2461 0170 3388     		ldrh	r3, [r6]
 2462 0172 0026     		movs	r6, #0
 2463 0174 059A     		ldr	r2, [sp, #20]
 2464 0176 1344     		add	r3, r3, r2
 2465 0178 5A1C     		adds	r2, r3, #1
 2466 017a 0592     		str	r2, [sp, #20]
 2467 017c 049A     		ldr	r2, [sp, #16]
 2468 017e 02F803A0 		strb	r10, [r2, r3]
 2469 0182 059B     		ldr	r3, [sp, #20]
 2470 0184 03EB0A02 		add	r2, r3, r10
 2471 0188 0592     		str	r2, [sp, #20]
 2472 018a 049A     		ldr	r2, [sp, #16]
 2473 018c D654     		strb	r6, [r2, r3]
 2474 018e DDE90401 		ldrd	r0, r1, [sp, #16]
 2475 0192 5246     		mov	r2, r10
 2476 0194 0144     		add	r1, r1, r0
 2477 0196 07AB     		add	r3, sp, #28
 2478 0198 2846     		mov	r0, r5
 2479 019a 0796     		str	r6, [sp, #28]
 2480 019c FFF7FEFF 		bl	TLSX_WriteRequest
 2481 01a0 0446     		mov	r4, r0
 2482 01a2 0028     		cmp	r0, #0
 2483 01a4 7FF433AF 		bne	.L371
 2484 01a8 059B     		ldr	r3, [sp, #20]
 2485 01aa 079A     		ldr	r2, [sp, #28]
 2486 01ac 2921     		movs	r1, #41
 2487 01ae 1344     		add	r3, r3, r2
 2488 01b0 D5F8B003 		ldr	r0, [r5, #944]
 2489 01b4 0593     		str	r3, [sp, #20]
 2490 01b6 FFF7FEFF 		bl	TLSX_Find
 2491 01ba 0028     		cmp	r0, #0
 2492 01bc 00F09C80 		beq	.L389
 2493 01c0 DDE90489 		ldrd	r8, r9, [sp, #16]
 2494 01c4 B9F5803F 		cmp	r9, #65536
 2495 01c8 1AD3     		bcc	.L390
 2496 01ca A4F5CE74 		sub	r4, r4, #412
 2497 01ce 1EE7     		b	.L371
 2498              	.L376:
 2499 01d0 0023     		movs	r3, #0
 2500 01d2 81F85C30 		strb	r3, [r1, #92]
 2501              	.L401:
 2502 01d6 0123     		movs	r3, #1
ARM GAS  /tmp/cc36Vpy0.s 			page 44


 2503 01d8 3EE7     		b	.L375
 2504              	.L378:
 2505 01da 03F65A42 		addw	r2, r3, #3162
 2506 01de 03F67A43 		addw	r3, r3, #3194
 2507              	.L381:
 2508 01e2 52F8040B 		ldr	r0, [r2], #4	@ unaligned
 2509 01e6 9A42     		cmp	r2, r3
 2510 01e8 41F8040B 		str	r0, [r1], #4	@ unaligned
 2511 01ec F9D1     		bne	.L381
 2512 01ee 8BE7     		b	.L380
 2513              	.L383:
 2514 01f0 0021     		movs	r1, #0
 2515 01f2 80F85C10 		strb	r1, [r0, #92]
 2516              	.L382:
 2517 01f6 03B1     		cbz	r3, .L388
 2518 01f8 9954     		strb	r1, [r3, r2]
 2519              	.L388:
 2520 01fa 059B     		ldr	r3, [sp, #20]
 2521 01fc 0133     		adds	r3, r3, #1
 2522 01fe A3E7     		b	.L421
 2523              	.L390:
 2524 0200 2921     		movs	r1, #41
 2525 0202 D5F8B003 		ldr	r0, [r5, #944]
 2526 0206 FFF7FEFF 		bl	TLSX_Find
 2527 020a 0746     		mov	r7, r0
 2528 020c 08B9     		cbnz	r0, .L391
 2529 020e 3F4C     		ldr	r4, .L425
 2530 0210 FDE6     		b	.L371
 2531              	.L391:
 2532 0212 5146     		mov	r1, r10
 2533 0214 4068     		ldr	r0, [r0, #4]
 2534 0216 0DF10E02 		add	r2, sp, #14
 2535 021a FFF7FEFF 		bl	TLSX_PreSharedKey_GetSizeBinders
 2536 021e 041E     		subs	r4, r0, #0
 2537 0220 FFF6F5AE 		blt	.L371
 2538 0224 BDF80E10 		ldrh	r1, [sp, #14]
 2539 0228 3346     		mov	r3, r6
 2540 022a A9EB0109 		sub	r9, r9, r1
 2541 022e 4A46     		mov	r2, r9
 2542 0230 4146     		mov	r1, r8
 2543 0232 2846     		mov	r0, r5
 2544 0234 FFF7FEFF 		bl	HashOutput
 2545 0238 90BB     		cbnz	r0, .L422
 2546 023a 7E68     		ldr	r6, [r7, #4]
 2547 023c 05F5DA7A 		add	r10, r5, #436
 2548              	.L393:
 2549 0240 0EB9     		cbnz	r6, .L398
 2550 0242 3446     		mov	r4, r6
 2551 0244 13E0     		b	.L394
 2552              	.L398:
 2553 0246 0122     		movs	r2, #1
 2554 0248 3146     		mov	r1, r6
 2555 024a 2846     		mov	r0, r5
 2556 024c FFF7FEFF 		bl	SetupPskKey
 2557 0250 0446     		mov	r4, r0
 2558 0252 60B9     		cbnz	r0, .L394
 2559 0254 96F85530 		ldrb	r3, [r6, #85]	@ zero_extendqisi2
ARM GAS  /tmp/cc36Vpy0.s 			page 45


 2560 0258 DB07     		lsls	r3, r3, #31
 2561 025a 38D5     		bpl	.L395
 2562              	.L397:
 2563 025c 0023     		movs	r3, #0
 2564 025e 5246     		mov	r2, r10
 2565 0260 2846     		mov	r0, r5
 2566 0262 08A9     		add	r1, sp, #32
 2567 0264 FFF7FEFF 		bl	DeriveFinishedSecret
 2568 0268 0446     		mov	r4, r0
 2569 026a 0028     		cmp	r0, #0
 2570 026c 37D0     		beq	.L420
 2571              	.L394:
 2572 026e 4021     		movs	r1, #64
 2573 0270 08A8     		add	r0, sp, #32
 2574 0272 FFF7FEFF 		bl	ForceZero
 2575 0276 002C     		cmp	r4, #0
 2576 0278 7FF4C9AE 		bne	.L371
 2577 027c 08EB0901 		add	r1, r8, r9
 2578 0280 0122     		movs	r2, #1
 2579 0282 7868     		ldr	r0, [r7, #4]
 2580 0284 0DF10E03 		add	r3, sp, #14
 2581 0288 0191     		str	r1, [sp, #4]
 2582 028a FFF7FEFF 		bl	TLSX_PreSharedKey_WriteBinders
 2583 028e 041E     		subs	r4, r0, #0
 2584 0290 FFF6BDAE 		blt	.L371
 2585 0294 2846     		mov	r0, r5
 2586 0296 BDF80E20 		ldrh	r2, [sp, #14]
 2587 029a 0199     		ldr	r1, [sp, #4]
 2588 029c FFF7FEFF 		bl	HashRaw
 2589              	.L422:
 2590 02a0 0446     		mov	r4, r0
 2591 02a2 0028     		cmp	r0, #0
 2592 02a4 7FF4B3AE 		bne	.L371
 2593 02a8 0C23     		movs	r3, #12
 2594 02aa 069A     		ldr	r2, [sp, #24]
 2595 02ac 85F80233 		strb	r3, [r5, #770]
 2596 02b0 D5F8F430 		ldr	r3, [r5, #244]
 2597 02b4 85F8F402 		strb	r0, [r5, #756]
 2598 02b8 1344     		add	r3, r3, r2
 2599 02ba C5F8F430 		str	r3, [r5, #244]
 2600 02be 0523     		movs	r3, #5
 2601 02c0 2846     		mov	r0, r5
 2602 02c2 85F80833 		strb	r3, [r5, #776]
 2603 02c6 FFF7FEFF 		bl	SendBuffered
 2604 02ca 0446     		mov	r4, r0
 2605 02cc 9FE6     		b	.L371
 2606              	.L395:
 2607 02ce 2846     		mov	r0, r5
 2608 02d0 08A9     		add	r1, sp, #32
 2609 02d2 FFF7FEFF 		bl	DeriveBinderKey
 2610 02d6 0446     		mov	r4, r0
 2611 02d8 0028     		cmp	r0, #0
 2612 02da BFD0     		beq	.L397
 2613 02dc C7E7     		b	.L394
 2614              	.L420:
 2615 02de 5146     		mov	r1, r10
 2616 02e0 2846     		mov	r0, r5
ARM GAS  /tmp/cc36Vpy0.s 			page 46


 2617 02e2 06F11003 		add	r3, r6, #16
 2618 02e6 06F11402 		add	r2, r6, #20
 2619 02ea FFF7FEFF 		bl	BuildTls13HandshakeHmac
 2620 02ee 0446     		mov	r4, r0
 2621 02f0 0028     		cmp	r0, #0
 2622 02f2 BCD1     		bne	.L394
 2623 02f4 B66D     		ldr	r6, [r6, #88]
 2624 02f6 A3E7     		b	.L393
 2625              	.L389:
 2626 02f8 2346     		mov	r3, r4
 2627 02fa DDE90412 		ldrd	r1, r2, [sp, #16]
 2628 02fe 2846     		mov	r0, r5
 2629 0300 FFF7FEFF 		bl	HashOutput
 2630 0304 CCE7     		b	.L422
 2631              	.L400:
 2632 0306 6FF4B974 		mvn	r4, #370
 2633 030a 80E6     		b	.L371
 2634              	.L426:
 2635              		.align	2
 2636              	.L425:
 2637 030c 76FEFFFF 		.word	-394
 2639              		.section	.text.DoTls13ServerHello,"ax",%progbits
 2640              		.align	1
 2641              		.global	DoTls13ServerHello
 2642              		.syntax unified
 2643              		.thumb
 2644              		.thumb_func
 2645              		.fpu fpv4-sp-d16
 2647              	DoTls13ServerHello:
 2648              		@ args = 4, pretend = 0, frame = 32
 2649              		@ frame_needed = 0, uses_anonymous_args = 0
 2650 0000 2DE9F04F 		push	{r4, r5, r6, r7, r8, r9, r10, fp, lr}
 2651 0004 2DED028B 		vpush.64	{d8}
 2652 0008 8BB0     		sub	sp, sp, #44
 2653 000a 0D46     		mov	r5, r1
 2654 000c 9146     		mov	r9, r2
 2655 000e 1E46     		mov	r6, r3
 2656 0010 0446     		mov	r4, r0
 2657 0012 DDF85880 		ldr	r8, [sp, #88]
 2658 0016 0028     		cmp	r0, #0
 2659 0018 00F0EB81 		beq	.L469
 2660 001c C368     		ldr	r3, [r0, #12]
 2661 001e 002B     		cmp	r3, #0
 2662 0020 00F0E781 		beq	.L469
 2663 0024 4FF0000A 		mov	r10, #0
 2664 0028 1422     		movs	r2, #20
 2665 002a 80F808A3 		strb	r10, [r0, #776]
 2666 002e 5146     		mov	r1, r10
 2667 0030 0DEB0200 		add	r0, sp, r2
 2668 0034 FFF7FEFF 		bl	memset
 2669 0038 012E     		cmp	r6, #1
 2670 003a 02D8     		bhi	.L429
 2671              	.L508:
 2672 003c DFF874A3 		ldr	r10, .L511+4
 2673 0040 BAE0     		b	.L427
 2674              	.L429:
 2675 0042 D9F80030 		ldr	r3, [r9]
ARM GAS  /tmp/cc36Vpy0.s 			page 47


 2676 0046 94F89E71 		ldrb	r7, [r4, #414]	@ zero_extendqisi2
 2677 004a EA5A     		ldrh	r2, [r5, r3]	@ unaligned
 2678 004c 981C     		adds	r0, r3, #2
 2679 004e D1B2     		uxtb	r1, r2
 2680 0050 8F42     		cmp	r7, r1
 2681 0052 0793     		str	r3, [sp, #28]
 2682 0054 ADF81420 		strh	r2, [sp, #20]	@ movhi
 2683 0058 0690     		str	r0, [sp, #24]
 2684 005a 21D1     		bne	.L448
 2685 005c 110A     		lsrs	r1, r2, #8
 2686 005e B2F5407F 		cmp	r2, #768
 2687 0062 0291     		str	r1, [sp, #8]
 2688 0064 19D2     		bcs	.L431
 2689 0066 94F8ED32 		ldrb	r3, [r4, #749]	@ zero_extendqisi2
 2690 006a 1807     		lsls	r0, r3, #28
 2691 006c 18D5     		bpl	.L448
 2692 006e 0323     		movs	r3, #3
 2693 0070 84F8A131 		strb	r3, [r4, #417]
 2694 0074 84F89F31 		strb	r3, [r4, #415]
 2695 0078 94F8EE32 		ldrb	r3, [r4, #750]	@ zero_extendqisi2
 2696 007c 6AF34103 		bfi	r3, r10, #1, #1
 2697              	.L509:
 2698 0080 84F8EE32 		strb	r3, [r4, #750]
 2699              	.L510:
 2700 0084 3346     		mov	r3, r6
 2701 0086 4A46     		mov	r2, r9
 2702 0088 2946     		mov	r1, r5
 2703 008a 2046     		mov	r0, r4
 2704 008c 0BB0     		add	sp, sp, #44
 2705              		@ sp needed
 2706 008e BDEC028B 		vldm	sp!, {d8}
 2707 0092 BDE8F04F 		pop	{r4, r5, r6, r7, r8, r9, r10, fp, lr}
 2708 0096 FFF7FEBF 		b	DoServerHello
 2709              	.L431:
 2710 009a 029A     		ldr	r2, [sp, #8]
 2711 009c 032A     		cmp	r2, #3
 2712 009e 07D0     		beq	.L432
 2713              	.L448:
 2714 00a0 4622     		movs	r2, #70
 2715 00a2 0221     		movs	r1, #2
 2716 00a4 2046     		mov	r0, r4
 2717 00a6 FFF7FEFF 		bl	SendAlert
 2718              	.L470:
 2719 00aa DFF80CA3 		ldr	r10, .L511+8
 2720 00ae 83E0     		b	.L427
 2721              	.L432:
 2722 00b0 222E     		cmp	r6, #34
 2723 00b2 0393     		str	r3, [sp, #12]
 2724 00b4 C2D9     		bls	.L508
 2725 00b6 2F18     		adds	r7, r5, r0
 2726 00b8 2022     		movs	r2, #32
 2727 00ba 3846     		mov	r0, r7
 2728 00bc BC49     		ldr	r1, .L511
 2729 00be FFF7FEFF 		bl	memcmp
 2730 00c2 039B     		ldr	r3, [sp, #12]
 2731 00c4 0028     		cmp	r0, #0
 2732 00c6 60D0     		beq	.L434
ARM GAS  /tmp/cc36Vpy0.s 			page 48


 2733              	.L437:
 2734 00c8 3846     		mov	r0, r7
 2735 00ca 98F800B0 		ldrb	fp, [r8]	@ zero_extendqisi2
 2736 00ce E268     		ldr	r2, [r4, #12]
 2737 00d0 8DF827B0 		strb	fp, [sp, #39]
 2738 00d4 02F67A42 		addw	r2, r2, #3194
 2739 00d8 07F12001 		add	r1, r7, #32
 2740              	.L435:
 2741 00dc 50F8047B 		ldr	r7, [r0], #4	@ unaligned
 2742 00e0 8842     		cmp	r0, r1
 2743 00e2 42F8047B 		str	r7, [r2], #4	@ unaligned
 2744 00e6 F9D1     		bne	.L435
 2745 00e8 EA18     		adds	r2, r5, r3
 2746 00ea 92F82270 		ldrb	r7, [r2, #34]	@ zero_extendqisi2
 2747 00ee 03F12301 		add	r1, r3, #35
 2748 00f2 07F12302 		add	r2, r7, #35
 2749 00f6 B242     		cmp	r2, r6
 2750 00f8 8DF82670 		strb	r7, [sp, #38]
 2751 00fc 9ED8     		bhi	.L508
 2752 00fe 6A18     		adds	r2, r5, r1
 2753 0100 0892     		str	r2, [sp, #32]
 2754 0102 08EE102A 		vmov	s16, r2	@ int
 2755 0106 94F8ED22 		ldrb	r2, [r4, #749]	@ zero_extendqisi2
 2756 010a 3944     		add	r1, r1, r7
 2757 010c 42F04002 		orr	r2, r2, #64
 2758 0110 84F8ED22 		strb	r2, [r4, #749]
 2759 0114 C3F10302 		rsb	r2, r3, #3
 2760 0118 0A44     		add	r2, r2, r1
 2761 011a B242     		cmp	r2, r6
 2762 011c 8ED8     		bhi	.L508
 2763 011e 685C     		ldrb	r0, [r5, r1]	@ zero_extendqisi2
 2764 0120 6A18     		adds	r2, r5, r1
 2765 0122 84F8F902 		strb	r0, [r4, #761]
 2766 0126 5278     		ldrb	r2, [r2, #1]	@ zero_extendqisi2
 2767 0128 01F1020C 		add	ip, r1, #2
 2768 012c 84F8FA22 		strb	r2, [r4, #762]
 2769 0130 98F800E0 		ldrb	lr, [r8]	@ zero_extendqisi2
 2770 0134 BEF1060F 		cmp	lr, #6
 2771 0138 33D1     		bne	.L438
 2772 013a 84F8FB02 		strb	r0, [r4, #763]
 2773 013e 84F8FC22 		strb	r2, [r4, #764]
 2774              	.L439:
 2775 0142 15F80C00 		ldrb	r0, [r5, ip]	@ zero_extendqisi2
 2776 0146 CA1C     		adds	r2, r1, #3
 2777 0148 0692     		str	r2, [sp, #24]
 2778 014a 98BB     		cbnz	r0, .L441
 2779 014c A2EB030C 		sub	ip, r2, r3
 2780 0150 0CF1020E 		add	lr, ip, #2
 2781 0154 B645     		cmp	lr, r6
 2782 0156 3AD9     		bls	.L442
 2783 0158 94F8ED32 		ldrb	r3, [r4, #749]	@ zero_extendqisi2
 2784 015c 1F07     		lsls	r7, r3, #28
 2785 015e 7FF56DAF 		bpl	.L508
 2786 0162 0323     		movs	r3, #3
 2787 0164 84F8A131 		strb	r3, [r4, #417]
 2788 0168 84F89F31 		strb	r3, [r4, #415]
 2789 016c 94F8F132 		ldrb	r3, [r4, #753]	@ zero_extendqisi2
ARM GAS  /tmp/cc36Vpy0.s 			page 49


 2790 0170 60F30413 		bfi	r3, r0, #4, #1
 2791 0174 84F8F132 		strb	r3, [r4, #753]
 2792 0178 94F80533 		ldrb	r3, [r4, #773]	@ zero_extendqisi2
 2793 017c 032B     		cmp	r3, #3
 2794 017e 8FD8     		bhi	.L448
 2795 0180 94F8EE32 		ldrb	r3, [r4, #750]	@ zero_extendqisi2
 2796 0184 60F34103 		bfi	r3, r0, #1, #1
 2797 0188 7AE7     		b	.L509
 2798              	.L434:
 2799 018a 0622     		movs	r2, #6
 2800 018c 88F80020 		strb	r2, [r8]
 2801 0190 94F89A21 		ldrb	r2, [r4, #410]	@ zero_extendqisi2
 2802 0194 D106     		lsls	r1, r2, #27
 2803 0196 88D4     		bmi	.L470
 2804 0198 1206     		lsls	r2, r2, #24
 2805 019a 95D5     		bpl	.L437
 2806              	.L471:
 2807 019c 6FF4C57A 		mvn	r10, #394
 2808 01a0 0AE0     		b	.L427
 2809              	.L438:
 2810 01a2 94F99AE1 		ldrsb	lr, [r4, #410]
 2811 01a6 BEF1000F 		cmp	lr, #0
 2812 01aa CADA     		bge	.L439
 2813 01ac 94F8FBE2 		ldrb	lr, [r4, #763]	@ zero_extendqisi2
 2814 01b0 8645     		cmp	lr, r0
 2815 01b2 07D0     		beq	.L440
 2816              	.L441:
 2817 01b4 6FF4D47A 		mvn	r10, #424
 2818              	.L427:
 2819 01b8 5046     		mov	r0, r10
 2820 01ba 0BB0     		add	sp, sp, #44
 2821              		@ sp needed
 2822 01bc BDEC028B 		vldm	sp!, {d8}
 2823 01c0 BDE8F08F 		pop	{r4, r5, r6, r7, r8, r9, r10, fp, pc}
 2824              	.L440:
 2825 01c4 94F8FC02 		ldrb	r0, [r4, #764]	@ zero_extendqisi2
 2826 01c8 9042     		cmp	r0, r2
 2827 01ca BAD0     		beq	.L439
 2828 01cc F2E7     		b	.L441
 2829              	.L442:
 2830 01ce B445     		cmp	ip, r6
 2831 01d0 30D2     		bcs	.L443
 2832 01d2 A85A     		ldrh	r0, [r5, r2]	@ unaligned
 2833 01d4 0531     		adds	r1, r1, #5
 2834 01d6 40BA     		rev16	r0, r0
 2835 01d8 CB1A     		subs	r3, r1, r3
 2836 01da 13FA80F3 		uxtah	r3, r3, r0
 2837 01de B342     		cmp	r3, r6
 2838 01e0 82B2     		uxth	r2, r0
 2839 01e2 ADF82400 		strh	r0, [sp, #36]	@ movhi
 2840 01e6 0691     		str	r1, [sp, #24]
 2841 01e8 3FF628AF 		bhi	.L508
 2842 01ec 04AB     		add	r3, sp, #16
 2843 01ee 0093     		str	r3, [sp]
 2844 01f0 2046     		mov	r0, r4
 2845 01f2 98F80030 		ldrb	r3, [r8]	@ zero_extendqisi2
 2846 01f6 2944     		add	r1, r1, r5
ARM GAS  /tmp/cc36Vpy0.s 			page 50


 2847 01f8 FFF7FEFF 		bl	TLSX_ParseVersion
 2848 01fc 8246     		mov	r10, r0
 2849 01fe 0028     		cmp	r0, #0
 2850 0200 DAD1     		bne	.L427
 2851 0202 049B     		ldr	r3, [sp, #16]
 2852 0204 B3B9     		cbnz	r3, .L443
 2853 0206 94F8ED32 		ldrb	r3, [r4, #749]	@ zero_extendqisi2
 2854 020a 1907     		lsls	r1, r3, #28
 2855 020c 7FF548AF 		bpl	.L448
 2856 0210 94F8EE22 		ldrb	r2, [r4, #750]	@ zero_extendqisi2
 2857 0214 94F80533 		ldrb	r3, [r4, #773]	@ zero_extendqisi2
 2858 0218 5207     		lsls	r2, r2, #29
 2859 021a 50D4     		bmi	.L447
 2860 021c 032B     		cmp	r3, #3
 2861 021e 3FF63FAF 		bhi	.L448
 2862              	.L449:
 2863 0222 0323     		movs	r3, #3
 2864 0224 84F89F31 		strb	r3, [r4, #415]
 2865 0228 94F8EE32 		ldrb	r3, [r4, #750]	@ zero_extendqisi2
 2866 022c 6FF34103 		bfc	r3, #1, #1
 2867 0230 84F8EE32 		strb	r3, [r4, #750]
 2868              	.L443:
 2869 0234 0123     		movs	r3, #1
 2870 0236 84F80833 		strb	r3, [r4, #776]
 2871 023a 88F800B0 		strb	fp, [r8]
 2872 023e BDF824B0 		ldrh	fp, [sp, #36]
 2873 0242 BBF1000F 		cmp	fp, #0
 2874 0246 22D0     		beq	.L450
 2875 0248 B4F89E01 		ldrh	r0, [r4, #414]
 2876 024c FFF7FEFF 		bl	IsAtLeastTLSv1_3
 2877 0250 069B     		ldr	r3, [sp, #24]
 2878 0252 0393     		str	r3, [sp, #12]
 2879 0254 C0B1     		cbz	r0, .L452
 2880 0256 0023     		movs	r3, #0
 2881 0258 0399     		ldr	r1, [sp, #12]
 2882 025a 0093     		str	r3, [sp]
 2883 025c 5A46     		mov	r2, fp
 2884 025e 2046     		mov	r0, r4
 2885 0260 98F80030 		ldrb	r3, [r8]	@ zero_extendqisi2
 2886 0264 6918     		adds	r1, r5, r1
 2887 0266 FFF7FEFF 		bl	TLSX_Parse
 2888 026a 8246     		mov	r10, r0
 2889 026c 0028     		cmp	r0, #0
 2890 026e A3D1     		bne	.L427
 2891 0270 98F80030 		ldrb	r3, [r8]	@ zero_extendqisi2
 2892 0274 062B     		cmp	r3, #6
 2893 0276 07D1     		bne	.L452
 2894 0278 94F89A31 		ldrb	r3, [r4, #410]	@ zero_extendqisi2
 2895 027c 03F07703 		and	r3, r3, #119
 2896 0280 63F07F03 		orn	r3, r3, #127
 2897 0284 84F89A31 		strb	r3, [r4, #410]
 2898              	.L452:
 2899 0288 039A     		ldr	r2, [sp, #12]
 2900 028a 5A44     		add	r2, r2, fp
 2901 028c 0692     		str	r2, [sp, #24]
 2902              	.L450:
 2903 028e B4F89E01 		ldrh	r0, [r4, #414]
ARM GAS  /tmp/cc36Vpy0.s 			page 51


 2904 0292 FFF7FEFF 		bl	IsAtLeastTLSv1_3
 2905 0296 10B1     		cbz	r0, .L453
 2906 0298 069B     		ldr	r3, [sp, #24]
 2907 029a C9F80030 		str	r3, [r9]
 2908              	.L453:
 2909 029e 0323     		movs	r3, #3
 2910 02a0 B4F89E01 		ldrh	r0, [r4, #414]
 2911 02a4 84F80133 		strb	r3, [r4, #769]
 2912 02a8 FFF7FEFF 		bl	IsAtLeastTLSv1_3
 2913 02ac 18BB     		cbnz	r0, .L454
 2914 02ae E368     		ldr	r3, [r4, #12]
 2915 02b0 202F     		cmp	r7, #32
 2916 02b2 83F8BA7C 		strb	r7, [r3, #3258]
 2917 02b6 05D9     		bls	.L455
 2918 02b8 83F8BA0C 		strb	r0, [r3, #3258]
 2919 02bc BEE6     		b	.L508
 2920              	.L447:
 2921 02be 022B     		cmp	r3, #2
 2922 02c0 AFD8     		bhi	.L449
 2923 02c2 EDE6     		b	.L448
 2924              	.L455:
 2925 02c4 67B1     		cbz	r7, .L456
 2926 02c6 03F69A40 		addw	r0, r3, #3226
 2927 02ca 3A46     		mov	r2, r7
 2928 02cc 18EE101A 		vmov	r1, s16	@ int
 2929 02d0 FFF7FEFF 		bl	memcpy
 2930 02d4 94F8ED32 		ldrb	r3, [r4, #749]	@ zero_extendqisi2
 2931 02d8 43F04003 		orr	r3, r3, #64
 2932 02dc 84F8ED32 		strb	r3, [r4, #749]
 2933              	.L456:
 2934 02e0 94F8EE32 		ldrb	r3, [r4, #750]	@ zero_extendqisi2
 2935 02e4 13F0040F 		tst	r3, #4
 2936 02e8 029B     		ldr	r3, [sp, #8]
 2937 02ea 18BF     		it	ne
 2938 02ec FD23     		movne	r3, #253
 2939 02ee 0293     		str	r3, [sp, #8]
 2940 02f0 84F8A131 		strb	r3, [r4, #417]
 2941 02f4 C6E6     		b	.L510
 2942              	.L454:
 2943 02f6 0423     		movs	r3, #4
 2944 02f8 D4F85001 		ldr	r0, [r4, #336]
 2945 02fc 84F80833 		strb	r3, [r4, #776]
 2946 0300 90F85C30 		ldrb	r3, [r0, #92]	@ zero_extendqisi2
 2947 0304 BB42     		cmp	r3, r7
 2948 0306 7FF455AF 		bne	.L441
 2949 030a 47B1     		cbz	r7, .L458
 2950 030c 3A46     		mov	r2, r7
 2951 030e 18EE101A 		vmov	r1, s16	@ int
 2952 0312 3C30     		adds	r0, r0, #60
 2953 0314 FFF7FEFF 		bl	memcmp
 2954 0318 0028     		cmp	r0, #0
 2955 031a 7FF44BAF 		bne	.L441
 2956              	.L458:
 2957 031e 2046     		mov	r0, r4
 2958 0320 FFF7FEFF 		bl	SetCipherSpecs
 2959 0324 8246     		mov	r10, r0
 2960 0326 0028     		cmp	r0, #0
ARM GAS  /tmp/cc36Vpy0.s 			page 52


 2961 0328 7FF446AF 		bne	.L427
 2962 032c 94F8F922 		ldrb	r2, [r4, #761]	@ zero_extendqisi2
 2963 0330 132A     		cmp	r2, #19
 2964 0332 7FF43FAF 		bne	.L441
 2965 0336 8DF81020 		strb	r2, [sp, #16]
 2966 033a 94F8FA22 		ldrb	r2, [r4, #762]	@ zero_extendqisi2
 2967 033e 2046     		mov	r0, r4
 2968 0340 04A9     		add	r1, sp, #16
 2969 0342 8DF81120 		strb	r2, [sp, #17]
 2970 0346 FFF7FEFF 		bl	FindSuiteSSL
 2971 034a 0028     		cmp	r0, #0
 2972 034c 54D0     		beq	.L474
 2973 034e 98F80020 		ldrb	r2, [r8]	@ zero_extendqisi2
 2974 0352 022A     		cmp	r2, #2
 2975 0354 32D1     		bne	.L459
 2976 0356 2921     		movs	r1, #41
 2977 0358 D4F8B003 		ldr	r0, [r4, #944]
 2978 035c FFF7FEFF 		bl	TLSX_Find
 2979 0360 0028     		cmp	r0, #0
 2980 0362 4FD0     		beq	.L460
 2981 0364 4168     		ldr	r1, [r0, #4]
 2982              	.L461:
 2983 0366 0029     		cmp	r1, #0
 2984 0368 4CD0     		beq	.L460
 2985 036a 91F85520 		ldrb	r2, [r1, #85]	@ zero_extendqisi2
 2986 036e 9007     		lsls	r0, r2, #30
 2987 0370 06D5     		bpl	.L462
 2988 0372 0022     		movs	r2, #0
 2989 0374 2046     		mov	r0, r4
 2990 0376 FFF7FEFF 		bl	SetupPskKey
 2991 037a 18B1     		cbz	r0, .L507
 2992 037c 8246     		mov	r10, r0
 2993 037e 1BE7     		b	.L427
 2994              	.L462:
 2995 0380 896D     		ldr	r1, [r1, #88]
 2996 0382 F0E7     		b	.L461
 2997              	.L507:
 2998 0384 94F8F222 		ldrb	r2, [r4, #754]	@ zero_extendqisi2
 2999 0388 42F00802 		orr	r2, r2, #8
 3000 038c 84F8F222 		strb	r2, [r4, #754]
 3001              	.L466:
 3002 0390 94F8F222 		ldrb	r2, [r4, #754]	@ zero_extendqisi2
 3003 0394 1207     		lsls	r2, r2, #28
 3004 0396 04D4     		bmi	.L464
 3005 0398 D4F85021 		ldr	r2, [r4, #336]
 3006 039c B2F8A820 		ldrh	r2, [r2, #168]
 3007 03a0 6AB3     		cbz	r2, .L475
 3008              	.L464:
 3009 03a2 0122     		movs	r2, #1
 3010 03a4 84F8CC22 		strb	r2, [r4, #716]
 3011 03a8 0322     		movs	r2, #3
 3012 03aa 84F80123 		strb	r2, [r4, #769]
 3013 03ae 03E7     		b	.L427
 3014              	.L512:
 3015              		.align	2
 3016              	.L511:
 3017 03b0 00000000 		.word	.LANCHOR12
ARM GAS  /tmp/cc36Vpy0.s 			page 53


 3018 03b4 B8FEFFFF 		.word	-328
 3019 03b8 BAFEFFFF 		.word	-326
 3020              	.L459:
 3021 03bc 94F8F232 		ldrb	r3, [r4, #754]	@ zero_extendqisi2
 3022 03c0 5B06     		lsls	r3, r3, #25
 3023 03c2 05D4     		bmi	.L465
 3024 03c4 2F22     		movs	r2, #47
 3025 03c6 0221     		movs	r1, #2
 3026 03c8 2046     		mov	r0, r4
 3027 03ca FFF7FEFF 		bl	SendAlert
 3028 03ce E5E6     		b	.L471
 3029              	.L465:
 3030 03d0 94F8EE32 		ldrb	r3, [r4, #750]	@ zero_extendqisi2
 3031 03d4 2046     		mov	r0, r4
 3032 03d6 43F00203 		orr	r3, r3, #2
 3033 03da 84F8EE32 		strb	r3, [r4, #750]
 3034 03de 0223     		movs	r3, #2
 3035 03e0 84F80133 		strb	r3, [r4, #769]
 3036 03e4 0BB0     		add	sp, sp, #44
 3037              		@ sp needed
 3038 03e6 BDEC028B 		vldm	sp!, {d8}
 3039 03ea BDE8F04F 		pop	{r4, r5, r6, r7, r8, r9, r10, fp, lr}
 3040 03ee FFF7FEBF 		b	RestartHandshakeHash
 3041              	.L469:
 3042 03f2 6FF0AC0A 		mvn	r10, #172
 3043 03f6 DFE6     		b	.L427
 3044              	.L474:
 3045 03f8 6FF4FA7A 		mvn	r10, #500
 3046 03fc DCE6     		b	.L427
 3047              	.L475:
 3048 03fe DFF824A0 		ldr	r10, .L513
 3049 0402 D9E6     		b	.L427
 3050              	.L460:
 3051 0404 0021     		movs	r1, #0
 3052 0406 94F8ED22 		ldrb	r2, [r4, #749]	@ zero_extendqisi2
 3053 040a E068     		ldr	r0, [r4, #12]
 3054 040c 6FF30412 		bfc	r2, #4, #1
 3055 0410 84F8ED22 		strb	r2, [r4, #749]
 3056 0414 4161     		str	r1, [r0, #20]
 3057 0416 4022     		movs	r2, #64
 3058 0418 00F61A40 		addw	r0, r0, #3098
 3059 041c FFF7FEFF 		bl	memset
 3060 0420 B6E7     		b	.L466
 3061              	.L514:
 3062 0422 00BF     		.align	2
 3063              	.L513:
 3064 0424 54FEFFFF 		.word	-428
 3066              		.section	.text.FindPskSuite,"ax",%progbits
 3067              		.align	1
 3068              		.global	FindPskSuite
 3069              		.syntax unified
 3070              		.thumb
 3071              		.thumb_func
 3072              		.fpu fpv4-sp-d16
 3074              	FindPskSuite:
 3075              		@ args = 12, pretend = 0, frame = 16
 3076              		@ frame_needed = 0, uses_anonymous_args = 0
ARM GAS  /tmp/cc36Vpy0.s 			page 54


 3077 0000 2DE9F04F 		push	{r4, r5, r6, r7, r8, r9, r10, fp, lr}
 3078 0004 1D46     		mov	r5, r3
 3079 0006 1323     		movs	r3, #19
 3080 0008 87B0     		sub	sp, sp, #28
 3081 000a 0027     		movs	r7, #0
 3082 000c DDE91149 		ldrd	r4, r9, [sp, #68]
 3083 0010 8DF80E30 		strb	r3, [sp, #14]
 3084 0014 0123     		movs	r3, #1
 3085 0016 D0F8E0B2 		ldr	fp, [r0, #736]
 3086 001a 0646     		mov	r6, r0
 3087 001c 8846     		mov	r8, r1
 3088 001e 9246     		mov	r10, r2
 3089 0020 0497     		str	r7, [sp, #16]
 3090 0022 8DF80F30 		strb	r3, [sp, #15]
 3091 0026 2760     		str	r7, [r4]
 3092 0028 BBF1000F 		cmp	fp, #0
 3093 002c 05D1     		bne	.L516
 3094              	.L520:
 3095 002e D6F8D472 		ldr	r7, [r6, #724]
 3096 0032 002F     		cmp	r7, #0
 3097 0034 2DD1     		bne	.L517
 3098              	.L540:
 3099 0036 0020     		movs	r0, #0
 3100 0038 41E0     		b	.L523
 3101              	.L516:
 3102 003a 04AB     		add	r3, sp, #16
 3103 003c 0093     		str	r3, [sp]
 3104 003e 4968     		ldr	r1, [r1, #4]
 3105 0040 4023     		movs	r3, #64
 3106 0042 D847     		blx	fp
 3107 0044 2860     		str	r0, [r5]
 3108 0046 78B1     		cbz	r0, .L519
 3109 0048 05AB     		add	r3, sp, #20
 3110 004a CDE90073 		strd	r7, r3, [sp]
 3111 004e 0498     		ldr	r0, [sp, #16]
 3112 0050 3B46     		mov	r3, r7
 3113 0052 0DF10F02 		add	r2, sp, #15
 3114 0056 0DF10E01 		add	r1, sp, #14
 3115 005a 0597     		str	r7, [sp, #20]
 3116 005c FFF7FEFF 		bl	GetCipherSuiteFromName
 3117 0060 B0FA80F0 		clz	r0, r0
 3118 0064 4009     		lsrs	r0, r0, #5
 3119 0066 2060     		str	r0, [r4]
 3120              	.L519:
 3121 0068 2368     		ldr	r3, [r4]
 3122 006a 002B     		cmp	r3, #0
 3123 006c DFD0     		beq	.L520
 3124              	.L524:
 3125 006e 2B68     		ldr	r3, [r5]
 3126 0070 402B     		cmp	r3, #64
 3127 0072 1CD8     		bhi	.L521
 3128              	.L522:
 3129 0074 109B     		ldr	r3, [sp, #64]
 3130 0076 1A78     		ldrb	r2, [r3]	@ zero_extendqisi2
 3131 0078 9DF80E30 		ldrb	r3, [sp, #14]	@ zero_extendqisi2
 3132 007c 9A42     		cmp	r2, r3
 3133 007e 2ED1     		bne	.L527
ARM GAS  /tmp/cc36Vpy0.s 			page 55


 3134 0080 109B     		ldr	r3, [sp, #64]
 3135 0082 9DF80F20 		ldrb	r2, [sp, #15]	@ zero_extendqisi2
 3136 0086 5B78     		ldrb	r3, [r3, #1]	@ zero_extendqisi2
 3137 0088 9A1A     		subs	r2, r3, r2
 3138 008a 5342     		rsbs	r3, r2, #0
 3139 008c 5341     		adcs	r3, r3, r2
 3140              	.L525:
 3141 008e 2360     		str	r3, [r4]
 3142 0090 D1E7     		b	.L540
 3143              	.L517:
 3144 0092 4023     		movs	r3, #64
 3145 0094 5246     		mov	r2, r10
 3146 0096 3046     		mov	r0, r6
 3147 0098 D8F80410 		ldr	r1, [r8, #4]
 3148 009c B847     		blx	r7
 3149 009e 0028     		cmp	r0, #0
 3150 00a0 14BF     		ite	ne
 3151 00a2 0123     		movne	r3, #1
 3152 00a4 0023     		moveq	r3, #0
 3153 00a6 2860     		str	r0, [r5]
 3154 00a8 2360     		str	r3, [r4]
 3155 00aa C4D0     		beq	.L540
 3156 00ac DFE7     		b	.L524
 3157              	.L521:
 3158 00ae 6FF49272 		mvn	r2, #292
 3159 00b2 9342     		cmp	r3, r2
 3160 00b4 DED0     		beq	.L522
 3161 00b6 0023     		movs	r3, #0
 3162 00b8 6FF4A670 		mvn	r0, #332
 3163 00bc 2360     		str	r3, [r4]
 3164              	.L523:
 3165 00be 2368     		ldr	r3, [r4]
 3166 00c0 53B1     		cbz	r3, .L515
 3167 00c2 B9F1000F 		cmp	r9, #0
 3168 00c6 07D0     		beq	.L515
 3169 00c8 9DF80E30 		ldrb	r3, [sp, #14]	@ zero_extendqisi2
 3170 00cc 89F80030 		strb	r3, [r9]
 3171 00d0 9DF80F30 		ldrb	r3, [sp, #15]	@ zero_extendqisi2
 3172 00d4 89F80130 		strb	r3, [r9, #1]
 3173              	.L515:
 3174 00d8 07B0     		add	sp, sp, #28
 3175              		@ sp needed
 3176 00da BDE8F08F 		pop	{r4, r5, r6, r7, r8, r9, r10, fp, pc}
 3177              	.L527:
 3178 00de 0023     		movs	r3, #0
 3179 00e0 D5E7     		b	.L525
 3181              		.section	.text.DoTls13ClientHello,"ax",%progbits
 3182              		.align	1
 3183              		.global	DoTls13ClientHello
 3184              		.syntax unified
 3185              		.thumb
 3186              		.thumb_func
 3187              		.fpu fpv4-sp-d16
 3189              	DoTls13ClientHello:
 3190              		@ args = 0, pretend = 0, frame = 176
 3191              		@ frame_needed = 0, uses_anonymous_args = 0
 3192 0000 2DE9F04F 		push	{r4, r5, r6, r7, r8, r9, r10, fp, lr}
ARM GAS  /tmp/cc36Vpy0.s 			page 56


 3193 0004 8846     		mov	r8, r1
 3194 0006 0021     		movs	r1, #0
 3195 0008 1E46     		mov	r6, r3
 3196 000a B1B0     		sub	sp, sp, #196
 3197 000c 0692     		str	r2, [sp, #24]
 3198 000e 80F80813 		strb	r1, [r0, #776]
 3199 0012 0446     		mov	r4, r0
 3200 0014 1022     		movs	r2, #16
 3201 0016 0CA8     		add	r0, sp, #48
 3202 0018 FFF7FEFF 		bl	memset
 3203 001c 069B     		ldr	r3, [sp, #24]
 3204 001e 222E     		cmp	r6, #34
 3205 0020 1F68     		ldr	r7, [r3]
 3206 0022 CDE90D77 		strd	r7, r7, [sp, #52]
 3207 0026 0AD8     		bhi	.L542
 3208              	.L550:
 3209 0028 AB4D     		ldr	r5, .L656
 3210              	.L543:
 3211 002a A068     		ldr	r0, [r4, #8]
 3212 002c 18B1     		cbz	r0, .L541
 3213 002e FFF7FEFF 		bl	wolfSSL_Free
 3214 0032 0023     		movs	r3, #0
 3215 0034 A360     		str	r3, [r4, #8]
 3216              	.L541:
 3217 0036 2846     		mov	r0, r5
 3218 0038 31B0     		add	sp, sp, #196
 3219              		@ sp needed
 3220 003a BDE8F08F 		pop	{r4, r5, r6, r7, r8, r9, r10, fp, pc}
 3221              	.L542:
 3222 003e 38F80730 		ldrh	r3, [r8, r7]	@ unaligned
 3223 0042 07F1020A 		add	r10, r7, #2
 3224 0046 DAB2     		uxtb	r2, r3
 3225 0048 022A     		cmp	r2, #2
 3226 004a 08EB0709 		add	r9, r8, r7
 3227 004e ADF83030 		strh	r3, [sp, #48]	@ movhi
 3228 0052 A4F8A031 		strh	r3, [r4, #416]	@ movhi
 3229 0056 CDF834A0 		str	r10, [sp, #52]
 3230 005a 01D8     		bhi	.L544
 3231              	.L611:
 3232 005c 9F4D     		ldr	r5, .L656+4
 3233 005e E4E7     		b	.L543
 3234              	.L544:
 3235 0060 94F8EE12 		ldrb	r1, [r4, #750]	@ zero_extendqisi2
 3236 0064 4807     		lsls	r0, r1, #29
 3237 0066 36D4     		bmi	.L545
 3238 0068 032A     		cmp	r2, #3
 3239 006a 08D1     		bne	.L546
 3240 006c C3F30722 		ubfx	r2, r3, #8, #8
 3241 0070 1B0A     		lsrs	r3, r3, #8
 3242 0072 032B     		cmp	r3, #3
 3243 0074 F2D8     		bhi	.L611
 3244 0076 2ED0     		beq	.L545
 3245 0078 84F89F21 		strb	r2, [r4, #415]
 3246 007c 06E0     		b	.L549
 3247              	.L546:
 3248 007e 40F20333 		movw	r3, #771
 3249 0082 ADF83030 		strh	r3, [sp, #48]	@ movhi
ARM GAS  /tmp/cc36Vpy0.s 			page 57


 3250 0086 0323     		movs	r3, #3
 3251 0088 84F89F31 		strb	r3, [r4, #415]
 3252              	.L549:
 3253 008c 94F8ED32 		ldrb	r3, [r4, #749]	@ zero_extendqisi2
 3254 0090 1B07     		lsls	r3, r3, #28
 3255 0092 E3D5     		bpl	.L611
 3256 0094 94F8EE12 		ldrb	r1, [r4, #750]	@ zero_extendqisi2
 3257 0098 9DF83130 		ldrb	r3, [sp, #49]	@ zero_extendqisi2
 3258 009c 4907     		lsls	r1, r1, #29
 3259 009e 94F80523 		ldrb	r2, [r4, #773]	@ zero_extendqisi2
 3260 00a2 00F19880 		bmi	.L556
 3261 00a6 9342     		cmp	r3, r2
 3262 00a8 D8D3     		bcc	.L611
 3263              	.L557:
 3264 00aa 94F89F51 		ldrb	r5, [r4, #415]	@ zero_extendqisi2
 3265 00ae 3246     		mov	r2, r6
 3266 00b0 4946     		mov	r1, r9
 3267 00b2 2046     		mov	r0, r4
 3268 00b4 84F89F31 		strb	r3, [r4, #415]
 3269 00b8 FFF7FEFF 		bl	HashInput
 3270 00bc 84F89F51 		strb	r5, [r4, #415]
 3271 00c0 0546     		mov	r5, r0
 3272 00c2 0028     		cmp	r0, #0
 3273 00c4 B1D1     		bne	.L543
 3274 00c6 3346     		mov	r3, r6
 3275 00c8 4146     		mov	r1, r8
 3276 00ca 2046     		mov	r0, r4
 3277 00cc 069A     		ldr	r2, [sp, #24]
 3278 00ce FFF7FEFF 		bl	DoClientHello
 3279              	.L566:
 3280 00d2 0546     		mov	r5, r0
 3281 00d4 A9E7     		b	.L543
 3282              	.L545:
 3283 00d6 0023     		movs	r3, #0
 3284 00d8 2093     		str	r3, [sp, #128]
 3285 00da 99F82230 		ldrb	r3, [r9, #34]	@ zero_extendqisi2
 3286 00de 03F12301 		add	r1, r3, #35
 3287 00e2 8E42     		cmp	r6, r1
 3288 00e4 A0D3     		bcc	.L550
 3289 00e6 03F12502 		add	r2, r3, #37
 3290 00ea 9642     		cmp	r6, r2
 3291 00ec 9CD3     		bcc	.L550
 3292 00ee 39F80130 		ldrh	r3, [r9, r1]	@ unaligned
 3293 00f2 5BBA     		rev16	r3, r3
 3294 00f4 12FA83F3 		uxtah	r3, r2, r3
 3295 00f8 5A1C     		adds	r2, r3, #1
 3296 00fa 9642     		cmp	r6, r2
 3297 00fc 94D3     		bcc	.L550
 3298 00fe 19F80330 		ldrb	r3, [r9, r3]	@ zero_extendqisi2
 3299 0102 1344     		add	r3, r3, r2
 3300 0104 9E42     		cmp	r6, r3
 3301 0106 8FD3     		bcc	.L550
 3302 0108 C0D9     		bls	.L549
 3303 010a 991C     		adds	r1, r3, #2
 3304 010c 8E42     		cmp	r6, r1
 3305 010e 8BD3     		bcc	.L550
 3306 0110 39F80320 		ldrh	r2, [r9, r3]	@ unaligned
ARM GAS  /tmp/cc36Vpy0.s 			page 58


 3307 0114 731A     		subs	r3, r6, r1
 3308 0116 52BA     		rev16	r2, r2
 3309 0118 92B2     		uxth	r2, r2
 3310 011a 9A42     		cmp	r2, r3
 3311 011c 84D1     		bne	.L550
 3312 011e 20AB     		add	r3, sp, #128
 3313 0120 0093     		str	r3, [sp]
 3314 0122 2046     		mov	r0, r4
 3315 0124 0123     		movs	r3, #1
 3316 0126 4944     		add	r1, r1, r9
 3317 0128 FFF7FEFF 		bl	TLSX_ParseVersion
 3318 012c 051E     		subs	r5, r0, #0
 3319 012e 4FD1     		bne	.L552
 3320 0130 209B     		ldr	r3, [sp, #128]
 3321 0132 002B     		cmp	r3, #0
 3322 0134 AAD0     		beq	.L549
 3323 0136 2846     		mov	r0, r5
 3324 0138 B4F89E31 		ldrh	r3, [r4, #414]
 3325 013c 63F30F00 		bfi	r0, r3, #0, #16
 3326 0140 FFF7FEFF 		bl	IsAtLeastTLSv1_3
 3327 0144 0028     		cmp	r0, #0
 3328 0146 A1D0     		beq	.L549
 3329              	.L555:
 3330 0148 E268     		ldr	r2, [r4, #12]
 3331 014a 08EB0A03 		add	r3, r8, r10
 3332 014e 02F65A42 		addw	r2, r2, #3162
 3333 0152 03F12001 		add	r1, r3, #32
 3334              	.L601:
 3335 0156 53F8040B 		ldr	r0, [r3], #4	@ unaligned
 3336 015a 8B42     		cmp	r3, r1
 3337 015c 42F8040B 		str	r0, [r2], #4	@ unaligned
 3338 0160 F9D1     		bne	.L601
 3339 0162 99F82220 		ldrb	r2, [r9, #34]	@ zero_extendqisi2
 3340 0166 07F12301 		add	r1, r7, #35
 3341 016a 202A     		cmp	r2, #32
 3342 016c 0D91     		str	r1, [sp, #52]
 3343 016e 2CD8     		bhi	.L612
 3344 0170 8D18     		adds	r5, r1, r2
 3345 0172 B542     		cmp	r5, r6
 3346 0174 3FF658AF 		bhi	.L550
 3347 0178 D4F85001 		ldr	r0, [r4, #336]
 3348 017c 80F85C20 		strb	r2, [r0, #92]
 3349 0180 1AB1     		cbz	r2, .L559
 3350 0182 4144     		add	r1, r1, r8
 3351 0184 3C30     		adds	r0, r0, #60
 3352 0186 FFF7FEFF 		bl	memcpy
 3353              	.L559:
 3354 018a A068     		ldr	r0, [r4, #8]
 3355 018c 0D95     		str	r5, [sp, #52]
 3356 018e 08B1     		cbz	r0, .L560
 3357 0190 FFF7FEFF 		bl	wolfSSL_Free
 3358              	.L560:
 3359 0194 4FF4AC70 		mov	r0, #344
 3360 0198 FFF7FEFF 		bl	wolfSSL_Malloc
 3361 019c A060     		str	r0, [r4, #8]
 3362 019e 0028     		cmp	r0, #0
 3363 01a0 00F01782 		beq	.L603
ARM GAS  /tmp/cc36Vpy0.s 			page 59


 3364 01a4 C7F10203 		rsb	r3, r7, #2
 3365 01a8 2B44     		add	r3, r3, r5
 3366 01aa B342     		cmp	r3, r6
 3367 01ac 3FF63CAF 		bhi	.L550
 3368 01b0 38F805B0 		ldrh	fp, [r8, r5]	@ unaligned
 3369 01b4 0235     		adds	r5, r5, #2
 3370 01b6 9BFA9BFB 		rev16	fp, fp
 3371 01ba 1FFA8BF2 		uxth	r2, fp
 3372 01be A0F800B0 		strh	fp, [r0]	@ movhi
 3373 01c2 1BF0010B 		ands	fp, fp, #1
 3374 01c6 0D95     		str	r5, [sp, #52]
 3375 01c8 09D0     		beq	.L561
 3376              	.L612:
 3377 01ca 6FF4D475 		mvn	r5, #424
 3378 01ce 2CE7     		b	.L543
 3379              	.L552:
 3380 01d0 FFF62BAF 		blt	.L543
 3381 01d4 B8E7     		b	.L555
 3382              	.L556:
 3383 01d6 9342     		cmp	r3, r2
 3384 01d8 3FF640AF 		bhi	.L611
 3385 01dc 65E7     		b	.L557
 3386              	.L561:
 3387 01de C7F10103 		rsb	r3, r7, #1
 3388 01e2 2B44     		add	r3, r3, r5
 3389 01e4 1344     		add	r3, r3, r2
 3390 01e6 B342     		cmp	r3, r6
 3391 01e8 3FF61EAF 		bhi	.L550
 3392 01ec B2F5967F 		cmp	r2, #300
 3393 01f0 3FF61AAF 		bhi	.L550
 3394 01f4 08EB0501 		add	r1, r8, r5
 3395 01f8 0430     		adds	r0, r0, #4
 3396 01fa FFF7FEFF 		bl	memcpy
 3397 01fe A368     		ldr	r3, [r4, #8]
 3398 0200 B3F800A0 		ldrh	r10, [r3]
 3399 0204 A3F802B0 		strh	fp, [r3, #2]	@ movhi
 3400 0208 AA44     		add	r10, r10, r5
 3401 020a 0AF10103 		add	r3, r10, #1
 3402 020e 18F80A10 		ldrb	r1, [r8, r10]	@ zero_extendqisi2
 3403 0212 DA1B     		subs	r2, r3, r7
 3404 0214 0A44     		add	r2, r2, r1
 3405 0216 B242     		cmp	r2, r6
 3406 0218 0D93     		str	r3, [sp, #52]
 3407 021a 3FF605AF 		bhi	.L550
 3408 021e 0129     		cmp	r1, #1
 3409 0220 D3D1     		bne	.L612
 3410 0222 18F80330 		ldrb	r3, [r8, r3]	@ zero_extendqisi2
 3411 0226 0AF10202 		add	r2, r10, #2
 3412 022a 0D92     		str	r2, [sp, #52]
 3413 022c 002B     		cmp	r3, #0
 3414 022e CCD1     		bne	.L612
 3415 0230 D31B     		subs	r3, r2, r7
 3416 0232 B342     		cmp	r3, r6
 3417 0234 3FF4F8AE 		beq	.L550
 3418 0238 0233     		adds	r3, r3, #2
 3419 023a B342     		cmp	r3, r6
 3420 023c 3FF6F4AE 		bhi	.L550
ARM GAS  /tmp/cc36Vpy0.s 			page 60


 3421 0240 38F80230 		ldrh	r3, [r8, r2]	@ unaligned
 3422 0244 0AF1040A 		add	r10, r10, #4
 3423 0248 5BBA     		rev16	r3, r3
 3424 024a AAEB0707 		sub	r7, r10, r7
 3425 024e 1FFA83FB 		uxth	fp, r3
 3426 0252 17FA83F3 		uxtah	r3, r7, r3
 3427 0256 B342     		cmp	r3, r6
 3428 0258 CDF834A0 		str	r10, [sp, #52]
 3429 025c 3FF6E4AE 		bhi	.L550
 3430 0260 2046     		mov	r0, r4
 3431 0262 FFF7FEFF 		bl	TLSX_PopulateExtensions
 3432 0266 0546     		mov	r5, r0
 3433 0268 0028     		cmp	r0, #0
 3434 026a 7FF4DEAE 		bne	.L543
 3435 026e A368     		ldr	r3, [r4, #8]
 3436 0270 5A46     		mov	r2, fp
 3437 0272 0093     		str	r3, [sp]
 3438 0274 2046     		mov	r0, r4
 3439 0276 0123     		movs	r3, #1
 3440 0278 08EB0A01 		add	r1, r8, r10
 3441 027c FFF7FEFF 		bl	TLSX_Parse
 3442 0280 0546     		mov	r5, r0
 3443 0282 0028     		cmp	r0, #0
 3444 0284 7FF4D1AE 		bne	.L543
 3445 0288 2046     		mov	r0, r4
 3446 028a FFF7FEFF 		bl	SNI_Callback
 3447 028e 0546     		mov	r5, r0
 3448 0290 0028     		cmp	r0, #0
 3449 0292 7FF4CAAE 		bne	.L543
 3450 0296 0AEB0B03 		add	r3, r10, fp
 3451 029a 0793     		str	r3, [sp, #28]
 3452 029c 0D93     		str	r3, [sp, #52]
 3453 029e B4F8EC32 		ldrh	r3, [r4, #748]
 3454 02a2 2921     		movs	r1, #41
 3455 02a4 23F48043 		bic	r3, r3, #16384
 3456 02a8 23F06603 		bic	r3, r3, #102
 3457 02ac 43F48043 		orr	r3, r3, #16384
 3458 02b0 43F00203 		orr	r3, r3, #2
 3459 02b4 D4F8B003 		ldr	r0, [r4, #944]
 3460 02b8 A4F8EC32 		strh	r3, [r4, #748]	@ movhi
 3461 02bc A768     		ldr	r7, [r4, #8]
 3462 02be FFF7FEFF 		bl	TLSX_Find
 3463 02c2 68B9     		cbnz	r0, .L563
 3464              	.L649:
 3465 02c4 3246     		mov	r2, r6
 3466 02c6 4946     		mov	r1, r9
 3467 02c8 2046     		mov	r0, r4
 3468 02ca FFF7FEFF 		bl	HashInput
 3469 02ce 0028     		cmp	r0, #0
 3470 02d0 00F00681 		beq	.L564
 3471 02d4 FDE6     		b	.L566
 3472              	.L657:
 3473 02d6 00BF     		.align	2
 3474              	.L656:
 3475 02d8 B8FEFFFF 		.word	-328
 3476 02dc BAFEFFFF 		.word	-326
 3477              	.L563:
ARM GAS  /tmp/cc36Vpy0.s 			page 61


 3478 02e0 D4F8B033 		ldr	r3, [r4, #944]
 3479 02e4 9842     		cmp	r0, r3
 3480 02e6 40F03B81 		bne	.L565
 3481 02ea 94F8ED32 		ldrb	r3, [r4, #749]	@ zero_extendqisi2
 3482 02ee 0121     		movs	r1, #1
 3483 02f0 43F01003 		orr	r3, r3, #16
 3484 02f4 84F8ED32 		strb	r3, [r4, #749]
 3485 02f8 4068     		ldr	r0, [r0, #4]
 3486 02fa 0DF12A02 		add	r2, sp, #42
 3487 02fe FFF7FEFF 		bl	TLSX_PreSharedKey_GetSizeBinders
 3488 0302 0028     		cmp	r0, #0
 3489 0304 FFF6E5AE 		blt	.L566
 3490 0308 3946     		mov	r1, r7
 3491 030a 2046     		mov	r0, r4
 3492 030c FFF7FEFF 		bl	sslRefineSuites
 3493 0310 6368     		ldr	r3, [r4, #4]
 3494 0312 0493     		str	r3, [sp, #16]
 3495 0314 13B9     		cbnz	r3, .L567
 3496 0316 2368     		ldr	r3, [r4]
 3497 0318 1B6B     		ldr	r3, [r3, #48]
 3498 031a 0493     		str	r3, [sp, #16]
 3499              	.L567:
 3500 031c 4FF00008 		mov	r8, #0
 3501 0320 049B     		ldr	r3, [sp, #16]
 3502 0322 0433     		adds	r3, r3, #4
 3503 0324 0993     		str	r3, [sp, #36]
 3504              	.L568:
 3505 0326 0F9B     		ldr	r3, [sp, #60]
 3506 0328 002B     		cmp	r3, #0
 3507 032a 40F05A81 		bne	.L582
 3508 032e 049B     		ldr	r3, [sp, #16]
 3509 0330 1B88     		ldrh	r3, [r3]
 3510 0332 9845     		cmp	r8, r3
 3511 0334 C6DA     		bge	.L649
 3512 0336 099B     		ldr	r3, [sp, #36]
 3513 0338 2921     		movs	r1, #41
 3514 033a 4344     		add	r3, r3, r8
 3515 033c D4F8B003 		ldr	r0, [r4, #944]
 3516 0340 BDF82AB0 		ldrh	fp, [sp, #42]
 3517 0344 0893     		str	r3, [sp, #32]
 3518 0346 FFF7FEFF 		bl	TLSX_Find
 3519 034a 0590     		str	r0, [sp, #20]
 3520 034c 10B9     		cbnz	r0, .L569
 3521 034e 6FF0AC00 		mvn	r0, #172
 3522 0352 BEE6     		b	.L566
 3523              	.L569:
 3524 0354 059B     		ldr	r3, [sp, #20]
 3525 0356 0DF1400A 		add	r10, sp, #64
 3526 035a 5F68     		ldr	r7, [r3, #4]
 3527              	.L570:
 3528 035c 002F     		cmp	r7, #0
 3529 035e 00F09D80 		beq	.L579
 3530 0362 3A88     		ldrh	r2, [r7]
 3531 0364 B2F5C06F 		cmp	r2, #1536
 3532 0368 00F23981 		bhi	.L605
 3533 036c E068     		ldr	r0, [r4, #12]
 3534 036e 7968     		ldr	r1, [r7, #4]
ARM GAS  /tmp/cc36Vpy0.s 			page 62


 3535 0370 1830     		adds	r0, r0, #24
 3536 0372 FFF7FEFF 		bl	memcpy
 3537 0376 4FF00001 		mov	r1, #0
 3538 037a 3B88     		ldrh	r3, [r7]
 3539 037c E268     		ldr	r2, [r4, #12]
 3540 037e 2046     		mov	r0, r4
 3541 0380 1344     		add	r3, r3, r2
 3542 0382 1976     		strb	r1, [r3, #24]
 3543 0384 0023     		movs	r3, #0
 3544 0386 AAF80030 		strh	r3, [r10]	@ movhi
 3545 038a 2093     		str	r3, [sp, #128]
 3546 038c 20AB     		add	r3, sp, #128
 3547 038e 0193     		str	r3, [sp, #4]
 3548 0390 089B     		ldr	r3, [sp, #32]
 3549 0392 3946     		mov	r1, r7
 3550 0394 0093     		str	r3, [sp]
 3551 0396 CDF808A0 		str	r10, [sp, #8]
 3552 039a 02F11403 		add	r3, r2, #20
 3553 039e 02F61A42 		addw	r2, r2, #3098
 3554 03a2 FFF7FEFF 		bl	FindPskSuite
 3555 03a6 30BB     		cbnz	r0, .L572
 3556 03a8 2098     		ldr	r0, [sp, #128]
 3557 03aa 20B3     		cbz	r0, .L572
 3558 03ac B4F8EC32 		ldrh	r3, [r4, #748]
 3559 03b0 23F48453 		bic	r3, r3, #4224
 3560 03b4 A4F8EC32 		strh	r3, [r4, #748]	@ movhi
 3561 03b8 BB68     		ldr	r3, [r7, #8]
 3562 03ba 002B     		cmp	r3, #0
 3563 03bc 52D1     		bne	.L606
 3564 03be 9DF84030 		ldrb	r3, [sp, #64]	@ zero_extendqisi2
 3565 03c2 2046     		mov	r0, r4
 3566 03c4 84F8F932 		strb	r3, [r4, #761]
 3567 03c8 9DF84130 		ldrb	r3, [sp, #65]	@ zero_extendqisi2
 3568 03cc 84F8FA32 		strb	r3, [r4, #762]
 3569 03d0 FFF7FEFF 		bl	SetCipherSpecs
 3570 03d4 78B9     		cbnz	r0, .L572
 3571 03d6 2046     		mov	r0, r4
 3572 03d8 FFF7FEFF 		bl	DeriveEarlySecret
 3573 03dc 58B9     		cbnz	r0, .L572
 3574 03de 94F8ED32 		ldrb	r3, [r4, #749]	@ zero_extendqisi2
 3575 03e2 43F02003 		orr	r3, r3, #32
 3576 03e6 84F8ED32 		strb	r3, [r4, #749]
 3577 03ea 94F8F232 		ldrb	r3, [r4, #754]	@ zero_extendqisi2
 3578 03ee 43F00403 		orr	r3, r3, #4
 3579 03f2 84F8F232 		strb	r3, [r4, #754]
 3580              	.L572:
 3581 03f6 209B     		ldr	r3, [sp, #128]
 3582 03f8 BBB3     		cbz	r3, .L573
 3583 03fa 0028     		cmp	r0, #0
 3584 03fc 7FF469AE 		bne	.L566
 3585 0400 4946     		mov	r1, r9
 3586 0402 2046     		mov	r0, r4
 3587 0404 A6EB0B02 		sub	r2, r6, fp
 3588 0408 FFF7FEFF 		bl	HashInput
 3589 040c 0028     		cmp	r0, #0
 3590 040e FFF660AE 		blt	.L566
 3591 0412 5146     		mov	r1, r10
ARM GAS  /tmp/cc36Vpy0.s 			page 63


 3592 0414 2046     		mov	r0, r4
 3593 0416 FFF7FEFF 		bl	DeriveBinderKey
 3594 041a 0028     		cmp	r0, #0
 3595 041c 7FF459AE 		bne	.L566
 3596 0420 94F8EC32 		ldrb	r3, [r4, #748]	@ zero_extendqisi2
 3597 0424 04F5DA7B 		add	fp, r4, #436
 3598 0428 60F34203 		bfi	r3, r0, #1, #2
 3599 042c 84F8EC32 		strb	r3, [r4, #748]
 3600 0430 5A46     		mov	r2, fp
 3601 0432 0346     		mov	r3, r0
 3602 0434 5146     		mov	r1, r10
 3603 0436 2046     		mov	r0, r4
 3604 0438 FFF7FEFF 		bl	DeriveFinishedSecret
 3605 043c 0028     		cmp	r0, #0
 3606 043e 7FF448AE 		bne	.L566
 3607 0442 5946     		mov	r1, fp
 3608 0444 2046     		mov	r0, r4
 3609 0446 0BAB     		add	r3, sp, #44
 3610 0448 20AA     		add	r2, sp, #128
 3611 044a FFF7FEFF 		bl	BuildTls13HandshakeHmac
 3612 044e 0028     		cmp	r0, #0
 3613 0450 7FF43FAE 		bne	.L566
 3614 0454 D7F810C0 		ldr	ip, [r7, #16]
 3615 0458 0B9B     		ldr	r3, [sp, #44]
 3616 045a 9C45     		cmp	ip, r3
 3617 045c 07D0     		beq	.L575
 3618              	.L578:
 3619 045e 6FF4D370 		mvn	r0, #422
 3620 0462 36E6     		b	.L566
 3621              	.L606:
 3622 0464 6FF4A670 		mvn	r0, #332
 3623 0468 C5E7     		b	.L572
 3624              	.L573:
 3625 046a BF6D     		ldr	r7, [r7, #88]
 3626 046c 76E7     		b	.L570
 3627              	.L575:
 3628 046e 6FF0130E 		mvn	lr, #19
 3629 0472 20AB     		add	r3, sp, #128
 3630 0474 07F11402 		add	r2, r7, #20
 3631 0478 AEEB070E 		sub	lr, lr, r7
 3632              	.L576:
 3633 047c 0EEB0201 		add	r1, lr, r2
 3634 0480 6145     		cmp	r1, ip
 3635 0482 0EDB     		blt	.L577
 3636 0484 0028     		cmp	r0, #0
 3637 0486 EAD1     		bne	.L578
 3638 0488 97F85530 		ldrb	r3, [r7, #85]	@ zero_extendqisi2
 3639 048c 059A     		ldr	r2, [sp, #20]
 3640 048e 43F00203 		orr	r3, r3, #2
 3641 0492 87F85530 		strb	r3, [r7, #85]
 3642 0496 0123     		movs	r3, #1
 3643 0498 1373     		strb	r3, [r2, #12]
 3644 049a 0F93     		str	r3, [sp, #60]
 3645              	.L579:
 3646 049c 08F10208 		add	r8, r8, #2
 3647 04a0 41E7     		b	.L568
 3648              	.L577:
ARM GAS  /tmp/cc36Vpy0.s 			page 64


 3649 04a2 13F8011B 		ldrb	r1, [r3], #1	@ zero_extendqisi2
 3650 04a6 12F801AB 		ldrb	r10, [r2], #1	@ zero_extendqisi2
 3651 04aa 81EA0A01 		eor	r1, r1, r10
 3652 04ae 0843     		orrs	r0, r0, r1
 3653 04b0 E4E7     		b	.L576
 3654              	.L585:
 3655 04b2 8668     		ldr	r6, [r0, #8]
 3656 04b4 3321     		movs	r1, #51
 3657 04b6 D4F8B003 		ldr	r0, [r4, #944]
 3658 04ba FFF7FEFF 		bl	TLSX_Find
 3659 04be 16F0020F 		tst	r6, #2
 3660 04c2 94F8F032 		ldrb	r3, [r4, #752]	@ zero_extendqisi2
 3661 04c6 48D0     		beq	.L586
 3662 04c8 1F07     		lsls	r7, r3, #28
 3663 04ca 46D4     		bmi	.L586
 3664 04cc 0028     		cmp	r0, #0
 3665 04ce 44D0     		beq	.L586
 3666 04d0 D4F85031 		ldr	r3, [r4, #336]
 3667 04d4 B3F8A830 		ldrh	r3, [r3, #168]
 3668 04d8 A4F81033 		strh	r3, [r4, #784]	@ movhi
 3669 04dc 0223     		movs	r3, #2
 3670              	.L654:
 3671 04de 0F93     		str	r3, [sp, #60]
 3672              	.L564:
 3673 04e0 0F9E     		ldr	r6, [sp, #60]
 3674 04e2 002E     		cmp	r6, #0
 3675 04e4 49D0     		beq	.L588
 3676              	.L591:
 3677 04e6 0223     		movs	r3, #2
 3678 04e8 84F80833 		strb	r3, [r4, #776]
 3679 04ec 002E     		cmp	r6, #0
 3680 04ee 56D1     		bne	.L650
 3681 04f0 2046     		mov	r0, r4
 3682 04f2 A168     		ldr	r1, [r4, #8]
 3683 04f4 FFF7FEFF 		bl	MatchSuite
 3684 04f8 051E     		subs	r5, r0, #0
 3685 04fa FFF696AD 		blt	.L543
 3686              	.L592:
 3687 04fe 0423     		movs	r3, #4
 3688 0500 84F80833 		strb	r3, [r4, #776]
 3689 0504 DDE90632 		ldrd	r3, r2, [sp, #24]
 3690 0508 1A60     		str	r2, [r3]
 3691 050a 0C23     		movs	r3, #12
 3692 050c 002E     		cmp	r6, #0
 3693 050e 14BF     		ite	ne
 3694 0510 0122     		movne	r2, #1
 3695 0512 0022     		moveq	r2, #0
 3696 0514 84F80233 		strb	r3, [r4, #770]
 3697 0518 94F8F232 		ldrb	r3, [r4, #754]	@ zero_extendqisi2
 3698 051c 62F3C303 		bfi	r3, r2, #3, #1
 3699 0520 84F8F232 		strb	r3, [r4, #754]
 3700 0524 7FF481AD 		bne	.L543
 3701 0528 94F8F932 		ldrb	r3, [r4, #761]	@ zero_extendqisi2
 3702 052c 132B     		cmp	r3, #19
 3703 052e 53D1     		bne	.L610
 3704 0530 94F8ED32 		ldrb	r3, [r4, #749]	@ zero_extendqisi2
 3705 0534 DA06     		lsls	r2, r3, #27
ARM GAS  /tmp/cc36Vpy0.s 			page 65


 3706 0536 0CD5     		bpl	.L596
 3707 0538 E068     		ldr	r0, [r4, #12]
 3708 053a 66F30413 		bfi	r3, r6, #4, #1
 3709 053e 84F8ED32 		strb	r3, [r4, #749]
 3710 0542 4661     		str	r6, [r0, #20]
 3711 0544 3146     		mov	r1, r6
 3712 0546 94F8AF21 		ldrb	r2, [r4, #431]	@ zero_extendqisi2
 3713 054a 00F61A40 		addw	r0, r0, #3098
 3714 054e FFF7FEFF 		bl	memset
 3715              	.L596:
 3716 0552 2046     		mov	r0, r4
 3717 0554 FFF7FEFF 		bl	DeriveEarlySecret
 3718 0558 BBE5     		b	.L566
 3719              	.L586:
 3720 055a 13F01002 		ands	r2, r3, #16
 3721 055e 02D0     		beq	.L587
 3722              	.L565:
 3723 0560 6FF4A675 		mvn	r5, #332
 3724 0564 61E5     		b	.L543
 3725              	.L587:
 3726 0566 F107     		lsls	r1, r6, #31
 3727 0568 FAD5     		bpl	.L565
 3728 056a 43F00803 		orr	r3, r3, #8
 3729 056e 84F8F032 		strb	r3, [r4, #752]
 3730 0572 E368     		ldr	r3, [r4, #12]
 3731 0574 9A60     		str	r2, [r3, #8]
 3732 0576 0123     		movs	r3, #1
 3733 0578 B1E7     		b	.L654
 3734              	.L588:
 3735 057a 94F8F032 		ldrb	r3, [r4, #752]	@ zero_extendqisi2
 3736 057e 3321     		movs	r1, #51
 3737 0580 66F3C303 		bfi	r3, r6, #3, #1
 3738 0584 D4F8B003 		ldr	r0, [r4, #944]
 3739 0588 84F8F032 		strb	r3, [r4, #752]
 3740 058c FFF7FEFF 		bl	TLSX_Find
 3741 0590 18B1     		cbz	r0, .L608
 3742 0592 A368     		ldr	r3, [r4, #8]
 3743 0594 5B88     		ldrh	r3, [r3, #2]
 3744 0596 002B     		cmp	r3, #0
 3745 0598 A5D1     		bne	.L591
 3746              	.L608:
 3747 059a 1C4D     		ldr	r5, .L658
 3748 059c 45E5     		b	.L543
 3749              	.L650:
 3750 059e 022E     		cmp	r6, #2
 3751 05a0 ADD1     		bne	.L592
 3752 05a2 0023     		movs	r3, #0
 3753 05a4 2046     		mov	r0, r4
 3754 05a6 20A9     		add	r1, sp, #128
 3755 05a8 2093     		str	r3, [sp, #128]
 3756 05aa FFF7FEFF 		bl	TLSX_KeyShare_Establish
 3757 05ae 209B     		ldr	r3, [sp, #128]
 3758 05b0 4BB1     		cbz	r3, .L593
 3759 05b2 94F80133 		ldrb	r3, [r4, #769]	@ zero_extendqisi2
 3760 05b6 022B     		cmp	r3, #2
 3761 05b8 08D0     		beq	.L609
 3762 05ba 10F16C0F 		cmn	r0, #108
ARM GAS  /tmp/cc36Vpy0.s 			page 66


 3763 05be 84F80163 		strb	r6, [r4, #769]
 3764 05c2 9CD1     		bne	.L592
 3765 05c4 85E5     		b	.L566
 3766              	.L593:
 3767 05c6 0028     		cmp	r0, #0
 3768 05c8 99D0     		beq	.L592
 3769 05ca 82E5     		b	.L566
 3770              	.L609:
 3771 05cc 6FF4D470 		mvn	r0, #424
 3772 05d0 7FE5     		b	.L566
 3773              	.L603:
 3774 05d2 6FF07C05 		mvn	r5, #124
 3775 05d6 28E5     		b	.L543
 3776              	.L610:
 3777 05d8 6FF4FA75 		mvn	r5, #500
 3778 05dc 25E5     		b	.L543
 3779              	.L605:
 3780 05de 0C48     		ldr	r0, .L658+4
 3781 05e0 77E5     		b	.L566
 3782              	.L582:
 3783 05e2 BDF82A20 		ldrh	r2, [sp, #42]
 3784 05e6 2046     		mov	r0, r4
 3785 05e8 B11A     		subs	r1, r6, r2
 3786 05ea 4944     		add	r1, r1, r9
 3787 05ec FFF7FEFF 		bl	HashRaw
 3788 05f0 0028     		cmp	r0, #0
 3789 05f2 7FF46EAD 		bne	.L566
 3790 05f6 2D21     		movs	r1, #45
 3791 05f8 D4F8B003 		ldr	r0, [r4, #944]
 3792 05fc FFF7FEFF 		bl	TLSX_Find
 3793 0600 0028     		cmp	r0, #0
 3794 0602 7FF456AF 		bne	.L585
 3795 0606 034D     		ldr	r5, .L658+8
 3796 0608 0FE5     		b	.L543
 3797              	.L659:
 3798 060a 00BF     		.align	2
 3799              	.L658:
 3800 060c CAFEFFFF 		.word	-310
 3801 0610 B8FEFFFF 		.word	-328
 3802 0614 5AFEFFFF 		.word	-422
 3804              		.section	.text.SendTls13ServerHello,"ax",%progbits
 3805              		.align	1
 3806              		.global	SendTls13ServerHello
 3807              		.syntax unified
 3808              		.thumb
 3809              		.thumb_func
 3810              		.fpu fpv4-sp-d16
 3812              	SendTls13ServerHello:
 3813              		@ args = 0, pretend = 0, frame = 8
 3814              		@ frame_needed = 0, uses_anonymous_args = 0
 3815 0000 0629     		cmp	r1, #6
 3816 0002 2DE9F341 		push	{r0, r1, r4, r5, r6, r7, r8, lr}
 3817 0006 0446     		mov	r4, r0
 3818 0008 0D46     		mov	r5, r1
 3819 000a 00F08C80 		beq	.L661
 3820              	.L664:
 3821 000e 0123     		movs	r3, #1
ARM GAS  /tmp/cc36Vpy0.s 			page 67


 3822 0010 84F8F432 		strb	r3, [r4, #756]
 3823 0014 D4F85031 		ldr	r3, [r4, #336]
 3824 0018 2946     		mov	r1, r5
 3825 001a 93F85C30 		ldrb	r3, [r3, #92]	@ zero_extendqisi2
 3826 001e 2046     		mov	r0, r4
 3827 0020 2633     		adds	r3, r3, #38
 3828 0022 0DF10602 		add	r2, sp, #6
 3829 0026 ADF80630 		strh	r3, [sp, #6]	@ movhi
 3830 002a FFF7FEFF 		bl	TLSX_GetResponseSize
 3831 002e 0028     		cmp	r0, #0
 3832 0030 7ED1     		bne	.L660
 3833 0032 BDF80660 		ldrh	r6, [sp, #6]
 3834 0036 2046     		mov	r0, r4
 3835 0038 0936     		adds	r6, r6, #9
 3836 003a 3146     		mov	r1, r6
 3837 003c FFF7FEFF 		bl	CheckAvailableSize
 3838 0040 0028     		cmp	r0, #0
 3839 0042 75D1     		bne	.L660
 3840 0044 2046     		mov	r0, r4
 3841 0046 FFF7FEFF 		bl	GetOutputBuffer
 3842 004a 0222     		movs	r2, #2
 3843 004c 94F89E31 		ldrb	r3, [r4, #414]	@ zero_extendqisi2
 3844 0050 BDF80610 		ldrh	r1, [sp, #6]
 3845 0054 FFF7FEFF 		bl	AddTls13Headers.isra.0
 3846 0058 94F89E31 		ldrb	r3, [r4, #414]	@ zero_extendqisi2
 3847 005c 0746     		mov	r7, r0
 3848 005e 4372     		strb	r3, [r0, #9]
 3849 0060 94F8EE32 		ldrb	r3, [r4, #750]	@ zero_extendqisi2
 3850 0064 00F10B08 		add	r8, r0, #11
 3851 0068 13F0040F 		tst	r3, #4
 3852 006c 14BF     		ite	ne
 3853 006e FD23     		movne	r3, #253
 3854 0070 0323     		moveq	r3, #3
 3855 0072 9542     		cmp	r5, r2
 3856 0074 8372     		strb	r3, [r0, #10]
 3857 0076 5ED1     		bne	.L666
 3858 0078 2022     		movs	r2, #32
 3859 007a 4146     		mov	r1, r8
 3860 007c E06F     		ldr	r0, [r4, #124]
 3861 007e FFF7FEFF 		bl	wc_RNG_GenerateBlock
 3862 0082 0028     		cmp	r0, #0
 3863 0084 54D1     		bne	.L660
 3864              	.L667:
 3865 0086 4146     		mov	r1, r8
 3866 0088 E368     		ldr	r3, [r4, #12]
 3867 008a 08F12002 		add	r2, r8, #32
 3868 008e 03F67A43 		addw	r3, r3, #3194
 3869              	.L669:
 3870 0092 51F8040B 		ldr	r0, [r1], #4	@ unaligned
 3871 0096 9142     		cmp	r1, r2
 3872 0098 43F8040B 		str	r0, [r3], #4	@ unaligned
 3873 009c F9D1     		bne	.L669
 3874 009e D4F85031 		ldr	r3, [r4, #336]
 3875 00a2 93F85C30 		ldrb	r3, [r3, #92]	@ zero_extendqisi2
 3876 00a6 87F82B30 		strb	r3, [r7, #43]
 3877 00aa D4F85011 		ldr	r1, [r4, #336]
 3878 00ae 91F85C20 		ldrb	r2, [r1, #92]	@ zero_extendqisi2
ARM GAS  /tmp/cc36Vpy0.s 			page 68


 3879 00b2 002A     		cmp	r2, #0
 3880 00b4 4AD0     		beq	.L674
 3881 00b6 3C31     		adds	r1, r1, #60
 3882 00b8 07F12C00 		add	r0, r7, #44
 3883 00bc FFF7FEFF 		bl	memcpy
 3884 00c0 D4F85031 		ldr	r3, [r4, #336]
 3885 00c4 93F85C10 		ldrb	r1, [r3, #92]	@ zero_extendqisi2
 3886 00c8 2C31     		adds	r1, r1, #44
 3887              	.L670:
 3888 00ca 94F8F932 		ldrb	r3, [r4, #761]	@ zero_extendqisi2
 3889 00ce 7A18     		adds	r2, r7, r1
 3890 00d0 7B54     		strb	r3, [r7, r1]
 3891 00d2 94F8FA32 		ldrb	r3, [r4, #762]	@ zero_extendqisi2
 3892 00d6 0331     		adds	r1, r1, #3
 3893 00d8 5370     		strb	r3, [r2, #1]
 3894 00da 0023     		movs	r3, #0
 3895 00dc 2046     		mov	r0, r4
 3896 00de 9370     		strb	r3, [r2, #2]
 3897 00e0 3944     		add	r1, r1, r7
 3898 00e2 2A46     		mov	r2, r5
 3899 00e4 FFF7FEFF 		bl	TLSX_WriteResponse
 3900 00e8 10BB     		cbnz	r0, .L660
 3901 00ea 0346     		mov	r3, r0
 3902 00ec 3246     		mov	r2, r6
 3903 00ee 3946     		mov	r1, r7
 3904 00f0 2046     		mov	r0, r4
 3905 00f2 FFF7FEFF 		bl	HashOutput
 3906 00f6 D8B9     		cbnz	r0, .L660
 3907 00f8 022D     		cmp	r5, #2
 3908 00fa 04BF     		itt	eq
 3909 00fc 0323     		moveq	r3, #3
 3910 00fe 84F80133 		strbeq	r3, [r4, #769]
 3911 0102 0023     		movs	r3, #0
 3912 0104 84F8F432 		strb	r3, [r4, #756]
 3913 0108 D4F8F430 		ldr	r3, [r4, #244]
 3914 010c 3344     		add	r3, r3, r6
 3915 010e C4F8F430 		str	r3, [r4, #244]
 3916 0112 94F8F132 		ldrb	r3, [r4, #753]	@ zero_extendqisi2
 3917 0116 DB07     		lsls	r3, r3, #31
 3918 0118 01D5     		bpl	.L672
 3919 011a 022D     		cmp	r5, #2
 3920 011c 08D0     		beq	.L660
 3921              	.L672:
 3922 011e 2046     		mov	r0, r4
 3923 0120 FFF7FEFF 		bl	SendBuffered
 3924 0124 04E0     		b	.L660
 3925              	.L661:
 3926 0126 FFF7FEFF 		bl	RestartHandshakeHash
 3927 012a 0028     		cmp	r0, #0
 3928 012c BFF66FAF 		bge	.L664
 3929              	.L660:
 3930 0130 02B0     		add	sp, sp, #8
 3931              		@ sp needed
 3932 0132 BDE8F081 		pop	{r4, r5, r6, r7, r8, pc}
 3933              	.L666:
 3934 0136 4246     		mov	r2, r8
 3935 0138 054B     		ldr	r3, .L684
ARM GAS  /tmp/cc36Vpy0.s 			page 69


 3936 013a 03F12001 		add	r1, r3, #32
 3937              	.L668:
 3938 013e 53F8040B 		ldr	r0, [r3], #4	@ unaligned
 3939 0142 8B42     		cmp	r3, r1
 3940 0144 42F8040B 		str	r0, [r2], #4	@ unaligned
 3941 0148 F9D1     		bne	.L668
 3942 014a 9CE7     		b	.L667
 3943              	.L674:
 3944 014c 2C21     		movs	r1, #44
 3945 014e BCE7     		b	.L670
 3946              	.L685:
 3947              		.align	2
 3948              	.L684:
 3949 0150 00000000 		.word	.LANCHOR12
 3951              		.section	.rodata.CreateSigData.str1.1,"aMS",%progbits,1
 3952              	.LC0:
 3953 0000 544C5320 		.ascii	"TLS 1.3, server CertificateVerify\000"
 3953      312E332C 
 3953      20736572 
 3953      76657220 
 3953      43657274 
 3954              	.LC1:
 3955 0022 544C5320 		.ascii	"TLS 1.3, client CertificateVerify\000"
 3955      312E332C 
 3955      20636C69 
 3955      656E7420 
 3955      43657274 
 3956              		.section	.text.CreateSigData,"ax",%progbits
 3957              		.align	1
 3958              		.global	CreateSigData
 3959              		.syntax unified
 3960              		.thumb
 3961              		.thumb_func
 3962              		.fpu fpv4-sp-d16
 3964              	CreateSigData:
 3965              		@ args = 0, pretend = 0, frame = 0
 3966              		@ frame_needed = 0, uses_anonymous_args = 0
 3967 0000 2DE9F041 		push	{r4, r5, r6, r7, r8, lr}
 3968 0004 0C46     		mov	r4, r1
 3969 0006 90F8EC62 		ldrb	r6, [r0, #748]	@ zero_extendqisi2
 3970 000a 0746     		mov	r7, r0
 3971 000c 9046     		mov	r8, r2
 3972 000e C6F34116 		ubfx	r6, r6, #5, #2
 3973 0012 4022     		movs	r2, #64
 3974 0014 2021     		movs	r1, #32
 3975 0016 2046     		mov	r0, r4
 3976 0018 1D46     		mov	r5, r3
 3977 001a FFF7FEFF 		bl	memset
 3978 001e 06BB     		cbnz	r6, .L687
 3979 0020 1DBB     		cbnz	r5, .L688
 3980              	.L692:
 3981 0022 1F4B     		ldr	r3, .L706
 3982 0024 04F14002 		add	r2, r4, #64
 3983 0028 03F12001 		add	r1, r3, #32
 3984              	.L689:
 3985 002c 53F8040B 		ldr	r0, [r3], #4	@ unaligned
 3986 0030 8B42     		cmp	r3, r1
ARM GAS  /tmp/cc36Vpy0.s 			page 70


 3987 0032 42F8040B 		str	r0, [r2], #4	@ unaligned
 3988 0036 F9D1     		bne	.L689
 3989 0038 1B88     		ldrh	r3, [r3]	@ unaligned
 3990 003a 1380     		strh	r3, [r2]	@ unaligned
 3991              	.L690:
 3992 003c 97F8AC31 		ldrb	r3, [r7, #428]	@ zero_extendqisi2
 3993 0040 042B     		cmp	r3, #4
 3994 0042 29D1     		bne	.L699
 3995 0044 386F     		ldr	r0, [r7, #112]
 3996 0046 04F16201 		add	r1, r4, #98
 3997 004a 4030     		adds	r0, r0, #64
 3998 004c FFF7FEFF 		bl	wc_Sha256GetHash
 3999 0050 0028     		cmp	r0, #0
 4000 0052 23D0     		beq	.L700
 4001 0054 03DB     		blt	.L686
 4002              	.L697:
 4003 0056 6230     		adds	r0, r0, #98
 4004 0058 A8F80000 		strh	r0, [r8]	@ movhi
 4005 005c 0020     		movs	r0, #0
 4006              	.L686:
 4007 005e BDE8F081 		pop	{r4, r5, r6, r7, r8, pc}
 4008              	.L687:
 4009 0062 012E     		cmp	r6, #1
 4010 0064 EAD1     		bne	.L690
 4011 0066 002D     		cmp	r5, #0
 4012 0068 DBD1     		bne	.L692
 4013              	.L688:
 4014 006a 0E4B     		ldr	r3, .L706+4
 4015 006c 04F14002 		add	r2, r4, #64
 4016 0070 03F12001 		add	r1, r3, #32
 4017              	.L693:
 4018 0074 53F8040B 		ldr	r0, [r3], #4	@ unaligned
 4019 0078 8B42     		cmp	r3, r1
 4020 007a 42F8040B 		str	r0, [r2], #4	@ unaligned
 4021 007e F9D1     		bne	.L693
 4022 0080 1B88     		ldrh	r3, [r3]	@ unaligned
 4023 0082 012E     		cmp	r6, #1
 4024 0084 1380     		strh	r3, [r2]	@ unaligned
 4025 0086 04D0     		beq	.L694
 4026 0088 002E     		cmp	r6, #0
 4027 008a D7D1     		bne	.L690
 4028 008c 002D     		cmp	r5, #0
 4029 008e D5D1     		bne	.L690
 4030 0090 C7E7     		b	.L692
 4031              	.L694:
 4032 0092 002D     		cmp	r5, #0
 4033 0094 D2D0     		beq	.L690
 4034 0096 C4E7     		b	.L692
 4035              	.L699:
 4036 0098 0020     		movs	r0, #0
 4037 009a DCE7     		b	.L697
 4038              	.L700:
 4039 009c 2020     		movs	r0, #32
 4040 009e DAE7     		b	.L697
 4041              	.L707:
 4042              		.align	2
 4043              	.L706:
ARM GAS  /tmp/cc36Vpy0.s 			page 71


 4044 00a0 00000000 		.word	.LC0
 4045 00a4 22000000 		.word	.LC1
 4047              		.section	.text.SendTls13CertificateVerify,"ax",%progbits
 4048              		.align	1
 4049              		.syntax unified
 4050              		.thumb
 4051              		.thumb_func
 4052              		.fpu fpv4-sp-d16
 4054              	SendTls13CertificateVerify:
 4055              		@ args = 0, pretend = 0, frame = 32
 4056              		@ frame_needed = 0, uses_anonymous_args = 0
 4057 0000 2DE9F041 		push	{r4, r5, r6, r7, r8, lr}
 4058 0004 0025     		movs	r5, #0
 4059 0006 0126     		movs	r6, #1
 4060 0008 0446     		mov	r4, r0
 4061 000a 8EB0     		sub	sp, sp, #56
 4062 000c 80F8F462 		strb	r6, [r0, #756]
 4063 0010 80F80853 		strb	r5, [r0, #776]
 4064 0014 2022     		movs	r2, #32
 4065 0016 2946     		mov	r1, r5
 4066 0018 06A8     		add	r0, sp, #24
 4067 001a FFF7FEFF 		bl	memset
 4068 001e 94F8EC32 		ldrb	r3, [r4, #748]	@ zero_extendqisi2
 4069 0022 03F00603 		and	r3, r3, #6
 4070 0026 042B     		cmp	r3, #4
 4071 0028 27D0     		beq	.L708
 4072 002a 40F21511 		movw	r1, #277
 4073 002e 2046     		mov	r0, r4
 4074 0030 0A91     		str	r1, [sp, #40]
 4075 0032 FFF7FEFF 		bl	CheckAvailableSize
 4076 0036 0546     		mov	r5, r0
 4077 0038 90B9     		cbnz	r0, .L710
 4078 003a 2046     		mov	r0, r4
 4079 003c FFF7FEFF 		bl	GetOutputBuffer
 4080 0040 0923     		movs	r3, #9
 4081 0042 0690     		str	r0, [sp, #24]
 4082 0044 0893     		str	r3, [sp, #32]
 4083 0046 1844     		add	r0, r0, r3
 4084 0048 D4F83431 		ldr	r3, [r4, #308]
 4085 004c 84F80863 		strb	r6, [r4, #776]
 4086 0050 D4F8F480 		ldr	r8, [r4, #244]
 4087 0054 D4F8FC60 		ldr	r6, [r4, #252]
 4088 0058 0790     		str	r0, [sp, #28]
 4089 005a 93B9     		cbnz	r3, .L711
 4090              	.L712:
 4091 005c 6FF49E75 		mvn	r5, #316
 4092              	.L710:
 4093 0060 0C98     		ldr	r0, [sp, #48]
 4094 0062 18B1     		cbz	r0, .L723
 4095 0064 FFF7FEFF 		bl	wolfSSL_Free
 4096 0068 0023     		movs	r3, #0
 4097 006a 0C93     		str	r3, [sp, #48]
 4098              	.L723:
 4099 006c 2046     		mov	r0, r4
 4100 006e FFF7FEFF 		bl	FreeKeyExchange
 4101 0072 0021     		movs	r1, #0
 4102 0074 2046     		mov	r0, r4
ARM GAS  /tmp/cc36Vpy0.s 			page 72


 4103 0076 FFF7FEFF 		bl	FreeAsyncCtx
 4104              	.L708:
 4105 007a 2846     		mov	r0, r5
 4106 007c 0EB0     		add	sp, sp, #56
 4107              		@ sp needed
 4108 007e BDE8F081 		pop	{r4, r5, r6, r7, r8, pc}
 4109              	.L711:
 4110 0082 09AF     		add	r7, sp, #36
 4111 0084 3946     		mov	r1, r7
 4112 0086 2046     		mov	r0, r4
 4113 0088 FFF7FEFF 		bl	DecodePrivateKey
 4114 008c 0546     		mov	r5, r0
 4115 008e 0028     		cmp	r0, #0
 4116 0090 E6D1     		bne	.L710
 4117 0092 A6F10903 		sub	r3, r6, #9
 4118 0096 B3EB0803 		subs	r3, r3, r8
 4119 009a 00F1A380 		bmi	.L726
 4120 009e 099A     		ldr	r2, [sp, #36]
 4121 00a0 9A42     		cmp	r2, r3
 4122 00a2 00F39F80 		bgt	.L726
 4123 00a6 002A     		cmp	r2, #0
 4124 00a8 D8D0     		beq	.L712
 4125 00aa D4F8A430 		ldr	r3, [r4, #164]
 4126 00ae 0A2B     		cmp	r3, #10
 4127 00b0 56D1     		bne	.L713
 4128 00b2 0823     		movs	r3, #8
 4129 00b4 8DF82E30 		strb	r3, [sp, #46]
 4130              	.L714:
 4131 00b8 0C9B     		ldr	r3, [sp, #48]
 4132 00ba 002B     		cmp	r3, #0
 4133 00bc 5BD0     		beq	.L715
 4134              	.L718:
 4135 00be 0023     		movs	r3, #0
 4136 00c0 2046     		mov	r0, r4
 4137 00c2 0C99     		ldr	r1, [sp, #48]
 4138 00c4 0DAA     		add	r2, sp, #52
 4139 00c6 FFF7FEFF 		bl	CreateSigData
 4140 00ca 0546     		mov	r5, r0
 4141 00cc 0028     		cmp	r0, #0
 4142 00ce C7D1     		bne	.L710
 4143 00d0 D4F8A430 		ldr	r3, [r4, #164]
 4144 00d4 252B     		cmp	r3, #37
 4145 00d6 0FD1     		bne	.L719
 4146 00d8 089A     		ldr	r2, [sp, #32]
 4147 00da 0A9B     		ldr	r3, [sp, #40]
 4148 00dc BDF83410 		ldrh	r1, [sp, #52]
 4149 00e0 9B1A     		subs	r3, r3, r2
 4150 00e2 043B     		subs	r3, r3, #4
 4151 00e4 94F8FD22 		ldrb	r2, [r4, #765]	@ zero_extendqisi2
 4152 00e8 0C98     		ldr	r0, [sp, #48]
 4153 00ea 0993     		str	r3, [sp, #36]
 4154 00ec FFF7FEFF 		bl	CreateECCEncodedSig
 4155 00f0 0028     		cmp	r0, #0
 4156 00f2 33DB     		blt	.L732
 4157 00f4 ADF83400 		strh	r0, [sp, #52]	@ movhi
 4158              	.L719:
 4159 00f8 0223     		movs	r3, #2
ARM GAS  /tmp/cc36Vpy0.s 			page 73


 4160 00fa 84F80833 		strb	r3, [r4, #776]
 4161 00fe D4F8A430 		ldr	r3, [r4, #164]
 4162 0102 252B     		cmp	r3, #37
 4163 0104 49D0     		beq	.L720
 4164              	.L722:
 4165 0106 BDF82C20 		ldrh	r2, [sp, #44]
 4166 010a 079B     		ldr	r3, [sp, #28]
 4167 010c 110A     		lsrs	r1, r2, #8
 4168 010e DA70     		strb	r2, [r3, #3]
 4169 0110 9970     		strb	r1, [r3, #2]
 4170 0112 0423     		movs	r3, #4
 4171 0114 BDF82C10 		ldrh	r1, [sp, #44]
 4172 0118 0F22     		movs	r2, #15
 4173 011a 0698     		ldr	r0, [sp, #24]
 4174 011c 84F80833 		strb	r3, [r4, #776]
 4175 0120 0431     		adds	r1, r1, #4
 4176 0122 94F89E31 		ldrb	r3, [r4, #414]	@ zero_extendqisi2
 4177 0126 FFF7FEFF 		bl	AddTls13Headers.isra.0
 4178 012a BDF82C30 		ldrh	r3, [sp, #44]
 4179 012e 0120     		movs	r0, #1
 4180 0130 03F10D02 		add	r2, r3, #13
 4181 0134 0A92     		str	r2, [sp, #40]
 4182 0136 0522     		movs	r2, #5
 4183 0138 0026     		movs	r6, #0
 4184 013a 84F80823 		strb	r2, [r4, #776]
 4185 013e 1622     		movs	r2, #22
 4186 0140 0699     		ldr	r1, [sp, #24]
 4187 0142 0833     		adds	r3, r3, #8
 4188 0144 CDE90120 		strd	r2, r0, [sp, #4]
 4189 0148 0093     		str	r3, [sp]
 4190 014a AF22     		movs	r2, #175
 4191 014c 2046     		mov	r0, r4
 4192 014e CDE90366 		strd	r6, r6, [sp, #12]
 4193 0152 4B1D     		adds	r3, r1, #5
 4194 0154 FFF7FEFF 		bl	BuildTls13Message
 4195 0158 0028     		cmp	r0, #0
 4196 015a 32DA     		bge	.L740
 4197              	.L732:
 4198 015c 0546     		mov	r5, r0
 4199 015e 7FE7     		b	.L710
 4200              	.L713:
 4201 0160 252B     		cmp	r3, #37
 4202 0162 42D1     		bne	.L727
 4203 0164 0322     		movs	r2, #3
 4204 0166 94F8FD12 		ldrb	r1, [r4, #765]	@ zero_extendqisi2
 4205 016a 079B     		ldr	r3, [sp, #28]
 4206 016c 8DF82E20 		strb	r2, [sp, #46]
 4207 0170 1970     		strb	r1, [r3]
 4208 0172 5A70     		strb	r2, [r3, #1]
 4209 0174 A0E7     		b	.L714
 4210              	.L715:
 4211 0176 D4F8A430 		ldr	r3, [r4, #164]
 4212 017a 0A2B     		cmp	r3, #10
 4213 017c 0BD1     		bne	.L728
 4214 017e 0998     		ldr	r0, [sp, #36]
 4215 0180 A228     		cmp	r0, #162
 4216 0182 38BF     		it	cc
ARM GAS  /tmp/cc36Vpy0.s 			page 74


 4217 0184 A220     		movcc	r0, #162
 4218              	.L717:
 4219 0186 FFF7FEFF 		bl	wolfSSL_Malloc
 4220 018a 0C90     		str	r0, [sp, #48]
 4221 018c 0028     		cmp	r0, #0
 4222 018e 96D1     		bne	.L718
 4223 0190 6FF07C05 		mvn	r5, #124
 4224 0194 64E7     		b	.L710
 4225              	.L728:
 4226 0196 A220     		movs	r0, #162
 4227 0198 F5E7     		b	.L717
 4228              	.L720:
 4229 019a 0023     		movs	r3, #0
 4230 019c 0293     		str	r3, [sp, #8]
 4231 019e D4F8A030 		ldr	r3, [r4, #160]
 4232 01a2 2046     		mov	r0, r4
 4233 01a4 CDE90073 		strd	r7, r3, [sp]
 4234 01a8 079B     		ldr	r3, [sp, #28]
 4235 01aa BDF83420 		ldrh	r2, [sp, #52]
 4236 01ae 0433     		adds	r3, r3, #4
 4237 01b0 0C99     		ldr	r1, [sp, #48]
 4238 01b2 FFF7FEFF 		bl	EccSign
 4239 01b6 099B     		ldr	r3, [sp, #36]
 4240 01b8 ADF82C30 		strh	r3, [sp, #44]	@ movhi
 4241 01bc 0028     		cmp	r0, #0
 4242 01be CDD1     		bne	.L732
 4243 01c0 A1E7     		b	.L722
 4244              	.L740:
 4245 01c2 D4F8F430 		ldr	r3, [r4, #244]
 4246 01c6 0A90     		str	r0, [sp, #40]
 4247 01c8 1844     		add	r0, r0, r3
 4248 01ca 94F8F132 		ldrb	r3, [r4, #753]	@ zero_extendqisi2
 4249 01ce C4F8F400 		str	r0, [r4, #244]
 4250 01d2 DB07     		lsls	r3, r3, #31
 4251 01d4 84F8F462 		strb	r6, [r4, #756]
 4252 01d8 3FF542AF 		bmi	.L710
 4253 01dc 2046     		mov	r0, r4
 4254 01de FFF7FEFF 		bl	SendBuffered
 4255 01e2 BBE7     		b	.L732
 4256              	.L726:
 4257 01e4 6FF08305 		mvn	r5, #131
 4258 01e8 3AE7     		b	.L710
 4259              	.L727:
 4260 01ea 6FF08405 		mvn	r5, #132
 4261 01ee 37E7     		b	.L710
 4263              		.section	.text.DoTls13Finished,"ax",%progbits
 4264              		.align	1
 4265              		.global	DoTls13Finished
 4266              		.syntax unified
 4267              		.thumb
 4268              		.thumb_func
 4269              		.fpu fpv4-sp-d16
 4271              	DoTls13Finished:
 4272              		@ args = 8, pretend = 0, frame = 72
 4273              		@ frame_needed = 0, uses_anonymous_args = 0
 4274 0000 2DE9F043 		push	{r4, r5, r6, r7, r8, r9, lr}
 4275 0004 1E46     		mov	r6, r3
ARM GAS  /tmp/cc36Vpy0.s 			page 75


 4276 0006 0023     		movs	r3, #0
 4277 0008 93B0     		sub	sp, sp, #76
 4278 000a 0193     		str	r3, [sp, #4]
 4279 000c B0F8EC32 		ldrh	r3, [r0, #748]
 4280 0010 0446     		mov	r4, r0
 4281 0012 03F48353 		and	r3, r3, #4192
 4282 0016 8846     		mov	r8, r1
 4283 0018 1746     		mov	r7, r2
 4284 001a 1B9D     		ldr	r5, [sp, #108]
 4285 001c CBB9     		cbnz	r3, .L742
 4286 001e 90F8F232 		ldrb	r3, [r0, #754]	@ zero_extendqisi2
 4287 0022 9907     		lsls	r1, r3, #30
 4288 0024 03D4     		bmi	.L743
 4289 0026 90F8ED32 		ldrb	r3, [r0, #749]	@ zero_extendqisi2
 4290 002a 9A07     		lsls	r2, r3, #30
 4291 002c 11D5     		bpl	.L742
 4292              	.L743:
 4293 002e 94F9EF32 		ldrsb	r3, [r4, #751]
 4294 0032 002B     		cmp	r3, #0
 4295 0034 03DA     		bge	.L744
 4296 0036 94F8F032 		ldrb	r3, [r4, #752]	@ zero_extendqisi2
 4297 003a DB07     		lsls	r3, r3, #31
 4298 003c 09D4     		bmi	.L742
 4299              	.L744:
 4300 003e 2046     		mov	r0, r4
 4301 0040 6FF4AC71 		mvn	r1, #344
 4302 0044 FFF7FEFF 		bl	DoCertFatalAlert
 4303 0048 6FF4AC70 		mvn	r0, #344
 4304              	.L741:
 4305 004c 13B0     		add	sp, sp, #76
 4306              		@ sp needed
 4307 004e BDE8F083 		pop	{r4, r5, r6, r7, r8, r9, pc}
 4308              	.L742:
 4309 0052 3B68     		ldr	r3, [r7]
 4310 0054 1A9A     		ldr	r2, [sp, #104]
 4311 0056 3344     		add	r3, r3, r6
 4312 0058 9342     		cmp	r3, r2
 4313 005a 5CD8     		bhi	.L756
 4314 005c 94F80433 		ldrb	r3, [r4, #772]	@ zero_extendqisi2
 4315 0060 04F5DA79 		add	r9, r4, #436
 4316 0064 B3B1     		cbz	r3, .L746
 4317 0066 0123     		movs	r3, #1
 4318 0068 4A46     		mov	r2, r9
 4319 006a 04F11001 		add	r1, r4, #16
 4320              	.L768:
 4321 006e 2046     		mov	r0, r4
 4322 0070 FFF7FEFF 		bl	DeriveFinishedSecret
 4323 0074 0028     		cmp	r0, #0
 4324 0076 E9D1     		bne	.L741
 4325              	.L747:
 4326 0078 15BB     		cbnz	r5, .L748
 4327 007a 4946     		mov	r1, r9
 4328 007c 2046     		mov	r0, r4
 4329 007e 01AB     		add	r3, sp, #4
 4330 0080 02AA     		add	r2, sp, #8
 4331 0082 FFF7FEFF 		bl	BuildTls13HandshakeHmac
 4332 0086 0028     		cmp	r0, #0
ARM GAS  /tmp/cc36Vpy0.s 			page 76


 4333 0088 E0D1     		bne	.L741
 4334 008a 019B     		ldr	r3, [sp, #4]
 4335 008c B342     		cmp	r3, r6
 4336 008e 45D0     		beq	.L765
 4337 0090 2B48     		ldr	r0, .L769
 4338 0092 DBE7     		b	.L741
 4339              	.L746:
 4340 0094 94F8EC32 		ldrb	r3, [r4, #748]	@ zero_extendqisi2
 4341 0098 03F06003 		and	r3, r3, #96
 4342 009c 202B     		cmp	r3, #32
 4343 009e EBD1     		bne	.L747
 4344 00a0 0123     		movs	r3, #1
 4345 00a2 4A46     		mov	r2, r9
 4346 00a4 2046     		mov	r0, r4
 4347 00a6 04F11001 		add	r1, r4, #16
 4348 00aa FFF7FEFF 		bl	DeriveFinishedSecret
 4349 00ae 0028     		cmp	r0, #0
 4350 00b0 CCD1     		bne	.L741
 4351 00b2 04F5FA79 		add	r9, r4, #500
 4352 00b6 0346     		mov	r3, r0
 4353 00b8 4A46     		mov	r2, r9
 4354 00ba 04F14001 		add	r1, r4, #64
 4355 00be D6E7     		b	.L768
 4356              	.L748:
 4357 00c0 3B68     		ldr	r3, [r7]
 4358 00c2 3344     		add	r3, r3, r6
 4359 00c4 D4F8C862 		ldr	r6, [r4, #712]
 4360 00c8 3344     		add	r3, r3, r6
 4361 00ca 3B60     		str	r3, [r7]
 4362 00cc 94F8EC32 		ldrb	r3, [r4, #748]	@ zero_extendqisi2
 4363 00d0 13F0600F 		tst	r3, #96
 4364 00d4 0AD0     		beq	.L750
 4365              	.L753:
 4366 00d6 94F8EC32 		ldrb	r3, [r4, #748]	@ zero_extendqisi2
 4367 00da 03F06000 		and	r0, r3, #96
 4368 00de 2028     		cmp	r0, #32
 4369 00e0 0FD1     		bne	.L766
 4370 00e2 0A23     		movs	r3, #10
 4371 00e4 84F80133 		strb	r3, [r4, #769]
 4372              	.L758:
 4373 00e8 0020     		movs	r0, #0
 4374 00ea AFE7     		b	.L741
 4375              	.L750:
 4376 00ec 94F80433 		ldrb	r3, [r4, #772]	@ zero_extendqisi2
 4377 00f0 002B     		cmp	r3, #0
 4378 00f2 F0D1     		bne	.L753
 4379 00f4 0221     		movs	r1, #2
 4380 00f6 2046     		mov	r0, r4
 4381 00f8 FFF7FEFF 		bl	SetKeysSide
 4382 00fc 0028     		cmp	r0, #0
 4383 00fe EAD0     		beq	.L753
 4384 0100 A4E7     		b	.L741
 4385              	.L766:
 4386 0102 0028     		cmp	r0, #0
 4387 0104 F0D1     		bne	.L758
 4388 0106 41F20F03 		movw	r3, #4111
 4389 010a A4F80233 		strh	r3, [r4, #770]	@ movhi
ARM GAS  /tmp/cc36Vpy0.s 			page 77


 4390 010e 0123     		movs	r3, #1
 4391 0110 84F80433 		strb	r3, [r4, #772]
 4392 0114 9AE7     		b	.L741
 4393              	.L756:
 4394 0116 6FF08300 		mvn	r0, #131
 4395 011a 97E7     		b	.L741
 4396              	.L765:
 4397 011c 402E     		cmp	r6, #64
 4398 011e 07D8     		bhi	.L754
 4399 0120 3868     		ldr	r0, [r7]
 4400 0122 3246     		mov	r2, r6
 4401 0124 02A9     		add	r1, sp, #8
 4402 0126 4044     		add	r0, r0, r8
 4403 0128 FFF7FEFF 		bl	memcmp
 4404 012c 0028     		cmp	r0, #0
 4405 012e C7D0     		beq	.L748
 4406              	.L754:
 4407 0130 3322     		movs	r2, #51
 4408 0132 0221     		movs	r1, #2
 4409 0134 2046     		mov	r0, r4
 4410 0136 FFF7FEFF 		bl	SendAlert
 4411 013a 0248     		ldr	r0, .L769+4
 4412 013c 86E7     		b	.L741
 4413              	.L770:
 4414 013e 00BF     		.align	2
 4415              	.L769:
 4416 0140 B8FEFFFF 		.word	-328
 4417 0144 D0FEFFFF 		.word	-304
 4419              		.section	.text.SendTls13KeyUpdate,"ax",%progbits
 4420              		.align	1
 4421              		.global	SendTls13KeyUpdate
 4422              		.syntax unified
 4423              		.thumb
 4424              		.thumb_func
 4425              		.fpu fpv4-sp-d16
 4427              	SendTls13KeyUpdate:
 4428              		@ args = 0, pretend = 0, frame = 0
 4429              		@ frame_needed = 0, uses_anonymous_args = 0
 4430 0000 70B5     		push	{r4, r5, r6, lr}
 4431 0002 6721     		movs	r1, #103
 4432 0004 86B0     		sub	sp, sp, #24
 4433 0006 0546     		mov	r5, r0
 4434 0008 FFF7FEFF 		bl	CheckAvailableSize
 4435 000c 0446     		mov	r4, r0
 4436 000e 0028     		cmp	r0, #0
 4437 0010 43D1     		bne	.L771
 4438 0012 2846     		mov	r0, r5
 4439 0014 FFF7FEFF 		bl	GetOutputBuffer
 4440 0018 1822     		movs	r2, #24
 4441 001a 0121     		movs	r1, #1
 4442 001c 95F89E31 		ldrb	r3, [r5, #414]	@ zero_extendqisi2
 4443 0020 FFF7FEFF 		bl	AddTls13Headers.isra.0
 4444 0024 B5F8CE32 		ldrh	r3, [r5, #718]
 4445 0028 1622     		movs	r2, #22
 4446 002a B3FA83F3 		clz	r3, r3
 4447 002e 5B09     		lsrs	r3, r3, #5
 4448 0030 4372     		strb	r3, [r0, #9]
ARM GAS  /tmp/cc36Vpy0.s 			page 78


 4449 0032 85F8CE32 		strb	r3, [r5, #718]
 4450 0036 0523     		movs	r3, #5
 4451 0038 0146     		mov	r1, r0
 4452 003a CDE90032 		strd	r3, r2, [sp]
 4453 003e CDE90344 		strd	r4, r4, [sp, #12]
 4454 0042 C318     		adds	r3, r0, r3
 4455 0044 6722     		movs	r2, #103
 4456 0046 2846     		mov	r0, r5
 4457 0048 85F8CF42 		strb	r4, [r5, #719]
 4458 004c 0294     		str	r4, [sp, #8]
 4459 004e FFF7FEFF 		bl	BuildTls13Message
 4460 0052 0028     		cmp	r0, #0
 4461 0054 20DB     		blt	.L774
 4462 0056 D5F8F430 		ldr	r3, [r5, #244]
 4463 005a 1844     		add	r0, r0, r3
 4464 005c C5F8F400 		str	r0, [r5, #244]
 4465 0060 2846     		mov	r0, r5
 4466 0062 FFF7FEFF 		bl	SendBuffered
 4467 0066 0446     		mov	r4, r0
 4468 0068 18B1     		cbz	r0, .L773
 4469 006a 6FF4A373 		mvn	r3, #326
 4470 006e 9842     		cmp	r0, r3
 4471 0070 13D1     		bne	.L771
 4472              	.L773:
 4473 0072 95F8EE32 		ldrb	r3, [r5, #750]	@ zero_extendqisi2
 4474 0076 5B07     		lsls	r3, r3, #29
 4475 0078 0FD4     		bmi	.L771
 4476 007a 0123     		movs	r3, #1
 4477 007c 0421     		movs	r1, #4
 4478 007e 1A46     		mov	r2, r3
 4479 0080 2846     		mov	r0, r5
 4480 0082 FFF7FEFF 		bl	DeriveTls13Keys
 4481 0086 0446     		mov	r4, r0
 4482 0088 38B9     		cbnz	r0, .L771
 4483 008a 0121     		movs	r1, #1
 4484 008c 2846     		mov	r0, r5
 4485 008e 06B0     		add	sp, sp, #24
 4486              		@ sp needed
 4487 0090 BDE87040 		pop	{r4, r5, r6, lr}
 4488 0094 FFF7FEBF 		b	SetKeysSide
 4489              	.L774:
 4490 0098 014C     		ldr	r4, .L778
 4491              	.L771:
 4492 009a 2046     		mov	r0, r4
 4493 009c 06B0     		add	sp, sp, #24
 4494              		@ sp needed
 4495 009e 70BD     		pop	{r4, r5, r6, pc}
 4496              	.L779:
 4497              		.align	2
 4498              	.L778:
 4499 00a0 C0FEFFFF 		.word	-320
 4501              		.section	.text.DoTls13HandShakeMsgType,"ax",%progbits
 4502              		.align	1
 4503              		.global	DoTls13HandShakeMsgType
 4504              		.syntax unified
 4505              		.thumb
 4506              		.thumb_func
ARM GAS  /tmp/cc36Vpy0.s 			page 79


 4507              		.fpu fpv4-sp-d16
 4509              	DoTls13HandShakeMsgType:
 4510              		@ args = 8, pretend = 0, frame = 40
 4511              		@ frame_needed = 0, uses_anonymous_args = 0
 4512 0000 2DE9F04F 		push	{r4, r5, r6, r7, r8, r9, r10, fp, lr}
 4513 0004 D2F80080 		ldr	r8, [r2]
 4514 0008 8FB0     		sub	sp, sp, #60
 4515 000a DDE91865 		ldrd	r6, r5, [sp, #96]
 4516 000e 8DF81730 		strb	r3, [sp, #23]
 4517 0012 08EB0603 		add	r3, r8, r6
 4518 0016 AB42     		cmp	r3, r5
 4519 0018 0446     		mov	r4, r0
 4520 001a 0F46     		mov	r7, r1
 4521 001c 9146     		mov	r9, r2
 4522 001e 00F2C383 		bhi	.L867
 4523 0022 9DF81730 		ldrb	r3, [sp, #23]	@ zero_extendqisi2
 4524 0026 581E     		subs	r0, r3, #1
 4525 0028 1728     		cmp	r0, #23
 4526 002a 00F2CB80 		bhi	.L889
 4527 002e DFE810F0 		tbh	[pc, r0, lsl #1]
 4528              	.L784:
 4529 0032 1800     		.2byte	(.L792-.L784)/2
 4530 0034 5200     		.2byte	(.L791-.L784)/2
 4531 0036 C900     		.2byte	(.L889-.L784)/2
 4532 0038 6400     		.2byte	(.L790-.L784)/2
 4533 003a C900     		.2byte	(.L889-.L784)/2
 4534 003c C900     		.2byte	(.L889-.L784)/2
 4535 003e C900     		.2byte	(.L889-.L784)/2
 4536 0040 7300     		.2byte	(.L789-.L784)/2
 4537 0042 C900     		.2byte	(.L889-.L784)/2
 4538 0044 C900     		.2byte	(.L889-.L784)/2
 4539 0046 8700     		.2byte	(.L788-.L784)/2
 4540 0048 C900     		.2byte	(.L889-.L784)/2
 4541 004a A500     		.2byte	(.L787-.L784)/2
 4542 004c C900     		.2byte	(.L889-.L784)/2
 4543 004e BB00     		.2byte	(.L786-.L784)/2
 4544 0050 C900     		.2byte	(.L889-.L784)/2
 4545 0052 C900     		.2byte	(.L889-.L784)/2
 4546 0054 C900     		.2byte	(.L889-.L784)/2
 4547 0056 C900     		.2byte	(.L889-.L784)/2
 4548 0058 E000     		.2byte	(.L785-.L784)/2
 4549 005a C900     		.2byte	(.L889-.L784)/2
 4550 005c C900     		.2byte	(.L889-.L784)/2
 4551 005e C900     		.2byte	(.L889-.L784)/2
 4552 0060 3501     		.2byte	(.L783-.L784)/2
 4553              		.p2align 1
 4554              	.L792:
 4555 0062 94F8EC22 		ldrb	r2, [r4, #748]	@ zero_extendqisi2
 4556 0066 02F06002 		and	r2, r2, #96
 4557 006a 202A     		cmp	r2, #32
 4558 006c 00F09E83 		beq	.L884
 4559 0070 94F80223 		ldrb	r2, [r4, #770]	@ zero_extendqisi2
 4560 0074 0B2A     		cmp	r2, #11
 4561 0076 6DD8     		bhi	.L903
 4562 0078 94F89A21 		ldrb	r2, [r4, #410]	@ zero_extendqisi2
 4563 007c 02F00601 		and	r1, r2, #6
 4564 0080 0429     		cmp	r1, #4
ARM GAS  /tmp/cc36Vpy0.s 			page 80


 4565 0082 00F09A83 		beq	.L902
 4566 0086 0229     		cmp	r1, #2
 4567 0088 04D1     		bne	.L793
 4568 008a 94F80113 		ldrb	r1, [r4, #769]	@ zero_extendqisi2
 4569 008e 0229     		cmp	r1, #2
 4570 0090 40F09383 		bne	.L902
 4571              	.L793:
 4572 0094 C2F34101 		ubfx	r1, r2, #1, #2
 4573 0098 0131     		adds	r1, r1, #1
 4574 009a 61F34202 		bfi	r2, r1, #1, #2
 4575              	.L962:
 4576 009e 84F89A21 		strb	r2, [r4, #410]
 4577              	.L794:
 4578 00a2 94F80323 		ldrb	r2, [r4, #771]	@ zero_extendqisi2
 4579 00a6 102A     		cmp	r2, #16
 4580 00a8 40F0FE80 		bne	.L808
 4581 00ac 182B     		cmp	r3, #24
 4582 00ae 07D8     		bhi	.L809
 4583 00b0 02F18872 		add	r2, r2, #17825792
 4584 00b4 02F52052 		add	r2, r2, #10240
 4585 00b8 DA40     		lsrs	r2, r2, r3
 4586 00ba D207     		lsls	r2, r2, #31
 4587 00bc 00F1F480 		bmi	.L808
 4588              	.L809:
 4589 00c0 0A22     		movs	r2, #10
 4590 00c2 0221     		movs	r1, #2
 4591 00c4 2046     		mov	r0, r4
 4592 00c6 FFF7FEFF 		bl	SendAlert
 4593 00ca 6FF4BA75 		mvn	r5, #372
 4594              	.L780:
 4595 00ce 2846     		mov	r0, r5
 4596 00d0 0FB0     		add	sp, sp, #60
 4597              		@ sp needed
 4598 00d2 BDE8F08F 		pop	{r4, r5, r6, r7, r8, r9, r10, fp, pc}
 4599              	.L791:
 4600 00d6 94F8EC22 		ldrb	r2, [r4, #748]	@ zero_extendqisi2
 4601 00da 12F0600F 		tst	r2, #96
 4602 00de 00F06583 		beq	.L884
 4603 00e2 94F80123 		ldrb	r2, [r4, #769]	@ zero_extendqisi2
 4604 00e6 022A     		cmp	r2, #2
 4605 00e8 34D8     		bhi	.L903
 4606 00ea 94F89A21 		ldrb	r2, [r4, #410]	@ zero_extendqisi2
 4607 00ee 1107     		lsls	r1, r2, #28
 4608 00f0 00F16383 		bmi	.L902
 4609 00f4 42F00802 		orr	r2, r2, #8
 4610 00f8 D1E7     		b	.L962
 4611              	.L790:
 4612 00fa 94F8EC22 		ldrb	r2, [r4, #748]	@ zero_extendqisi2
 4613 00fe 12F0600F 		tst	r2, #96
 4614 0102 00F05383 		beq	.L884
 4615 0106 94F80223 		ldrb	r2, [r4, #770]	@ zero_extendqisi2
 4616 010a 0E2A     		cmp	r2, #14
 4617 010c 22D9     		bls	.L903
 4618 010e 94F89A21 		ldrb	r2, [r4, #410]	@ zero_extendqisi2
 4619 0112 42F02002 		orr	r2, r2, #32
 4620 0116 C2E7     		b	.L962
 4621              	.L789:
ARM GAS  /tmp/cc36Vpy0.s 			page 81


 4622 0118 94F8EC22 		ldrb	r2, [r4, #748]	@ zero_extendqisi2
 4623 011c 12F0600F 		tst	r2, #96
 4624 0120 00F04483 		beq	.L884
 4625 0124 94F80123 		ldrb	r2, [r4, #769]	@ zero_extendqisi2
 4626 0128 032A     		cmp	r2, #3
 4627 012a 13D1     		bne	.L903
 4628 012c 94F89B21 		ldrb	r2, [r4, #411]	@ zero_extendqisi2
 4629 0130 D107     		lsls	r1, r2, #31
 4630 0132 00F14283 		bmi	.L902
 4631 0136 42F00102 		orr	r2, r2, #1
 4632              	.L963:
 4633 013a 84F89B21 		strb	r2, [r4, #411]
 4634 013e B0E7     		b	.L794
 4635              	.L788:
 4636 0140 94F8EC22 		ldrb	r2, [r4, #748]	@ zero_extendqisi2
 4637 0144 02F06002 		and	r2, r2, #96
 4638 0148 202A     		cmp	r2, #32
 4639 014a 06D1     		bne	.L795
 4640 014c 94F80123 		ldrb	r2, [r4, #769]	@ zero_extendqisi2
 4641 0150 042A     		cmp	r2, #4
 4642 0152 0BD0     		beq	.L796
 4643              	.L903:
 4644 0154 6FF4BA75 		mvn	r5, #372
 4645 0158 29E3     		b	.L782
 4646              	.L795:
 4647 015a 3AB9     		cbnz	r2, .L796
 4648 015c 94F80223 		ldrb	r2, [r4, #770]	@ zero_extendqisi2
 4649 0160 0C2A     		cmp	r2, #12
 4650 0162 03D0     		beq	.L796
 4651 0164 94F80123 		ldrb	r2, [r4, #769]	@ zero_extendqisi2
 4652 0168 092A     		cmp	r2, #9
 4653 016a F3D9     		bls	.L903
 4654              	.L796:
 4655 016c 94F89B21 		ldrb	r2, [r4, #411]	@ zero_extendqisi2
 4656 0170 9107     		lsls	r1, r2, #30
 4657 0172 00F12283 		bmi	.L902
 4658 0176 42F00202 		orr	r2, r2, #2
 4659 017a DEE7     		b	.L963
 4660              	.L787:
 4661 017c 94F8EC22 		ldrb	r2, [r4, #748]	@ zero_extendqisi2
 4662 0180 12F0600F 		tst	r2, #96
 4663 0184 00F01283 		beq	.L884
 4664 0188 94F80123 		ldrb	r2, [r4, #769]	@ zero_extendqisi2
 4665 018c 042A     		cmp	r2, #4
 4666 018e E1D1     		bne	.L903
 4667 0190 94F8F222 		ldrb	r2, [r4, #754]	@ zero_extendqisi2
 4668 0194 1207     		lsls	r2, r2, #28
 4669 0196 15D4     		bmi	.L889
 4670 0198 94F89B21 		ldrb	r2, [r4, #411]	@ zero_extendqisi2
 4671 019c D106     		lsls	r1, r2, #27
 4672 019e 00F10C83 		bmi	.L902
 4673 01a2 42F01002 		orr	r2, r2, #16
 4674 01a6 C8E7     		b	.L963
 4675              	.L786:
 4676 01a8 94F8EC22 		ldrb	r2, [r4, #748]	@ zero_extendqisi2
 4677 01ac 02F06002 		and	r2, r2, #96
 4678 01b0 202A     		cmp	r2, #32
ARM GAS  /tmp/cc36Vpy0.s 			page 82


 4679 01b2 09D1     		bne	.L797
 4680 01b4 94F80123 		ldrb	r2, [r4, #769]	@ zero_extendqisi2
 4681 01b8 052A     		cmp	r2, #5
 4682 01ba CBD1     		bne	.L903
 4683 01bc 94F8F222 		ldrb	r2, [r4, #754]	@ zero_extendqisi2
 4684 01c0 1107     		lsls	r1, r2, #28
 4685 01c2 0ED5     		bpl	.L798
 4686              	.L889:
 4687 01c4 B64D     		ldr	r5, .L971
 4688 01c6 F2E2     		b	.L782
 4689              	.L797:
 4690 01c8 5AB9     		cbnz	r2, .L798
 4691 01ca 94F80123 		ldrb	r2, [r4, #769]	@ zero_extendqisi2
 4692 01ce 092A     		cmp	r2, #9
 4693 01d0 C0D9     		bls	.L903
 4694 01d2 94F80223 		ldrb	r2, [r4, #770]	@ zero_extendqisi2
 4695 01d6 0B2A     		cmp	r2, #11
 4696 01d8 BCD9     		bls	.L903
 4697 01da 94F89B21 		ldrb	r2, [r4, #411]	@ zero_extendqisi2
 4698 01de 9207     		lsls	r2, r2, #30
 4699 01e0 B8D5     		bpl	.L903
 4700              	.L798:
 4701 01e2 94F89B21 		ldrb	r2, [r4, #411]	@ zero_extendqisi2
 4702 01e6 5106     		lsls	r1, r2, #25
 4703 01e8 00F1E782 		bmi	.L902
 4704 01ec 42F04002 		orr	r2, r2, #64
 4705 01f0 A3E7     		b	.L963
 4706              	.L785:
 4707 01f2 94F8EC12 		ldrb	r1, [r4, #748]	@ zero_extendqisi2
 4708 01f6 01F06002 		and	r2, r1, #96
 4709 01fa 202A     		cmp	r2, #32
 4710 01fc 2CD1     		bne	.L799
 4711 01fe 94F80223 		ldrb	r2, [r4, #770]	@ zero_extendqisi2
 4712 0202 0B2A     		cmp	r2, #11
 4713 0204 A6D9     		bls	.L903
 4714 0206 94F8F2C2 		ldrb	ip, [r4, #754]	@ zero_extendqisi2
 4715 020a 94F80123 		ldrb	r2, [r4, #769]	@ zero_extendqisi2
 4716 020e 1CF0080F 		tst	ip, #8
 4717 0212 1FD0     		beq	.L800
 4718 0214 042A     		cmp	r2, #4
 4719              	.L970:
 4720 0216 9DD1     		bne	.L903
 4721              	.L801:
 4722 0218 94F8F222 		ldrb	r2, [r4, #754]	@ zero_extendqisi2
 4723 021c 12F0080F 		tst	r2, #8
 4724 0220 32D1     		bne	.L802
 4725 0222 4FFA81FC 		sxtb	ip, r1
 4726 0226 BCF1000F 		cmp	ip, #0
 4727 022a 04DA     		bge	.L803
 4728 022c 94F89BE1 		ldrb	lr, [r4, #411]	@ zero_extendqisi2
 4729 0230 1EF0020F 		tst	lr, #2
 4730 0234 8ED0     		beq	.L903
 4731              	.L803:
 4732 0236 12F00202 		ands	r2, r2, #2
 4733 023a 03D1     		bne	.L804
 4734 023c 01F0E001 		and	r1, r1, #224
 4735 0240 A029     		cmp	r1, #160
ARM GAS  /tmp/cc36Vpy0.s 			page 83


 4736 0242 15D1     		bne	.L805
 4737              	.L804:
 4738 0244 94F9EF12 		ldrsb	r1, [r4, #751]
 4739 0248 0029     		cmp	r1, #0
 4740 024a 83DA     		bge	.L903
 4741 024c BAB9     		cbnz	r2, .L806
 4742 024e BCF1000F 		cmp	ip, #0
 4743 0252 13E0     		b	.L961
 4744              	.L800:
 4745 0254 062A     		cmp	r2, #6
 4746 0256 DEE7     		b	.L970
 4747              	.L799:
 4748 0258 002A     		cmp	r2, #0
 4749 025a DDD1     		bne	.L801
 4750 025c 94F80123 		ldrb	r2, [r4, #769]	@ zero_extendqisi2
 4751 0260 092A     		cmp	r2, #9
 4752 0262 7FF677AF 		bls	.L903
 4753 0266 94F80223 		ldrb	r2, [r4, #770]	@ zero_extendqisi2
 4754 026a 0B2A     		cmp	r2, #11
 4755 026c D4D8     		bhi	.L801
 4756 026e 71E7     		b	.L903
 4757              	.L805:
 4758 0270 BCF1000F 		cmp	ip, #0
 4759 0274 08DA     		bge	.L802
 4760 0276 94F9EF22 		ldrsb	r2, [r4, #751]
 4761 027a 002A     		cmp	r2, #0
 4762              	.L961:
 4763 027c 04DA     		bge	.L802
 4764              	.L806:
 4765 027e 94F8F022 		ldrb	r2, [r4, #752]	@ zero_extendqisi2
 4766 0282 D207     		lsls	r2, r2, #31
 4767 0284 7FF566AF 		bpl	.L903
 4768              	.L802:
 4769 0288 94F89C21 		ldrb	r2, [r4, #412]	@ zero_extendqisi2
 4770 028c D107     		lsls	r1, r2, #31
 4771 028e 00F19482 		bmi	.L902
 4772 0292 42F00102 		orr	r2, r2, #1
 4773 0296 84F89C21 		strb	r2, [r4, #412]
 4774 029a 02E7     		b	.L794
 4775              	.L783:
 4776 029c 94F89C21 		ldrb	r2, [r4, #412]	@ zero_extendqisi2
 4777 02a0 D107     		lsls	r1, r2, #31
 4778 02a2 7FF557AF 		bpl	.L903
 4779 02a6 FCE6     		b	.L794
 4780              	.L808:
 4781 02a8 94F8EC22 		ldrb	r2, [r4, #748]	@ zero_extendqisi2
 4782 02ac 02F06002 		and	r2, r2, #96
 4783 02b0 202A     		cmp	r2, #32
 4784 02b2 0AD1     		bne	.L810
 4785 02b4 94F80123 		ldrb	r2, [r4, #769]	@ zero_extendqisi2
 4786 02b8 AAB9     		cbnz	r2, .L811
 4787 02ba 022B     		cmp	r3, #2
 4788 02bc 48D0     		beq	.L812
 4789 02be 062B     		cmp	r3, #6
 4790 02c0 7FF4FEAE 		bne	.L809
 4791              	.L904:
 4792 02c4 6FF49975 		mvn	r5, #306
ARM GAS  /tmp/cc36Vpy0.s 			page 84


 4793 02c8 CFE1     		b	.L813
 4794              	.L810:
 4795 02ca 62B9     		cbnz	r2, .L811
 4796 02cc 94F80223 		ldrb	r2, [r4, #770]	@ zero_extendqisi2
 4797 02d0 4AB9     		cbnz	r2, .L811
 4798 02d2 012B     		cmp	r3, #1
 4799 02d4 7FF4F4AE 		bne	.L809
 4800              	.L814:
 4801 02d8 3346     		mov	r3, r6
 4802 02da 4A46     		mov	r2, r9
 4803 02dc 3946     		mov	r1, r7
 4804 02de 2046     		mov	r0, r4
 4805 02e0 FFF7FEFF 		bl	DoTls13ClientHello
 4806 02e4 3DE0     		b	.L965
 4807              	.L811:
 4808 02e6 1728     		cmp	r0, #23
 4809 02e8 ECD8     		bhi	.L904
 4810 02ea 01A3     		adr	r3, .L816
 4811 02ec 53F820F0 		ldr	pc, [r3, r0, lsl #2]
 4812              		.p2align 2
 4813              	.L816:
 4814 02f0 D9020000 		.word	.L814+1
 4815 02f4 51030000 		.word	.L812+1
 4816 02f8 C5020000 		.word	.L904+1
 4817 02fc C7030000 		.word	.L822+1
 4818 0300 C5020000 		.word	.L904+1
 4819 0304 C5020000 		.word	.L904+1
 4820 0308 C5020000 		.word	.L904+1
 4821 030c 67030000 		.word	.L821+1
 4822 0310 C5020000 		.word	.L904+1
 4823 0314 C5020000 		.word	.L904+1
 4824 0318 11040000 		.word	.L820+1
 4825 031c C5020000 		.word	.L904+1
 4826 0320 B9030000 		.word	.L819+1
 4827 0324 C5020000 		.word	.L904+1
 4828 0328 31040000 		.word	.L818+1
 4829 032c C5020000 		.word	.L904+1
 4830 0330 C5020000 		.word	.L904+1
 4831 0334 C5020000 		.word	.L904+1
 4832 0338 C5020000 		.word	.L904+1
 4833 033c 45060000 		.word	.L817+1
 4834 0340 C5020000 		.word	.L904+1
 4835 0344 C5020000 		.word	.L904+1
 4836 0348 C5020000 		.word	.L904+1
 4837 034c 59060000 		.word	.L815+1
 4838              		.p2align 1
 4839              	.L812:
 4840 0350 0DF11703 		add	r3, sp, #23
 4841 0354 0093     		str	r3, [sp]
 4842 0356 4A46     		mov	r2, r9
 4843 0358 3346     		mov	r3, r6
 4844 035a 3946     		mov	r1, r7
 4845 035c 2046     		mov	r0, r4
 4846 035e FFF7FEFF 		bl	DoTls13ServerHello
 4847              	.L965:
 4848 0362 0546     		mov	r5, r0
 4849 0364 91E0     		b	.L823
ARM GAS  /tmp/cc36Vpy0.s 			page 85


 4850              	.L821:
 4851 0366 012E     		cmp	r6, #1
 4852 0368 40F2D681 		bls	.L906
 4853 036c 37F808A0 		ldrh	r10, [r7, r8]	@ unaligned
 4854 0370 08F1020B 		add	fp, r8, #2
 4855 0374 9AFA9AFA 		rev16	r10, r10
 4856 0378 1FFA8AFA 		uxth	r10, r10
 4857 037c 0AF10203 		add	r3, r10, #2
 4858 0380 9E42     		cmp	r6, r3
 4859 0382 C0F0C981 		bcc	.L906
 4860 0386 0023     		movs	r3, #0
 4861 0388 5246     		mov	r2, r10
 4862 038a 0093     		str	r3, [sp]
 4863 038c 2046     		mov	r0, r4
 4864 038e 0823     		movs	r3, #8
 4865 0390 07EB0B01 		add	r1, r7, fp
 4866 0394 FFF7FEFF 		bl	TLSX_Parse
 4867 0398 0546     		mov	r5, r0
 4868 039a 0028     		cmp	r0, #0
 4869 039c 75D1     		bne	.L823
 4870 039e 0BEB0A02 		add	r2, fp, r10
 4871 03a2 C9F80020 		str	r2, [r9]
 4872 03a6 D4F8C832 		ldr	r3, [r4, #712]
 4873 03aa 1A44     		add	r2, r2, r3
 4874 03ac 0423     		movs	r3, #4
 4875 03ae C9F80020 		str	r2, [r9]
 4876              	.L966:
 4877 03b2 84F80133 		strb	r3, [r4, #769]
 4878 03b6 0CE0     		b	.L824
 4879              	.L819:
 4880 03b8 3346     		mov	r3, r6
 4881 03ba 4A46     		mov	r2, r9
 4882 03bc 3946     		mov	r1, r7
 4883 03be 2046     		mov	r0, r4
 4884 03c0 FFF7FEFF 		bl	DoTls13CertificateRequest
 4885 03c4 CDE7     		b	.L965
 4886              	.L822:
 4887 03c6 D4F8C832 		ldr	r3, [r4, #712]
 4888 03ca 3344     		add	r3, r3, r6
 4889 03cc 4344     		add	r3, r3, r8
 4890 03ce C9F80030 		str	r3, [r9]
 4891              	.L824:
 4892 03d2 D4F87031 		ldr	r3, [r4, #368]
 4893 03d6 13F16C0F 		cmn	r3, #108
 4894 03da 02D0     		beq	.L850
 4895 03dc 13F5CC7F 		cmn	r3, #408
 4896 03e0 02D1     		bne	.L851
 4897              	.L850:
 4898 03e2 0023     		movs	r3, #0
 4899 03e4 C4F87031 		str	r3, [r4, #368]
 4900              	.L851:
 4901 03e8 9DF81700 		ldrb	r0, [sp, #23]	@ zero_extendqisi2
 4902 03ec 0138     		subs	r0, r0, #1
 4903 03ee C5B2     		uxtb	r5, r0
 4904 03f0 172D     		cmp	r5, #23
 4905 03f2 05D8     		bhi	.L863
 4906 03f4 2B48     		ldr	r0, .L971+4
ARM GAS  /tmp/cc36Vpy0.s 			page 86


 4907 03f6 E840     		lsrs	r0, r0, r5
 4908 03f8 C043     		mvns	r0, r0
 4909 03fa 10F00100 		ands	r0, r0, #1
 4910 03fe 05D0     		beq	.L967
 4911              	.L863:
 4912 0400 3246     		mov	r2, r6
 4913 0402 2046     		mov	r0, r4
 4914 0404 07EB0801 		add	r1, r7, r8
 4915 0408 FFF7FEFF 		bl	HashInput
 4916              	.L967:
 4917 040c 0546     		mov	r5, r0
 4918 040e 2CE1     		b	.L813
 4919              	.L820:
 4920 0410 3346     		mov	r3, r6
 4921 0412 4A46     		mov	r2, r9
 4922 0414 3946     		mov	r1, r7
 4923 0416 2046     		mov	r0, r4
 4924 0418 FFF7FEFF 		bl	ProcessPeerCerts
 4925 041c 0546     		mov	r5, r0
 4926 041e A0BB     		cbnz	r0, .L823
 4927 0420 94F8EC32 		ldrb	r3, [r4, #748]	@ zero_extendqisi2
 4928 0424 03F06003 		and	r3, r3, #96
 4929 0428 202B     		cmp	r3, #32
 4930 042a D2D1     		bne	.L824
 4931 042c 0523     		movs	r3, #5
 4932 042e C0E7     		b	.L966
 4933              	.L818:
 4934 0430 2022     		movs	r2, #32
 4935 0432 0021     		movs	r1, #0
 4936 0434 06A8     		add	r0, sp, #24
 4937 0436 FFF7FEFF 		bl	memset
 4938 043a 0223     		movs	r3, #2
 4939 043c 84F8FF32 		strb	r3, [r4, #767]
 4940 0440 0023     		movs	r3, #0
 4941 0442 84F80033 		strb	r3, [r4, #768]
 4942 0446 0123     		movs	r3, #1
 4943 0448 6568     		ldr	r5, [r4, #4]
 4944 044a CDE90A88 		strd	r8, r8, [sp, #40]
 4945 044e 84F80833 		strb	r3, [r4, #776]
 4946 0452 0DB9     		cbnz	r5, .L826
 4947 0454 2368     		ldr	r3, [r4]
 4948 0456 1D6B     		ldr	r5, [r3, #48]
 4949              	.L826:
 4950 0458 012E     		cmp	r6, #1
 4951 045a 40F2E680 		bls	.L827
 4952 045e 0023     		movs	r3, #0
 4953 0460 B5F802C0 		ldrh	ip, [r5, #2]
 4954 0464 07EB0800 		add	r0, r7, r8
 4955              	.L828:
 4956 0468 6345     		cmp	r3, ip
 4957 046a 1DD3     		bcc	.L831
 4958              	.L840:
 4959 046c 6FF4D475 		mvn	r5, #424
 4960              	.L832:
 4961 0470 0C98     		ldr	r0, [sp, #48]
 4962 0472 18B1     		cbz	r0, .L845
 4963 0474 FFF7FEFF 		bl	wolfSSL_Free
ARM GAS  /tmp/cc36Vpy0.s 			page 87


 4964 0478 0023     		movs	r3, #0
 4965 047a 0C93     		str	r3, [sp, #48]
 4966              	.L845:
 4967 047c 2046     		mov	r0, r4
 4968 047e FFF7FEFF 		bl	FreeKeyExchange
 4969 0482 0021     		movs	r1, #0
 4970 0484 2046     		mov	r0, r4
 4971 0486 FFF7FEFF 		bl	FreeAsyncCtx
 4972              	.L823:
 4973 048a 15F16C0F 		cmn	r5, #108
 4974 048e 00F03B81 		beq	.L849
 4975 0492 15F5CC7F 		cmn	r5, #408
 4976 0496 00F03781 		beq	.L849
 4977 049a 002D     		cmp	r5, #0
 4978 049c 99D0     		beq	.L824
 4979 049e E4E0     		b	.L813
 4980              	.L972:
 4981              		.align	2
 4982              	.L971:
 4983 04a0 76FEFFFF 		.word	-394
 4984 04a4 09008000 		.word	8388617
 4985              	.L831:
 4986 04a8 EA18     		adds	r2, r5, r3
 4987 04aa 90F800E0 		ldrb	lr, [r0]	@ zero_extendqisi2
 4988 04ae 92F83011 		ldrb	r1, [r2, #304]	@ zero_extendqisi2
 4989 04b2 7145     		cmp	r1, lr
 4990 04b4 06D1     		bne	.L829
 4991 04b6 92F83121 		ldrb	r2, [r2, #305]	@ zero_extendqisi2
 4992 04ba 90F801E0 		ldrb	lr, [r0, #1]	@ zero_extendqisi2
 4993 04be 7245     		cmp	r2, lr
 4994 04c0 00F08481 		beq	.L830
 4995              	.L829:
 4996 04c4 0233     		adds	r3, r3, #2
 4997 04c6 9BB2     		uxth	r3, r3
 4998 04c8 CEE7     		b	.L828
 4999              	.L836:
 5000 04ca 0523     		movs	r3, #5
 5001              	.L837:
 5002 04cc 84F8FF32 		strb	r3, [r4, #767]
 5003 04d0 4378     		ldrb	r3, [r0, #1]	@ zero_extendqisi2
 5004 04d2 1A1F     		subs	r2, r3, #4
 5005 04d4 022A     		cmp	r2, #2
 5006 04d6 00F29F80 		bhi	.L838
 5007              	.L968:
 5008 04da 0378     		ldrb	r3, [r0]	@ zero_extendqisi2
 5009              	.L964:
 5010 04dc 84F80033 		strb	r3, [r4, #768]
 5011 04e0 032E     		cmp	r6, #3
 5012 04e2 08F10203 		add	r3, r8, #2
 5013 04e6 0A93     		str	r3, [sp, #40]
 5014 04e8 40F29F80 		bls	.L827
 5015 04ec FB5A     		ldrh	r3, [r7, r3]	@ unaligned
 5016 04ee 5BBA     		rev16	r3, r3
 5017 04f0 9AB2     		uxth	r2, r3
 5018 04f2 ADF82030 		strh	r3, [sp, #32]	@ movhi
 5019 04f6 08F10403 		add	r3, r8, #4
 5020 04fa 0A93     		str	r3, [sp, #40]
ARM GAS  /tmp/cc36Vpy0.s 			page 88


 5021 04fc 131D     		adds	r3, r2, #4
 5022 04fe 9E42     		cmp	r6, r3
 5023 0500 C0F09380 		bcc	.L827
 5024 0504 CD2A     		cmp	r2, #205
 5025 0506 00F29080 		bhi	.L827
 5026 050a 94F80033 		ldrb	r3, [r4, #768]	@ zero_extendqisi2
 5027 050e 032B     		cmp	r3, #3
 5028 0510 40F09280 		bne	.L910
 5029 0514 D4F89C33 		ldr	r3, [r4, #924]
 5030 0518 002B     		cmp	r3, #0
 5031 051a 00F08D80 		beq	.L910
 5032 051e 94F8A233 		ldrb	r3, [r4, #930]	@ zero_extendqisi2
 5033 0522 002B     		cmp	r3, #0
 5034 0524 00F08880 		beq	.L910
 5035 0528 A220     		movs	r0, #162
 5036 052a 0992     		str	r2, [sp, #36]
 5037 052c FFF7FEFF 		bl	wolfSSL_Malloc
 5038 0530 0146     		mov	r1, r0
 5039 0532 0C90     		str	r0, [sp, #48]
 5040 0534 0028     		cmp	r0, #0
 5041 0536 00F08280 		beq	.L911
 5042 053a 0123     		movs	r3, #1
 5043 053c 2046     		mov	r0, r4
 5044 053e 0DAA     		add	r2, sp, #52
 5045 0540 FFF7FEFF 		bl	CreateSigData
 5046 0544 051E     		subs	r5, r0, #0
 5047 0546 C0F23B81 		blt	.L842
 5048 054a 94F80033 		ldrb	r3, [r4, #768]	@ zero_extendqisi2
 5049 054e 032B     		cmp	r3, #3
 5050 0550 0FD1     		bne	.L843
 5051 0552 94F8A233 		ldrb	r3, [r4, #930]	@ zero_extendqisi2
 5052 0556 63B1     		cbz	r3, .L843
 5053 0558 94F8FF22 		ldrb	r2, [r4, #767]	@ zero_extendqisi2
 5054 055c BDF83410 		ldrh	r1, [sp, #52]
 5055 0560 0C98     		ldr	r0, [sp, #48]
 5056 0562 FFF7FEFF 		bl	CreateECCEncodedSig
 5057 0566 051E     		subs	r5, r0, #0
 5058 0568 C0F22A81 		blt	.L842
 5059 056c ADF83450 		strh	r5, [sp, #52]	@ movhi
 5060 0570 0025     		movs	r5, #0
 5061              	.L843:
 5062 0572 0223     		movs	r3, #2
 5063 0574 84F80833 		strb	r3, [r4, #776]
 5064 0578 94F80033 		ldrb	r3, [r4, #768]	@ zero_extendqisi2
 5065 057c 032B     		cmp	r3, #3
 5066 057e 24D1     		bne	.L844
 5067 0580 94F8A233 		ldrb	r3, [r4, #930]	@ zero_extendqisi2
 5068 0584 0BB3     		cbz	r3, .L844
 5069 0586 DDE90921 		ldrd	r2, r1, [sp, #36]
 5070 058a 4FF0000A 		mov	r10, #0
 5071 058e D4F89C33 		ldr	r3, [r4, #924]
 5072 0592 2046     		mov	r0, r4
 5073 0594 0193     		str	r3, [sp, #4]
 5074 0596 BDF83430 		ldrh	r3, [sp, #52]
 5075 059a CDF808A0 		str	r10, [sp, #8]
 5076 059e 0093     		str	r3, [sp]
 5077 05a0 3944     		add	r1, r1, r7
ARM GAS  /tmp/cc36Vpy0.s 			page 89


 5078 05a2 0C9B     		ldr	r3, [sp, #48]
 5079 05a4 FFF7FEFF 		bl	EccVerify
 5080 05a8 051E     		subs	r5, r0, #0
 5081 05aa C0F20981 		blt	.L842
 5082 05ae 94F8F232 		ldrb	r3, [r4, #754]	@ zero_extendqisi2
 5083 05b2 2521     		movs	r1, #37
 5084 05b4 43F00403 		orr	r3, r3, #4
 5085 05b8 2046     		mov	r0, r4
 5086 05ba 84F8F232 		strb	r3, [r4, #754]
 5087 05be 04F56772 		add	r2, r4, #924
 5088 05c2 FFF7FEFF 		bl	FreeKey
 5089 05c6 84F8A2A3 		strb	r10, [r4, #930]
 5090              	.L844:
 5091 05ca 7DBB     		cbnz	r5, .L841
 5092 05cc 94F8F032 		ldrb	r3, [r4, #752]	@ zero_extendqisi2
 5093 05d0 0A9A     		ldr	r2, [sp, #40]
 5094 05d2 43F00103 		orr	r3, r3, #1
 5095 05d6 84F8F032 		strb	r3, [r4, #752]
 5096 05da BDF82030 		ldrh	r3, [sp, #32]
 5097 05de 1344     		add	r3, r3, r2
 5098 05e0 C9F80030 		str	r3, [r9]
 5099 05e4 D4F8C822 		ldr	r2, [r4, #712]
 5100 05e8 0A93     		str	r3, [sp, #40]
 5101 05ea 1344     		add	r3, r3, r2
 5102 05ec C9F80030 		str	r3, [r9]
 5103 05f0 0523     		movs	r3, #5
 5104 05f2 84F80833 		strb	r3, [r4, #776]
 5105 05f6 94F8EC32 		ldrb	r3, [r4, #748]	@ zero_extendqisi2
 5106 05fa 03F06003 		and	r3, r3, #96
 5107 05fe 202B     		cmp	r3, #32
 5108 0600 7FF436AF 		bne	.L832
 5109 0604 0623     		movs	r3, #6
 5110 0606 84F80133 		strb	r3, [r4, #769]
 5111 060a 31E7     		b	.L832
 5112              	.L834:
 5113 060c 0623     		movs	r3, #6
 5114 060e 5DE7     		b	.L837
 5115              	.L833:
 5116 0610 0023     		movs	r3, #0
 5117 0612 5BE7     		b	.L837
 5118              	.L907:
 5119 0614 0423     		movs	r3, #4
 5120 0616 59E7     		b	.L837
 5121              	.L838:
 5122 0618 093B     		subs	r3, r3, #9
 5123 061a 022B     		cmp	r3, #2
 5124 061c 7FF65DAF 		bls	.L968
 5125 0620 24E7     		b	.L840
 5126              	.L958:
 5127 0622 84F8FF12 		strb	r1, [r4, #767]
 5128 0626 4378     		ldrb	r3, [r0, #1]	@ zero_extendqisi2
 5129 0628 58E7     		b	.L964
 5130              	.L827:
 5131 062a 754D     		ldr	r5, .L973
 5132              	.L841:
 5133 062c 3322     		movs	r2, #51
 5134 062e 0221     		movs	r1, #2
ARM GAS  /tmp/cc36Vpy0.s 			page 90


 5135 0630 2046     		mov	r0, r4
 5136 0632 FFF7FEFF 		bl	SendAlert
 5137 0636 1BE7     		b	.L832
 5138              	.L910:
 5139 0638 6FF0E405 		mvn	r5, #228
 5140 063c F6E7     		b	.L841
 5141              	.L911:
 5142 063e 6FF07C05 		mvn	r5, #124
 5143 0642 F3E7     		b	.L841
 5144              	.L817:
 5145 0644 0023     		movs	r3, #0
 5146 0646 4A46     		mov	r2, r9
 5147 0648 CDE90053 		strd	r5, r3, [sp]
 5148 064c 3946     		mov	r1, r7
 5149 064e 3346     		mov	r3, r6
 5150 0650 2046     		mov	r0, r4
 5151 0652 FFF7FEFF 		bl	DoTls13Finished
 5152 0656 84E6     		b	.L965
 5153              	.L815:
 5154 0658 012E     		cmp	r6, #1
 5155 065a 5FD1     		bne	.L912
 5156 065c 17F80830 		ldrb	r3, [r7, r8]	@ zero_extendqisi2
 5157 0660 4BB3     		cbz	r3, .L846
 5158 0662 012B     		cmp	r3, #1
 5159 0664 4DD0     		beq	.L847
 5160 0666 6FF4D475 		mvn	r5, #424
 5161              	.L813:
 5162 066a 2846     		mov	r0, r5
 5163 066c FFF7FEFF 		bl	TranslateErrorToAlert
 5164 0670 411C     		adds	r1, r0, #1
 5165 0672 0246     		mov	r2, r0
 5166 0674 55D1     		bne	.L852
 5167              	.L854:
 5168 0676 002D     		cmp	r5, #0
 5169 0678 7FF429AD 		bne	.L780
 5170 067c 94F8EE32 		ldrb	r3, [r4, #750]	@ zero_extendqisi2
 5171 0680 9B07     		lsls	r3, r3, #30
 5172 0682 7FF524AD 		bpl	.L780
 5173 0686 94F8EC32 		ldrb	r3, [r4, #748]	@ zero_extendqisi2
 5174 068a 03F06003 		and	r3, r3, #96
 5175 068e 202B     		cmp	r3, #32
 5176 0690 50D0     		beq	.L856
 5177              	.L861:
 5178 0692 94F8EC32 		ldrb	r3, [r4, #748]	@ zero_extendqisi2
 5179 0696 13F0600F 		tst	r3, #96
 5180 069a 7FF418AD 		bne	.L780
 5181 069e 9DF81730 		ldrb	r3, [sp, #23]	@ zero_extendqisi2
 5182 06a2 142B     		cmp	r3, #20
 5183 06a4 7FF413AD 		bne	.L780
 5184 06a8 D4F85011 		ldr	r1, [r4, #336]
 5185 06ac 2046     		mov	r0, r4
 5186 06ae 5D31     		adds	r1, r1, #93
 5187 06b0 FFF7FEFF 		bl	DeriveResumptionSecret
 5188 06b4 3CE0     		b	.L920
 5189              	.L846:
 5190 06b6 A4F8CE32 		strh	r3, [r4, #718]	@ movhi
 5191              	.L848:
ARM GAS  /tmp/cc36Vpy0.s 			page 91


 5192 06ba 08F10102 		add	r2, r8, #1
 5193 06be C9F80020 		str	r2, [r9]
 5194 06c2 D4F8C832 		ldr	r3, [r4, #712]
 5195 06c6 0421     		movs	r1, #4
 5196 06c8 1344     		add	r3, r3, r2
 5197 06ca C9F80030 		str	r3, [r9]
 5198 06ce 0222     		movs	r2, #2
 5199 06d0 0123     		movs	r3, #1
 5200 06d2 2046     		mov	r0, r4
 5201 06d4 FFF7FEFF 		bl	DeriveTls13Keys
 5202 06d8 0546     		mov	r5, r0
 5203 06da 0028     		cmp	r0, #0
 5204 06dc 7FF4D5AE 		bne	.L823
 5205 06e0 0221     		movs	r1, #2
 5206 06e2 2046     		mov	r0, r4
 5207 06e4 FFF7FEFF 		bl	SetKeysSide
 5208 06e8 0546     		mov	r5, r0
 5209 06ea 0028     		cmp	r0, #0
 5210 06ec 7FF4CDAE 		bne	.L823
 5211 06f0 94F8CF32 		ldrb	r3, [r4, #719]	@ zero_extendqisi2
 5212 06f4 002B     		cmp	r3, #0
 5213 06f6 3FF46CAE 		beq	.L824
 5214 06fa 2046     		mov	r0, r4
 5215 06fc FFF7FEFF 		bl	SendTls13KeyUpdate
 5216 0700 2FE6     		b	.L965
 5217              	.L847:
 5218 0702 84F8CF62 		strb	r6, [r4, #719]
 5219 0706 D8E7     		b	.L848
 5220              	.L849:
 5221 0708 D9F80030 		ldr	r3, [r9]
 5222 070c 002B     		cmp	r3, #0
 5223 070e ACD0     		beq	.L813
 5224 0710 043B     		subs	r3, r3, #4
 5225 0712 C9F80030 		str	r3, [r9]
 5226 0716 A8E7     		b	.L813
 5227              	.L906:
 5228 0718 394D     		ldr	r5, .L973
 5229 071a A6E7     		b	.L813
 5230              	.L912:
 5231 071c 6FF08305 		mvn	r5, #131
 5232 0720 A3E7     		b	.L813
 5233              	.L852:
 5234 0722 0221     		movs	r1, #2
 5235 0724 2046     		mov	r0, r4
 5236 0726 FFF7FEFF 		bl	SendAlert
 5237 072a 10F59A7F 		cmn	r0, #308
 5238 072e A2D1     		bne	.L854
 5239              	.L920:
 5240 0730 0546     		mov	r5, r0
 5241 0732 CCE4     		b	.L780
 5242              	.L856:
 5243 0734 9DF81760 		ldrb	r6, [sp, #23]	@ zero_extendqisi2
 5244 0738 022E     		cmp	r6, #2
 5245 073a 1CD0     		beq	.L859
 5246              	.L862:
 5247 073c 9DF81730 		ldrb	r3, [sp, #23]	@ zero_extendqisi2
 5248 0740 142B     		cmp	r3, #20
ARM GAS  /tmp/cc36Vpy0.s 			page 92


 5249 0742 A6D1     		bne	.L861
 5250 0744 2046     		mov	r0, r4
 5251 0746 FFF7FEFF 		bl	DeriveMasterSecret
 5252 074a 0028     		cmp	r0, #0
 5253 074c F0D1     		bne	.L920
 5254 074e E368     		ldr	r3, [r4, #12]
 5255 0750 D3E90101 		ldrd	r0, r1, [r3, #4]
 5256 0754 FFF7FEFF 		bl	ForceZero
 5257 0758 0322     		movs	r2, #3
 5258 075a 0123     		movs	r3, #1
 5259 075c 1146     		mov	r1, r2
 5260 075e 2046     		mov	r0, r4
 5261 0760 FFF7FEFF 		bl	DeriveTls13Keys
 5262 0764 0028     		cmp	r0, #0
 5263 0766 E3D1     		bne	.L920
 5264 0768 0221     		movs	r1, #2
 5265 076a 2046     		mov	r0, r4
 5266 076c FFF7FEFF 		bl	SetKeysSide
 5267 0770 0028     		cmp	r0, #0
 5268 0772 8ED0     		beq	.L861
 5269 0774 DCE7     		b	.L920
 5270              	.L859:
 5271 0776 2046     		mov	r0, r4
 5272 0778 FFF7FEFF 		bl	DeriveEarlySecret
 5273 077c 0028     		cmp	r0, #0
 5274 077e D7D1     		bne	.L920
 5275 0780 2046     		mov	r0, r4
 5276 0782 FFF7FEFF 		bl	DeriveHandshakeSecret
 5277 0786 0028     		cmp	r0, #0
 5278 0788 D2D1     		bne	.L920
 5279 078a 0123     		movs	r3, #1
 5280 078c 0322     		movs	r2, #3
 5281 078e 3146     		mov	r1, r6
 5282 0790 2046     		mov	r0, r4
 5283 0792 FFF7FEFF 		bl	DeriveTls13Keys
 5284 0796 0028     		cmp	r0, #0
 5285 0798 CAD1     		bne	.L920
 5286 079a 0321     		movs	r1, #3
 5287 079c 2046     		mov	r0, r4
 5288 079e FFF7FEFF 		bl	SetKeysSide
 5289 07a2 0028     		cmp	r0, #0
 5290 07a4 CAD0     		beq	.L862
 5291 07a6 C3E7     		b	.L920
 5292              	.L867:
 5293 07a8 164D     		ldr	r5, .L973+4
 5294 07aa 90E4     		b	.L780
 5295              	.L884:
 5296 07ac 164D     		ldr	r5, .L973+8
 5297              	.L782:
 5298 07ae 0A22     		movs	r2, #10
 5299 07b0 0221     		movs	r1, #2
 5300 07b2 2046     		mov	r0, r4
 5301 07b4 FFF7FEFF 		bl	SendAlert
 5302 07b8 89E4     		b	.L780
 5303              	.L902:
 5304 07ba 6FF4C575 		mvn	r5, #394
 5305 07be F6E7     		b	.L782
ARM GAS  /tmp/cc36Vpy0.s 			page 93


 5306              	.L842:
 5307 07c0 6FF4D473 		mvn	r3, #424
 5308 07c4 9D42     		cmp	r5, r3
 5309 07c6 3FF451AE 		beq	.L840
 5310 07ca 2FE7     		b	.L841
 5311              	.L830:
 5312 07cc 0829     		cmp	r1, #8
 5313 07ce 7FF428AF 		bne	.L958
 5314 07d2 043A     		subs	r2, r2, #4
 5315 07d4 072A     		cmp	r2, #7
 5316 07d6 3FF61BAF 		bhi	.L833
 5317 07da 01A3     		adr	r3, .L835
 5318 07dc 53F822F0 		ldr	pc, [r3, r2, lsl #2]
 5319              		.p2align 2
 5320              	.L835:
 5321 07e0 15060000 		.word	.L907+1
 5322 07e4 CB040000 		.word	.L836+1
 5323 07e8 0D060000 		.word	.L834+1
 5324 07ec 0D060000 		.word	.L834+1
 5325 07f0 0D060000 		.word	.L834+1
 5326 07f4 15060000 		.word	.L907+1
 5327 07f8 CB040000 		.word	.L836+1
 5328 07fc 0D060000 		.word	.L834+1
 5329              		.p2align 1
 5330              	.L974:
 5331              		.align	2
 5332              	.L973:
 5333 0800 B8FEFFFF 		.word	-328
 5334 0804 CAFEFFFF 		.word	-310
 5335 0808 A8FEFFFF 		.word	-344
 5337              		.section	.text.DoTls13HandShakeMsg,"ax",%progbits
 5338              		.align	1
 5339              		.global	DoTls13HandShakeMsg
 5340              		.syntax unified
 5341              		.thumb
 5342              		.thumb_func
 5343              		.fpu fpv4-sp-d16
 5345              	DoTls13HandShakeMsg:
 5346              		@ args = 0, pretend = 0, frame = 8
 5347              		@ frame_needed = 0, uses_anonymous_args = 0
 5348 0000 2DE9FF47 		push	{r0, r1, r2, r3, r4, r5, r6, r7, r8, r9, r10, lr}
 5349 0004 9946     		mov	r9, r3
 5350 0006 0023     		movs	r3, #0
 5351 0008 C468     		ldr	r4, [r0, #12]
 5352 000a 0546     		mov	r5, r0
 5353 000c 8846     		mov	r8, r1
 5354 000e 1746     		mov	r7, r2
 5355 0010 0293     		str	r3, [sp, #8]
 5356 0012 24BB     		cbnz	r4, .L976
 5357 0014 02AB     		add	r3, sp, #8
 5358 0016 0093     		str	r3, [sp]
 5359 0018 CDF80490 		str	r9, [sp, #4]
 5360 001c 03AB     		add	r3, sp, #12
 5361 001e FFF7FEFF 		bl	GetHandshakeHeader
 5362 0022 30B1     		cbz	r0, .L977
 5363 0024 0A22     		movs	r2, #10
 5364 0026 0221     		movs	r1, #2
ARM GAS  /tmp/cc36Vpy0.s 			page 94


 5365 0028 2846     		mov	r0, r5
 5366 002a FFF7FEFF 		bl	SendAlert
 5367              	.L983:
 5368 002e 544C     		ldr	r4, .L990
 5369 0030 5EE0     		b	.L975
 5370              	.L977:
 5371 0032 2846     		mov	r0, r5
 5372 0034 029A     		ldr	r2, [sp, #8]
 5373 0036 9DF80C10 		ldrb	r1, [sp, #12]	@ zero_extendqisi2
 5374 003a FFF7FEFF 		bl	EarlySanityCheckMsgReceived
 5375 003e 0446     		mov	r4, r0
 5376 0040 0028     		cmp	r0, #0
 5377 0042 55D1     		bne	.L975
 5378 0044 029B     		ldr	r3, [sp, #8]
 5379 0046 CDF80490 		str	r9, [sp, #4]
 5380 004a 0093     		str	r3, [sp]
 5381 004c 9DF80C30 		ldrb	r3, [sp, #12]	@ zero_extendqisi2
 5382              	.L989:
 5383 0050 3A46     		mov	r2, r7
 5384 0052 4146     		mov	r1, r8
 5385 0054 2846     		mov	r0, r5
 5386 0056 FFF7FEFF 		bl	DoTls13HandShakeMsgType
 5387 005a 0446     		mov	r4, r0
 5388 005c 48E0     		b	.L975
 5389              	.L976:
 5390 005e 1368     		ldr	r3, [r2]
 5391 0060 D0F8D860 		ldr	r6, [r0, #216]
 5392 0064 F61A     		subs	r6, r6, r3
 5393 0066 D0F8C832 		ldr	r3, [r0, #712]
 5394 006a F61A     		subs	r6, r6, r3
 5395 006c E368     		ldr	r3, [r4, #12]
 5396 006e 002B     		cmp	r3, #0
 5397 0070 45D1     		bne	.L979
 5398 0072 02AB     		add	r3, sp, #8
 5399 0074 0093     		str	r3, [sp]
 5400 0076 CDF80490 		str	r9, [sp, #4]
 5401 007a 03AB     		add	r3, sp, #12
 5402 007c FFF7FEFF 		bl	GetHandshakeHeader
 5403 0080 0028     		cmp	r0, #0
 5404 0082 D4D1     		bne	.L983
 5405 0084 A6F1040A 		sub	r10, r6, #4
 5406 0088 0299     		ldr	r1, [sp, #8]
 5407 008a 5046     		mov	r0, r10
 5408 008c 9DF80C40 		ldrb	r4, [sp, #12]	@ zero_extendqisi2
 5409 0090 FFF7FEFF 		bl	min
 5410 0094 2146     		mov	r1, r4
 5411 0096 0246     		mov	r2, r0
 5412 0098 2846     		mov	r0, r5
 5413 009a FFF7FEFF 		bl	EarlySanityCheckMsgReceived
 5414 009e 0446     		mov	r4, r0
 5415 00a0 30BB     		cbnz	r0, .L975
 5416 00a2 44F61E03 		movw	r3, #18462
 5417 00a6 0298     		ldr	r0, [sp, #8]
 5418 00a8 9842     		cmp	r0, r3
 5419 00aa 63D8     		bhi	.L984
 5420 00ac 8245     		cmp	r10, r0
 5421 00ae 9DF80C30 		ldrb	r3, [sp, #12]	@ zero_extendqisi2
ARM GAS  /tmp/cc36Vpy0.s 			page 95


 5422 00b2 21D2     		bcs	.L980
 5423 00b4 D5F80C90 		ldr	r9, [r5, #12]
 5424 00b8 0430     		adds	r0, r0, #4
 5425 00ba 89F81B3D 		strb	r3, [r9, #3355]
 5426 00be C9F80C00 		str	r0, [r9, #12]
 5427 00c2 FFF7FEFF 		bl	wolfSSL_Malloc
 5428 00c6 EB68     		ldr	r3, [r5, #12]
 5429 00c8 C9F80000 		str	r0, [r9]
 5430 00cc 1868     		ldr	r0, [r3]
 5431 00ce 0028     		cmp	r0, #0
 5432 00d0 52D0     		beq	.L985
 5433 00d2 3968     		ldr	r1, [r7]
 5434 00d4 3246     		mov	r2, r6
 5435 00d6 0439     		subs	r1, r1, #4
 5436 00d8 4144     		add	r1, r1, r8
 5437 00da FFF7FEFF 		bl	memcpy
 5438 00de EB68     		ldr	r3, [r5, #12]
 5439 00e0 D5F8C822 		ldr	r2, [r5, #712]
 5440 00e4 1E61     		str	r6, [r3, #16]
 5441 00e6 3B68     		ldr	r3, [r7]
 5442 00e8 043B     		subs	r3, r3, #4
 5443 00ea 1344     		add	r3, r3, r2
 5444 00ec 1E44     		add	r6, r6, r3
 5445 00ee 3E60     		str	r6, [r7]
 5446              	.L975:
 5447 00f0 2046     		mov	r0, r4
 5448 00f2 04B0     		add	sp, sp, #16
 5449              		@ sp needed
 5450 00f4 BDE8F087 		pop	{r4, r5, r6, r7, r8, r9, r10, pc}
 5451              	.L980:
 5452 00f8 CDE90009 		strd	r0, r9, [sp]
 5453 00fc A8E7     		b	.L989
 5454              	.L979:
 5455 00fe 2269     		ldr	r2, [r4, #16]
 5456 0100 9119     		adds	r1, r2, r6
 5457 0102 8B42     		cmp	r3, r1
 5458 0104 38BF     		it	cc
 5459 0106 9E1A     		subcc	r6, r3, r2
 5460 0108 94F81B1D 		ldrb	r1, [r4, #3355]	@ zero_extendqisi2
 5461 010c 3246     		mov	r2, r6
 5462 010e FFF7FEFF 		bl	EarlySanityCheckMsgReceived
 5463 0112 0446     		mov	r4, r0
 5464 0114 0028     		cmp	r0, #0
 5465 0116 EBD1     		bne	.L975
 5466 0118 EB68     		ldr	r3, [r5, #12]
 5467 011a 3968     		ldr	r1, [r7]
 5468 011c 1868     		ldr	r0, [r3]
 5469 011e 1B69     		ldr	r3, [r3, #16]
 5470 0120 3246     		mov	r2, r6
 5471 0122 4144     		add	r1, r1, r8
 5472 0124 1844     		add	r0, r0, r3
 5473 0126 FFF7FEFF 		bl	memcpy
 5474 012a EA68     		ldr	r2, [r5, #12]
 5475 012c D5F8C812 		ldr	r1, [r5, #712]
 5476 0130 1369     		ldr	r3, [r2, #16]
 5477 0132 3344     		add	r3, r3, r6
 5478 0134 1361     		str	r3, [r2, #16]
ARM GAS  /tmp/cc36Vpy0.s 			page 96


 5479 0136 3B68     		ldr	r3, [r7]
 5480 0138 0B44     		add	r3, r3, r1
 5481 013a 1E44     		add	r6, r6, r3
 5482 013c 3E60     		str	r6, [r7]
 5483 013e D2E90330 		ldrd	r3, r0, [r2, #12]
 5484 0142 9842     		cmp	r0, r3
 5485 0144 D4D1     		bne	.L975
 5486 0146 1168     		ldr	r1, [r2]
 5487 0148 0394     		str	r4, [sp, #12]
 5488 014a 92F81B3D 		ldrb	r3, [r2, #3355]	@ zero_extendqisi2
 5489 014e 0190     		str	r0, [sp, #4]
 5490 0150 0438     		subs	r0, r0, #4
 5491 0152 0090     		str	r0, [sp]
 5492 0154 03AA     		add	r2, sp, #12
 5493 0156 2846     		mov	r0, r5
 5494 0158 0431     		adds	r1, r1, #4
 5495 015a FFF7FEFF 		bl	DoTls13HandShakeMsgType
 5496 015e EB68     		ldr	r3, [r5, #12]
 5497 0160 0446     		mov	r4, r0
 5498 0162 1868     		ldr	r0, [r3]
 5499 0164 08B1     		cbz	r0, .L982
 5500 0166 FFF7FEFF 		bl	wolfSSL_Free
 5501              	.L982:
 5502 016a 0022     		movs	r2, #0
 5503 016c EB68     		ldr	r3, [r5, #12]
 5504 016e 1A60     		str	r2, [r3]
 5505 0170 DA60     		str	r2, [r3, #12]
 5506 0172 BDE7     		b	.L975
 5507              	.L984:
 5508 0174 034C     		ldr	r4, .L990+4
 5509 0176 BBE7     		b	.L975
 5510              	.L985:
 5511 0178 6FF07C04 		mvn	r4, #124
 5512 017c B8E7     		b	.L975
 5513              	.L991:
 5514 017e 00BF     		.align	2
 5515              	.L990:
 5516 0180 CEFEFFFF 		.word	-306
 5517 0184 6CFEFFFF 		.word	-404
 5519              		.section	.text.wolfSSL_connect_TLSv13,"ax",%progbits
 5520              		.align	1
 5521              		.global	wolfSSL_connect_TLSv13
 5522              		.syntax unified
 5523              		.thumb
 5524              		.thumb_func
 5525              		.fpu fpv4-sp-d16
 5527              	wolfSSL_connect_TLSv13:
 5528              		@ args = 0, pretend = 0, frame = 0
 5529              		@ frame_needed = 0, uses_anonymous_args = 0
 5530 0000 38B5     		push	{r3, r4, r5, lr}
 5531 0002 0446     		mov	r4, r0
 5532 0004 0028     		cmp	r0, #0
 5533 0006 00F0E280 		beq	.L1026
 5534 000a 90F8EC32 		ldrb	r3, [r0, #748]	@ zero_extendqisi2
 5535 000e 03F06003 		and	r3, r3, #96
 5536 0012 202B     		cmp	r3, #32
 5537 0014 05D0     		beq	.L994
ARM GAS  /tmp/cc36Vpy0.s 			page 97


 5538 0016 704B     		ldr	r3, .L1051
 5539 0018 C0F87031 		str	r3, [r0, #368]
 5540              	.L1028:
 5541 001c 4FF0FF30 		mov	r0, #-1
 5542 0020 D7E0     		b	.L992
 5543              	.L994:
 5544 0022 0022     		movs	r2, #0
 5545 0024 0168     		ldr	r1, [r0]
 5546 0026 FFF7FEFF 		bl	ReinitSSL
 5547 002a 0028     		cmp	r0, #0
 5548 002c 40F0D180 		bne	.L992
 5549 0030 94F80653 		ldrb	r5, [r4, #774]	@ zero_extendqisi2
 5550 0034 15F0FD0F 		tst	r5, #253
 5551 0038 21D0     		beq	.L1027
 5552 003a 043D     		subs	r5, r5, #4
 5553 003c 042D     		cmp	r5, #4
 5554 003e 8CBF     		ite	hi
 5555 0040 0025     		movhi	r5, #0
 5556 0042 0125     		movls	r5, #1
 5557              	.L995:
 5558 0044 D4F8F430 		ldr	r3, [r4, #244]
 5559 0048 93B1     		cbz	r3, .L998
 5560 004a 2046     		mov	r0, r4
 5561 004c FFF7FEFF 		bl	SendBuffered
 5562 0050 90B9     		cbnz	r0, .L1050
 5563 0052 D4F88831 		ldr	r3, [r4, #392]
 5564 0056 5BB9     		cbnz	r3, .L998
 5565 0058 94F8F412 		ldrb	r1, [r4, #756]	@ zero_extendqisi2
 5566 005c 41B9     		cbnz	r1, .L998
 5567 005e 3DB1     		cbz	r5, .L998
 5568 0060 94F80633 		ldrb	r3, [r4, #774]	@ zero_extendqisi2
 5569 0064 2046     		mov	r0, r4
 5570 0066 0133     		adds	r3, r3, #1
 5571 0068 84F80633 		strb	r3, [r4, #774]
 5572 006c FFF7FEFF 		bl	FreeAsyncCtx
 5573              	.L998:
 5574 0070 2046     		mov	r0, r4
 5575 0072 FFF7FEFF 		bl	RetrySendAlert
 5576 0076 20B1     		cbz	r0, .L999
 5577              	.L1050:
 5578 0078 C4F87001 		str	r0, [r4, #368]
 5579 007c CEE7     		b	.L1028
 5580              	.L1027:
 5581 007e 0125     		movs	r5, #1
 5582 0080 E0E7     		b	.L995
 5583              	.L999:
 5584 0082 94F80633 		ldrb	r3, [r4, #774]	@ zero_extendqisi2
 5585 0086 092B     		cmp	r3, #9
 5586 0088 C8D8     		bhi	.L1028
 5587 008a DFE803F0 		tbb	[pc, r3]
 5588              	.L1001:
 5589 008e 05       		.byte	(.L1010-.L1001)/2
 5590 008f 0F       		.byte	(.L1013-.L1001)/2
 5591 0090 2B       		.byte	(.L1008-.L1001)/2
 5592 0091 32       		.byte	(.L1018-.L1001)/2
 5593 0092 39       		.byte	(.L1006-.L1001)/2
 5594 0093 3D       		.byte	(.L1005-.L1001)/2
ARM GAS  /tmp/cc36Vpy0.s 			page 98


 5595 0094 40       		.byte	(.L1004-.L1001)/2
 5596 0095 4B       		.byte	(.L1003-.L1001)/2
 5597 0096 52       		.byte	(.L1002-.L1001)/2
 5598 0097 5D       		.byte	(.L1000-.L1001)/2
 5599              		.p2align 1
 5600              	.L1010:
 5601 0098 2046     		mov	r0, r4
 5602 009a FFF7FEFF 		bl	SendTls13ClientHello
 5603 009e C4F87001 		str	r0, [r4, #368]
 5604 00a2 0028     		cmp	r0, #0
 5605 00a4 BAD1     		bne	.L1028
 5606 00a6 0123     		movs	r3, #1
 5607 00a8 84F80633 		strb	r3, [r4, #774]
 5608              	.L1013:
 5609 00ac 94F80133 		ldrb	r3, [r4, #769]	@ zero_extendqisi2
 5610 00b0 6BB1     		cbz	r3, .L1014
 5611 00b2 94F8EE32 		ldrb	r3, [r4, #750]	@ zero_extendqisi2
 5612 00b6 9D07     		lsls	r5, r3, #30
 5613 00b8 11D4     		bmi	.L1015
 5614 00ba 94F8ED32 		ldrb	r3, [r4, #749]	@ zero_extendqisi2
 5615 00be 1807     		lsls	r0, r3, #28
 5616 00c0 40F18880 		bpl	.L1029
 5617 00c4 2046     		mov	r0, r4
 5618 00c6 BDE83840 		pop	{r3, r4, r5, lr}
 5619 00ca FFF7FEBF 		b	wolfSSL_connect
 5620              	.L1014:
 5621 00ce 2046     		mov	r0, r4
 5622 00d0 FFF7FEFF 		bl	ProcessReply
 5623 00d4 0028     		cmp	r0, #0
 5624 00d6 C4F87001 		str	r0, [r4, #368]
 5625 00da E7DA     		bge	.L1013
 5626 00dc 9EE7     		b	.L1028
 5627              	.L1015:
 5628 00de 0223     		movs	r3, #2
 5629 00e0 84F80633 		strb	r3, [r4, #774]
 5630              	.L1008:
 5631 00e4 94F80133 		ldrb	r3, [r4, #769]	@ zero_extendqisi2
 5632 00e8 022B     		cmp	r3, #2
 5633 00ea 46D0     		beq	.L1016
 5634              	.L1017:
 5635 00ec 0323     		movs	r3, #3
 5636 00ee 84F80633 		strb	r3, [r4, #774]
 5637              	.L1018:
 5638 00f2 94F80133 		ldrb	r3, [r4, #769]	@ zero_extendqisi2
 5639 00f6 092B     		cmp	r3, #9
 5640 00f8 47D9     		bls	.L1019
 5641 00fa 0423     		movs	r3, #4
 5642 00fc 84F80633 		strb	r3, [r4, #774]
 5643              	.L1006:
 5644 0100 94F9F032 		ldrsb	r3, [r4, #752]
 5645 0104 002B     		cmp	r3, #0
 5646 0106 36DB     		blt	.L1030
 5647              	.L1005:
 5648 0108 0623     		movs	r3, #6
 5649 010a 84F80633 		strb	r3, [r4, #774]
 5650              	.L1004:
 5651 010e 94F8F232 		ldrb	r3, [r4, #754]	@ zero_extendqisi2
ARM GAS  /tmp/cc36Vpy0.s 			page 99


 5652 0112 5907     		lsls	r1, r3, #29
 5653 0114 82D5     		bpl	.L1028
 5654 0116 94F8ED32 		ldrb	r3, [r4, #749]	@ zero_extendqisi2
 5655 011a DA06     		lsls	r2, r3, #27
 5656 011c 3DD5     		bpl	.L1020
 5657              	.L1021:
 5658 011e 0723     		movs	r3, #7
 5659 0120 84F80633 		strb	r3, [r4, #774]
 5660              	.L1003:
 5661 0124 94F8ED32 		ldrb	r3, [r4, #749]	@ zero_extendqisi2
 5662 0128 DB06     		lsls	r3, r3, #27
 5663 012a 43D5     		bpl	.L1022
 5664              	.L1023:
 5665 012c 0823     		movs	r3, #8
 5666 012e 84F80633 		strb	r3, [r4, #774]
 5667              	.L1002:
 5668 0132 2046     		mov	r0, r4
 5669 0134 FFF7FEFF 		bl	SendTls13Finished
 5670 0138 C4F87001 		str	r0, [r4, #368]
 5671 013c 0028     		cmp	r0, #0
 5672 013e 7FF46DAF 		bne	.L1028
 5673 0142 0923     		movs	r3, #9
 5674 0144 84F80633 		strb	r3, [r4, #774]
 5675              	.L1000:
 5676 0148 D4F89430 		ldr	r3, [r4, #148]
 5677 014c 2BB1     		cbz	r3, .L1024
 5678 014e 2046     		mov	r0, r4
 5679 0150 D4F89810 		ldr	r1, [r4, #152]
 5680 0154 9847     		blx	r3
 5681 0156 0028     		cmp	r0, #0
 5682 0158 8EDB     		blt	.L1050
 5683              	.L1024:
 5684 015a 94F9F132 		ldrsb	r3, [r4, #753]
 5685 015e 002B     		cmp	r3, #0
 5686 0160 02DB     		blt	.L1025
 5687 0162 2046     		mov	r0, r4
 5688 0164 FFF7FEFF 		bl	FreeHandshakeResources
 5689              	.L1025:
 5690 0168 0121     		movs	r1, #1
 5691 016a 2046     		mov	r0, r4
 5692 016c FFF7FEFF 		bl	FreeAsyncCtx
 5693 0170 0023     		movs	r3, #0
 5694 0172 C4F87031 		str	r3, [r4, #368]
 5695              	.L1030:
 5696 0176 0120     		movs	r0, #1
 5697 0178 2BE0     		b	.L992
 5698              	.L1016:
 5699 017a 2046     		mov	r0, r4
 5700 017c FFF7FEFF 		bl	SendTls13ClientHello
 5701 0180 C4F87001 		str	r0, [r4, #368]
 5702 0184 0028     		cmp	r0, #0
 5703 0186 B1D0     		beq	.L1017
 5704 0188 48E7     		b	.L1028
 5705              	.L1019:
 5706 018a 2046     		mov	r0, r4
 5707 018c FFF7FEFF 		bl	ProcessReply
 5708 0190 0028     		cmp	r0, #0
ARM GAS  /tmp/cc36Vpy0.s 			page 100


 5709 0192 C4F87001 		str	r0, [r4, #368]
 5710 0196 ACDA     		bge	.L1018
 5711 0198 40E7     		b	.L1028
 5712              	.L1020:
 5713 019a 94F8EC32 		ldrb	r3, [r4, #748]	@ zero_extendqisi2
 5714 019e 13F0060F 		tst	r3, #6
 5715 01a2 BCD0     		beq	.L1021
 5716 01a4 2046     		mov	r0, r4
 5717 01a6 FFF7FEFF 		bl	SendTls13Certificate
 5718 01aa C4F87001 		str	r0, [r4, #368]
 5719 01ae 0028     		cmp	r0, #0
 5720 01b0 B5D0     		beq	.L1021
 5721 01b2 33E7     		b	.L1028
 5722              	.L1022:
 5723 01b4 94F8EC32 		ldrb	r3, [r4, #748]	@ zero_extendqisi2
 5724 01b8 13F0060F 		tst	r3, #6
 5725 01bc B6D0     		beq	.L1023
 5726 01be 2046     		mov	r0, r4
 5727 01c0 FFF7FEFF 		bl	SendTls13CertificateVerify
 5728 01c4 C4F87001 		str	r0, [r4, #368]
 5729 01c8 0028     		cmp	r0, #0
 5730 01ca AFD0     		beq	.L1023
 5731 01cc 26E7     		b	.L1028
 5732              	.L1026:
 5733 01ce 6FF0AC00 		mvn	r0, #172
 5734              	.L992:
 5735 01d2 38BD     		pop	{r3, r4, r5, pc}
 5736              	.L1029:
 5737 01d4 0148     		ldr	r0, .L1051+4
 5738 01d6 FCE7     		b	.L992
 5739              	.L1052:
 5740              		.align	2
 5741              	.L1051:
 5742 01d8 A8FEFFFF 		.word	-344
 5743 01dc BAFEFFFF 		.word	-326
 5745              		.section	.text.wolfSSL_UseKeyShare,"ax",%progbits
 5746              		.align	1
 5747              		.global	wolfSSL_UseKeyShare
 5748              		.syntax unified
 5749              		.thumb
 5750              		.thumb_func
 5751              		.fpu fpv4-sp-d16
 5753              	wolfSSL_UseKeyShare:
 5754              		@ args = 0, pretend = 0, frame = 0
 5755              		@ frame_needed = 0, uses_anonymous_args = 0
 5756 0000 37B5     		push	{r0, r1, r2, r4, r5, lr}
 5757 0002 0D46     		mov	r5, r1
 5758 0004 0446     		mov	r4, r0
 5759 0006 18B9     		cbnz	r0, .L1054
 5760              	.L1062:
 5761 0008 6FF0AC00 		mvn	r0, #172
 5762              	.L1053:
 5763 000c 03B0     		add	sp, sp, #12
 5764              		@ sp needed
 5765 000e 30BD     		pop	{r4, r5, pc}
 5766              	.L1054:
 5767 0010 0846     		mov	r0, r1
ARM GAS  /tmp/cc36Vpy0.s 			page 101


 5768 0012 FFF7FEFF 		bl	NamedGroupIsPqc
 5769 0016 38B1     		cbz	r0, .L1056
 5770              	.L1059:
 5771 0018 2368     		ldr	r3, [r4]
 5772 001a C3B9     		cbnz	r3, .L1057
 5773              	.L1058:
 5774 001c 94F8EC32 		ldrb	r3, [r4, #748]	@ zero_extendqisi2
 5775 0020 13F0600F 		tst	r3, #96
 5776 0024 05D1     		bne	.L1061
 5777 0026 10E0     		b	.L1060
 5778              	.L1056:
 5779 0028 2846     		mov	r0, r5
 5780 002a FFF7FEFF 		bl	NamedGroupIsPqcHybrid
 5781 002e 0028     		cmp	r0, #0
 5782 0030 F2D1     		bne	.L1059
 5783              	.L1061:
 5784 0032 04F56C73 		add	r3, r4, #944
 5785 0036 0193     		str	r3, [sp, #4]
 5786 0038 0023     		movs	r3, #0
 5787 003a 2946     		mov	r1, r5
 5788 003c 1A46     		mov	r2, r3
 5789 003e 2046     		mov	r0, r4
 5790 0040 0093     		str	r3, [sp]
 5791 0042 FFF7FEFF 		bl	TLSX_KeyShare_Use
 5792 0046 0028     		cmp	r0, #0
 5793 0048 E0D1     		bne	.L1053
 5794              	.L1060:
 5795 004a 0120     		movs	r0, #1
 5796 004c DEE7     		b	.L1053
 5797              	.L1057:
 5798 004e 1B68     		ldr	r3, [r3]
 5799 0050 002B     		cmp	r3, #0
 5800 0052 E3D0     		beq	.L1058
 5801 0054 B4F89E01 		ldrh	r0, [r4, #414]
 5802 0058 FFF7FEFF 		bl	IsAtLeastTLSv1_3
 5803 005c 0028     		cmp	r0, #0
 5804 005e DDD1     		bne	.L1058
 5805 0060 D2E7     		b	.L1062
 5807              		.section	.text.wolfSSL_NoKeyShares,"ax",%progbits
 5808              		.align	1
 5809              		.global	wolfSSL_NoKeyShares
 5810              		.syntax unified
 5811              		.thumb
 5812              		.thumb_func
 5813              		.fpu fpv4-sp-d16
 5815              	wolfSSL_NoKeyShares:
 5816              		@ args = 0, pretend = 0, frame = 0
 5817              		@ frame_needed = 0, uses_anonymous_args = 0
 5818 0000 08B5     		push	{r3, lr}
 5819 0002 50B1     		cbz	r0, .L1074
 5820 0004 90F8EC32 		ldrb	r3, [r0, #748]	@ zero_extendqisi2
 5821 0008 13F0600F 		tst	r3, #96
 5822 000c 08D0     		beq	.L1075
 5823 000e FFF7FEFF 		bl	TLSX_KeyShare_Empty
 5824 0012 0028     		cmp	r0, #0
 5825 0014 08BF     		it	eq
 5826 0016 0120     		moveq	r0, #1
ARM GAS  /tmp/cc36Vpy0.s 			page 102


 5827              	.L1072:
 5828 0018 08BD     		pop	{r3, pc}
 5829              	.L1074:
 5830 001a 6FF0AC00 		mvn	r0, #172
 5831 001e FBE7     		b	.L1072
 5832              	.L1075:
 5833 0020 0048     		ldr	r0, .L1077
 5834 0022 F9E7     		b	.L1072
 5835              	.L1078:
 5836              		.align	2
 5837              	.L1077:
 5838 0024 A8FEFFFF 		.word	-344
 5840              		.section	.text.wolfSSL_CTX_no_ticket_TLSv13,"ax",%progbits
 5841              		.align	1
 5842              		.global	wolfSSL_CTX_no_ticket_TLSv13
 5843              		.syntax unified
 5844              		.thumb
 5845              		.thumb_func
 5846              		.fpu fpv4-sp-d16
 5848              	wolfSSL_CTX_no_ticket_TLSv13:
 5849              		@ args = 0, pretend = 0, frame = 0
 5850              		@ frame_needed = 0, uses_anonymous_args = 0
 5851 0000 10B5     		push	{r4, lr}
 5852 0002 0446     		mov	r4, r0
 5853 0004 10B9     		cbnz	r0, .L1080
 5854              	.L1082:
 5855 0006 6FF0AC00 		mvn	r0, #172
 5856              	.L1079:
 5857 000a 10BD     		pop	{r4, pc}
 5858              	.L1080:
 5859 000c 0368     		ldr	r3, [r0]
 5860 000e 1A78     		ldrb	r2, [r3]	@ zero_extendqisi2
 5861 0010 5878     		ldrb	r0, [r3, #1]	@ zero_extendqisi2
 5862 0012 42EA0020 		orr	r0, r2, r0, lsl #8
 5863 0016 FFF7FEFF 		bl	IsAtLeastTLSv1_3
 5864 001a 0028     		cmp	r0, #0
 5865 001c F3D0     		beq	.L1082
 5866 001e 2368     		ldr	r3, [r4]
 5867 0020 0248     		ldr	r0, .L1087
 5868 0022 9B78     		ldrb	r3, [r3, #2]	@ zero_extendqisi2
 5869 0024 012B     		cmp	r3, #1
 5870 0026 18BF     		it	ne
 5871 0028 0020     		movne	r0, #0
 5872 002a EEE7     		b	.L1079
 5873              	.L1088:
 5874              		.align	2
 5875              	.L1087:
 5876 002c A8FEFFFF 		.word	-344
 5878              		.section	.text.wolfSSL_no_ticket_TLSv13,"ax",%progbits
 5879              		.align	1
 5880              		.global	wolfSSL_no_ticket_TLSv13
 5881              		.syntax unified
 5882              		.thumb
 5883              		.thumb_func
 5884              		.fpu fpv4-sp-d16
 5886              	wolfSSL_no_ticket_TLSv13:
 5887              		@ args = 0, pretend = 0, frame = 0
ARM GAS  /tmp/cc36Vpy0.s 			page 103


 5888              		@ frame_needed = 0, uses_anonymous_args = 0
 5889 0000 10B5     		push	{r4, lr}
 5890 0002 0446     		mov	r4, r0
 5891 0004 10B9     		cbnz	r0, .L1090
 5892              	.L1092:
 5893 0006 6FF0AC00 		mvn	r0, #172
 5894              	.L1089:
 5895 000a 10BD     		pop	{r4, pc}
 5896              	.L1090:
 5897 000c B0F89E01 		ldrh	r0, [r0, #414]
 5898 0010 FFF7FEFF 		bl	IsAtLeastTLSv1_3
 5899 0014 0028     		cmp	r0, #0
 5900 0016 F6D0     		beq	.L1092
 5901 0018 94F8EC32 		ldrb	r3, [r4, #748]	@ zero_extendqisi2
 5902 001c 0348     		ldr	r0, .L1097
 5903 001e 03F06003 		and	r3, r3, #96
 5904 0022 202B     		cmp	r3, #32
 5905 0024 18BF     		it	ne
 5906 0026 0020     		movne	r0, #0
 5907 0028 EFE7     		b	.L1089
 5908              	.L1098:
 5909 002a 00BF     		.align	2
 5910              	.L1097:
 5911 002c A8FEFFFF 		.word	-344
 5913              		.section	.text.wolfSSL_CTX_no_dhe_psk,"ax",%progbits
 5914              		.align	1
 5915              		.global	wolfSSL_CTX_no_dhe_psk
 5916              		.syntax unified
 5917              		.thumb
 5918              		.thumb_func
 5919              		.fpu fpv4-sp-d16
 5921              	wolfSSL_CTX_no_dhe_psk:
 5922              		@ args = 0, pretend = 0, frame = 0
 5923              		@ frame_needed = 0, uses_anonymous_args = 0
 5924 0000 10B5     		push	{r4, lr}
 5925 0002 0446     		mov	r4, r0
 5926 0004 10B9     		cbnz	r0, .L1100
 5927              	.L1102:
 5928 0006 6FF0AC00 		mvn	r0, #172
 5929              	.L1099:
 5930 000a 10BD     		pop	{r4, pc}
 5931              	.L1100:
 5932 000c 0368     		ldr	r3, [r0]
 5933 000e 1A78     		ldrb	r2, [r3]	@ zero_extendqisi2
 5934 0010 5878     		ldrb	r0, [r3, #1]	@ zero_extendqisi2
 5935 0012 42EA0020 		orr	r0, r2, r0, lsl #8
 5936 0016 FFF7FEFF 		bl	IsAtLeastTLSv1_3
 5937 001a 0028     		cmp	r0, #0
 5938 001c F3D0     		beq	.L1102
 5939 001e 94F83D30 		ldrb	r3, [r4, #61]	@ zero_extendqisi2
 5940 0022 0020     		movs	r0, #0
 5941 0024 43F00803 		orr	r3, r3, #8
 5942 0028 84F83D30 		strb	r3, [r4, #61]
 5943 002c EDE7     		b	.L1099
 5945              		.section	.text.wolfSSL_no_dhe_psk,"ax",%progbits
 5946              		.align	1
 5947              		.global	wolfSSL_no_dhe_psk
ARM GAS  /tmp/cc36Vpy0.s 			page 104


 5948              		.syntax unified
 5949              		.thumb
 5950              		.thumb_func
 5951              		.fpu fpv4-sp-d16
 5953              	wolfSSL_no_dhe_psk:
 5954              		@ args = 0, pretend = 0, frame = 0
 5955              		@ frame_needed = 0, uses_anonymous_args = 0
 5956 0000 10B5     		push	{r4, lr}
 5957 0002 0446     		mov	r4, r0
 5958 0004 10B9     		cbnz	r0, .L1107
 5959              	.L1109:
 5960 0006 6FF0AC00 		mvn	r0, #172
 5961              	.L1106:
 5962 000a 10BD     		pop	{r4, pc}
 5963              	.L1107:
 5964 000c B0F89E01 		ldrh	r0, [r0, #414]
 5965 0010 FFF7FEFF 		bl	IsAtLeastTLSv1_3
 5966 0014 0028     		cmp	r0, #0
 5967 0016 F6D0     		beq	.L1109
 5968 0018 94F8F032 		ldrb	r3, [r4, #752]	@ zero_extendqisi2
 5969 001c 0020     		movs	r0, #0
 5970 001e 43F00803 		orr	r3, r3, #8
 5971 0022 84F8F032 		strb	r3, [r4, #752]
 5972 0026 F0E7     		b	.L1106
 5974              		.section	.text.wolfSSL_CTX_only_dhe_psk,"ax",%progbits
 5975              		.align	1
 5976              		.global	wolfSSL_CTX_only_dhe_psk
 5977              		.syntax unified
 5978              		.thumb
 5979              		.thumb_func
 5980              		.fpu fpv4-sp-d16
 5982              	wolfSSL_CTX_only_dhe_psk:
 5983              		@ args = 0, pretend = 0, frame = 0
 5984              		@ frame_needed = 0, uses_anonymous_args = 0
 5985 0000 10B5     		push	{r4, lr}
 5986 0002 0446     		mov	r4, r0
 5987 0004 10B9     		cbnz	r0, .L1114
 5988              	.L1116:
 5989 0006 6FF0AC00 		mvn	r0, #172
 5990              	.L1113:
 5991 000a 10BD     		pop	{r4, pc}
 5992              	.L1114:
 5993 000c 0368     		ldr	r3, [r0]
 5994 000e 1A78     		ldrb	r2, [r3]	@ zero_extendqisi2
 5995 0010 5878     		ldrb	r0, [r3, #1]	@ zero_extendqisi2
 5996 0012 42EA0020 		orr	r0, r2, r0, lsl #8
 5997 0016 FFF7FEFF 		bl	IsAtLeastTLSv1_3
 5998 001a 0028     		cmp	r0, #0
 5999 001c F3D0     		beq	.L1116
 6000 001e 94F83D30 		ldrb	r3, [r4, #61]	@ zero_extendqisi2
 6001 0022 0020     		movs	r0, #0
 6002 0024 43F01003 		orr	r3, r3, #16
 6003 0028 84F83D30 		strb	r3, [r4, #61]
 6004 002c EDE7     		b	.L1113
 6006              		.section	.text.wolfSSL_only_dhe_psk,"ax",%progbits
 6007              		.align	1
 6008              		.global	wolfSSL_only_dhe_psk
ARM GAS  /tmp/cc36Vpy0.s 			page 105


 6009              		.syntax unified
 6010              		.thumb
 6011              		.thumb_func
 6012              		.fpu fpv4-sp-d16
 6014              	wolfSSL_only_dhe_psk:
 6015              		@ args = 0, pretend = 0, frame = 0
 6016              		@ frame_needed = 0, uses_anonymous_args = 0
 6017 0000 10B5     		push	{r4, lr}
 6018 0002 0446     		mov	r4, r0
 6019 0004 10B9     		cbnz	r0, .L1121
 6020              	.L1123:
 6021 0006 6FF0AC00 		mvn	r0, #172
 6022              	.L1120:
 6023 000a 10BD     		pop	{r4, pc}
 6024              	.L1121:
 6025 000c B0F89E01 		ldrh	r0, [r0, #414]
 6026 0010 FFF7FEFF 		bl	IsAtLeastTLSv1_3
 6027 0014 0028     		cmp	r0, #0
 6028 0016 F6D0     		beq	.L1123
 6029 0018 94F8F032 		ldrb	r3, [r4, #752]	@ zero_extendqisi2
 6030 001c 0020     		movs	r0, #0
 6031 001e 43F01003 		orr	r3, r3, #16
 6032 0022 84F8F032 		strb	r3, [r4, #752]
 6033 0026 F0E7     		b	.L1120
 6035              		.section	.text.Tls13UpdateKeys,"ax",%progbits
 6036              		.align	1
 6037              		.global	Tls13UpdateKeys
 6038              		.syntax unified
 6039              		.thumb
 6040              		.thumb_func
 6041              		.fpu fpv4-sp-d16
 6043              	Tls13UpdateKeys:
 6044              		@ args = 0, pretend = 0, frame = 0
 6045              		@ frame_needed = 0, uses_anonymous_args = 0
 6046 0000 10B5     		push	{r4, lr}
 6047 0002 0446     		mov	r4, r0
 6048 0004 48B1     		cbz	r0, .L1129
 6049 0006 B0F89E01 		ldrh	r0, [r0, #414]
 6050 000a FFF7FEFF 		bl	IsAtLeastTLSv1_3
 6051 000e 20B1     		cbz	r0, .L1129
 6052 0010 2046     		mov	r0, r4
 6053 0012 BDE81040 		pop	{r4, lr}
 6054 0016 FFF7FEBF 		b	SendTls13KeyUpdate
 6055              	.L1129:
 6056 001a 6FF0AC00 		mvn	r0, #172
 6057 001e 10BD     		pop	{r4, pc}
 6059              		.section	.text.wolfSSL_update_keys,"ax",%progbits
 6060              		.align	1
 6061              		.global	wolfSSL_update_keys
 6062              		.syntax unified
 6063              		.thumb
 6064              		.thumb_func
 6065              		.fpu fpv4-sp-d16
 6067              	wolfSSL_update_keys:
 6068              		@ args = 0, pretend = 0, frame = 0
 6069              		@ frame_needed = 0, uses_anonymous_args = 0
 6070 0000 08B5     		push	{r3, lr}
ARM GAS  /tmp/cc36Vpy0.s 			page 106


 6071 0002 FFF7FEFF 		bl	Tls13UpdateKeys
 6072 0006 6FF4A373 		mvn	r3, #326
 6073 000a 9842     		cmp	r0, r3
 6074 000c 03D0     		beq	.L1136
 6075 000e 0028     		cmp	r0, #0
 6076 0010 08BF     		it	eq
 6077 0012 0120     		moveq	r0, #1
 6078              	.L1134:
 6079 0014 08BD     		pop	{r3, pc}
 6080              	.L1136:
 6081 0016 0320     		movs	r0, #3
 6082 0018 FCE7     		b	.L1134
 6084              		.section	.text.wolfSSL_key_update_response,"ax",%progbits
 6085              		.align	1
 6086              		.global	wolfSSL_key_update_response
 6087              		.syntax unified
 6088              		.thumb
 6089              		.thumb_func
 6090              		.fpu fpv4-sp-d16
 6092              	wolfSSL_key_update_response:
 6093              		@ args = 0, pretend = 0, frame = 0
 6094              		@ frame_needed = 0, uses_anonymous_args = 0
 6095 0000 38B5     		push	{r3, r4, r5, lr}
 6096 0002 0446     		mov	r4, r0
 6097 0004 0D46     		mov	r5, r1
 6098 0006 11B9     		cbnz	r1, .L1138
 6099              	.L1140:
 6100 0008 6FF0AC00 		mvn	r0, #172
 6101              	.L1137:
 6102 000c 38BD     		pop	{r3, r4, r5, pc}
 6103              	.L1138:
 6104 000e 0028     		cmp	r0, #0
 6105 0010 FAD0     		beq	.L1140
 6106 0012 B0F89E01 		ldrh	r0, [r0, #414]
 6107 0016 FFF7FEFF 		bl	IsAtLeastTLSv1_3
 6108 001a 0028     		cmp	r0, #0
 6109 001c F4D0     		beq	.L1140
 6110 001e 94F8CE32 		ldrb	r3, [r4, #718]	@ zero_extendqisi2
 6111 0022 0020     		movs	r0, #0
 6112 0024 2B60     		str	r3, [r5]
 6113 0026 F1E7     		b	.L1137
 6115              		.section	.text.wolfSSL_preferred_group,"ax",%progbits
 6116              		.align	1
 6117              		.global	wolfSSL_preferred_group
 6118              		.syntax unified
 6119              		.thumb
 6120              		.thumb_func
 6121              		.fpu fpv4-sp-d16
 6123              	wolfSSL_preferred_group:
 6124              		@ args = 0, pretend = 0, frame = 0
 6125              		@ frame_needed = 0, uses_anonymous_args = 0
 6126 0000 10B5     		push	{r4, lr}
 6127 0002 0446     		mov	r4, r0
 6128 0004 10B9     		cbnz	r0, .L1148
 6129              	.L1150:
 6130 0006 6FF0AC00 		mvn	r0, #172
 6131              	.L1147:
ARM GAS  /tmp/cc36Vpy0.s 			page 107


 6132 000a 10BD     		pop	{r4, pc}
 6133              	.L1148:
 6134 000c B0F89E01 		ldrh	r0, [r0, #414]
 6135 0010 FFF7FEFF 		bl	IsAtLeastTLSv1_3
 6136 0014 0028     		cmp	r0, #0
 6137 0016 F6D0     		beq	.L1150
 6138 0018 94F8EC32 		ldrb	r3, [r4, #748]	@ zero_extendqisi2
 6139 001c 13F0600F 		tst	r3, #96
 6140 0020 09D0     		beq	.L1151
 6141 0022 94F80333 		ldrb	r3, [r4, #771]	@ zero_extendqisi2
 6142 0026 102B     		cmp	r3, #16
 6143 0028 07D1     		bne	.L1152
 6144 002a 2046     		mov	r0, r4
 6145 002c BDE81040 		pop	{r4, lr}
 6146 0030 0121     		movs	r1, #1
 6147 0032 FFF7FEBF 		b	TLSX_SupportedCurve_Preferred
 6148              	.L1151:
 6149 0036 0248     		ldr	r0, .L1156
 6150 0038 E7E7     		b	.L1147
 6151              	.L1152:
 6152 003a 0248     		ldr	r0, .L1156+4
 6153 003c E5E7     		b	.L1147
 6154              	.L1157:
 6155 003e 00BF     		.align	2
 6156              	.L1156:
 6157 0040 A8FEFFFF 		.word	-344
 6158 0044 BCFEFFFF 		.word	-324
 6160              		.section	.text.wolfSSL_CTX_set_psk_client_cs_callback,"ax",%progbits
 6161              		.align	1
 6162              		.global	wolfSSL_CTX_set_psk_client_cs_callback
 6163              		.syntax unified
 6164              		.thumb
 6165              		.thumb_func
 6166              		.fpu fpv4-sp-d16
 6168              	wolfSSL_CTX_set_psk_client_cs_callback:
 6169              		@ args = 0, pretend = 0, frame = 0
 6170              		@ frame_needed = 0, uses_anonymous_args = 0
 6171              		@ link register save eliminated.
 6172 0000 18B1     		cbz	r0, .L1158
 6173 0002 0123     		movs	r3, #1
 6174 0004 0167     		str	r1, [r0, #112]
 6175 0006 80F86430 		strb	r3, [r0, #100]
 6176              	.L1158:
 6177 000a 7047     		bx	lr
 6179              		.section	.text.wolfSSL_set_psk_client_cs_callback,"ax",%progbits
 6180              		.align	1
 6181              		.global	wolfSSL_set_psk_client_cs_callback
 6182              		.syntax unified
 6183              		.thumb
 6184              		.thumb_func
 6185              		.fpu fpv4-sp-d16
 6187              	wolfSSL_set_psk_client_cs_callback:
 6188              		@ args = 0, pretend = 0, frame = 8
 6189              		@ frame_needed = 0, uses_anonymous_args = 0
 6190 0000 30B5     		push	{r4, r5, lr}
 6191 0002 0446     		mov	r4, r0
 6192 0004 8FB0     		sub	sp, sp, #60
ARM GAS  /tmp/cc36Vpy0.s 			page 108


 6193 0006 B0B3     		cbz	r0, .L1163
 6194 0008 90F8EC32 		ldrb	r3, [r0, #748]	@ zero_extendqisi2
 6195 000c D0F83C21 		ldr	r2, [r0, #316]
 6196 0010 43F00103 		orr	r3, r3, #1
 6197 0014 80F8EC32 		strb	r3, [r0, #748]
 6198 0018 C0F8D812 		str	r1, [r0, #728]
 6199 001c 0D92     		str	r2, [sp, #52]
 6200 001e FFF7FEFF 		bl	AllocateSuites
 6201 0022 40BB     		cbnz	r0, .L1163
 6202 0024 0121     		movs	r1, #1
 6203 0026 94F8EC32 		ldrb	r3, [r4, #748]	@ zero_extendqisi2
 6204 002a CDE90911 		strd	r1, r1, [sp, #36]
 6205 002e CDE90711 		strd	r1, r1, [sp, #28]
 6206 0032 C3F34113 		ubfx	r3, r3, #5, #2
 6207 0036 0B93     		str	r3, [sp, #44]
 6208 0038 94F8F132 		ldrb	r3, [r4, #753]	@ zero_extendqisi2
 6209 003c 0D9A     		ldr	r2, [sp, #52]
 6210 003e C3F34013 		ubfx	r3, r3, #5, #1
 6211 0042 0693     		str	r3, [sp, #24]
 6212 0044 94F8EF52 		ldrb	r5, [r4, #751]	@ zero_extendqisi2
 6213 0048 C5F30013 		ubfx	r3, r5, #4, #1
 6214 004c CDE90413 		strd	r1, r3, [sp, #16]
 6215 0050 C5F34003 		ubfx	r3, r5, #1, #1
 6216 0054 0393     		str	r3, [sp, #12]
 6217 0056 C5F3C003 		ubfx	r3, r5, #3, #1
 6218 005a C5F38005 		ubfx	r5, r5, #2, #1
 6219 005e CDE90015 		strd	r1, r5, [sp]
 6220 0062 0146     		mov	r1, r0
 6221 0064 0293     		str	r3, [sp, #8]
 6222 0066 B4F89E31 		ldrh	r3, [r4, #414]
 6223 006a 63F30F01 		bfi	r1, r3, #0, #16
 6224 006e 0346     		mov	r3, r0
 6225 0070 6068     		ldr	r0, [r4, #4]
 6226 0072 FFF7FEFF 		bl	InitSuites
 6227              	.L1163:
 6228 0076 0FB0     		add	sp, sp, #60
 6229              		@ sp needed
 6230 0078 30BD     		pop	{r4, r5, pc}
 6232              		.section	.text.wolfSSL_CTX_set_psk_client_tls13_callback,"ax",%progbits
 6233              		.align	1
 6234              		.global	wolfSSL_CTX_set_psk_client_tls13_callback
 6235              		.syntax unified
 6236              		.thumb
 6237              		.thumb_func
 6238              		.fpu fpv4-sp-d16
 6240              	wolfSSL_CTX_set_psk_client_tls13_callback:
 6241              		@ args = 0, pretend = 0, frame = 0
 6242              		@ frame_needed = 0, uses_anonymous_args = 0
 6243              		@ link register save eliminated.
 6244 0000 18B1     		cbz	r0, .L1167
 6245 0002 0123     		movs	r3, #1
 6246 0004 4167     		str	r1, [r0, #116]
 6247 0006 80F86430 		strb	r3, [r0, #100]
 6248              	.L1167:
 6249 000a 7047     		bx	lr
 6251              		.section	.text.wolfSSL_set_psk_client_tls13_callback,"ax",%progbits
 6252              		.align	1
ARM GAS  /tmp/cc36Vpy0.s 			page 109


 6253              		.global	wolfSSL_set_psk_client_tls13_callback
 6254              		.syntax unified
 6255              		.thumb
 6256              		.thumb_func
 6257              		.fpu fpv4-sp-d16
 6259              	wolfSSL_set_psk_client_tls13_callback:
 6260              		@ args = 0, pretend = 0, frame = 8
 6261              		@ frame_needed = 0, uses_anonymous_args = 0
 6262 0000 30B5     		push	{r4, r5, lr}
 6263 0002 0446     		mov	r4, r0
 6264 0004 8FB0     		sub	sp, sp, #60
 6265 0006 B0B3     		cbz	r0, .L1172
 6266 0008 90F8EC32 		ldrb	r3, [r0, #748]	@ zero_extendqisi2
 6267 000c D0F83C21 		ldr	r2, [r0, #316]
 6268 0010 43F00103 		orr	r3, r3, #1
 6269 0014 80F8EC32 		strb	r3, [r0, #748]
 6270 0018 C0F8DC12 		str	r1, [r0, #732]
 6271 001c 0D92     		str	r2, [sp, #52]
 6272 001e FFF7FEFF 		bl	AllocateSuites
 6273 0022 40BB     		cbnz	r0, .L1172
 6274 0024 0121     		movs	r1, #1
 6275 0026 94F8EC32 		ldrb	r3, [r4, #748]	@ zero_extendqisi2
 6276 002a CDE90911 		strd	r1, r1, [sp, #36]
 6277 002e CDE90711 		strd	r1, r1, [sp, #28]
 6278 0032 C3F34113 		ubfx	r3, r3, #5, #2
 6279 0036 0B93     		str	r3, [sp, #44]
 6280 0038 94F8F132 		ldrb	r3, [r4, #753]	@ zero_extendqisi2
 6281 003c 0D9A     		ldr	r2, [sp, #52]
 6282 003e C3F34013 		ubfx	r3, r3, #5, #1
 6283 0042 0693     		str	r3, [sp, #24]
 6284 0044 94F8EF52 		ldrb	r5, [r4, #751]	@ zero_extendqisi2
 6285 0048 C5F30013 		ubfx	r3, r5, #4, #1
 6286 004c CDE90413 		strd	r1, r3, [sp, #16]
 6287 0050 C5F34003 		ubfx	r3, r5, #1, #1
 6288 0054 0393     		str	r3, [sp, #12]
 6289 0056 C5F3C003 		ubfx	r3, r5, #3, #1
 6290 005a C5F38005 		ubfx	r5, r5, #2, #1
 6291 005e CDE90015 		strd	r1, r5, [sp]
 6292 0062 0146     		mov	r1, r0
 6293 0064 0293     		str	r3, [sp, #8]
 6294 0066 B4F89E31 		ldrh	r3, [r4, #414]
 6295 006a 63F30F01 		bfi	r1, r3, #0, #16
 6296 006e 0346     		mov	r3, r0
 6297 0070 6068     		ldr	r0, [r4, #4]
 6298 0072 FFF7FEFF 		bl	InitSuites
 6299              	.L1172:
 6300 0076 0FB0     		add	sp, sp, #60
 6301              		@ sp needed
 6302 0078 30BD     		pop	{r4, r5, pc}
 6304              		.section	.text.wolfSSL_CTX_set_psk_server_tls13_callback,"ax",%progbits
 6305              		.align	1
 6306              		.global	wolfSSL_CTX_set_psk_server_tls13_callback
 6307              		.syntax unified
 6308              		.thumb
 6309              		.thumb_func
 6310              		.fpu fpv4-sp-d16
 6312              	wolfSSL_CTX_set_psk_server_tls13_callback:
ARM GAS  /tmp/cc36Vpy0.s 			page 110


 6313              		@ args = 0, pretend = 0, frame = 0
 6314              		@ frame_needed = 0, uses_anonymous_args = 0
 6315              		@ link register save eliminated.
 6316 0000 18B1     		cbz	r0, .L1176
 6317 0002 0123     		movs	r3, #1
 6318 0004 8167     		str	r1, [r0, #120]
 6319 0006 80F86430 		strb	r3, [r0, #100]
 6320              	.L1176:
 6321 000a 7047     		bx	lr
 6323              		.section	.text.wolfSSL_set_psk_server_tls13_callback,"ax",%progbits
 6324              		.align	1
 6325              		.global	wolfSSL_set_psk_server_tls13_callback
 6326              		.syntax unified
 6327              		.thumb
 6328              		.thumb_func
 6329              		.fpu fpv4-sp-d16
 6331              	wolfSSL_set_psk_server_tls13_callback:
 6332              		@ args = 0, pretend = 0, frame = 8
 6333              		@ frame_needed = 0, uses_anonymous_args = 0
 6334 0000 30B5     		push	{r4, r5, lr}
 6335 0002 0446     		mov	r4, r0
 6336 0004 8FB0     		sub	sp, sp, #60
 6337 0006 B0B3     		cbz	r0, .L1181
 6338 0008 90F8EC32 		ldrb	r3, [r0, #748]	@ zero_extendqisi2
 6339 000c D0F83C21 		ldr	r2, [r0, #316]
 6340 0010 43F00103 		orr	r3, r3, #1
 6341 0014 80F8EC32 		strb	r3, [r0, #748]
 6342 0018 C0F8E012 		str	r1, [r0, #736]
 6343 001c 0D92     		str	r2, [sp, #52]
 6344 001e FFF7FEFF 		bl	AllocateSuites
 6345 0022 40BB     		cbnz	r0, .L1181
 6346 0024 0121     		movs	r1, #1
 6347 0026 94F8EC32 		ldrb	r3, [r4, #748]	@ zero_extendqisi2
 6348 002a CDE90911 		strd	r1, r1, [sp, #36]
 6349 002e CDE90711 		strd	r1, r1, [sp, #28]
 6350 0032 C3F34113 		ubfx	r3, r3, #5, #2
 6351 0036 0B93     		str	r3, [sp, #44]
 6352 0038 94F8F132 		ldrb	r3, [r4, #753]	@ zero_extendqisi2
 6353 003c 0D9A     		ldr	r2, [sp, #52]
 6354 003e C3F34013 		ubfx	r3, r3, #5, #1
 6355 0042 0693     		str	r3, [sp, #24]
 6356 0044 94F8EF52 		ldrb	r5, [r4, #751]	@ zero_extendqisi2
 6357 0048 C5F30013 		ubfx	r3, r5, #4, #1
 6358 004c CDE90413 		strd	r1, r3, [sp, #16]
 6359 0050 C5F34003 		ubfx	r3, r5, #1, #1
 6360 0054 0393     		str	r3, [sp, #12]
 6361 0056 C5F3C003 		ubfx	r3, r5, #3, #1
 6362 005a C5F38005 		ubfx	r5, r5, #2, #1
 6363 005e CDE90015 		strd	r1, r5, [sp]
 6364 0062 0146     		mov	r1, r0
 6365 0064 0293     		str	r3, [sp, #8]
 6366 0066 B4F89E31 		ldrh	r3, [r4, #414]
 6367 006a 63F30F01 		bfi	r1, r3, #0, #16
 6368 006e 0346     		mov	r3, r0
 6369 0070 6068     		ldr	r0, [r4, #4]
 6370 0072 FFF7FEFF 		bl	InitSuites
 6371              	.L1181:
ARM GAS  /tmp/cc36Vpy0.s 			page 111


 6372 0076 0FB0     		add	sp, sp, #60
 6373              		@ sp needed
 6374 0078 30BD     		pop	{r4, r5, pc}
 6376              		.section	.text.wolfSSL_get_cipher_name_by_hash,"ax",%progbits
 6377              		.align	1
 6378              		.global	wolfSSL_get_cipher_name_by_hash
 6379              		.syntax unified
 6380              		.thumb
 6381              		.thumb_func
 6382              		.fpu fpv4-sp-d16
 6384              	wolfSSL_get_cipher_name_by_hash:
 6385              		@ args = 0, pretend = 0, frame = 0
 6386              		@ frame_needed = 0, uses_anonymous_args = 0
 6387              		@ link register save eliminated.
 6388 0000 0020     		movs	r0, #0
 6389 0002 7047     		bx	lr
 6391              		.section	.text.wolfSSL_accept_TLSv13,"ax",%progbits
 6392              		.align	1
 6393              		.global	wolfSSL_accept_TLSv13
 6394              		.syntax unified
 6395              		.thumb
 6396              		.thumb_func
 6397              		.fpu fpv4-sp-d16
 6399              	wolfSSL_accept_TLSv13:
 6400              		@ args = 0, pretend = 0, frame = 8
 6401              		@ frame_needed = 0, uses_anonymous_args = 0
 6402 0000 2DE9F043 		push	{r4, r5, r6, r7, r8, r9, lr}
 6403 0004 0446     		mov	r4, r0
 6404 0006 89B0     		sub	sp, sp, #36
 6405 0008 10B9     		cbnz	r0, .L1187
 6406              	.L1247:
 6407 000a 4FF0FF30 		mov	r0, #-1
 6408 000e 31E2     		b	.L1186
 6409              	.L1187:
 6410 0010 90F8EC22 		ldrb	r2, [r0, #748]	@ zero_extendqisi2
 6411 0014 02F00105 		and	r5, r2, #1
 6412 0018 12F06002 		ands	r2, r2, #96
 6413 001c 01D0     		beq	.L1189
 6414              	.L1277:
 6415 001e BA4B     		ldr	r3, .L1278
 6416 0020 0DE0     		b	.L1275
 6417              	.L1189:
 6418 0022 0168     		ldr	r1, [r0]
 6419 0024 FFF7FEFF 		bl	ReinitSSL
 6420 0028 0028     		cmp	r0, #0
 6421 002a 40F02382 		bne	.L1186
 6422 002e 85B9     		cbnz	r5, .L1190
 6423 0030 D4F83031 		ldr	r3, [r4, #304]
 6424 0034 0BB1     		cbz	r3, .L1191
 6425 0036 1B68     		ldr	r3, [r3]
 6426 0038 23B9     		cbnz	r3, .L1192
 6427              	.L1191:
 6428 003a 6FF49E73 		mvn	r3, #316
 6429              	.L1275:
 6430 003e C4F87031 		str	r3, [r4, #368]
 6431 0042 E2E7     		b	.L1247
 6432              	.L1192:
ARM GAS  /tmp/cc36Vpy0.s 			page 112


 6433 0044 D4F83431 		ldr	r3, [r4, #308]
 6434 0048 002B     		cmp	r3, #0
 6435 004a F6D0     		beq	.L1191
 6436 004c 1B68     		ldr	r3, [r3]
 6437 004e 002B     		cmp	r3, #0
 6438 0050 F3D0     		beq	.L1191
 6439              	.L1190:
 6440 0052 D4F8F430 		ldr	r3, [r4, #244]
 6441 0056 FBB1     		cbz	r3, .L1196
 6442 0058 94F80713 		ldrb	r1, [r4, #775]	@ zero_extendqisi2
 6443 005c 2046     		mov	r0, r4
 6444 005e 0E29     		cmp	r1, #14
 6445 0060 9DBF     		ittte	ls
 6446 0062 45F6EC75 		movwls	r5, #24556
 6447 0066 CD40     		lsrls	r5, r5, r1
 6448 0068 ED43     		mvnls	r5, r5
 6449 006a 0125     		movhi	r5, #1
 6450 006c 98BF     		it	ls
 6451 006e 05F00105 		andls	r5, r5, #1
 6452 0072 FFF7FEFF 		bl	SendBuffered
 6453 0076 98B9     		cbnz	r0, .L1276
 6454 0078 D4F88831 		ldr	r3, [r4, #392]
 6455 007c 63B9     		cbnz	r3, .L1196
 6456 007e 94F8F432 		ldrb	r3, [r4, #756]	@ zero_extendqisi2
 6457 0082 4BB9     		cbnz	r3, .L1196
 6458 0084 45B9     		cbnz	r5, .L1196
 6459 0086 94F80733 		ldrb	r3, [r4, #775]	@ zero_extendqisi2
 6460 008a 2946     		mov	r1, r5
 6461 008c 0133     		adds	r3, r3, #1
 6462 008e 2046     		mov	r0, r4
 6463 0090 84F80733 		strb	r3, [r4, #775]
 6464 0094 FFF7FEFF 		bl	FreeAsyncCtx
 6465              	.L1196:
 6466 0098 2046     		mov	r0, r4
 6467 009a FFF7FEFF 		bl	RetrySendAlert
 6468 009e 10B1     		cbz	r0, .L1197
 6469              	.L1276:
 6470 00a0 C4F87001 		str	r0, [r4, #368]
 6471 00a4 B1E7     		b	.L1247
 6472              	.L1197:
 6473 00a6 94F80733 		ldrb	r3, [r4, #775]	@ zero_extendqisi2
 6474 00aa 0F2B     		cmp	r3, #15
 6475 00ac ADD8     		bhi	.L1247
 6476 00ae 01A2     		adr	r2, .L1199
 6477 00b0 52F823F0 		ldr	pc, [r2, r3, lsl #2]
 6478              		.p2align 2
 6479              	.L1199:
 6480 00b4 03010000 		.word	.L1213+1
 6481 00b8 0B000000 		.word	.L1247+1
 6482 00bc 27010000 		.word	.L1212+1
 6483 00c0 41010000 		.word	.L1211+1
 6484 00c4 47010000 		.word	.L1210+1
 6485 00c8 55010000 		.word	.L1209+1
 6486 00cc 95010000 		.word	.L1208+1
 6487 00d0 9B010000 		.word	.L1207+1
 6488 00d4 8D020000 		.word	.L1206+1
 6489 00d8 DB030000 		.word	.L1205+1
ARM GAS  /tmp/cc36Vpy0.s 			page 113


 6490 00dc E9030000 		.word	.L1204+1
 6491 00e0 F7030000 		.word	.L1203+1
 6492 00e4 07040000 		.word	.L1202+1
 6493 00e8 0D040000 		.word	.L1241+1
 6494 00ec 1B040000 		.word	.L1200+1
 6495 00f0 43040000 		.word	.L1198+1
 6496              		.p2align 1
 6497              	.L1215:
 6498 00f4 2046     		mov	r0, r4
 6499 00f6 FFF7FEFF 		bl	ProcessReply
 6500 00fa 0028     		cmp	r0, #0
 6501 00fc C4F87001 		str	r0, [r4, #368]
 6502 0100 83DB     		blt	.L1247
 6503              	.L1213:
 6504 0102 94F80233 		ldrb	r3, [r4, #770]	@ zero_extendqisi2
 6505 0106 0B2B     		cmp	r3, #11
 6506 0108 F4D9     		bls	.L1215
 6507 010a 0223     		movs	r3, #2
 6508 010c B4F89E01 		ldrh	r0, [r4, #414]
 6509 0110 84F80733 		strb	r3, [r4, #775]
 6510 0114 FFF7FEFF 		bl	IsAtLeastTLSv1_3
 6511 0118 28B9     		cbnz	r0, .L1212
 6512 011a 2046     		mov	r0, r4
 6513 011c 09B0     		add	sp, sp, #36
 6514              		@ sp needed
 6515 011e BDE8F043 		pop	{r4, r5, r6, r7, r8, r9, lr}
 6516 0122 FFF7FEBF 		b	wolfSSL_accept
 6517              	.L1212:
 6518 0126 94F80133 		ldrb	r3, [r4, #769]	@ zero_extendqisi2
 6519 012a 022B     		cmp	r3, #2
 6520 012c 08D1     		bne	.L1211
 6521 012e 0621     		movs	r1, #6
 6522 0130 2046     		mov	r0, r4
 6523 0132 FFF7FEFF 		bl	SendTls13ServerHello
 6524 0136 C4F87001 		str	r0, [r4, #368]
 6525 013a 0028     		cmp	r0, #0
 6526 013c 7FF465AF 		bne	.L1247
 6527              	.L1211:
 6528 0140 0423     		movs	r3, #4
 6529 0142 84F80733 		strb	r3, [r4, #775]
 6530              	.L1210:
 6531 0146 94F80133 		ldrb	r3, [r4, #769]	@ zero_extendqisi2
 6532 014a 022B     		cmp	r3, #2
 6533 014c 09D0     		beq	.L1218
 6534              	.L1220:
 6535 014e 0523     		movs	r3, #5
 6536 0150 84F80733 		strb	r3, [r4, #775]
 6537              	.L1209:
 6538 0154 94F9F232 		ldrsb	r3, [r4, #754]
 6539 0158 002B     		cmp	r3, #0
 6540 015a 12DA     		bge	.L1221
 6541 015c 6FF4A373 		mvn	r3, #326
 6542 0160 6DE7     		b	.L1275
 6543              	.L1218:
 6544 0162 0B23     		movs	r3, #11
 6545 0164 84F80233 		strb	r3, [r4, #770]
 6546              	.L1219:
ARM GAS  /tmp/cc36Vpy0.s 			page 114


 6547 0168 2046     		mov	r0, r4
 6548 016a FFF7FEFF 		bl	ProcessReply
 6549 016e 0028     		cmp	r0, #0
 6550 0170 C4F87001 		str	r0, [r4, #368]
 6551 0174 FFF649AF 		blt	.L1247
 6552 0178 94F80233 		ldrb	r3, [r4, #770]	@ zero_extendqisi2
 6553 017c 0B2B     		cmp	r3, #11
 6554 017e F3D9     		bls	.L1219
 6555 0180 E5E7     		b	.L1220
 6556              	.L1221:
 6557 0182 0221     		movs	r1, #2
 6558 0184 2046     		mov	r0, r4
 6559 0186 FFF7FEFF 		bl	SendTls13ServerHello
 6560 018a C4F87001 		str	r0, [r4, #368]
 6561 018e 0028     		cmp	r0, #0
 6562 0190 7FF43BAF 		bne	.L1247
 6563              	.L1208:
 6564 0194 0723     		movs	r3, #7
 6565 0196 84F80733 		strb	r3, [r4, #775]
 6566              	.L1207:
 6567 019a 94F8F032 		ldrb	r3, [r4, #752]	@ zero_extendqisi2
 6568 019e 1E07     		lsls	r6, r3, #28
 6569 01a0 40F1A080 		bpl	.L1222
 6570              	.L1225:
 6571 01a4 0127     		movs	r7, #1
 6572 01a6 0026     		movs	r6, #0
 6573 01a8 2046     		mov	r0, r4
 6574 01aa 84F8F472 		strb	r7, [r4, #756]
 6575 01ae 84F8CC72 		strb	r7, [r4, #716]
 6576 01b2 ADF81C60 		strh	r6, [sp, #28]	@ movhi
 6577 01b6 FFF7FEFF 		bl	TLSX_SupportedCurve_CheckPriority
 6578 01ba 0546     		mov	r5, r0
 6579 01bc 0028     		cmp	r0, #0
 6580 01be 40F09E80 		bne	.L1223
 6581 01c2 2046     		mov	r0, r4
 6582 01c4 FFF7FEFF 		bl	DeriveHandshakeSecret
 6583 01c8 0546     		mov	r5, r0
 6584 01ca 0028     		cmp	r0, #0
 6585 01cc 40F09780 		bne	.L1223
 6586 01d0 3B46     		mov	r3, r7
 6587 01d2 0322     		movs	r2, #3
 6588 01d4 0221     		movs	r1, #2
 6589 01d6 2046     		mov	r0, r4
 6590 01d8 FFF7FEFF 		bl	DeriveTls13Keys
 6591 01dc 0546     		mov	r5, r0
 6592 01de 0028     		cmp	r0, #0
 6593 01e0 40F08D80 		bne	.L1223
 6594 01e4 0321     		movs	r1, #3
 6595 01e6 2046     		mov	r0, r4
 6596 01e8 FFF7FEFF 		bl	SetKeysSide
 6597 01ec 0546     		mov	r5, r0
 6598 01ee 0028     		cmp	r0, #0
 6599 01f0 40F08580 		bne	.L1223
 6600 01f4 0821     		movs	r1, #8
 6601 01f6 2046     		mov	r0, r4
 6602 01f8 07AA     		add	r2, sp, #28
 6603 01fa FFF7FEFF 		bl	TLSX_GetResponseSize
ARM GAS  /tmp/cc36Vpy0.s 			page 115


 6604 01fe 0546     		mov	r5, r0
 6605 0200 0028     		cmp	r0, #0
 6606 0202 7CD1     		bne	.L1223
 6607 0204 BDF81C90 		ldrh	r9, [sp, #28]
 6608 0208 2046     		mov	r0, r4
 6609 020a 09F16F09 		add	r9, r9, #111
 6610 020e 4946     		mov	r1, r9
 6611 0210 FFF7FEFF 		bl	CheckAvailableSize
 6612 0214 0546     		mov	r5, r0
 6613 0216 0028     		cmp	r0, #0
 6614 0218 71D1     		bne	.L1223
 6615 021a 2046     		mov	r0, r4
 6616 021c FFF7FEFF 		bl	GetOutputBuffer
 6617 0220 0822     		movs	r2, #8
 6618 0222 94F89E31 		ldrb	r3, [r4, #414]	@ zero_extendqisi2
 6619 0226 BDF81C10 		ldrh	r1, [sp, #28]
 6620 022a FFF7FEFF 		bl	AddTls13Headers.isra.0
 6621 022e 8046     		mov	r8, r0
 6622 0230 2B46     		mov	r3, r5
 6623 0232 00F10901 		add	r1, r0, #9
 6624 0236 2046     		mov	r0, r4
 6625 0238 FFF7FEFF 		bl	TLSX_WriteResponse
 6626 023c 0546     		mov	r5, r0
 6627 023e 0028     		cmp	r0, #0
 6628 0240 5DD1     		bne	.L1223
 6629 0242 1623     		movs	r3, #22
 6630 0244 0193     		str	r3, [sp, #4]
 6631 0246 BDF81C30 		ldrh	r3, [sp, #28]
 6632 024a CDE90300 		strd	r0, r0, [sp, #12]
 6633 024e 0433     		adds	r3, r3, #4
 6634 0250 0093     		str	r3, [sp]
 6635 0252 4A46     		mov	r2, r9
 6636 0254 4146     		mov	r1, r8
 6637 0256 2046     		mov	r0, r4
 6638 0258 0297     		str	r7, [sp, #8]
 6639 025a 08F10503 		add	r3, r8, #5
 6640 025e FFF7FEFF 		bl	BuildTls13Message
 6641 0262 051E     		subs	r5, r0, #0
 6642 0264 4BDB     		blt	.L1223
 6643 0266 0423     		movs	r3, #4
 6644 0268 D4F8F400 		ldr	r0, [r4, #244]
 6645 026c 84F80133 		strb	r3, [r4, #769]
 6646 0270 94F8F132 		ldrb	r3, [r4, #753]	@ zero_extendqisi2
 6647 0274 2844     		add	r0, r0, r5
 6648 0276 DD07     		lsls	r5, r3, #31
 6649 0278 C4F8F400 		str	r0, [r4, #244]
 6650 027c 84F8F462 		strb	r6, [r4, #756]
 6651 0280 39D5     		bpl	.L1226
 6652 0282 C4F87061 		str	r6, [r4, #368]
 6653              	.L1227:
 6654 0286 0823     		movs	r3, #8
 6655 0288 84F80733 		strb	r3, [r4, #775]
 6656              	.L1206:
 6657 028c 94F8ED72 		ldrb	r7, [r4, #749]	@ zero_extendqisi2
 6658 0290 17F01007 		ands	r7, r7, #16
 6659 0294 40F09E80 		bne	.L1229
 6660 0298 94F9EC32 		ldrsb	r3, [r4, #748]
ARM GAS  /tmp/cc36Vpy0.s 			page 116


 6661 029c 94F8EC02 		ldrb	r0, [r4, #748]	@ zero_extendqisi2
 6662 02a0 002B     		cmp	r3, #0
 6663 02a2 80F2EF80 		bge	.L1230
 6664 02a6 4FF00108 		mov	r8, #1
 6665 02aa 10F06000 		ands	r0, r0, #96
 6666 02ae ADF81A70 		strh	r7, [sp, #26]	@ movhi
 6667 02b2 84F8F482 		strb	r8, [r4, #756]
 6668 02b6 7FF4B2AE 		bne	.L1277
 6669 02ba 0DF11A05 		add	r5, sp, #26
 6670 02be 0095     		str	r5, [sp]
 6671 02c0 4246     		mov	r2, r8
 6672 02c2 1F21     		movs	r1, #31
 6673 02c4 D4F83C31 		ldr	r3, [r4, #316]
 6674 02c8 FFF7FEFF 		bl	InitSuitesHashSigAlgo
 6675 02cc 2046     		mov	r0, r4
 6676 02ce D4F88820 		ldr	r2, [r4, #136]
 6677 02d2 BDF81A10 		ldrh	r1, [sp, #26]
 6678 02d6 FFF7FEFF 		bl	TLSX_SignatureAlgorithms_New
 6679 02da 0646     		mov	r6, r0
 6680 02dc B0B9     		cbnz	r0, .L1232
 6681 02de 6FF49773 		mvn	r3, #302
 6682 02e2 ACE6     		b	.L1275
 6683              	.L1222:
 6684 02e4 2046     		mov	r0, r4
 6685 02e6 FFF7FEFF 		bl	TLSX_KeyShare_DeriveSecret
 6686 02ea C4F87001 		str	r0, [r4, #368]
 6687 02ee 0028     		cmp	r0, #0
 6688 02f0 3FF458AF 		beq	.L1225
 6689 02f4 89E6     		b	.L1247
