ARM GAS  /tmp/ccxnUvyY.s 			page 1


   1              		.cpu cortex-m33
   2              		.eabi_attribute 27, 1
   3              		.eabi_attribute 28, 1
   4              		.eabi_attribute 20, 1
   5              		.eabi_attribute 21, 1
   6              		.eabi_attribute 23, 3
   7              		.eabi_attribute 24, 1
   8              		.eabi_attribute 25, 1
   9              		.eabi_attribute 26, 1
  10              		.eabi_attribute 30, 4
  11              		.eabi_attribute 34, 1
  12              		.eabi_attribute 18, 4
  13              		.file	"sha2.c"
  14              		.text
  15              		.section	.text.load_bigendian_32,"ax",%progbits
  16              		.align	1
  17              		.arch armv8-m.main
  18              		.arch_extension dsp
  19              		.syntax unified
  20              		.thumb
  21              		.thumb_func
  22              		.fpu fpv4-sp-d16
  24              	load_bigendian_32:
  25              		@ args = 0, pretend = 0, frame = 0
  26              		@ frame_needed = 0, uses_anonymous_args = 0
  27              		@ link register save eliminated.
  28 0000 0068     		ldr	r0, [r0]	@ unaligned
  29 0002 00BA     		rev	r0, r0
  30 0004 7047     		bx	lr
  32              		.section	.text.load_bigendian_64,"ax",%progbits
  33              		.align	1
  34              		.syntax unified
  35              		.thumb
  36              		.thumb_func
  37              		.fpu fpv4-sp-d16
  39              	load_bigendian_64:
  40              		@ args = 0, pretend = 0, frame = 0
  41              		@ frame_needed = 0, uses_anonymous_args = 0
  42              		@ link register save eliminated.
  43 0000 0168     		ldr	r1, [r0]	@ unaligned
  44 0002 4068     		ldr	r0, [r0, #4]	@ unaligned
  45 0004 09BA     		rev	r1, r1
  46 0006 00BA     		rev	r0, r0
  47 0008 7047     		bx	lr
  49              		.section	.text.store_bigendian_64,"ax",%progbits
  50              		.align	1
  51              		.syntax unified
  52              		.thumb
  53              		.thumb_func
  54              		.fpu fpv4-sp-d16
  56              	store_bigendian_64:
  57              		@ args = 0, pretend = 0, frame = 0
  58              		@ frame_needed = 0, uses_anonymous_args = 0
  59              		@ link register save eliminated.
  60 0000 110A     		lsrs	r1, r2, #8
  61 0002 C271     		strb	r2, [r0, #7]
  62 0004 8171     		strb	r1, [r0, #6]
ARM GAS  /tmp/ccxnUvyY.s 			page 2


  63 0006 110C     		lsrs	r1, r2, #16
  64 0008 120E     		lsrs	r2, r2, #24
  65 000a 0271     		strb	r2, [r0, #4]
  66 000c 1A0A     		lsrs	r2, r3, #8
  67 000e C370     		strb	r3, [r0, #3]
  68 0010 8270     		strb	r2, [r0, #2]
  69 0012 1A0C     		lsrs	r2, r3, #16
  70 0014 1B0E     		lsrs	r3, r3, #24
  71 0016 4171     		strb	r1, [r0, #5]
  72 0018 4270     		strb	r2, [r0, #1]
  73 001a 0370     		strb	r3, [r0]
  74 001c 7047     		bx	lr
  76              		.section	.text.crypto_hashblocks_sha512.isra.0,"ax",%progbits
  77              		.align	1
  78              		.syntax unified
  79              		.thumb
  80              		.thumb_func
  81              		.fpu fpv4-sp-d16
  83              	crypto_hashblocks_sha512.isra.0:
  84              		@ args = 0, pretend = 0, frame = 296
  85              		@ frame_needed = 0, uses_anonymous_args = 0
  86 0000 2DE9F04F 		push	{r4, r5, r6, r7, r8, r9, r10, fp, lr}
  87 0004 CBB0     		sub	sp, sp, #300
  88 0006 3490     		str	r0, [sp, #208]
  89 0008 0191     		str	r1, [sp, #4]
  90 000a FFF7FEFF 		bl	load_bigendian_64
  91 000e 349B     		ldr	r3, [sp, #208]
  92 0010 CDE90401 		strd	r0, r1, [sp, #16]
  93 0014 0833     		adds	r3, r3, #8
  94 0016 1846     		mov	r0, r3
  95 0018 FFF7FEFF 		bl	load_bigendian_64
  96 001c 07EE903A 		vmov	s15, r3	@ int
  97 0020 349B     		ldr	r3, [sp, #208]
  98 0022 CDE93501 		strd	r0, r1, [sp, #212]
  99 0026 1033     		adds	r3, r3, #16
 100 0028 1846     		mov	r0, r3
 101 002a FFF7FEFF 		bl	load_bigendian_64
 102 002e 07EE103A 		vmov	s14, r3	@ int
 103 0032 349B     		ldr	r3, [sp, #208]
 104 0034 CDE93F01 		strd	r0, r1, [sp, #252]
 105 0038 1833     		adds	r3, r3, #24
 106 003a 1846     		mov	r0, r3
 107 003c FFF7FEFF 		bl	load_bigendian_64
 108 0040 06EE903A 		vmov	s13, r3	@ int
 109 0044 349B     		ldr	r3, [sp, #208]
 110 0046 CDE94701 		strd	r0, r1, [sp, #284]
 111 004a 2033     		adds	r3, r3, #32
 112 004c 1846     		mov	r0, r3
 113 004e FFF7FEFF 		bl	load_bigendian_64
 114 0052 06EE103A 		vmov	s12, r3	@ int
 115 0056 349B     		ldr	r3, [sp, #208]
 116 0058 CDE91401 		strd	r0, r1, [sp, #80]
 117 005c 2833     		adds	r3, r3, #40
 118 005e 1846     		mov	r0, r3
 119 0060 FFF7FEFF 		bl	load_bigendian_64
 120 0064 05EE903A 		vmov	s11, r3	@ int
 121 0068 349B     		ldr	r3, [sp, #208]
ARM GAS  /tmp/ccxnUvyY.s 			page 3


 122 006a CDE93D01 		strd	r0, r1, [sp, #244]
 123 006e 3033     		adds	r3, r3, #48
 124 0070 1846     		mov	r0, r3
 125 0072 FFF7FEFF 		bl	load_bigendian_64
 126 0076 05EE103A 		vmov	s10, r3	@ int
 127 007a 349B     		ldr	r3, [sp, #208]
 128 007c CDE94301 		strd	r0, r1, [sp, #268]
 129 0080 3833     		adds	r3, r3, #56
 130 0082 1846     		mov	r0, r3
 131 0084 FFF7FEFF 		bl	load_bigendian_64
 132 0088 04EE903A 		vmov	s9, r3	@ int
 133 008c 019B     		ldr	r3, [sp, #4]
 134 008e 22F07F02 		bic	r2, r2, #127
 135 0092 CDE94501 		strd	r0, r1, [sp, #276]
 136 0096 1344     		add	r3, r3, r2
 137 0098 4993     		str	r3, [sp, #292]
 138              	.L5:
 139 009a 019B     		ldr	r3, [sp, #4]
 140 009c 499A     		ldr	r2, [sp, #292]
 141 009e 9342     		cmp	r3, r2
 142 00a0 31D1     		bne	.L6
 143 00a2 DDE90423 		ldrd	r2, r3, [sp, #16]
 144 00a6 3498     		ldr	r0, [sp, #208]
 145 00a8 FFF7FEFF 		bl	store_bigendian_64
 146 00ac DDE93523 		ldrd	r2, r3, [sp, #212]
 147 00b0 17EE900A 		vmov	r0, s15	@ int
 148 00b4 FFF7FEFF 		bl	store_bigendian_64
 149 00b8 DDE93F23 		ldrd	r2, r3, [sp, #252]
 150 00bc 17EE100A 		vmov	r0, s14	@ int
 151 00c0 FFF7FEFF 		bl	store_bigendian_64
 152 00c4 DDE94723 		ldrd	r2, r3, [sp, #284]
 153 00c8 16EE900A 		vmov	r0, s13	@ int
 154 00cc FFF7FEFF 		bl	store_bigendian_64
 155 00d0 DDE91423 		ldrd	r2, r3, [sp, #80]
 156 00d4 16EE100A 		vmov	r0, s12	@ int
 157 00d8 FFF7FEFF 		bl	store_bigendian_64
 158 00dc DDE93D23 		ldrd	r2, r3, [sp, #244]
 159 00e0 15EE900A 		vmov	r0, s11	@ int
 160 00e4 FFF7FEFF 		bl	store_bigendian_64
 161 00e8 DDE94323 		ldrd	r2, r3, [sp, #268]
 162 00ec 15EE100A 		vmov	r0, s10	@ int
 163 00f0 FFF7FEFF 		bl	store_bigendian_64
 164 00f4 DDE94523 		ldrd	r2, r3, [sp, #276]
 165 00f8 14EE900A 		vmov	r0, s9	@ int
 166 00fc 4BB0     		add	sp, sp, #300
 167              		@ sp needed
 168 00fe BDE8F04F 		pop	{r4, r5, r6, r7, r8, r9, r10, fp, lr}
 169 0102 FFF7FEBF 		b	store_bigendian_64
 170              	.L6:
 171 0106 0198     		ldr	r0, [sp, #4]
 172 0108 FFF7FEFF 		bl	load_bigendian_64
 173 010c 019B     		ldr	r3, [sp, #4]
 174 010e 1890     		str	r0, [sp, #96]
 175 0110 03F10800 		add	r0, r3, #8
 176 0114 3B91     		str	r1, [sp, #236]
 177 0116 FFF7FEFF 		bl	load_bigendian_64
 178 011a 3090     		str	r0, [sp, #192]
ARM GAS  /tmp/ccxnUvyY.s 			page 4


 179 011c 03F11000 		add	r0, r3, #16
 180 0120 1991     		str	r1, [sp, #100]
 181 0122 FFF7FEFF 		bl	load_bigendian_64
 182 0126 3190     		str	r0, [sp, #196]
 183 0128 03F11800 		add	r0, r3, #24
 184 012c 1A91     		str	r1, [sp, #104]
 185 012e FFF7FEFF 		bl	load_bigendian_64
 186 0132 3290     		str	r0, [sp, #200]
 187 0134 03F12000 		add	r0, r3, #32
 188 0138 1B91     		str	r1, [sp, #108]
 189 013a FFF7FEFF 		bl	load_bigendian_64
 190 013e 3390     		str	r0, [sp, #204]
 191 0140 03F12800 		add	r0, r3, #40
 192 0144 1C91     		str	r1, [sp, #112]
 193 0146 FFF7FEFF 		bl	load_bigendian_64
 194 014a 3790     		str	r0, [sp, #220]
 195 014c 03F13000 		add	r0, r3, #48
 196 0150 1D91     		str	r1, [sp, #116]
 197 0152 FFF7FEFF 		bl	load_bigendian_64
 198 0156 3890     		str	r0, [sp, #224]
 199 0158 03F13800 		add	r0, r3, #56
 200 015c 1E91     		str	r1, [sp, #120]
 201 015e FFF7FEFF 		bl	load_bigendian_64
 202 0162 3990     		str	r0, [sp, #228]
 203 0164 03F14000 		add	r0, r3, #64
 204 0168 1F91     		str	r1, [sp, #124]
 205 016a FFF7FEFF 		bl	load_bigendian_64
 206 016e 3A90     		str	r0, [sp, #232]
 207 0170 03F14800 		add	r0, r3, #72
 208 0174 2091     		str	r1, [sp, #128]
 209 0176 FFF7FEFF 		bl	load_bigendian_64
 210 017a 2190     		str	r0, [sp, #132]
 211 017c 03F15000 		add	r0, r3, #80
 212 0180 1091     		str	r1, [sp, #64]
 213 0182 FFF7FEFF 		bl	load_bigendian_64
 214 0186 2290     		str	r0, [sp, #136]
 215 0188 03F15800 		add	r0, r3, #88
 216 018c 1191     		str	r1, [sp, #68]
 217 018e FFF7FEFF 		bl	load_bigendian_64
 218 0192 2390     		str	r0, [sp, #140]
 219 0194 03F16000 		add	r0, r3, #96
 220 0198 1291     		str	r1, [sp, #72]
 221 019a FFF7FEFF 		bl	load_bigendian_64
 222 019e 2490     		str	r0, [sp, #144]
 223 01a0 03F16800 		add	r0, r3, #104
 224 01a4 1391     		str	r1, [sp, #76]
 225 01a6 FFF7FEFF 		bl	load_bigendian_64
 226 01aa 2F90     		str	r0, [sp, #188]
 227 01ac 03F17000 		add	r0, r3, #112
 228 01b0 2591     		str	r1, [sp, #148]
 229 01b2 FFF7FEFF 		bl	load_bigendian_64
 230 01b6 1690     		str	r0, [sp, #88]
 231 01b8 03F17800 		add	r0, r3, #120
 232 01bc 0291     		str	r1, [sp, #8]
 233 01be FFF7FEFF 		bl	load_bigendian_64
 234 01c2 149B     		ldr	r3, [sp, #80]
 235 01c4 0391     		str	r1, [sp, #12]
ARM GAS  /tmp/ccxnUvyY.s 			page 5


 236 01c6 990B     		lsrs	r1, r3, #14
 237 01c8 159B     		ldr	r3, [sp, #84]
 238 01ca 1790     		str	r0, [sp, #92]
 239 01cc 41EA8341 		orr	r1, r1, r3, lsl #18
 240 01d0 980B     		lsrs	r0, r3, #14
 241 01d2 149B     		ldr	r3, [sp, #80]
 242 01d4 159A     		ldr	r2, [sp, #84]
 243 01d6 40EA8344 		orr	r4, r0, r3, lsl #18
 244 01da 9B0C     		lsrs	r3, r3, #18
 245 01dc 43EA8235 		orr	r5, r3, r2, lsl #14
 246 01e0 149B     		ldr	r3, [sp, #80]
 247 01e2 900C     		lsrs	r0, r2, #18
 248 01e4 40EA8332 		orr	r2, r0, r3, lsl #14
 249 01e8 84EA0200 		eor	r0, r4, r2
 250 01ec 159A     		ldr	r2, [sp, #84]
 251 01ee 81EA0503 		eor	r3, r1, r5
 252 01f2 1499     		ldr	r1, [sp, #80]
 253 01f4 159C     		ldr	r4, [sp, #84]
 254 01f6 D205     		lsls	r2, r2, #23
 255 01f8 42EA5122 		orr	r2, r2, r1, lsr #9
 256 01fc C905     		lsls	r1, r1, #23
 257 01fe 41EA5421 		orr	r1, r1, r4, lsr #9
 258 0202 5940     		eors	r1, r1, r3
 259 0204 4240     		eors	r2, r2, r0
 260 0206 459B     		ldr	r3, [sp, #276]
 261 0208 CF48     		ldr	r0, .L7
 262 020a 469C     		ldr	r4, [sp, #280]
 263 020c 1B18     		adds	r3, r3, r0
 264 020e CF48     		ldr	r0, .L7+4
 265 0210 40EB0400 		adc	r0, r0, r4
 266 0214 C918     		adds	r1, r1, r3
 267 0216 42EB0002 		adc	r2, r2, r0
 268 021a 439B     		ldr	r3, [sp, #268]
 269 021c 1498     		ldr	r0, [sp, #80]
 270 021e 23EA0003 		bic	r3, r3, r0
 271 0222 4498     		ldr	r0, [sp, #272]
 272 0224 159C     		ldr	r4, [sp, #84]
 273 0226 3D9D     		ldr	r5, [sp, #244]
 274 0228 20EA0400 		bic	r0, r0, r4
 275 022c 149C     		ldr	r4, [sp, #80]
 276 022e 3E9E     		ldr	r6, [sp, #248]
 277 0230 2540     		ands	r5, r5, r4
 278 0232 159C     		ldr	r4, [sp, #84]
 279 0234 6B40     		eors	r3, r3, r5
 280 0236 3440     		ands	r4, r4, r6
 281 0238 CB18     		adds	r3, r1, r3
 282 023a 1899     		ldr	r1, [sp, #96]
 283 023c 80EA0400 		eor	r0, r0, r4
 284 0240 42EB0002 		adc	r2, r2, r0
 285 0244 5B18     		adds	r3, r3, r1
 286 0246 3B99     		ldr	r1, [sp, #236]
 287 0248 0598     		ldr	r0, [sp, #20]
 288 024a 41EB0202 		adc	r2, r1, r2
 289 024e 0499     		ldr	r1, [sp, #16]
 290 0250 050F     		lsrs	r5, r0, #28
 291 0252 090F     		lsrs	r1, r1, #28
 292 0254 41EA0011 		orr	r1, r1, r0, lsl #4
ARM GAS  /tmp/ccxnUvyY.s 			page 6


 293 0258 0498     		ldr	r0, [sp, #16]
 294 025a 049C     		ldr	r4, [sp, #16]
 295 025c 45EA0015 		orr	r5, r5, r0, lsl #4
 296 0260 0598     		ldr	r0, [sp, #20]
 297 0262 059E     		ldr	r6, [sp, #20]
 298 0264 8007     		lsls	r0, r0, #30
 299 0266 40EA9400 		orr	r0, r0, r4, lsr #2
 300 026a A407     		lsls	r4, r4, #30
 301 026c 44EA9604 		orr	r4, r4, r6, lsr #2
 302 0270 6140     		eors	r1, r1, r4
 303 0272 049C     		ldr	r4, [sp, #16]
 304 0274 4540     		eors	r5, r5, r0
 305 0276 7006     		lsls	r0, r6, #25
 306 0278 40EAD410 		orr	r0, r0, r4, lsr #7
 307 027c 6406     		lsls	r4, r4, #25
 308 027e 44EAD614 		orr	r4, r4, r6, lsr #7
 309 0282 81EA040C 		eor	ip, r1, r4
 310 0286 4540     		eors	r5, r5, r0
 311 0288 3F9C     		ldr	r4, [sp, #252]
 312 028a 3598     		ldr	r0, [sp, #212]
 313 028c 3F9F     		ldr	r7, [sp, #252]
 314 028e 80EA0406 		eor	r6, r0, r4
 315 0292 409C     		ldr	r4, [sp, #256]
 316 0294 3698     		ldr	r0, [sp, #216]
 317 0296 4099     		ldr	r1, [sp, #256]
 318 0298 6040     		eors	r0, r0, r4
 319 029a 049C     		ldr	r4, [sp, #16]
 320 029c 2640     		ands	r6, r6, r4
 321 029e 059C     		ldr	r4, [sp, #20]
 322 02a0 2040     		ands	r0, r0, r4
 323 02a2 359C     		ldr	r4, [sp, #212]
 324 02a4 3C40     		ands	r4, r4, r7
 325 02a6 369F     		ldr	r7, [sp, #216]
 326 02a8 7440     		eors	r4, r4, r6
 327 02aa 0F40     		ands	r7, r7, r1
 328 02ac 7840     		eors	r0, r0, r7
 329 02ae 1CEB0401 		adds	r1, ip, r4
 330 02b2 45EB0005 		adc	r5, r5, r0
 331 02b6 4798     		ldr	r0, [sp, #284]
 332 02b8 13EB000E 		adds	lr, r3, r0
 333 02bc 4898     		ldr	r0, [sp, #288]
 334 02be 42EB0000 		adc	r0, r2, r0
 335 02c2 13EB010A 		adds	r10, r3, r1
 336 02c6 42EB050B 		adc	fp, r2, r5
 337 02ca 4FEA9038 		lsr	r8, r0, #14
 338 02ce 820C     		lsrs	r2, r0, #18
 339 02d0 42EA8E32 		orr	r2, r2, lr, lsl #14
 340 02d4 48EA8E48 		orr	r8, r8, lr, lsl #18
 341 02d8 4FEA9E33 		lsr	r3, lr, #14
 342 02dc 4FEA9E41 		lsr	r1, lr, #18
 343 02e0 88EA0208 		eor	r8, r8, r2
 344 02e4 C205     		lsls	r2, r0, #23
 345 02e6 41EA8031 		orr	r1, r1, r0, lsl #14
 346 02ea 42EA5E22 		orr	r2, r2, lr, lsr #9
 347 02ee 43EA8043 		orr	r3, r3, r0, lsl #18
 348 02f2 4B40     		eors	r3, r3, r1
 349 02f4 4FEACE55 		lsl	r5, lr, #23
ARM GAS  /tmp/ccxnUvyY.s 			page 7


 350 02f8 9549     		ldr	r1, .L7+8
 351 02fa 88EA0208 		eor	r8, r8, r2
 352 02fe 439A     		ldr	r2, [sp, #268]
 353 0300 45EA5025 		orr	r5, r5, r0, lsr #9
 354 0304 6B40     		eors	r3, r3, r5
 355 0306 5518     		adds	r5, r2, r1
 356 0308 4499     		ldr	r1, [sp, #272]
 357 030a 924A     		ldr	r2, .L7+12
 358 030c 0C90     		str	r0, [sp, #48]
 359 030e 42EB0102 		adc	r2, r2, r1
 360 0312 3099     		ldr	r1, [sp, #192]
 361 0314 6D18     		adds	r5, r5, r1
 362 0316 1999     		ldr	r1, [sp, #100]
 363 0318 41EB0202 		adc	r2, r1, r2
 364 031c 5B19     		adds	r3, r3, r5
 365 031e 48EB0208 		adc	r8, r8, r2
 366 0322 3D9A     		ldr	r2, [sp, #244]
 367 0324 0C99     		ldr	r1, [sp, #48]
 368 0326 22EA0E00 		bic	r0, r2, lr
 369 032a 3E9A     		ldr	r2, [sp, #248]
 370 032c 0C9C     		ldr	r4, [sp, #48]
 371 032e 22EA0102 		bic	r2, r2, r1
 372 0332 1499     		ldr	r1, [sp, #80]
 373 0334 359F     		ldr	r7, [sp, #212]
 374 0336 01EA0E05 		and	r5, r1, lr
 375 033a 1599     		ldr	r1, [sp, #84]
 376 033c 4540     		eors	r5, r5, r0
 377 033e 2140     		ands	r1, r1, r4
 378 0340 5B19     		adds	r3, r3, r5
 379 0342 82EA0102 		eor	r2, r2, r1
 380 0346 48EB0208 		adc	r8, r8, r2
 381 034a 4FEA1B70 		lsr	r0, fp, #28
 382 034e 4FEA1A72 		lsr	r2, r10, #28
 383 0352 4FEA8B71 		lsl	r1, fp, #30
 384 0356 4FEA8A75 		lsl	r5, r10, #30
 385 035a 41EA9A01 		orr	r1, r1, r10, lsr #2
 386 035e 45EA9B05 		orr	r5, r5, fp, lsr #2
 387 0362 42EA0B12 		orr	r2, r2, fp, lsl #4
 388 0366 40EA0A10 		orr	r0, r0, r10, lsl #4
 389 036a 6A40     		eors	r2, r2, r5
 390 036c 4840     		eors	r0, r0, r1
 391 036e 4FEA4A65 		lsl	r5, r10, #25
 392 0372 4FEA4B61 		lsl	r1, fp, #25
 393 0376 41EADA11 		orr	r1, r1, r10, lsr #7
 394 037a 45EADB15 		orr	r5, r5, fp, lsr #7
 395 037e 6A40     		eors	r2, r2, r5
 396 0380 4840     		eors	r0, r0, r1
 397 0382 359D     		ldr	r5, [sp, #212]
 398 0384 0499     		ldr	r1, [sp, #16]
 399 0386 369C     		ldr	r4, [sp, #216]
 400 0388 81EA0506 		eor	r6, r1, r5
 401 038c 369D     		ldr	r5, [sp, #216]
 402 038e 0599     		ldr	r1, [sp, #20]
 403 0390 06EA0A06 		and	r6, r6, r10
 404 0394 6940     		eors	r1, r1, r5
 405 0396 049D     		ldr	r5, [sp, #16]
 406 0398 01EA0B01 		and	r1, r1, fp
ARM GAS  /tmp/ccxnUvyY.s 			page 8


 407 039c 3D40     		ands	r5, r5, r7
 408 039e 059F     		ldr	r7, [sp, #20]
 409 03a0 7540     		eors	r5, r5, r6
 410 03a2 2740     		ands	r7, r7, r4
 411 03a4 5219     		adds	r2, r2, r5
 412 03a6 81EA0701 		eor	r1, r1, r7
 413 03aa 40EB0100 		adc	r0, r0, r1
 414 03ae 3F99     		ldr	r1, [sp, #252]
 415 03b0 3D9C     		ldr	r4, [sp, #244]
 416 03b2 CD18     		adds	r5, r1, r3
 417 03b4 4099     		ldr	r1, [sp, #256]
 418 03b6 4FEA9546 		lsr	r6, r5, #18
 419 03ba 41EB0801 		adc	r1, r1, r8
 420 03be 9B18     		adds	r3, r3, r2
 421 03c0 0693     		str	r3, [sp, #24]
 422 03c2 4FEA9132 		lsr	r2, r1, #14
 423 03c6 48EB0003 		adc	r3, r8, r0
 424 03ca 880C     		lsrs	r0, r1, #18
 425 03cc 40EA8530 		orr	r0, r0, r5, lsl #14
 426 03d0 42EA8542 		orr	r2, r2, r5, lsl #18
 427 03d4 4240     		eors	r2, r2, r0
 428 03d6 C805     		lsls	r0, r1, #23
 429 03d8 0793     		str	r3, [sp, #28]
 430 03da 40EA5520 		orr	r0, r0, r5, lsr #9
 431 03de AB0B     		lsrs	r3, r5, #14
 432 03e0 46EA8136 		orr	r6, r6, r1, lsl #14
 433 03e4 43EA8143 		orr	r3, r3, r1, lsl #18
 434 03e8 4FEAC55C 		lsl	ip, r5, #23
 435 03ec 4240     		eors	r2, r2, r0
 436 03ee 5A48     		ldr	r0, .L7+16
 437 03f0 4CEA512C 		orr	ip, ip, r1, lsr #9
 438 03f4 7340     		eors	r3, r3, r6
 439 03f6 83EA0C03 		eor	r3, r3, ip
 440 03fa 14EB000C 		adds	ip, r4, r0
 441 03fe 3E9C     		ldr	r4, [sp, #248]
 442 0400 5648     		ldr	r0, .L7+20
 443 0402 40EB0400 		adc	r0, r0, r4
 444 0406 319C     		ldr	r4, [sp, #196]
 445 0408 1CEB040C 		adds	ip, ip, r4
 446 040c 1A9C     		ldr	r4, [sp, #104]
 447 040e 44EB0000 		adc	r0, r4, r0
 448 0412 13EB0C03 		adds	r3, r3, ip
 449 0416 42EB0002 		adc	r2, r2, r0
 450 041a 1498     		ldr	r0, [sp, #80]
 451 041c 0C9C     		ldr	r4, [sp, #48]
 452 041e 20EA0507 		bic	r7, r0, r5
 453 0422 1598     		ldr	r0, [sp, #84]
 454 0424 0EEA050C 		and	ip, lr, r5
 455 0428 04EA0106 		and	r6, r4, r1
 456 042c 87EA0C0C 		eor	ip, r7, ip
 457 0430 20EA0100 		bic	r0, r0, r1
 458 0434 13EB0C03 		adds	r3, r3, ip
 459 0438 80EA0600 		eor	r0, r0, r6
 460 043c 42EB0002 		adc	r2, r2, r0
 461 0440 0698     		ldr	r0, [sp, #24]
 462 0442 069C     		ldr	r4, [sp, #24]
 463 0444 4FEA107C 		lsr	ip, r0, #28
ARM GAS  /tmp/ccxnUvyY.s 			page 9


 464 0448 0798     		ldr	r0, [sp, #28]
 465 044a 4CEA001C 		orr	ip, ip, r0, lsl #4
 466 044e 000F     		lsrs	r0, r0, #28
 467 0450 40EA0410 		orr	r0, r0, r4, lsl #4
 468 0454 079C     		ldr	r4, [sp, #28]
 469 0456 A607     		lsls	r6, r4, #30
 470 0458 069C     		ldr	r4, [sp, #24]
 471 045a 46EA9406 		orr	r6, r6, r4, lsr #2
 472 045e A707     		lsls	r7, r4, #30
 473 0460 079C     		ldr	r4, [sp, #28]
 474 0462 7040     		eors	r0, r0, r6
 475 0464 47EA9407 		orr	r7, r7, r4, lsr #2
 476 0468 6606     		lsls	r6, r4, #25
 477 046a 069C     		ldr	r4, [sp, #24]
 478 046c 8CEA070C 		eor	ip, ip, r7
 479 0470 46EAD416 		orr	r6, r6, r4, lsr #7
 480 0474 6706     		lsls	r7, r4, #25
 481 0476 079C     		ldr	r4, [sp, #28]
 482 0478 7040     		eors	r0, r0, r6
 483 047a 47EAD417 		orr	r7, r7, r4, lsr #7
 484 047e 049C     		ldr	r4, [sp, #16]
 485 0480 8CEA070C 		eor	ip, ip, r7
 486 0484 84EA0A08 		eor	r8, r4, r10
 487 0488 059C     		ldr	r4, [sp, #20]
 488 048a 84EA0B06 		eor	r6, r4, fp
 489 048e 069C     		ldr	r4, [sp, #24]
 490 0490 08EA0408 		and	r8, r8, r4
 491 0494 079C     		ldr	r4, [sp, #28]
 492 0496 2640     		ands	r6, r6, r4
 493 0498 049C     		ldr	r4, [sp, #16]
 494 049a 04EA0A07 		and	r7, r4, r10
 495 049e 059C     		ldr	r4, [sp, #20]
 496 04a0 88EA0707 		eor	r7, r8, r7
 497 04a4 04EA0B09 		and	r9, r4, fp
 498 04a8 1CEB0707 		adds	r7, ip, r7
 499 04ac 86EA0906 		eor	r6, r6, r9
 500 04b0 40EB0606 		adc	r6, r0, r6
 501 04b4 3598     		ldr	r0, [sp, #212]
 502 04b6 149C     		ldr	r4, [sp, #80]
 503 04b8 10EB030C 		adds	ip, r0, r3
 504 04bc 3698     		ldr	r0, [sp, #216]
 505 04be 2EEA0C09 		bic	r9, lr, ip
 506 04c2 40EB0200 		adc	r0, r0, r2
 507 04c6 DB19     		adds	r3, r3, r7
 508 04c8 0893     		str	r3, [sp, #32]
 509 04ca 42EB0603 		adc	r3, r2, r6
 510 04ce 0993     		str	r3, [sp, #36]
 511 04d0 860C     		lsrs	r6, r0, #18
 512 04d2 830B     		lsrs	r3, r0, #14
 513 04d4 46EA8C36 		orr	r6, r6, ip, lsl #14
 514 04d8 43EA8C43 		orr	r3, r3, ip, lsl #18
 515 04dc 4FEA9C32 		lsr	r2, ip, #14
 516 04e0 4FEA9C47 		lsr	r7, ip, #18
 517 04e4 7340     		eors	r3, r3, r6
 518 04e6 C605     		lsls	r6, r0, #23
 519 04e8 47EA8037 		orr	r7, r7, r0, lsl #14
 520 04ec 46EA5C26 		orr	r6, r6, ip, lsr #9
ARM GAS  /tmp/ccxnUvyY.s 			page 10


 521 04f0 42EA8042 		orr	r2, r2, r0, lsl #18
 522 04f4 7A40     		eors	r2, r2, r7
 523 04f6 7340     		eors	r3, r3, r6
 524 04f8 4FEACC57 		lsl	r7, ip, #23
 525 04fc 184E     		ldr	r6, .L7+24
 526 04fe 47EA5027 		orr	r7, r7, r0, lsr #9
 527 0502 A619     		adds	r6, r4, r6
 528 0504 82EA0702 		eor	r2, r2, r7
 529 0508 159C     		ldr	r4, [sp, #84]
 530 050a 164F     		ldr	r7, .L7+28
 531 050c 01EA0008 		and	r8, r1, r0
 532 0510 47EB0407 		adc	r7, r7, r4
 533 0514 329C     		ldr	r4, [sp, #200]
 534 0516 3619     		adds	r6, r6, r4
 535 0518 1B9C     		ldr	r4, [sp, #108]
 536 051a 44EB0707 		adc	r7, r4, r7
 537 051e 0C9C     		ldr	r4, [sp, #48]
 538 0520 9219     		adds	r2, r2, r6
 539 0522 43EB0703 		adc	r3, r3, r7
 540 0526 05EA0C06 		and	r6, r5, ip
 541 052a 24EA0007 		bic	r7, r4, r0
 542 052e 089C     		ldr	r4, [sp, #32]
 543 0530 89EA0606 		eor	r6, r9, r6
 544 0534 9219     		adds	r2, r2, r6
 545 0536 4FEA1476 		lsr	r6, r4, #28
 546 053a 099C     		ldr	r4, [sp, #36]
 547 053c 87EA0807 		eor	r7, r7, r8
 548 0540 43EB0703 		adc	r3, r3, r7
 549 0544 10E0     		b	.L8
 550              	.L9:
 551 0546 00BF     		.align	2
 552              	.L7:
 553 0548 22AE28D7 		.word	-685199838
 554 054c 982F8A42 		.word	1116352408
 555 0550 CD65EF23 		.word	602891725
 556 0554 91443771 		.word	1899447441
 557 0558 2F3B4DEC 		.word	-330482897
 558 055c CFFBC0B5 		.word	-1245643825
 559 0560 BCDB8981 		.word	-2121671748
 560 0564 A5DBB5E9 		.word	-373957723
 561              	.L8:
 562 0568 46EA0416 		orr	r6, r6, r4, lsl #4
 563 056c 270F     		lsrs	r7, r4, #28
 564 056e 089C     		ldr	r4, [sp, #32]
 565 0570 47EA0417 		orr	r7, r7, r4, lsl #4
 566 0574 099C     		ldr	r4, [sp, #36]
 567 0576 4FEA8478 		lsl	r8, r4, #30
 568 057a 089C     		ldr	r4, [sp, #32]
 569 057c 48EA9408 		orr	r8, r8, r4, lsr #2
 570 0580 4FEA8479 		lsl	r9, r4, #30
 571 0584 099C     		ldr	r4, [sp, #36]
 572 0586 87EA0807 		eor	r7, r7, r8
 573 058a 49EA9409 		orr	r9, r9, r4, lsr #2
 574 058e 4FEA4468 		lsl	r8, r4, #25
 575 0592 089C     		ldr	r4, [sp, #32]
 576 0594 86EA0906 		eor	r6, r6, r9
 577 0598 48EAD418 		orr	r8, r8, r4, lsr #7
ARM GAS  /tmp/ccxnUvyY.s 			page 11


 578 059c 4FEA4469 		lsl	r9, r4, #25
 579 05a0 099C     		ldr	r4, [sp, #36]
 580 05a2 87EA0807 		eor	r7, r7, r8
 581 05a6 49EAD419 		orr	r9, r9, r4, lsr #7
 582 05aa 069C     		ldr	r4, [sp, #24]
 583 05ac 86EA0906 		eor	r6, r6, r9
 584 05b0 8AEA0409 		eor	r9, r10, r4
 585 05b4 079C     		ldr	r4, [sp, #28]
 586 05b6 8BEA0408 		eor	r8, fp, r4
 587 05ba 089C     		ldr	r4, [sp, #32]
 588 05bc 09EA0404 		and	r4, r9, r4
 589 05c0 0A94     		str	r4, [sp, #40]
 590 05c2 099C     		ldr	r4, [sp, #36]
 591 05c4 08EA0408 		and	r8, r8, r4
 592 05c8 069C     		ldr	r4, [sp, #24]
 593 05ca 0AEA0409 		and	r9, r10, r4
 594 05ce 079C     		ldr	r4, [sp, #28]
 595 05d0 0BEA0404 		and	r4, fp, r4
 596 05d4 0B94     		str	r4, [sp, #44]
 597 05d6 0A9C     		ldr	r4, [sp, #40]
 598 05d8 84EA0909 		eor	r9, r4, r9
 599 05dc 0B9C     		ldr	r4, [sp, #44]
 600 05de 16EB0909 		adds	r9, r6, r9
 601 05e2 88EA0408 		eor	r8, r8, r4
 602 05e6 049C     		ldr	r4, [sp, #16]
 603 05e8 47EB0808 		adc	r8, r7, r8
 604 05ec A718     		adds	r7, r4, r2
 605 05ee 059C     		ldr	r4, [sp, #20]
 606 05f0 44EB0304 		adc	r4, r4, r3
 607 05f4 12EB0902 		adds	r2, r2, r9
 608 05f8 43EB0803 		adc	r3, r3, r8
 609 05fc 0A92     		str	r2, [sp, #40]
 610 05fe 0B93     		str	r3, [sp, #44]
 611 0600 4FEA9738 		lsr	r8, r7, #14
 612 0604 4FEA9439 		lsr	r9, r4, #14
 613 0608 BB0C     		lsrs	r3, r7, #18
 614 060a A20C     		lsrs	r2, r4, #18
 615 060c 48EA8448 		orr	r8, r8, r4, lsl #18
 616 0610 42EA8732 		orr	r2, r2, r7, lsl #14
 617 0614 49EA8749 		orr	r9, r9, r7, lsl #18
 618 0618 43EA8433 		orr	r3, r3, r4, lsl #14
 619 061c 88EA0303 		eor	r3, r8, r3
 620 0620 89EA0209 		eor	r9, r9, r2
 621 0624 4FEAC758 		lsl	r8, r7, #23
 622 0628 E205     		lsls	r2, r4, #23
 623 062a 42EA5722 		orr	r2, r2, r7, lsr #9
 624 062e 48EA5428 		orr	r8, r8, r4, lsr #9
 625 0632 83EA0808 		eor	r8, r3, r8
 626 0636 89EA0209 		eor	r9, r9, r2
 627 063a 339B     		ldr	r3, [sp, #204]
 628 063c D04A     		ldr	r2, .L10
 629 063e 0E94     		str	r4, [sp, #56]
 630 0640 9A18     		adds	r2, r3, r2
 631 0642 1C9C     		ldr	r4, [sp, #112]
 632 0644 CF4B     		ldr	r3, .L10+4
 633 0646 0E9E     		ldr	r6, [sp, #56]
 634 0648 43EB0403 		adc	r3, r3, r4
ARM GAS  /tmp/ccxnUvyY.s 			page 12


 635 064c 1C46     		mov	r4, r3
 636 064e 12EB0E03 		adds	r3, r2, lr
 637 0652 2246     		mov	r2, r4
 638 0654 0C9C     		ldr	r4, [sp, #48]
 639 0656 44EB0204 		adc	r4, r4, r2
 640 065a 0E9A     		ldr	r2, [sp, #56]
 641 065c 18EB0303 		adds	r3, r8, r3
 642 0660 49EB0404 		adc	r4, r9, r4
 643 0664 21EA020E 		bic	lr, r1, r2
 644 0668 25EA0709 		bic	r9, r5, r7
 645 066c 0CEA0702 		and	r2, ip, r7
 646 0670 89EA0202 		eor	r2, r9, r2
 647 0674 9B18     		adds	r3, r3, r2
 648 0676 0A9A     		ldr	r2, [sp, #40]
 649 0678 00EA0608 		and	r8, r0, r6
 650 067c 8EEA080E 		eor	lr, lr, r8
 651 0680 4FEA1278 		lsr	r8, r2, #28
 652 0684 0B9A     		ldr	r2, [sp, #44]
 653 0686 0A9E     		ldr	r6, [sp, #40]
 654 0688 48EA0218 		orr	r8, r8, r2, lsl #4
 655 068c 4FEA1272 		lsr	r2, r2, #28
 656 0690 42EA0612 		orr	r2, r2, r6, lsl #4
 657 0694 0B9E     		ldr	r6, [sp, #44]
 658 0696 44EB0E04 		adc	r4, r4, lr
 659 069a 4FEA867E 		lsl	lr, r6, #30
 660 069e 0A9E     		ldr	r6, [sp, #40]
 661 06a0 4EEA960E 		orr	lr, lr, r6, lsr #2
 662 06a4 4FEA8679 		lsl	r9, r6, #30
 663 06a8 0B9E     		ldr	r6, [sp, #44]
 664 06aa 82EA0E02 		eor	r2, r2, lr
 665 06ae 49EA9609 		orr	r9, r9, r6, lsr #2
 666 06b2 4FEA466E 		lsl	lr, r6, #25
 667 06b6 0A9E     		ldr	r6, [sp, #40]
 668 06b8 88EA0908 		eor	r8, r8, r9
 669 06bc 4EEAD61E 		orr	lr, lr, r6, lsr #7
 670 06c0 4FEA4669 		lsl	r9, r6, #25
 671 06c4 0B9E     		ldr	r6, [sp, #44]
 672 06c6 82EA0E02 		eor	r2, r2, lr
 673 06ca 49EAD619 		orr	r9, r9, r6, lsr #7
 674 06ce 0C92     		str	r2, [sp, #48]
 675 06d0 069E     		ldr	r6, [sp, #24]
 676 06d2 089A     		ldr	r2, [sp, #32]
 677 06d4 88EA0908 		eor	r8, r8, r9
 678 06d8 86EA020E 		eor	lr, r6, r2
 679 06dc 079A     		ldr	r2, [sp, #28]
 680 06de 099E     		ldr	r6, [sp, #36]
 681 06e0 82EA0609 		eor	r9, r2, r6
 682 06e4 0A9A     		ldr	r2, [sp, #40]
 683 06e6 089E     		ldr	r6, [sp, #32]
 684 06e8 0EEA020E 		and	lr, lr, r2
 685 06ec 0B9A     		ldr	r2, [sp, #44]
 686 06ee 09EA0202 		and	r2, r9, r2
 687 06f2 0D92     		str	r2, [sp, #52]
 688 06f4 069A     		ldr	r2, [sp, #24]
 689 06f6 3240     		ands	r2, r2, r6
 690 06f8 0F92     		str	r2, [sp, #60]
 691 06fa 079A     		ldr	r2, [sp, #28]
ARM GAS  /tmp/ccxnUvyY.s 			page 13


 692 06fc 099E     		ldr	r6, [sp, #36]
 693 06fe 02EA0609 		and	r9, r2, r6
 694 0702 0F9A     		ldr	r2, [sp, #60]
 695 0704 379E     		ldr	r6, [sp, #220]
 696 0706 8EEA020E 		eor	lr, lr, r2
 697 070a 0D9A     		ldr	r2, [sp, #52]
 698 070c 18EB0E0E 		adds	lr, r8, lr
 699 0710 82EA0909 		eor	r9, r2, r9
 700 0714 0C9A     		ldr	r2, [sp, #48]
 701 0716 42EB0909 		adc	r9, r2, r9
 702 071a 1AEB030A 		adds	r10, r10, r3
 703 071e 4BEB040B 		adc	fp, fp, r4
 704 0722 13EB0E03 		adds	r3, r3, lr
 705 0726 0C93     		str	r3, [sp, #48]
 706 0728 44EB0903 		adc	r3, r4, r9
 707 072c 0D93     		str	r3, [sp, #52]
 708 072e 4FEA9A32 		lsr	r2, r10, #14
 709 0732 4FEA9A43 		lsr	r3, r10, #18
 710 0736 43EA8B33 		orr	r3, r3, fp, lsl #14
 711 073a 42EA8B42 		orr	r2, r2, fp, lsl #18
 712 073e 4FEA9B34 		lsr	r4, fp, #14
 713 0742 4FEA9B4E 		lsr	lr, fp, #18
 714 0746 5A40     		eors	r2, r2, r3
 715 0748 4FEACA53 		lsl	r3, r10, #23
 716 074c 4EEA8A3E 		orr	lr, lr, r10, lsl #14
 717 0750 43EA5B23 		orr	r3, r3, fp, lsr #9
 718 0754 44EA8A44 		orr	r4, r4, r10, lsl #18
 719 0758 5A40     		eors	r2, r2, r3
 720 075a 84EA0E04 		eor	r4, r4, lr
 721 075e 8A4B     		ldr	r3, .L10+8
 722 0760 4FEACB5E 		lsl	lr, fp, #23
 723 0764 4EEA5A2E 		orr	lr, lr, r10, lsr #9
 724 0768 F318     		adds	r3, r6, r3
 725 076a 84EA0E04 		eor	r4, r4, lr
 726 076e 1D9E     		ldr	r6, [sp, #116]
 727 0770 DFF828E2 		ldr	lr, .L10+28
 728 0774 4EEB060E 		adc	lr, lr, r6
 729 0778 5D19     		adds	r5, r3, r5
 730 077a 41EB0E01 		adc	r1, r1, lr
 731 077e 5519     		adds	r5, r2, r5
 732 0780 44EB0101 		adc	r1, r4, r1
 733 0784 0E9C     		ldr	r4, [sp, #56]
 734 0786 2CEA0A0E 		bic	lr, ip, r10
 735 078a 07EA0A03 		and	r3, r7, r10
 736 078e 20EA0B02 		bic	r2, r0, fp
 737 0792 04EA0B04 		and	r4, r4, fp
 738 0796 8EEA0303 		eor	r3, lr, r3
 739 079a EB18     		adds	r3, r5, r3
 740 079c 82EA0402 		eor	r2, r2, r4
 741 07a0 41EB0201 		adc	r1, r1, r2
 742 07a4 0C9A     		ldr	r2, [sp, #48]
 743 07a6 0D9C     		ldr	r4, [sp, #52]
 744 07a8 120F     		lsrs	r2, r2, #28
 745 07aa 42EA0412 		orr	r2, r2, r4, lsl #4
 746 07ae 4FEA147E 		lsr	lr, r4, #28
 747 07b2 0C9C     		ldr	r4, [sp, #48]
 748 07b4 0C9D     		ldr	r5, [sp, #48]
ARM GAS  /tmp/ccxnUvyY.s 			page 14


 749 07b6 4EEA041E 		orr	lr, lr, r4, lsl #4
 750 07ba 0D9C     		ldr	r4, [sp, #52]
 751 07bc 0D9E     		ldr	r6, [sp, #52]
 752 07be A407     		lsls	r4, r4, #30
 753 07c0 44EA9504 		orr	r4, r4, r5, lsr #2
 754 07c4 AD07     		lsls	r5, r5, #30
 755 07c6 45EA9605 		orr	r5, r5, r6, lsr #2
 756 07ca 6A40     		eors	r2, r2, r5
 757 07cc 0C9D     		ldr	r5, [sp, #48]
 758 07ce 8EEA040E 		eor	lr, lr, r4
 759 07d2 7406     		lsls	r4, r6, #25
 760 07d4 44EAD514 		orr	r4, r4, r5, lsr #7
 761 07d8 6D06     		lsls	r5, r5, #25
 762 07da 45EAD615 		orr	r5, r5, r6, lsr #7
 763 07de 6A40     		eors	r2, r2, r5
 764 07e0 8EEA040E 		eor	lr, lr, r4
 765 07e4 0A9D     		ldr	r5, [sp, #40]
 766 07e6 089C     		ldr	r4, [sp, #32]
 767 07e8 0F92     		str	r2, [sp, #60]
 768 07ea 84EA0508 		eor	r8, r4, r5
 769 07ee 0B9D     		ldr	r5, [sp, #44]
 770 07f0 099C     		ldr	r4, [sp, #36]
 771 07f2 0B9A     		ldr	r2, [sp, #44]
 772 07f4 6C40     		eors	r4, r4, r5
 773 07f6 0C9D     		ldr	r5, [sp, #48]
 774 07f8 3440     		ands	r4, r4, r6
 775 07fa 08EA0508 		and	r8, r8, r5
 776 07fe 0A9E     		ldr	r6, [sp, #40]
 777 0800 089D     		ldr	r5, [sp, #32]
 778 0802 3540     		ands	r5, r5, r6
 779 0804 099E     		ldr	r6, [sp, #36]
 780 0806 88EA0505 		eor	r5, r8, r5
 781 080a 06EA0209 		and	r9, r6, r2
 782 080e 0F9A     		ldr	r2, [sp, #60]
 783 0810 84EA0904 		eor	r4, r4, r9
 784 0814 5219     		adds	r2, r2, r5
 785 0816 4EEB040E 		adc	lr, lr, r4
 786 081a 069C     		ldr	r4, [sp, #24]
 787 081c E518     		adds	r5, r4, r3
 788 081e 079C     		ldr	r4, [sp, #28]
 789 0820 44EB0108 		adc	r8, r4, r1
 790 0824 9B18     		adds	r3, r3, r2
 791 0826 0693     		str	r3, [sp, #24]
 792 0828 41EB0E03 		adc	r3, r1, lr
 793 082c AC0C     		lsrs	r4, r5, #18
 794 082e 4FEA9842 		lsr	r2, r8, #18
 795 0832 0793     		str	r3, [sp, #28]
 796 0834 4FEA9831 		lsr	r1, r8, #14
 797 0838 AB0B     		lsrs	r3, r5, #14
 798 083a 43EA8843 		orr	r3, r3, r8, lsl #18
 799 083e 41EA8541 		orr	r1, r1, r5, lsl #18
 800 0842 44EA8839 		orr	r9, r4, r8, lsl #14
 801 0846 42EA853E 		orr	lr, r2, r5, lsl #14
 802 084a 83EA0904 		eor	r4, r3, r9
 803 084e 81EA0E02 		eor	r2, r1, lr
 804 0852 EB05     		lsls	r3, r5, #23
 805 0854 4FEAC851 		lsl	r1, r8, #23
ARM GAS  /tmp/ccxnUvyY.s 			page 15


 806 0858 41EA5521 		orr	r1, r1, r5, lsr #9
 807 085c 43EA5823 		orr	r3, r3, r8, lsr #9
 808 0860 6340     		eors	r3, r3, r4
 809 0862 5140     		eors	r1, r1, r2
 810 0864 494C     		ldr	r4, .L10+12
 811 0866 389A     		ldr	r2, [sp, #224]
 812 0868 1E9E     		ldr	r6, [sp, #120]
 813 086a 1419     		adds	r4, r2, r4
 814 086c 484A     		ldr	r2, .L10+16
 815 086e 42EB0602 		adc	r2, r2, r6
 816 0872 14EB0C04 		adds	r4, r4, ip
 817 0876 40EB0202 		adc	r2, r0, r2
 818 087a 1C19     		adds	r4, r3, r4
 819 087c 0E9B     		ldr	r3, [sp, #56]
 820 087e 41EB0202 		adc	r2, r1, r2
 821 0882 23EA0800 		bic	r0, r3, r8
 822 0886 27EA0501 		bic	r1, r7, r5
 823 088a 0BEA0803 		and	r3, fp, r8
 824 088e 0AEA050C 		and	ip, r10, r5
 825 0892 81EA0C0C 		eor	ip, r1, ip
 826 0896 5840     		eors	r0, r0, r3
 827 0898 069B     		ldr	r3, [sp, #24]
 828 089a 14EB0C04 		adds	r4, r4, ip
 829 089e 0799     		ldr	r1, [sp, #28]
 830 08a0 42EB0002 		adc	r2, r2, r0
 831 08a4 1B0F     		lsrs	r3, r3, #28
 832 08a6 0698     		ldr	r0, [sp, #24]
 833 08a8 43EA0113 		orr	r3, r3, r1, lsl #4
 834 08ac 090F     		lsrs	r1, r1, #28
 835 08ae 41EA0011 		orr	r1, r1, r0, lsl #4
 836 08b2 0798     		ldr	r0, [sp, #28]
 837 08b4 069E     		ldr	r6, [sp, #24]
 838 08b6 8007     		lsls	r0, r0, #30
 839 08b8 40EA9600 		orr	r0, r0, r6, lsr #2
 840 08bc 4FEA867C 		lsl	ip, r6, #30
 841 08c0 079E     		ldr	r6, [sp, #28]
 842 08c2 4140     		eors	r1, r1, r0
 843 08c4 4CEA960C 		orr	ip, ip, r6, lsr #2
 844 08c8 7006     		lsls	r0, r6, #25
 845 08ca 069E     		ldr	r6, [sp, #24]
 846 08cc 83EA0C03 		eor	r3, r3, ip
 847 08d0 40EAD610 		orr	r0, r0, r6, lsr #7
 848 08d4 4FEA466C 		lsl	ip, r6, #25
 849 08d8 079E     		ldr	r6, [sp, #28]
 850 08da 4140     		eors	r1, r1, r0
 851 08dc 4CEAD61C 		orr	ip, ip, r6, lsr #7
 852 08e0 0A98     		ldr	r0, [sp, #40]
 853 08e2 0C9E     		ldr	r6, [sp, #48]
 854 08e4 83EA0C03 		eor	r3, r3, ip
 855 08e8 80EA060E 		eor	lr, r0, r6
 856 08ec 0D9E     		ldr	r6, [sp, #52]
 857 08ee 0B98     		ldr	r0, [sp, #44]
 858 08f0 0F93     		str	r3, [sp, #60]
 859 08f2 7040     		eors	r0, r0, r6
 860 08f4 069E     		ldr	r6, [sp, #24]
 861 08f6 0C9B     		ldr	r3, [sp, #48]
 862 08f8 0EEA060E 		and	lr, lr, r6
ARM GAS  /tmp/ccxnUvyY.s 			page 16


 863 08fc 079E     		ldr	r6, [sp, #28]
 864 08fe 3040     		ands	r0, r0, r6
 865 0900 0A9E     		ldr	r6, [sp, #40]
 866 0902 06EA030C 		and	ip, r6, r3
 867 0906 0B9B     		ldr	r3, [sp, #44]
 868 0908 0D9E     		ldr	r6, [sp, #52]
 869 090a 8EEA0C0C 		eor	ip, lr, ip
 870 090e 03EA0609 		and	r9, r3, r6
 871 0912 0F9B     		ldr	r3, [sp, #60]
 872 0914 80EA0900 		eor	r0, r0, r9
 873 0918 13EB0C03 		adds	r3, r3, ip
 874 091c 41EB0000 		adc	r0, r1, r0
 875 0920 0899     		ldr	r1, [sp, #32]
 876 0922 11EB040C 		adds	ip, r1, r4
 877 0926 0999     		ldr	r1, [sp, #36]
 878 0928 41EB020E 		adc	lr, r1, r2
 879 092c 4FEA9E31 		lsr	r1, lr, #14
 880 0930 E318     		adds	r3, r4, r3
 881 0932 0893     		str	r3, [sp, #32]
 882 0934 41EA8C49 		orr	r9, r1, ip, lsl #18
 883 0938 42EB0003 		adc	r3, r2, r0
 884 093c 4FEA9C44 		lsr	r4, ip, #18
 885 0940 4FEA9E41 		lsr	r1, lr, #18
 886 0944 4FEA9C32 		lsr	r2, ip, #14
 887 0948 0993     		str	r3, [sp, #36]
 888 094a 42EA8E42 		orr	r2, r2, lr, lsl #18
 889 094e 44EA8E30 		orr	r0, r4, lr, lsl #14
 890 0952 41EA8C33 		orr	r3, r1, ip, lsl #14
 891 0956 89EA0301 		eor	r1, r9, r3
 892 095a 82EA0004 		eor	r4, r2, r0
 893 095e 4FEACE53 		lsl	r3, lr, #23
 894 0962 4FEACC50 		lsl	r0, ip, #23
 895 0966 40EA5E20 		orr	r0, r0, lr, lsr #9
 896 096a 43EA5C23 		orr	r3, r3, ip, lsr #9
 897 096e 84EA0002 		eor	r2, r4, r0
 898 0972 4B40     		eors	r3, r3, r1
 899 0974 0748     		ldr	r0, .L10+20
 900 0976 3999     		ldr	r1, [sp, #228]
 901 0978 074C     		ldr	r4, .L10+24
 902 097a 0818     		adds	r0, r1, r0
 903 097c 10E0     		b	.L11
 904              	.L12:
 905 097e 00BF     		.align	2
 906              	.L10:
 907 0980 38B548F3 		.word	-213338824
 908 0984 5BC25639 		.word	961987163
 909 0988 19D005B6 		.word	-1241133031
 910 098c 9B4F19AF 		.word	-1357295717
 911 0990 A4823F92 		.word	-1841331548
 912 0994 18816DDA 		.word	-630357736
 913 0998 D55E1CAB 		.word	-1424204075
 914 099c F111F159 		.word	1508970993
 915              	.L11:
 916 09a0 1F99     		ldr	r1, [sp, #124]
 917 09a2 41EB0401 		adc	r1, r1, r4
 918 09a6 0E9C     		ldr	r4, [sp, #56]
 919 09a8 C019     		adds	r0, r0, r7
ARM GAS  /tmp/ccxnUvyY.s 			page 17


 920 09aa 44EB0106 		adc	r6, r4, r1
 921 09ae 05EA0C07 		and	r7, r5, ip
 922 09b2 2AEA0C01 		bic	r1, r10, ip
 923 09b6 1018     		adds	r0, r2, r0
 924 09b8 43EB0606 		adc	r6, r3, r6
 925 09bc 2BEA0E02 		bic	r2, fp, lr
 926 09c0 08EA0E03 		and	r3, r8, lr
 927 09c4 4F40     		eors	r7, r7, r1
 928 09c6 C019     		adds	r0, r0, r7
 929 09c8 83EA0203 		eor	r3, r3, r2
 930 09cc 46EB0306 		adc	r6, r6, r3
 931 09d0 089B     		ldr	r3, [sp, #32]
 932 09d2 0899     		ldr	r1, [sp, #32]
 933 09d4 1A0F     		lsrs	r2, r3, #28
 934 09d6 099B     		ldr	r3, [sp, #36]
 935 09d8 42EA0312 		orr	r2, r2, r3, lsl #4
 936 09dc 1B0F     		lsrs	r3, r3, #28
 937 09de 43EA0113 		orr	r3, r3, r1, lsl #4
 938 09e2 0999     		ldr	r1, [sp, #36]
 939 09e4 089C     		ldr	r4, [sp, #32]
 940 09e6 099F     		ldr	r7, [sp, #36]
 941 09e8 8907     		lsls	r1, r1, #30
 942 09ea 41EA9401 		orr	r1, r1, r4, lsr #2
 943 09ee A407     		lsls	r4, r4, #30
 944 09f0 44EA9704 		orr	r4, r4, r7, lsr #2
 945 09f4 6240     		eors	r2, r2, r4
 946 09f6 089C     		ldr	r4, [sp, #32]
 947 09f8 4B40     		eors	r3, r3, r1
 948 09fa 7906     		lsls	r1, r7, #25
 949 09fc 41EAD411 		orr	r1, r1, r4, lsr #7
 950 0a00 6406     		lsls	r4, r4, #25
 951 0a02 44EAD714 		orr	r4, r4, r7, lsr #7
 952 0a06 6240     		eors	r2, r2, r4
 953 0a08 4B40     		eors	r3, r3, r1
 954 0a0a 069C     		ldr	r4, [sp, #24]
 955 0a0c 0C99     		ldr	r1, [sp, #48]
 956 0a0e 0F93     		str	r3, [sp, #60]
 957 0a10 81EA0407 		eor	r7, r1, r4
 958 0a14 079C     		ldr	r4, [sp, #28]
 959 0a16 0D99     		ldr	r1, [sp, #52]
 960 0a18 069B     		ldr	r3, [sp, #24]
 961 0a1a 6140     		eors	r1, r1, r4
 962 0a1c 089C     		ldr	r4, [sp, #32]
 963 0a1e 0E92     		str	r2, [sp, #56]
 964 0a20 2740     		ands	r7, r7, r4
 965 0a22 099C     		ldr	r4, [sp, #36]
 966 0a24 079A     		ldr	r2, [sp, #28]
 967 0a26 2140     		ands	r1, r1, r4
 968 0a28 0C9C     		ldr	r4, [sp, #48]
 969 0a2a 1C40     		ands	r4, r4, r3
 970 0a2c 0D9B     		ldr	r3, [sp, #52]
 971 0a2e 7C40     		eors	r4, r4, r7
 972 0a30 03EA0209 		and	r9, r3, r2
 973 0a34 0E9B     		ldr	r3, [sp, #56]
 974 0a36 81EA0901 		eor	r1, r1, r9
 975 0a3a 1A19     		adds	r2, r3, r4
 976 0a3c 0F9B     		ldr	r3, [sp, #60]
ARM GAS  /tmp/ccxnUvyY.s 			page 18


 977 0a3e 43EB0101 		adc	r1, r3, r1
 978 0a42 0A9B     		ldr	r3, [sp, #40]
 979 0a44 13EB0009 		adds	r9, r3, r0
 980 0a48 0B9B     		ldr	r3, [sp, #44]
 981 0a4a 4FEA9934 		lsr	r4, r9, #14
 982 0a4e 43EB0603 		adc	r3, r3, r6
 983 0a52 8218     		adds	r2, r0, r2
 984 0a54 0A92     		str	r2, [sp, #40]
 985 0a56 46EB0102 		adc	r2, r6, r1
 986 0a5a 0B92     		str	r2, [sp, #44]
 987 0a5c 4FEA9942 		lsr	r2, r9, #18
 988 0a60 42EA8332 		orr	r2, r2, r3, lsl #14
 989 0a64 44EA8344 		orr	r4, r4, r3, lsl #18
 990 0a68 990C     		lsrs	r1, r3, #18
 991 0a6a 9E0B     		lsrs	r6, r3, #14
 992 0a6c 5440     		eors	r4, r4, r2
 993 0a6e 4FEAC952 		lsl	r2, r9, #23
 994 0a72 46EA8946 		orr	r6, r6, r9, lsl #18
 995 0a76 41EA8930 		orr	r0, r1, r9, lsl #14
 996 0a7a 42EA5322 		orr	r2, r2, r3, lsr #9
 997 0a7e 86EA0001 		eor	r1, r6, r0
 998 0a82 5440     		eors	r4, r4, r2
 999 0a84 DE05     		lsls	r6, r3, #23
 1000 0a86 3A9A     		ldr	r2, [sp, #232]
 1001 0a88 D048     		ldr	r0, .L13
 1002 0a8a 46EA5926 		orr	r6, r6, r9, lsr #9
 1003 0a8e 1018     		adds	r0, r2, r0
 1004 0a90 86EA0106 		eor	r6, r6, r1
 1005 0a94 209A     		ldr	r2, [sp, #128]
 1006 0a96 CE49     		ldr	r1, .L13+4
 1007 0a98 0A9F     		ldr	r7, [sp, #40]
 1008 0a9a 41EB0201 		adc	r1, r1, r2
 1009 0a9e 10EB0A02 		adds	r2, r0, r10
 1010 0aa2 4BEB0101 		adc	r1, fp, r1
 1011 0aa6 A418     		adds	r4, r4, r2
 1012 0aa8 0EEA0300 		and	r0, lr, r3
 1013 0aac 46EB0101 		adc	r1, r6, r1
 1014 0ab0 25EA0902 		bic	r2, r5, r9
 1015 0ab4 0CEA0906 		and	r6, ip, r9
 1016 0ab8 28EA030B 		bic	fp, r8, r3
 1017 0abc 8BEA000B 		eor	fp, fp, r0
 1018 0ac0 7240     		eors	r2, r2, r6
 1019 0ac2 0A98     		ldr	r0, [sp, #40]
 1020 0ac4 A218     		adds	r2, r4, r2
 1021 0ac6 0B9C     		ldr	r4, [sp, #44]
 1022 0ac8 0A9E     		ldr	r6, [sp, #40]
 1023 0aca 4FEA1070 		lsr	r0, r0, #28
 1024 0ace 40EA0410 		orr	r0, r0, r4, lsl #4
 1025 0ad2 4FEA1474 		lsr	r4, r4, #28
 1026 0ad6 44EA0614 		orr	r4, r4, r6, lsl #4
 1027 0ada 0B9E     		ldr	r6, [sp, #44]
 1028 0adc 0E92     		str	r2, [sp, #56]
 1029 0ade 4FEA8676 		lsl	r6, r6, #30
 1030 0ae2 0B9A     		ldr	r2, [sp, #44]
 1031 0ae4 46EA9706 		orr	r6, r6, r7, lsr #2
 1032 0ae8 4FEA8777 		lsl	r7, r7, #30
 1033 0aec 47EA9207 		orr	r7, r7, r2, lsr #2
ARM GAS  /tmp/ccxnUvyY.s 			page 19


 1034 0af0 84EA0604 		eor	r4, r4, r6
 1035 0af4 4FEA4266 		lsl	r6, r2, #25
 1036 0af8 0A9A     		ldr	r2, [sp, #40]
 1037 0afa 80EA0700 		eor	r0, r0, r7
 1038 0afe 46EAD216 		orr	r6, r6, r2, lsr #7
 1039 0b02 4FEA4267 		lsl	r7, r2, #25
 1040 0b06 0B9A     		ldr	r2, [sp, #44]
 1041 0b08 84EA0604 		eor	r4, r4, r6
 1042 0b0c 47EAD217 		orr	r7, r7, r2, lsr #7
 1043 0b10 80EA0702 		eor	r2, r0, r7
 1044 0b14 089E     		ldr	r6, [sp, #32]
 1045 0b16 0F92     		str	r2, [sp, #60]
 1046 0b18 069A     		ldr	r2, [sp, #24]
 1047 0b1a 089F     		ldr	r7, [sp, #32]
 1048 0b1c 82EA060A 		eor	r10, r2, r6
 1049 0b20 079A     		ldr	r2, [sp, #28]
 1050 0b22 099E     		ldr	r6, [sp, #36]
 1051 0b24 0998     		ldr	r0, [sp, #36]
 1052 0b26 82EA0606 		eor	r6, r2, r6
 1053 0b2a 0A9A     		ldr	r2, [sp, #40]
 1054 0b2c 41EB0B01 		adc	r1, r1, fp
 1055 0b30 0AEA020A 		and	r10, r10, r2
 1056 0b34 0B9A     		ldr	r2, [sp, #44]
 1057 0b36 1640     		ands	r6, r6, r2
 1058 0b38 069A     		ldr	r2, [sp, #24]
 1059 0b3a 1740     		ands	r7, r7, r2
 1060 0b3c 079A     		ldr	r2, [sp, #28]
 1061 0b3e 8AEA0707 		eor	r7, r10, r7
 1062 0b42 02EA000B 		and	fp, r2, r0
 1063 0b46 0F9A     		ldr	r2, [sp, #60]
 1064 0b48 86EA0B06 		eor	r6, r6, fp
 1065 0b4c D019     		adds	r0, r2, r7
 1066 0b4e 44EB0606 		adc	r6, r4, r6
 1067 0b52 0C9A     		ldr	r2, [sp, #48]
 1068 0b54 0E9C     		ldr	r4, [sp, #56]
 1069 0b56 12EB040B 		adds	fp, r2, r4
 1070 0b5a 0D9A     		ldr	r2, [sp, #52]
 1071 0b5c 42EB010A 		adc	r10, r2, r1
 1072 0b60 2218     		adds	r2, r4, r0
 1073 0b62 0C92     		str	r2, [sp, #48]
 1074 0b64 41EB0602 		adc	r2, r1, r6
 1075 0b68 0D92     		str	r2, [sp, #52]
 1076 0b6a 4FEA9B30 		lsr	r0, fp, #14
 1077 0b6e 4FEA9A34 		lsr	r4, r10, #14
 1078 0b72 4FEA9B42 		lsr	r2, fp, #18
 1079 0b76 4FEA9A41 		lsr	r1, r10, #18
 1080 0b7a 42EA8A32 		orr	r2, r2, r10, lsl #14
 1081 0b7e 41EA8B31 		orr	r1, r1, fp, lsl #14
 1082 0b82 40EA8A40 		orr	r0, r0, r10, lsl #18
 1083 0b86 44EA8B44 		orr	r4, r4, fp, lsl #18
 1084 0b8a 5040     		eors	r0, r0, r2
 1085 0b8c 4C40     		eors	r4, r4, r1
 1086 0b8e 4FEACB52 		lsl	r2, fp, #23
 1087 0b92 4FEACA51 		lsl	r1, r10, #23
 1088 0b96 41EA5B21 		orr	r1, r1, fp, lsr #9
 1089 0b9a 42EA5A22 		orr	r2, r2, r10, lsr #9
 1090 0b9e 4C40     		eors	r4, r4, r1
ARM GAS  /tmp/ccxnUvyY.s 			page 20


 1091 0ba0 5040     		eors	r0, r0, r2
 1092 0ba2 8C49     		ldr	r1, .L13+8
 1093 0ba4 219A     		ldr	r2, [sp, #132]
 1094 0ba6 8C4E     		ldr	r6, .L13+12
 1095 0ba8 5118     		adds	r1, r2, r1
 1096 0baa 109A     		ldr	r2, [sp, #64]
 1097 0bac 46EB0206 		adc	r6, r6, r2
 1098 0bb0 4A19     		adds	r2, r1, r5
 1099 0bb2 48EB0608 		adc	r8, r8, r6
 1100 0bb6 8018     		adds	r0, r0, r2
 1101 0bb8 44EB0808 		adc	r8, r4, r8
 1102 0bbc 2CEA0B02 		bic	r2, ip, fp
 1103 0bc0 09EA0B04 		and	r4, r9, fp
 1104 0bc4 2EEA0A06 		bic	r6, lr, r10
 1105 0bc8 03EA0A01 		and	r1, r3, r10
 1106 0bcc 6240     		eors	r2, r2, r4
 1107 0bce 8218     		adds	r2, r0, r2
 1108 0bd0 81EA0601 		eor	r1, r1, r6
 1109 0bd4 48EB0108 		adc	r8, r8, r1
 1110 0bd8 0C99     		ldr	r1, [sp, #48]
 1111 0bda 0D98     		ldr	r0, [sp, #52]
 1112 0bdc 0C9C     		ldr	r4, [sp, #48]
 1113 0bde 090F     		lsrs	r1, r1, #28
 1114 0be0 41EA0011 		orr	r1, r1, r0, lsl #4
 1115 0be4 000F     		lsrs	r0, r0, #28
 1116 0be6 40EA0410 		orr	r0, r0, r4, lsl #4
 1117 0bea 0D9C     		ldr	r4, [sp, #52]
 1118 0bec 0C9D     		ldr	r5, [sp, #48]
 1119 0bee 0D9E     		ldr	r6, [sp, #52]
 1120 0bf0 A407     		lsls	r4, r4, #30
 1121 0bf2 44EA9504 		orr	r4, r4, r5, lsr #2
 1122 0bf6 AD07     		lsls	r5, r5, #30
 1123 0bf8 45EA9605 		orr	r5, r5, r6, lsr #2
 1124 0bfc 6940     		eors	r1, r1, r5
 1125 0bfe 0C9D     		ldr	r5, [sp, #48]
 1126 0c00 6040     		eors	r0, r0, r4
 1127 0c02 7406     		lsls	r4, r6, #25
 1128 0c04 44EAD514 		orr	r4, r4, r5, lsr #7
 1129 0c08 6D06     		lsls	r5, r5, #25
 1130 0c0a 45EAD615 		orr	r5, r5, r6, lsr #7
 1131 0c0e 6940     		eors	r1, r1, r5
 1132 0c10 6040     		eors	r0, r0, r4
 1133 0c12 0A9D     		ldr	r5, [sp, #40]
 1134 0c14 089C     		ldr	r4, [sp, #32]
 1135 0c16 0E91     		str	r1, [sp, #56]
 1136 0c18 84EA0506 		eor	r6, r4, r5
 1137 0c1c 099C     		ldr	r4, [sp, #36]
 1138 0c1e 0B9D     		ldr	r5, [sp, #44]
 1139 0c20 6C40     		eors	r4, r4, r5
 1140 0c22 0C9D     		ldr	r5, [sp, #48]
 1141 0c24 0A9F     		ldr	r7, [sp, #40]
 1142 0c26 2E40     		ands	r6, r6, r5
 1143 0c28 0D9D     		ldr	r5, [sp, #52]
 1144 0c2a 0B99     		ldr	r1, [sp, #44]
 1145 0c2c 2C40     		ands	r4, r4, r5
 1146 0c2e 089D     		ldr	r5, [sp, #32]
 1147 0c30 3D40     		ands	r5, r5, r7
ARM GAS  /tmp/ccxnUvyY.s 			page 21


 1148 0c32 099F     		ldr	r7, [sp, #36]
 1149 0c34 6E40     		eors	r6, r6, r5
 1150 0c36 0F40     		ands	r7, r7, r1
 1151 0c38 0E99     		ldr	r1, [sp, #56]
 1152 0c3a 7C40     		eors	r4, r4, r7
 1153 0c3c 8E19     		adds	r6, r1, r6
 1154 0c3e 0699     		ldr	r1, [sp, #24]
 1155 0c40 40EB0404 		adc	r4, r0, r4
 1156 0c44 8D18     		adds	r5, r1, r2
 1157 0c46 0799     		ldr	r1, [sp, #28]
 1158 0c48 4FEA9530 		lsr	r0, r5, #14
 1159 0c4c 41EB0801 		adc	r1, r1, r8
 1160 0c50 9219     		adds	r2, r2, r6
 1161 0c52 0692     		str	r2, [sp, #24]
 1162 0c54 48EB0402 		adc	r2, r8, r4
 1163 0c58 0792     		str	r2, [sp, #28]
 1164 0c5a 8C0B     		lsrs	r4, r1, #14
 1165 0c5c AE0C     		lsrs	r6, r5, #18
 1166 0c5e 8A0C     		lsrs	r2, r1, #18
 1167 0c60 46EA8136 		orr	r6, r6, r1, lsl #14
 1168 0c64 42EA8532 		orr	r2, r2, r5, lsl #14
 1169 0c68 40EA8140 		orr	r0, r0, r1, lsl #18
 1170 0c6c 44EA8544 		orr	r4, r4, r5, lsl #18
 1171 0c70 7040     		eors	r0, r0, r6
 1172 0c72 5440     		eors	r4, r4, r2
 1173 0c74 EE05     		lsls	r6, r5, #23
 1174 0c76 CA05     		lsls	r2, r1, #23
 1175 0c78 42EA5522 		orr	r2, r2, r5, lsr #9
 1176 0c7c 46EA5126 		orr	r6, r6, r1, lsr #9
 1177 0c80 7040     		eors	r0, r0, r6
 1178 0c82 5440     		eors	r4, r4, r2
 1179 0c84 229E     		ldr	r6, [sp, #136]
 1180 0c86 554A     		ldr	r2, .L13+16
 1181 0c88 119F     		ldr	r7, [sp, #68]
 1182 0c8a B218     		adds	r2, r6, r2
 1183 0c8c 544E     		ldr	r6, .L13+20
 1184 0c8e 0E91     		str	r1, [sp, #56]
 1185 0c90 46EB0706 		adc	r6, r6, r7
 1186 0c94 12EB0C0C 		adds	ip, r2, ip
 1187 0c98 4EEB060E 		adc	lr, lr, r6
 1188 0c9c 0BEA0502 		and	r2, fp, r5
 1189 0ca0 29EA0506 		bic	r6, r9, r5
 1190 0ca4 10EB0C0C 		adds	ip, r0, ip
 1191 0ca8 44EB0E0E 		adc	lr, r4, lr
 1192 0cac 23EA0100 		bic	r0, r3, r1
 1193 0cb0 0AEA0104 		and	r4, r10, r1
 1194 0cb4 7240     		eors	r2, r2, r6
 1195 0cb6 1CEB020C 		adds	ip, ip, r2
 1196 0cba 80EA0400 		eor	r0, r0, r4
 1197 0cbe 069A     		ldr	r2, [sp, #24]
 1198 0cc0 4EEB000E 		adc	lr, lr, r0
 1199 0cc4 0798     		ldr	r0, [sp, #28]
 1200 0cc6 069C     		ldr	r4, [sp, #24]
 1201 0cc8 120F     		lsrs	r2, r2, #28
 1202 0cca 42EA0012 		orr	r2, r2, r0, lsl #4
 1203 0cce 000F     		lsrs	r0, r0, #28
 1204 0cd0 40EA0410 		orr	r0, r0, r4, lsl #4
ARM GAS  /tmp/ccxnUvyY.s 			page 22


 1205 0cd4 079C     		ldr	r4, [sp, #28]
 1206 0cd6 069E     		ldr	r6, [sp, #24]
 1207 0cd8 079F     		ldr	r7, [sp, #28]
 1208 0cda A407     		lsls	r4, r4, #30
 1209 0cdc 44EA9604 		orr	r4, r4, r6, lsr #2
 1210 0ce0 B607     		lsls	r6, r6, #30
 1211 0ce2 46EA9706 		orr	r6, r6, r7, lsr #2
 1212 0ce6 7240     		eors	r2, r2, r6
 1213 0ce8 069E     		ldr	r6, [sp, #24]
 1214 0cea 6040     		eors	r0, r0, r4
 1215 0cec 7C06     		lsls	r4, r7, #25
 1216 0cee 44EAD614 		orr	r4, r4, r6, lsr #7
 1217 0cf2 7606     		lsls	r6, r6, #25
 1218 0cf4 46EAD716 		orr	r6, r6, r7, lsr #7
 1219 0cf8 7240     		eors	r2, r2, r6
 1220 0cfa 6040     		eors	r0, r0, r4
 1221 0cfc 0C9E     		ldr	r6, [sp, #48]
 1222 0cfe 0A9C     		ldr	r4, [sp, #40]
 1223 0d00 0C99     		ldr	r1, [sp, #48]
 1224 0d02 84EA0607 		eor	r7, r4, r6
 1225 0d06 0D9E     		ldr	r6, [sp, #52]
 1226 0d08 0B9C     		ldr	r4, [sp, #44]
 1227 0d0a 0F92     		str	r2, [sp, #60]
 1228 0d0c 7440     		eors	r4, r4, r6
 1229 0d0e 069E     		ldr	r6, [sp, #24]
 1230 0d10 0D9A     		ldr	r2, [sp, #52]
 1231 0d12 3740     		ands	r7, r7, r6
 1232 0d14 079E     		ldr	r6, [sp, #28]
 1233 0d16 3440     		ands	r4, r4, r6
 1234 0d18 0A9E     		ldr	r6, [sp, #40]
 1235 0d1a 0E40     		ands	r6, r6, r1
 1236 0d1c 0B99     		ldr	r1, [sp, #44]
 1237 0d1e 7E40     		eors	r6, r6, r7
 1238 0d20 01EA0208 		and	r8, r1, r2
 1239 0d24 0F9A     		ldr	r2, [sp, #60]
 1240 0d26 84EA0804 		eor	r4, r4, r8
 1241 0d2a 9619     		adds	r6, r2, r6
 1242 0d2c 089A     		ldr	r2, [sp, #32]
 1243 0d2e 40EB0408 		adc	r8, r0, r4
 1244 0d32 12EB0C04 		adds	r4, r2, ip
 1245 0d36 099A     		ldr	r2, [sp, #36]
 1246 0d38 4FEA9447 		lsr	r7, r4, #18
 1247 0d3c 42EB0E02 		adc	r2, r2, lr
 1248 0d40 1CEB0601 		adds	r1, ip, r6
 1249 0d44 0891     		str	r1, [sp, #32]
 1250 0d46 4FEA9246 		lsr	r6, r2, #18
 1251 0d4a 4EEB0801 		adc	r1, lr, r8
 1252 0d4e 4FEA923E 		lsr	lr, r2, #14
 1253 0d52 4EEA844E 		orr	lr, lr, r4, lsl #18
 1254 0d56 46EA8430 		orr	r0, r6, r4, lsl #14
 1255 0d5a 4FEA943C 		lsr	ip, r4, #14
 1256 0d5e 8EEA0006 		eor	r6, lr, r0
 1257 0d62 47EA8237 		orr	r7, r7, r2, lsl #14
 1258 0d66 4CEA824C 		orr	ip, ip, r2, lsl #18
 1259 0d6a E005     		lsls	r0, r4, #23
 1260 0d6c 40EA5220 		orr	r0, r0, r2, lsr #9
 1261 0d70 8CEA070C 		eor	ip, ip, r7
ARM GAS  /tmp/ccxnUvyY.s 			page 23


 1262 0d74 0991     		str	r1, [sp, #36]
 1263 0d76 8CEA000C 		eor	ip, ip, r0
 1264 0d7a 2399     		ldr	r1, [sp, #140]
 1265 0d7c 4FEAC25E 		lsl	lr, r2, #23
 1266 0d80 1848     		ldr	r0, .L13+24
 1267 0d82 4EEA542E 		orr	lr, lr, r4, lsr #9
 1268 0d86 0818     		adds	r0, r1, r0
 1269 0d88 86EA0E0E 		eor	lr, r6, lr
 1270 0d8c 1299     		ldr	r1, [sp, #72]
 1271 0d8e 164E     		ldr	r6, .L13+28
 1272 0d90 0F92     		str	r2, [sp, #60]
 1273 0d92 46EB0106 		adc	r6, r6, r1
 1274 0d96 10EB0909 		adds	r9, r0, r9
 1275 0d9a 43EB0606 		adc	r6, r3, r6
 1276 0d9e 05EA0400 		and	r0, r5, r4
 1277 0da2 1CEB0909 		adds	r9, ip, r9
 1278 0da6 2BEA040C 		bic	ip, fp, r4
 1279 0daa 2AEA0203 		bic	r3, r10, r2
 1280 0dae 8CEA0000 		eor	r0, ip, r0
 1281 0db2 DDE90E21 		ldrd	r2, r1, [sp, #56]
 1282 0db6 02EA0107 		and	r7, r2, r1
 1283 0dba 4EEB0606 		adc	r6, lr, r6
 1284 0dbe 7B40     		eors	r3, r3, r7
 1285 0dc0 19EB0009 		adds	r9, r9, r0
 1286 0dc4 46EB0306 		adc	r6, r6, r3
 1287 0dc8 089B     		ldr	r3, [sp, #32]
 1288 0dca 0FE0     		b	.L14
 1289              	.L15:
 1290              		.align	2
 1291              	.L13:
 1292 0dcc 420203A3 		.word	-1560083902
 1293 0dd0 98AA07D8 		.word	-670586216
 1294 0dd4 BE6F7045 		.word	1164996542
 1295 0dd8 015B8312 		.word	310598401
 1296 0ddc 8CB2E44E 		.word	1323610764
 1297 0de0 BE853124 		.word	607225278
 1298 0de4 E2B4FFD5 		.word	-704662302
 1299 0de8 C37D0C55 		.word	1426881987
 1300              	.L14:
 1301 0dec 0999     		ldr	r1, [sp, #36]
 1302 0dee 1B0F     		lsrs	r3, r3, #28
 1303 0df0 43EA0113 		orr	r3, r3, r1, lsl #4
 1304 0df4 4FEA117C 		lsr	ip, r1, #28
 1305 0df8 0899     		ldr	r1, [sp, #32]
 1306 0dfa 079A     		ldr	r2, [sp, #28]
 1307 0dfc 4CEA011C 		orr	ip, ip, r1, lsl #4
 1308 0e00 0999     		ldr	r1, [sp, #36]
 1309 0e02 8807     		lsls	r0, r1, #30
 1310 0e04 0899     		ldr	r1, [sp, #32]
 1311 0e06 40EA9100 		orr	r0, r0, r1, lsr #2
 1312 0e0a 8F07     		lsls	r7, r1, #30
 1313 0e0c 0999     		ldr	r1, [sp, #36]
 1314 0e0e 8CEA000C 		eor	ip, ip, r0
 1315 0e12 47EA9107 		orr	r7, r7, r1, lsr #2
 1316 0e16 4806     		lsls	r0, r1, #25
 1317 0e18 0899     		ldr	r1, [sp, #32]
 1318 0e1a 7B40     		eors	r3, r3, r7
ARM GAS  /tmp/ccxnUvyY.s 			page 24


 1319 0e1c 40EAD110 		orr	r0, r0, r1, lsr #7
 1320 0e20 4F06     		lsls	r7, r1, #25
 1321 0e22 0999     		ldr	r1, [sp, #36]
 1322 0e24 8CEA000C 		eor	ip, ip, r0
 1323 0e28 47EAD117 		orr	r7, r7, r1, lsr #7
 1324 0e2c 0698     		ldr	r0, [sp, #24]
 1325 0e2e 0C99     		ldr	r1, [sp, #48]
 1326 0e30 7B40     		eors	r3, r3, r7
 1327 0e32 81EA000E 		eor	lr, r1, r0
 1328 0e36 0D99     		ldr	r1, [sp, #52]
 1329 0e38 0798     		ldr	r0, [sp, #28]
 1330 0e3a 069F     		ldr	r7, [sp, #24]
 1331 0e3c 4840     		eors	r0, r0, r1
 1332 0e3e 0899     		ldr	r1, [sp, #32]
 1333 0e40 0EEA010E 		and	lr, lr, r1
 1334 0e44 0999     		ldr	r1, [sp, #36]
 1335 0e46 0840     		ands	r0, r0, r1
 1336 0e48 0C99     		ldr	r1, [sp, #48]
 1337 0e4a 0F40     		ands	r7, r7, r1
 1338 0e4c 0D99     		ldr	r1, [sp, #52]
 1339 0e4e 8EEA0707 		eor	r7, lr, r7
 1340 0e52 DF19     		adds	r7, r3, r7
 1341 0e54 01EA0208 		and	r8, r1, r2
 1342 0e58 0A9B     		ldr	r3, [sp, #40]
 1343 0e5a 80EA0800 		eor	r0, r0, r8
 1344 0e5e 4CEB000C 		adc	ip, ip, r0
 1345 0e62 13EB0900 		adds	r0, r3, r9
 1346 0e66 0B9B     		ldr	r3, [sp, #44]
 1347 0e68 4FEA9048 		lsr	r8, r0, #18
 1348 0e6c 43EB0603 		adc	r3, r3, r6
 1349 0e70 19EB0702 		adds	r2, r9, r7
 1350 0e74 4FEA9037 		lsr	r7, r0, #14
 1351 0e78 47EA8347 		orr	r7, r7, r3, lsl #18
 1352 0e7c 4FEA933E 		lsr	lr, r3, #14
 1353 0e80 0A92     		str	r2, [sp, #40]
 1354 0e82 46EB0C02 		adc	r2, r6, ip
 1355 0e86 48EA8336 		orr	r6, r8, r3, lsl #14
 1356 0e8a 4EEA8049 		orr	r9, lr, r0, lsl #18
 1357 0e8e 87EA0608 		eor	r8, r7, r6
 1358 0e92 4FEA934E 		lsr	lr, r3, #18
 1359 0e96 C605     		lsls	r6, r0, #23
 1360 0e98 4EEA803C 		orr	ip, lr, r0, lsl #14
 1361 0e9c 46EA5326 		orr	r6, r6, r3, lsr #9
 1362 0ea0 89EA0C0E 		eor	lr, r9, ip
 1363 0ea4 88EA0607 		eor	r7, r8, r6
 1364 0ea8 4FEAC35C 		lsl	ip, r3, #23
 1365 0eac CD4E     		ldr	r6, .L16
 1366 0eae 0B92     		str	r2, [sp, #44]
 1367 0eb0 249A     		ldr	r2, [sp, #144]
 1368 0eb2 4CEA502C 		orr	ip, ip, r0, lsr #9
 1369 0eb6 CC49     		ldr	r1, .L16+4
 1370 0eb8 8EEA0C0C 		eor	ip, lr, ip
 1371 0ebc 12EB060E 		adds	lr, r2, r6
 1372 0ec0 139A     		ldr	r2, [sp, #76]
 1373 0ec2 42EB0109 		adc	r9, r2, r1
 1374 0ec6 0E9A     		ldr	r2, [sp, #56]
 1375 0ec8 1EEB0B06 		adds	r6, lr, fp
ARM GAS  /tmp/ccxnUvyY.s 			page 25


 1376 0ecc 22EA030E 		bic	lr, r2, r3
 1377 0ed0 0F9A     		ldr	r2, [sp, #60]
 1378 0ed2 4AEB090A 		adc	r10, r10, r9
 1379 0ed6 02EA0308 		and	r8, r2, r3
 1380 0eda 25EA0009 		bic	r9, r5, r0
 1381 0ede 0A9A     		ldr	r2, [sp, #40]
 1382 0ee0 BE19     		adds	r6, r7, r6
 1383 0ee2 04EA0007 		and	r7, r4, r0
 1384 0ee6 89EA0707 		eor	r7, r9, r7
 1385 0eea 4CEB0A0C 		adc	ip, ip, r10
 1386 0eee F619     		adds	r6, r6, r7
 1387 0ef0 4FEA1277 		lsr	r7, r2, #28
 1388 0ef4 0B9A     		ldr	r2, [sp, #44]
 1389 0ef6 8EEA080E 		eor	lr, lr, r8
 1390 0efa 4CEB0E0C 		adc	ip, ip, lr
 1391 0efe 47EA0217 		orr	r7, r7, r2, lsl #4
 1392 0f02 4FEA127E 		lsr	lr, r2, #28
 1393 0f06 0A9A     		ldr	r2, [sp, #40]
 1394 0f08 0899     		ldr	r1, [sp, #32]
 1395 0f0a 4EEA021E 		orr	lr, lr, r2, lsl #4
 1396 0f0e 0B9A     		ldr	r2, [sp, #44]
 1397 0f10 4FEA8278 		lsl	r8, r2, #30
 1398 0f14 0A9A     		ldr	r2, [sp, #40]
 1399 0f16 48EA9208 		orr	r8, r8, r2, lsr #2
 1400 0f1a 4FEA8279 		lsl	r9, r2, #30
 1401 0f1e 0B9A     		ldr	r2, [sp, #44]
 1402 0f20 8EEA080E 		eor	lr, lr, r8
 1403 0f24 49EA9209 		orr	r9, r9, r2, lsr #2
 1404 0f28 4FEA4268 		lsl	r8, r2, #25
 1405 0f2c 0A9A     		ldr	r2, [sp, #40]
 1406 0f2e 87EA0907 		eor	r7, r7, r9
 1407 0f32 48EAD218 		orr	r8, r8, r2, lsr #7
 1408 0f36 4FEA4269 		lsl	r9, r2, #25
 1409 0f3a 0B9A     		ldr	r2, [sp, #44]
 1410 0f3c 8EEA080E 		eor	lr, lr, r8
 1411 0f40 49EAD219 		orr	r9, r9, r2, lsr #7
 1412 0f44 069A     		ldr	r2, [sp, #24]
 1413 0f46 87EA0907 		eor	r7, r7, r9
 1414 0f4a 82EA0108 		eor	r8, r2, r1
 1415 0f4e 079A     		ldr	r2, [sp, #28]
 1416 0f50 0999     		ldr	r1, [sp, #36]
 1417 0f52 82EA0109 		eor	r9, r2, r1
 1418 0f56 0A9A     		ldr	r2, [sp, #40]
 1419 0f58 0899     		ldr	r1, [sp, #32]
 1420 0f5a 08EA0208 		and	r8, r8, r2
 1421 0f5e 0B9A     		ldr	r2, [sp, #44]
 1422 0f60 09EA0209 		and	r9, r9, r2
 1423 0f64 069A     		ldr	r2, [sp, #24]
 1424 0f66 02EA010B 		and	fp, r2, r1
 1425 0f6a 079A     		ldr	r2, [sp, #28]
 1426 0f6c 0999     		ldr	r1, [sp, #36]
 1427 0f6e 88EA0B08 		eor	r8, r8, fp
 1428 0f72 02EA010A 		and	r10, r2, r1
 1429 0f76 0C9A     		ldr	r2, [sp, #48]
 1430 0f78 17EB0808 		adds	r8, r7, r8
 1431 0f7c 89EA0A09 		eor	r9, r9, r10
 1432 0f80 4EEB0909 		adc	r9, lr, r9
ARM GAS  /tmp/ccxnUvyY.s 			page 26


 1433 0f84 9219     		adds	r2, r2, r6
 1434 0f86 2892     		str	r2, [sp, #160]
 1435 0f88 0D9A     		ldr	r2, [sp, #52]
 1436 0f8a 9849     		ldr	r1, .L16+8
 1437 0f8c 42EB0C02 		adc	r2, r2, ip
 1438 0f90 16EB080B 		adds	fp, r6, r8
 1439 0f94 2992     		str	r2, [sp, #164]
 1440 0f96 4CEB0902 		adc	r2, ip, r9
 1441 0f9a 2692     		str	r2, [sp, #152]
 1442 0f9c 289A     		ldr	r2, [sp, #160]
 1443 0f9e 970B     		lsrs	r7, r2, #14
 1444 0fa0 299A     		ldr	r2, [sp, #164]
 1445 0fa2 47EA8247 		orr	r7, r7, r2, lsl #18
 1446 0fa6 4FEA923C 		lsr	ip, r2, #14
 1447 0faa 289A     		ldr	r2, [sp, #160]
 1448 0fac 4CEA824C 		orr	ip, ip, r2, lsl #18
 1449 0fb0 4FEA924E 		lsr	lr, r2, #18
 1450 0fb4 299A     		ldr	r2, [sp, #164]
 1451 0fb6 4EEA823E 		orr	lr, lr, r2, lsl #14
 1452 0fba 960C     		lsrs	r6, r2, #18
 1453 0fbc 289A     		ldr	r2, [sp, #160]
 1454 0fbe 87EA0E07 		eor	r7, r7, lr
 1455 0fc2 46EA8236 		orr	r6, r6, r2, lsl #14
 1456 0fc6 299A     		ldr	r2, [sp, #164]
 1457 0fc8 8CEA060C 		eor	ip, ip, r6
 1458 0fcc D605     		lsls	r6, r2, #23
 1459 0fce 289A     		ldr	r2, [sp, #160]
 1460 0fd0 46EA5226 		orr	r6, r6, r2, lsr #9
 1461 0fd4 4FEAC25E 		lsl	lr, r2, #23
 1462 0fd8 299A     		ldr	r2, [sp, #164]
 1463 0fda 8CEA060C 		eor	ip, ip, r6
 1464 0fde 4EEA522E 		orr	lr, lr, r2, lsr #9
 1465 0fe2 2F9A     		ldr	r2, [sp, #188]
 1466 0fe4 87EA0E07 		eor	r7, r7, lr
 1467 0fe8 5618     		adds	r6, r2, r1
 1468 0fea DFF80CE2 		ldr	lr, .L16+20
 1469 0fee 259A     		ldr	r2, [sp, #148]
 1470 0ff0 4EEB020E 		adc	lr, lr, r2
 1471 0ff4 0E9A     		ldr	r2, [sp, #56]
 1472 0ff6 7519     		adds	r5, r6, r5
 1473 0ff8 42EB0E01 		adc	r1, r2, lr
 1474 0ffc 289A     		ldr	r2, [sp, #160]
 1475 0ffe 0F9E     		ldr	r6, [sp, #60]
 1476 1000 24EA020E 		bic	lr, r4, r2
 1477 1004 299A     		ldr	r2, [sp, #164]
 1478 1006 7D19     		adds	r5, r7, r5
 1479 1008 26EA0207 		bic	r7, r6, r2
 1480 100c 289A     		ldr	r2, [sp, #160]
 1481 100e 4CEB0101 		adc	r1, ip, r1
 1482 1012 00EA0206 		and	r6, r0, r2
 1483 1016 299A     		ldr	r2, [sp, #164]
 1484 1018 8EEA0606 		eor	r6, lr, r6
 1485 101c 03EA020C 		and	ip, r3, r2
 1486 1020 269A     		ldr	r2, [sp, #152]
 1487 1022 AD19     		adds	r5, r5, r6
 1488 1024 4FEA8B7E 		lsl	lr, fp, #30
 1489 1028 4FEA1B76 		lsr	r6, fp, #28
ARM GAS  /tmp/ccxnUvyY.s 			page 27


 1490 102c 87EA0C07 		eor	r7, r7, ip
 1491 1030 4EEA920E 		orr	lr, lr, r2, lsr #2
 1492 1034 46EA0216 		orr	r6, r6, r2, lsl #4
 1493 1038 41EB0701 		adc	r1, r1, r7
 1494 103c 86EA0E06 		eor	r6, r6, lr
 1495 1040 170F     		lsrs	r7, r2, #28
 1496 1042 4FEA827C 		lsl	ip, r2, #30
 1497 1046 4FEA4B6E 		lsl	lr, fp, #25
 1498 104a 4CEA9B0C 		orr	ip, ip, fp, lsr #2
 1499 104e 4EEAD21E 		orr	lr, lr, r2, lsr #7
 1500 1052 47EA0B17 		orr	r7, r7, fp, lsl #4
 1501 1056 86EA0E0A 		eor	r10, r6, lr
 1502 105a 87EA0C07 		eor	r7, r7, ip
 1503 105e 0A9E     		ldr	r6, [sp, #40]
 1504 1060 4FEA426C 		lsl	ip, r2, #25
 1505 1064 089A     		ldr	r2, [sp, #32]
 1506 1066 4CEADB1C 		orr	ip, ip, fp, lsr #7
 1507 106a 87EA0C07 		eor	r7, r7, ip
 1508 106e 82EA060C 		eor	ip, r2, r6
 1509 1072 099A     		ldr	r2, [sp, #36]
 1510 1074 0B9E     		ldr	r6, [sp, #44]
 1511 1076 0CEA0B0C 		and	ip, ip, fp
 1512 107a 82EA060E 		eor	lr, r2, r6
 1513 107e 269A     		ldr	r2, [sp, #152]
 1514 1080 0A9E     		ldr	r6, [sp, #40]
 1515 1082 0EEA020E 		and	lr, lr, r2
 1516 1086 089A     		ldr	r2, [sp, #32]
 1517 1088 02EA0609 		and	r9, r2, r6
 1518 108c 099A     		ldr	r2, [sp, #36]
 1519 108e 0B9E     		ldr	r6, [sp, #44]
 1520 1090 8CEA090C 		eor	ip, ip, r9
 1521 1094 02EA0608 		and	r8, r2, r6
 1522 1098 069A     		ldr	r2, [sp, #24]
 1523 109a 1AEB0C0C 		adds	ip, r10, ip
 1524 109e 8EEA080E 		eor	lr, lr, r8
 1525 10a2 47EB0E0E 		adc	lr, r7, lr
 1526 10a6 5219     		adds	r2, r2, r5
 1527 10a8 2A92     		str	r2, [sp, #168]
 1528 10aa 079A     		ldr	r2, [sp, #28]
 1529 10ac 42EB0102 		adc	r2, r2, r1
 1530 10b0 2B92     		str	r2, [sp, #172]
 1531 10b2 15EB0C02 		adds	r2, r5, ip
 1532 10b6 2792     		str	r2, [sp, #156]
 1533 10b8 2A9A     		ldr	r2, [sp, #168]
 1534 10ba 41EB0E0E 		adc	lr, r1, lr
 1535 10be 910B     		lsrs	r1, r2, #14
 1536 10c0 2B9A     		ldr	r2, [sp, #172]
 1537 10c2 41EA8241 		orr	r1, r1, r2, lsl #18
 1538 10c6 950B     		lsrs	r5, r2, #14
 1539 10c8 2A9A     		ldr	r2, [sp, #168]
 1540 10ca 4FEA924A 		lsr	r10, r2, #18
 1541 10ce 45EA8245 		orr	r5, r5, r2, lsl #18
 1542 10d2 2B9A     		ldr	r2, [sp, #172]
 1543 10d4 4AEA8237 		orr	r7, r10, r2, lsl #14
 1544 10d8 960C     		lsrs	r6, r2, #18
 1545 10da 2A9A     		ldr	r2, [sp, #168]
 1546 10dc 81EA070A 		eor	r10, r1, r7
ARM GAS  /tmp/ccxnUvyY.s 			page 28


 1547 10e0 46EA8236 		orr	r6, r6, r2, lsl #14
 1548 10e4 2B9A     		ldr	r2, [sp, #172]
 1549 10e6 7540     		eors	r5, r5, r6
 1550 10e8 D605     		lsls	r6, r2, #23
 1551 10ea 2A9A     		ldr	r2, [sp, #168]
 1552 10ec 2B9F     		ldr	r7, [sp, #172]
 1553 10ee 46EA5226 		orr	r6, r6, r2, lsr #9
 1554 10f2 D105     		lsls	r1, r2, #23
 1555 10f4 2B9A     		ldr	r2, [sp, #172]
 1556 10f6 7540     		eors	r5, r5, r6
 1557 10f8 41EA5221 		orr	r1, r1, r2, lsr #9
 1558 10fc 3C4E     		ldr	r6, .L16+12
 1559 10fe 169A     		ldr	r2, [sp, #88]
 1560 1100 8AEA0101 		eor	r1, r10, r1
 1561 1104 12EB060A 		adds	r10, r2, r6
 1562 1108 029A     		ldr	r2, [sp, #8]
 1563 110a 3A4E     		ldr	r6, .L16+16
 1564 110c 46EB0206 		adc	r6, r6, r2
 1565 1110 0F9A     		ldr	r2, [sp, #60]
 1566 1112 1AEB040A 		adds	r10, r10, r4
 1567 1116 42EB0602 		adc	r2, r2, r6
 1568 111a 11EB0A0A 		adds	r10, r1, r10
 1569 111e 2A99     		ldr	r1, [sp, #168]
 1570 1120 45EB0202 		adc	r2, r5, r2
 1571 1124 20EA0106 		bic	r6, r0, r1
 1572 1128 2B99     		ldr	r1, [sp, #172]
 1573 112a 2A9D     		ldr	r5, [sp, #168]
 1574 112c 23EA0104 		bic	r4, r3, r1
 1575 1130 2899     		ldr	r1, [sp, #160]
 1576 1132 2940     		ands	r1, r1, r5
 1577 1134 299D     		ldr	r5, [sp, #164]
 1578 1136 7140     		eors	r1, r1, r6
 1579 1138 3D40     		ands	r5, r5, r7
 1580 113a 1AEB010A 		adds	r10, r10, r1
 1581 113e 84EA0504 		eor	r4, r4, r5
 1582 1142 279D     		ldr	r5, [sp, #156]
 1583 1144 42EB0404 		adc	r4, r2, r4
 1584 1148 279E     		ldr	r6, [sp, #156]
 1585 114a 279A     		ldr	r2, [sp, #156]
 1586 114c 4FEA1E71 		lsr	r1, lr, #28
 1587 1150 41EA0511 		orr	r1, r1, r5, lsl #4
 1588 1154 4FEA8E75 		lsl	r5, lr, #30
 1589 1158 45EA9605 		orr	r5, r5, r6, lsr #2
 1590 115c 120F     		lsrs	r2, r2, #28
 1591 115e B607     		lsls	r6, r6, #30
 1592 1160 46EA9E06 		orr	r6, r6, lr, lsr #2
 1593 1164 42EA0E12 		orr	r2, r2, lr, lsl #4
 1594 1168 7240     		eors	r2, r2, r6
 1595 116a 279E     		ldr	r6, [sp, #156]
 1596 116c 6940     		eors	r1, r1, r5
 1597 116e 4FEA4E65 		lsl	r5, lr, #25
 1598 1172 45EAD615 		orr	r5, r5, r6, lsr #7
 1599 1176 7606     		lsls	r6, r6, #25
 1600 1178 46EADE16 		orr	r6, r6, lr, lsr #7
 1601 117c 82EA0608 		eor	r8, r2, r6
 1602 1180 269F     		ldr	r7, [sp, #152]
 1603 1182 0B9E     		ldr	r6, [sp, #44]
ARM GAS  /tmp/ccxnUvyY.s 			page 29


 1604 1184 6940     		eors	r1, r1, r5
 1605 1186 0A9D     		ldr	r5, [sp, #40]
 1606 1188 7E40     		eors	r6, r6, r7
 1607 118a 279F     		ldr	r7, [sp, #156]
 1608 118c 85EA0B05 		eor	r5, r5, fp
 1609 1190 3D40     		ands	r5, r5, r7
 1610 1192 0A9F     		ldr	r7, [sp, #40]
 1611 1194 269A     		ldr	r2, [sp, #152]
 1612 1196 07EA0B0C 		and	ip, r7, fp
 1613 119a 0B9F     		ldr	r7, [sp, #44]
 1614 119c 06EA0E06 		and	r6, r6, lr
 1615 11a0 1740     		ands	r7, r7, r2
 1616 11a2 85EA0C05 		eor	r5, r5, ip
 1617 11a6 089A     		ldr	r2, [sp, #32]
 1618 11a8 18EB0505 		adds	r5, r8, r5
 1619 11ac 86EA0706 		eor	r6, r6, r7
 1620 11b0 41EB0606 		adc	r6, r1, r6
 1621 11b4 12EB0A02 		adds	r2, r2, r10
 1622 11b8 2C92     		str	r2, [sp, #176]
 1623 11ba 099A     		ldr	r2, [sp, #36]
 1624 11bc 42EB0407 		adc	r7, r2, r4
 1625 11c0 1AEB050A 		adds	r10, r10, r5
 1626 11c4 2C9A     		ldr	r2, [sp, #176]
 1627 11c6 44EB060C 		adc	ip, r4, r6
 1628 11ca BC0B     		lsrs	r4, r7, #14
 1629 11cc 910B     		lsrs	r1, r2, #14
 1630 11ce 44EA8244 		orr	r4, r4, r2, lsl #18
 1631 11d2 920C     		lsrs	r2, r2, #18
 1632 11d4 42EA8736 		orr	r6, r2, r7, lsl #14
 1633 11d8 2C9A     		ldr	r2, [sp, #176]
 1634 11da 41EA8741 		orr	r1, r1, r7, lsl #18
 1635 11de BD0C     		lsrs	r5, r7, #18
 1636 11e0 0CE0     		b	.L17
 1637              	.L18:
 1638 11e2 00BF     		.align	2
 1639              	.L16:
 1640 11e4 6F897BF2 		.word	-226784913
 1641 11e8 745DBE72 		.word	1925078388
 1642 11ec B196163B 		.word	991336113
 1643 11f0 3512C725 		.word	633803317
 1644 11f4 A706DC9B 		.word	-1680079193
 1645 11f8 FEB1DE80 		.word	-2132889090
 1646              	.L17:
 1647 11fc 45EA8235 		orr	r5, r5, r2, lsl #14
 1648 1200 81EA0602 		eor	r2, r1, r6
 1649 1204 2C99     		ldr	r1, [sp, #176]
 1650 1206 6C40     		eors	r4, r4, r5
 1651 1208 FD05     		lsls	r5, r7, #23
 1652 120a 45EA5125 		orr	r5, r5, r1, lsr #9
 1653 120e C905     		lsls	r1, r1, #23
 1654 1210 41EA5721 		orr	r1, r1, r7, lsr #9
 1655 1214 5140     		eors	r1, r1, r2
 1656 1216 6C40     		eors	r4, r4, r5
 1657 1218 179A     		ldr	r2, [sp, #92]
 1658 121a CA4D     		ldr	r5, .L19
 1659 121c 039E     		ldr	r6, [sp, #12]
 1660 121e 5219     		adds	r2, r2, r5
ARM GAS  /tmp/ccxnUvyY.s 			page 30


 1661 1220 C94D     		ldr	r5, .L19+4
 1662 1222 45EB0605 		adc	r5, r5, r6
 1663 1226 1218     		adds	r2, r2, r0
 1664 1228 43EB0503 		adc	r3, r3, r5
 1665 122c 2C98     		ldr	r0, [sp, #176]
 1666 122e 8A18     		adds	r2, r1, r2
 1667 1230 2899     		ldr	r1, [sp, #160]
 1668 1232 44EB0303 		adc	r3, r4, r3
 1669 1236 21EA0005 		bic	r5, r1, r0
 1670 123a 2999     		ldr	r1, [sp, #164]
 1671 123c 2C9C     		ldr	r4, [sp, #176]
 1672 123e 21EA0700 		bic	r0, r1, r7
 1673 1242 2A99     		ldr	r1, [sp, #168]
 1674 1244 279E     		ldr	r6, [sp, #156]
 1675 1246 2140     		ands	r1, r1, r4
 1676 1248 2B9C     		ldr	r4, [sp, #172]
 1677 124a 6940     		eors	r1, r1, r5
 1678 124c 3C40     		ands	r4, r4, r7
 1679 124e 5218     		adds	r2, r2, r1
 1680 1250 80EA0400 		eor	r0, r0, r4
 1681 1254 43EB0003 		adc	r3, r3, r0
 1682 1258 4FEA8C71 		lsl	r1, ip, #30
 1683 125c 4FEA1C70 		lsr	r0, ip, #28
 1684 1260 41EA9A01 		orr	r1, r1, r10, lsr #2
 1685 1264 40EA0A10 		orr	r0, r0, r10, lsl #4
 1686 1268 4FEA1A74 		lsr	r4, r10, #28
 1687 126c 4FEA8A75 		lsl	r5, r10, #30
 1688 1270 4840     		eors	r0, r0, r1
 1689 1272 4FEA4C61 		lsl	r1, ip, #25
 1690 1276 45EA9C05 		orr	r5, r5, ip, lsr #2
 1691 127a 41EADA11 		orr	r1, r1, r10, lsr #7
 1692 127e 44EA0C14 		orr	r4, r4, ip, lsl #4
 1693 1282 6C40     		eors	r4, r4, r5
 1694 1284 4840     		eors	r0, r0, r1
 1695 1286 4FEA4A65 		lsl	r5, r10, #25
 1696 128a 2799     		ldr	r1, [sp, #156]
 1697 128c 45EADC15 		orr	r5, r5, ip, lsr #7
 1698 1290 6C40     		eors	r4, r4, r5
 1699 1292 8BEA0101 		eor	r1, fp, r1
 1700 1296 269D     		ldr	r5, [sp, #152]
 1701 1298 0BEA0608 		and	r8, fp, r6
 1702 129c 01EA0A01 		and	r1, r1, r10
 1703 12a0 269E     		ldr	r6, [sp, #152]
 1704 12a2 85EA0E05 		eor	r5, r5, lr
 1705 12a6 81EA0801 		eor	r1, r1, r8
 1706 12aa 6118     		adds	r1, r4, r1
 1707 12ac 05EA0C05 		and	r5, r5, ip
 1708 12b0 0A9C     		ldr	r4, [sp, #40]
 1709 12b2 06EA0E06 		and	r6, r6, lr
 1710 12b6 86EA0506 		eor	r6, r6, r5
 1711 12ba 40EB0600 		adc	r0, r0, r6
 1712 12be A418     		adds	r4, r4, r2
 1713 12c0 2D94     		str	r4, [sp, #180]
 1714 12c2 0B9C     		ldr	r4, [sp, #44]
 1715 12c4 309E     		ldr	r6, [sp, #192]
 1716 12c6 44EB0304 		adc	r4, r4, r3
 1717 12ca 12EB0109 		adds	r9, r2, r1
ARM GAS  /tmp/ccxnUvyY.s 			page 31


 1718 12ce 43EB0008 		adc	r8, r3, r0
 1719 12d2 169B     		ldr	r3, [sp, #88]
 1720 12d4 1699     		ldr	r1, [sp, #88]
 1721 12d6 DA0C     		lsrs	r2, r3, #19
 1722 12d8 029B     		ldr	r3, [sp, #8]
 1723 12da 1698     		ldr	r0, [sp, #88]
 1724 12dc 42EA4332 		orr	r2, r2, r3, lsl #13
 1725 12e0 DB0C     		lsrs	r3, r3, #19
 1726 12e2 43EA4133 		orr	r3, r3, r1, lsl #13
 1727 12e6 0299     		ldr	r1, [sp, #8]
 1728 12e8 2E94     		str	r4, [sp, #184]
 1729 12ea C900     		lsls	r1, r1, #3
 1730 12ec 41EA5071 		orr	r1, r1, r0, lsr #29
 1731 12f0 029C     		ldr	r4, [sp, #8]
 1732 12f2 5940     		eors	r1, r1, r3
 1733 12f4 169B     		ldr	r3, [sp, #88]
 1734 12f6 C000     		lsls	r0, r0, #3
 1735 12f8 40EA5470 		orr	r0, r0, r4, lsr #29
 1736 12fc 9B09     		lsrs	r3, r3, #6
 1737 12fe 43EA8463 		orr	r3, r3, r4, lsl #26
 1738 1302 5040     		eors	r0, r0, r2
 1739 1304 5840     		eors	r0, r0, r3
 1740 1306 219A     		ldr	r2, [sp, #132]
 1741 1308 189B     		ldr	r3, [sp, #96]
 1742 130a 81EA9411 		eor	r1, r1, r4, lsr #6
 1743 130e 9A18     		adds	r2, r3, r2
 1744 1310 109C     		ldr	r4, [sp, #64]
 1745 1312 3B9B     		ldr	r3, [sp, #236]
 1746 1314 43EB0403 		adc	r3, r3, r4
 1747 1318 8018     		adds	r0, r0, r2
 1748 131a 41EB0301 		adc	r1, r1, r3
 1749 131e 309B     		ldr	r3, [sp, #192]
 1750 1320 309A     		ldr	r2, [sp, #192]
 1751 1322 5D08     		lsrs	r5, r3, #1
 1752 1324 199B     		ldr	r3, [sp, #100]
 1753 1326 199C     		ldr	r4, [sp, #100]
 1754 1328 45EAC375 		orr	r5, r5, r3, lsl #31
 1755 132c 5B08     		lsrs	r3, r3, #1
 1756 132e 43EAC273 		orr	r3, r3, r2, lsl #31
 1757 1332 120A     		lsrs	r2, r2, #8
 1758 1334 42EA0462 		orr	r2, r2, r4, lsl #24
 1759 1338 240A     		lsrs	r4, r4, #8
 1760 133a 44EA0664 		orr	r4, r4, r6, lsl #24
 1761 133e 6340     		eors	r3, r3, r4
 1762 1340 199C     		ldr	r4, [sp, #100]
 1763 1342 6A40     		eors	r2, r2, r5
 1764 1344 F509     		lsrs	r5, r6, #7
 1765 1346 45EA4465 		orr	r5, r5, r4, lsl #25
 1766 134a 6A40     		eors	r2, r2, r5
 1767 134c 1218     		adds	r2, r2, r0
 1768 134e 83EAD413 		eor	r3, r3, r4, lsr #7
 1769 1352 41EB0303 		adc	r3, r1, r3
 1770 1356 0693     		str	r3, [sp, #24]
 1771 1358 179B     		ldr	r3, [sp, #92]
 1772 135a 1892     		str	r2, [sp, #96]
 1773 135c DC0C     		lsrs	r4, r3, #19
 1774 135e 039B     		ldr	r3, [sp, #12]
ARM GAS  /tmp/ccxnUvyY.s 			page 32


 1775 1360 179A     		ldr	r2, [sp, #92]
 1776 1362 44EA4334 		orr	r4, r4, r3, lsl #13
 1777 1366 DB0C     		lsrs	r3, r3, #19
 1778 1368 43EA4233 		orr	r3, r3, r2, lsl #13
 1779 136c 039A     		ldr	r2, [sp, #12]
 1780 136e D100     		lsls	r1, r2, #3
 1781 1370 179A     		ldr	r2, [sp, #92]
 1782 1372 41EA5271 		orr	r1, r1, r2, lsr #29
 1783 1376 D000     		lsls	r0, r2, #3
 1784 1378 5940     		eors	r1, r1, r3
 1785 137a 039A     		ldr	r2, [sp, #12]
 1786 137c 179B     		ldr	r3, [sp, #92]
 1787 137e 40EA5270 		orr	r0, r0, r2, lsr #29
 1788 1382 9A09     		lsrs	r2, r3, #6
 1789 1384 039B     		ldr	r3, [sp, #12]
 1790 1386 6040     		eors	r0, r0, r4
 1791 1388 42EA8362 		orr	r2, r2, r3, lsl #26
 1792 138c 4240     		eors	r2, r2, r0
 1793 138e 2298     		ldr	r0, [sp, #136]
 1794 1390 119C     		ldr	r4, [sp, #68]
 1795 1392 81EA9311 		eor	r1, r1, r3, lsr #6
 1796 1396 199B     		ldr	r3, [sp, #100]
 1797 1398 3018     		adds	r0, r6, r0
 1798 139a 43EB0403 		adc	r3, r3, r4
 1799 139e 1018     		adds	r0, r2, r0
 1800 13a0 41EB0301 		adc	r1, r1, r3
 1801 13a4 319B     		ldr	r3, [sp, #196]
 1802 13a6 319A     		ldr	r2, [sp, #196]
 1803 13a8 5D08     		lsrs	r5, r3, #1
 1804 13aa 1A9B     		ldr	r3, [sp, #104]
 1805 13ac 1A9C     		ldr	r4, [sp, #104]
 1806 13ae 45EAC375 		orr	r5, r5, r3, lsl #31
 1807 13b2 5B08     		lsrs	r3, r3, #1
 1808 13b4 319E     		ldr	r6, [sp, #196]
 1809 13b6 43EAC273 		orr	r3, r3, r2, lsl #31
 1810 13ba 120A     		lsrs	r2, r2, #8
 1811 13bc 42EA0462 		orr	r2, r2, r4, lsl #24
 1812 13c0 240A     		lsrs	r4, r4, #8
 1813 13c2 44EA0664 		orr	r4, r4, r6, lsl #24
 1814 13c6 6340     		eors	r3, r3, r4
 1815 13c8 1A9C     		ldr	r4, [sp, #104]
 1816 13ca 6A40     		eors	r2, r2, r5
 1817 13cc F509     		lsrs	r5, r6, #7
 1818 13ce 45EA4465 		orr	r5, r5, r4, lsl #25
 1819 13d2 6A40     		eors	r2, r2, r5
 1820 13d4 1218     		adds	r2, r2, r0
 1821 13d6 83EAD413 		eor	r3, r3, r4, lsr #7
 1822 13da 41EB0303 		adc	r3, r1, r3
 1823 13de 0793     		str	r3, [sp, #28]
 1824 13e0 329B     		ldr	r3, [sp, #200]
 1825 13e2 1992     		str	r2, [sp, #100]
 1826 13e4 5C08     		lsrs	r4, r3, #1
 1827 13e6 1B9B     		ldr	r3, [sp, #108]
 1828 13e8 329A     		ldr	r2, [sp, #200]
 1829 13ea 44EAC374 		orr	r4, r4, r3, lsl #31
 1830 13ee 5B08     		lsrs	r3, r3, #1
 1831 13f0 43EAC273 		orr	r3, r3, r2, lsl #31
ARM GAS  /tmp/ccxnUvyY.s 			page 33


 1832 13f4 100A     		lsrs	r0, r2, #8
 1833 13f6 1B9A     		ldr	r2, [sp, #108]
 1834 13f8 40EA0260 		orr	r0, r0, r2, lsl #24
 1835 13fc 110A     		lsrs	r1, r2, #8
 1836 13fe 329A     		ldr	r2, [sp, #200]
 1837 1400 6040     		eors	r0, r0, r4
 1838 1402 41EA0261 		orr	r1, r1, r2, lsl #24
 1839 1406 5940     		eors	r1, r1, r3
 1840 1408 1B9B     		ldr	r3, [sp, #108]
 1841 140a D209     		lsrs	r2, r2, #7
 1842 140c 42EA4362 		orr	r2, r2, r3, lsl #25
 1843 1410 4240     		eors	r2, r2, r0
 1844 1412 2398     		ldr	r0, [sp, #140]
 1845 1414 129C     		ldr	r4, [sp, #72]
 1846 1416 81EAD311 		eor	r1, r1, r3, lsr #7
 1847 141a 1A9B     		ldr	r3, [sp, #104]
 1848 141c 3018     		adds	r0, r6, r0
 1849 141e 43EB0403 		adc	r3, r3, r4
 1850 1422 1018     		adds	r0, r2, r0
 1851 1424 41EB0301 		adc	r1, r1, r3
 1852 1428 189B     		ldr	r3, [sp, #96]
 1853 142a 189A     		ldr	r2, [sp, #96]
 1854 142c DD0C     		lsrs	r5, r3, #19
 1855 142e 069B     		ldr	r3, [sp, #24]
 1856 1430 45EA4335 		orr	r5, r5, r3, lsl #13
 1857 1434 DB0C     		lsrs	r3, r3, #19
 1858 1436 43EA4233 		orr	r3, r3, r2, lsl #13
 1859 143a 069A     		ldr	r2, [sp, #24]
 1860 143c D400     		lsls	r4, r2, #3
 1861 143e 189A     		ldr	r2, [sp, #96]
 1862 1440 069E     		ldr	r6, [sp, #24]
 1863 1442 44EA5274 		orr	r4, r4, r2, lsr #29
 1864 1446 6340     		eors	r3, r3, r4
 1865 1448 D200     		lsls	r2, r2, #3
 1866 144a 189C     		ldr	r4, [sp, #96]
 1867 144c 42EA5672 		orr	r2, r2, r6, lsr #29
 1868 1450 6A40     		eors	r2, r2, r5
 1869 1452 A509     		lsrs	r5, r4, #6
 1870 1454 45EA8665 		orr	r5, r5, r6, lsl #26
 1871 1458 6A40     		eors	r2, r2, r5
 1872 145a 1218     		adds	r2, r2, r0
 1873 145c 83EA9613 		eor	r3, r3, r6, lsr #6
 1874 1460 41EB0303 		adc	r3, r1, r3
 1875 1464 0893     		str	r3, [sp, #32]
 1876 1466 339B     		ldr	r3, [sp, #204]
 1877 1468 1A92     		str	r2, [sp, #104]
 1878 146a 5C08     		lsrs	r4, r3, #1
 1879 146c 1C9B     		ldr	r3, [sp, #112]
 1880 146e 339A     		ldr	r2, [sp, #204]
 1881 1470 44EAC374 		orr	r4, r4, r3, lsl #31
 1882 1474 5B08     		lsrs	r3, r3, #1
 1883 1476 43EAC273 		orr	r3, r3, r2, lsl #31
 1884 147a 100A     		lsrs	r0, r2, #8
 1885 147c 1C9A     		ldr	r2, [sp, #112]
 1886 147e 079E     		ldr	r6, [sp, #28]
 1887 1480 40EA0260 		orr	r0, r0, r2, lsl #24
 1888 1484 110A     		lsrs	r1, r2, #8
ARM GAS  /tmp/ccxnUvyY.s 			page 34


 1889 1486 339A     		ldr	r2, [sp, #204]
 1890 1488 6040     		eors	r0, r0, r4
 1891 148a 41EA0261 		orr	r1, r1, r2, lsl #24
 1892 148e 5940     		eors	r1, r1, r3
 1893 1490 1C9B     		ldr	r3, [sp, #112]
 1894 1492 D209     		lsrs	r2, r2, #7
 1895 1494 42EA4362 		orr	r2, r2, r3, lsl #25
 1896 1498 4240     		eors	r2, r2, r0
 1897 149a 81EAD311 		eor	r1, r1, r3, lsr #7
 1898 149e 2498     		ldr	r0, [sp, #144]
 1899 14a0 329B     		ldr	r3, [sp, #200]
 1900 14a2 139C     		ldr	r4, [sp, #76]
 1901 14a4 1818     		adds	r0, r3, r0
 1902 14a6 1B9B     		ldr	r3, [sp, #108]
 1903 14a8 43EB0403 		adc	r3, r3, r4
 1904 14ac 1018     		adds	r0, r2, r0
 1905 14ae 41EB0301 		adc	r1, r1, r3
 1906 14b2 199B     		ldr	r3, [sp, #100]
 1907 14b4 199A     		ldr	r2, [sp, #100]
 1908 14b6 DD0C     		lsrs	r5, r3, #19
 1909 14b8 079B     		ldr	r3, [sp, #28]
 1910 14ba 45EA4335 		orr	r5, r5, r3, lsl #13
 1911 14be DB0C     		lsrs	r3, r3, #19
 1912 14c0 43EA4233 		orr	r3, r3, r2, lsl #13
 1913 14c4 079A     		ldr	r2, [sp, #28]
 1914 14c6 D400     		lsls	r4, r2, #3
 1915 14c8 199A     		ldr	r2, [sp, #100]
 1916 14ca 44EA5274 		orr	r4, r4, r2, lsr #29
 1917 14ce 6340     		eors	r3, r3, r4
 1918 14d0 D200     		lsls	r2, r2, #3
 1919 14d2 199C     		ldr	r4, [sp, #100]
 1920 14d4 42EA5672 		orr	r2, r2, r6, lsr #29
 1921 14d8 6A40     		eors	r2, r2, r5
 1922 14da A509     		lsrs	r5, r4, #6
 1923 14dc 45EA8665 		orr	r5, r5, r6, lsl #26
 1924 14e0 6A40     		eors	r2, r2, r5
 1925 14e2 1218     		adds	r2, r2, r0
 1926 14e4 83EA9613 		eor	r3, r3, r6, lsr #6
 1927 14e8 41EB0303 		adc	r3, r1, r3
 1928 14ec 0993     		str	r3, [sp, #36]
 1929 14ee 379B     		ldr	r3, [sp, #220]
 1930 14f0 1B92     		str	r2, [sp, #108]
 1931 14f2 5C08     		lsrs	r4, r3, #1
 1932 14f4 1D9B     		ldr	r3, [sp, #116]
 1933 14f6 379A     		ldr	r2, [sp, #220]
 1934 14f8 44EAC374 		orr	r4, r4, r3, lsl #31
 1935 14fc 5B08     		lsrs	r3, r3, #1
 1936 14fe 43EAC273 		orr	r3, r3, r2, lsl #31
 1937 1502 100A     		lsrs	r0, r2, #8
 1938 1504 1D9A     		ldr	r2, [sp, #116]
 1939 1506 40EA0260 		orr	r0, r0, r2, lsl #24
 1940 150a 110A     		lsrs	r1, r2, #8
 1941 150c 379A     		ldr	r2, [sp, #220]
 1942 150e 6040     		eors	r0, r0, r4
 1943 1510 41EA0261 		orr	r1, r1, r2, lsl #24
 1944 1514 5940     		eors	r1, r1, r3
 1945 1516 1D9B     		ldr	r3, [sp, #116]
ARM GAS  /tmp/ccxnUvyY.s 			page 35


 1946 1518 D209     		lsrs	r2, r2, #7
 1947 151a 42EA4362 		orr	r2, r2, r3, lsl #25
 1948 151e 4240     		eors	r2, r2, r0
 1949 1520 81EAD311 		eor	r1, r1, r3, lsr #7
 1950 1524 2F98     		ldr	r0, [sp, #188]
 1951 1526 339B     		ldr	r3, [sp, #204]
 1952 1528 1818     		adds	r0, r3, r0
 1953 152a 1C9B     		ldr	r3, [sp, #112]
 1954 152c 259C     		ldr	r4, [sp, #148]
 1955 152e 089E     		ldr	r6, [sp, #32]
 1956 1530 43EB0403 		adc	r3, r3, r4
 1957 1534 1018     		adds	r0, r2, r0
 1958 1536 41EB0301 		adc	r1, r1, r3
 1959 153a 1A9B     		ldr	r3, [sp, #104]
 1960 153c 1A9A     		ldr	r2, [sp, #104]
 1961 153e DD0C     		lsrs	r5, r3, #19
 1962 1540 04E0     		b	.L20
 1963              	.L21:
 1964 1542 00BF     		.align	2
 1965              	.L19:
 1966 1544 942669CF 		.word	-815192428
 1967 1548 74F19BC1 		.word	-1046744716
 1968              	.L20:
 1969 154c 089B     		ldr	r3, [sp, #32]
 1970 154e 45EA4335 		orr	r5, r5, r3, lsl #13
 1971 1552 DB0C     		lsrs	r3, r3, #19
 1972 1554 43EA4233 		orr	r3, r3, r2, lsl #13
 1973 1558 089A     		ldr	r2, [sp, #32]
 1974 155a D400     		lsls	r4, r2, #3
 1975 155c 1A9A     		ldr	r2, [sp, #104]
 1976 155e 44EA5274 		orr	r4, r4, r2, lsr #29
 1977 1562 6340     		eors	r3, r3, r4
 1978 1564 D200     		lsls	r2, r2, #3
 1979 1566 1A9C     		ldr	r4, [sp, #104]
 1980 1568 42EA5672 		orr	r2, r2, r6, lsr #29
 1981 156c 6A40     		eors	r2, r2, r5
 1982 156e A509     		lsrs	r5, r4, #6
 1983 1570 45EA8665 		orr	r5, r5, r6, lsl #26
 1984 1574 6A40     		eors	r2, r2, r5
 1985 1576 1218     		adds	r2, r2, r0
 1986 1578 83EA9613 		eor	r3, r3, r6, lsr #6
 1987 157c 41EB0303 		adc	r3, r1, r3
 1988 1580 0A93     		str	r3, [sp, #40]
 1989 1582 389B     		ldr	r3, [sp, #224]
 1990 1584 1C92     		str	r2, [sp, #112]
 1991 1586 5C08     		lsrs	r4, r3, #1
 1992 1588 1E9B     		ldr	r3, [sp, #120]
 1993 158a 389A     		ldr	r2, [sp, #224]
 1994 158c 44EAC374 		orr	r4, r4, r3, lsl #31
 1995 1590 5B08     		lsrs	r3, r3, #1
 1996 1592 43EAC273 		orr	r3, r3, r2, lsl #31
 1997 1596 100A     		lsrs	r0, r2, #8
 1998 1598 1E9A     		ldr	r2, [sp, #120]
 1999 159a 099E     		ldr	r6, [sp, #36]
 2000 159c 40EA0260 		orr	r0, r0, r2, lsl #24
 2001 15a0 110A     		lsrs	r1, r2, #8
 2002 15a2 389A     		ldr	r2, [sp, #224]
ARM GAS  /tmp/ccxnUvyY.s 			page 36


 2003 15a4 6040     		eors	r0, r0, r4
 2004 15a6 41EA0261 		orr	r1, r1, r2, lsl #24
 2005 15aa 5940     		eors	r1, r1, r3
 2006 15ac 1E9B     		ldr	r3, [sp, #120]
 2007 15ae D209     		lsrs	r2, r2, #7
 2008 15b0 42EA4362 		orr	r2, r2, r3, lsl #25
 2009 15b4 4240     		eors	r2, r2, r0
 2010 15b6 81EAD311 		eor	r1, r1, r3, lsr #7
 2011 15ba 1698     		ldr	r0, [sp, #88]
 2012 15bc 379B     		ldr	r3, [sp, #220]
 2013 15be 029C     		ldr	r4, [sp, #8]
 2014 15c0 1818     		adds	r0, r3, r0
 2015 15c2 1D9B     		ldr	r3, [sp, #116]
 2016 15c4 43EB0403 		adc	r3, r3, r4
 2017 15c8 1018     		adds	r0, r2, r0
 2018 15ca 41EB0301 		adc	r1, r1, r3
 2019 15ce 1B9B     		ldr	r3, [sp, #108]
 2020 15d0 1B9A     		ldr	r2, [sp, #108]
 2021 15d2 DD0C     		lsrs	r5, r3, #19
 2022 15d4 099B     		ldr	r3, [sp, #36]
 2023 15d6 45EA4335 		orr	r5, r5, r3, lsl #13
 2024 15da DB0C     		lsrs	r3, r3, #19
 2025 15dc 43EA4233 		orr	r3, r3, r2, lsl #13
 2026 15e0 099A     		ldr	r2, [sp, #36]
 2027 15e2 D400     		lsls	r4, r2, #3
 2028 15e4 1B9A     		ldr	r2, [sp, #108]
 2029 15e6 44EA5274 		orr	r4, r4, r2, lsr #29
 2030 15ea 6340     		eors	r3, r3, r4
 2031 15ec D200     		lsls	r2, r2, #3
 2032 15ee 1B9C     		ldr	r4, [sp, #108]
 2033 15f0 42EA5672 		orr	r2, r2, r6, lsr #29
 2034 15f4 6A40     		eors	r2, r2, r5
 2035 15f6 A509     		lsrs	r5, r4, #6
 2036 15f8 45EA8665 		orr	r5, r5, r6, lsl #26
 2037 15fc 6A40     		eors	r2, r2, r5
 2038 15fe 1218     		adds	r2, r2, r0
 2039 1600 83EA9613 		eor	r3, r3, r6, lsr #6
 2040 1604 41EB0303 		adc	r3, r1, r3
 2041 1608 0B93     		str	r3, [sp, #44]
 2042 160a 399B     		ldr	r3, [sp, #228]
 2043 160c 1D92     		str	r2, [sp, #116]
 2044 160e 5C08     		lsrs	r4, r3, #1
 2045 1610 1F9B     		ldr	r3, [sp, #124]
 2046 1612 399A     		ldr	r2, [sp, #228]
 2047 1614 44EAC374 		orr	r4, r4, r3, lsl #31
 2048 1618 5B08     		lsrs	r3, r3, #1
 2049 161a 43EAC273 		orr	r3, r3, r2, lsl #31
 2050 161e 100A     		lsrs	r0, r2, #8
 2051 1620 1F9A     		ldr	r2, [sp, #124]
 2052 1622 0A9E     		ldr	r6, [sp, #40]
 2053 1624 40EA0260 		orr	r0, r0, r2, lsl #24
 2054 1628 110A     		lsrs	r1, r2, #8
 2055 162a 399A     		ldr	r2, [sp, #228]
 2056 162c 6040     		eors	r0, r0, r4
 2057 162e 41EA0261 		orr	r1, r1, r2, lsl #24
 2058 1632 5940     		eors	r1, r1, r3
 2059 1634 1F9B     		ldr	r3, [sp, #124]
ARM GAS  /tmp/ccxnUvyY.s 			page 37


 2060 1636 D209     		lsrs	r2, r2, #7
 2061 1638 42EA4362 		orr	r2, r2, r3, lsl #25
 2062 163c 4240     		eors	r2, r2, r0
 2063 163e 81EAD311 		eor	r1, r1, r3, lsr #7
 2064 1642 1798     		ldr	r0, [sp, #92]
 2065 1644 389B     		ldr	r3, [sp, #224]
 2066 1646 039C     		ldr	r4, [sp, #12]
 2067 1648 1818     		adds	r0, r3, r0
 2068 164a 1E9B     		ldr	r3, [sp, #120]
 2069 164c 43EB0403 		adc	r3, r3, r4
 2070 1650 1018     		adds	r0, r2, r0
 2071 1652 41EB0301 		adc	r1, r1, r3
 2072 1656 1C9B     		ldr	r3, [sp, #112]
 2073 1658 1C9A     		ldr	r2, [sp, #112]
 2074 165a DD0C     		lsrs	r5, r3, #19
 2075 165c 0A9B     		ldr	r3, [sp, #40]
 2076 165e 45EA4335 		orr	r5, r5, r3, lsl #13
 2077 1662 DB0C     		lsrs	r3, r3, #19
 2078 1664 43EA4233 		orr	r3, r3, r2, lsl #13
 2079 1668 0A9A     		ldr	r2, [sp, #40]
 2080 166a D400     		lsls	r4, r2, #3
 2081 166c 1C9A     		ldr	r2, [sp, #112]
 2082 166e 44EA5274 		orr	r4, r4, r2, lsr #29
 2083 1672 6340     		eors	r3, r3, r4
 2084 1674 D200     		lsls	r2, r2, #3
 2085 1676 1C9C     		ldr	r4, [sp, #112]
 2086 1678 42EA5672 		orr	r2, r2, r6, lsr #29
 2087 167c 6A40     		eors	r2, r2, r5
 2088 167e A509     		lsrs	r5, r4, #6
 2089 1680 45EA8665 		orr	r5, r5, r6, lsl #26
 2090 1684 6A40     		eors	r2, r2, r5
 2091 1686 1218     		adds	r2, r2, r0
 2092 1688 83EA9613 		eor	r3, r3, r6, lsr #6
 2093 168c 41EB0303 		adc	r3, r1, r3
 2094 1690 0C93     		str	r3, [sp, #48]
 2095 1692 3A9B     		ldr	r3, [sp, #232]
 2096 1694 1E92     		str	r2, [sp, #120]
 2097 1696 5A08     		lsrs	r2, r3, #1
 2098 1698 209B     		ldr	r3, [sp, #128]
 2099 169a 3A99     		ldr	r1, [sp, #232]
 2100 169c 42EAC372 		orr	r2, r2, r3, lsl #31
 2101 16a0 5B08     		lsrs	r3, r3, #1
 2102 16a2 43EAC173 		orr	r3, r3, r1, lsl #31
 2103 16a6 080A     		lsrs	r0, r1, #8
 2104 16a8 2099     		ldr	r1, [sp, #128]
 2105 16aa 3A9C     		ldr	r4, [sp, #232]
 2106 16ac 40EA0160 		orr	r0, r0, r1, lsl #24
 2107 16b0 090A     		lsrs	r1, r1, #8
 2108 16b2 41EA0461 		orr	r1, r1, r4, lsl #24
 2109 16b6 5940     		eors	r1, r1, r3
 2110 16b8 209B     		ldr	r3, [sp, #128]
 2111 16ba 5040     		eors	r0, r0, r2
 2112 16bc E209     		lsrs	r2, r4, #7
 2113 16be 42EA4362 		orr	r2, r2, r3, lsl #25
 2114 16c2 81EAD311 		eor	r1, r1, r3, lsr #7
 2115 16c6 399B     		ldr	r3, [sp, #228]
 2116 16c8 5040     		eors	r0, r0, r2
ARM GAS  /tmp/ccxnUvyY.s 			page 38


 2117 16ca C018     		adds	r0, r0, r3
 2118 16cc 1F9B     		ldr	r3, [sp, #124]
 2119 16ce 1D9A     		ldr	r2, [sp, #116]
 2120 16d0 43EB0101 		adc	r1, r3, r1
 2121 16d4 189B     		ldr	r3, [sp, #96]
 2122 16d6 0B9E     		ldr	r6, [sp, #44]
 2123 16d8 C018     		adds	r0, r0, r3
 2124 16da 069B     		ldr	r3, [sp, #24]
 2125 16dc 43EB0101 		adc	r1, r3, r1
 2126 16e0 1D9B     		ldr	r3, [sp, #116]
 2127 16e2 DD0C     		lsrs	r5, r3, #19
 2128 16e4 0B9B     		ldr	r3, [sp, #44]
 2129 16e6 45EA4335 		orr	r5, r5, r3, lsl #13
 2130 16ea DB0C     		lsrs	r3, r3, #19
 2131 16ec 43EA4233 		orr	r3, r3, r2, lsl #13
 2132 16f0 0B9A     		ldr	r2, [sp, #44]
 2133 16f2 D400     		lsls	r4, r2, #3
 2134 16f4 1D9A     		ldr	r2, [sp, #116]
 2135 16f6 44EA5274 		orr	r4, r4, r2, lsr #29
 2136 16fa 6340     		eors	r3, r3, r4
 2137 16fc D200     		lsls	r2, r2, #3
 2138 16fe 1D9C     		ldr	r4, [sp, #116]
 2139 1700 42EA5672 		orr	r2, r2, r6, lsr #29
 2140 1704 6A40     		eors	r2, r2, r5
 2141 1706 A509     		lsrs	r5, r4, #6
 2142 1708 45EA8665 		orr	r5, r5, r6, lsl #26
 2143 170c 6A40     		eors	r2, r2, r5
 2144 170e 1218     		adds	r2, r2, r0
 2145 1710 83EA9613 		eor	r3, r3, r6, lsr #6
 2146 1714 41EB0303 		adc	r3, r1, r3
 2147 1718 0D93     		str	r3, [sp, #52]
 2148 171a 219B     		ldr	r3, [sp, #132]
 2149 171c 1F92     		str	r2, [sp, #124]
 2150 171e 5A08     		lsrs	r2, r3, #1
 2151 1720 109B     		ldr	r3, [sp, #64]
 2152 1722 2199     		ldr	r1, [sp, #132]
 2153 1724 42EAC372 		orr	r2, r2, r3, lsl #31
 2154 1728 5B08     		lsrs	r3, r3, #1
 2155 172a 43EAC173 		orr	r3, r3, r1, lsl #31
 2156 172e 080A     		lsrs	r0, r1, #8
 2157 1730 1099     		ldr	r1, [sp, #64]
 2158 1732 219C     		ldr	r4, [sp, #132]
 2159 1734 40EA0160 		orr	r0, r0, r1, lsl #24
 2160 1738 090A     		lsrs	r1, r1, #8
 2161 173a 41EA0461 		orr	r1, r1, r4, lsl #24
 2162 173e 5940     		eors	r1, r1, r3
 2163 1740 109B     		ldr	r3, [sp, #64]
 2164 1742 5040     		eors	r0, r0, r2
 2165 1744 E209     		lsrs	r2, r4, #7
 2166 1746 42EA4362 		orr	r2, r2, r3, lsl #25
 2167 174a 81EAD311 		eor	r1, r1, r3, lsr #7
 2168 174e 3A9B     		ldr	r3, [sp, #232]
 2169 1750 5040     		eors	r0, r0, r2
 2170 1752 C018     		adds	r0, r0, r3
 2171 1754 209B     		ldr	r3, [sp, #128]
 2172 1756 1E9A     		ldr	r2, [sp, #120]
 2173 1758 43EB0101 		adc	r1, r3, r1
ARM GAS  /tmp/ccxnUvyY.s 			page 39


 2174 175c 199B     		ldr	r3, [sp, #100]
 2175 175e 0C9E     		ldr	r6, [sp, #48]
 2176 1760 C018     		adds	r0, r0, r3
 2177 1762 079B     		ldr	r3, [sp, #28]
 2178 1764 43EB0101 		adc	r1, r3, r1
 2179 1768 1E9B     		ldr	r3, [sp, #120]
 2180 176a DD0C     		lsrs	r5, r3, #19
 2181 176c 0C9B     		ldr	r3, [sp, #48]
 2182 176e 45EA4335 		orr	r5, r5, r3, lsl #13
 2183 1772 DB0C     		lsrs	r3, r3, #19
 2184 1774 43EA4233 		orr	r3, r3, r2, lsl #13
 2185 1778 0C9A     		ldr	r2, [sp, #48]
 2186 177a D400     		lsls	r4, r2, #3
 2187 177c 1E9A     		ldr	r2, [sp, #120]
 2188 177e 44EA5274 		orr	r4, r4, r2, lsr #29
 2189 1782 6340     		eors	r3, r3, r4
 2190 1784 D200     		lsls	r2, r2, #3
 2191 1786 1E9C     		ldr	r4, [sp, #120]
 2192 1788 42EA5672 		orr	r2, r2, r6, lsr #29
 2193 178c 6A40     		eors	r2, r2, r5
 2194 178e A509     		lsrs	r5, r4, #6
 2195 1790 45EA8665 		orr	r5, r5, r6, lsl #26
 2196 1794 6A40     		eors	r2, r2, r5
 2197 1796 1218     		adds	r2, r2, r0
 2198 1798 83EA9613 		eor	r3, r3, r6, lsr #6
 2199 179c 41EB0303 		adc	r3, r1, r3
 2200 17a0 0E93     		str	r3, [sp, #56]
 2201 17a2 229B     		ldr	r3, [sp, #136]
 2202 17a4 2092     		str	r2, [sp, #128]
 2203 17a6 5A08     		lsrs	r2, r3, #1
 2204 17a8 119B     		ldr	r3, [sp, #68]
 2205 17aa 2299     		ldr	r1, [sp, #136]
 2206 17ac 42EAC372 		orr	r2, r2, r3, lsl #31
 2207 17b0 5B08     		lsrs	r3, r3, #1
 2208 17b2 43EAC173 		orr	r3, r3, r1, lsl #31
 2209 17b6 080A     		lsrs	r0, r1, #8
 2210 17b8 1199     		ldr	r1, [sp, #68]
 2211 17ba 229C     		ldr	r4, [sp, #136]
 2212 17bc 40EA0160 		orr	r0, r0, r1, lsl #24
 2213 17c0 090A     		lsrs	r1, r1, #8
 2214 17c2 41EA0461 		orr	r1, r1, r4, lsl #24
 2215 17c6 5940     		eors	r1, r1, r3
 2216 17c8 119B     		ldr	r3, [sp, #68]
 2217 17ca 5040     		eors	r0, r0, r2
 2218 17cc E209     		lsrs	r2, r4, #7
 2219 17ce 42EA4362 		orr	r2, r2, r3, lsl #25
 2220 17d2 81EAD311 		eor	r1, r1, r3, lsr #7
 2221 17d6 219B     		ldr	r3, [sp, #132]
 2222 17d8 5040     		eors	r0, r0, r2
 2223 17da C018     		adds	r0, r0, r3
 2224 17dc 109B     		ldr	r3, [sp, #64]
 2225 17de 43EB0101 		adc	r1, r3, r1
 2226 17e2 1A9B     		ldr	r3, [sp, #104]
 2227 17e4 C018     		adds	r0, r0, r3
 2228 17e6 089B     		ldr	r3, [sp, #32]
 2229 17e8 43EB0101 		adc	r1, r3, r1
 2230 17ec 1F9B     		ldr	r3, [sp, #124]
ARM GAS  /tmp/ccxnUvyY.s 			page 40


 2231 17ee 1F9A     		ldr	r2, [sp, #124]
 2232 17f0 DD0C     		lsrs	r5, r3, #19
 2233 17f2 0D9B     		ldr	r3, [sp, #52]
 2234 17f4 0D9E     		ldr	r6, [sp, #52]
 2235 17f6 45EA4335 		orr	r5, r5, r3, lsl #13
 2236 17fa DB0C     		lsrs	r3, r3, #19
 2237 17fc 43EA4233 		orr	r3, r3, r2, lsl #13
 2238 1800 0D9A     		ldr	r2, [sp, #52]
 2239 1802 D400     		lsls	r4, r2, #3
 2240 1804 1F9A     		ldr	r2, [sp, #124]
 2241 1806 44EA5274 		orr	r4, r4, r2, lsr #29
 2242 180a 6340     		eors	r3, r3, r4
 2243 180c D200     		lsls	r2, r2, #3
 2244 180e 1F9C     		ldr	r4, [sp, #124]
 2245 1810 42EA5672 		orr	r2, r2, r6, lsr #29
 2246 1814 6A40     		eors	r2, r2, r5
 2247 1816 A509     		lsrs	r5, r4, #6
 2248 1818 45EA8665 		orr	r5, r5, r6, lsl #26
 2249 181c 6A40     		eors	r2, r2, r5
 2250 181e 1218     		adds	r2, r2, r0
 2251 1820 83EA9613 		eor	r3, r3, r6, lsr #6
 2252 1824 41EB0303 		adc	r3, r1, r3
 2253 1828 0F93     		str	r3, [sp, #60]
 2254 182a 239B     		ldr	r3, [sp, #140]
 2255 182c 2192     		str	r2, [sp, #132]
 2256 182e 5A08     		lsrs	r2, r3, #1
 2257 1830 129B     		ldr	r3, [sp, #72]
 2258 1832 2399     		ldr	r1, [sp, #140]
 2259 1834 42EAC372 		orr	r2, r2, r3, lsl #31
 2260 1838 5B08     		lsrs	r3, r3, #1
 2261 183a 43EAC173 		orr	r3, r3, r1, lsl #31
 2262 183e 080A     		lsrs	r0, r1, #8
 2263 1840 1299     		ldr	r1, [sp, #72]
 2264 1842 239C     		ldr	r4, [sp, #140]
 2265 1844 40EA0160 		orr	r0, r0, r1, lsl #24
 2266 1848 090A     		lsrs	r1, r1, #8
 2267 184a 41EA0461 		orr	r1, r1, r4, lsl #24
 2268 184e 5940     		eors	r1, r1, r3
 2269 1850 129B     		ldr	r3, [sp, #72]
 2270 1852 5040     		eors	r0, r0, r2
 2271 1854 E209     		lsrs	r2, r4, #7
 2272 1856 42EA4362 		orr	r2, r2, r3, lsl #25
 2273 185a 81EAD311 		eor	r1, r1, r3, lsr #7
 2274 185e 229B     		ldr	r3, [sp, #136]
 2275 1860 5040     		eors	r0, r0, r2
 2276 1862 C018     		adds	r0, r0, r3
 2277 1864 119B     		ldr	r3, [sp, #68]
 2278 1866 209A     		ldr	r2, [sp, #128]
 2279 1868 43EB0101 		adc	r1, r3, r1
 2280 186c 1B9B     		ldr	r3, [sp, #108]
 2281 186e 0E9E     		ldr	r6, [sp, #56]
 2282 1870 C018     		adds	r0, r0, r3
 2283 1872 099B     		ldr	r3, [sp, #36]
 2284 1874 43EB0101 		adc	r1, r3, r1
 2285 1878 209B     		ldr	r3, [sp, #128]
 2286 187a DD0C     		lsrs	r5, r3, #19
 2287 187c 0E9B     		ldr	r3, [sp, #56]
ARM GAS  /tmp/ccxnUvyY.s 			page 41


 2288 187e 45EA4335 		orr	r5, r5, r3, lsl #13
 2289 1882 DB0C     		lsrs	r3, r3, #19
 2290 1884 43EA4233 		orr	r3, r3, r2, lsl #13
 2291 1888 0E9A     		ldr	r2, [sp, #56]
 2292 188a D400     		lsls	r4, r2, #3
 2293 188c 209A     		ldr	r2, [sp, #128]
 2294 188e 44EA5274 		orr	r4, r4, r2, lsr #29
 2295 1892 6340     		eors	r3, r3, r4
 2296 1894 D200     		lsls	r2, r2, #3
 2297 1896 209C     		ldr	r4, [sp, #128]
 2298 1898 42EA5672 		orr	r2, r2, r6, lsr #29
 2299 189c 6A40     		eors	r2, r2, r5
 2300 189e A509     		lsrs	r5, r4, #6
 2301 18a0 45EA8665 		orr	r5, r5, r6, lsl #26
 2302 18a4 6A40     		eors	r2, r2, r5
 2303 18a6 1218     		adds	r2, r2, r0
 2304 18a8 83EA9613 		eor	r3, r3, r6, lsr #6
 2305 18ac 41EB0303 		adc	r3, r1, r3
 2306 18b0 1093     		str	r3, [sp, #64]
 2307 18b2 249B     		ldr	r3, [sp, #144]
 2308 18b4 2292     		str	r2, [sp, #136]
 2309 18b6 5A08     		lsrs	r2, r3, #1
 2310 18b8 139B     		ldr	r3, [sp, #76]
 2311 18ba 2499     		ldr	r1, [sp, #144]
 2312 18bc 42EAC372 		orr	r2, r2, r3, lsl #31
 2313 18c0 5B08     		lsrs	r3, r3, #1
 2314 18c2 43EAC173 		orr	r3, r3, r1, lsl #31
 2315 18c6 080A     		lsrs	r0, r1, #8
 2316 18c8 1399     		ldr	r1, [sp, #76]
 2317 18ca 249C     		ldr	r4, [sp, #144]
 2318 18cc 40EA0160 		orr	r0, r0, r1, lsl #24
 2319 18d0 090A     		lsrs	r1, r1, #8
 2320 18d2 41EA0461 		orr	r1, r1, r4, lsl #24
 2321 18d6 5940     		eors	r1, r1, r3
 2322 18d8 139B     		ldr	r3, [sp, #76]
 2323 18da 5040     		eors	r0, r0, r2
 2324 18dc E209     		lsrs	r2, r4, #7
 2325 18de 42EA4362 		orr	r2, r2, r3, lsl #25
 2326 18e2 81EAD311 		eor	r1, r1, r3, lsr #7
 2327 18e6 239B     		ldr	r3, [sp, #140]
 2328 18e8 5040     		eors	r0, r0, r2
 2329 18ea C018     		adds	r0, r0, r3
 2330 18ec 129B     		ldr	r3, [sp, #72]
 2331 18ee 219A     		ldr	r2, [sp, #132]
 2332 18f0 43EB0101 		adc	r1, r3, r1
 2333 18f4 1C9B     		ldr	r3, [sp, #112]
 2334 18f6 0F9E     		ldr	r6, [sp, #60]
 2335 18f8 C018     		adds	r0, r0, r3
 2336 18fa 0A9B     		ldr	r3, [sp, #40]
 2337 18fc 43EB0101 		adc	r1, r3, r1
 2338 1900 219B     		ldr	r3, [sp, #132]
 2339 1902 DD0C     		lsrs	r5, r3, #19
 2340 1904 0F9B     		ldr	r3, [sp, #60]
 2341 1906 45EA4335 		orr	r5, r5, r3, lsl #13
 2342 190a DB0C     		lsrs	r3, r3, #19
 2343 190c 43EA4233 		orr	r3, r3, r2, lsl #13
 2344 1910 0F9A     		ldr	r2, [sp, #60]
ARM GAS  /tmp/ccxnUvyY.s 			page 42


 2345 1912 D400     		lsls	r4, r2, #3
 2346 1914 219A     		ldr	r2, [sp, #132]
 2347 1916 44EA5274 		orr	r4, r4, r2, lsr #29
 2348 191a 6340     		eors	r3, r3, r4
 2349 191c D200     		lsls	r2, r2, #3
 2350 191e 219C     		ldr	r4, [sp, #132]
 2351 1920 42EA5672 		orr	r2, r2, r6, lsr #29
 2352 1924 6A40     		eors	r2, r2, r5
 2353 1926 A509     		lsrs	r5, r4, #6
 2354 1928 45EA8665 		orr	r5, r5, r6, lsl #26
 2355 192c 6A40     		eors	r2, r2, r5
 2356 192e 1218     		adds	r2, r2, r0
 2357 1930 83EA9613 		eor	r3, r3, r6, lsr #6
 2358 1934 41EB0303 		adc	r3, r1, r3
 2359 1938 1193     		str	r3, [sp, #68]
 2360 193a 2F9B     		ldr	r3, [sp, #188]
 2361 193c 2392     		str	r2, [sp, #140]
 2362 193e 5A08     		lsrs	r2, r3, #1
 2363 1940 259B     		ldr	r3, [sp, #148]
 2364 1942 2F99     		ldr	r1, [sp, #188]
 2365 1944 42EAC372 		orr	r2, r2, r3, lsl #31
 2366 1948 5B08     		lsrs	r3, r3, #1
 2367 194a 43EAC173 		orr	r3, r3, r1, lsl #31
 2368 194e 080A     		lsrs	r0, r1, #8
 2369 1950 2599     		ldr	r1, [sp, #148]
 2370 1952 2F9C     		ldr	r4, [sp, #188]
 2371 1954 40EA0160 		orr	r0, r0, r1, lsl #24
 2372 1958 090A     		lsrs	r1, r1, #8
 2373 195a 41EA0461 		orr	r1, r1, r4, lsl #24
 2374 195e 5940     		eors	r1, r1, r3
 2375 1960 259B     		ldr	r3, [sp, #148]
 2376 1962 5040     		eors	r0, r0, r2
 2377 1964 E209     		lsrs	r2, r4, #7
 2378 1966 42EA4362 		orr	r2, r2, r3, lsl #25
 2379 196a 81EAD311 		eor	r1, r1, r3, lsr #7
 2380 196e 249B     		ldr	r3, [sp, #144]
 2381 1970 5040     		eors	r0, r0, r2
 2382 1972 C018     		adds	r0, r0, r3
 2383 1974 139B     		ldr	r3, [sp, #76]
 2384 1976 229A     		ldr	r2, [sp, #136]
 2385 1978 43EB0101 		adc	r1, r3, r1
 2386 197c 1D9B     		ldr	r3, [sp, #116]
 2387 197e 109E     		ldr	r6, [sp, #64]
 2388 1980 C018     		adds	r0, r0, r3
 2389 1982 0B9B     		ldr	r3, [sp, #44]
 2390 1984 43EB0101 		adc	r1, r3, r1
 2391 1988 229B     		ldr	r3, [sp, #136]
 2392 198a DD0C     		lsrs	r5, r3, #19
 2393 198c 109B     		ldr	r3, [sp, #64]
 2394 198e 45EA4335 		orr	r5, r5, r3, lsl #13
 2395 1992 DB0C     		lsrs	r3, r3, #19
 2396 1994 43EA4233 		orr	r3, r3, r2, lsl #13
 2397 1998 109A     		ldr	r2, [sp, #64]
 2398 199a D400     		lsls	r4, r2, #3
 2399 199c 229A     		ldr	r2, [sp, #136]
 2400 199e 44EA5274 		orr	r4, r4, r2, lsr #29
 2401 19a2 6340     		eors	r3, r3, r4
ARM GAS  /tmp/ccxnUvyY.s 			page 43


 2402 19a4 D200     		lsls	r2, r2, #3
 2403 19a6 229C     		ldr	r4, [sp, #136]
 2404 19a8 42EA5672 		orr	r2, r2, r6, lsr #29
 2405 19ac 6A40     		eors	r2, r2, r5
 2406 19ae A509     		lsrs	r5, r4, #6
 2407 19b0 45EA8665 		orr	r5, r5, r6, lsl #26
 2408 19b4 6A40     		eors	r2, r2, r5
 2409 19b6 1218     		adds	r2, r2, r0
 2410 19b8 83EA9613 		eor	r3, r3, r6, lsr #6
 2411 19bc 41EB0303 		adc	r3, r1, r3
 2412 19c0 2492     		str	r2, [sp, #144]
 2413 19c2 1293     		str	r3, [sp, #72]
 2414 19c4 169B     		ldr	r3, [sp, #88]
 2415 19c6 1699     		ldr	r1, [sp, #88]
 2416 19c8 5A08     		lsrs	r2, r3, #1
 2417 19ca 029B     		ldr	r3, [sp, #8]
 2418 19cc 080A     		lsrs	r0, r1, #8
 2419 19ce 42EAC372 		orr	r2, r2, r3, lsl #31
 2420 19d2 5B08     		lsrs	r3, r3, #1
 2421 19d4 43EAC173 		orr	r3, r3, r1, lsl #31
 2422 19d8 0299     		ldr	r1, [sp, #8]
 2423 19da 169C     		ldr	r4, [sp, #88]
 2424 19dc 40EA0160 		orr	r0, r0, r1, lsl #24
 2425 19e0 090A     		lsrs	r1, r1, #8
 2426 19e2 41EA0461 		orr	r1, r1, r4, lsl #24
 2427 19e6 5940     		eors	r1, r1, r3
 2428 19e8 029B     		ldr	r3, [sp, #8]
 2429 19ea 5040     		eors	r0, r0, r2
 2430 19ec E209     		lsrs	r2, r4, #7
 2431 19ee 42EA4362 		orr	r2, r2, r3, lsl #25
 2432 19f2 81EAD311 		eor	r1, r1, r3, lsr #7
 2433 19f6 2F9B     		ldr	r3, [sp, #188]
 2434 19f8 5040     		eors	r0, r0, r2
 2435 19fa C018     		adds	r0, r0, r3
 2436 19fc 259B     		ldr	r3, [sp, #148]
 2437 19fe 239A     		ldr	r2, [sp, #140]
 2438 1a00 43EB0101 		adc	r1, r3, r1
 2439 1a04 1E9B     		ldr	r3, [sp, #120]
 2440 1a06 119E     		ldr	r6, [sp, #68]
 2441 1a08 C018     		adds	r0, r0, r3
 2442 1a0a 0C9B     		ldr	r3, [sp, #48]
 2443 1a0c 43EB0101 		adc	r1, r3, r1
 2444 1a10 239B     		ldr	r3, [sp, #140]
 2445 1a12 DD0C     		lsrs	r5, r3, #19
 2446 1a14 119B     		ldr	r3, [sp, #68]
 2447 1a16 45EA4335 		orr	r5, r5, r3, lsl #13
 2448 1a1a DB0C     		lsrs	r3, r3, #19
 2449 1a1c 43EA4233 		orr	r3, r3, r2, lsl #13
 2450 1a20 119A     		ldr	r2, [sp, #68]
 2451 1a22 D400     		lsls	r4, r2, #3
 2452 1a24 239A     		ldr	r2, [sp, #140]
 2453 1a26 44EA5274 		orr	r4, r4, r2, lsr #29
 2454 1a2a 6340     		eors	r3, r3, r4
 2455 1a2c D200     		lsls	r2, r2, #3
 2456 1a2e 239C     		ldr	r4, [sp, #140]
 2457 1a30 42EA5672 		orr	r2, r2, r6, lsr #29
 2458 1a34 6A40     		eors	r2, r2, r5
ARM GAS  /tmp/ccxnUvyY.s 			page 44


 2459 1a36 A509     		lsrs	r5, r4, #6
 2460 1a38 45EA8665 		orr	r5, r5, r6, lsl #26
 2461 1a3c 6A40     		eors	r2, r2, r5
 2462 1a3e 1218     		adds	r2, r2, r0
 2463 1a40 83EA9613 		eor	r3, r3, r6, lsr #6
 2464 1a44 41EB0303 		adc	r3, r1, r3
 2465 1a48 1393     		str	r3, [sp, #76]
 2466 1a4a 179B     		ldr	r3, [sp, #92]
 2467 1a4c 2592     		str	r2, [sp, #148]
 2468 1a4e 5A08     		lsrs	r2, r3, #1
 2469 1a50 039B     		ldr	r3, [sp, #12]
 2470 1a52 1799     		ldr	r1, [sp, #92]
 2471 1a54 42EAC372 		orr	r2, r2, r3, lsl #31
 2472 1a58 5B08     		lsrs	r3, r3, #1
 2473 1a5a 43EAC173 		orr	r3, r3, r1, lsl #31
 2474 1a5e 080A     		lsrs	r0, r1, #8
 2475 1a60 0399     		ldr	r1, [sp, #12]
 2476 1a62 179C     		ldr	r4, [sp, #92]
 2477 1a64 40EA0160 		orr	r0, r0, r1, lsl #24
 2478 1a68 090A     		lsrs	r1, r1, #8
 2479 1a6a 41EA0461 		orr	r1, r1, r4, lsl #24
 2480 1a6e 5940     		eors	r1, r1, r3
 2481 1a70 039B     		ldr	r3, [sp, #12]
 2482 1a72 5040     		eors	r0, r0, r2
 2483 1a74 E209     		lsrs	r2, r4, #7
 2484 1a76 42EA4362 		orr	r2, r2, r3, lsl #25
 2485 1a7a 81EAD311 		eor	r1, r1, r3, lsr #7
 2486 1a7e 169B     		ldr	r3, [sp, #88]
 2487 1a80 5040     		eors	r0, r0, r2
 2488 1a82 C018     		adds	r0, r0, r3
 2489 1a84 029B     		ldr	r3, [sp, #8]
 2490 1a86 43EB0101 		adc	r1, r3, r1
 2491 1a8a 1F9B     		ldr	r3, [sp, #124]
 2492 1a8c C018     		adds	r0, r0, r3
 2493 1a8e 0D9B     		ldr	r3, [sp, #52]
 2494 1a90 43EB0101 		adc	r1, r3, r1
 2495 1a94 249B     		ldr	r3, [sp, #144]
 2496 1a96 DD0C     		lsrs	r5, r3, #19
 2497 1a98 129B     		ldr	r3, [sp, #72]
 2498 1a9a 249A     		ldr	r2, [sp, #144]
 2499 1a9c 45EA4335 		orr	r5, r5, r3, lsl #13
 2500 1aa0 DB0C     		lsrs	r3, r3, #19
 2501 1aa2 43EA4233 		orr	r3, r3, r2, lsl #13
 2502 1aa6 129A     		ldr	r2, [sp, #72]
 2503 1aa8 129E     		ldr	r6, [sp, #72]
 2504 1aaa D400     		lsls	r4, r2, #3
 2505 1aac 249A     		ldr	r2, [sp, #144]
 2506 1aae 44EA5274 		orr	r4, r4, r2, lsr #29
 2507 1ab2 6340     		eors	r3, r3, r4
 2508 1ab4 D200     		lsls	r2, r2, #3
 2509 1ab6 249C     		ldr	r4, [sp, #144]
 2510 1ab8 42EA5672 		orr	r2, r2, r6, lsr #29
 2511 1abc 6A40     		eors	r2, r2, r5
 2512 1abe A509     		lsrs	r5, r4, #6
 2513 1ac0 45EA8665 		orr	r5, r5, r6, lsl #26
 2514 1ac4 6A40     		eors	r2, r2, r5
 2515 1ac6 1218     		adds	r2, r2, r0
ARM GAS  /tmp/ccxnUvyY.s 			page 45


 2516 1ac8 83EA9613 		eor	r3, r3, r6, lsr #6
 2517 1acc 41EB0303 		adc	r3, r1, r3
 2518 1ad0 0293     		str	r3, [sp, #8]
 2519 1ad2 189B     		ldr	r3, [sp, #96]
 2520 1ad4 1692     		str	r2, [sp, #88]
 2521 1ad6 5A08     		lsrs	r2, r3, #1
 2522 1ad8 069B     		ldr	r3, [sp, #24]
 2523 1ada 1899     		ldr	r1, [sp, #96]
 2524 1adc 42EAC372 		orr	r2, r2, r3, lsl #31
 2525 1ae0 5B08     		lsrs	r3, r3, #1
 2526 1ae2 43EAC173 		orr	r3, r3, r1, lsl #31
 2527 1ae6 080A     		lsrs	r0, r1, #8
 2528 1ae8 0699     		ldr	r1, [sp, #24]
 2529 1aea 189C     		ldr	r4, [sp, #96]
 2530 1aec 40EA0160 		orr	r0, r0, r1, lsl #24
 2531 1af0 090A     		lsrs	r1, r1, #8
 2532 1af2 41EA0461 		orr	r1, r1, r4, lsl #24
 2533 1af6 5940     		eors	r1, r1, r3
 2534 1af8 069B     		ldr	r3, [sp, #24]
 2535 1afa 5040     		eors	r0, r0, r2
 2536 1afc E209     		lsrs	r2, r4, #7
 2537 1afe 42EA4362 		orr	r2, r2, r3, lsl #25
 2538 1b02 81EAD311 		eor	r1, r1, r3, lsr #7
 2539 1b06 179B     		ldr	r3, [sp, #92]
 2540 1b08 5040     		eors	r0, r0, r2
 2541 1b0a C018     		adds	r0, r0, r3
 2542 1b0c 039B     		ldr	r3, [sp, #12]
 2543 1b0e 259A     		ldr	r2, [sp, #148]
 2544 1b10 43EB0101 		adc	r1, r3, r1
 2545 1b14 209B     		ldr	r3, [sp, #128]
 2546 1b16 139E     		ldr	r6, [sp, #76]
 2547 1b18 C018     		adds	r0, r0, r3
 2548 1b1a 0E9B     		ldr	r3, [sp, #56]
 2549 1b1c 43EB0101 		adc	r1, r3, r1
 2550 1b20 259B     		ldr	r3, [sp, #148]
 2551 1b22 DD0C     		lsrs	r5, r3, #19
 2552 1b24 139B     		ldr	r3, [sp, #76]
 2553 1b26 45EA4335 		orr	r5, r5, r3, lsl #13
 2554 1b2a DB0C     		lsrs	r3, r3, #19
 2555 1b2c 43EA4233 		orr	r3, r3, r2, lsl #13
 2556 1b30 139A     		ldr	r2, [sp, #76]
 2557 1b32 D400     		lsls	r4, r2, #3
 2558 1b34 259A     		ldr	r2, [sp, #148]
 2559 1b36 44EA5274 		orr	r4, r4, r2, lsr #29
 2560 1b3a 6340     		eors	r3, r3, r4
 2561 1b3c D200     		lsls	r2, r2, #3
 2562 1b3e 259C     		ldr	r4, [sp, #148]
 2563 1b40 42EA5672 		orr	r2, r2, r6, lsr #29
 2564 1b44 6A40     		eors	r2, r2, r5
 2565 1b46 A509     		lsrs	r5, r4, #6
 2566 1b48 45EA8665 		orr	r5, r5, r6, lsl #26
 2567 1b4c 6A40     		eors	r2, r2, r5
 2568 1b4e 1218     		adds	r2, r2, r0
 2569 1b50 83EA9613 		eor	r3, r3, r6, lsr #6
 2570 1b54 41EB0303 		adc	r3, r1, r3
 2571 1b58 0393     		str	r3, [sp, #12]
 2572 1b5a 2D9B     		ldr	r3, [sp, #180]
ARM GAS  /tmp/ccxnUvyY.s 			page 46


 2573 1b5c 1792     		str	r2, [sp, #92]
 2574 1b5e 2E9A     		ldr	r2, [sp, #184]
 2575 1b60 9B0B     		lsrs	r3, r3, #14
 2576 1b62 43EA8243 		orr	r3, r3, r2, lsl #18
 2577 1b66 950B     		lsrs	r5, r2, #14
 2578 1b68 2D9A     		ldr	r2, [sp, #180]
 2579 1b6a 45EA8245 		orr	r5, r5, r2, lsl #18
 2580 1b6e 900C     		lsrs	r0, r2, #18
 2581 1b70 2E9A     		ldr	r2, [sp, #184]
 2582 1b72 40EA8231 		orr	r1, r0, r2, lsl #14
 2583 1b76 960C     		lsrs	r6, r2, #18
 2584 1b78 2D9A     		ldr	r2, [sp, #180]
 2585 1b7a 83EA0100 		eor	r0, r3, r1
 2586 1b7e 2E9B     		ldr	r3, [sp, #184]
 2587 1b80 46EA8232 		orr	r2, r6, r2, lsl #14
 2588 1b84 85EA0206 		eor	r6, r5, r2
 2589 1b88 DD05     		lsls	r5, r3, #23
 2590 1b8a 2D9B     		ldr	r3, [sp, #180]
 2591 1b8c 2E9A     		ldr	r2, [sp, #184]
 2592 1b8e 45EA5325 		orr	r5, r5, r3, lsr #9
 2593 1b92 DB05     		lsls	r3, r3, #23
 2594 1b94 43EA5223 		orr	r3, r3, r2, lsr #9
 2595 1b98 4340     		eors	r3, r3, r0
 2596 1b9a 189A     		ldr	r2, [sp, #96]
 2597 1b9c CF48     		ldr	r0, .L22
 2598 1b9e 7540     		eors	r5, r5, r6
 2599 1ba0 1018     		adds	r0, r2, r0
 2600 1ba2 CF4E     		ldr	r6, .L22+4
 2601 1ba4 069A     		ldr	r2, [sp, #24]
 2602 1ba6 46EB0206 		adc	r6, r6, r2
 2603 1baa 289A     		ldr	r2, [sp, #160]
 2604 1bac 8018     		adds	r0, r0, r2
 2605 1bae 299A     		ldr	r2, [sp, #164]
 2606 1bb0 42EB0606 		adc	r6, r2, r6
 2607 1bb4 2D9A     		ldr	r2, [sp, #180]
 2608 1bb6 1818     		adds	r0, r3, r0
 2609 1bb8 2A9B     		ldr	r3, [sp, #168]
 2610 1bba 45EB0606 		adc	r6, r5, r6
 2611 1bbe 23EA0204 		bic	r4, r3, r2
 2612 1bc2 2B9B     		ldr	r3, [sp, #172]
 2613 1bc4 2E9A     		ldr	r2, [sp, #184]
 2614 1bc6 23EA0202 		bic	r2, r3, r2
 2615 1bca DDE92C31 		ldrd	r3, r1, [sp, #176]
 2616 1bce 0B40     		ands	r3, r3, r1
 2617 1bd0 2E99     		ldr	r1, [sp, #184]
 2618 1bd2 6340     		eors	r3, r3, r4
 2619 1bd4 3940     		ands	r1, r1, r7
 2620 1bd6 C018     		adds	r0, r0, r3
 2621 1bd8 82EA0102 		eor	r2, r2, r1
 2622 1bdc 46EB0206 		adc	r6, r6, r2
 2623 1be0 4FEA1874 		lsr	r4, r8, #28
 2624 1be4 4FEA8872 		lsl	r2, r8, #30
 2625 1be8 42EA9902 		orr	r2, r2, r9, lsr #2
 2626 1bec 44EA0914 		orr	r4, r4, r9, lsl #4
 2627 1bf0 4FEA1973 		lsr	r3, r9, #28
 2628 1bf4 4FEA8971 		lsl	r1, r9, #30
 2629 1bf8 5440     		eors	r4, r4, r2
ARM GAS  /tmp/ccxnUvyY.s 			page 47


 2630 1bfa 4FEA4862 		lsl	r2, r8, #25
 2631 1bfe 41EA9801 		orr	r1, r1, r8, lsr #2
 2632 1c02 42EAD912 		orr	r2, r2, r9, lsr #7
 2633 1c06 43EA0813 		orr	r3, r3, r8, lsl #4
 2634 1c0a 4B40     		eors	r3, r3, r1
 2635 1c0c 5440     		eors	r4, r4, r2
 2636 1c0e 4FEA4961 		lsl	r1, r9, #25
 2637 1c12 279A     		ldr	r2, [sp, #156]
 2638 1c14 41EAD811 		orr	r1, r1, r8, lsr #7
 2639 1c18 4B40     		eors	r3, r3, r1
 2640 1c1a 82EA0A05 		eor	r5, r2, r10
 2641 1c1e 2799     		ldr	r1, [sp, #156]
 2642 1c20 8EEA0C02 		eor	r2, lr, ip
 2643 1c24 2893     		str	r3, [sp, #160]
 2644 1c26 02EA0802 		and	r2, r2, r8
 2645 1c2a 0EEA0C03 		and	r3, lr, ip
 2646 1c2e 05EA0905 		and	r5, r5, r9
 2647 1c32 5A40     		eors	r2, r2, r3
 2648 1c34 01EA0A01 		and	r1, r1, r10
 2649 1c38 289B     		ldr	r3, [sp, #160]
 2650 1c3a 6940     		eors	r1, r1, r5
 2651 1c3c 5B18     		adds	r3, r3, r1
 2652 1c3e 44EB0204 		adc	r4, r4, r2
 2653 1c42 1BEB0002 		adds	r2, fp, r0
 2654 1c46 2F92     		str	r2, [sp, #188]
 2655 1c48 269A     		ldr	r2, [sp, #152]
 2656 1c4a 2F99     		ldr	r1, [sp, #188]
 2657 1c4c 42EB0602 		adc	r2, r2, r6
 2658 1c50 C318     		adds	r3, r0, r3
 2659 1c52 2693     		str	r3, [sp, #152]
 2660 1c54 46EB0403 		adc	r3, r6, r4
 2661 1c58 2893     		str	r3, [sp, #160]
 2662 1c5a 2F9B     		ldr	r3, [sp, #188]
 2663 1c5c 3092     		str	r2, [sp, #192]
 2664 1c5e 9E0B     		lsrs	r6, r3, #14
 2665 1c60 2F9B     		ldr	r3, [sp, #188]
 2666 1c62 940B     		lsrs	r4, r2, #14
 2667 1c64 46EA8246 		orr	r6, r6, r2, lsl #18
 2668 1c68 44EA8344 		orr	r4, r4, r3, lsl #18
 2669 1c6c 9A0C     		lsrs	r2, r3, #18
 2670 1c6e 309B     		ldr	r3, [sp, #192]
 2671 1c70 9C48     		ldr	r0, .L22+8
 2672 1c72 42EA8332 		orr	r2, r2, r3, lsl #14
 2673 1c76 9B0C     		lsrs	r3, r3, #18
 2674 1c78 43EA8133 		orr	r3, r3, r1, lsl #14
 2675 1c7c 5C40     		eors	r4, r4, r3
 2676 1c7e 309B     		ldr	r3, [sp, #192]
 2677 1c80 5640     		eors	r6, r6, r2
 2678 1c82 DB05     		lsls	r3, r3, #23
 2679 1c84 43EA5123 		orr	r3, r3, r1, lsr #9
 2680 1c88 CA05     		lsls	r2, r1, #23
 2681 1c8a 3099     		ldr	r1, [sp, #192]
 2682 1c8c 5C40     		eors	r4, r4, r3
 2683 1c8e 42EA5122 		orr	r2, r2, r1, lsr #9
 2684 1c92 199B     		ldr	r3, [sp, #100]
 2685 1c94 5640     		eors	r6, r6, r2
 2686 1c96 944A     		ldr	r2, .L22+12
ARM GAS  /tmp/ccxnUvyY.s 			page 48


 2687 1c98 0CEA080B 		and	fp, ip, r8
 2688 1c9c 9A18     		adds	r2, r3, r2
 2689 1c9e 079B     		ldr	r3, [sp, #28]
 2690 1ca0 40EB0300 		adc	r0, r0, r3
 2691 1ca4 2A9B     		ldr	r3, [sp, #168]
 2692 1ca6 D218     		adds	r2, r2, r3
 2693 1ca8 2B9B     		ldr	r3, [sp, #172]
 2694 1caa 43EB0000 		adc	r0, r3, r0
 2695 1cae 2C9B     		ldr	r3, [sp, #176]
 2696 1cb0 B618     		adds	r6, r6, r2
 2697 1cb2 2F9A     		ldr	r2, [sp, #188]
 2698 1cb4 44EB0004 		adc	r4, r4, r0
 2699 1cb8 23EA0200 		bic	r0, r3, r2
 2700 1cbc 27EA0102 		bic	r2, r7, r1
 2701 1cc0 2D9B     		ldr	r3, [sp, #180]
 2702 1cc2 2F99     		ldr	r1, [sp, #188]
 2703 1cc4 309D     		ldr	r5, [sp, #192]
 2704 1cc6 0B40     		ands	r3, r3, r1
 2705 1cc8 2E99     		ldr	r1, [sp, #184]
 2706 1cca 4340     		eors	r3, r3, r0
 2707 1ccc 2940     		ands	r1, r1, r5
 2708 1cce F618     		adds	r6, r6, r3
 2709 1cd0 82EA0102 		eor	r2, r2, r1
 2710 1cd4 269B     		ldr	r3, [sp, #152]
 2711 1cd6 44EB0204 		adc	r4, r4, r2
 2712 1cda 289A     		ldr	r2, [sp, #160]
 2713 1cdc 1B0F     		lsrs	r3, r3, #28
 2714 1cde 43EA0213 		orr	r3, r3, r2, lsl #4
 2715 1ce2 100F     		lsrs	r0, r2, #28
 2716 1ce4 269A     		ldr	r2, [sp, #152]
 2717 1ce6 2699     		ldr	r1, [sp, #152]
 2718 1ce8 40EA0210 		orr	r0, r0, r2, lsl #4
 2719 1cec 289A     		ldr	r2, [sp, #160]
 2720 1cee 289D     		ldr	r5, [sp, #160]
 2721 1cf0 9207     		lsls	r2, r2, #30
 2722 1cf2 42EA9102 		orr	r2, r2, r1, lsr #2
 2723 1cf6 8907     		lsls	r1, r1, #30
 2724 1cf8 41EA9501 		orr	r1, r1, r5, lsr #2
 2725 1cfc 4B40     		eors	r3, r3, r1
 2726 1cfe 2699     		ldr	r1, [sp, #152]
 2727 1d00 5040     		eors	r0, r0, r2
 2728 1d02 6A06     		lsls	r2, r5, #25
 2729 1d04 42EAD112 		orr	r2, r2, r1, lsr #7
 2730 1d08 4906     		lsls	r1, r1, #25
 2731 1d0a 41EAD511 		orr	r1, r1, r5, lsr #7
 2732 1d0e 4B40     		eors	r3, r3, r1
 2733 1d10 2699     		ldr	r1, [sp, #152]
 2734 1d12 8AEA0905 		eor	r5, r10, r9
 2735 1d16 0D40     		ands	r5, r5, r1
 2736 1d18 2899     		ldr	r1, [sp, #160]
 2737 1d1a 5040     		eors	r0, r0, r2
 2738 1d1c 8CEA0802 		eor	r2, ip, r8
 2739 1d20 0A40     		ands	r2, r2, r1
 2740 1d22 0AEA0901 		and	r1, r10, r9
 2741 1d26 6940     		eors	r1, r1, r5
 2742 1d28 5B18     		adds	r3, r3, r1
 2743 1d2a 82EA0B02 		eor	r2, r2, fp
ARM GAS  /tmp/ccxnUvyY.s 			page 49


 2744 1d2e 40EB0200 		adc	r0, r0, r2
 2745 1d32 279A     		ldr	r2, [sp, #156]
 2746 1d34 9519     		adds	r5, r2, r6
 2747 1d36 4EEB0402 		adc	r2, lr, r4
 2748 1d3a F318     		adds	r3, r6, r3
 2749 1d3c 2793     		str	r3, [sp, #156]
 2750 1d3e 4FEA9536 		lsr	r6, r5, #14
 2751 1d42 44EB0003 		adc	r3, r4, r0
 2752 1d46 A80C     		lsrs	r0, r5, #18
 2753 1d48 3192     		str	r2, [sp, #196]
 2754 1d4a 2993     		str	r3, [sp, #164]
 2755 1d4c 40EA8230 		orr	r0, r0, r2, lsl #14
 2756 1d50 46EA8246 		orr	r6, r6, r2, lsl #18
 2757 1d54 930B     		lsrs	r3, r2, #14
 2758 1d56 920C     		lsrs	r2, r2, #18
 2759 1d58 42EA8532 		orr	r2, r2, r5, lsl #14
 2760 1d5c 43EA8543 		orr	r3, r3, r5, lsl #18
 2761 1d60 5340     		eors	r3, r3, r2
 2762 1d62 319A     		ldr	r2, [sp, #196]
 2763 1d64 3199     		ldr	r1, [sp, #196]
 2764 1d66 4640     		eors	r6, r6, r0
 2765 1d68 D205     		lsls	r2, r2, #23
 2766 1d6a E805     		lsls	r0, r5, #23
 2767 1d6c 42EA5522 		orr	r2, r2, r5, lsr #9
 2768 1d70 40EA5120 		orr	r0, r0, r1, lsr #9
 2769 1d74 4640     		eors	r6, r6, r0
 2770 1d76 5340     		eors	r3, r3, r2
 2771 1d78 5C48     		ldr	r0, .L22+16
 2772 1d7a 1A9A     		ldr	r2, [sp, #104]
 2773 1d7c 5C4C     		ldr	r4, .L22+20
 2774 1d7e 1218     		adds	r2, r2, r0
 2775 1d80 0898     		ldr	r0, [sp, #32]
 2776 1d82 44EB0004 		adc	r4, r4, r0
 2777 1d86 2C98     		ldr	r0, [sp, #176]
 2778 1d88 1218     		adds	r2, r2, r0
 2779 1d8a 47EB0404 		adc	r4, r7, r4
 2780 1d8e B618     		adds	r6, r6, r2
 2781 1d90 2D9A     		ldr	r2, [sp, #180]
 2782 1d92 43EB0403 		adc	r3, r3, r4
 2783 1d96 22EA0507 		bic	r7, r2, r5
 2784 1d9a 2E9A     		ldr	r2, [sp, #184]
 2785 1d9c 309C     		ldr	r4, [sp, #192]
 2786 1d9e 22EA0100 		bic	r0, r2, r1
 2787 1da2 2F9A     		ldr	r2, [sp, #188]
 2788 1da4 0C40     		ands	r4, r4, r1
 2789 1da6 2A40     		ands	r2, r2, r5
 2790 1da8 7A40     		eors	r2, r2, r7
 2791 1daa B618     		adds	r6, r6, r2
 2792 1dac 80EA0400 		eor	r0, r0, r4
 2793 1db0 279A     		ldr	r2, [sp, #156]
 2794 1db2 43EB0003 		adc	r3, r3, r0
 2795 1db6 2998     		ldr	r0, [sp, #164]
 2796 1db8 279C     		ldr	r4, [sp, #156]
 2797 1dba 120F     		lsrs	r2, r2, #28
 2798 1dbc 42EA0012 		orr	r2, r2, r0, lsl #4
 2799 1dc0 000F     		lsrs	r0, r0, #28
 2800 1dc2 40EA0410 		orr	r0, r0, r4, lsl #4
ARM GAS  /tmp/ccxnUvyY.s 			page 50


 2801 1dc6 299C     		ldr	r4, [sp, #164]
 2802 1dc8 279F     		ldr	r7, [sp, #156]
 2803 1dca A407     		lsls	r4, r4, #30
 2804 1dcc 2999     		ldr	r1, [sp, #164]
 2805 1dce 44EA9704 		orr	r4, r4, r7, lsr #2
 2806 1dd2 BF07     		lsls	r7, r7, #30
 2807 1dd4 47EA9107 		orr	r7, r7, r1, lsr #2
 2808 1dd8 6040     		eors	r0, r0, r4
 2809 1dda 4C06     		lsls	r4, r1, #25
 2810 1ddc 2799     		ldr	r1, [sp, #156]
 2811 1dde 7A40     		eors	r2, r2, r7
 2812 1de0 44EAD114 		orr	r4, r4, r1, lsr #7
 2813 1de4 4F06     		lsls	r7, r1, #25
 2814 1de6 2999     		ldr	r1, [sp, #164]
 2815 1de8 6040     		eors	r0, r0, r4
 2816 1dea 47EAD117 		orr	r7, r7, r1, lsr #7
 2817 1dee 2699     		ldr	r1, [sp, #152]
 2818 1df0 7A40     		eors	r2, r2, r7
 2819 1df2 89EA0107 		eor	r7, r9, r1
 2820 1df6 2899     		ldr	r1, [sp, #160]
 2821 1df8 88EA0104 		eor	r4, r8, r1
 2822 1dfc 2799     		ldr	r1, [sp, #156]
 2823 1dfe 07EA010B 		and	fp, r7, r1
 2824 1e02 2999     		ldr	r1, [sp, #164]
 2825 1e04 0C40     		ands	r4, r4, r1
 2826 1e06 2699     		ldr	r1, [sp, #152]
 2827 1e08 09EA0107 		and	r7, r9, r1
 2828 1e0c 2899     		ldr	r1, [sp, #160]
 2829 1e0e 8BEA0707 		eor	r7, fp, r7
 2830 1e12 08EA010E 		and	lr, r8, r1
 2831 1e16 D219     		adds	r2, r2, r7
 2832 1e18 84EA0E04 		eor	r4, r4, lr
 2833 1e1c 40EB040E 		adc	lr, r0, r4
 2834 1e20 1AEB060A 		adds	r10, r10, r6
 2835 1e24 4CEB0304 		adc	r4, ip, r3
 2836 1e28 B218     		adds	r2, r6, r2
 2837 1e2a 2A92     		str	r2, [sp, #168]
 2838 1e2c 4FEA9A46 		lsr	r6, r10, #18
 2839 1e30 4FEA9A32 		lsr	r2, r10, #14
 2840 1e34 43EB0E03 		adc	r3, r3, lr
 2841 1e38 46EA8436 		orr	r6, r6, r4, lsl #14
 2842 1e3c 42EA8442 		orr	r2, r2, r4, lsl #18
 2843 1e40 2B93     		str	r3, [sp, #172]
 2844 1e42 A00C     		lsrs	r0, r4, #18
 2845 1e44 A30B     		lsrs	r3, r4, #14
 2846 1e46 7240     		eors	r2, r2, r6
 2847 1e48 4FEACA56 		lsl	r6, r10, #23
 2848 1e4c 40EA8A30 		orr	r0, r0, r10, lsl #14
 2849 1e50 46EA5426 		orr	r6, r6, r4, lsr #9
 2850 1e54 43EA8A43 		orr	r3, r3, r10, lsl #18
 2851 1e58 1B99     		ldr	r1, [sp, #108]
 2852 1e5a 4340     		eors	r3, r3, r0
 2853 1e5c 7240     		eors	r2, r2, r6
 2854 1e5e E005     		lsls	r0, r4, #23
 2855 1e60 244E     		ldr	r6, .L22+24
 2856 1e62 40EA5A20 		orr	r0, r0, r10, lsr #9
 2857 1e66 8E19     		adds	r6, r1, r6
ARM GAS  /tmp/ccxnUvyY.s 			page 51


 2858 1e68 83EA0003 		eor	r3, r3, r0
 2859 1e6c 0999     		ldr	r1, [sp, #36]
 2860 1e6e 2248     		ldr	r0, .L22+28
 2861 1e70 40EB0100 		adc	r0, r0, r1
 2862 1e74 2D99     		ldr	r1, [sp, #180]
 2863 1e76 7618     		adds	r6, r6, r1
 2864 1e78 2E99     		ldr	r1, [sp, #184]
 2865 1e7a 41EB0000 		adc	r0, r1, r0
 2866 1e7e 2F99     		ldr	r1, [sp, #188]
 2867 1e80 9219     		adds	r2, r2, r6
 2868 1e82 21EA0A0C 		bic	ip, r1, r10
 2869 1e86 3099     		ldr	r1, [sp, #192]
 2870 1e88 43EB0003 		adc	r3, r3, r0
 2871 1e8c 21EA0406 		bic	r6, r1, r4
 2872 1e90 3199     		ldr	r1, [sp, #196]
 2873 1e92 05EA0A00 		and	r0, r5, r10
 2874 1e96 01EA0407 		and	r7, r1, r4
 2875 1e9a 2A99     		ldr	r1, [sp, #168]
 2876 1e9c 8CEA0000 		eor	r0, ip, r0
 2877 1ea0 1218     		adds	r2, r2, r0
 2878 1ea2 4FEA1170 		lsr	r0, r1, #28
 2879 1ea6 2B99     		ldr	r1, [sp, #172]
 2880 1ea8 86EA0706 		eor	r6, r6, r7
 2881 1eac 43EB0603 		adc	r3, r3, r6
 2882 1eb0 40EA0110 		orr	r0, r0, r1, lsl #4
 2883 1eb4 0E0F     		lsrs	r6, r1, #28
 2884 1eb6 2A99     		ldr	r1, [sp, #168]
 2885 1eb8 46EA0116 		orr	r6, r6, r1, lsl #4
 2886 1ebc 2B99     		ldr	r1, [sp, #172]
 2887 1ebe 8F07     		lsls	r7, r1, #30
 2888 1ec0 2A99     		ldr	r1, [sp, #168]
 2889 1ec2 47EA9107 		orr	r7, r7, r1, lsr #2
 2890 1ec6 4FEA817C 		lsl	ip, r1, #30
 2891 1eca 2B99     		ldr	r1, [sp, #172]
 2892 1ecc 7E40     		eors	r6, r6, r7
 2893 1ece 4CEA910C 		orr	ip, ip, r1, lsr #2
 2894 1ed2 4F06     		lsls	r7, r1, #25
 2895 1ed4 2A99     		ldr	r1, [sp, #168]
 2896 1ed6 80EA0C00 		eor	r0, r0, ip
 2897 1eda 0FE0     		b	.L23
 2898              	.L24:
 2899              		.align	2
 2900              	.L22:
 2901 1edc D24AF19E 		.word	-1628353838
 2902 1ee0 C1699BE4 		.word	-459576895
 2903 1ee4 8647BEEF 		.word	-272742522
 2904 1ee8 E3254F38 		.word	944711139
 2905 1eec B5D58C8B 		.word	-1953704523
 2906 1ef0 C69DC10F 		.word	264347078
 2907 1ef4 659CAC77 		.word	2007800933
 2908 1ef8 CCA10C24 		.word	604807628
 2909              	.L23:
 2910 1efc 47EAD117 		orr	r7, r7, r1, lsr #7
 2911 1f00 4FEA416C 		lsl	ip, r1, #25
 2912 1f04 2B99     		ldr	r1, [sp, #172]
 2913 1f06 7E40     		eors	r6, r6, r7
 2914 1f08 4CEAD11C 		orr	ip, ip, r1, lsr #7
ARM GAS  /tmp/ccxnUvyY.s 			page 52


 2915 1f0c 80EA0C01 		eor	r1, r0, ip
 2916 1f10 2C91     		str	r1, [sp, #176]
 2917 1f12 DDE92617 		ldrd	r1, r7, [sp, #152]
 2918 1f16 81EA070E 		eor	lr, r1, r7
 2919 1f1a DDE92817 		ldrd	r1, r7, [sp, #160]
 2920 1f1e 4F40     		eors	r7, r7, r1
 2921 1f20 2A99     		ldr	r1, [sp, #168]
 2922 1f22 0EEA010E 		and	lr, lr, r1
 2923 1f26 2B99     		ldr	r1, [sp, #172]
 2924 1f28 0F40     		ands	r7, r7, r1
 2925 1f2a DDE92610 		ldrd	r1, r0, [sp, #152]
 2926 1f2e 01EA000C 		and	ip, r1, r0
 2927 1f32 DDE92810 		ldrd	r1, r0, [sp, #160]
 2928 1f36 01EA000B 		and	fp, r1, r0
 2929 1f3a 2C99     		ldr	r1, [sp, #176]
 2930 1f3c 8EEA0C0C 		eor	ip, lr, ip
 2931 1f40 11EB0C0C 		adds	ip, r1, ip
 2932 1f44 87EA0B07 		eor	r7, r7, fp
 2933 1f48 46EB0707 		adc	r7, r6, r7
 2934 1f4c 19EB020B 		adds	fp, r9, r2
 2935 1f50 48EB0300 		adc	r0, r8, r3
 2936 1f54 12EB0C02 		adds	r2, r2, ip
 2937 1f58 43EB0703 		adc	r3, r3, r7
 2938 1f5c 2C92     		str	r2, [sp, #176]
 2939 1f5e 2D93     		str	r3, [sp, #180]
 2940 1f60 4FEA9B32 		lsr	r2, fp, #14
 2941 1f64 4FEA9B43 		lsr	r3, fp, #18
 2942 1f68 870B     		lsrs	r7, r0, #14
 2943 1f6a 860C     		lsrs	r6, r0, #18
 2944 1f6c 42EA8042 		orr	r2, r2, r0, lsl #18
 2945 1f70 43EA803C 		orr	ip, r3, r0, lsl #14
 2946 1f74 46EA8B36 		orr	r6, r6, fp, lsl #14
 2947 1f78 47EA8B47 		orr	r7, r7, fp, lsl #18
 2948 1f7c 82EA0C03 		eor	r3, r2, ip
 2949 1f80 7740     		eors	r7, r7, r6
 2950 1f82 4FEACB52 		lsl	r2, fp, #23
 2951 1f86 C605     		lsls	r6, r0, #23
 2952 1f88 46EA5B26 		orr	r6, r6, fp, lsr #9
 2953 1f8c 42EA5022 		orr	r2, r2, r0, lsr #9
 2954 1f90 5A40     		eors	r2, r2, r3
 2955 1f92 7740     		eors	r7, r7, r6
 2956 1f94 1C9B     		ldr	r3, [sp, #112]
 2957 1f96 CE4E     		ldr	r6, .L25
 2958 1f98 0A99     		ldr	r1, [sp, #40]
 2959 1f9a 9E19     		adds	r6, r3, r6
 2960 1f9c CD4B     		ldr	r3, .L25+4
 2961 1f9e 43EB010C 		adc	ip, r3, r1
 2962 1fa2 2F9B     		ldr	r3, [sp, #188]
 2963 1fa4 3099     		ldr	r1, [sp, #192]
 2964 1fa6 F318     		adds	r3, r6, r3
 2965 1fa8 41EB0C09 		adc	r9, r1, ip
 2966 1fac D318     		adds	r3, r2, r3
 2967 1fae 319A     		ldr	r2, [sp, #196]
 2968 1fb0 25EA0B0C 		bic	ip, r5, fp
 2969 1fb4 22EA0006 		bic	r6, r2, r0
 2970 1fb8 0AEA0B02 		and	r2, r10, fp
 2971 1fbc 8CEA0202 		eor	r2, ip, r2
ARM GAS  /tmp/ccxnUvyY.s 			page 53


 2972 1fc0 47EB0909 		adc	r9, r7, r9
 2973 1fc4 9B18     		adds	r3, r3, r2
 2974 1fc6 2C9A     		ldr	r2, [sp, #176]
 2975 1fc8 04EA0007 		and	r7, r4, r0
 2976 1fcc 86EA0706 		eor	r6, r6, r7
 2977 1fd0 4FEA1277 		lsr	r7, r2, #28
 2978 1fd4 2D9A     		ldr	r2, [sp, #180]
 2979 1fd6 2C99     		ldr	r1, [sp, #176]
 2980 1fd8 47EA0217 		orr	r7, r7, r2, lsl #4
 2981 1fdc 4FEA1272 		lsr	r2, r2, #28
 2982 1fe0 42EA0112 		orr	r2, r2, r1, lsl #4
 2983 1fe4 2D99     		ldr	r1, [sp, #180]
 2984 1fe6 49EB0609 		adc	r9, r9, r6
 2985 1fea 8E07     		lsls	r6, r1, #30
 2986 1fec 2C99     		ldr	r1, [sp, #176]
 2987 1fee 46EA9106 		orr	r6, r6, r1, lsr #2
 2988 1ff2 4FEA817C 		lsl	ip, r1, #30
 2989 1ff6 2D99     		ldr	r1, [sp, #180]
 2990 1ff8 7240     		eors	r2, r2, r6
 2991 1ffa 4CEA910C 		orr	ip, ip, r1, lsr #2
 2992 1ffe 4E06     		lsls	r6, r1, #25
 2993 2000 2C99     		ldr	r1, [sp, #176]
 2994 2002 87EA0C07 		eor	r7, r7, ip
 2995 2006 46EAD116 		orr	r6, r6, r1, lsr #7
 2996 200a 4FEA416C 		lsl	ip, r1, #25
 2997 200e 2D99     		ldr	r1, [sp, #180]
 2998 2010 7240     		eors	r2, r2, r6
 2999 2012 4CEAD11C 		orr	ip, ip, r1, lsr #7
 3000 2016 2A9E     		ldr	r6, [sp, #168]
 3001 2018 2799     		ldr	r1, [sp, #156]
 3002 201a 2E92     		str	r2, [sp, #184]
 3003 201c 4E40     		eors	r6, r6, r1
 3004 201e 2B9A     		ldr	r2, [sp, #172]
 3005 2020 2999     		ldr	r1, [sp, #164]
 3006 2022 87EA0C07 		eor	r7, r7, ip
 3007 2026 81EA020E 		eor	lr, r1, r2
 3008 202a 2C9A     		ldr	r2, [sp, #176]
 3009 202c 2A99     		ldr	r1, [sp, #168]
 3010 202e 1640     		ands	r6, r6, r2
 3011 2030 2D9A     		ldr	r2, [sp, #180]
 3012 2032 0EEA020E 		and	lr, lr, r2
 3013 2036 279A     		ldr	r2, [sp, #156]
 3014 2038 02EA0108 		and	r8, r2, r1
 3015 203c 299A     		ldr	r2, [sp, #164]
 3016 203e 2B99     		ldr	r1, [sp, #172]
 3017 2040 86EA0806 		eor	r6, r6, r8
 3018 2044 02EA010C 		and	ip, r2, r1
 3019 2048 2E9A     		ldr	r2, [sp, #184]
 3020 204a BE19     		adds	r6, r7, r6
 3021 204c 8EEA0C0C 		eor	ip, lr, ip
 3022 2050 42EB0C0C 		adc	ip, r2, ip
 3023 2054 269A     		ldr	r2, [sp, #152]
 3024 2056 1D99     		ldr	r1, [sp, #116]
 3025 2058 12EB0308 		adds	r8, r2, r3
 3026 205c 289A     		ldr	r2, [sp, #160]
 3027 205e 4FEA9847 		lsr	r7, r8, #18
 3028 2062 42EB090E 		adc	lr, r2, r9
ARM GAS  /tmp/ccxnUvyY.s 			page 54


 3029 2066 4FEA9E32 		lsr	r2, lr, #14
 3030 206a 9B19     		adds	r3, r3, r6
 3031 206c 4FEA9E46 		lsr	r6, lr, #18
 3032 2070 2693     		str	r3, [sp, #152]
 3033 2072 46EA8836 		orr	r6, r6, r8, lsl #14
 3034 2076 49EB0C03 		adc	r3, r9, ip
 3035 207a 42EA8842 		orr	r2, r2, r8, lsl #18
 3036 207e 2893     		str	r3, [sp, #160]
 3037 2080 7240     		eors	r2, r2, r6
 3038 2082 4FEA9833 		lsr	r3, r8, #14
 3039 2086 4FEACE56 		lsl	r6, lr, #23
 3040 208a 47EA8E37 		orr	r7, r7, lr, lsl #14
 3041 208e 46EA5826 		orr	r6, r6, r8, lsr #9
 3042 2092 43EA8E43 		orr	r3, r3, lr, lsl #18
 3043 2096 7240     		eors	r2, r2, r6
 3044 2098 7B40     		eors	r3, r3, r7
 3045 209a 8F4E     		ldr	r6, .L25+8
 3046 209c 4FEAC857 		lsl	r7, r8, #23
 3047 20a0 47EA5E27 		orr	r7, r7, lr, lsr #9
 3048 20a4 11EB060C 		adds	ip, r1, r6
 3049 20a8 83EA0703 		eor	r3, r3, r7
 3050 20ac 0B99     		ldr	r1, [sp, #44]
 3051 20ae 8B4F     		ldr	r7, .L25+12
 3052 20b0 00EA0E06 		and	r6, r0, lr
 3053 20b4 47EB0107 		adc	r7, r7, r1
 3054 20b8 3199     		ldr	r1, [sp, #196]
 3055 20ba 1CEB0505 		adds	r5, ip, r5
 3056 20be 41EB0701 		adc	r1, r1, r7
 3057 20c2 2AEA0807 		bic	r7, r10, r8
 3058 20c6 5D19     		adds	r5, r3, r5
 3059 20c8 0BEA0803 		and	r3, fp, r8
 3060 20cc 42EB0101 		adc	r1, r2, r1
 3061 20d0 7B40     		eors	r3, r3, r7
 3062 20d2 24EA0E02 		bic	r2, r4, lr
 3063 20d6 ED18     		adds	r5, r5, r3
 3064 20d8 82EA0602 		eor	r2, r2, r6
 3065 20dc 41EB0203 		adc	r3, r1, r2
 3066 20e0 2F93     		str	r3, [sp, #188]
 3067 20e2 269B     		ldr	r3, [sp, #152]
 3068 20e4 269A     		ldr	r2, [sp, #152]
 3069 20e6 1E0F     		lsrs	r6, r3, #28
 3070 20e8 289B     		ldr	r3, [sp, #160]
 3071 20ea 269F     		ldr	r7, [sp, #152]
 3072 20ec 46EA0316 		orr	r6, r6, r3, lsl #4
 3073 20f0 1B0F     		lsrs	r3, r3, #28
 3074 20f2 43EA0213 		orr	r3, r3, r2, lsl #4
 3075 20f6 289A     		ldr	r2, [sp, #160]
 3076 20f8 2899     		ldr	r1, [sp, #160]
 3077 20fa 9207     		lsls	r2, r2, #30
 3078 20fc 42EA9702 		orr	r2, r2, r7, lsr #2
 3079 2100 BF07     		lsls	r7, r7, #30
 3080 2102 47EA9107 		orr	r7, r7, r1, lsr #2
 3081 2106 5340     		eors	r3, r3, r2
 3082 2108 4A06     		lsls	r2, r1, #25
 3083 210a 2699     		ldr	r1, [sp, #152]
 3084 210c 7E40     		eors	r6, r6, r7
 3085 210e 42EAD112 		orr	r2, r2, r1, lsr #7
ARM GAS  /tmp/ccxnUvyY.s 			page 55


 3086 2112 4F06     		lsls	r7, r1, #25
 3087 2114 2899     		ldr	r1, [sp, #160]
 3088 2116 5340     		eors	r3, r3, r2
 3089 2118 47EAD117 		orr	r7, r7, r1, lsr #7
 3090 211c 2A9A     		ldr	r2, [sp, #168]
 3091 211e 2C99     		ldr	r1, [sp, #176]
 3092 2120 7E40     		eors	r6, r6, r7
 3093 2122 4A40     		eors	r2, r2, r1
 3094 2124 2D9F     		ldr	r7, [sp, #180]
 3095 2126 2B99     		ldr	r1, [sp, #172]
 3096 2128 81EA070C 		eor	ip, r1, r7
 3097 212c 2699     		ldr	r1, [sp, #152]
 3098 212e 2C9F     		ldr	r7, [sp, #176]
 3099 2130 0A40     		ands	r2, r2, r1
 3100 2132 2899     		ldr	r1, [sp, #160]
 3101 2134 0CEA010C 		and	ip, ip, r1
 3102 2138 2A99     		ldr	r1, [sp, #168]
 3103 213a 01EA0709 		and	r9, r1, r7
 3104 213e 2B99     		ldr	r1, [sp, #172]
 3105 2140 2D9F     		ldr	r7, [sp, #180]
 3106 2142 82EA0902 		eor	r2, r2, r9
 3107 2146 0F40     		ands	r7, r7, r1
 3108 2148 B218     		adds	r2, r6, r2
 3109 214a 8CEA0707 		eor	r7, ip, r7
 3110 214e 43EB070C 		adc	ip, r3, r7
 3111 2152 279B     		ldr	r3, [sp, #156]
 3112 2154 2F99     		ldr	r1, [sp, #188]
 3113 2156 13EB0509 		adds	r9, r3, r5
 3114 215a 299B     		ldr	r3, [sp, #164]
 3115 215c 43EB0103 		adc	r3, r3, r1
 3116 2160 2E93     		str	r3, [sp, #184]
 3117 2162 AB18     		adds	r3, r5, r2
 3118 2164 2793     		str	r3, [sp, #156]
 3119 2166 41EB0C03 		adc	r3, r1, ip
 3120 216a 2993     		str	r3, [sp, #164]
 3121 216c 2E9B     		ldr	r3, [sp, #184]
 3122 216e 4FEA9932 		lsr	r2, r9, #14
 3123 2172 4FEA9945 		lsr	r5, r9, #18
 3124 2176 45EA8335 		orr	r5, r5, r3, lsl #14
 3125 217a 42EA8342 		orr	r2, r2, r3, lsl #18
 3126 217e 990B     		lsrs	r1, r3, #14
 3127 2180 9B0C     		lsrs	r3, r3, #18
 3128 2182 43EA8933 		orr	r3, r3, r9, lsl #14
 3129 2186 41EA8941 		orr	r1, r1, r9, lsl #18
 3130 218a 5940     		eors	r1, r1, r3
 3131 218c 2E9B     		ldr	r3, [sp, #184]
 3132 218e 2E9E     		ldr	r6, [sp, #184]
 3133 2190 6A40     		eors	r2, r2, r5
 3134 2192 DB05     		lsls	r3, r3, #23
 3135 2194 4FEAC955 		lsl	r5, r9, #23
 3136 2198 43EA5923 		orr	r3, r3, r9, lsr #9
 3137 219c 45EA5625 		orr	r5, r5, r6, lsr #9
 3138 21a0 6A40     		eors	r2, r2, r5
 3139 21a2 5940     		eors	r1, r1, r3
 3140 21a4 1E9D     		ldr	r5, [sp, #120]
 3141 21a6 4E4B     		ldr	r3, .L25+16
 3142 21a8 0C9E     		ldr	r6, [sp, #48]
ARM GAS  /tmp/ccxnUvyY.s 			page 56


 3143 21aa EB18     		adds	r3, r5, r3
 3144 21ac 4D4D     		ldr	r5, .L25+20
 3145 21ae 269F     		ldr	r7, [sp, #152]
 3146 21b0 45EB0605 		adc	r5, r5, r6
 3147 21b4 13EB0A0A 		adds	r10, r3, r10
 3148 21b8 2E9B     		ldr	r3, [sp, #184]
 3149 21ba 44EB0504 		adc	r4, r4, r5
 3150 21be 2BEA0905 		bic	r5, fp, r9
 3151 21c2 12EB0A0A 		adds	r10, r2, r10
 3152 21c6 20EA0302 		bic	r2, r0, r3
 3153 21ca 08EA0903 		and	r3, r8, r9
 3154 21ce 41EB0404 		adc	r4, r1, r4
 3155 21d2 6B40     		eors	r3, r3, r5
 3156 21d4 2E99     		ldr	r1, [sp, #184]
 3157 21d6 1AEB030A 		adds	r10, r10, r3
 3158 21da 279B     		ldr	r3, [sp, #156]
 3159 21dc 0EEA0101 		and	r1, lr, r1
 3160 21e0 82EA0102 		eor	r2, r2, r1
 3161 21e4 4FEA1371 		lsr	r1, r3, #28
 3162 21e8 299B     		ldr	r3, [sp, #164]
 3163 21ea 44EB0204 		adc	r4, r4, r2
 3164 21ee 279A     		ldr	r2, [sp, #156]
 3165 21f0 41EA0311 		orr	r1, r1, r3, lsl #4
 3166 21f4 1B0F     		lsrs	r3, r3, #28
 3167 21f6 43EA0213 		orr	r3, r3, r2, lsl #4
 3168 21fa 299A     		ldr	r2, [sp, #164]
 3169 21fc 279D     		ldr	r5, [sp, #156]
 3170 21fe 299E     		ldr	r6, [sp, #164]
 3171 2200 9207     		lsls	r2, r2, #30
 3172 2202 42EA9502 		orr	r2, r2, r5, lsr #2
 3173 2206 AD07     		lsls	r5, r5, #30
 3174 2208 45EA9605 		orr	r5, r5, r6, lsr #2
 3175 220c 6940     		eors	r1, r1, r5
 3176 220e 279D     		ldr	r5, [sp, #156]
 3177 2210 5340     		eors	r3, r3, r2
 3178 2212 7206     		lsls	r2, r6, #25
 3179 2214 42EAD512 		orr	r2, r2, r5, lsr #7
 3180 2218 6D06     		lsls	r5, r5, #25
 3181 221a 45EAD615 		orr	r5, r5, r6, lsr #7
 3182 221e 6940     		eors	r1, r1, r5
 3183 2220 5340     		eors	r3, r3, r2
 3184 2222 269D     		ldr	r5, [sp, #152]
 3185 2224 2C9A     		ldr	r2, [sp, #176]
 3186 2226 289E     		ldr	r6, [sp, #160]
 3187 2228 6A40     		eors	r2, r2, r5
 3188 222a 2D9D     		ldr	r5, [sp, #180]
 3189 222c 6E40     		eors	r6, r6, r5
 3190 222e 279D     		ldr	r5, [sp, #156]
 3191 2230 2A40     		ands	r2, r2, r5
 3192 2232 299D     		ldr	r5, [sp, #164]
 3193 2234 2E40     		ands	r6, r6, r5
 3194 2236 2C9D     		ldr	r5, [sp, #176]
 3195 2238 05EA070C 		and	ip, r5, r7
 3196 223c 289F     		ldr	r7, [sp, #160]
 3197 223e 2D9D     		ldr	r5, [sp, #180]
 3198 2240 82EA0C02 		eor	r2, r2, ip
 3199 2244 3D40     		ands	r5, r5, r7
ARM GAS  /tmp/ccxnUvyY.s 			page 57


 3200 2246 8A18     		adds	r2, r1, r2
 3201 2248 85EA0605 		eor	r5, r5, r6
 3202 224c 43EB0505 		adc	r5, r3, r5
 3203 2250 2A9B     		ldr	r3, [sp, #168]
 3204 2252 0D9F     		ldr	r7, [sp, #52]
 3205 2254 13EB0A06 		adds	r6, r3, r10
 3206 2258 2B9B     		ldr	r3, [sp, #172]
 3207 225a 4FEA9631 		lsr	r1, r6, #14
 3208 225e 43EB0403 		adc	r3, r3, r4
 3209 2262 1AEB0202 		adds	r2, r10, r2
 3210 2266 2A92     		str	r2, [sp, #168]
 3211 2268 44EB0502 		adc	r2, r4, r5
 3212 226c 2B92     		str	r2, [sp, #172]
 3213 226e 9C0B     		lsrs	r4, r3, #14
 3214 2270 B50C     		lsrs	r5, r6, #18
 3215 2272 9A0C     		lsrs	r2, r3, #18
 3216 2274 45EA8335 		orr	r5, r5, r3, lsl #14
 3217 2278 42EA8632 		orr	r2, r2, r6, lsl #14
 3218 227c 41EA8341 		orr	r1, r1, r3, lsl #18
 3219 2280 44EA8644 		orr	r4, r4, r6, lsl #18
 3220 2284 6940     		eors	r1, r1, r5
 3221 2286 5440     		eors	r4, r4, r2
 3222 2288 F505     		lsls	r5, r6, #23
 3223 228a DA05     		lsls	r2, r3, #23
 3224 228c 42EA5622 		orr	r2, r2, r6, lsr #9
 3225 2290 45EA5325 		orr	r5, r5, r3, lsr #9
 3226 2294 6940     		eors	r1, r1, r5
 3227 2296 5440     		eors	r4, r4, r2
 3228 2298 1F9D     		ldr	r5, [sp, #124]
 3229 229a 134A     		ldr	r2, .L25+24
 3230 229c AA18     		adds	r2, r5, r2
 3231 229e 134D     		ldr	r5, .L25+28
 3232 22a0 45EB0705 		adc	r5, r5, r7
 3233 22a4 12EB0B0B 		adds	fp, r2, fp
 3234 22a8 40EB0500 		adc	r0, r0, r5
 3235 22ac 09EA0602 		and	r2, r9, r6
 3236 22b0 28EA0605 		bic	r5, r8, r6
 3237 22b4 11EB0B0B 		adds	fp, r1, fp
 3238 22b8 44EB0000 		adc	r0, r4, r0
 3239 22bc 6A40     		eors	r2, r2, r5
 3240 22be 2E9C     		ldr	r4, [sp, #184]
 3241 22c0 1BEB020B 		adds	fp, fp, r2
 3242 22c4 2A9A     		ldr	r2, [sp, #168]
 3243 22c6 2EEA0301 		bic	r1, lr, r3
 3244 22ca 04EA0304 		and	r4, r4, r3
 3245 22ce 0FE0     		b	.L26
 3246              	.L27:
 3247              		.align	2
 3248              	.L25:
 3249 22d0 75022B59 		.word	1495990901
 3250 22d4 6F2CE92D 		.word	770255983
 3251 22d8 83E4A66E 		.word	1856431235
 3252 22dc AA84744A 		.word	1249150122
 3253 22e0 D4FB41BD 		.word	-1119749164
 3254 22e4 DCA9B05C 		.word	1555081692
 3255 22e8 B5531183 		.word	-2096016459
 3256 22ec DA88F976 		.word	1996064986
ARM GAS  /tmp/ccxnUvyY.s 			page 58


 3257              	.L26:
 3258 22f0 81EA0401 		eor	r1, r1, r4
 3259 22f4 4FEA1274 		lsr	r4, r2, #28
 3260 22f8 2B9A     		ldr	r2, [sp, #172]
 3261 22fa 40EB0100 		adc	r0, r0, r1
 3262 22fe 2A99     		ldr	r1, [sp, #168]
 3263 2300 44EA0214 		orr	r4, r4, r2, lsl #4
 3264 2304 120F     		lsrs	r2, r2, #28
 3265 2306 42EA0112 		orr	r2, r2, r1, lsl #4
 3266 230a 2B99     		ldr	r1, [sp, #172]
 3267 230c 2A9D     		ldr	r5, [sp, #168]
 3268 230e 2B9F     		ldr	r7, [sp, #172]
 3269 2310 8907     		lsls	r1, r1, #30
 3270 2312 41EA9501 		orr	r1, r1, r5, lsr #2
 3271 2316 AD07     		lsls	r5, r5, #30
 3272 2318 45EA9705 		orr	r5, r5, r7, lsr #2
 3273 231c 6C40     		eors	r4, r4, r5
 3274 231e 2A9D     		ldr	r5, [sp, #168]
 3275 2320 4A40     		eors	r2, r2, r1
 3276 2322 7906     		lsls	r1, r7, #25
 3277 2324 41EAD511 		orr	r1, r1, r5, lsr #7
 3278 2328 6D06     		lsls	r5, r5, #25
 3279 232a 45EAD715 		orr	r5, r5, r7, lsr #7
 3280 232e 6C40     		eors	r4, r4, r5
 3281 2330 4A40     		eors	r2, r2, r1
 3282 2332 DDE92615 		ldrd	r1, r5, [sp, #152]
 3283 2336 6940     		eors	r1, r1, r5
 3284 2338 DDE92857 		ldrd	r5, r7, [sp, #160]
 3285 233c 85EA070C 		eor	ip, r5, r7
 3286 2340 2A9D     		ldr	r5, [sp, #168]
 3287 2342 2940     		ands	r1, r1, r5
 3288 2344 2B9D     		ldr	r5, [sp, #172]
 3289 2346 0CEA050C 		and	ip, ip, r5
 3290 234a DDE92657 		ldrd	r5, r7, [sp, #152]
 3291 234e 05EA070A 		and	r10, r5, r7
 3292 2352 81EA0A01 		eor	r1, r1, r10
 3293 2356 6118     		adds	r1, r4, r1
 3294 2358 DDE92857 		ldrd	r5, r7, [sp, #160]
 3295 235c 2C9C     		ldr	r4, [sp, #176]
 3296 235e 05EA0705 		and	r5, r5, r7
 3297 2362 8CEA0505 		eor	r5, ip, r5
 3298 2366 42EB0502 		adc	r2, r2, r5
 3299 236a 14EB0B0C 		adds	ip, r4, fp
 3300 236e 2D9C     		ldr	r4, [sp, #180]
 3301 2370 0E9F     		ldr	r7, [sp, #56]
 3302 2372 44EB0005 		adc	r5, r4, r0
 3303 2376 1BEB0101 		adds	r1, fp, r1
 3304 237a 40EB0202 		adc	r2, r0, r2
 3305 237e 2C91     		str	r1, [sp, #176]
 3306 2380 2D92     		str	r2, [sp, #180]
 3307 2382 4FEA9C31 		lsr	r1, ip, #14
 3308 2386 A80B     		lsrs	r0, r5, #14
 3309 2388 4FEA9C44 		lsr	r4, ip, #18
 3310 238c AA0C     		lsrs	r2, r5, #18
 3311 238e 44EA8534 		orr	r4, r4, r5, lsl #14
 3312 2392 42EA8C32 		orr	r2, r2, ip, lsl #14
 3313 2396 41EA8541 		orr	r1, r1, r5, lsl #18
ARM GAS  /tmp/ccxnUvyY.s 			page 59


 3314 239a 40EA8C40 		orr	r0, r0, ip, lsl #18
 3315 239e 6140     		eors	r1, r1, r4
 3316 23a0 5040     		eors	r0, r0, r2
 3317 23a2 4FEACC54 		lsl	r4, ip, #23
 3318 23a6 EA05     		lsls	r2, r5, #23
 3319 23a8 42EA5C22 		orr	r2, r2, ip, lsr #9
 3320 23ac 44EA5524 		orr	r4, r4, r5, lsr #9
 3321 23b0 6140     		eors	r1, r1, r4
 3322 23b2 5040     		eors	r0, r0, r2
 3323 23b4 209C     		ldr	r4, [sp, #128]
 3324 23b6 D04A     		ldr	r2, .L28
 3325 23b8 A218     		adds	r2, r4, r2
 3326 23ba D04C     		ldr	r4, .L28+4
 3327 23bc 44EB0704 		adc	r4, r4, r7
 3328 23c0 12EB0808 		adds	r8, r2, r8
 3329 23c4 2E9A     		ldr	r2, [sp, #184]
 3330 23c6 4EEB040E 		adc	lr, lr, r4
 3331 23ca 29EA0C04 		bic	r4, r9, ip
 3332 23ce 11EB0808 		adds	r8, r1, r8
 3333 23d2 22EA0501 		bic	r1, r2, r5
 3334 23d6 06EA0C02 		and	r2, r6, ip
 3335 23da 82EA0402 		eor	r2, r2, r4
 3336 23de 40EB0E0E 		adc	lr, r0, lr
 3337 23e2 18EB0208 		adds	r8, r8, r2
 3338 23e6 2C9A     		ldr	r2, [sp, #176]
 3339 23e8 03EA0500 		and	r0, r3, r5
 3340 23ec 81EA0001 		eor	r1, r1, r0
 3341 23f0 4FEA1270 		lsr	r0, r2, #28
 3342 23f4 2D9A     		ldr	r2, [sp, #180]
 3343 23f6 4EEB010E 		adc	lr, lr, r1
 3344 23fa 2C99     		ldr	r1, [sp, #176]
 3345 23fc 40EA0210 		orr	r0, r0, r2, lsl #4
 3346 2400 120F     		lsrs	r2, r2, #28
 3347 2402 42EA0112 		orr	r2, r2, r1, lsl #4
 3348 2406 2D99     		ldr	r1, [sp, #180]
 3349 2408 2C9C     		ldr	r4, [sp, #176]
 3350 240a 2D9F     		ldr	r7, [sp, #180]
 3351 240c 8907     		lsls	r1, r1, #30
 3352 240e 41EA9401 		orr	r1, r1, r4, lsr #2
 3353 2412 A407     		lsls	r4, r4, #30
 3354 2414 44EA9704 		orr	r4, r4, r7, lsr #2
 3355 2418 6040     		eors	r0, r0, r4
 3356 241a 2C9C     		ldr	r4, [sp, #176]
 3357 241c 4A40     		eors	r2, r2, r1
 3358 241e 7906     		lsls	r1, r7, #25
 3359 2420 41EAD411 		orr	r1, r1, r4, lsr #7
 3360 2424 6406     		lsls	r4, r4, #25
 3361 2426 44EAD714 		orr	r4, r4, r7, lsr #7
 3362 242a 6040     		eors	r0, r0, r4
 3363 242c 4A40     		eors	r2, r2, r1
 3364 242e 2799     		ldr	r1, [sp, #156]
 3365 2430 2A9C     		ldr	r4, [sp, #168]
 3366 2432 2B9F     		ldr	r7, [sp, #172]
 3367 2434 6140     		eors	r1, r1, r4
 3368 2436 299C     		ldr	r4, [sp, #164]
 3369 2438 84EA070A 		eor	r10, r4, r7
 3370 243c 2C9C     		ldr	r4, [sp, #176]
ARM GAS  /tmp/ccxnUvyY.s 			page 60


 3371 243e 2A9F     		ldr	r7, [sp, #168]
 3372 2440 2140     		ands	r1, r1, r4
 3373 2442 2D9C     		ldr	r4, [sp, #180]
 3374 2444 0AEA040A 		and	r10, r10, r4
 3375 2448 279C     		ldr	r4, [sp, #156]
 3376 244a 04EA070B 		and	fp, r4, r7
 3377 244e 2B9F     		ldr	r7, [sp, #172]
 3378 2450 299C     		ldr	r4, [sp, #164]
 3379 2452 81EA0B01 		eor	r1, r1, fp
 3380 2456 3C40     		ands	r4, r4, r7
 3381 2458 4118     		adds	r1, r0, r1
 3382 245a 8AEA0404 		eor	r4, r10, r4
 3383 245e 42EB0404 		adc	r4, r2, r4
 3384 2462 269A     		ldr	r2, [sp, #152]
 3385 2464 0F9F     		ldr	r7, [sp, #60]
 3386 2466 12EB080B 		adds	fp, r2, r8
 3387 246a 289A     		ldr	r2, [sp, #160]
 3388 246c 4FEA9B40 		lsr	r0, fp, #18
 3389 2470 42EB0E0A 		adc	r10, r2, lr
 3390 2474 18EB0102 		adds	r2, r8, r1
 3391 2478 2692     		str	r2, [sp, #152]
 3392 247a 4EEB0402 		adc	r2, lr, r4
 3393 247e 2892     		str	r2, [sp, #160]
 3394 2480 4FEA9A44 		lsr	r4, r10, #18
 3395 2484 4FEA9B32 		lsr	r2, fp, #14
 3396 2488 4FEA9A31 		lsr	r1, r10, #14
 3397 248c 42EA8A42 		orr	r2, r2, r10, lsl #18
 3398 2490 41EA8B41 		orr	r1, r1, fp, lsl #18
 3399 2494 40EA8A38 		orr	r8, r0, r10, lsl #14
 3400 2498 44EA8B3E 		orr	lr, r4, fp, lsl #14
 3401 249c 82EA0800 		eor	r0, r2, r8
 3402 24a0 81EA0E04 		eor	r4, r1, lr
 3403 24a4 4FEACB52 		lsl	r2, fp, #23
 3404 24a8 4FEACA51 		lsl	r1, r10, #23
 3405 24ac 41EA5B21 		orr	r1, r1, fp, lsr #9
 3406 24b0 42EA5A22 		orr	r2, r2, r10, lsr #9
 3407 24b4 4240     		eors	r2, r2, r0
 3408 24b6 6140     		eors	r1, r1, r4
 3409 24b8 9148     		ldr	r0, .L28+8
 3410 24ba 219C     		ldr	r4, [sp, #132]
 3411 24bc 2018     		adds	r0, r4, r0
 3412 24be 914C     		ldr	r4, .L28+12
 3413 24c0 44EB0704 		adc	r4, r4, r7
 3414 24c4 2E9F     		ldr	r7, [sp, #184]
 3415 24c6 10EB0900 		adds	r0, r0, r9
 3416 24ca 47EB0404 		adc	r4, r7, r4
 3417 24ce 1018     		adds	r0, r2, r0
 3418 24d0 41EB0404 		adc	r4, r1, r4
 3419 24d4 0CEA0B09 		and	r9, ip, fp
 3420 24d8 26EA0B01 		bic	r1, r6, fp
 3421 24dc 05EA0A02 		and	r2, r5, r10
 3422 24e0 23EA0A07 		bic	r7, r3, r10
 3423 24e4 81EA0909 		eor	r9, r1, r9
 3424 24e8 5740     		eors	r7, r7, r2
 3425 24ea 10EB0902 		adds	r2, r0, r9
 3426 24ee 2F92     		str	r2, [sp, #188]
 3427 24f0 269A     		ldr	r2, [sp, #152]
ARM GAS  /tmp/ccxnUvyY.s 			page 61


 3428 24f2 44EB0704 		adc	r4, r4, r7
 3429 24f6 170F     		lsrs	r7, r2, #28
 3430 24f8 289A     		ldr	r2, [sp, #160]
 3431 24fa 2699     		ldr	r1, [sp, #152]
 3432 24fc 47EA0217 		orr	r7, r7, r2, lsl #4
 3433 2500 120F     		lsrs	r2, r2, #28
 3434 2502 42EA0112 		orr	r2, r2, r1, lsl #4
 3435 2506 2899     		ldr	r1, [sp, #160]
 3436 2508 2698     		ldr	r0, [sp, #152]
 3437 250a 8907     		lsls	r1, r1, #30
 3438 250c 41EA9001 		orr	r1, r1, r0, lsr #2
 3439 2510 4FEA807E 		lsl	lr, r0, #30
 3440 2514 2898     		ldr	r0, [sp, #160]
 3441 2516 4A40     		eors	r2, r2, r1
 3442 2518 4EEA900E 		orr	lr, lr, r0, lsr #2
 3443 251c 4106     		lsls	r1, r0, #25
 3444 251e 2698     		ldr	r0, [sp, #152]
 3445 2520 87EA0E07 		eor	r7, r7, lr
 3446 2524 41EAD011 		orr	r1, r1, r0, lsr #7
 3447 2528 4FEA406E 		lsl	lr, r0, #25
 3448 252c 2898     		ldr	r0, [sp, #160]
 3449 252e 4A40     		eors	r2, r2, r1
 3450 2530 4EEAD01E 		orr	lr, lr, r0, lsr #7
 3451 2534 2A99     		ldr	r1, [sp, #168]
 3452 2536 2C98     		ldr	r0, [sp, #176]
 3453 2538 2E92     		str	r2, [sp, #184]
 3454 253a 4140     		eors	r1, r1, r0
 3455 253c 2D9A     		ldr	r2, [sp, #180]
 3456 253e 2B98     		ldr	r0, [sp, #172]
 3457 2540 87EA0E07 		eor	r7, r7, lr
 3458 2544 80EA0208 		eor	r8, r0, r2
 3459 2548 269A     		ldr	r2, [sp, #152]
 3460 254a 1140     		ands	r1, r1, r2
 3461 254c 289A     		ldr	r2, [sp, #160]
 3462 254e 08EA0208 		and	r8, r8, r2
 3463 2552 2A9A     		ldr	r2, [sp, #168]
 3464 2554 2C98     		ldr	r0, [sp, #176]
 3465 2556 02EA0009 		and	r9, r2, r0
 3466 255a 2B9A     		ldr	r2, [sp, #172]
 3467 255c 2D98     		ldr	r0, [sp, #180]
 3468 255e 81EA0901 		eor	r1, r1, r9
 3469 2562 02EA000E 		and	lr, r2, r0
 3470 2566 2E9A     		ldr	r2, [sp, #184]
 3471 2568 7918     		adds	r1, r7, r1
 3472 256a 88EA0E0E 		eor	lr, r8, lr
 3473 256e 42EB0E0E 		adc	lr, r2, lr
 3474 2572 2F98     		ldr	r0, [sp, #188]
 3475 2574 279A     		ldr	r2, [sp, #156]
 3476 2576 1218     		adds	r2, r2, r0
 3477 2578 2E92     		str	r2, [sp, #184]
 3478 257a 2998     		ldr	r0, [sp, #164]
 3479 257c 2F9A     		ldr	r2, [sp, #188]
 3480 257e 40EB0408 		adc	r8, r0, r4
 3481 2582 5118     		adds	r1, r2, r1
 3482 2584 2E9A     		ldr	r2, [sp, #184]
 3483 2586 2791     		str	r1, [sp, #156]
 3484 2588 44EB0E01 		adc	r1, r4, lr
ARM GAS  /tmp/ccxnUvyY.s 			page 62


 3485 258c 2991     		str	r1, [sp, #164]
 3486 258e 900C     		lsrs	r0, r2, #18
 3487 2590 910B     		lsrs	r1, r2, #14
 3488 2592 4FEA9837 		lsr	r7, r8, #14
 3489 2596 4FEA9844 		lsr	r4, r8, #18
 3490 259a 41EA8841 		orr	r1, r1, r8, lsl #18
 3491 259e 40EA883E 		orr	lr, r0, r8, lsl #14
 3492 25a2 44EA8234 		orr	r4, r4, r2, lsl #14
 3493 25a6 47EA8247 		orr	r7, r7, r2, lsl #18
 3494 25aa 81EA0E00 		eor	r0, r1, lr
 3495 25ae 6740     		eors	r7, r7, r4
 3496 25b0 D105     		lsls	r1, r2, #23
 3497 25b2 4FEAC854 		lsl	r4, r8, #23
 3498 25b6 44EA5224 		orr	r4, r4, r2, lsr #9
 3499 25ba 41EA5821 		orr	r1, r1, r8, lsr #9
 3500 25be 4140     		eors	r1, r1, r0
 3501 25c0 6740     		eors	r7, r7, r4
 3502 25c2 5148     		ldr	r0, .L28+16
 3503 25c4 229C     		ldr	r4, [sp, #136]
 3504 25c6 109A     		ldr	r2, [sp, #64]
 3505 25c8 2018     		adds	r0, r4, r0
 3506 25ca 504C     		ldr	r4, .L28+20
 3507 25cc 44EB020E 		adc	lr, r4, r2
 3508 25d0 2E9A     		ldr	r2, [sp, #184]
 3509 25d2 8019     		adds	r0, r0, r6
 3510 25d4 43EB0E03 		adc	r3, r3, lr
 3511 25d8 0818     		adds	r0, r1, r0
 3512 25da 47EB0303 		adc	r3, r7, r3
 3513 25de 0BEA0206 		and	r6, fp, r2
 3514 25e2 2CEA0207 		bic	r7, ip, r2
 3515 25e6 279A     		ldr	r2, [sp, #156]
 3516 25e8 7E40     		eors	r6, r6, r7
 3517 25ea 8019     		adds	r0, r0, r6
 3518 25ec 0AEA0804 		and	r4, r10, r8
 3519 25f0 25EA0801 		bic	r1, r5, r8
 3520 25f4 4FEA1276 		lsr	r6, r2, #28
 3521 25f8 299A     		ldr	r2, [sp, #164]
 3522 25fa 81EA0401 		eor	r1, r1, r4
 3523 25fe 43EB0103 		adc	r3, r3, r1
 3524 2602 46EA0216 		orr	r6, r6, r2, lsl #4
 3525 2606 110F     		lsrs	r1, r2, #28
 3526 2608 279A     		ldr	r2, [sp, #156]
 3527 260a 41EA0211 		orr	r1, r1, r2, lsl #4
 3528 260e 299A     		ldr	r2, [sp, #164]
 3529 2610 9407     		lsls	r4, r2, #30
 3530 2612 279A     		ldr	r2, [sp, #156]
 3531 2614 44EA9204 		orr	r4, r4, r2, lsr #2
 3532 2618 9707     		lsls	r7, r2, #30
 3533 261a 299A     		ldr	r2, [sp, #164]
 3534 261c 6140     		eors	r1, r1, r4
 3535 261e 47EA9207 		orr	r7, r7, r2, lsr #2
 3536 2622 5406     		lsls	r4, r2, #25
 3537 2624 279A     		ldr	r2, [sp, #156]
 3538 2626 7E40     		eors	r6, r6, r7
 3539 2628 44EAD214 		orr	r4, r4, r2, lsr #7
 3540 262c 5706     		lsls	r7, r2, #25
 3541 262e 299A     		ldr	r2, [sp, #164]
ARM GAS  /tmp/ccxnUvyY.s 			page 63


 3542 2630 6140     		eors	r1, r1, r4
 3543 2632 47EAD217 		orr	r7, r7, r2, lsr #7
 3544 2636 269C     		ldr	r4, [sp, #152]
 3545 2638 2C9A     		ldr	r2, [sp, #176]
 3546 263a 7E40     		eors	r6, r6, r7
 3547 263c 5440     		eors	r4, r4, r2
 3548 263e 289F     		ldr	r7, [sp, #160]
 3549 2640 2D9A     		ldr	r2, [sp, #180]
 3550 2642 82EA070E 		eor	lr, r2, r7
 3551 2646 279A     		ldr	r2, [sp, #156]
 3552 2648 269F     		ldr	r7, [sp, #152]
 3553 264a 1440     		ands	r4, r4, r2
 3554 264c 299A     		ldr	r2, [sp, #164]
 3555 264e 0EEA020E 		and	lr, lr, r2
 3556 2652 2C9A     		ldr	r2, [sp, #176]
 3557 2654 02EA0709 		and	r9, r2, r7
 3558 2658 2D9A     		ldr	r2, [sp, #180]
 3559 265a 289F     		ldr	r7, [sp, #160]
 3560 265c 84EA0904 		eor	r4, r4, r9
 3561 2660 1740     		ands	r7, r7, r2
 3562 2662 2A9A     		ldr	r2, [sp, #168]
 3563 2664 3419     		adds	r4, r6, r4
 3564 2666 8EEA0707 		eor	r7, lr, r7
 3565 266a 41EB0707 		adc	r7, r1, r7
 3566 266e 12EB0009 		adds	r9, r2, r0
 3567 2672 2B9A     		ldr	r2, [sp, #172]
 3568 2674 4FEA9941 		lsr	r1, r9, #18
 3569 2678 42EB030E 		adc	lr, r2, r3
 3570 267c 0219     		adds	r2, r0, r4
 3571 267e 43EB0703 		adc	r3, r3, r7
 3572 2682 4FEA9E30 		lsr	r0, lr, #14
 3573 2686 4FEA9E47 		lsr	r7, lr, #18
 3574 268a 2B93     		str	r3, [sp, #172]
 3575 268c 40EA8940 		orr	r0, r0, r9, lsl #18
 3576 2690 47EA8933 		orr	r3, r7, r9, lsl #14
 3577 2694 4FEA9934 		lsr	r4, r9, #14
 3578 2698 80EA0307 		eor	r7, r0, r3
 3579 269c 41EA8E31 		orr	r1, r1, lr, lsl #14
 3580 26a0 44EA8E44 		orr	r4, r4, lr, lsl #18
 3581 26a4 4FEAC953 		lsl	r3, r9, #23
 3582 26a8 43EA5E23 		orr	r3, r3, lr, lsr #9
 3583 26ac 4C40     		eors	r4, r4, r1
 3584 26ae 5C40     		eors	r4, r4, r3
 3585 26b0 4FEACE50 		lsl	r0, lr, #23
 3586 26b4 239B     		ldr	r3, [sp, #140]
 3587 26b6 1649     		ldr	r1, .L28+24
 3588 26b8 40EA5920 		orr	r0, r0, r9, lsr #9
 3589 26bc 5918     		adds	r1, r3, r1
 3590 26be 80EA0700 		eor	r0, r0, r7
 3591 26c2 119B     		ldr	r3, [sp, #68]
 3592 26c4 134F     		ldr	r7, .L28+28
 3593 26c6 2A92     		str	r2, [sp, #168]
 3594 26c8 47EB0307 		adc	r7, r7, r3
 3595 26cc 11EB0C0C 		adds	ip, r1, ip
 3596 26d0 2E9B     		ldr	r3, [sp, #184]
 3597 26d2 45EB0707 		adc	r7, r5, r7
 3598 26d6 14EB0C0C 		adds	ip, r4, ip
ARM GAS  /tmp/ccxnUvyY.s 			page 64


 3599 26da 40EB0707 		adc	r7, r0, r7
 3600 26de 03EA0903 		and	r3, r3, r9
 3601 26e2 2BEA0900 		bic	r0, fp, r9
 3602 26e6 4340     		eors	r3, r3, r0
 3603 26e8 1CEB030C 		adds	ip, ip, r3
 3604 26ec 2B9B     		ldr	r3, [sp, #172]
 3605 26ee 4FEA1270 		lsr	r0, r2, #28
 3606 26f2 40EA0310 		orr	r0, r0, r3, lsl #4
 3607 26f6 0FE0     		b	.L29
 3608              	.L30:
 3609              		.align	2
 3610              	.L28:
 3611 26f8 ABDF66EE 		.word	-295247957
 3612 26fc 52513E98 		.word	-1740746414
 3613 2700 1032B42D 		.word	766784016
 3614 2704 6DC631A8 		.word	-1473132947
 3615 2708 3F21FB98 		.word	-1728372417
 3616 270c C82703B0 		.word	-1341970488
 3617 2710 E40EEFBE 		.word	-1091629340
 3618 2714 C77F59BF 		.word	-1084653625
 3619              	.L29:
 3620 2718 4FEA1373 		lsr	r3, r3, #28
 3621 271c 43EA0213 		orr	r3, r3, r2, lsl #4
 3622 2720 2B9A     		ldr	r2, [sp, #172]
 3623 2722 08EA0E01 		and	r1, r8, lr
 3624 2726 2AEA0E05 		bic	r5, r10, lr
 3625 272a 85EA0105 		eor	r5, r5, r1
 3626 272e 4FEA8271 		lsl	r1, r2, #30
 3627 2732 2A9A     		ldr	r2, [sp, #168]
 3628 2734 47EB0507 		adc	r7, r7, r5
 3629 2738 41EA9201 		orr	r1, r1, r2, lsr #2
 3630 273c 9407     		lsls	r4, r2, #30
 3631 273e 2B9A     		ldr	r2, [sp, #172]
 3632 2740 4B40     		eors	r3, r3, r1
 3633 2742 44EA9204 		orr	r4, r4, r2, lsr #2
 3634 2746 5106     		lsls	r1, r2, #25
 3635 2748 2A9A     		ldr	r2, [sp, #168]
 3636 274a 6040     		eors	r0, r0, r4
 3637 274c 41EAD211 		orr	r1, r1, r2, lsr #7
 3638 2750 5406     		lsls	r4, r2, #25
 3639 2752 2B9A     		ldr	r2, [sp, #172]
 3640 2754 4B40     		eors	r3, r3, r1
 3641 2756 44EAD214 		orr	r4, r4, r2, lsr #7
 3642 275a 6040     		eors	r0, r0, r4
 3643 275c DDE92621 		ldrd	r2, r1, [sp, #152]
 3644 2760 5140     		eors	r1, r1, r2
 3645 2762 DDE92824 		ldrd	r2, r4, [sp, #160]
 3646 2766 82EA0405 		eor	r5, r2, r4
 3647 276a 2A9A     		ldr	r2, [sp, #168]
 3648 276c 1140     		ands	r1, r1, r2
 3649 276e 2B9A     		ldr	r2, [sp, #172]
 3650 2770 1540     		ands	r5, r5, r2
 3651 2772 DDE92624 		ldrd	r2, r4, [sp, #152]
 3652 2776 02EA0406 		and	r6, r2, r4
 3653 277a 7140     		eors	r1, r1, r6
 3654 277c DDE92824 		ldrd	r2, r4, [sp, #160]
 3655 2780 1440     		ands	r4, r4, r2
ARM GAS  /tmp/ccxnUvyY.s 			page 65


 3656 2782 4118     		adds	r1, r0, r1
 3657 2784 84EA0504 		eor	r4, r4, r5
 3658 2788 43EB0405 		adc	r5, r3, r4
 3659 278c 2C9B     		ldr	r3, [sp, #176]
 3660 278e 129A     		ldr	r2, [sp, #72]
 3661 2790 13EB0C04 		adds	r4, r3, ip
 3662 2794 2D9B     		ldr	r3, [sp, #180]
 3663 2796 4FEA9446 		lsr	r6, r4, #18
 3664 279a 43EB0700 		adc	r0, r3, r7
 3665 279e 1CEB0103 		adds	r3, ip, r1
 3666 27a2 2C93     		str	r3, [sp, #176]
 3667 27a4 47EB0503 		adc	r3, r7, r5
 3668 27a8 2D93     		str	r3, [sp, #180]
 3669 27aa A10B     		lsrs	r1, r4, #14
 3670 27ac 850B     		lsrs	r5, r0, #14
 3671 27ae 830C     		lsrs	r3, r0, #18
 3672 27b0 41EA8041 		orr	r1, r1, r0, lsl #18
 3673 27b4 46EA8037 		orr	r7, r6, r0, lsl #14
 3674 27b8 43EA8433 		orr	r3, r3, r4, lsl #14
 3675 27bc 45EA8445 		orr	r5, r5, r4, lsl #18
 3676 27c0 81EA0706 		eor	r6, r1, r7
 3677 27c4 5D40     		eors	r5, r5, r3
 3678 27c6 E105     		lsls	r1, r4, #23
 3679 27c8 C305     		lsls	r3, r0, #23
 3680 27ca 43EA5423 		orr	r3, r3, r4, lsr #9
 3681 27ce 41EA5021 		orr	r1, r1, r0, lsr #9
 3682 27d2 7140     		eors	r1, r1, r6
 3683 27d4 5D40     		eors	r5, r5, r3
 3684 27d6 CC4E     		ldr	r6, .L31
 3685 27d8 249B     		ldr	r3, [sp, #144]
 3686 27da 9E19     		adds	r6, r3, r6
 3687 27dc CB4B     		ldr	r3, .L31+4
 3688 27de 43EB020C 		adc	ip, r3, r2
 3689 27e2 2E9B     		ldr	r3, [sp, #184]
 3690 27e4 16EB0B06 		adds	r6, r6, fp
 3691 27e8 4AEB0C0A 		adc	r10, r10, ip
 3692 27ec 8E19     		adds	r6, r1, r6
 3693 27ee 45EB0A0A 		adc	r10, r5, r10
 3694 27f2 09EA040B 		and	fp, r9, r4
 3695 27f6 23EA0405 		bic	r5, r3, r4
 3696 27fa 0EEA0001 		and	r1, lr, r0
 3697 27fe 28EA0003 		bic	r3, r8, r0
 3698 2802 85EA0B0B 		eor	fp, r5, fp
 3699 2806 16EB0B06 		adds	r6, r6, fp
 3700 280a 83EA0103 		eor	r3, r3, r1
 3701 280e 4AEB030A 		adc	r10, r10, r3
 3702 2812 2C9B     		ldr	r3, [sp, #176]
 3703 2814 2D9A     		ldr	r2, [sp, #180]
 3704 2816 1B0F     		lsrs	r3, r3, #28
 3705 2818 43EA0213 		orr	r3, r3, r2, lsl #4
 3706 281c 110F     		lsrs	r1, r2, #28
 3707 281e 2C9A     		ldr	r2, [sp, #176]
 3708 2820 41EA0211 		orr	r1, r1, r2, lsl #4
 3709 2824 2D9A     		ldr	r2, [sp, #180]
 3710 2826 9507     		lsls	r5, r2, #30
 3711 2828 2C9A     		ldr	r2, [sp, #176]
 3712 282a 45EA9205 		orr	r5, r5, r2, lsr #2
ARM GAS  /tmp/ccxnUvyY.s 			page 66


 3713 282e 9707     		lsls	r7, r2, #30
 3714 2830 2D9A     		ldr	r2, [sp, #180]
 3715 2832 6940     		eors	r1, r1, r5
 3716 2834 47EA9207 		orr	r7, r7, r2, lsr #2
 3717 2838 5506     		lsls	r5, r2, #25
 3718 283a 2C9A     		ldr	r2, [sp, #176]
 3719 283c 7B40     		eors	r3, r3, r7
 3720 283e 45EAD215 		orr	r5, r5, r2, lsr #7
 3721 2842 5706     		lsls	r7, r2, #25
 3722 2844 2D9A     		ldr	r2, [sp, #180]
 3723 2846 6940     		eors	r1, r1, r5
 3724 2848 47EAD217 		orr	r7, r7, r2, lsr #7
 3725 284c 2A9D     		ldr	r5, [sp, #168]
 3726 284e 279A     		ldr	r2, [sp, #156]
 3727 2850 7B40     		eors	r3, r3, r7
 3728 2852 5540     		eors	r5, r5, r2
 3729 2854 2B9F     		ldr	r7, [sp, #172]
 3730 2856 299A     		ldr	r2, [sp, #164]
 3731 2858 2F93     		str	r3, [sp, #188]
 3732 285a 5740     		eors	r7, r7, r2
 3733 285c 2C9A     		ldr	r2, [sp, #176]
 3734 285e 2A9B     		ldr	r3, [sp, #168]
 3735 2860 1540     		ands	r5, r5, r2
 3736 2862 2D9A     		ldr	r2, [sp, #180]
 3737 2864 1740     		ands	r7, r7, r2
 3738 2866 279A     		ldr	r2, [sp, #156]
 3739 2868 02EA030B 		and	fp, r2, r3
 3740 286c 299B     		ldr	r3, [sp, #164]
 3741 286e 2B9A     		ldr	r2, [sp, #172]
 3742 2870 85EA0B05 		eor	r5, r5, fp
 3743 2874 03EA020C 		and	ip, r3, r2
 3744 2878 2F9B     		ldr	r3, [sp, #188]
 3745 287a 87EA0C07 		eor	r7, r7, ip
 3746 287e 5D19     		adds	r5, r3, r5
 3747 2880 269B     		ldr	r3, [sp, #152]
 3748 2882 41EB0707 		adc	r7, r1, r7
 3749 2886 9B19     		adds	r3, r3, r6
 3750 2888 2F93     		str	r3, [sp, #188]
 3751 288a 289B     		ldr	r3, [sp, #160]
 3752 288c 2F9A     		ldr	r2, [sp, #188]
 3753 288e 43EB0A03 		adc	r3, r3, r10
 3754 2892 3093     		str	r3, [sp, #192]
 3755 2894 7319     		adds	r3, r6, r5
 3756 2896 2693     		str	r3, [sp, #152]
 3757 2898 4AEB0703 		adc	r3, r10, r7
 3758 289c 2893     		str	r3, [sp, #160]
 3759 289e 2F9B     		ldr	r3, [sp, #188]
 3760 28a0 9B4D     		ldr	r5, .L31+8
 3761 28a2 4FEA933A 		lsr	r10, r3, #14
 3762 28a6 309B     		ldr	r3, [sp, #192]
 3763 28a8 4AEA834A 		orr	r10, r10, r3, lsl #18
 3764 28ac 4FEA933B 		lsr	fp, r3, #14
 3765 28b0 2F9B     		ldr	r3, [sp, #188]
 3766 28b2 4BEA834B 		orr	fp, fp, r3, lsl #18
 3767 28b6 990C     		lsrs	r1, r3, #18
 3768 28b8 309B     		ldr	r3, [sp, #192]
 3769 28ba 41EA8331 		orr	r1, r1, r3, lsl #14
ARM GAS  /tmp/ccxnUvyY.s 			page 67


 3770 28be 9B0C     		lsrs	r3, r3, #18
 3771 28c0 43EA8233 		orr	r3, r3, r2, lsl #14
 3772 28c4 8BEA030B 		eor	fp, fp, r3
 3773 28c8 309B     		ldr	r3, [sp, #192]
 3774 28ca 8AEA010A 		eor	r10, r10, r1
 3775 28ce DB05     		lsls	r3, r3, #23
 3776 28d0 43EA5223 		orr	r3, r3, r2, lsr #9
 3777 28d4 D105     		lsls	r1, r2, #23
 3778 28d6 309A     		ldr	r2, [sp, #192]
 3779 28d8 8BEA030B 		eor	fp, fp, r3
 3780 28dc 259B     		ldr	r3, [sp, #148]
 3781 28de 41EA5221 		orr	r1, r1, r2, lsr #9
 3782 28e2 5D19     		adds	r5, r3, r5
 3783 28e4 8AEA010A 		eor	r10, r10, r1
 3784 28e8 139B     		ldr	r3, [sp, #76]
 3785 28ea 8A49     		ldr	r1, .L31+12
 3786 28ec 289F     		ldr	r7, [sp, #160]
 3787 28ee 41EB030C 		adc	ip, r1, r3
 3788 28f2 2E9B     		ldr	r3, [sp, #184]
 3789 28f4 EA18     		adds	r2, r5, r3
 3790 28f6 2F9B     		ldr	r3, [sp, #188]
 3791 28f8 309D     		ldr	r5, [sp, #192]
 3792 28fa 29EA0306 		bic	r6, r9, r3
 3793 28fe 309B     		ldr	r3, [sp, #192]
 3794 2900 48EB0C08 		adc	r8, r8, ip
 3795 2904 2EEA0301 		bic	r1, lr, r3
 3796 2908 2F9B     		ldr	r3, [sp, #188]
 3797 290a 1AEB0202 		adds	r2, r10, r2
 3798 290e 04EA0303 		and	r3, r4, r3
 3799 2912 00EA0505 		and	r5, r0, r5
 3800 2916 83EA0603 		eor	r3, r3, r6
 3801 291a 4BEB0808 		adc	r8, fp, r8
 3802 291e 6940     		eors	r1, r1, r5
 3803 2920 D218     		adds	r2, r2, r3
 3804 2922 269B     		ldr	r3, [sp, #152]
 3805 2924 48EB0108 		adc	r8, r8, r1
 3806 2928 2899     		ldr	r1, [sp, #160]
 3807 292a 269D     		ldr	r5, [sp, #152]
 3808 292c 1B0F     		lsrs	r3, r3, #28
 3809 292e 43EA0113 		orr	r3, r3, r1, lsl #4
 3810 2932 090F     		lsrs	r1, r1, #28
 3811 2934 41EA0511 		orr	r1, r1, r5, lsl #4
 3812 2938 289D     		ldr	r5, [sp, #160]
 3813 293a 269E     		ldr	r6, [sp, #152]
 3814 293c AD07     		lsls	r5, r5, #30
 3815 293e 45EA9605 		orr	r5, r5, r6, lsr #2
 3816 2942 B607     		lsls	r6, r6, #30
 3817 2944 46EA9706 		orr	r6, r6, r7, lsr #2
 3818 2948 7340     		eors	r3, r3, r6
 3819 294a 269E     		ldr	r6, [sp, #152]
 3820 294c 6940     		eors	r1, r1, r5
 3821 294e 7D06     		lsls	r5, r7, #25
 3822 2950 45EAD615 		orr	r5, r5, r6, lsr #7
 3823 2954 7606     		lsls	r6, r6, #25
 3824 2956 46EAD716 		orr	r6, r6, r7, lsr #7
 3825 295a 83EA060A 		eor	r10, r3, r6
 3826 295e 6940     		eors	r1, r1, r5
ARM GAS  /tmp/ccxnUvyY.s 			page 68


 3827 2960 2C9E     		ldr	r6, [sp, #176]
 3828 2962 2A9D     		ldr	r5, [sp, #168]
 3829 2964 2D9F     		ldr	r7, [sp, #180]
 3830 2966 7540     		eors	r5, r5, r6
 3831 2968 2B9E     		ldr	r6, [sp, #172]
 3832 296a 2C9B     		ldr	r3, [sp, #176]
 3833 296c 7E40     		eors	r6, r6, r7
 3834 296e 269F     		ldr	r7, [sp, #152]
 3835 2970 3D40     		ands	r5, r5, r7
 3836 2972 289F     		ldr	r7, [sp, #160]
 3837 2974 3E40     		ands	r6, r6, r7
 3838 2976 2A9F     		ldr	r7, [sp, #168]
 3839 2978 07EA030C 		and	ip, r7, r3
 3840 297c 2B9B     		ldr	r3, [sp, #172]
 3841 297e 2D9F     		ldr	r7, [sp, #180]
 3842 2980 85EA0C05 		eor	r5, r5, ip
 3843 2984 1F40     		ands	r7, r7, r3
 3844 2986 279B     		ldr	r3, [sp, #156]
 3845 2988 1AEB0505 		adds	r5, r10, r5
 3846 298c 86EA0706 		eor	r6, r6, r7
 3847 2990 41EB0606 		adc	r6, r1, r6
 3848 2994 9B18     		adds	r3, r3, r2
 3849 2996 2E93     		str	r3, [sp, #184]
 3850 2998 299B     		ldr	r3, [sp, #164]
 3851 299a 43EB0803 		adc	r3, r3, r8
 3852 299e 3193     		str	r3, [sp, #196]
 3853 29a0 2E9B     		ldr	r3, [sp, #184]
 3854 29a2 12EB050A 		adds	r10, r2, r5
 3855 29a6 4FEA9337 		lsr	r7, r3, #14
 3856 29aa 319B     		ldr	r3, [sp, #196]
 3857 29ac 48EB0608 		adc	r8, r8, r6
 3858 29b0 47EA8347 		orr	r7, r7, r3, lsl #18
 3859 29b4 4FEA933C 		lsr	ip, r3, #14
 3860 29b8 2E9B     		ldr	r3, [sp, #184]
 3861 29ba 319A     		ldr	r2, [sp, #196]
 3862 29bc 4CEA834C 		orr	ip, ip, r3, lsl #18
 3863 29c0 9B0C     		lsrs	r3, r3, #18
 3864 29c2 43EA8231 		orr	r1, r3, r2, lsl #14
 3865 29c6 2E9B     		ldr	r3, [sp, #184]
 3866 29c8 920C     		lsrs	r2, r2, #18
 3867 29ca 42EA8332 		orr	r2, r2, r3, lsl #14
 3868 29ce 8CEA020C 		eor	ip, ip, r2
 3869 29d2 319A     		ldr	r2, [sp, #196]
 3870 29d4 87EA0103 		eor	r3, r7, r1
 3871 29d8 2E99     		ldr	r1, [sp, #184]
 3872 29da D205     		lsls	r2, r2, #23
 3873 29dc 42EA5122 		orr	r2, r2, r1, lsr #9
 3874 29e0 CF05     		lsls	r7, r1, #23
 3875 29e2 3199     		ldr	r1, [sp, #196]
 3876 29e4 8CEA020C 		eor	ip, ip, r2
 3877 29e8 47EA5127 		orr	r7, r7, r1, lsr #9
 3878 29ec 5F40     		eors	r7, r7, r3
 3879 29ee 4A4A     		ldr	r2, .L31+16
 3880 29f0 169B     		ldr	r3, [sp, #88]
 3881 29f2 4A4D     		ldr	r5, .L31+20
 3882 29f4 9A18     		adds	r2, r3, r2
 3883 29f6 029B     		ldr	r3, [sp, #8]
ARM GAS  /tmp/ccxnUvyY.s 			page 69


 3884 29f8 45EB0305 		adc	r5, r5, r3
 3885 29fc 12EB0903 		adds	r3, r2, r9
 3886 2a00 2E9A     		ldr	r2, [sp, #184]
 3887 2a02 4EEB050E 		adc	lr, lr, r5
 3888 2a06 20EA0109 		bic	r9, r0, r1
 3889 2a0a 24EA0205 		bic	r5, r4, r2
 3890 2a0e DDE92E12 		ldrd	r1, r2, [sp, #184]
 3891 2a12 0A40     		ands	r2, r2, r1
 3892 2a14 FB18     		adds	r3, r7, r3
 3893 2a16 82EA0502 		eor	r2, r2, r5
 3894 2a1a DDE93016 		ldrd	r1, r6, [sp, #192]
 3895 2a1e 01EA0601 		and	r1, r1, r6
 3896 2a22 4CEB0E0E 		adc	lr, ip, lr
 3897 2a26 89EA0109 		eor	r9, r9, r1
 3898 2a2a 9B18     		adds	r3, r3, r2
 3899 2a2c 4FEA1871 		lsr	r1, r8, #28
 3900 2a30 4FEA1A72 		lsr	r2, r10, #28
 3901 2a34 4FEA8875 		lsl	r5, r8, #30
 3902 2a38 4FEA8A76 		lsl	r6, r10, #30
 3903 2a3c 45EA9A05 		orr	r5, r5, r10, lsr #2
 3904 2a40 46EA9806 		orr	r6, r6, r8, lsr #2
 3905 2a44 42EA0812 		orr	r2, r2, r8, lsl #4
 3906 2a48 41EA0A11 		orr	r1, r1, r10, lsl #4
 3907 2a4c 82EA0602 		eor	r2, r2, r6
 3908 2a50 81EA0501 		eor	r1, r1, r5
 3909 2a54 4FEA4A66 		lsl	r6, r10, #25
 3910 2a58 4FEA4865 		lsl	r5, r8, #25
 3911 2a5c 45EADA15 		orr	r5, r5, r10, lsr #7
 3912 2a60 46EAD816 		orr	r6, r6, r8, lsr #7
 3913 2a64 4EEB0909 		adc	r9, lr, r9
 3914 2a68 6940     		eors	r1, r1, r5
 3915 2a6a 82EA060E 		eor	lr, r2, r6
 3916 2a6e 2C9D     		ldr	r5, [sp, #176]
 3917 2a70 269E     		ldr	r6, [sp, #152]
 3918 2a72 289F     		ldr	r7, [sp, #160]
 3919 2a74 7540     		eors	r5, r5, r6
 3920 2a76 2D9E     		ldr	r6, [sp, #180]
 3921 2a78 269A     		ldr	r2, [sp, #152]
 3922 2a7a 7E40     		eors	r6, r6, r7
 3923 2a7c 2C9F     		ldr	r7, [sp, #176]
 3924 2a7e 05EA0A05 		and	r5, r5, r10
 3925 2a82 07EA020C 		and	ip, r7, r2
 3926 2a86 2D9A     		ldr	r2, [sp, #180]
 3927 2a88 289F     		ldr	r7, [sp, #160]
 3928 2a8a 06EA0806 		and	r6, r6, r8
 3929 2a8e 1740     		ands	r7, r7, r2
 3930 2a90 85EA0C05 		eor	r5, r5, ip
 3931 2a94 2A9A     		ldr	r2, [sp, #168]
 3932 2a96 1EEB0505 		adds	r5, lr, r5
 3933 2a9a 86EA0706 		eor	r6, r6, r7
 3934 2a9e 41EB0606 		adc	r6, r1, r6
 3935 2aa2 D218     		adds	r2, r2, r3
 3936 2aa4 3292     		str	r2, [sp, #200]
 3937 2aa6 2B9A     		ldr	r2, [sp, #172]
 3938 2aa8 42EB090C 		adc	ip, r2, r9
 3939 2aac 5B19     		adds	r3, r3, r5
 3940 2aae 329A     		ldr	r2, [sp, #200]
ARM GAS  /tmp/ccxnUvyY.s 			page 70


 3941 2ab0 2793     		str	r3, [sp, #156]
 3942 2ab2 329B     		ldr	r3, [sp, #200]
 3943 2ab4 49EB0609 		adc	r9, r9, r6
 3944 2ab8 4FEA924B 		lsr	fp, r2, #18
 3945 2abc 4FEA9C4E 		lsr	lr, ip, #18
 3946 2ac0 4FEA9C36 		lsr	r6, ip, #14
 3947 2ac4 9B0B     		lsrs	r3, r3, #14
 3948 2ac6 43EA8C43 		orr	r3, r3, ip, lsl #18
 3949 2aca 46EA8246 		orr	r6, r6, r2, lsl #18
 3950 2ace 4BEA8C31 		orr	r1, fp, ip, lsl #14
 3951 2ad2 4EEA8232 		orr	r2, lr, r2, lsl #14
 3952 2ad6 83EA010B 		eor	fp, r3, r1
 3953 2ada 86EA020E 		eor	lr, r6, r2
 3954 2ade 329B     		ldr	r3, [sp, #200]
 3955 2ae0 179A     		ldr	r2, [sp, #92]
 3956 2ae2 0F49     		ldr	r1, .L31+24
 3957 2ae4 4FEACC56 		lsl	r6, ip, #23
 3958 2ae8 5118     		adds	r1, r2, r1
 3959 2aea 039D     		ldr	r5, [sp, #12]
 3960 2aec 0D4A     		ldr	r2, .L31+28
 3961 2aee 46EA5326 		orr	r6, r6, r3, lsr #9
 3962 2af2 4FEAC353 		lsl	r3, r3, #23
 3963 2af6 43EA5C23 		orr	r3, r3, ip, lsr #9
 3964 2afa 8BEA0303 		eor	r3, fp, r3
 3965 2afe 8EEA0606 		eor	r6, lr, r6
 3966 2b02 42EB050E 		adc	lr, r2, r5
 3967 2b06 0FE0     		b	.L32
 3968              	.L33:
 3969              		.align	2
 3970              	.L31:
 3971 2b08 C28FA83D 		.word	1034457026
 3972 2b0c F30BE0C6 		.word	-958395405
 3973 2b10 25A70A93 		.word	-1828018395
 3974 2b14 4791A7D5 		.word	-710438585
 3975 2b18 6F8203E0 		.word	-536640913
 3976 2b1c 5163CA06 		.word	113926993
 3977 2b20 706E0E0A 		.word	168717936
 3978 2b24 67292914 		.word	338241895
 3979              	.L32:
 3980 2b28 11EB040B 		adds	fp, r1, r4
 3981 2b2c 329A     		ldr	r2, [sp, #200]
 3982 2b2e 40EB0E0E 		adc	lr, r0, lr
 3983 2b32 13EB0B0B 		adds	fp, r3, fp
 3984 2b36 2F9B     		ldr	r3, [sp, #188]
 3985 2b38 46EB0E0E 		adc	lr, r6, lr
 3986 2b3c 23EA0200 		bic	r0, r3, r2
 3987 2b40 309B     		ldr	r3, [sp, #192]
 3988 2b42 08EA0907 		and	r7, r8, r9
 3989 2b46 23EA0C02 		bic	r2, r3, ip
 3990 2b4a 2E9B     		ldr	r3, [sp, #184]
 3991 2b4c 3299     		ldr	r1, [sp, #200]
 3992 2b4e 279C     		ldr	r4, [sp, #156]
 3993 2b50 0B40     		ands	r3, r3, r1
 3994 2b52 3199     		ldr	r1, [sp, #196]
 3995 2b54 4340     		eors	r3, r3, r0
 3996 2b56 01EA0C01 		and	r1, r1, ip
 3997 2b5a 1BEB030B 		adds	fp, fp, r3
ARM GAS  /tmp/ccxnUvyY.s 			page 71


 3998 2b5e 82EA0102 		eor	r2, r2, r1
 3999 2b62 279B     		ldr	r3, [sp, #156]
 4000 2b64 4EEB020E 		adc	lr, lr, r2
 4001 2b68 279A     		ldr	r2, [sp, #156]
 4002 2b6a 2798     		ldr	r0, [sp, #156]
 4003 2b6c 190F     		lsrs	r1, r3, #28
 4004 2b6e 4FEA1973 		lsr	r3, r9, #28
 4005 2b72 43EA0213 		orr	r3, r3, r2, lsl #4
 4006 2b76 4FEA8972 		lsl	r2, r9, #30
 4007 2b7a 42EA9002 		orr	r2, r2, r0, lsr #2
 4008 2b7e 8007     		lsls	r0, r0, #30
 4009 2b80 40EA9900 		orr	r0, r0, r9, lsr #2
 4010 2b84 41EA0911 		orr	r1, r1, r9, lsl #4
 4011 2b88 4140     		eors	r1, r1, r0
 4012 2b8a 2798     		ldr	r0, [sp, #156]
 4013 2b8c 5340     		eors	r3, r3, r2
 4014 2b8e 4FEA4962 		lsl	r2, r9, #25
 4015 2b92 42EAD012 		orr	r2, r2, r0, lsr #7
 4016 2b96 5340     		eors	r3, r3, r2
 4017 2b98 269A     		ldr	r2, [sp, #152]
 4018 2b9a 4006     		lsls	r0, r0, #25
 4019 2b9c 82EA0A02 		eor	r2, r2, r10
 4020 2ba0 40EAD910 		orr	r0, r0, r9, lsr #7
 4021 2ba4 2240     		ands	r2, r2, r4
 4022 2ba6 269C     		ldr	r4, [sp, #152]
 4023 2ba8 4140     		eors	r1, r1, r0
 4024 2baa 2898     		ldr	r0, [sp, #160]
 4025 2bac 04EA0A05 		and	r5, r4, r10
 4026 2bb0 289C     		ldr	r4, [sp, #160]
 4027 2bb2 80EA0800 		eor	r0, r0, r8
 4028 2bb6 00EA0900 		and	r0, r0, r9
 4029 2bba 04EA0804 		and	r4, r4, r8
 4030 2bbe 6A40     		eors	r2, r2, r5
 4031 2bc0 8A18     		adds	r2, r1, r2
 4032 2bc2 84EA0004 		eor	r4, r4, r0
 4033 2bc6 43EB0404 		adc	r4, r3, r4
 4034 2bca 2C9B     		ldr	r3, [sp, #176]
 4035 2bcc 1998     		ldr	r0, [sp, #100]
 4036 2bce 13EB0B03 		adds	r3, r3, fp
 4037 2bd2 3393     		str	r3, [sp, #204]
 4038 2bd4 2D9B     		ldr	r3, [sp, #180]
 4039 2bd6 43EB0E03 		adc	r3, r3, lr
 4040 2bda 1BEB020B 		adds	fp, fp, r2
 4041 2bde 2D93     		str	r3, [sp, #180]
 4042 2be0 4EEB0403 		adc	r3, lr, r4
 4043 2be4 2993     		str	r3, [sp, #164]
 4044 2be6 199B     		ldr	r3, [sp, #100]
 4045 2be8 5908     		lsrs	r1, r3, #1
 4046 2bea 079B     		ldr	r3, [sp, #28]
 4047 2bec 41EAC371 		orr	r1, r1, r3, lsl #31
 4048 2bf0 5A08     		lsrs	r2, r3, #1
 4049 2bf2 199B     		ldr	r3, [sp, #100]
 4050 2bf4 42EAC372 		orr	r2, r2, r3, lsl #31
 4051 2bf8 1D0A     		lsrs	r5, r3, #8
 4052 2bfa 079B     		ldr	r3, [sp, #28]
 4053 2bfc 45EA0365 		orr	r5, r5, r3, lsl #24
 4054 2c00 1B0A     		lsrs	r3, r3, #8
ARM GAS  /tmp/ccxnUvyY.s 			page 72


 4055 2c02 43EA0063 		orr	r3, r3, r0, lsl #24
 4056 2c06 5340     		eors	r3, r3, r2
 4057 2c08 079A     		ldr	r2, [sp, #28]
 4058 2c0a 4D40     		eors	r5, r5, r1
 4059 2c0c C109     		lsrs	r1, r0, #7
 4060 2c0e 41EA4261 		orr	r1, r1, r2, lsl #25
 4061 2c12 83EAD213 		eor	r3, r3, r2, lsr #7
 4062 2c16 189A     		ldr	r2, [sp, #96]
 4063 2c18 4D40     		eors	r5, r5, r1
 4064 2c1a AD18     		adds	r5, r5, r2
 4065 2c1c 069A     		ldr	r2, [sp, #24]
 4066 2c1e 1699     		ldr	r1, [sp, #88]
 4067 2c20 42EB0303 		adc	r3, r2, r3
 4068 2c24 219A     		ldr	r2, [sp, #132]
 4069 2c26 AD18     		adds	r5, r5, r2
 4070 2c28 0F9A     		ldr	r2, [sp, #60]
 4071 2c2a 42EB0303 		adc	r3, r2, r3
 4072 2c2e 169A     		ldr	r2, [sp, #88]
 4073 2c30 D40C     		lsrs	r4, r2, #19
 4074 2c32 029A     		ldr	r2, [sp, #8]
 4075 2c34 44EA4234 		orr	r4, r4, r2, lsl #13
 4076 2c38 D20C     		lsrs	r2, r2, #19
 4077 2c3a 42EA4132 		orr	r2, r2, r1, lsl #13
 4078 2c3e 0299     		ldr	r1, [sp, #8]
 4079 2c40 C800     		lsls	r0, r1, #3
 4080 2c42 1699     		ldr	r1, [sp, #88]
 4081 2c44 029E     		ldr	r6, [sp, #8]
 4082 2c46 40EA5170 		orr	r0, r0, r1, lsr #29
 4083 2c4a 4240     		eors	r2, r2, r0
 4084 2c4c C900     		lsls	r1, r1, #3
 4085 2c4e 1698     		ldr	r0, [sp, #88]
 4086 2c50 41EA5671 		orr	r1, r1, r6, lsr #29
 4087 2c54 6140     		eors	r1, r1, r4
 4088 2c56 8409     		lsrs	r4, r0, #6
 4089 2c58 44EA8664 		orr	r4, r4, r6, lsl #26
 4090 2c5c 6140     		eors	r1, r1, r4
 4091 2c5e 4919     		adds	r1, r1, r5
 4092 2c60 82EA9612 		eor	r2, r2, r6, lsr #6
 4093 2c64 43EB0203 		adc	r3, r3, r2
 4094 2c68 0693     		str	r3, [sp, #24]
 4095 2c6a 1A9B     		ldr	r3, [sp, #104]
 4096 2c6c 1891     		str	r1, [sp, #96]
 4097 2c6e 5908     		lsrs	r1, r3, #1
 4098 2c70 089B     		ldr	r3, [sp, #32]
 4099 2c72 1A98     		ldr	r0, [sp, #104]
 4100 2c74 41EAC371 		orr	r1, r1, r3, lsl #31
 4101 2c78 5A08     		lsrs	r2, r3, #1
 4102 2c7a 1A9B     		ldr	r3, [sp, #104]
 4103 2c7c 039E     		ldr	r6, [sp, #12]
 4104 2c7e 42EAC372 		orr	r2, r2, r3, lsl #31
 4105 2c82 1D0A     		lsrs	r5, r3, #8
 4106 2c84 089B     		ldr	r3, [sp, #32]
 4107 2c86 45EA0365 		orr	r5, r5, r3, lsl #24
 4108 2c8a 1B0A     		lsrs	r3, r3, #8
 4109 2c8c 43EA0063 		orr	r3, r3, r0, lsl #24
 4110 2c90 5340     		eors	r3, r3, r2
 4111 2c92 089A     		ldr	r2, [sp, #32]
ARM GAS  /tmp/ccxnUvyY.s 			page 73


 4112 2c94 4D40     		eors	r5, r5, r1
 4113 2c96 C109     		lsrs	r1, r0, #7
 4114 2c98 41EA4261 		orr	r1, r1, r2, lsl #25
 4115 2c9c 83EAD213 		eor	r3, r3, r2, lsr #7
 4116 2ca0 199A     		ldr	r2, [sp, #100]
 4117 2ca2 4D40     		eors	r5, r5, r1
 4118 2ca4 AD18     		adds	r5, r5, r2
 4119 2ca6 079A     		ldr	r2, [sp, #28]
 4120 2ca8 1799     		ldr	r1, [sp, #92]
 4121 2caa 42EB0303 		adc	r3, r2, r3
 4122 2cae 229A     		ldr	r2, [sp, #136]
 4123 2cb0 AD18     		adds	r5, r5, r2
 4124 2cb2 109A     		ldr	r2, [sp, #64]
 4125 2cb4 42EB0303 		adc	r3, r2, r3
 4126 2cb8 179A     		ldr	r2, [sp, #92]
 4127 2cba D40C     		lsrs	r4, r2, #19
 4128 2cbc 039A     		ldr	r2, [sp, #12]
 4129 2cbe 44EA4234 		orr	r4, r4, r2, lsl #13
 4130 2cc2 D20C     		lsrs	r2, r2, #19
 4131 2cc4 42EA4132 		orr	r2, r2, r1, lsl #13
 4132 2cc8 0399     		ldr	r1, [sp, #12]
 4133 2cca C800     		lsls	r0, r1, #3
 4134 2ccc 1799     		ldr	r1, [sp, #92]
 4135 2cce 40EA5170 		orr	r0, r0, r1, lsr #29
 4136 2cd2 4240     		eors	r2, r2, r0
 4137 2cd4 C900     		lsls	r1, r1, #3
 4138 2cd6 1798     		ldr	r0, [sp, #92]
 4139 2cd8 41EA5671 		orr	r1, r1, r6, lsr #29
 4140 2cdc 6140     		eors	r1, r1, r4
 4141 2cde 8409     		lsrs	r4, r0, #6
 4142 2ce0 44EA8664 		orr	r4, r4, r6, lsl #26
 4143 2ce4 6140     		eors	r1, r1, r4
 4144 2ce6 4919     		adds	r1, r1, r5
 4145 2ce8 82EA9612 		eor	r2, r2, r6, lsr #6
 4146 2cec 43EB0203 		adc	r3, r3, r2
 4147 2cf0 0793     		str	r3, [sp, #28]
 4148 2cf2 1B9B     		ldr	r3, [sp, #108]
 4149 2cf4 1991     		str	r1, [sp, #100]
 4150 2cf6 5908     		lsrs	r1, r3, #1
 4151 2cf8 099B     		ldr	r3, [sp, #36]
 4152 2cfa 1B98     		ldr	r0, [sp, #108]
 4153 2cfc 41EAC371 		orr	r1, r1, r3, lsl #31
 4154 2d00 5A08     		lsrs	r2, r3, #1
 4155 2d02 1B9B     		ldr	r3, [sp, #108]
 4156 2d04 42EAC372 		orr	r2, r2, r3, lsl #31
 4157 2d08 1D0A     		lsrs	r5, r3, #8
 4158 2d0a 099B     		ldr	r3, [sp, #36]
 4159 2d0c 45EA0365 		orr	r5, r5, r3, lsl #24
 4160 2d10 1B0A     		lsrs	r3, r3, #8
 4161 2d12 43EA0063 		orr	r3, r3, r0, lsl #24
 4162 2d16 5340     		eors	r3, r3, r2
 4163 2d18 099A     		ldr	r2, [sp, #36]
 4164 2d1a 4D40     		eors	r5, r5, r1
 4165 2d1c C109     		lsrs	r1, r0, #7
 4166 2d1e 41EA4261 		orr	r1, r1, r2, lsl #25
 4167 2d22 83EAD213 		eor	r3, r3, r2, lsr #7
 4168 2d26 1A9A     		ldr	r2, [sp, #104]
ARM GAS  /tmp/ccxnUvyY.s 			page 74


 4169 2d28 4D40     		eors	r5, r5, r1
 4170 2d2a AD18     		adds	r5, r5, r2
 4171 2d2c 089A     		ldr	r2, [sp, #32]
 4172 2d2e 42EB0303 		adc	r3, r2, r3
 4173 2d32 239A     		ldr	r2, [sp, #140]
 4174 2d34 AD18     		adds	r5, r5, r2
 4175 2d36 119A     		ldr	r2, [sp, #68]
 4176 2d38 1899     		ldr	r1, [sp, #96]
 4177 2d3a 42EB0303 		adc	r3, r2, r3
 4178 2d3e 189A     		ldr	r2, [sp, #96]
 4179 2d40 069E     		ldr	r6, [sp, #24]
 4180 2d42 D40C     		lsrs	r4, r2, #19
 4181 2d44 069A     		ldr	r2, [sp, #24]
 4182 2d46 44EA4234 		orr	r4, r4, r2, lsl #13
 4183 2d4a D20C     		lsrs	r2, r2, #19
 4184 2d4c 42EA4132 		orr	r2, r2, r1, lsl #13
 4185 2d50 0699     		ldr	r1, [sp, #24]
 4186 2d52 C800     		lsls	r0, r1, #3
 4187 2d54 1899     		ldr	r1, [sp, #96]
 4188 2d56 40EA5170 		orr	r0, r0, r1, lsr #29
 4189 2d5a 4240     		eors	r2, r2, r0
 4190 2d5c C900     		lsls	r1, r1, #3
 4191 2d5e 1898     		ldr	r0, [sp, #96]
 4192 2d60 41EA5671 		orr	r1, r1, r6, lsr #29
 4193 2d64 6140     		eors	r1, r1, r4
 4194 2d66 8409     		lsrs	r4, r0, #6
 4195 2d68 44EA8664 		orr	r4, r4, r6, lsl #26
 4196 2d6c 6140     		eors	r1, r1, r4
 4197 2d6e 4919     		adds	r1, r1, r5
 4198 2d70 82EA9612 		eor	r2, r2, r6, lsr #6
 4199 2d74 43EB0203 		adc	r3, r3, r2
 4200 2d78 0893     		str	r3, [sp, #32]
 4201 2d7a 1C9B     		ldr	r3, [sp, #112]
 4202 2d7c 1A91     		str	r1, [sp, #104]
 4203 2d7e 5908     		lsrs	r1, r3, #1
 4204 2d80 0A9B     		ldr	r3, [sp, #40]
 4205 2d82 1C98     		ldr	r0, [sp, #112]
 4206 2d84 41EAC371 		orr	r1, r1, r3, lsl #31
 4207 2d88 5A08     		lsrs	r2, r3, #1
 4208 2d8a 1C9B     		ldr	r3, [sp, #112]
 4209 2d8c 079E     		ldr	r6, [sp, #28]
 4210 2d8e 42EAC372 		orr	r2, r2, r3, lsl #31
 4211 2d92 1D0A     		lsrs	r5, r3, #8
 4212 2d94 0A9B     		ldr	r3, [sp, #40]
 4213 2d96 45EA0365 		orr	r5, r5, r3, lsl #24
 4214 2d9a 1B0A     		lsrs	r3, r3, #8
 4215 2d9c 43EA0063 		orr	r3, r3, r0, lsl #24
 4216 2da0 5340     		eors	r3, r3, r2
 4217 2da2 0A9A     		ldr	r2, [sp, #40]
 4218 2da4 4D40     		eors	r5, r5, r1
 4219 2da6 C109     		lsrs	r1, r0, #7
 4220 2da8 41EA4261 		orr	r1, r1, r2, lsl #25
 4221 2dac 83EAD213 		eor	r3, r3, r2, lsr #7
 4222 2db0 1B9A     		ldr	r2, [sp, #108]
 4223 2db2 4D40     		eors	r5, r5, r1
 4224 2db4 AD18     		adds	r5, r5, r2
 4225 2db6 099A     		ldr	r2, [sp, #36]
ARM GAS  /tmp/ccxnUvyY.s 			page 75


 4226 2db8 1999     		ldr	r1, [sp, #100]
 4227 2dba 42EB0303 		adc	r3, r2, r3
 4228 2dbe 249A     		ldr	r2, [sp, #144]
 4229 2dc0 AD18     		adds	r5, r5, r2
 4230 2dc2 129A     		ldr	r2, [sp, #72]
 4231 2dc4 42EB0303 		adc	r3, r2, r3
 4232 2dc8 199A     		ldr	r2, [sp, #100]
 4233 2dca D40C     		lsrs	r4, r2, #19
 4234 2dcc 079A     		ldr	r2, [sp, #28]
 4235 2dce 44EA4234 		orr	r4, r4, r2, lsl #13
 4236 2dd2 D20C     		lsrs	r2, r2, #19
 4237 2dd4 42EA4132 		orr	r2, r2, r1, lsl #13
 4238 2dd8 0799     		ldr	r1, [sp, #28]
 4239 2dda C800     		lsls	r0, r1, #3
 4240 2ddc 1999     		ldr	r1, [sp, #100]
 4241 2dde 40EA5170 		orr	r0, r0, r1, lsr #29
 4242 2de2 4240     		eors	r2, r2, r0
 4243 2de4 C900     		lsls	r1, r1, #3
 4244 2de6 1998     		ldr	r0, [sp, #100]
 4245 2de8 41EA5671 		orr	r1, r1, r6, lsr #29
 4246 2dec 6140     		eors	r1, r1, r4
 4247 2dee 8409     		lsrs	r4, r0, #6
 4248 2df0 44EA8664 		orr	r4, r4, r6, lsl #26
 4249 2df4 6140     		eors	r1, r1, r4
 4250 2df6 4919     		adds	r1, r1, r5
 4251 2df8 82EA9612 		eor	r2, r2, r6, lsr #6
 4252 2dfc 43EB0203 		adc	r3, r3, r2
 4253 2e00 0993     		str	r3, [sp, #36]
 4254 2e02 1D9B     		ldr	r3, [sp, #116]
 4255 2e04 1B91     		str	r1, [sp, #108]
 4256 2e06 5908     		lsrs	r1, r3, #1
 4257 2e08 0B9B     		ldr	r3, [sp, #44]
 4258 2e0a 41EAC371 		orr	r1, r1, r3, lsl #31
 4259 2e0e 5A08     		lsrs	r2, r3, #1
 4260 2e10 1D9B     		ldr	r3, [sp, #116]
 4261 2e12 42EAC372 		orr	r2, r2, r3, lsl #31
 4262 2e16 1D0A     		lsrs	r5, r3, #8
 4263 2e18 0B9B     		ldr	r3, [sp, #44]
 4264 2e1a 1D98     		ldr	r0, [sp, #116]
 4265 2e1c 45EA0365 		orr	r5, r5, r3, lsl #24
 4266 2e20 1B0A     		lsrs	r3, r3, #8
 4267 2e22 43EA0063 		orr	r3, r3, r0, lsl #24
 4268 2e26 5340     		eors	r3, r3, r2
 4269 2e28 0B9A     		ldr	r2, [sp, #44]
 4270 2e2a 4D40     		eors	r5, r5, r1
 4271 2e2c C109     		lsrs	r1, r0, #7
 4272 2e2e 41EA4261 		orr	r1, r1, r2, lsl #25
 4273 2e32 83EAD213 		eor	r3, r3, r2, lsr #7
 4274 2e36 1C9A     		ldr	r2, [sp, #112]
 4275 2e38 4D40     		eors	r5, r5, r1
 4276 2e3a AD18     		adds	r5, r5, r2
 4277 2e3c 0A9A     		ldr	r2, [sp, #40]
 4278 2e3e 1A99     		ldr	r1, [sp, #104]
 4279 2e40 42EB0303 		adc	r3, r2, r3
 4280 2e44 259A     		ldr	r2, [sp, #148]
 4281 2e46 089E     		ldr	r6, [sp, #32]
 4282 2e48 AD18     		adds	r5, r5, r2
ARM GAS  /tmp/ccxnUvyY.s 			page 76


 4283 2e4a 139A     		ldr	r2, [sp, #76]
 4284 2e4c 42EB0303 		adc	r3, r2, r3
 4285 2e50 1A9A     		ldr	r2, [sp, #104]
 4286 2e52 D40C     		lsrs	r4, r2, #19
 4287 2e54 089A     		ldr	r2, [sp, #32]
 4288 2e56 44EA4234 		orr	r4, r4, r2, lsl #13
 4289 2e5a D20C     		lsrs	r2, r2, #19
 4290 2e5c 42EA4132 		orr	r2, r2, r1, lsl #13
 4291 2e60 0899     		ldr	r1, [sp, #32]
 4292 2e62 C800     		lsls	r0, r1, #3
 4293 2e64 1A99     		ldr	r1, [sp, #104]
 4294 2e66 40EA5170 		orr	r0, r0, r1, lsr #29
 4295 2e6a 4240     		eors	r2, r2, r0
 4296 2e6c C900     		lsls	r1, r1, #3
 4297 2e6e 1A98     		ldr	r0, [sp, #104]
 4298 2e70 41EA5671 		orr	r1, r1, r6, lsr #29
 4299 2e74 6140     		eors	r1, r1, r4
 4300 2e76 8409     		lsrs	r4, r0, #6
 4301 2e78 44EA8664 		orr	r4, r4, r6, lsl #26
 4302 2e7c 6140     		eors	r1, r1, r4
 4303 2e7e 4919     		adds	r1, r1, r5
 4304 2e80 82EA9612 		eor	r2, r2, r6, lsr #6
 4305 2e84 43EB0203 		adc	r3, r3, r2
 4306 2e88 0A93     		str	r3, [sp, #40]
 4307 2e8a 1E9B     		ldr	r3, [sp, #120]
 4308 2e8c 1C91     		str	r1, [sp, #112]
 4309 2e8e 5908     		lsrs	r1, r3, #1
 4310 2e90 0C9B     		ldr	r3, [sp, #48]
 4311 2e92 1E98     		ldr	r0, [sp, #120]
 4312 2e94 41EAC371 		orr	r1, r1, r3, lsl #31
 4313 2e98 5A08     		lsrs	r2, r3, #1
 4314 2e9a 1E9B     		ldr	r3, [sp, #120]
 4315 2e9c 099E     		ldr	r6, [sp, #36]
 4316 2e9e 42EAC372 		orr	r2, r2, r3, lsl #31
 4317 2ea2 1D0A     		lsrs	r5, r3, #8
 4318 2ea4 0C9B     		ldr	r3, [sp, #48]
 4319 2ea6 45EA0365 		orr	r5, r5, r3, lsl #24
 4320 2eaa 1B0A     		lsrs	r3, r3, #8
 4321 2eac 43EA0063 		orr	r3, r3, r0, lsl #24
 4322 2eb0 5340     		eors	r3, r3, r2
 4323 2eb2 0C9A     		ldr	r2, [sp, #48]
 4324 2eb4 4D40     		eors	r5, r5, r1
 4325 2eb6 C109     		lsrs	r1, r0, #7
 4326 2eb8 41EA4261 		orr	r1, r1, r2, lsl #25
 4327 2ebc 83EAD213 		eor	r3, r3, r2, lsr #7
 4328 2ec0 1D9A     		ldr	r2, [sp, #116]
 4329 2ec2 4D40     		eors	r5, r5, r1
 4330 2ec4 AD18     		adds	r5, r5, r2
 4331 2ec6 0B9A     		ldr	r2, [sp, #44]
 4332 2ec8 1B99     		ldr	r1, [sp, #108]
 4333 2eca 42EB0303 		adc	r3, r2, r3
 4334 2ece 169A     		ldr	r2, [sp, #88]
 4335 2ed0 AD18     		adds	r5, r5, r2
 4336 2ed2 029A     		ldr	r2, [sp, #8]
 4337 2ed4 42EB0303 		adc	r3, r2, r3
 4338 2ed8 1B9A     		ldr	r2, [sp, #108]
 4339 2eda D40C     		lsrs	r4, r2, #19
ARM GAS  /tmp/ccxnUvyY.s 			page 77


 4340 2edc 099A     		ldr	r2, [sp, #36]
 4341 2ede 44EA4234 		orr	r4, r4, r2, lsl #13
 4342 2ee2 D20C     		lsrs	r2, r2, #19
 4343 2ee4 42EA4132 		orr	r2, r2, r1, lsl #13
 4344 2ee8 0999     		ldr	r1, [sp, #36]
 4345 2eea C800     		lsls	r0, r1, #3
 4346 2eec 1B99     		ldr	r1, [sp, #108]
 4347 2eee 40EA5170 		orr	r0, r0, r1, lsr #29
 4348 2ef2 4240     		eors	r2, r2, r0
 4349 2ef4 C900     		lsls	r1, r1, #3
 4350 2ef6 1B98     		ldr	r0, [sp, #108]
 4351 2ef8 41EA5671 		orr	r1, r1, r6, lsr #29
 4352 2efc 6140     		eors	r1, r1, r4
 4353 2efe 8409     		lsrs	r4, r0, #6
 4354 2f00 44EA8664 		orr	r4, r4, r6, lsl #26
 4355 2f04 6140     		eors	r1, r1, r4
 4356 2f06 4919     		adds	r1, r1, r5
 4357 2f08 82EA9612 		eor	r2, r2, r6, lsr #6
 4358 2f0c 43EB0203 		adc	r3, r3, r2
 4359 2f10 0B93     		str	r3, [sp, #44]
 4360 2f12 1F9B     		ldr	r3, [sp, #124]
 4361 2f14 1D91     		str	r1, [sp, #116]
 4362 2f16 5908     		lsrs	r1, r3, #1
 4363 2f18 0D9B     		ldr	r3, [sp, #52]
 4364 2f1a 1F98     		ldr	r0, [sp, #124]
 4365 2f1c 41EAC371 		orr	r1, r1, r3, lsl #31
 4366 2f20 5A08     		lsrs	r2, r3, #1
 4367 2f22 1F9B     		ldr	r3, [sp, #124]
 4368 2f24 0A9E     		ldr	r6, [sp, #40]
 4369 2f26 42EAC372 		orr	r2, r2, r3, lsl #31
 4370 2f2a 1D0A     		lsrs	r5, r3, #8
 4371 2f2c 0D9B     		ldr	r3, [sp, #52]
 4372 2f2e 45EA0365 		orr	r5, r5, r3, lsl #24
 4373 2f32 1B0A     		lsrs	r3, r3, #8
 4374 2f34 43EA0063 		orr	r3, r3, r0, lsl #24
 4375 2f38 5340     		eors	r3, r3, r2
 4376 2f3a 0D9A     		ldr	r2, [sp, #52]
 4377 2f3c 4D40     		eors	r5, r5, r1
 4378 2f3e C109     		lsrs	r1, r0, #7
 4379 2f40 41EA4261 		orr	r1, r1, r2, lsl #25
 4380 2f44 83EAD213 		eor	r3, r3, r2, lsr #7
 4381 2f48 1E9A     		ldr	r2, [sp, #120]
 4382 2f4a 4D40     		eors	r5, r5, r1
 4383 2f4c AD18     		adds	r5, r5, r2
 4384 2f4e 0C9A     		ldr	r2, [sp, #48]
 4385 2f50 1C99     		ldr	r1, [sp, #112]
 4386 2f52 42EB0303 		adc	r3, r2, r3
 4387 2f56 179A     		ldr	r2, [sp, #92]
 4388 2f58 AD18     		adds	r5, r5, r2
 4389 2f5a 039A     		ldr	r2, [sp, #12]
 4390 2f5c 42EB0303 		adc	r3, r2, r3
 4391 2f60 1C9A     		ldr	r2, [sp, #112]
 4392 2f62 D40C     		lsrs	r4, r2, #19
 4393 2f64 0A9A     		ldr	r2, [sp, #40]
 4394 2f66 44EA4234 		orr	r4, r4, r2, lsl #13
 4395 2f6a D20C     		lsrs	r2, r2, #19
 4396 2f6c 42EA4132 		orr	r2, r2, r1, lsl #13
ARM GAS  /tmp/ccxnUvyY.s 			page 78


 4397 2f70 0A99     		ldr	r1, [sp, #40]
 4398 2f72 C800     		lsls	r0, r1, #3
 4399 2f74 1C99     		ldr	r1, [sp, #112]
 4400 2f76 40EA5170 		orr	r0, r0, r1, lsr #29
 4401 2f7a 4240     		eors	r2, r2, r0
 4402 2f7c C900     		lsls	r1, r1, #3
 4403 2f7e 1C98     		ldr	r0, [sp, #112]
 4404 2f80 41EA5671 		orr	r1, r1, r6, lsr #29
 4405 2f84 6140     		eors	r1, r1, r4
 4406 2f86 8409     		lsrs	r4, r0, #6
 4407 2f88 44EA8664 		orr	r4, r4, r6, lsl #26
 4408 2f8c 6140     		eors	r1, r1, r4
 4409 2f8e 4919     		adds	r1, r1, r5
 4410 2f90 82EA9612 		eor	r2, r2, r6, lsr #6
 4411 2f94 43EB0203 		adc	r3, r3, r2
 4412 2f98 0C93     		str	r3, [sp, #48]
 4413 2f9a 209B     		ldr	r3, [sp, #128]
 4414 2f9c 1E91     		str	r1, [sp, #120]
 4415 2f9e 5908     		lsrs	r1, r3, #1
 4416 2fa0 0E9B     		ldr	r3, [sp, #56]
 4417 2fa2 2098     		ldr	r0, [sp, #128]
 4418 2fa4 41EAC371 		orr	r1, r1, r3, lsl #31
 4419 2fa8 5A08     		lsrs	r2, r3, #1
 4420 2faa 209B     		ldr	r3, [sp, #128]
 4421 2fac 42EAC372 		orr	r2, r2, r3, lsl #31
 4422 2fb0 1D0A     		lsrs	r5, r3, #8
 4423 2fb2 0E9B     		ldr	r3, [sp, #56]
 4424 2fb4 45EA0365 		orr	r5, r5, r3, lsl #24
 4425 2fb8 1B0A     		lsrs	r3, r3, #8
 4426 2fba 43EA0063 		orr	r3, r3, r0, lsl #24
 4427 2fbe 5340     		eors	r3, r3, r2
 4428 2fc0 0E9A     		ldr	r2, [sp, #56]
 4429 2fc2 4D40     		eors	r5, r5, r1
 4430 2fc4 C109     		lsrs	r1, r0, #7
 4431 2fc6 41EA4261 		orr	r1, r1, r2, lsl #25
 4432 2fca 83EAD213 		eor	r3, r3, r2, lsr #7
 4433 2fce 1F9A     		ldr	r2, [sp, #124]
 4434 2fd0 4D40     		eors	r5, r5, r1
 4435 2fd2 AD18     		adds	r5, r5, r2
 4436 2fd4 0D9A     		ldr	r2, [sp, #52]
 4437 2fd6 42EB0303 		adc	r3, r2, r3
 4438 2fda 189A     		ldr	r2, [sp, #96]
 4439 2fdc AD18     		adds	r5, r5, r2
 4440 2fde 069A     		ldr	r2, [sp, #24]
 4441 2fe0 42EB0303 		adc	r3, r2, r3
 4442 2fe4 1D9A     		ldr	r2, [sp, #116]
 4443 2fe6 1D99     		ldr	r1, [sp, #116]
 4444 2fe8 D40C     		lsrs	r4, r2, #19
 4445 2fea 0B9A     		ldr	r2, [sp, #44]
 4446 2fec 0B9E     		ldr	r6, [sp, #44]
 4447 2fee 44EA4234 		orr	r4, r4, r2, lsl #13
 4448 2ff2 D20C     		lsrs	r2, r2, #19
 4449 2ff4 42EA4132 		orr	r2, r2, r1, lsl #13
 4450 2ff8 0B99     		ldr	r1, [sp, #44]
 4451 2ffa C800     		lsls	r0, r1, #3
 4452 2ffc 1D99     		ldr	r1, [sp, #116]
 4453 2ffe 40EA5170 		orr	r0, r0, r1, lsr #29
ARM GAS  /tmp/ccxnUvyY.s 			page 79


 4454 3002 4240     		eors	r2, r2, r0
 4455 3004 C900     		lsls	r1, r1, #3
 4456 3006 1D98     		ldr	r0, [sp, #116]
 4457 3008 41EA5671 		orr	r1, r1, r6, lsr #29
 4458 300c 6140     		eors	r1, r1, r4
 4459 300e 8409     		lsrs	r4, r0, #6
 4460 3010 44EA8664 		orr	r4, r4, r6, lsl #26
 4461 3014 6140     		eors	r1, r1, r4
 4462 3016 4919     		adds	r1, r1, r5
 4463 3018 82EA9612 		eor	r2, r2, r6, lsr #6
 4464 301c 43EB0203 		adc	r3, r3, r2
 4465 3020 0D93     		str	r3, [sp, #52]
 4466 3022 219B     		ldr	r3, [sp, #132]
 4467 3024 1F91     		str	r1, [sp, #124]
 4468 3026 5908     		lsrs	r1, r3, #1
 4469 3028 0F9B     		ldr	r3, [sp, #60]
 4470 302a 2198     		ldr	r0, [sp, #132]
 4471 302c 41EAC371 		orr	r1, r1, r3, lsl #31
 4472 3030 5A08     		lsrs	r2, r3, #1
 4473 3032 219B     		ldr	r3, [sp, #132]
 4474 3034 0C9E     		ldr	r6, [sp, #48]
 4475 3036 42EAC372 		orr	r2, r2, r3, lsl #31
 4476 303a 1D0A     		lsrs	r5, r3, #8
 4477 303c 0F9B     		ldr	r3, [sp, #60]
 4478 303e 45EA0365 		orr	r5, r5, r3, lsl #24
 4479 3042 1B0A     		lsrs	r3, r3, #8
 4480 3044 43EA0063 		orr	r3, r3, r0, lsl #24
 4481 3048 5340     		eors	r3, r3, r2
 4482 304a 0F9A     		ldr	r2, [sp, #60]
 4483 304c 4D40     		eors	r5, r5, r1
 4484 304e C109     		lsrs	r1, r0, #7
 4485 3050 41EA4261 		orr	r1, r1, r2, lsl #25
 4486 3054 83EAD213 		eor	r3, r3, r2, lsr #7
 4487 3058 209A     		ldr	r2, [sp, #128]
 4488 305a 4D40     		eors	r5, r5, r1
 4489 305c AD18     		adds	r5, r5, r2
 4490 305e 0E9A     		ldr	r2, [sp, #56]
 4491 3060 1E99     		ldr	r1, [sp, #120]
 4492 3062 42EB0303 		adc	r3, r2, r3
 4493 3066 199A     		ldr	r2, [sp, #100]
 4494 3068 AD18     		adds	r5, r5, r2
 4495 306a 079A     		ldr	r2, [sp, #28]
 4496 306c 42EB0303 		adc	r3, r2, r3
 4497 3070 1E9A     		ldr	r2, [sp, #120]
 4498 3072 D40C     		lsrs	r4, r2, #19
 4499 3074 0C9A     		ldr	r2, [sp, #48]
 4500 3076 44EA4234 		orr	r4, r4, r2, lsl #13
 4501 307a D20C     		lsrs	r2, r2, #19
 4502 307c 42EA4132 		orr	r2, r2, r1, lsl #13
 4503 3080 0C99     		ldr	r1, [sp, #48]
 4504 3082 C800     		lsls	r0, r1, #3
 4505 3084 1E99     		ldr	r1, [sp, #120]
 4506 3086 40EA5170 		orr	r0, r0, r1, lsr #29
 4507 308a 4240     		eors	r2, r2, r0
 4508 308c C900     		lsls	r1, r1, #3
 4509 308e 1E98     		ldr	r0, [sp, #120]
 4510 3090 41EA5671 		orr	r1, r1, r6, lsr #29
ARM GAS  /tmp/ccxnUvyY.s 			page 80


 4511 3094 6140     		eors	r1, r1, r4
 4512 3096 8409     		lsrs	r4, r0, #6
 4513 3098 44EA8664 		orr	r4, r4, r6, lsl #26
 4514 309c 6140     		eors	r1, r1, r4
 4515 309e 4919     		adds	r1, r1, r5
 4516 30a0 82EA9612 		eor	r2, r2, r6, lsr #6
 4517 30a4 43EB0203 		adc	r3, r3, r2
 4518 30a8 0E93     		str	r3, [sp, #56]
 4519 30aa 229B     		ldr	r3, [sp, #136]
 4520 30ac 2091     		str	r1, [sp, #128]
 4521 30ae 5908     		lsrs	r1, r3, #1
 4522 30b0 109B     		ldr	r3, [sp, #64]
 4523 30b2 41EAC371 		orr	r1, r1, r3, lsl #31
 4524 30b6 5A08     		lsrs	r2, r3, #1
 4525 30b8 229B     		ldr	r3, [sp, #136]
 4526 30ba 42EAC372 		orr	r2, r2, r3, lsl #31
 4527 30be 1D0A     		lsrs	r5, r3, #8
 4528 30c0 109B     		ldr	r3, [sp, #64]
 4529 30c2 2298     		ldr	r0, [sp, #136]
 4530 30c4 45EA0365 		orr	r5, r5, r3, lsl #24
 4531 30c8 1B0A     		lsrs	r3, r3, #8
 4532 30ca 43EA0063 		orr	r3, r3, r0, lsl #24
 4533 30ce 5340     		eors	r3, r3, r2
 4534 30d0 109A     		ldr	r2, [sp, #64]
 4535 30d2 4D40     		eors	r5, r5, r1
 4536 30d4 C109     		lsrs	r1, r0, #7
 4537 30d6 41EA4261 		orr	r1, r1, r2, lsl #25
 4538 30da 83EAD213 		eor	r3, r3, r2, lsr #7
 4539 30de 219A     		ldr	r2, [sp, #132]
 4540 30e0 4D40     		eors	r5, r5, r1
 4541 30e2 AD18     		adds	r5, r5, r2
 4542 30e4 0F9A     		ldr	r2, [sp, #60]
 4543 30e6 1F99     		ldr	r1, [sp, #124]
 4544 30e8 42EB0303 		adc	r3, r2, r3
 4545 30ec 1A9A     		ldr	r2, [sp, #104]
 4546 30ee 0D9E     		ldr	r6, [sp, #52]
 4547 30f0 AD18     		adds	r5, r5, r2
 4548 30f2 089A     		ldr	r2, [sp, #32]
 4549 30f4 42EB0303 		adc	r3, r2, r3
 4550 30f8 1F9A     		ldr	r2, [sp, #124]
 4551 30fa D40C     		lsrs	r4, r2, #19
 4552 30fc 0D9A     		ldr	r2, [sp, #52]
 4553 30fe 44EA4234 		orr	r4, r4, r2, lsl #13
 4554 3102 D20C     		lsrs	r2, r2, #19
 4555 3104 42EA4132 		orr	r2, r2, r1, lsl #13
 4556 3108 0D99     		ldr	r1, [sp, #52]
 4557 310a C800     		lsls	r0, r1, #3
 4558 310c 1F99     		ldr	r1, [sp, #124]
 4559 310e 40EA5170 		orr	r0, r0, r1, lsr #29
 4560 3112 4240     		eors	r2, r2, r0
 4561 3114 C900     		lsls	r1, r1, #3
 4562 3116 1F98     		ldr	r0, [sp, #124]
 4563 3118 41EA5671 		orr	r1, r1, r6, lsr #29
 4564 311c 6140     		eors	r1, r1, r4
 4565 311e 8409     		lsrs	r4, r0, #6
 4566 3120 44EA8664 		orr	r4, r4, r6, lsl #26
 4567 3124 6140     		eors	r1, r1, r4
ARM GAS  /tmp/ccxnUvyY.s 			page 81


 4568 3126 4919     		adds	r1, r1, r5
 4569 3128 82EA9612 		eor	r2, r2, r6, lsr #6
 4570 312c 43EB0203 		adc	r3, r3, r2
 4571 3130 0F93     		str	r3, [sp, #60]
 4572 3132 239B     		ldr	r3, [sp, #140]
 4573 3134 2191     		str	r1, [sp, #132]
 4574 3136 5908     		lsrs	r1, r3, #1
 4575 3138 119B     		ldr	r3, [sp, #68]
 4576 313a 2398     		ldr	r0, [sp, #140]
 4577 313c 41EAC371 		orr	r1, r1, r3, lsl #31
 4578 3140 5A08     		lsrs	r2, r3, #1
 4579 3142 239B     		ldr	r3, [sp, #140]
 4580 3144 0E9E     		ldr	r6, [sp, #56]
 4581 3146 42EAC372 		orr	r2, r2, r3, lsl #31
 4582 314a 1D0A     		lsrs	r5, r3, #8
 4583 314c 119B     		ldr	r3, [sp, #68]
 4584 314e 45EA0365 		orr	r5, r5, r3, lsl #24
 4585 3152 1B0A     		lsrs	r3, r3, #8
 4586 3154 43EA0063 		orr	r3, r3, r0, lsl #24
 4587 3158 5340     		eors	r3, r3, r2
 4588 315a 119A     		ldr	r2, [sp, #68]
 4589 315c 4D40     		eors	r5, r5, r1
 4590 315e C109     		lsrs	r1, r0, #7
 4591 3160 41EA4261 		orr	r1, r1, r2, lsl #25
 4592 3164 83EAD213 		eor	r3, r3, r2, lsr #7
 4593 3168 229A     		ldr	r2, [sp, #136]
 4594 316a 4D40     		eors	r5, r5, r1
 4595 316c AD18     		adds	r5, r5, r2
 4596 316e 109A     		ldr	r2, [sp, #64]
 4597 3170 2099     		ldr	r1, [sp, #128]
 4598 3172 42EB0303 		adc	r3, r2, r3
 4599 3176 1B9A     		ldr	r2, [sp, #108]
 4600 3178 AD18     		adds	r5, r5, r2
 4601 317a 099A     		ldr	r2, [sp, #36]
 4602 317c 42EB0303 		adc	r3, r2, r3
 4603 3180 209A     		ldr	r2, [sp, #128]
 4604 3182 D40C     		lsrs	r4, r2, #19
 4605 3184 0E9A     		ldr	r2, [sp, #56]
 4606 3186 44EA4234 		orr	r4, r4, r2, lsl #13
 4607 318a D20C     		lsrs	r2, r2, #19
 4608 318c 42EA4132 		orr	r2, r2, r1, lsl #13
 4609 3190 0E99     		ldr	r1, [sp, #56]
 4610 3192 C800     		lsls	r0, r1, #3
 4611 3194 2099     		ldr	r1, [sp, #128]
 4612 3196 40EA5170 		orr	r0, r0, r1, lsr #29
 4613 319a 4240     		eors	r2, r2, r0
 4614 319c C900     		lsls	r1, r1, #3
 4615 319e 2098     		ldr	r0, [sp, #128]
 4616 31a0 41EA5671 		orr	r1, r1, r6, lsr #29
 4617 31a4 6140     		eors	r1, r1, r4
 4618 31a6 8409     		lsrs	r4, r0, #6
 4619 31a8 44EA8664 		orr	r4, r4, r6, lsl #26
 4620 31ac 6140     		eors	r1, r1, r4
 4621 31ae 4919     		adds	r1, r1, r5
 4622 31b0 82EA9612 		eor	r2, r2, r6, lsr #6
 4623 31b4 43EB0203 		adc	r3, r3, r2
 4624 31b8 2291     		str	r1, [sp, #136]
ARM GAS  /tmp/ccxnUvyY.s 			page 82


 4625 31ba 1093     		str	r3, [sp, #64]
 4626 31bc 249B     		ldr	r3, [sp, #144]
 4627 31be 2498     		ldr	r0, [sp, #144]
 4628 31c0 5908     		lsrs	r1, r3, #1
 4629 31c2 129B     		ldr	r3, [sp, #72]
 4630 31c4 0F9E     		ldr	r6, [sp, #60]
 4631 31c6 41EAC371 		orr	r1, r1, r3, lsl #31
 4632 31ca 5A08     		lsrs	r2, r3, #1
 4633 31cc 249B     		ldr	r3, [sp, #144]
 4634 31ce 42EAC372 		orr	r2, r2, r3, lsl #31
 4635 31d2 1D0A     		lsrs	r5, r3, #8
 4636 31d4 129B     		ldr	r3, [sp, #72]
 4637 31d6 45EA0365 		orr	r5, r5, r3, lsl #24
 4638 31da 1B0A     		lsrs	r3, r3, #8
 4639 31dc 43EA0063 		orr	r3, r3, r0, lsl #24
 4640 31e0 5340     		eors	r3, r3, r2
 4641 31e2 129A     		ldr	r2, [sp, #72]
 4642 31e4 4D40     		eors	r5, r5, r1
 4643 31e6 C109     		lsrs	r1, r0, #7
 4644 31e8 41EA4261 		orr	r1, r1, r2, lsl #25
 4645 31ec 83EAD213 		eor	r3, r3, r2, lsr #7
 4646 31f0 239A     		ldr	r2, [sp, #140]
 4647 31f2 4D40     		eors	r5, r5, r1
 4648 31f4 AD18     		adds	r5, r5, r2
 4649 31f6 119A     		ldr	r2, [sp, #68]
 4650 31f8 2199     		ldr	r1, [sp, #132]
 4651 31fa 42EB0303 		adc	r3, r2, r3
 4652 31fe 1C9A     		ldr	r2, [sp, #112]
 4653 3200 AD18     		adds	r5, r5, r2
 4654 3202 0A9A     		ldr	r2, [sp, #40]
 4655 3204 42EB0303 		adc	r3, r2, r3
 4656 3208 219A     		ldr	r2, [sp, #132]
 4657 320a D40C     		lsrs	r4, r2, #19
 4658 320c 0F9A     		ldr	r2, [sp, #60]
 4659 320e 44EA4234 		orr	r4, r4, r2, lsl #13
 4660 3212 D20C     		lsrs	r2, r2, #19
 4661 3214 42EA4132 		orr	r2, r2, r1, lsl #13
 4662 3218 0F99     		ldr	r1, [sp, #60]
 4663 321a C800     		lsls	r0, r1, #3
 4664 321c 2199     		ldr	r1, [sp, #132]
 4665 321e 40EA5170 		orr	r0, r0, r1, lsr #29
 4666 3222 4240     		eors	r2, r2, r0
 4667 3224 C900     		lsls	r1, r1, #3
 4668 3226 2198     		ldr	r0, [sp, #132]
 4669 3228 41EA5671 		orr	r1, r1, r6, lsr #29
 4670 322c 6140     		eors	r1, r1, r4
 4671 322e 8409     		lsrs	r4, r0, #6
 4672 3230 44EA8664 		orr	r4, r4, r6, lsl #26
 4673 3234 6140     		eors	r1, r1, r4
 4674 3236 4919     		adds	r1, r1, r5
 4675 3238 82EA9612 		eor	r2, r2, r6, lsr #6
 4676 323c 43EB0203 		adc	r3, r3, r2
 4677 3240 1193     		str	r3, [sp, #68]
 4678 3242 259B     		ldr	r3, [sp, #148]
 4679 3244 2391     		str	r1, [sp, #140]
 4680 3246 5908     		lsrs	r1, r3, #1
 4681 3248 139B     		ldr	r3, [sp, #76]
ARM GAS  /tmp/ccxnUvyY.s 			page 83


 4682 324a 2598     		ldr	r0, [sp, #148]
 4683 324c 41EAC371 		orr	r1, r1, r3, lsl #31
 4684 3250 5A08     		lsrs	r2, r3, #1
 4685 3252 259B     		ldr	r3, [sp, #148]
 4686 3254 42EAC372 		orr	r2, r2, r3, lsl #31
 4687 3258 1D0A     		lsrs	r5, r3, #8
 4688 325a 139B     		ldr	r3, [sp, #76]
 4689 325c 45EA0365 		orr	r5, r5, r3, lsl #24
 4690 3260 1B0A     		lsrs	r3, r3, #8
 4691 3262 43EA0063 		orr	r3, r3, r0, lsl #24
 4692 3266 5340     		eors	r3, r3, r2
 4693 3268 139A     		ldr	r2, [sp, #76]
 4694 326a 4D40     		eors	r5, r5, r1
 4695 326c C109     		lsrs	r1, r0, #7
 4696 326e 41EA4261 		orr	r1, r1, r2, lsl #25
 4697 3272 83EAD213 		eor	r3, r3, r2, lsr #7
 4698 3276 249A     		ldr	r2, [sp, #144]
 4699 3278 4D40     		eors	r5, r5, r1
 4700 327a AD18     		adds	r5, r5, r2
 4701 327c 129A     		ldr	r2, [sp, #72]
 4702 327e 42EB0303 		adc	r3, r2, r3
 4703 3282 1D9A     		ldr	r2, [sp, #116]
 4704 3284 AD18     		adds	r5, r5, r2
 4705 3286 0B9A     		ldr	r2, [sp, #44]
 4706 3288 42EB0303 		adc	r3, r2, r3
 4707 328c 229A     		ldr	r2, [sp, #136]
 4708 328e D40C     		lsrs	r4, r2, #19
 4709 3290 109A     		ldr	r2, [sp, #64]
 4710 3292 2299     		ldr	r1, [sp, #136]
 4711 3294 44EA4234 		orr	r4, r4, r2, lsl #13
 4712 3298 D20C     		lsrs	r2, r2, #19
 4713 329a 42EA4132 		orr	r2, r2, r1, lsl #13
 4714 329e 1099     		ldr	r1, [sp, #64]
 4715 32a0 109E     		ldr	r6, [sp, #64]
 4716 32a2 C800     		lsls	r0, r1, #3
 4717 32a4 2299     		ldr	r1, [sp, #136]
 4718 32a6 40EA5170 		orr	r0, r0, r1, lsr #29
 4719 32aa 4240     		eors	r2, r2, r0
 4720 32ac C900     		lsls	r1, r1, #3
 4721 32ae 2298     		ldr	r0, [sp, #136]
 4722 32b0 41EA5671 		orr	r1, r1, r6, lsr #29
 4723 32b4 6140     		eors	r1, r1, r4
 4724 32b6 8409     		lsrs	r4, r0, #6
 4725 32b8 44EA8664 		orr	r4, r4, r6, lsl #26
 4726 32bc 6140     		eors	r1, r1, r4
 4727 32be 4919     		adds	r1, r1, r5
 4728 32c0 82EA9612 		eor	r2, r2, r6, lsr #6
 4729 32c4 43EB0203 		adc	r3, r3, r2
 4730 32c8 1293     		str	r3, [sp, #72]
 4731 32ca 169B     		ldr	r3, [sp, #88]
 4732 32cc 2491     		str	r1, [sp, #144]
 4733 32ce 5908     		lsrs	r1, r3, #1
 4734 32d0 029B     		ldr	r3, [sp, #8]
 4735 32d2 1698     		ldr	r0, [sp, #88]
 4736 32d4 41EAC371 		orr	r1, r1, r3, lsl #31
 4737 32d8 5A08     		lsrs	r2, r3, #1
 4738 32da 169B     		ldr	r3, [sp, #88]
ARM GAS  /tmp/ccxnUvyY.s 			page 84


 4739 32dc 119E     		ldr	r6, [sp, #68]
 4740 32de 42EAC372 		orr	r2, r2, r3, lsl #31
 4741 32e2 1D0A     		lsrs	r5, r3, #8
 4742 32e4 029B     		ldr	r3, [sp, #8]
 4743 32e6 45EA0365 		orr	r5, r5, r3, lsl #24
 4744 32ea 1B0A     		lsrs	r3, r3, #8
 4745 32ec 43EA0063 		orr	r3, r3, r0, lsl #24
 4746 32f0 5340     		eors	r3, r3, r2
 4747 32f2 029A     		ldr	r2, [sp, #8]
 4748 32f4 4D40     		eors	r5, r5, r1
 4749 32f6 C109     		lsrs	r1, r0, #7
 4750 32f8 41EA4261 		orr	r1, r1, r2, lsl #25
 4751 32fc 83EAD213 		eor	r3, r3, r2, lsr #7
 4752 3300 259A     		ldr	r2, [sp, #148]
 4753 3302 4D40     		eors	r5, r5, r1
 4754 3304 AD18     		adds	r5, r5, r2
 4755 3306 139A     		ldr	r2, [sp, #76]
 4756 3308 2399     		ldr	r1, [sp, #140]
 4757 330a 42EB0303 		adc	r3, r2, r3
 4758 330e 1E9A     		ldr	r2, [sp, #120]
 4759 3310 AD18     		adds	r5, r5, r2
 4760 3312 0C9A     		ldr	r2, [sp, #48]
 4761 3314 42EB0303 		adc	r3, r2, r3
 4762 3318 239A     		ldr	r2, [sp, #140]
 4763 331a D40C     		lsrs	r4, r2, #19
 4764 331c 119A     		ldr	r2, [sp, #68]
 4765 331e 44EA4234 		orr	r4, r4, r2, lsl #13
 4766 3322 D20C     		lsrs	r2, r2, #19
 4767 3324 42EA4132 		orr	r2, r2, r1, lsl #13
 4768 3328 1199     		ldr	r1, [sp, #68]
 4769 332a C800     		lsls	r0, r1, #3
 4770 332c 2399     		ldr	r1, [sp, #140]
 4771 332e 40EA5170 		orr	r0, r0, r1, lsr #29
 4772 3332 4240     		eors	r2, r2, r0
 4773 3334 C900     		lsls	r1, r1, #3
 4774 3336 2398     		ldr	r0, [sp, #140]
 4775 3338 41EA5671 		orr	r1, r1, r6, lsr #29
 4776 333c 6140     		eors	r1, r1, r4
 4777 333e 8409     		lsrs	r4, r0, #6
 4778 3340 44EA8664 		orr	r4, r4, r6, lsl #26
 4779 3344 6140     		eors	r1, r1, r4
 4780 3346 4919     		adds	r1, r1, r5
 4781 3348 82EA9612 		eor	r2, r2, r6, lsr #6
 4782 334c 43EB0203 		adc	r3, r3, r2
 4783 3350 1393     		str	r3, [sp, #76]
 4784 3352 179B     		ldr	r3, [sp, #92]
 4785 3354 2591     		str	r1, [sp, #148]
 4786 3356 5908     		lsrs	r1, r3, #1
 4787 3358 039B     		ldr	r3, [sp, #12]
 4788 335a 1798     		ldr	r0, [sp, #92]
 4789 335c 41EAC371 		orr	r1, r1, r3, lsl #31
 4790 3360 5A08     		lsrs	r2, r3, #1
 4791 3362 179B     		ldr	r3, [sp, #92]
 4792 3364 42EAC372 		orr	r2, r2, r3, lsl #31
 4793 3368 1D0A     		lsrs	r5, r3, #8
 4794 336a 039B     		ldr	r3, [sp, #12]
 4795 336c 45EA0365 		orr	r5, r5, r3, lsl #24
ARM GAS  /tmp/ccxnUvyY.s 			page 85


 4796 3370 1B0A     		lsrs	r3, r3, #8
 4797 3372 43EA0063 		orr	r3, r3, r0, lsl #24
 4798 3376 5340     		eors	r3, r3, r2
 4799 3378 039A     		ldr	r2, [sp, #12]
 4800 337a 4D40     		eors	r5, r5, r1
 4801 337c C109     		lsrs	r1, r0, #7
 4802 337e 41EA4261 		orr	r1, r1, r2, lsl #25
 4803 3382 83EAD213 		eor	r3, r3, r2, lsr #7
 4804 3386 169A     		ldr	r2, [sp, #88]
 4805 3388 4D40     		eors	r5, r5, r1
 4806 338a AD18     		adds	r5, r5, r2
 4807 338c 029A     		ldr	r2, [sp, #8]
 4808 338e 2499     		ldr	r1, [sp, #144]
 4809 3390 42EB0303 		adc	r3, r2, r3
 4810 3394 1F9A     		ldr	r2, [sp, #124]
 4811 3396 129E     		ldr	r6, [sp, #72]
 4812 3398 AD18     		adds	r5, r5, r2
 4813 339a 0D9A     		ldr	r2, [sp, #52]
 4814 339c 42EB0303 		adc	r3, r2, r3
 4815 33a0 249A     		ldr	r2, [sp, #144]
 4816 33a2 D40C     		lsrs	r4, r2, #19
 4817 33a4 129A     		ldr	r2, [sp, #72]
 4818 33a6 44EA4234 		orr	r4, r4, r2, lsl #13
 4819 33aa D20C     		lsrs	r2, r2, #19
 4820 33ac 42EA4132 		orr	r2, r2, r1, lsl #13
 4821 33b0 1299     		ldr	r1, [sp, #72]
 4822 33b2 C800     		lsls	r0, r1, #3
 4823 33b4 2499     		ldr	r1, [sp, #144]
 4824 33b6 40EA5170 		orr	r0, r0, r1, lsr #29
 4825 33ba 4240     		eors	r2, r2, r0
 4826 33bc C900     		lsls	r1, r1, #3
 4827 33be 2498     		ldr	r0, [sp, #144]
 4828 33c0 41EA5671 		orr	r1, r1, r6, lsr #29
 4829 33c4 6140     		eors	r1, r1, r4
 4830 33c6 8409     		lsrs	r4, r0, #6
 4831 33c8 44EA8664 		orr	r4, r4, r6, lsl #26
 4832 33cc 6140     		eors	r1, r1, r4
 4833 33ce 4919     		adds	r1, r1, r5
 4834 33d0 82EA9612 		eor	r2, r2, r6, lsr #6
 4835 33d4 43EB0203 		adc	r3, r3, r2
 4836 33d8 0293     		str	r3, [sp, #8]
 4837 33da 189B     		ldr	r3, [sp, #96]
 4838 33dc 1691     		str	r1, [sp, #88]
 4839 33de 5908     		lsrs	r1, r3, #1
 4840 33e0 069B     		ldr	r3, [sp, #24]
 4841 33e2 1898     		ldr	r0, [sp, #96]
 4842 33e4 41EAC371 		orr	r1, r1, r3, lsl #31
 4843 33e8 5A08     		lsrs	r2, r3, #1
 4844 33ea 189B     		ldr	r3, [sp, #96]
 4845 33ec 139E     		ldr	r6, [sp, #76]
 4846 33ee 42EAC372 		orr	r2, r2, r3, lsl #31
 4847 33f2 1D0A     		lsrs	r5, r3, #8
 4848 33f4 069B     		ldr	r3, [sp, #24]
 4849 33f6 45EA0365 		orr	r5, r5, r3, lsl #24
 4850 33fa 1B0A     		lsrs	r3, r3, #8
 4851 33fc 43EA0063 		orr	r3, r3, r0, lsl #24
 4852 3400 5340     		eors	r3, r3, r2
ARM GAS  /tmp/ccxnUvyY.s 			page 86


 4853 3402 069A     		ldr	r2, [sp, #24]
 4854 3404 4D40     		eors	r5, r5, r1
 4855 3406 C109     		lsrs	r1, r0, #7
 4856 3408 41EA4261 		orr	r1, r1, r2, lsl #25
 4857 340c 83EAD213 		eor	r3, r3, r2, lsr #7
 4858 3410 179A     		ldr	r2, [sp, #92]
 4859 3412 4D40     		eors	r5, r5, r1
 4860 3414 AD18     		adds	r5, r5, r2
 4861 3416 039A     		ldr	r2, [sp, #12]
 4862 3418 2599     		ldr	r1, [sp, #148]
 4863 341a 42EB0303 		adc	r3, r2, r3
 4864 341e 209A     		ldr	r2, [sp, #128]
 4865 3420 AD18     		adds	r5, r5, r2
 4866 3422 0E9A     		ldr	r2, [sp, #56]
 4867 3424 42EB0303 		adc	r3, r2, r3
 4868 3428 259A     		ldr	r2, [sp, #148]
 4869 342a D40C     		lsrs	r4, r2, #19
 4870 342c 139A     		ldr	r2, [sp, #76]
 4871 342e 44EA4234 		orr	r4, r4, r2, lsl #13
 4872 3432 D20C     		lsrs	r2, r2, #19
 4873 3434 42EA4132 		orr	r2, r2, r1, lsl #13
 4874 3438 1399     		ldr	r1, [sp, #76]
 4875 343a C800     		lsls	r0, r1, #3
 4876 343c 2599     		ldr	r1, [sp, #148]
 4877 343e 40EA5170 		orr	r0, r0, r1, lsr #29
 4878 3442 4240     		eors	r2, r2, r0
 4879 3444 C900     		lsls	r1, r1, #3
 4880 3446 2598     		ldr	r0, [sp, #148]
 4881 3448 41EA5671 		orr	r1, r1, r6, lsr #29
 4882 344c 6140     		eors	r1, r1, r4
 4883 344e 8409     		lsrs	r4, r0, #6
 4884 3450 44EA8664 		orr	r4, r4, r6, lsl #26
 4885 3454 6140     		eors	r1, r1, r4
 4886 3456 4919     		adds	r1, r1, r5
 4887 3458 82EA9612 		eor	r2, r2, r6, lsr #6
 4888 345c 43EB0203 		adc	r3, r3, r2
 4889 3460 1791     		str	r1, [sp, #92]
 4890 3462 0393     		str	r3, [sp, #12]
 4891 3464 339B     		ldr	r3, [sp, #204]
 4892 3466 2D9A     		ldr	r2, [sp, #180]
 4893 3468 9B0B     		lsrs	r3, r3, #14
 4894 346a 43EA8243 		orr	r3, r3, r2, lsl #18
 4895 346e 950B     		lsrs	r5, r2, #14
 4896 3470 339A     		ldr	r2, [sp, #204]
 4897 3472 299E     		ldr	r6, [sp, #164]
 4898 3474 45EA8245 		orr	r5, r5, r2, lsl #18
 4899 3478 910C     		lsrs	r1, r2, #18
 4900 347a 2D9A     		ldr	r2, [sp, #180]
 4901 347c 41EA8230 		orr	r0, r1, r2, lsl #14
 4902 3480 940C     		lsrs	r4, r2, #18
 4903 3482 339A     		ldr	r2, [sp, #204]
 4904 3484 83EA0001 		eor	r1, r3, r0
 4905 3488 2D9B     		ldr	r3, [sp, #180]
 4906 348a 44EA8232 		orr	r2, r4, r2, lsl #14
 4907 348e 85EA0204 		eor	r4, r5, r2
 4908 3492 DD05     		lsls	r5, r3, #23
 4909 3494 339B     		ldr	r3, [sp, #204]
ARM GAS  /tmp/ccxnUvyY.s 			page 87


 4910 3496 2D9A     		ldr	r2, [sp, #180]
 4911 3498 45EA5325 		orr	r5, r5, r3, lsr #9
 4912 349c DB05     		lsls	r3, r3, #23
 4913 349e 43EA5223 		orr	r3, r3, r2, lsr #9
 4914 34a2 4B40     		eors	r3, r3, r1
 4915 34a4 189A     		ldr	r2, [sp, #96]
 4916 34a6 D349     		ldr	r1, .L34
 4917 34a8 6540     		eors	r5, r5, r4
 4918 34aa 5118     		adds	r1, r2, r1
 4919 34ac D24C     		ldr	r4, .L34+4
 4920 34ae 069A     		ldr	r2, [sp, #24]
 4921 34b0 44EB0204 		adc	r4, r4, r2
 4922 34b4 2F9A     		ldr	r2, [sp, #188]
 4923 34b6 8918     		adds	r1, r1, r2
 4924 34b8 309A     		ldr	r2, [sp, #192]
 4925 34ba 42EB0404 		adc	r4, r2, r4
 4926 34be 339A     		ldr	r2, [sp, #204]
 4927 34c0 5918     		adds	r1, r3, r1
 4928 34c2 2E9B     		ldr	r3, [sp, #184]
 4929 34c4 45EB0404 		adc	r4, r5, r4
 4930 34c8 23EA0205 		bic	r5, r3, r2
 4931 34cc 319B     		ldr	r3, [sp, #196]
 4932 34ce 2D9A     		ldr	r2, [sp, #180]
 4933 34d0 23EA0202 		bic	r2, r3, r2
 4934 34d4 DDE93230 		ldrd	r3, r0, [sp, #200]
 4935 34d8 0340     		ands	r3, r3, r0
 4936 34da 2D98     		ldr	r0, [sp, #180]
 4937 34dc 6B40     		eors	r3, r3, r5
 4938 34de 0CEA0000 		and	r0, ip, r0
 4939 34e2 C918     		adds	r1, r1, r3
 4940 34e4 82EA0002 		eor	r2, r2, r0
 4941 34e8 44EB0204 		adc	r4, r4, r2
 4942 34ec 299A     		ldr	r2, [sp, #164]
 4943 34ee 4FEA1B73 		lsr	r3, fp, #28
 4944 34f2 43EA0213 		orr	r3, r3, r2, lsl #4
 4945 34f6 150F     		lsrs	r5, r2, #28
 4946 34f8 9207     		lsls	r2, r2, #30
 4947 34fa 42EA9B02 		orr	r2, r2, fp, lsr #2
 4948 34fe 45EA0B15 		orr	r5, r5, fp, lsl #4
 4949 3502 4FEA8B70 		lsl	r0, fp, #30
 4950 3506 40EA9600 		orr	r0, r0, r6, lsr #2
 4951 350a 5540     		eors	r5, r5, r2
 4952 350c 7206     		lsls	r2, r6, #25
 4953 350e 42EADB12 		orr	r2, r2, fp, lsr #7
 4954 3512 4340     		eors	r3, r3, r0
 4955 3514 4FEA4B60 		lsl	r0, fp, #25
 4956 3518 40EAD610 		orr	r0, r0, r6, lsr #7
 4957 351c 5540     		eors	r5, r5, r2
 4958 351e 279A     		ldr	r2, [sp, #156]
 4959 3520 4340     		eors	r3, r3, r0
 4960 3522 2998     		ldr	r0, [sp, #164]
 4961 3524 8AEA0206 		eor	r6, r10, r2
 4962 3528 88EA0902 		eor	r2, r8, r9
 4963 352c 0240     		ands	r2, r2, r0
 4964 352e 2798     		ldr	r0, [sp, #156]
 4965 3530 06EA0B06 		and	r6, r6, fp
 4966 3534 0AEA0000 		and	r0, r10, r0
ARM GAS  /tmp/ccxnUvyY.s 			page 88


 4967 3538 7040     		eors	r0, r0, r6
 4968 353a 1B18     		adds	r3, r3, r0
 4969 353c 2698     		ldr	r0, [sp, #152]
 4970 353e 82EA0702 		eor	r2, r2, r7
 4971 3542 45EB0202 		adc	r2, r5, r2
 4972 3546 4018     		adds	r0, r0, r1
 4973 3548 2F90     		str	r0, [sp, #188]
 4974 354a 2898     		ldr	r0, [sp, #160]
 4975 354c 40EB0407 		adc	r7, r0, r4
 4976 3550 CB18     		adds	r3, r1, r3
 4977 3552 2693     		str	r3, [sp, #152]
 4978 3554 44EB0203 		adc	r3, r4, r2
 4979 3558 2893     		str	r3, [sp, #160]
 4980 355a 2F9B     		ldr	r3, [sp, #188]
 4981 355c 2F98     		ldr	r0, [sp, #188]
 4982 355e 4FEA973E 		lsr	lr, r7, #14
 4983 3562 990B     		lsrs	r1, r3, #14
 4984 3564 4EEA834E 		orr	lr, lr, r3, lsl #18
 4985 3568 9A0C     		lsrs	r2, r3, #18
 4986 356a BB0C     		lsrs	r3, r7, #18
 4987 356c 43EA8033 		orr	r3, r3, r0, lsl #14
 4988 3570 8EEA030E 		eor	lr, lr, r3
 4989 3574 FB05     		lsls	r3, r7, #23
 4990 3576 42EA8732 		orr	r2, r2, r7, lsl #14
 4991 357a 43EA5023 		orr	r3, r3, r0, lsr #9
 4992 357e 41EA8741 		orr	r1, r1, r7, lsl #18
 4993 3582 5140     		eors	r1, r1, r2
 4994 3584 8EEA030E 		eor	lr, lr, r3
 4995 3588 C205     		lsls	r2, r0, #23
 4996 358a 199B     		ldr	r3, [sp, #100]
 4997 358c 9B48     		ldr	r0, .L34+8
 4998 358e 9C4C     		ldr	r4, .L34+12
 4999 3590 1818     		adds	r0, r3, r0
 5000 3592 079B     		ldr	r3, [sp, #28]
 5001 3594 42EA5722 		orr	r2, r2, r7, lsr #9
 5002 3598 44EB0304 		adc	r4, r4, r3
 5003 359c 2E9B     		ldr	r3, [sp, #184]
 5004 359e 5140     		eors	r1, r1, r2
 5005 35a0 C018     		adds	r0, r0, r3
 5006 35a2 319B     		ldr	r3, [sp, #196]
 5007 35a4 2F9A     		ldr	r2, [sp, #188]
 5008 35a6 43EB0404 		adc	r4, r3, r4
 5009 35aa 329B     		ldr	r3, [sp, #200]
 5010 35ac 0918     		adds	r1, r1, r0
 5011 35ae 4EEB040E 		adc	lr, lr, r4
 5012 35b2 2F98     		ldr	r0, [sp, #188]
 5013 35b4 23EA0204 		bic	r4, r3, r2
 5014 35b8 339B     		ldr	r3, [sp, #204]
 5015 35ba 2CEA0702 		bic	r2, ip, r7
 5016 35be 0340     		ands	r3, r3, r0
 5017 35c0 2D98     		ldr	r0, [sp, #180]
 5018 35c2 6340     		eors	r3, r3, r4
 5019 35c4 3840     		ands	r0, r0, r7
 5020 35c6 C918     		adds	r1, r1, r3
 5021 35c8 82EA0002 		eor	r2, r2, r0
 5022 35cc 269B     		ldr	r3, [sp, #152]
 5023 35ce 4EEB020E 		adc	lr, lr, r2
ARM GAS  /tmp/ccxnUvyY.s 			page 89


 5024 35d2 289A     		ldr	r2, [sp, #160]
 5025 35d4 1B0F     		lsrs	r3, r3, #28
 5026 35d6 43EA0213 		orr	r3, r3, r2, lsl #4
 5027 35da 140F     		lsrs	r4, r2, #28
 5028 35dc 269A     		ldr	r2, [sp, #152]
 5029 35de 2698     		ldr	r0, [sp, #152]
 5030 35e0 44EA0214 		orr	r4, r4, r2, lsl #4
 5031 35e4 289A     		ldr	r2, [sp, #160]
 5032 35e6 289E     		ldr	r6, [sp, #160]
 5033 35e8 9207     		lsls	r2, r2, #30
 5034 35ea 42EA9002 		orr	r2, r2, r0, lsr #2
 5035 35ee 8007     		lsls	r0, r0, #30
 5036 35f0 40EA9600 		orr	r0, r0, r6, lsr #2
 5037 35f4 4340     		eors	r3, r3, r0
 5038 35f6 2698     		ldr	r0, [sp, #152]
 5039 35f8 5440     		eors	r4, r4, r2
 5040 35fa 7206     		lsls	r2, r6, #25
 5041 35fc 42EAD012 		orr	r2, r2, r0, lsr #7
 5042 3600 4006     		lsls	r0, r0, #25
 5043 3602 40EAD610 		orr	r0, r0, r6, lsr #7
 5044 3606 5440     		eors	r4, r4, r2
 5045 3608 279A     		ldr	r2, [sp, #156]
 5046 360a 4340     		eors	r3, r3, r0
 5047 360c 2698     		ldr	r0, [sp, #152]
 5048 360e 82EA0B06 		eor	r6, r2, fp
 5049 3612 299A     		ldr	r2, [sp, #164]
 5050 3614 0640     		ands	r6, r6, r0
 5051 3616 2898     		ldr	r0, [sp, #160]
 5052 3618 89EA0202 		eor	r2, r9, r2
 5053 361c 0240     		ands	r2, r2, r0
 5054 361e 2798     		ldr	r0, [sp, #156]
 5055 3620 299D     		ldr	r5, [sp, #164]
 5056 3622 00EA0B00 		and	r0, r0, fp
 5057 3626 09EA0505 		and	r5, r9, r5
 5058 362a 7040     		eors	r0, r0, r6
 5059 362c 1B18     		adds	r3, r3, r0
 5060 362e 82EA0502 		eor	r2, r2, r5
 5061 3632 44EB0204 		adc	r4, r4, r2
 5062 3636 1AEB0102 		adds	r2, r10, r1
 5063 363a 48EB0E08 		adc	r8, r8, lr
 5064 363e CB18     		adds	r3, r1, r3
 5065 3640 2A93     		str	r3, [sp, #168]
 5066 3642 4EEB0403 		adc	r3, lr, r4
 5067 3646 2B93     		str	r3, [sp, #172]
 5068 3648 940B     		lsrs	r4, r2, #14
 5069 364a 4FEA9831 		lsr	r1, r8, #14
 5070 364e 900C     		lsrs	r0, r2, #18
 5071 3650 4FEA9843 		lsr	r3, r8, #18
 5072 3654 40EA8830 		orr	r0, r0, r8, lsl #14
 5073 3658 43EA8233 		orr	r3, r3, r2, lsl #14
 5074 365c 44EA8844 		orr	r4, r4, r8, lsl #18
 5075 3660 41EA8241 		orr	r1, r1, r2, lsl #18
 5076 3664 4440     		eors	r4, r4, r0
 5077 3666 5940     		eors	r1, r1, r3
 5078 3668 D005     		lsls	r0, r2, #23
 5079 366a 4FEAC853 		lsl	r3, r8, #23
 5080 366e 43EA5223 		orr	r3, r3, r2, lsr #9
ARM GAS  /tmp/ccxnUvyY.s 			page 90


 5081 3672 40EA5820 		orr	r0, r0, r8, lsr #9
 5082 3676 4440     		eors	r4, r4, r0
 5083 3678 5940     		eors	r1, r1, r3
 5084 367a 6248     		ldr	r0, .L34+16
 5085 367c 1A9B     		ldr	r3, [sp, #104]
 5086 367e 089D     		ldr	r5, [sp, #32]
 5087 3680 1818     		adds	r0, r3, r0
 5088 3682 614B     		ldr	r3, .L34+20
 5089 3684 07EA0806 		and	r6, r7, r8
 5090 3688 43EB0503 		adc	r3, r3, r5
 5091 368c 329D     		ldr	r5, [sp, #200]
 5092 368e 4019     		adds	r0, r0, r5
 5093 3690 4CEB0303 		adc	r3, ip, r3
 5094 3694 2418     		adds	r4, r4, r0
 5095 3696 41EB0301 		adc	r1, r1, r3
 5096 369a 339B     		ldr	r3, [sp, #204]
 5097 369c 2A9D     		ldr	r5, [sp, #168]
 5098 369e 23EA020C 		bic	ip, r3, r2
 5099 36a2 2D9B     		ldr	r3, [sp, #180]
 5100 36a4 23EA0800 		bic	r0, r3, r8
 5101 36a8 2F9B     		ldr	r3, [sp, #188]
 5102 36aa 7040     		eors	r0, r0, r6
 5103 36ac 1340     		ands	r3, r3, r2
 5104 36ae 8CEA0303 		eor	r3, ip, r3
 5105 36b2 E418     		adds	r4, r4, r3
 5106 36b4 2A9B     		ldr	r3, [sp, #168]
 5107 36b6 41EB0001 		adc	r1, r1, r0
 5108 36ba 2B98     		ldr	r0, [sp, #172]
 5109 36bc 1B0F     		lsrs	r3, r3, #28
 5110 36be 43EA0013 		orr	r3, r3, r0, lsl #4
 5111 36c2 000F     		lsrs	r0, r0, #28
 5112 36c4 40EA0510 		orr	r0, r0, r5, lsl #4
 5113 36c8 2B9D     		ldr	r5, [sp, #172]
 5114 36ca AE07     		lsls	r6, r5, #30
 5115 36cc 2A9D     		ldr	r5, [sp, #168]
 5116 36ce 46EA9506 		orr	r6, r6, r5, lsr #2
 5117 36d2 4FEA857C 		lsl	ip, r5, #30
 5118 36d6 2B9D     		ldr	r5, [sp, #172]
 5119 36d8 7040     		eors	r0, r0, r6
 5120 36da 4CEA950C 		orr	ip, ip, r5, lsr #2
 5121 36de 6E06     		lsls	r6, r5, #25
 5122 36e0 2A9D     		ldr	r5, [sp, #168]
 5123 36e2 83EA0C03 		eor	r3, r3, ip
 5124 36e6 46EAD516 		orr	r6, r6, r5, lsr #7
 5125 36ea 4FEA456C 		lsl	ip, r5, #25
 5126 36ee 2B9D     		ldr	r5, [sp, #172]
 5127 36f0 7040     		eors	r0, r0, r6
 5128 36f2 4CEAD51C 		orr	ip, ip, r5, lsr #7
 5129 36f6 269D     		ldr	r5, [sp, #152]
 5130 36f8 83EA0C03 		eor	r3, r3, ip
 5131 36fc 8BEA050E 		eor	lr, fp, r5
 5132 3700 DDE92865 		ldrd	r6, r5, [sp, #160]
 5133 3704 6E40     		eors	r6, r6, r5
 5134 3706 2A9D     		ldr	r5, [sp, #168]
 5135 3708 2C93     		str	r3, [sp, #176]
 5136 370a 0EEA050E 		and	lr, lr, r5
 5137 370e 2B9D     		ldr	r5, [sp, #172]
ARM GAS  /tmp/ccxnUvyY.s 			page 91


 5138 3710 2E40     		ands	r6, r6, r5
 5139 3712 269D     		ldr	r5, [sp, #152]
 5140 3714 0BEA050C 		and	ip, fp, r5
 5141 3718 DDE92835 		ldrd	r3, r5, [sp, #160]
 5142 371c 05EA030A 		and	r10, r5, r3
 5143 3720 2C9B     		ldr	r3, [sp, #176]
 5144 3722 8EEA0C0C 		eor	ip, lr, ip
 5145 3726 13EB0C0C 		adds	ip, r3, ip
 5146 372a 279B     		ldr	r3, [sp, #156]
 5147 372c 86EA0A06 		eor	r6, r6, r10
 5148 3730 40EB0606 		adc	r6, r0, r6
 5149 3734 1B19     		adds	r3, r3, r4
 5150 3736 49EB0109 		adc	r9, r9, r1
 5151 373a 14EB0C00 		adds	r0, r4, ip
 5152 373e 41EB0601 		adc	r1, r1, r6
 5153 3742 2790     		str	r0, [sp, #156]
 5154 3744 2C91     		str	r1, [sp, #176]
 5155 3746 4FEA9940 		lsr	r0, r9, #18
 5156 374a 4FEA9931 		lsr	r1, r9, #14
 5157 374e 40EA8330 		orr	r0, r0, r3, lsl #14
 5158 3752 41EA8341 		orr	r1, r1, r3, lsl #18
 5159 3756 4140     		eors	r1, r1, r0
 5160 3758 4FEAC950 		lsl	r0, r9, #23
 5161 375c 40EA5320 		orr	r0, r0, r3, lsr #9
 5162 3760 1B9D     		ldr	r5, [sp, #108]
 5163 3762 4140     		eors	r1, r1, r0
 5164 3764 2948     		ldr	r0, .L34+24
 5165 3766 9C0B     		lsrs	r4, r3, #14
 5166 3768 15EB000C 		adds	ip, r5, r0
 5167 376c 099D     		ldr	r5, [sp, #36]
 5168 376e 2848     		ldr	r0, .L34+28
 5169 3770 4FEA9346 		lsr	r6, r3, #18
 5170 3774 46EA8936 		orr	r6, r6, r9, lsl #14
 5171 3778 40EB0500 		adc	r0, r0, r5
 5172 377c 44EA8944 		orr	r4, r4, r9, lsl #18
 5173 3780 339D     		ldr	r5, [sp, #204]
 5174 3782 7440     		eors	r4, r4, r6
 5175 3784 DE05     		lsls	r6, r3, #23
 5176 3786 1CEB050C 		adds	ip, ip, r5
 5177 378a 46EA5926 		orr	r6, r6, r9, lsr #9
 5178 378e 2D9D     		ldr	r5, [sp, #180]
 5179 3790 84EA0604 		eor	r4, r4, r6
 5180 3794 45EB0000 		adc	r0, r5, r0
 5181 3798 14EB0C04 		adds	r4, r4, ip
 5182 379c 41EB0001 		adc	r1, r1, r0
 5183 37a0 2F98     		ldr	r0, [sp, #188]
 5184 37a2 2C9D     		ldr	r5, [sp, #176]
 5185 37a4 20EA030E 		bic	lr, r0, r3
 5186 37a8 02EA0300 		and	r0, r2, r3
 5187 37ac 8EEA0000 		eor	r0, lr, r0
 5188 37b0 2418     		adds	r4, r4, r0
 5189 37b2 2798     		ldr	r0, [sp, #156]
 5190 37b4 08EA090C 		and	ip, r8, r9
 5191 37b8 27EA0906 		bic	r6, r7, r9
 5192 37bc 86EA0C06 		eor	r6, r6, ip
 5193 37c0 4FEA1070 		lsr	r0, r0, #28
 5194 37c4 41EB0601 		adc	r1, r1, r6
ARM GAS  /tmp/ccxnUvyY.s 			page 92


 5195 37c8 40EA0510 		orr	r0, r0, r5, lsl #4
 5196 37cc 2E0F     		lsrs	r6, r5, #28
 5197 37ce 279D     		ldr	r5, [sp, #156]
 5198 37d0 46EA0516 		orr	r6, r6, r5, lsl #4
 5199 37d4 2C9D     		ldr	r5, [sp, #176]
 5200 37d6 4FEA857C 		lsl	ip, r5, #30
 5201 37da 279D     		ldr	r5, [sp, #156]
 5202 37dc 4CEA950C 		orr	ip, ip, r5, lsr #2
 5203 37e0 4FEA857E 		lsl	lr, r5, #30
 5204 37e4 2C9D     		ldr	r5, [sp, #176]
 5205 37e6 86EA0C06 		eor	r6, r6, ip
 5206 37ea 4EEA950E 		orr	lr, lr, r5, lsr #2
 5207 37ee 4FEA456C 		lsl	ip, r5, #25
 5208 37f2 0FE0     		b	.L35
 5209              	.L36:
 5210              		.align	2
 5211              	.L34:
 5212 37f4 FC2FD246 		.word	1188179964
 5213 37f8 850AB727 		.word	666307205
 5214 37fc 26C9265C 		.word	1546045734
 5215 3800 38211B2E 		.word	773529912
 5216 3804 ED2AC45A 		.word	1522805485
 5217 3808 FC6D2C4D 		.word	1294757372
 5218 380c DFB3959D 		.word	-1651133473
 5219 3810 130D3853 		.word	1396182291
 5220              	.L35:
 5221 3814 279D     		ldr	r5, [sp, #156]
 5222 3816 80EA0E00 		eor	r0, r0, lr
 5223 381a 4CEAD51C 		orr	ip, ip, r5, lsr #7
 5224 381e 4FEA456E 		lsl	lr, r5, #25
 5225 3822 2C9D     		ldr	r5, [sp, #176]
 5226 3824 86EA0C06 		eor	r6, r6, ip
 5227 3828 4EEAD51E 		orr	lr, lr, r5, lsr #7
 5228 382c 80EA0E00 		eor	r0, r0, lr
 5229 3830 2D90     		str	r0, [sp, #180]
 5230 3832 269D     		ldr	r5, [sp, #152]
 5231 3834 2A98     		ldr	r0, [sp, #168]
 5232 3836 85EA000A 		eor	r10, r5, r0
 5233 383a 2898     		ldr	r0, [sp, #160]
 5234 383c 2B9D     		ldr	r5, [sp, #172]
 5235 383e 80EA050C 		eor	ip, r0, r5
 5236 3842 2798     		ldr	r0, [sp, #156]
 5237 3844 2A9D     		ldr	r5, [sp, #168]
 5238 3846 0AEA000A 		and	r10, r10, r0
 5239 384a 2C98     		ldr	r0, [sp, #176]
 5240 384c 0CEA000C 		and	ip, ip, r0
 5241 3850 2698     		ldr	r0, [sp, #152]
 5242 3852 00EA050E 		and	lr, r0, r5
 5243 3856 2B9D     		ldr	r5, [sp, #172]
 5244 3858 2898     		ldr	r0, [sp, #160]
 5245 385a 8AEA0E0E 		eor	lr, r10, lr
 5246 385e 2840     		ands	r0, r0, r5
 5247 3860 8CEA000C 		eor	ip, ip, r0
 5248 3864 2D98     		ldr	r0, [sp, #180]
 5249 3866 299D     		ldr	r5, [sp, #164]
 5250 3868 10EB0E00 		adds	r0, r0, lr
 5251 386c 46EB0C0C 		adc	ip, r6, ip
ARM GAS  /tmp/ccxnUvyY.s 			page 93


 5252 3870 1BEB040B 		adds	fp, fp, r4
 5253 3874 45EB010E 		adc	lr, r5, r1
 5254 3878 2018     		adds	r0, r4, r0
 5255 387a 41EB0C01 		adc	r1, r1, ip
 5256 387e 2D91     		str	r1, [sp, #180]
 5257 3880 4FEA9E3C 		lsr	ip, lr, #14
 5258 3884 4FEA9E41 		lsr	r1, lr, #18
 5259 3888 41EA8B31 		orr	r1, r1, fp, lsl #14
 5260 388c 4CEA8B4C 		orr	ip, ip, fp, lsl #18
 5261 3890 2990     		str	r0, [sp, #164]
 5262 3892 4FEA9B34 		lsr	r4, fp, #14
 5263 3896 4FEA9B40 		lsr	r0, fp, #18
 5264 389a 8CEA010C 		eor	ip, ip, r1
 5265 389e 4FEACE51 		lsl	r1, lr, #23
 5266 38a2 44EA8E44 		orr	r4, r4, lr, lsl #18
 5267 38a6 40EA8E36 		orr	r6, r0, lr, lsl #14
 5268 38aa 41EA5B21 		orr	r1, r1, fp, lsr #9
 5269 38ae 84EA0600 		eor	r0, r4, r6
 5270 38b2 8CEA010C 		eor	ip, ip, r1
 5271 38b6 4FEACB54 		lsl	r4, fp, #23
 5272 38ba 1C99     		ldr	r1, [sp, #112]
 5273 38bc D24E     		ldr	r6, .L37
 5274 38be 44EA5E24 		orr	r4, r4, lr, lsr #9
 5275 38c2 8E19     		adds	r6, r1, r6
 5276 38c4 84EA0004 		eor	r4, r4, r0
 5277 38c8 D049     		ldr	r1, .L37+4
 5278 38ca 0A98     		ldr	r0, [sp, #40]
 5279 38cc 09EA0E05 		and	r5, r9, lr
 5280 38d0 41EB000A 		adc	r10, r1, r0
 5281 38d4 2F99     		ldr	r1, [sp, #188]
 5282 38d6 7018     		adds	r0, r6, r1
 5283 38d8 22EA0B06 		bic	r6, r2, fp
 5284 38dc 03EA0B01 		and	r1, r3, fp
 5285 38e0 47EB0A07 		adc	r7, r7, r10
 5286 38e4 7140     		eors	r1, r1, r6
 5287 38e6 2018     		adds	r0, r4, r0
 5288 38e8 4CEB0707 		adc	r7, ip, r7
 5289 38ec 4118     		adds	r1, r0, r1
 5290 38ee 2E91     		str	r1, [sp, #184]
 5291 38f0 2999     		ldr	r1, [sp, #164]
 5292 38f2 28EA0E04 		bic	r4, r8, lr
 5293 38f6 84EA0504 		eor	r4, r4, r5
 5294 38fa 4FEA1175 		lsr	r5, r1, #28
 5295 38fe 2D99     		ldr	r1, [sp, #180]
 5296 3900 47EB0407 		adc	r7, r7, r4
 5297 3904 299C     		ldr	r4, [sp, #164]
 5298 3906 45EA0115 		orr	r5, r5, r1, lsl #4
 5299 390a 090F     		lsrs	r1, r1, #28
 5300 390c 41EA0411 		orr	r1, r1, r4, lsl #4
 5301 3910 2D9C     		ldr	r4, [sp, #180]
 5302 3912 299E     		ldr	r6, [sp, #164]
 5303 3914 2D98     		ldr	r0, [sp, #180]
 5304 3916 A407     		lsls	r4, r4, #30
 5305 3918 44EA9604 		orr	r4, r4, r6, lsr #2
 5306 391c B607     		lsls	r6, r6, #30
 5307 391e 46EA9006 		orr	r6, r6, r0, lsr #2
 5308 3922 6140     		eors	r1, r1, r4
ARM GAS  /tmp/ccxnUvyY.s 			page 94


 5309 3924 4406     		lsls	r4, r0, #25
 5310 3926 2998     		ldr	r0, [sp, #164]
 5311 3928 7540     		eors	r5, r5, r6
 5312 392a 44EAD014 		orr	r4, r4, r0, lsr #7
 5313 392e 4606     		lsls	r6, r0, #25
 5314 3930 2D98     		ldr	r0, [sp, #180]
 5315 3932 6140     		eors	r1, r1, r4
 5316 3934 46EAD016 		orr	r6, r6, r0, lsr #7
 5317 3938 279C     		ldr	r4, [sp, #156]
 5318 393a 2A98     		ldr	r0, [sp, #168]
 5319 393c 7540     		eors	r5, r5, r6
 5320 393e 4440     		eors	r4, r4, r0
 5321 3940 DDE92B06 		ldrd	r0, r6, [sp, #172]
 5322 3944 80EA060C 		eor	ip, r0, r6
 5323 3948 2998     		ldr	r0, [sp, #164]
 5324 394a 0440     		ands	r4, r4, r0
 5325 394c 2D98     		ldr	r0, [sp, #180]
 5326 394e 0CEA000C 		and	ip, ip, r0
 5327 3952 2A98     		ldr	r0, [sp, #168]
 5328 3954 279E     		ldr	r6, [sp, #156]
 5329 3956 00EA060A 		and	r10, r0, r6
 5330 395a 84EA0A04 		eor	r4, r4, r10
 5331 395e DDE92B06 		ldrd	r0, r6, [sp, #172]
 5332 3962 0640     		ands	r6, r6, r0
 5333 3964 2C19     		adds	r4, r5, r4
 5334 3966 8CEA0606 		eor	r6, ip, r6
 5335 396a 2E98     		ldr	r0, [sp, #184]
 5336 396c 41EB0606 		adc	r6, r1, r6
 5337 3970 2699     		ldr	r1, [sp, #152]
 5338 3972 11EB000A 		adds	r10, r1, r0
 5339 3976 2899     		ldr	r1, [sp, #160]
 5340 3978 4FEA9A45 		lsr	r5, r10, #18
 5341 397c 41EB070C 		adc	ip, r1, r7
 5342 3980 0119     		adds	r1, r0, r4
 5343 3982 2691     		str	r1, [sp, #152]
 5344 3984 47EB0601 		adc	r1, r7, r6
 5345 3988 2891     		str	r1, [sp, #160]
 5346 398a 4FEA9A30 		lsr	r0, r10, #14
 5347 398e 4FEA9C34 		lsr	r4, ip, #14
 5348 3992 4FEA9C41 		lsr	r1, ip, #18
 5349 3996 45EA8C35 		orr	r5, r5, ip, lsl #14
 5350 399a 41EA8A31 		orr	r1, r1, r10, lsl #14
 5351 399e 40EA8C40 		orr	r0, r0, ip, lsl #18
 5352 39a2 44EA8A44 		orr	r4, r4, r10, lsl #18
 5353 39a6 6840     		eors	r0, r0, r5
 5354 39a8 4C40     		eors	r4, r4, r1
 5355 39aa 4FEACA55 		lsl	r5, r10, #23
 5356 39ae 4FEACC51 		lsl	r1, ip, #23
 5357 39b2 41EA5A21 		orr	r1, r1, r10, lsr #9
 5358 39b6 45EA5C25 		orr	r5, r5, ip, lsr #9
 5359 39ba 6840     		eors	r0, r0, r5
 5360 39bc 4C40     		eors	r4, r4, r1
 5361 39be 944D     		ldr	r5, .L37+8
 5362 39c0 1D99     		ldr	r1, [sp, #116]
 5363 39c2 0B9E     		ldr	r6, [sp, #44]
 5364 39c4 4D19     		adds	r5, r1, r5
 5365 39c6 9349     		ldr	r1, .L37+12
ARM GAS  /tmp/ccxnUvyY.s 			page 95


 5366 39c8 299F     		ldr	r7, [sp, #164]
 5367 39ca 41EB0601 		adc	r1, r1, r6
 5368 39ce AA18     		adds	r2, r5, r2
 5369 39d0 48EB0108 		adc	r8, r8, r1
 5370 39d4 23EA0A05 		bic	r5, r3, r10
 5371 39d8 0BEA0A01 		and	r1, fp, r10
 5372 39dc 8218     		adds	r2, r0, r2
 5373 39de 81EA0501 		eor	r1, r1, r5
 5374 39e2 44EB0808 		adc	r8, r4, r8
 5375 39e6 5218     		adds	r2, r2, r1
 5376 39e8 2699     		ldr	r1, [sp, #152]
 5377 39ea 0EEA0C04 		and	r4, lr, ip
 5378 39ee 29EA0C00 		bic	r0, r9, ip
 5379 39f2 80EA0400 		eor	r0, r0, r4
 5380 39f6 4FEA1174 		lsr	r4, r1, #28
 5381 39fa 2899     		ldr	r1, [sp, #160]
 5382 39fc 48EB0008 		adc	r8, r8, r0
 5383 3a00 2698     		ldr	r0, [sp, #152]
 5384 3a02 44EA0114 		orr	r4, r4, r1, lsl #4
 5385 3a06 090F     		lsrs	r1, r1, #28
 5386 3a08 41EA0011 		orr	r1, r1, r0, lsl #4
 5387 3a0c 2898     		ldr	r0, [sp, #160]
 5388 3a0e 269D     		ldr	r5, [sp, #152]
 5389 3a10 289E     		ldr	r6, [sp, #160]
 5390 3a12 8007     		lsls	r0, r0, #30
 5391 3a14 40EA9500 		orr	r0, r0, r5, lsr #2
 5392 3a18 AD07     		lsls	r5, r5, #30
 5393 3a1a 45EA9605 		orr	r5, r5, r6, lsr #2
 5394 3a1e 6C40     		eors	r4, r4, r5
 5395 3a20 269D     		ldr	r5, [sp, #152]
 5396 3a22 4140     		eors	r1, r1, r0
 5397 3a24 7006     		lsls	r0, r6, #25
 5398 3a26 40EAD510 		orr	r0, r0, r5, lsr #7
 5399 3a2a 6D06     		lsls	r5, r5, #25
 5400 3a2c 45EAD615 		orr	r5, r5, r6, lsr #7
 5401 3a30 6C40     		eors	r4, r4, r5
 5402 3a32 4140     		eors	r1, r1, r0
 5403 3a34 299D     		ldr	r5, [sp, #164]
 5404 3a36 2798     		ldr	r0, [sp, #156]
 5405 3a38 2E91     		str	r1, [sp, #184]
 5406 3a3a 6840     		eors	r0, r0, r5
 5407 3a3c DDE92C56 		ldrd	r5, r6, [sp, #176]
 5408 3a40 6E40     		eors	r6, r6, r5
 5409 3a42 269D     		ldr	r5, [sp, #152]
 5410 3a44 2840     		ands	r0, r0, r5
 5411 3a46 289D     		ldr	r5, [sp, #160]
 5412 3a48 2E40     		ands	r6, r6, r5
 5413 3a4a 279D     		ldr	r5, [sp, #156]
 5414 3a4c 2F40     		ands	r7, r7, r5
 5415 3a4e 7840     		eors	r0, r0, r7
 5416 3a50 DDE92C51 		ldrd	r5, r1, [sp, #176]
 5417 3a54 0D40     		ands	r5, r5, r1
 5418 3a56 2E99     		ldr	r1, [sp, #184]
 5419 3a58 2018     		adds	r0, r4, r0
 5420 3a5a 85EA0605 		eor	r5, r5, r6
 5421 3a5e 41EB0506 		adc	r6, r1, r5
 5422 3a62 2A99     		ldr	r1, [sp, #168]
ARM GAS  /tmp/ccxnUvyY.s 			page 96


 5423 3a64 8F18     		adds	r7, r1, r2
 5424 3a66 2B99     		ldr	r1, [sp, #172]
 5425 3a68 4FEA9744 		lsr	r4, r7, #18
 5426 3a6c 41EB0801 		adc	r1, r1, r8
 5427 3a70 1218     		adds	r2, r2, r0
 5428 3a72 2E91     		str	r1, [sp, #184]
 5429 3a74 2A92     		str	r2, [sp, #168]
 5430 3a76 48EB0602 		adc	r2, r8, r6
 5431 3a7a 2B92     		str	r2, [sp, #172]
 5432 3a7c 2E9A     		ldr	r2, [sp, #184]
 5433 3a7e B90B     		lsrs	r1, r7, #14
 5434 3a80 44EA8234 		orr	r4, r4, r2, lsl #14
 5435 3a84 41EA8241 		orr	r1, r1, r2, lsl #18
 5436 3a88 900B     		lsrs	r0, r2, #14
 5437 3a8a 920C     		lsrs	r2, r2, #18
 5438 3a8c 42EA8732 		orr	r2, r2, r7, lsl #14
 5439 3a90 40EA8740 		orr	r0, r0, r7, lsl #18
 5440 3a94 5040     		eors	r0, r0, r2
 5441 3a96 2E9A     		ldr	r2, [sp, #184]
 5442 3a98 2E9D     		ldr	r5, [sp, #184]
 5443 3a9a 6140     		eors	r1, r1, r4
 5444 3a9c D205     		lsls	r2, r2, #23
 5445 3a9e FC05     		lsls	r4, r7, #23
 5446 3aa0 42EA5722 		orr	r2, r2, r7, lsr #9
 5447 3aa4 44EA5524 		orr	r4, r4, r5, lsr #9
 5448 3aa8 6140     		eors	r1, r1, r4
 5449 3aaa 5040     		eors	r0, r0, r2
 5450 3aac 1E9C     		ldr	r4, [sp, #120]
 5451 3aae 5A4A     		ldr	r2, .L37+16
 5452 3ab0 0C9E     		ldr	r6, [sp, #48]
 5453 3ab2 A218     		adds	r2, r4, r2
 5454 3ab4 594C     		ldr	r4, .L37+20
 5455 3ab6 44EB0604 		adc	r4, r4, r6
 5456 3aba D318     		adds	r3, r2, r3
 5457 3abc 49EB0409 		adc	r9, r9, r4
 5458 3ac0 0AEA0702 		and	r2, r10, r7
 5459 3ac4 2BEA0704 		bic	r4, fp, r7
 5460 3ac8 CB18     		adds	r3, r1, r3
 5461 3aca 82EA0402 		eor	r2, r2, r4
 5462 3ace 40EB0909 		adc	r9, r0, r9
 5463 3ad2 9B18     		adds	r3, r3, r2
 5464 3ad4 2A9A     		ldr	r2, [sp, #168]
 5465 3ad6 0CEA0500 		and	r0, ip, r5
 5466 3ada 2EEA0501 		bic	r1, lr, r5
 5467 3ade 81EA0001 		eor	r1, r1, r0
 5468 3ae2 4FEA1270 		lsr	r0, r2, #28
 5469 3ae6 2B9A     		ldr	r2, [sp, #172]
 5470 3ae8 49EB0109 		adc	r9, r9, r1
 5471 3aec 2A99     		ldr	r1, [sp, #168]
 5472 3aee 40EA0210 		orr	r0, r0, r2, lsl #4
 5473 3af2 120F     		lsrs	r2, r2, #28
 5474 3af4 42EA0112 		orr	r2, r2, r1, lsl #4
 5475 3af8 2B99     		ldr	r1, [sp, #172]
 5476 3afa 2A9C     		ldr	r4, [sp, #168]
 5477 3afc 2B9E     		ldr	r6, [sp, #172]
 5478 3afe 8907     		lsls	r1, r1, #30
 5479 3b00 41EA9401 		orr	r1, r1, r4, lsr #2
ARM GAS  /tmp/ccxnUvyY.s 			page 97


 5480 3b04 A407     		lsls	r4, r4, #30
 5481 3b06 44EA9604 		orr	r4, r4, r6, lsr #2
 5482 3b0a 6040     		eors	r0, r0, r4
 5483 3b0c 2A9C     		ldr	r4, [sp, #168]
 5484 3b0e 4A40     		eors	r2, r2, r1
 5485 3b10 7106     		lsls	r1, r6, #25
 5486 3b12 41EAD411 		orr	r1, r1, r4, lsr #7
 5487 3b16 6406     		lsls	r4, r4, #25
 5488 3b18 44EAD614 		orr	r4, r4, r6, lsr #7
 5489 3b1c 6040     		eors	r0, r0, r4
 5490 3b1e 4A40     		eors	r2, r2, r1
 5491 3b20 269C     		ldr	r4, [sp, #152]
 5492 3b22 2999     		ldr	r1, [sp, #164]
 5493 3b24 289E     		ldr	r6, [sp, #160]
 5494 3b26 6140     		eors	r1, r1, r4
 5495 3b28 2D9C     		ldr	r4, [sp, #180]
 5496 3b2a 269D     		ldr	r5, [sp, #152]
 5497 3b2c 6640     		eors	r6, r6, r4
 5498 3b2e 2A9C     		ldr	r4, [sp, #168]
 5499 3b30 2140     		ands	r1, r1, r4
 5500 3b32 2B9C     		ldr	r4, [sp, #172]
 5501 3b34 2640     		ands	r6, r6, r4
 5502 3b36 299C     		ldr	r4, [sp, #164]
 5503 3b38 04EA0508 		and	r8, r4, r5
 5504 3b3c 289D     		ldr	r5, [sp, #160]
 5505 3b3e 2D9C     		ldr	r4, [sp, #180]
 5506 3b40 81EA0801 		eor	r1, r1, r8
 5507 3b44 4118     		adds	r1, r0, r1
 5508 3b46 04EA0504 		and	r4, r4, r5
 5509 3b4a 2798     		ldr	r0, [sp, #156]
 5510 3b4c 84EA0604 		eor	r4, r4, r6
 5511 3b50 42EB0402 		adc	r2, r2, r4
 5512 3b54 C418     		adds	r4, r0, r3
 5513 3b56 2C98     		ldr	r0, [sp, #176]
 5514 3b58 0D9D     		ldr	r5, [sp, #52]
 5515 3b5a 40EB0906 		adc	r6, r0, r9
 5516 3b5e 5B18     		adds	r3, r3, r1
 5517 3b60 2793     		str	r3, [sp, #156]
 5518 3b62 49EB0203 		adc	r3, r9, r2
 5519 3b66 2C93     		str	r3, [sp, #176]
 5520 3b68 A20B     		lsrs	r2, r4, #14
 5521 3b6a B10B     		lsrs	r1, r6, #14
 5522 3b6c A00C     		lsrs	r0, r4, #18
 5523 3b6e B30C     		lsrs	r3, r6, #18
 5524 3b70 40EA8630 		orr	r0, r0, r6, lsl #14
 5525 3b74 43EA8433 		orr	r3, r3, r4, lsl #14
 5526 3b78 42EA8642 		orr	r2, r2, r6, lsl #18
 5527 3b7c 41EA8441 		orr	r1, r1, r4, lsl #18
 5528 3b80 4240     		eors	r2, r2, r0
 5529 3b82 5940     		eors	r1, r1, r3
 5530 3b84 E005     		lsls	r0, r4, #23
 5531 3b86 F305     		lsls	r3, r6, #23
 5532 3b88 43EA5423 		orr	r3, r3, r4, lsr #9
 5533 3b8c 40EA5620 		orr	r0, r0, r6, lsr #9
 5534 3b90 4240     		eors	r2, r2, r0
 5535 3b92 5940     		eors	r1, r1, r3
 5536 3b94 1F98     		ldr	r0, [sp, #124]
ARM GAS  /tmp/ccxnUvyY.s 			page 98


 5537 3b96 224B     		ldr	r3, .L37+24
 5538 3b98 C318     		adds	r3, r0, r3
 5539 3b9a 2248     		ldr	r0, .L37+28
 5540 3b9c 40EB0500 		adc	r0, r0, r5
 5541 3ba0 13EB0B0B 		adds	fp, r3, fp
 5542 3ba4 4EEB000E 		adc	lr, lr, r0
 5543 3ba8 07EA0403 		and	r3, r7, r4
 5544 3bac 2AEA0400 		bic	r0, r10, r4
 5545 3bb0 12EB0B0B 		adds	fp, r2, fp
 5546 3bb4 41EB0E0E 		adc	lr, r1, lr
 5547 3bb8 4340     		eors	r3, r3, r0
 5548 3bba 2E99     		ldr	r1, [sp, #184]
 5549 3bbc 1BEB030B 		adds	fp, fp, r3
 5550 3bc0 279B     		ldr	r3, [sp, #156]
 5551 3bc2 2CEA0602 		bic	r2, ip, r6
 5552 3bc6 01EA0601 		and	r1, r1, r6
 5553 3bca 82EA0102 		eor	r2, r2, r1
 5554 3bce 4FEA1371 		lsr	r1, r3, #28
 5555 3bd2 2C9B     		ldr	r3, [sp, #176]
 5556 3bd4 4EEB020E 		adc	lr, lr, r2
 5557 3bd8 279A     		ldr	r2, [sp, #156]
 5558 3bda 41EA0311 		orr	r1, r1, r3, lsl #4
 5559 3bde 1B0F     		lsrs	r3, r3, #28
 5560 3be0 43EA0213 		orr	r3, r3, r2, lsl #4
 5561 3be4 2C9A     		ldr	r2, [sp, #176]
 5562 3be6 2798     		ldr	r0, [sp, #156]
 5563 3be8 2C9D     		ldr	r5, [sp, #176]
 5564 3bea 9207     		lsls	r2, r2, #30
 5565 3bec 42EA9002 		orr	r2, r2, r0, lsr #2
 5566 3bf0 8007     		lsls	r0, r0, #30
 5567 3bf2 40EA9500 		orr	r0, r0, r5, lsr #2
 5568 3bf6 4140     		eors	r1, r1, r0
 5569 3bf8 2798     		ldr	r0, [sp, #156]
 5570 3bfa 5340     		eors	r3, r3, r2
 5571 3bfc 6A06     		lsls	r2, r5, #25
 5572 3bfe 42EAD012 		orr	r2, r2, r0, lsr #7
 5573 3c02 4006     		lsls	r0, r0, #25
 5574 3c04 10E0     		b	.L38
 5575              	.L39:
 5576 3c06 00BF     		.align	2
 5577              	.L37:
 5578 3c08 DE63AF8B 		.word	-1951439906
 5579 3c0c 54730A65 		.word	1695183700
 5580 3c10 A8B2773C 		.word	1014477480
 5581 3c14 BB0A6A76 		.word	1986661051
 5582 3c18 E6AEED47 		.word	1206759142
 5583 3c1c 2EC9C281 		.word	-2117940946
 5584 3c20 3B358214 		.word	344077627
 5585 3c24 852C7292 		.word	-1838011259
 5586              	.L38:
 5587 3c28 40EAD510 		orr	r0, r0, r5, lsr #7
 5588 3c2c 4140     		eors	r1, r1, r0
 5589 3c2e 5340     		eors	r3, r3, r2
 5590 3c30 2A98     		ldr	r0, [sp, #168]
 5591 3c32 269A     		ldr	r2, [sp, #152]
 5592 3c34 2B9D     		ldr	r5, [sp, #172]
 5593 3c36 4240     		eors	r2, r2, r0
ARM GAS  /tmp/ccxnUvyY.s 			page 99


 5594 3c38 2898     		ldr	r0, [sp, #160]
 5595 3c3a 80EA0508 		eor	r8, r0, r5
 5596 3c3e 2798     		ldr	r0, [sp, #156]
 5597 3c40 2A9D     		ldr	r5, [sp, #168]
 5598 3c42 0240     		ands	r2, r2, r0
 5599 3c44 2C98     		ldr	r0, [sp, #176]
 5600 3c46 08EA0008 		and	r8, r8, r0
 5601 3c4a 2698     		ldr	r0, [sp, #152]
 5602 3c4c 00EA0509 		and	r9, r0, r5
 5603 3c50 2B9D     		ldr	r5, [sp, #172]
 5604 3c52 2898     		ldr	r0, [sp, #160]
 5605 3c54 82EA0902 		eor	r2, r2, r9
 5606 3c58 2840     		ands	r0, r0, r5
 5607 3c5a 8A18     		adds	r2, r1, r2
 5608 3c5c 88EA0000 		eor	r0, r8, r0
 5609 3c60 43EB0008 		adc	r8, r3, r0
 5610 3c64 299B     		ldr	r3, [sp, #164]
 5611 3c66 209D     		ldr	r5, [sp, #128]
 5612 3c68 13EB0B00 		adds	r0, r3, fp
 5613 3c6c 2D9B     		ldr	r3, [sp, #180]
 5614 3c6e 43EB0E03 		adc	r3, r3, lr
 5615 3c72 2F93     		str	r3, [sp, #188]
 5616 3c74 1BEB0203 		adds	r3, fp, r2
 5617 3c78 2993     		str	r3, [sp, #164]
 5618 3c7a 4EEB0803 		adc	r3, lr, r8
 5619 3c7e 2D93     		str	r3, [sp, #180]
 5620 3c80 2F9B     		ldr	r3, [sp, #188]
 5621 3c82 820B     		lsrs	r2, r0, #14
 5622 3c84 4FEA9048 		lsr	r8, r0, #18
 5623 3c88 48EA8338 		orr	r8, r8, r3, lsl #14
 5624 3c8c 42EA8342 		orr	r2, r2, r3, lsl #18
 5625 3c90 4FEA933E 		lsr	lr, r3, #14
 5626 3c94 9B0C     		lsrs	r3, r3, #18
 5627 3c96 43EA8033 		orr	r3, r3, r0, lsl #14
 5628 3c9a 4EEA804E 		orr	lr, lr, r0, lsl #18
 5629 3c9e 8EEA030E 		eor	lr, lr, r3
 5630 3ca2 2F9B     		ldr	r3, [sp, #188]
 5631 3ca4 2F99     		ldr	r1, [sp, #188]
 5632 3ca6 DB05     		lsls	r3, r3, #23
 5633 3ca8 43EA5023 		orr	r3, r3, r0, lsr #9
 5634 3cac 8EEA030E 		eor	lr, lr, r3
 5635 3cb0 82EA0802 		eor	r2, r2, r8
 5636 3cb4 D74B     		ldr	r3, .L40
 5637 3cb6 4FEAC058 		lsl	r8, r0, #23
 5638 3cba 48EA5128 		orr	r8, r8, r1, lsr #9
 5639 3cbe EB18     		adds	r3, r5, r3
 5640 3cc0 82EA0802 		eor	r2, r2, r8
 5641 3cc4 0E9D     		ldr	r5, [sp, #56]
 5642 3cc6 DFF86483 		ldr	r8, .L40+24
 5643 3cca 48EB0508 		adc	r8, r8, r5
 5644 3cce 13EB0A0A 		adds	r10, r3, r10
 5645 3cd2 2E9B     		ldr	r3, [sp, #184]
 5646 3cd4 4CEB080C 		adc	ip, ip, r8
 5647 3cd8 27EA0008 		bic	r8, r7, r0
 5648 3cdc 12EB0A0A 		adds	r10, r2, r10
 5649 3ce0 23EA0102 		bic	r2, r3, r1
 5650 3ce4 04EA0003 		and	r3, r4, r0
ARM GAS  /tmp/ccxnUvyY.s 			page 100


 5651 3ce8 88EA0303 		eor	r3, r8, r3
 5652 3cec 4EEB0C0C 		adc	ip, lr, ip
 5653 3cf0 1AEB030A 		adds	r10, r10, r3
 5654 3cf4 299B     		ldr	r3, [sp, #164]
 5655 3cf6 06EA010E 		and	lr, r6, r1
 5656 3cfa 82EA0E02 		eor	r2, r2, lr
 5657 3cfe 4FEA137E 		lsr	lr, r3, #28
 5658 3d02 2D9B     		ldr	r3, [sp, #180]
 5659 3d04 4CEB020C 		adc	ip, ip, r2
 5660 3d08 299A     		ldr	r2, [sp, #164]
 5661 3d0a 4EEA031E 		orr	lr, lr, r3, lsl #4
 5662 3d0e 1B0F     		lsrs	r3, r3, #28
 5663 3d10 43EA0213 		orr	r3, r3, r2, lsl #4
 5664 3d14 2D9A     		ldr	r2, [sp, #180]
 5665 3d16 299D     		ldr	r5, [sp, #164]
 5666 3d18 9207     		lsls	r2, r2, #30
 5667 3d1a 42EA9502 		orr	r2, r2, r5, lsr #2
 5668 3d1e 4FEA8578 		lsl	r8, r5, #30
 5669 3d22 2D9D     		ldr	r5, [sp, #180]
 5670 3d24 5340     		eors	r3, r3, r2
 5671 3d26 48EA9508 		orr	r8, r8, r5, lsr #2
 5672 3d2a 6A06     		lsls	r2, r5, #25
 5673 3d2c 299D     		ldr	r5, [sp, #164]
 5674 3d2e 8EEA080E 		eor	lr, lr, r8
 5675 3d32 42EAD512 		orr	r2, r2, r5, lsr #7
 5676 3d36 4FEA4568 		lsl	r8, r5, #25
 5677 3d3a 2D9D     		ldr	r5, [sp, #180]
 5678 3d3c 5340     		eors	r3, r3, r2
 5679 3d3e 48EAD518 		orr	r8, r8, r5, lsr #7
 5680 3d42 2A9A     		ldr	r2, [sp, #168]
 5681 3d44 279D     		ldr	r5, [sp, #156]
 5682 3d46 8EEA080E 		eor	lr, lr, r8
 5683 3d4a 6A40     		eors	r2, r2, r5
 5684 3d4c DDE92B51 		ldrd	r5, r1, [sp, #172]
 5685 3d50 85EA0109 		eor	r9, r5, r1
 5686 3d54 2999     		ldr	r1, [sp, #164]
 5687 3d56 279D     		ldr	r5, [sp, #156]
 5688 3d58 0A40     		ands	r2, r2, r1
 5689 3d5a 2D99     		ldr	r1, [sp, #180]
 5690 3d5c 09EA0109 		and	r9, r9, r1
 5691 3d60 2A99     		ldr	r1, [sp, #168]
 5692 3d62 01EA050B 		and	fp, r1, r5
 5693 3d66 82EA0B02 		eor	r2, r2, fp
 5694 3d6a DDE92B15 		ldrd	r1, r5, [sp, #172]
 5695 3d6e 01EA0508 		and	r8, r1, r5
 5696 3d72 1EEB0202 		adds	r2, lr, r2
 5697 3d76 89EA0808 		eor	r8, r9, r8
 5698 3d7a 43EB0808 		adc	r8, r3, r8
 5699 3d7e 269B     		ldr	r3, [sp, #152]
 5700 3d80 2199     		ldr	r1, [sp, #132]
 5701 3d82 13EB0A0E 		adds	lr, r3, r10
 5702 3d86 289B     		ldr	r3, [sp, #160]
 5703 3d88 43EB0C09 		adc	r9, r3, ip
 5704 3d8c 1AEB0203 		adds	r3, r10, r2
 5705 3d90 2693     		str	r3, [sp, #152]
 5706 3d92 4CEB0803 		adc	r3, ip, r8
 5707 3d96 2893     		str	r3, [sp, #160]
ARM GAS  /tmp/ccxnUvyY.s 			page 101


 5708 3d98 4FEA9E32 		lsr	r2, lr, #14
 5709 3d9c 4FEA9E43 		lsr	r3, lr, #18
 5710 3da0 42EA8942 		orr	r2, r2, r9, lsl #18
 5711 3da4 43EA893B 		orr	fp, r3, r9, lsl #14
 5712 3da8 82EA0B03 		eor	r3, r2, fp
 5713 3dac 4FEA994C 		lsr	ip, r9, #18
 5714 3db0 4FEA9938 		lsr	r8, r9, #14
 5715 3db4 4FEACE52 		lsl	r2, lr, #23
 5716 3db8 48EA8E48 		orr	r8, r8, lr, lsl #18
 5717 3dbc 4CEA8E3A 		orr	r10, ip, lr, lsl #14
 5718 3dc0 42EA5922 		orr	r2, r2, r9, lsr #9
 5719 3dc4 88EA0A0C 		eor	ip, r8, r10
 5720 3dc8 5A40     		eors	r2, r2, r3
 5721 3dca 4FEAC958 		lsl	r8, r9, #23
 5722 3dce 924B     		ldr	r3, .L40+4
 5723 3dd0 48EA5E28 		orr	r8, r8, lr, lsr #9
 5724 3dd4 8CEA0808 		eor	r8, ip, r8
 5725 3dd8 CB18     		adds	r3, r1, r3
 5726 3dda DFF854C2 		ldr	ip, .L40+28
 5727 3dde 0F99     		ldr	r1, [sp, #60]
 5728 3de0 26EA0905 		bic	r5, r6, r9
 5729 3de4 4CEB010C 		adc	ip, ip, r1
 5730 3de8 2E99     		ldr	r1, [sp, #184]
 5731 3dea DB19     		adds	r3, r3, r7
 5732 3dec 41EB0C0C 		adc	ip, r1, ip
 5733 3df0 D318     		adds	r3, r2, r3
 5734 3df2 2F9A     		ldr	r2, [sp, #188]
 5735 3df4 48EB0C0C 		adc	ip, r8, ip
 5736 3df8 02EA0902 		and	r2, r2, r9
 5737 3dfc 24EA0E08 		bic	r8, r4, lr
 5738 3e00 00EA0E07 		and	r7, r0, lr
 5739 3e04 5540     		eors	r5, r5, r2
 5740 3e06 269A     		ldr	r2, [sp, #152]
 5741 3e08 88EA0707 		eor	r7, r8, r7
 5742 3e0c DB19     		adds	r3, r3, r7
 5743 3e0e 4FEA1277 		lsr	r7, r2, #28
 5744 3e12 289A     		ldr	r2, [sp, #160]
 5745 3e14 2699     		ldr	r1, [sp, #152]
 5746 3e16 47EA0217 		orr	r7, r7, r2, lsl #4
 5747 3e1a 4FEA1272 		lsr	r2, r2, #28
 5748 3e1e 42EA0112 		orr	r2, r2, r1, lsl #4
 5749 3e22 2899     		ldr	r1, [sp, #160]
 5750 3e24 4CEB050C 		adc	ip, ip, r5
 5751 3e28 8D07     		lsls	r5, r1, #30
 5752 3e2a 2699     		ldr	r1, [sp, #152]
 5753 3e2c 45EA9105 		orr	r5, r5, r1, lsr #2
 5754 3e30 4FEA8178 		lsl	r8, r1, #30
 5755 3e34 2899     		ldr	r1, [sp, #160]
 5756 3e36 6A40     		eors	r2, r2, r5
 5757 3e38 48EA9108 		orr	r8, r8, r1, lsr #2
 5758 3e3c 4D06     		lsls	r5, r1, #25
 5759 3e3e 2699     		ldr	r1, [sp, #152]
 5760 3e40 87EA0807 		eor	r7, r7, r8
 5761 3e44 45EAD115 		orr	r5, r5, r1, lsr #7
 5762 3e48 4FEA4168 		lsl	r8, r1, #25
 5763 3e4c 2899     		ldr	r1, [sp, #160]
 5764 3e4e 6A40     		eors	r2, r2, r5
ARM GAS  /tmp/ccxnUvyY.s 			page 102


 5765 3e50 48EAD118 		orr	r8, r8, r1, lsr #7
 5766 3e54 299D     		ldr	r5, [sp, #164]
 5767 3e56 2799     		ldr	r1, [sp, #156]
 5768 3e58 2E92     		str	r2, [sp, #184]
 5769 3e5a 4D40     		eors	r5, r5, r1
 5770 3e5c DDE92C12 		ldrd	r1, r2, [sp, #176]
 5771 3e60 81EA020A 		eor	r10, r1, r2
 5772 3e64 269A     		ldr	r2, [sp, #152]
 5773 3e66 2999     		ldr	r1, [sp, #164]
 5774 3e68 1540     		ands	r5, r5, r2
 5775 3e6a 289A     		ldr	r2, [sp, #160]
 5776 3e6c 87EA0807 		eor	r7, r7, r8
 5777 3e70 0AEA020A 		and	r10, r10, r2
 5778 3e74 279A     		ldr	r2, [sp, #156]
 5779 3e76 02EA010B 		and	fp, r2, r1
 5780 3e7a 85EA0B05 		eor	r5, r5, fp
 5781 3e7e DDE92C21 		ldrd	r2, r1, [sp, #176]
 5782 3e82 02EA0108 		and	r8, r2, r1
 5783 3e86 2E9A     		ldr	r2, [sp, #184]
 5784 3e88 7D19     		adds	r5, r7, r5
 5785 3e8a 8AEA0808 		eor	r8, r10, r8
 5786 3e8e 42EB080A 		adc	r10, r2, r8
 5787 3e92 2A9A     		ldr	r2, [sp, #168]
 5788 3e94 2B99     		ldr	r1, [sp, #172]
 5789 3e96 D218     		adds	r2, r2, r3
 5790 3e98 41EB0C08 		adc	r8, r1, ip
 5791 3e9c 5B19     		adds	r3, r3, r5
 5792 3e9e 2A93     		str	r3, [sp, #168]
 5793 3ea0 4CEB0A03 		adc	r3, ip, r10
 5794 3ea4 2B93     		str	r3, [sp, #172]
 5795 3ea6 4FEA9837 		lsr	r7, r8, #14
 5796 3eaa 4FEA9843 		lsr	r3, r8, #18
 5797 3eae 43EA8233 		orr	r3, r3, r2, lsl #14
 5798 3eb2 47EA8247 		orr	r7, r7, r2, lsl #18
 5799 3eb6 4FEA924C 		lsr	ip, r2, #18
 5800 3eba 950B     		lsrs	r5, r2, #14
 5801 3ebc 5F40     		eors	r7, r7, r3
 5802 3ebe 4FEAC853 		lsl	r3, r8, #23
 5803 3ec2 45EA8845 		orr	r5, r5, r8, lsl #18
 5804 3ec6 4CEA883A 		orr	r10, ip, r8, lsl #14
 5805 3eca 43EA5223 		orr	r3, r3, r2, lsr #9
 5806 3ece 85EA0A0C 		eor	ip, r5, r10
 5807 3ed2 2299     		ldr	r1, [sp, #136]
 5808 3ed4 5F40     		eors	r7, r7, r3
 5809 3ed6 D505     		lsls	r5, r2, #23
 5810 3ed8 504B     		ldr	r3, .L40+8
 5811 3eda 45EA5825 		orr	r5, r5, r8, lsr #9
 5812 3ede 8CEA0505 		eor	r5, ip, r5
 5813 3ee2 11EB030C 		adds	ip, r1, r3
 5814 3ee6 1099     		ldr	r1, [sp, #64]
 5815 3ee8 4D4B     		ldr	r3, .L40+12
 5816 3eea 43EB010A 		adc	r10, r3, r1
 5817 3eee 1CEB040C 		adds	ip, ip, r4
 5818 3ef2 46EB0A06 		adc	r6, r6, r10
 5819 3ef6 2F9B     		ldr	r3, [sp, #188]
 5820 3ef8 15EB0C0C 		adds	ip, r5, ip
 5821 3efc 47EB0606 		adc	r6, r7, r6
ARM GAS  /tmp/ccxnUvyY.s 			page 103


 5822 3f00 0EEA0204 		and	r4, lr, r2
 5823 3f04 20EA0207 		bic	r7, r0, r2
 5824 3f08 09EA0805 		and	r5, r9, r8
 5825 3f0c 7C40     		eors	r4, r4, r7
 5826 3f0e 23EA0803 		bic	r3, r3, r8
 5827 3f12 1CEB040C 		adds	ip, ip, r4
 5828 3f16 83EA0503 		eor	r3, r3, r5
 5829 3f1a 46EB0306 		adc	r6, r6, r3
 5830 3f1e 2A9B     		ldr	r3, [sp, #168]
 5831 3f20 2A99     		ldr	r1, [sp, #168]
 5832 3f22 1D0F     		lsrs	r5, r3, #28
 5833 3f24 2B9B     		ldr	r3, [sp, #172]
 5834 3f26 45EA0315 		orr	r5, r5, r3, lsl #4
 5835 3f2a 1B0F     		lsrs	r3, r3, #28
 5836 3f2c 43EA0113 		orr	r3, r3, r1, lsl #4
 5837 3f30 2B99     		ldr	r1, [sp, #172]
 5838 3f32 8C07     		lsls	r4, r1, #30
 5839 3f34 2A99     		ldr	r1, [sp, #168]
 5840 3f36 44EA9104 		orr	r4, r4, r1, lsr #2
 5841 3f3a 8F07     		lsls	r7, r1, #30
 5842 3f3c 2B99     		ldr	r1, [sp, #172]
 5843 3f3e 6340     		eors	r3, r3, r4
 5844 3f40 47EA9107 		orr	r7, r7, r1, lsr #2
 5845 3f44 4C06     		lsls	r4, r1, #25
 5846 3f46 2A99     		ldr	r1, [sp, #168]
 5847 3f48 7D40     		eors	r5, r5, r7
 5848 3f4a 44EAD114 		orr	r4, r4, r1, lsr #7
 5849 3f4e 4F06     		lsls	r7, r1, #25
 5850 3f50 2B99     		ldr	r1, [sp, #172]
 5851 3f52 6340     		eors	r3, r3, r4
 5852 3f54 47EAD117 		orr	r7, r7, r1, lsr #7
 5853 3f58 269C     		ldr	r4, [sp, #152]
 5854 3f5a 2999     		ldr	r1, [sp, #164]
 5855 3f5c 7D40     		eors	r5, r5, r7
 5856 3f5e 4C40     		eors	r4, r4, r1
 5857 3f60 289F     		ldr	r7, [sp, #160]
 5858 3f62 2D99     		ldr	r1, [sp, #180]
 5859 3f64 81EA070A 		eor	r10, r1, r7
 5860 3f68 2A99     		ldr	r1, [sp, #168]
 5861 3f6a 269F     		ldr	r7, [sp, #152]
 5862 3f6c 0C40     		ands	r4, r4, r1
 5863 3f6e 2B99     		ldr	r1, [sp, #172]
 5864 3f70 0AEA010A 		and	r10, r10, r1
 5865 3f74 2999     		ldr	r1, [sp, #164]
 5866 3f76 01EA070B 		and	fp, r1, r7
 5867 3f7a 2D99     		ldr	r1, [sp, #180]
 5868 3f7c 289F     		ldr	r7, [sp, #160]
 5869 3f7e 84EA0B04 		eor	r4, r4, fp
 5870 3f82 0F40     		ands	r7, r7, r1
 5871 3f84 2C19     		adds	r4, r5, r4
 5872 3f86 8AEA0707 		eor	r7, r10, r7
 5873 3f8a 43EB0707 		adc	r7, r3, r7
 5874 3f8e 279B     		ldr	r3, [sp, #156]
 5875 3f90 2C99     		ldr	r1, [sp, #176]
 5876 3f92 13EB0C03 		adds	r3, r3, ip
 5877 3f96 41EB060A 		adc	r10, r1, r6
 5878 3f9a 1CEB0401 		adds	r1, ip, r4
ARM GAS  /tmp/ccxnUvyY.s 			page 104


 5879 3f9e 2791     		str	r1, [sp, #156]
 5880 3fa0 4FEA9345 		lsr	r5, r3, #18
 5881 3fa4 46EB0701 		adc	r1, r6, r7
 5882 3fa8 4FEA9A4C 		lsr	ip, r10, #18
 5883 3fac 9F0B     		lsrs	r7, r3, #14
 5884 3fae 4FEA9A3B 		lsr	fp, r10, #14
 5885 3fb2 47EA8A47 		orr	r7, r7, r10, lsl #18
 5886 3fb6 4BEA834B 		orr	fp, fp, r3, lsl #18
 5887 3fba 45EA8A36 		orr	r6, r5, r10, lsl #14
 5888 3fbe 4CEA8334 		orr	r4, ip, r3, lsl #14
 5889 3fc2 2C91     		str	r1, [sp, #176]
 5890 3fc4 87EA0605 		eor	r5, r7, r6
 5891 3fc8 8BEA040C 		eor	ip, fp, r4
 5892 3fcc 2399     		ldr	r1, [sp, #140]
 5893 3fce DF05     		lsls	r7, r3, #23
 5894 3fd0 144C     		ldr	r4, .L40+16
 5895 3fd2 47EA5A27 		orr	r7, r7, r10, lsr #9
 5896 3fd6 0C19     		adds	r4, r1, r4
 5897 3fd8 87EA0507 		eor	r7, r7, r5
 5898 3fdc 1199     		ldr	r1, [sp, #68]
 5899 3fde 124D     		ldr	r5, .L40+20
 5900 3fe0 4FEACA5B 		lsl	fp, r10, #23
 5901 3fe4 4BEA532B 		orr	fp, fp, r3, lsr #9
 5902 3fe8 8CEA0B0B 		eor	fp, ip, fp
 5903 3fec 45EB010C 		adc	ip, r5, r1
 5904 3ff0 2F99     		ldr	r1, [sp, #188]
 5905 3ff2 2518     		adds	r5, r4, r0
 5906 3ff4 2EEA0306 		bic	r6, lr, r3
 5907 3ff8 02EA0300 		and	r0, r2, r3
 5908 3ffc 08EA0A04 		and	r4, r8, r10
 5909 4000 41EB0C0C 		adc	ip, r1, ip
 5910 4004 7040     		eors	r0, r0, r6
 5911 4006 7D19     		adds	r5, r7, r5
 5912 4008 29EA0A01 		bic	r1, r9, r10
 5913 400c 4BEB0C0C 		adc	ip, fp, ip
 5914 4010 10E0     		b	.L41
 5915              	.L42:
 5916 4012 00BF     		.align	2
 5917              	.L40:
 5918 4014 6403F14C 		.word	1290863460
 5919 4018 013042BC 		.word	-1136513023
 5920 401c 9197F8D0 		.word	-789014639
 5921 4020 708B4BC2 		.word	-1035236496
 5922 4024 30BE5406 		.word	106217008
 5923 4028 A3516CC7 		.word	-949202525
 5924 402c A1E8BFA2 		.word	-1564481375
 5925 4030 4B661AA8 		.word	-1474664885
 5926              	.L41:
 5927 4034 6140     		eors	r1, r1, r4
 5928 4036 2D18     		adds	r5, r5, r0
 5929 4038 4CEB010C 		adc	ip, ip, r1
 5930 403c 2799     		ldr	r1, [sp, #156]
 5931 403e 2798     		ldr	r0, [sp, #156]
 5932 4040 0C0F     		lsrs	r4, r1, #28
 5933 4042 2C99     		ldr	r1, [sp, #176]
 5934 4044 279E     		ldr	r6, [sp, #156]
 5935 4046 44EA0114 		orr	r4, r4, r1, lsl #4
ARM GAS  /tmp/ccxnUvyY.s 			page 105


 5936 404a 090F     		lsrs	r1, r1, #28
 5937 404c 41EA0011 		orr	r1, r1, r0, lsl #4
 5938 4050 2C98     		ldr	r0, [sp, #176]
 5939 4052 2C9F     		ldr	r7, [sp, #176]
 5940 4054 8007     		lsls	r0, r0, #30
 5941 4056 40EA9600 		orr	r0, r0, r6, lsr #2
 5942 405a B607     		lsls	r6, r6, #30
 5943 405c 46EA9706 		orr	r6, r6, r7, lsr #2
 5944 4060 7440     		eors	r4, r4, r6
 5945 4062 279E     		ldr	r6, [sp, #156]
 5946 4064 4140     		eors	r1, r1, r0
 5947 4066 7806     		lsls	r0, r7, #25
 5948 4068 40EAD610 		orr	r0, r0, r6, lsr #7
 5949 406c 7606     		lsls	r6, r6, #25
 5950 406e 46EAD716 		orr	r6, r6, r7, lsr #7
 5951 4072 7440     		eors	r4, r4, r6
 5952 4074 4140     		eors	r1, r1, r0
 5953 4076 2A9E     		ldr	r6, [sp, #168]
 5954 4078 2698     		ldr	r0, [sp, #152]
 5955 407a 2B9F     		ldr	r7, [sp, #172]
 5956 407c 7040     		eors	r0, r0, r6
 5957 407e 289E     		ldr	r6, [sp, #160]
 5958 4080 2E91     		str	r1, [sp, #184]
 5959 4082 7740     		eors	r7, r7, r6
 5960 4084 279E     		ldr	r6, [sp, #156]
 5961 4086 2A99     		ldr	r1, [sp, #168]
 5962 4088 3040     		ands	r0, r0, r6
 5963 408a 2C9E     		ldr	r6, [sp, #176]
 5964 408c 3740     		ands	r7, r7, r6
 5965 408e 269E     		ldr	r6, [sp, #152]
 5966 4090 06EA010B 		and	fp, r6, r1
 5967 4094 2899     		ldr	r1, [sp, #160]
 5968 4096 2B9E     		ldr	r6, [sp, #172]
 5969 4098 80EA0B00 		eor	r0, r0, fp
 5970 409c 0E40     		ands	r6, r6, r1
 5971 409e 2E99     		ldr	r1, [sp, #184]
 5972 40a0 2018     		adds	r0, r4, r0
 5973 40a2 86EA0706 		eor	r6, r6, r7
 5974 40a6 41EB0606 		adc	r6, r1, r6
 5975 40aa 2999     		ldr	r1, [sp, #164]
 5976 40ac 11EB050B 		adds	fp, r1, r5
 5977 40b0 2D99     		ldr	r1, [sp, #180]
 5978 40b2 4FEA9B44 		lsr	r4, fp, #18
 5979 40b6 41EB0C01 		adc	r1, r1, ip
 5980 40ba 2D91     		str	r1, [sp, #180]
 5981 40bc 2918     		adds	r1, r5, r0
 5982 40be 2991     		str	r1, [sp, #164]
 5983 40c0 2D99     		ldr	r1, [sp, #180]
 5984 40c2 4FEA9B35 		lsr	r5, fp, #14
 5985 40c6 4CEB0607 		adc	r7, ip, r6
 5986 40ca 45EA8145 		orr	r5, r5, r1, lsl #18
 5987 40ce 44EA8130 		orr	r0, r4, r1, lsl #14
 5988 40d2 4FEA913C 		lsr	ip, r1, #14
 5989 40d6 890C     		lsrs	r1, r1, #18
 5990 40d8 41EA8B31 		orr	r1, r1, fp, lsl #14
 5991 40dc 4CEA8B4C 		orr	ip, ip, fp, lsl #18
 5992 40e0 8CEA010C 		eor	ip, ip, r1
ARM GAS  /tmp/ccxnUvyY.s 			page 106


 5993 40e4 2D99     		ldr	r1, [sp, #180]
 5994 40e6 85EA0004 		eor	r4, r5, r0
 5995 40ea 2D98     		ldr	r0, [sp, #180]
 5996 40ec 4FEACB55 		lsl	r5, fp, #23
 5997 40f0 C905     		lsls	r1, r1, #23
 5998 40f2 41EA5B21 		orr	r1, r1, fp, lsr #9
 5999 40f6 45EA5025 		orr	r5, r5, r0, lsr #9
 6000 40fa 6540     		eors	r5, r5, r4
 6001 40fc 8CEA010C 		eor	ip, ip, r1
 6002 4100 CD4C     		ldr	r4, .L43
 6003 4102 2499     		ldr	r1, [sp, #144]
 6004 4104 CD4E     		ldr	r6, .L43+4
 6005 4106 0C19     		adds	r4, r1, r4
 6006 4108 1299     		ldr	r1, [sp, #72]
 6007 410a 46EB0106 		adc	r6, r6, r1
 6008 410e 14EB0E04 		adds	r4, r4, lr
 6009 4112 49EB0609 		adc	r9, r9, r6
 6010 4116 03EA0B0E 		and	lr, r3, fp
 6011 411a 2C19     		adds	r4, r5, r4
 6012 411c 22EA0B05 		bic	r5, r2, fp
 6013 4120 28EA0001 		bic	r1, r8, r0
 6014 4124 85EA0E0E 		eor	lr, r5, lr
 6015 4128 0AEA0000 		and	r0, r10, r0
 6016 412c 299D     		ldr	r5, [sp, #164]
 6017 412e 4CEB0909 		adc	r9, ip, r9
 6018 4132 4140     		eors	r1, r1, r0
 6019 4134 14EB0E04 		adds	r4, r4, lr
 6020 4138 49EB0109 		adc	r9, r9, r1
 6021 413c 299E     		ldr	r6, [sp, #164]
 6022 413e 2999     		ldr	r1, [sp, #164]
 6023 4140 380F     		lsrs	r0, r7, #28
 6024 4142 40EA0510 		orr	r0, r0, r5, lsl #4
 6025 4146 BD07     		lsls	r5, r7, #30
 6026 4148 45EA9605 		orr	r5, r5, r6, lsr #2
 6027 414c 090F     		lsrs	r1, r1, #28
 6028 414e B607     		lsls	r6, r6, #30
 6029 4150 46EA9706 		orr	r6, r6, r7, lsr #2
 6030 4154 41EA0711 		orr	r1, r1, r7, lsl #4
 6031 4158 7140     		eors	r1, r1, r6
 6032 415a 299E     		ldr	r6, [sp, #164]
 6033 415c 6840     		eors	r0, r0, r5
 6034 415e 7D06     		lsls	r5, r7, #25
 6035 4160 45EAD615 		orr	r5, r5, r6, lsr #7
 6036 4164 7606     		lsls	r6, r6, #25
 6037 4166 46EAD716 		orr	r6, r6, r7, lsr #7
 6038 416a 7140     		eors	r1, r1, r6
 6039 416c 2E91     		str	r1, [sp, #184]
 6040 416e 279E     		ldr	r6, [sp, #156]
 6041 4170 80EA0501 		eor	r1, r0, r5
 6042 4174 2A9D     		ldr	r5, [sp, #168]
 6043 4176 2F91     		str	r1, [sp, #188]
 6044 4178 7540     		eors	r5, r5, r6
 6045 417a DDE92B61 		ldrd	r6, r1, [sp, #172]
 6046 417e 4E40     		eors	r6, r6, r1
 6047 4180 2999     		ldr	r1, [sp, #164]
 6048 4182 2798     		ldr	r0, [sp, #156]
 6049 4184 0D40     		ands	r5, r5, r1
ARM GAS  /tmp/ccxnUvyY.s 			page 107


 6050 4186 2A99     		ldr	r1, [sp, #168]
 6051 4188 3E40     		ands	r6, r6, r7
 6052 418a 01EA000E 		and	lr, r1, r0
 6053 418e DDE92B10 		ldrd	r1, r0, [sp, #172]
 6054 4192 01EA000C 		and	ip, r1, r0
 6055 4196 2E99     		ldr	r1, [sp, #184]
 6056 4198 85EA0E05 		eor	r5, r5, lr
 6057 419c 4D19     		adds	r5, r1, r5
 6058 419e 2F99     		ldr	r1, [sp, #188]
 6059 41a0 86EA0C06 		eor	r6, r6, ip
 6060 41a4 41EB0606 		adc	r6, r1, r6
 6061 41a8 2699     		ldr	r1, [sp, #152]
 6062 41aa 0919     		adds	r1, r1, r4
 6063 41ac 2E91     		str	r1, [sp, #184]
 6064 41ae 2899     		ldr	r1, [sp, #160]
 6065 41b0 41EB0901 		adc	r1, r1, r9
 6066 41b4 2F91     		str	r1, [sp, #188]
 6067 41b6 6119     		adds	r1, r4, r5
 6068 41b8 2691     		str	r1, [sp, #152]
 6069 41ba 2E99     		ldr	r1, [sp, #184]
 6070 41bc 2E9C     		ldr	r4, [sp, #184]
 6071 41be 4FEA913C 		lsr	ip, r1, #14
 6072 41c2 2F99     		ldr	r1, [sp, #188]
 6073 41c4 49EB0609 		adc	r9, r9, r6
 6074 41c8 4CEA814C 		orr	ip, ip, r1, lsl #18
 6075 41cc 4FEA913E 		lsr	lr, r1, #14
 6076 41d0 2E99     		ldr	r1, [sp, #184]
 6077 41d2 9B4E     		ldr	r6, .L43+8
 6078 41d4 4EEA814E 		orr	lr, lr, r1, lsl #18
 6079 41d8 880C     		lsrs	r0, r1, #18
 6080 41da 2F99     		ldr	r1, [sp, #188]
 6081 41dc 40EA8130 		orr	r0, r0, r1, lsl #14
 6082 41e0 890C     		lsrs	r1, r1, #18
 6083 41e2 41EA8431 		orr	r1, r1, r4, lsl #14
 6084 41e6 8EEA010E 		eor	lr, lr, r1
 6085 41ea 2F99     		ldr	r1, [sp, #188]
 6086 41ec 8CEA000C 		eor	ip, ip, r0
 6087 41f0 C905     		lsls	r1, r1, #23
 6088 41f2 41EA5421 		orr	r1, r1, r4, lsr #9
 6089 41f6 E005     		lsls	r0, r4, #23
 6090 41f8 2F9C     		ldr	r4, [sp, #188]
 6091 41fa 8EEA010E 		eor	lr, lr, r1
 6092 41fe 40EA5420 		orr	r0, r0, r4, lsr #9
 6093 4202 2599     		ldr	r1, [sp, #148]
 6094 4204 8CEA000C 		eor	ip, ip, r0
 6095 4208 8E48     		ldr	r0, .L43+12
 6096 420a 0818     		adds	r0, r1, r0
 6097 420c 1399     		ldr	r1, [sp, #76]
 6098 420e 46EB0106 		adc	r6, r6, r1
 6099 4212 2E99     		ldr	r1, [sp, #184]
 6100 4214 8218     		adds	r2, r0, r2
 6101 4216 23EA0105 		bic	r5, r3, r1
 6102 421a 2E99     		ldr	r1, [sp, #184]
 6103 421c 48EB0608 		adc	r8, r8, r6
 6104 4220 2AEA0400 		bic	r0, r10, r4
 6105 4224 2F9E     		ldr	r6, [sp, #188]
 6106 4226 2D9C     		ldr	r4, [sp, #180]
ARM GAS  /tmp/ccxnUvyY.s 			page 108


 6107 4228 0BEA0101 		and	r1, fp, r1
 6108 422c 1CEB0202 		adds	r2, ip, r2
 6109 4230 04EA0604 		and	r4, r4, r6
 6110 4234 81EA0501 		eor	r1, r1, r5
 6111 4238 4EEB0808 		adc	r8, lr, r8
 6112 423c 6040     		eors	r0, r0, r4
 6113 423e 5218     		adds	r2, r2, r1
 6114 4240 269C     		ldr	r4, [sp, #152]
 6115 4242 48EB0008 		adc	r8, r8, r0
 6116 4246 269D     		ldr	r5, [sp, #152]
 6117 4248 2699     		ldr	r1, [sp, #152]
 6118 424a 4FEA1970 		lsr	r0, r9, #28
 6119 424e 40EA0410 		orr	r0, r0, r4, lsl #4
 6120 4252 4FEA8974 		lsl	r4, r9, #30
 6121 4256 44EA9504 		orr	r4, r4, r5, lsr #2
 6122 425a 090F     		lsrs	r1, r1, #28
 6123 425c AD07     		lsls	r5, r5, #30
 6124 425e 45EA9905 		orr	r5, r5, r9, lsr #2
 6125 4262 41EA0911 		orr	r1, r1, r9, lsl #4
 6126 4266 6940     		eors	r1, r1, r5
 6127 4268 269D     		ldr	r5, [sp, #152]
 6128 426a 6040     		eors	r0, r0, r4
 6129 426c 4FEA4964 		lsl	r4, r9, #25
 6130 4270 44EAD514 		orr	r4, r4, r5, lsr #7
 6131 4274 6D06     		lsls	r5, r5, #25
 6132 4276 45EAD915 		orr	r5, r5, r9, lsr #7
 6133 427a 81EA050E 		eor	lr, r1, r5
 6134 427e 6040     		eors	r0, r0, r4
 6135 4280 299D     		ldr	r5, [sp, #164]
 6136 4282 279C     		ldr	r4, [sp, #156]
 6137 4284 269E     		ldr	r6, [sp, #152]
 6138 4286 6C40     		eors	r4, r4, r5
 6139 4288 2999     		ldr	r1, [sp, #164]
 6140 428a 3440     		ands	r4, r4, r6
 6141 428c 279E     		ldr	r6, [sp, #156]
 6142 428e 2C9D     		ldr	r5, [sp, #176]
 6143 4290 06EA010C 		and	ip, r6, r1
 6144 4294 2C99     		ldr	r1, [sp, #176]
 6145 4296 7D40     		eors	r5, r5, r7
 6146 4298 01EA0706 		and	r6, r1, r7
 6147 429c 05EA0905 		and	r5, r5, r9
 6148 42a0 2A99     		ldr	r1, [sp, #168]
 6149 42a2 84EA0C04 		eor	r4, r4, ip
 6150 42a6 1EEB0404 		adds	r4, lr, r4
 6151 42aa 85EA0605 		eor	r5, r5, r6
 6152 42ae 40EB0505 		adc	r5, r0, r5
 6153 42b2 8918     		adds	r1, r1, r2
 6154 42b4 2A91     		str	r1, [sp, #168]
 6155 42b6 2B99     		ldr	r1, [sp, #172]
 6156 42b8 41EB0801 		adc	r1, r1, r8
 6157 42bc 12EB040E 		adds	lr, r2, r4
 6158 42c0 2A9A     		ldr	r2, [sp, #168]
 6159 42c2 48EB0508 		adc	r8, r8, r5
 6160 42c6 950B     		lsrs	r5, r2, #14
 6161 42c8 2A9A     		ldr	r2, [sp, #168]
 6162 42ca 2B91     		str	r1, [sp, #172]
 6163 42cc 4FEA913C 		lsr	ip, r1, #14
ARM GAS  /tmp/ccxnUvyY.s 			page 109


 6164 42d0 45EA8145 		orr	r5, r5, r1, lsl #18
 6165 42d4 4CEA824C 		orr	ip, ip, r2, lsl #18
 6166 42d8 910C     		lsrs	r1, r2, #18
 6167 42da 2B9A     		ldr	r2, [sp, #172]
 6168 42dc 41EA8230 		orr	r0, r1, r2, lsl #14
 6169 42e0 2A99     		ldr	r1, [sp, #168]
 6170 42e2 920C     		lsrs	r2, r2, #18
 6171 42e4 42EA8132 		orr	r2, r2, r1, lsl #14
 6172 42e8 8CEA020C 		eor	ip, ip, r2
 6173 42ec 2B9A     		ldr	r2, [sp, #172]
 6174 42ee 85EA0001 		eor	r1, r5, r0
 6175 42f2 2A98     		ldr	r0, [sp, #168]
 6176 42f4 D205     		lsls	r2, r2, #23
 6177 42f6 42EA5022 		orr	r2, r2, r0, lsr #9
 6178 42fa C505     		lsls	r5, r0, #23
 6179 42fc 2B98     		ldr	r0, [sp, #172]
 6180 42fe 8CEA020C 		eor	ip, ip, r2
 6181 4302 45EA5025 		orr	r5, r5, r0, lsr #9
 6182 4306 169A     		ldr	r2, [sp, #88]
 6183 4308 4D40     		eors	r5, r5, r1
 6184 430a 4F49     		ldr	r1, .L43+16
 6185 430c 0298     		ldr	r0, [sp, #8]
 6186 430e 5118     		adds	r1, r2, r1
 6187 4310 4E4A     		ldr	r2, .L43+20
 6188 4312 42EB0002 		adc	r2, r2, r0
 6189 4316 C918     		adds	r1, r1, r3
 6190 4318 2A9B     		ldr	r3, [sp, #168]
 6191 431a 4AEB020A 		adc	r10, r10, r2
 6192 431e 2BEA0304 		bic	r4, fp, r3
 6193 4322 2B9A     		ldr	r2, [sp, #172]
 6194 4324 2D9B     		ldr	r3, [sp, #180]
 6195 4326 2A98     		ldr	r0, [sp, #168]
 6196 4328 23EA0202 		bic	r2, r3, r2
 6197 432c 2E9B     		ldr	r3, [sp, #184]
 6198 432e 6918     		adds	r1, r5, r1
 6199 4330 03EA0003 		and	r3, r3, r0
 6200 4334 2B9D     		ldr	r5, [sp, #172]
 6201 4336 2F98     		ldr	r0, [sp, #188]
 6202 4338 83EA0403 		eor	r3, r3, r4
 6203 433c 00EA0500 		and	r0, r0, r5
 6204 4340 4CEB0A0A 		adc	r10, ip, r10
 6205 4344 4240     		eors	r2, r2, r0
 6206 4346 C918     		adds	r1, r1, r3
 6207 4348 4AEB020A 		adc	r10, r10, r2
 6208 434c 4FEA1E73 		lsr	r3, lr, #28
 6209 4350 4FEA1872 		lsr	r2, r8, #28
 6210 4354 4FEA8870 		lsl	r0, r8, #30
 6211 4358 4FEA8E74 		lsl	r4, lr, #30
 6212 435c 40EA9E00 		orr	r0, r0, lr, lsr #2
 6213 4360 44EA9804 		orr	r4, r4, r8, lsr #2
 6214 4364 43EA0813 		orr	r3, r3, r8, lsl #4
 6215 4368 42EA0E12 		orr	r2, r2, lr, lsl #4
 6216 436c 6340     		eors	r3, r3, r4
 6217 436e 4240     		eors	r2, r2, r0
 6218 4370 4FEA4E64 		lsl	r4, lr, #25
 6219 4374 4FEA4860 		lsl	r0, r8, #25
 6220 4378 40EADE10 		orr	r0, r0, lr, lsr #7
ARM GAS  /tmp/ccxnUvyY.s 			page 110


 6221 437c 44EAD814 		orr	r4, r4, r8, lsr #7
 6222 4380 6340     		eors	r3, r3, r4
 6223 4382 4240     		eors	r2, r2, r0
 6224 4384 269C     		ldr	r4, [sp, #152]
 6225 4386 2998     		ldr	r0, [sp, #164]
 6226 4388 299D     		ldr	r5, [sp, #164]
 6227 438a 269E     		ldr	r6, [sp, #152]
 6228 438c 6040     		eors	r0, r0, r4
 6229 438e 2E40     		ands	r6, r6, r5
 6230 4390 00EA0E00 		and	r0, r0, lr
 6231 4394 87EA0904 		eor	r4, r7, r9
 6232 4398 7040     		eors	r0, r0, r6
 6233 439a 1818     		adds	r0, r3, r0
 6234 439c 07EA0905 		and	r5, r7, r9
 6235 43a0 279B     		ldr	r3, [sp, #156]
 6236 43a2 04EA0804 		and	r4, r4, r8
 6237 43a6 84EA0504 		eor	r4, r4, r5
 6238 43aa 42EB0404 		adc	r4, r2, r4
 6239 43ae 5B18     		adds	r3, r3, r1
 6240 43b0 3093     		str	r3, [sp, #192]
 6241 43b2 2C9B     		ldr	r3, [sp, #176]
 6242 43b4 43EB0A03 		adc	r3, r3, r10
 6243 43b8 2C93     		str	r3, [sp, #176]
 6244 43ba 0B18     		adds	r3, r1, r0
 6245 43bc 2793     		str	r3, [sp, #156]
 6246 43be 4AEB0403 		adc	r3, r10, r4
 6247 43c2 2893     		str	r3, [sp, #160]
 6248 43c4 309B     		ldr	r3, [sp, #192]
 6249 43c6 0399     		ldr	r1, [sp, #12]
 6250 43c8 9C0B     		lsrs	r4, r3, #14
 6251 43ca 2C9B     		ldr	r3, [sp, #176]
 6252 43cc 44EA8344 		orr	r4, r4, r3, lsl #18
 6253 43d0 9D0B     		lsrs	r5, r3, #14
 6254 43d2 309B     		ldr	r3, [sp, #192]
 6255 43d4 45EA8345 		orr	r5, r5, r3, lsl #18
 6256 43d8 9A0C     		lsrs	r2, r3, #18
 6257 43da 2C9B     		ldr	r3, [sp, #176]
 6258 43dc 42EA8332 		orr	r2, r2, r3, lsl #14
 6259 43e0 4FEA934A 		lsr	r10, r3, #18
 6260 43e4 309B     		ldr	r3, [sp, #192]
 6261 43e6 5440     		eors	r4, r4, r2
 6262 43e8 4AEA8333 		orr	r3, r10, r3, lsl #14
 6263 43ec 85EA030A 		eor	r10, r5, r3
 6264 43f0 2C9B     		ldr	r3, [sp, #176]
 6265 43f2 2C9A     		ldr	r2, [sp, #176]
 6266 43f4 DD05     		lsls	r5, r3, #23
 6267 43f6 309B     		ldr	r3, [sp, #192]
 6268 43f8 45EA5325 		orr	r5, r5, r3, lsr #9
 6269 43fc DB05     		lsls	r3, r3, #23
 6270 43fe 43EA5223 		orr	r3, r3, r2, lsr #9
 6271 4402 5C40     		eors	r4, r4, r3
 6272 4404 124A     		ldr	r2, .L43+24
 6273 4406 179B     		ldr	r3, [sp, #92]
 6274 4408 8AEA0505 		eor	r5, r10, r5
 6275 440c 9A18     		adds	r2, r3, r2
 6276 440e 114B     		ldr	r3, .L43+28
 6277 4410 43EB010A 		adc	r10, r3, r1
ARM GAS  /tmp/ccxnUvyY.s 			page 111


 6278 4414 2D9B     		ldr	r3, [sp, #180]
 6279 4416 12EB0B0B 		adds	fp, r2, fp
 6280 441a 43EB0A0A 		adc	r10, r3, r10
 6281 441e 309A     		ldr	r2, [sp, #192]
 6282 4420 2E9B     		ldr	r3, [sp, #184]
 6283 4422 14EB0B0B 		adds	fp, r4, fp
 6284 4426 23EA0200 		bic	r0, r3, r2
 6285 442a 2F9B     		ldr	r3, [sp, #188]
 6286 442c 2C9A     		ldr	r2, [sp, #176]
 6287 442e 45EB0A0A 		adc	r10, r5, r10
 6288 4432 23EA0202 		bic	r2, r3, r2
 6289 4436 0FE0     		b	.L44
 6290              	.L45:
 6291              		.align	2
 6292              	.L43:
 6293 4438 1852EFD6 		.word	-688958952
 6294 443c 19E892D1 		.word	-778901479
 6295 4440 240699D6 		.word	-694614492
 6296 4444 10A96555 		.word	1432725776
 6297 4448 2A207157 		.word	1467031594
 6298 444c 85350EF4 		.word	-200395387
 6299 4450 B8D1BB32 		.word	851169720
 6300 4454 70A06A10 		.word	275423344
 6301              	.L44:
 6302 4458 2A9B     		ldr	r3, [sp, #168]
 6303 445a 3099     		ldr	r1, [sp, #192]
 6304 445c 0B40     		ands	r3, r3, r1
 6305 445e 4340     		eors	r3, r3, r0
 6306 4460 1BEB030B 		adds	fp, fp, r3
 6307 4464 279B     		ldr	r3, [sp, #156]
 6308 4466 DDE92B14 		ldrd	r1, r4, [sp, #172]
 6309 446a 01EA0401 		and	r1, r1, r4
 6310 446e 82EA0102 		eor	r2, r2, r1
 6311 4472 4FEA1371 		lsr	r1, r3, #28
 6312 4476 289B     		ldr	r3, [sp, #160]
 6313 4478 4AEB020A 		adc	r10, r10, r2
 6314 447c 279A     		ldr	r2, [sp, #156]
 6315 447e 41EA0311 		orr	r1, r1, r3, lsl #4
 6316 4482 1B0F     		lsrs	r3, r3, #28
 6317 4484 43EA0213 		orr	r3, r3, r2, lsl #4
 6318 4488 289A     		ldr	r2, [sp, #160]
 6319 448a 2798     		ldr	r0, [sp, #156]
 6320 448c 289C     		ldr	r4, [sp, #160]
 6321 448e 9207     		lsls	r2, r2, #30
 6322 4490 42EA9002 		orr	r2, r2, r0, lsr #2
 6323 4494 8007     		lsls	r0, r0, #30
 6324 4496 40EA9400 		orr	r0, r0, r4, lsr #2
 6325 449a 4140     		eors	r1, r1, r0
 6326 449c 2798     		ldr	r0, [sp, #156]
 6327 449e 5340     		eors	r3, r3, r2
 6328 44a0 6206     		lsls	r2, r4, #25
 6329 44a2 42EAD012 		orr	r2, r2, r0, lsr #7
 6330 44a6 5340     		eors	r3, r3, r2
 6331 44a8 4006     		lsls	r0, r0, #25
 6332 44aa 269A     		ldr	r2, [sp, #152]
 6333 44ac 40EAD410 		orr	r0, r0, r4, lsr #7
 6334 44b0 279C     		ldr	r4, [sp, #156]
ARM GAS  /tmp/ccxnUvyY.s 			page 112


 6335 44b2 82EA0E02 		eor	r2, r2, lr
 6336 44b6 2240     		ands	r2, r2, r4
 6337 44b8 289C     		ldr	r4, [sp, #160]
 6338 44ba 4140     		eors	r1, r1, r0
 6339 44bc 89EA0800 		eor	r0, r9, r8
 6340 44c0 2040     		ands	r0, r0, r4
 6341 44c2 269C     		ldr	r4, [sp, #152]
 6342 44c4 04EA0E05 		and	r5, r4, lr
 6343 44c8 6A40     		eors	r2, r2, r5
 6344 44ca 09EA0804 		and	r4, r9, r8
 6345 44ce 8A18     		adds	r2, r1, r2
 6346 44d0 84EA0004 		eor	r4, r4, r0
 6347 44d4 43EB0404 		adc	r4, r3, r4
 6348 44d8 299B     		ldr	r3, [sp, #164]
 6349 44da 1999     		ldr	r1, [sp, #100]
 6350 44dc 13EB0B03 		adds	r3, r3, fp
 6351 44e0 2D93     		str	r3, [sp, #180]
 6352 44e2 47EB0A03 		adc	r3, r7, r10
 6353 44e6 1BEB020B 		adds	fp, fp, r2
 6354 44ea 3193     		str	r3, [sp, #196]
 6355 44ec 4AEB0403 		adc	r3, r10, r4
 6356 44f0 2993     		str	r3, [sp, #164]
 6357 44f2 199B     		ldr	r3, [sp, #100]
 6358 44f4 0798     		ldr	r0, [sp, #28]
 6359 44f6 5A08     		lsrs	r2, r3, #1
 6360 44f8 079B     		ldr	r3, [sp, #28]
 6361 44fa 060A     		lsrs	r6, r0, #8
 6362 44fc 42EAC372 		orr	r2, r2, r3, lsl #31
 6363 4500 5B08     		lsrs	r3, r3, #1
 6364 4502 43EAC173 		orr	r3, r3, r1, lsl #31
 6365 4506 090A     		lsrs	r1, r1, #8
 6366 4508 41EA0061 		orr	r1, r1, r0, lsl #24
 6367 450c 1998     		ldr	r0, [sp, #100]
 6368 450e 5140     		eors	r1, r1, r2
 6369 4510 46EA0066 		orr	r6, r6, r0, lsl #24
 6370 4514 5E40     		eors	r6, r6, r3
 6371 4516 079B     		ldr	r3, [sp, #28]
 6372 4518 C209     		lsrs	r2, r0, #7
 6373 451a 42EA4362 		orr	r2, r2, r3, lsl #25
 6374 451e 86EAD316 		eor	r6, r6, r3, lsr #7
 6375 4522 189B     		ldr	r3, [sp, #96]
 6376 4524 5140     		eors	r1, r1, r2
 6377 4526 C918     		adds	r1, r1, r3
 6378 4528 069B     		ldr	r3, [sp, #24]
 6379 452a 169A     		ldr	r2, [sp, #88]
 6380 452c 43EB0606 		adc	r6, r3, r6
 6381 4530 219B     		ldr	r3, [sp, #132]
 6382 4532 C918     		adds	r1, r1, r3
 6383 4534 0F9B     		ldr	r3, [sp, #60]
 6384 4536 43EB0606 		adc	r6, r3, r6
 6385 453a 169B     		ldr	r3, [sp, #88]
 6386 453c DC0C     		lsrs	r4, r3, #19
 6387 453e 029B     		ldr	r3, [sp, #8]
 6388 4540 44EA4334 		orr	r4, r4, r3, lsl #13
 6389 4544 DB0C     		lsrs	r3, r3, #19
 6390 4546 43EA4233 		orr	r3, r3, r2, lsl #13
 6391 454a 029A     		ldr	r2, [sp, #8]
ARM GAS  /tmp/ccxnUvyY.s 			page 113


 6392 454c 029D     		ldr	r5, [sp, #8]
 6393 454e D000     		lsls	r0, r2, #3
 6394 4550 169A     		ldr	r2, [sp, #88]
 6395 4552 40EA5270 		orr	r0, r0, r2, lsr #29
 6396 4556 4340     		eors	r3, r3, r0
 6397 4558 D200     		lsls	r2, r2, #3
 6398 455a 1698     		ldr	r0, [sp, #88]
 6399 455c 42EA5572 		orr	r2, r2, r5, lsr #29
 6400 4560 6240     		eors	r2, r2, r4
 6401 4562 8409     		lsrs	r4, r0, #6
 6402 4564 44EA8564 		orr	r4, r4, r5, lsl #26
 6403 4568 6240     		eors	r2, r2, r4
 6404 456a 5218     		adds	r2, r2, r1
 6405 456c 83EA9513 		eor	r3, r3, r5, lsr #6
 6406 4570 46EB0303 		adc	r3, r6, r3
 6407 4574 0693     		str	r3, [sp, #24]
 6408 4576 1A9B     		ldr	r3, [sp, #104]
 6409 4578 1892     		str	r2, [sp, #96]
 6410 457a 5A08     		lsrs	r2, r3, #1
 6411 457c 089B     		ldr	r3, [sp, #32]
 6412 457e 1A99     		ldr	r1, [sp, #104]
 6413 4580 42EAC372 		orr	r2, r2, r3, lsl #31
 6414 4584 5B08     		lsrs	r3, r3, #1
 6415 4586 43EAC173 		orr	r3, r3, r1, lsl #31
 6416 458a 0C0A     		lsrs	r4, r1, #8
 6417 458c 0899     		ldr	r1, [sp, #32]
 6418 458e 039D     		ldr	r5, [sp, #12]
 6419 4590 44EA0164 		orr	r4, r4, r1, lsl #24
 6420 4594 4FEA112A 		lsr	r10, r1, #8
 6421 4598 1A99     		ldr	r1, [sp, #104]
 6422 459a 5440     		eors	r4, r4, r2
 6423 459c 4AEA016A 		orr	r10, r10, r1, lsl #24
 6424 45a0 83EA0A0A 		eor	r10, r3, r10
 6425 45a4 089B     		ldr	r3, [sp, #32]
 6426 45a6 CA09     		lsrs	r2, r1, #7
 6427 45a8 42EA4362 		orr	r2, r2, r3, lsl #25
 6428 45ac 8AEAD31A 		eor	r10, r10, r3, lsr #7
 6429 45b0 199B     		ldr	r3, [sp, #100]
 6430 45b2 5440     		eors	r4, r4, r2
 6431 45b4 E418     		adds	r4, r4, r3
 6432 45b6 079B     		ldr	r3, [sp, #28]
 6433 45b8 179A     		ldr	r2, [sp, #92]
 6434 45ba 43EB0A0A 		adc	r10, r3, r10
 6435 45be 229B     		ldr	r3, [sp, #136]
 6436 45c0 E418     		adds	r4, r4, r3
 6437 45c2 109B     		ldr	r3, [sp, #64]
 6438 45c4 43EB0A0A 		adc	r10, r3, r10
 6439 45c8 179B     		ldr	r3, [sp, #92]
 6440 45ca D80C     		lsrs	r0, r3, #19
 6441 45cc 039B     		ldr	r3, [sp, #12]
 6442 45ce 40EA4330 		orr	r0, r0, r3, lsl #13
 6443 45d2 DB0C     		lsrs	r3, r3, #19
 6444 45d4 43EA4233 		orr	r3, r3, r2, lsl #13
 6445 45d8 039A     		ldr	r2, [sp, #12]
 6446 45da D100     		lsls	r1, r2, #3
 6447 45dc 179A     		ldr	r2, [sp, #92]
 6448 45de 41EA5271 		orr	r1, r1, r2, lsr #29
ARM GAS  /tmp/ccxnUvyY.s 			page 114


 6449 45e2 4B40     		eors	r3, r3, r1
 6450 45e4 D200     		lsls	r2, r2, #3
 6451 45e6 1799     		ldr	r1, [sp, #92]
 6452 45e8 42EA5572 		orr	r2, r2, r5, lsr #29
 6453 45ec 4240     		eors	r2, r2, r0
 6454 45ee 8809     		lsrs	r0, r1, #6
 6455 45f0 40EA8560 		orr	r0, r0, r5, lsl #26
 6456 45f4 4240     		eors	r2, r2, r0
 6457 45f6 1219     		adds	r2, r2, r4
 6458 45f8 83EA9513 		eor	r3, r3, r5, lsr #6
 6459 45fc 4AEB0303 		adc	r3, r10, r3
 6460 4600 0793     		str	r3, [sp, #28]
 6461 4602 1B9B     		ldr	r3, [sp, #108]
 6462 4604 1992     		str	r2, [sp, #100]
 6463 4606 5A08     		lsrs	r2, r3, #1
 6464 4608 099B     		ldr	r3, [sp, #36]
 6465 460a 1B99     		ldr	r1, [sp, #108]
 6466 460c 0998     		ldr	r0, [sp, #36]
 6467 460e 42EAC372 		orr	r2, r2, r3, lsl #31
 6468 4612 5B08     		lsrs	r3, r3, #1
 6469 4614 43EAC173 		orr	r3, r3, r1, lsl #31
 6470 4618 090A     		lsrs	r1, r1, #8
 6471 461a 41EA0061 		orr	r1, r1, r0, lsl #24
 6472 461e 4FEA102C 		lsr	ip, r0, #8
 6473 4622 1B98     		ldr	r0, [sp, #108]
 6474 4624 5140     		eors	r1, r1, r2
 6475 4626 4CEA006C 		orr	ip, ip, r0, lsl #24
 6476 462a 83EA0C0C 		eor	ip, r3, ip
 6477 462e 099B     		ldr	r3, [sp, #36]
 6478 4630 C209     		lsrs	r2, r0, #7
 6479 4632 42EA4362 		orr	r2, r2, r3, lsl #25
 6480 4636 8CEAD31C 		eor	ip, ip, r3, lsr #7
 6481 463a 1A9B     		ldr	r3, [sp, #104]
 6482 463c 5140     		eors	r1, r1, r2
 6483 463e C918     		adds	r1, r1, r3
 6484 4640 089B     		ldr	r3, [sp, #32]
 6485 4642 069D     		ldr	r5, [sp, #24]
 6486 4644 43EB0C0C 		adc	ip, r3, ip
 6487 4648 239B     		ldr	r3, [sp, #140]
 6488 464a 079E     		ldr	r6, [sp, #28]
 6489 464c C918     		adds	r1, r1, r3
 6490 464e 119B     		ldr	r3, [sp, #68]
 6491 4650 43EB0C0C 		adc	ip, r3, ip
 6492 4654 189B     		ldr	r3, [sp, #96]
 6493 4656 DC0C     		lsrs	r4, r3, #19
 6494 4658 069B     		ldr	r3, [sp, #24]
 6495 465a 44EA4334 		orr	r4, r4, r3, lsl #13
 6496 465e DA0C     		lsrs	r2, r3, #19
 6497 4660 189B     		ldr	r3, [sp, #96]
 6498 4662 42EA4332 		orr	r2, r2, r3, lsl #13
 6499 4666 069B     		ldr	r3, [sp, #24]
 6500 4668 D800     		lsls	r0, r3, #3
 6501 466a 189B     		ldr	r3, [sp, #96]
 6502 466c 40EA5370 		orr	r0, r0, r3, lsr #29
 6503 4670 4240     		eors	r2, r2, r0
 6504 4672 DB00     		lsls	r3, r3, #3
 6505 4674 1898     		ldr	r0, [sp, #96]
ARM GAS  /tmp/ccxnUvyY.s 			page 115


 6506 4676 43EA5573 		orr	r3, r3, r5, lsr #29
 6507 467a 6340     		eors	r3, r3, r4
 6508 467c 8409     		lsrs	r4, r0, #6
 6509 467e 44EA8564 		orr	r4, r4, r5, lsl #26
 6510 4682 6340     		eors	r3, r3, r4
 6511 4684 5B18     		adds	r3, r3, r1
 6512 4686 82EA9512 		eor	r2, r2, r5, lsr #6
 6513 468a 1A93     		str	r3, [sp, #104]
 6514 468c 4CEB0203 		adc	r3, ip, r2
 6515 4690 0893     		str	r3, [sp, #32]
 6516 4692 1C9B     		ldr	r3, [sp, #112]
 6517 4694 1C9C     		ldr	r4, [sp, #112]
 6518 4696 5908     		lsrs	r1, r3, #1
 6519 4698 0A9B     		ldr	r3, [sp, #40]
 6520 469a 41EAC371 		orr	r1, r1, r3, lsl #31
 6521 469e 5A08     		lsrs	r2, r3, #1
 6522 46a0 1C9B     		ldr	r3, [sp, #112]
 6523 46a2 42EAC372 		orr	r2, r2, r3, lsl #31
 6524 46a6 180A     		lsrs	r0, r3, #8
 6525 46a8 0A9B     		ldr	r3, [sp, #40]
 6526 46aa 40EA0360 		orr	r0, r0, r3, lsl #24
 6527 46ae 1B0A     		lsrs	r3, r3, #8
 6528 46b0 43EA0463 		orr	r3, r3, r4, lsl #24
 6529 46b4 5340     		eors	r3, r3, r2
 6530 46b6 0A9A     		ldr	r2, [sp, #40]
 6531 46b8 4840     		eors	r0, r0, r1
 6532 46ba E109     		lsrs	r1, r4, #7
 6533 46bc 41EA4261 		orr	r1, r1, r2, lsl #25
 6534 46c0 83EAD213 		eor	r3, r3, r2, lsr #7
 6535 46c4 1B9A     		ldr	r2, [sp, #108]
 6536 46c6 4840     		eors	r0, r0, r1
 6537 46c8 8018     		adds	r0, r0, r2
 6538 46ca 099A     		ldr	r2, [sp, #36]
 6539 46cc 1999     		ldr	r1, [sp, #100]
 6540 46ce 42EB0303 		adc	r3, r2, r3
 6541 46d2 249A     		ldr	r2, [sp, #144]
 6542 46d4 8018     		adds	r0, r0, r2
 6543 46d6 129A     		ldr	r2, [sp, #72]
 6544 46d8 42EB0303 		adc	r3, r2, r3
 6545 46dc 199A     		ldr	r2, [sp, #100]
 6546 46de D50C     		lsrs	r5, r2, #19
 6547 46e0 079A     		ldr	r2, [sp, #28]
 6548 46e2 45EA4235 		orr	r5, r5, r2, lsl #13
 6549 46e6 D20C     		lsrs	r2, r2, #19
 6550 46e8 42EA4132 		orr	r2, r2, r1, lsl #13
 6551 46ec 0799     		ldr	r1, [sp, #28]
 6552 46ee CC00     		lsls	r4, r1, #3
 6553 46f0 1999     		ldr	r1, [sp, #100]
 6554 46f2 44EA5174 		orr	r4, r4, r1, lsr #29
 6555 46f6 6240     		eors	r2, r2, r4
 6556 46f8 C900     		lsls	r1, r1, #3
 6557 46fa 199C     		ldr	r4, [sp, #100]
 6558 46fc 41EA5671 		orr	r1, r1, r6, lsr #29
 6559 4700 6940     		eors	r1, r1, r5
 6560 4702 A509     		lsrs	r5, r4, #6
 6561 4704 45EA8665 		orr	r5, r5, r6, lsl #26
 6562 4708 6940     		eors	r1, r1, r5
ARM GAS  /tmp/ccxnUvyY.s 			page 116


 6563 470a 0918     		adds	r1, r1, r0
 6564 470c 82EA9612 		eor	r2, r2, r6, lsr #6
 6565 4710 43EB0203 		adc	r3, r3, r2
 6566 4714 0993     		str	r3, [sp, #36]
 6567 4716 1D9B     		ldr	r3, [sp, #116]
 6568 4718 1B91     		str	r1, [sp, #108]
 6569 471a 5A08     		lsrs	r2, r3, #1
 6570 471c 0B9B     		ldr	r3, [sp, #44]
 6571 471e 1D99     		ldr	r1, [sp, #116]
 6572 4720 0B98     		ldr	r0, [sp, #44]
 6573 4722 42EAC372 		orr	r2, r2, r3, lsl #31
 6574 4726 5B08     		lsrs	r3, r3, #1
 6575 4728 43EAC173 		orr	r3, r3, r1, lsl #31
 6576 472c 090A     		lsrs	r1, r1, #8
 6577 472e 41EA0061 		orr	r1, r1, r0, lsl #24
 6578 4732 060A     		lsrs	r6, r0, #8
 6579 4734 1D98     		ldr	r0, [sp, #116]
 6580 4736 5140     		eors	r1, r1, r2
 6581 4738 46EA0066 		orr	r6, r6, r0, lsl #24
 6582 473c 5E40     		eors	r6, r6, r3
 6583 473e 0B9B     		ldr	r3, [sp, #44]
 6584 4740 C209     		lsrs	r2, r0, #7
 6585 4742 42EA4362 		orr	r2, r2, r3, lsl #25
 6586 4746 86EAD316 		eor	r6, r6, r3, lsr #7
 6587 474a 1C9B     		ldr	r3, [sp, #112]
 6588 474c 5140     		eors	r1, r1, r2
 6589 474e C918     		adds	r1, r1, r3
 6590 4750 0A9B     		ldr	r3, [sp, #40]
 6591 4752 1A9A     		ldr	r2, [sp, #104]
 6592 4754 43EB0606 		adc	r6, r3, r6
 6593 4758 259B     		ldr	r3, [sp, #148]
 6594 475a 089D     		ldr	r5, [sp, #32]
 6595 475c C918     		adds	r1, r1, r3
 6596 475e 139B     		ldr	r3, [sp, #76]
 6597 4760 43EB0606 		adc	r6, r3, r6
 6598 4764 1A9B     		ldr	r3, [sp, #104]
 6599 4766 DC0C     		lsrs	r4, r3, #19
 6600 4768 089B     		ldr	r3, [sp, #32]
 6601 476a 44EA4334 		orr	r4, r4, r3, lsl #13
 6602 476e DB0C     		lsrs	r3, r3, #19
 6603 4770 43EA4233 		orr	r3, r3, r2, lsl #13
 6604 4774 089A     		ldr	r2, [sp, #32]
 6605 4776 D000     		lsls	r0, r2, #3
 6606 4778 1A9A     		ldr	r2, [sp, #104]
 6607 477a 40EA5270 		orr	r0, r0, r2, lsr #29
 6608 477e 4340     		eors	r3, r3, r0
 6609 4780 D200     		lsls	r2, r2, #3
 6610 4782 1A98     		ldr	r0, [sp, #104]
 6611 4784 42EA5572 		orr	r2, r2, r5, lsr #29
 6612 4788 6240     		eors	r2, r2, r4
 6613 478a 8409     		lsrs	r4, r0, #6
 6614 478c 44EA8564 		orr	r4, r4, r5, lsl #26
 6615 4790 6240     		eors	r2, r2, r4
 6616 4792 5218     		adds	r2, r2, r1
 6617 4794 83EA9513 		eor	r3, r3, r5, lsr #6
 6618 4798 46EB0303 		adc	r3, r6, r3
 6619 479c 0A93     		str	r3, [sp, #40]
ARM GAS  /tmp/ccxnUvyY.s 			page 117


 6620 479e 1E9B     		ldr	r3, [sp, #120]
 6621 47a0 1C92     		str	r2, [sp, #112]
 6622 47a2 5A08     		lsrs	r2, r3, #1
 6623 47a4 0C9B     		ldr	r3, [sp, #48]
 6624 47a6 1E99     		ldr	r1, [sp, #120]
 6625 47a8 0C98     		ldr	r0, [sp, #48]
 6626 47aa 42EAC372 		orr	r2, r2, r3, lsl #31
 6627 47ae 5B08     		lsrs	r3, r3, #1
 6628 47b0 1E9C     		ldr	r4, [sp, #120]
 6629 47b2 43EAC173 		orr	r3, r3, r1, lsl #31
 6630 47b6 090A     		lsrs	r1, r1, #8
 6631 47b8 41EA0061 		orr	r1, r1, r0, lsl #24
 6632 47bc 000A     		lsrs	r0, r0, #8
 6633 47be 40EA0460 		orr	r0, r0, r4, lsl #24
 6634 47c2 5840     		eors	r0, r0, r3
 6635 47c4 0C9B     		ldr	r3, [sp, #48]
 6636 47c6 5140     		eors	r1, r1, r2
 6637 47c8 E209     		lsrs	r2, r4, #7
 6638 47ca 42EA4362 		orr	r2, r2, r3, lsl #25
 6639 47ce 80EAD310 		eor	r0, r0, r3, lsr #7
 6640 47d2 1D9B     		ldr	r3, [sp, #116]
 6641 47d4 5140     		eors	r1, r1, r2
 6642 47d6 C918     		adds	r1, r1, r3
 6643 47d8 0B9B     		ldr	r3, [sp, #44]
 6644 47da 1B9A     		ldr	r2, [sp, #108]
 6645 47dc 43EB0000 		adc	r0, r3, r0
 6646 47e0 169B     		ldr	r3, [sp, #88]
 6647 47e2 C918     		adds	r1, r1, r3
 6648 47e4 029B     		ldr	r3, [sp, #8]
 6649 47e6 43EB0000 		adc	r0, r3, r0
 6650 47ea 1B9B     		ldr	r3, [sp, #108]
 6651 47ec DD0C     		lsrs	r5, r3, #19
 6652 47ee 099B     		ldr	r3, [sp, #36]
 6653 47f0 45EA4335 		orr	r5, r5, r3, lsl #13
 6654 47f4 DB0C     		lsrs	r3, r3, #19
 6655 47f6 43EA4233 		orr	r3, r3, r2, lsl #13
 6656 47fa 099A     		ldr	r2, [sp, #36]
 6657 47fc D400     		lsls	r4, r2, #3
 6658 47fe 1B9A     		ldr	r2, [sp, #108]
 6659 4800 099E     		ldr	r6, [sp, #36]
 6660 4802 44EA5274 		orr	r4, r4, r2, lsr #29
 6661 4806 6340     		eors	r3, r3, r4
 6662 4808 D200     		lsls	r2, r2, #3
 6663 480a 1B9C     		ldr	r4, [sp, #108]
 6664 480c 42EA5672 		orr	r2, r2, r6, lsr #29
 6665 4810 6A40     		eors	r2, r2, r5
 6666 4812 A509     		lsrs	r5, r4, #6
 6667 4814 45EA8665 		orr	r5, r5, r6, lsl #26
 6668 4818 6A40     		eors	r2, r2, r5
 6669 481a 5218     		adds	r2, r2, r1
 6670 481c 83EA9613 		eor	r3, r3, r6, lsr #6
 6671 4820 40EB0303 		adc	r3, r0, r3
 6672 4824 0B93     		str	r3, [sp, #44]
 6673 4826 1F9B     		ldr	r3, [sp, #124]
 6674 4828 1D92     		str	r2, [sp, #116]
 6675 482a 5A08     		lsrs	r2, r3, #1
 6676 482c 0D9B     		ldr	r3, [sp, #52]
ARM GAS  /tmp/ccxnUvyY.s 			page 118


 6677 482e 1F99     		ldr	r1, [sp, #124]
 6678 4830 0D98     		ldr	r0, [sp, #52]
 6679 4832 42EAC372 		orr	r2, r2, r3, lsl #31
 6680 4836 5B08     		lsrs	r3, r3, #1
 6681 4838 43EAC173 		orr	r3, r3, r1, lsl #31
 6682 483c 090A     		lsrs	r1, r1, #8
 6683 483e 41EA0061 		orr	r1, r1, r0, lsl #24
 6684 4842 050A     		lsrs	r5, r0, #8
 6685 4844 1F98     		ldr	r0, [sp, #124]
 6686 4846 5140     		eors	r1, r1, r2
 6687 4848 45EA0065 		orr	r5, r5, r0, lsl #24
 6688 484c 5D40     		eors	r5, r5, r3
 6689 484e 0D9B     		ldr	r3, [sp, #52]
 6690 4850 C209     		lsrs	r2, r0, #7
 6691 4852 42EA4362 		orr	r2, r2, r3, lsl #25
 6692 4856 85EAD315 		eor	r5, r5, r3, lsr #7
 6693 485a 1E9B     		ldr	r3, [sp, #120]
 6694 485c 5140     		eors	r1, r1, r2
 6695 485e C918     		adds	r1, r1, r3
 6696 4860 0C9B     		ldr	r3, [sp, #48]
 6697 4862 1C9A     		ldr	r2, [sp, #112]
 6698 4864 43EB0505 		adc	r5, r3, r5
 6699 4868 179B     		ldr	r3, [sp, #92]
 6700 486a 0A9E     		ldr	r6, [sp, #40]
 6701 486c C918     		adds	r1, r1, r3
 6702 486e 039B     		ldr	r3, [sp, #12]
 6703 4870 43EB0505 		adc	r5, r3, r5
 6704 4874 1C9B     		ldr	r3, [sp, #112]
 6705 4876 DC0C     		lsrs	r4, r3, #19
 6706 4878 0A9B     		ldr	r3, [sp, #40]
 6707 487a 44EA4334 		orr	r4, r4, r3, lsl #13
 6708 487e DB0C     		lsrs	r3, r3, #19
 6709 4880 43EA4233 		orr	r3, r3, r2, lsl #13
 6710 4884 0A9A     		ldr	r2, [sp, #40]
 6711 4886 D000     		lsls	r0, r2, #3
 6712 4888 1C9A     		ldr	r2, [sp, #112]
 6713 488a 40EA5270 		orr	r0, r0, r2, lsr #29
 6714 488e 4340     		eors	r3, r3, r0
 6715 4890 D200     		lsls	r2, r2, #3
 6716 4892 1C98     		ldr	r0, [sp, #112]
 6717 4894 42EA5672 		orr	r2, r2, r6, lsr #29
 6718 4898 6240     		eors	r2, r2, r4
 6719 489a 8409     		lsrs	r4, r0, #6
 6720 489c 44EA8664 		orr	r4, r4, r6, lsl #26
 6721 48a0 6240     		eors	r2, r2, r4
 6722 48a2 5218     		adds	r2, r2, r1
 6723 48a4 83EA9613 		eor	r3, r3, r6, lsr #6
 6724 48a8 45EB0303 		adc	r3, r5, r3
 6725 48ac 0C93     		str	r3, [sp, #48]
 6726 48ae 209B     		ldr	r3, [sp, #128]
 6727 48b0 1E92     		str	r2, [sp, #120]
 6728 48b2 5A08     		lsrs	r2, r3, #1
 6729 48b4 0E9B     		ldr	r3, [sp, #56]
 6730 48b6 2099     		ldr	r1, [sp, #128]
 6731 48b8 0E98     		ldr	r0, [sp, #56]
 6732 48ba 42EAC372 		orr	r2, r2, r3, lsl #31
 6733 48be 5B08     		lsrs	r3, r3, #1
ARM GAS  /tmp/ccxnUvyY.s 			page 119


 6734 48c0 43EAC173 		orr	r3, r3, r1, lsl #31
 6735 48c4 090A     		lsrs	r1, r1, #8
 6736 48c6 41EA0061 		orr	r1, r1, r0, lsl #24
 6737 48ca 060A     		lsrs	r6, r0, #8
 6738 48cc 2098     		ldr	r0, [sp, #128]
 6739 48ce 5140     		eors	r1, r1, r2
 6740 48d0 46EA0066 		orr	r6, r6, r0, lsl #24
 6741 48d4 5E40     		eors	r6, r6, r3
 6742 48d6 0E9B     		ldr	r3, [sp, #56]
 6743 48d8 C209     		lsrs	r2, r0, #7
 6744 48da 42EA4362 		orr	r2, r2, r3, lsl #25
 6745 48de 86EAD316 		eor	r6, r6, r3, lsr #7
 6746 48e2 1F9B     		ldr	r3, [sp, #124]
 6747 48e4 5140     		eors	r1, r1, r2
 6748 48e6 C918     		adds	r1, r1, r3
 6749 48e8 0D9B     		ldr	r3, [sp, #52]
 6750 48ea 43EB0606 		adc	r6, r3, r6
 6751 48ee 189B     		ldr	r3, [sp, #96]
 6752 48f0 0B9D     		ldr	r5, [sp, #44]
 6753 48f2 C918     		adds	r1, r1, r3
 6754 48f4 069B     		ldr	r3, [sp, #24]
 6755 48f6 43EB0606 		adc	r6, r3, r6
 6756 48fa 1D9B     		ldr	r3, [sp, #116]
 6757 48fc DC0C     		lsrs	r4, r3, #19
 6758 48fe 0B9B     		ldr	r3, [sp, #44]
 6759 4900 44EA4334 		orr	r4, r4, r3, lsl #13
 6760 4904 DA0C     		lsrs	r2, r3, #19
 6761 4906 1D9B     		ldr	r3, [sp, #116]
 6762 4908 42EA4332 		orr	r2, r2, r3, lsl #13
 6763 490c 0B9B     		ldr	r3, [sp, #44]
 6764 490e D800     		lsls	r0, r3, #3
 6765 4910 1D9B     		ldr	r3, [sp, #116]
 6766 4912 40EA5370 		orr	r0, r0, r3, lsr #29
 6767 4916 4240     		eors	r2, r2, r0
 6768 4918 DB00     		lsls	r3, r3, #3
 6769 491a 1D98     		ldr	r0, [sp, #116]
 6770 491c 43EA5573 		orr	r3, r3, r5, lsr #29
 6771 4920 6340     		eors	r3, r3, r4
 6772 4922 8409     		lsrs	r4, r0, #6
 6773 4924 44EA8564 		orr	r4, r4, r5, lsl #26
 6774 4928 6340     		eors	r3, r3, r4
 6775 492a 5B18     		adds	r3, r3, r1
 6776 492c 82EA9512 		eor	r2, r2, r5, lsr #6
 6777 4930 1F93     		str	r3, [sp, #124]
 6778 4932 46EB0203 		adc	r3, r6, r2
 6779 4936 0D93     		str	r3, [sp, #52]
 6780 4938 219B     		ldr	r3, [sp, #132]
 6781 493a 2199     		ldr	r1, [sp, #132]
 6782 493c 5A08     		lsrs	r2, r3, #1
 6783 493e 0F9B     		ldr	r3, [sp, #60]
 6784 4940 080A     		lsrs	r0, r1, #8
 6785 4942 42EAC372 		orr	r2, r2, r3, lsl #31
 6786 4946 5B08     		lsrs	r3, r3, #1
 6787 4948 43EAC173 		orr	r3, r3, r1, lsl #31
 6788 494c 0F99     		ldr	r1, [sp, #60]
 6789 494e 0C9D     		ldr	r5, [sp, #48]
 6790 4950 40EA0160 		orr	r0, r0, r1, lsl #24
ARM GAS  /tmp/ccxnUvyY.s 			page 120


 6791 4954 0E0A     		lsrs	r6, r1, #8
 6792 4956 2199     		ldr	r1, [sp, #132]
 6793 4958 5040     		eors	r0, r0, r2
 6794 495a 46EA0166 		orr	r6, r6, r1, lsl #24
 6795 495e 5E40     		eors	r6, r6, r3
 6796 4960 0F9B     		ldr	r3, [sp, #60]
 6797 4962 CA09     		lsrs	r2, r1, #7
 6798 4964 42EA4362 		orr	r2, r2, r3, lsl #25
 6799 4968 86EAD316 		eor	r6, r6, r3, lsr #7
 6800 496c 209B     		ldr	r3, [sp, #128]
 6801 496e 5040     		eors	r0, r0, r2
 6802 4970 C018     		adds	r0, r0, r3
 6803 4972 0E9B     		ldr	r3, [sp, #56]
 6804 4974 1E9A     		ldr	r2, [sp, #120]
 6805 4976 43EB0606 		adc	r6, r3, r6
 6806 497a 199B     		ldr	r3, [sp, #100]
 6807 497c C018     		adds	r0, r0, r3
 6808 497e 079B     		ldr	r3, [sp, #28]
 6809 4980 43EB0606 		adc	r6, r3, r6
 6810 4984 1E9B     		ldr	r3, [sp, #120]
 6811 4986 DC0C     		lsrs	r4, r3, #19
 6812 4988 0C9B     		ldr	r3, [sp, #48]
 6813 498a 44EA4334 		orr	r4, r4, r3, lsl #13
 6814 498e DB0C     		lsrs	r3, r3, #19
 6815 4990 43EA4233 		orr	r3, r3, r2, lsl #13
 6816 4994 0C9A     		ldr	r2, [sp, #48]
 6817 4996 D100     		lsls	r1, r2, #3
 6818 4998 1E9A     		ldr	r2, [sp, #120]
 6819 499a 41EA5271 		orr	r1, r1, r2, lsr #29
 6820 499e 4B40     		eors	r3, r3, r1
 6821 49a0 D200     		lsls	r2, r2, #3
 6822 49a2 1E99     		ldr	r1, [sp, #120]
 6823 49a4 42EA5572 		orr	r2, r2, r5, lsr #29
 6824 49a8 6240     		eors	r2, r2, r4
 6825 49aa 8C09     		lsrs	r4, r1, #6
 6826 49ac 44EA8564 		orr	r4, r4, r5, lsl #26
 6827 49b0 6240     		eors	r2, r2, r4
 6828 49b2 1218     		adds	r2, r2, r0
 6829 49b4 83EA9513 		eor	r3, r3, r5, lsr #6
 6830 49b8 46EB0303 		adc	r3, r6, r3
 6831 49bc 0E93     		str	r3, [sp, #56]
 6832 49be 229B     		ldr	r3, [sp, #136]
 6833 49c0 2092     		str	r2, [sp, #128]
 6834 49c2 5A08     		lsrs	r2, r3, #1
 6835 49c4 109B     		ldr	r3, [sp, #64]
 6836 49c6 2299     		ldr	r1, [sp, #136]
 6837 49c8 42EAC372 		orr	r2, r2, r3, lsl #31
 6838 49cc 1098     		ldr	r0, [sp, #64]
 6839 49ce 5B08     		lsrs	r3, r3, #1
 6840 49d0 43EAC173 		orr	r3, r3, r1, lsl #31
 6841 49d4 090A     		lsrs	r1, r1, #8
 6842 49d6 41EA0061 		orr	r1, r1, r0, lsl #24
 6843 49da 4FEA102C 		lsr	ip, r0, #8
 6844 49de 2298     		ldr	r0, [sp, #136]
 6845 49e0 5140     		eors	r1, r1, r2
 6846 49e2 4CEA006C 		orr	ip, ip, r0, lsl #24
 6847 49e6 83EA0C0C 		eor	ip, r3, ip
ARM GAS  /tmp/ccxnUvyY.s 			page 121


 6848 49ea 109B     		ldr	r3, [sp, #64]
 6849 49ec C209     		lsrs	r2, r0, #7
 6850 49ee 42EA4362 		orr	r2, r2, r3, lsl #25
 6851 49f2 8CEAD31C 		eor	ip, ip, r3, lsr #7
 6852 49f6 219B     		ldr	r3, [sp, #132]
 6853 49f8 5140     		eors	r1, r1, r2
 6854 49fa C918     		adds	r1, r1, r3
 6855 49fc 0F9B     		ldr	r3, [sp, #60]
 6856 49fe 0D9D     		ldr	r5, [sp, #52]
 6857 4a00 43EB0C0C 		adc	ip, r3, ip
 6858 4a04 1A9B     		ldr	r3, [sp, #104]
 6859 4a06 C918     		adds	r1, r1, r3
 6860 4a08 089B     		ldr	r3, [sp, #32]
 6861 4a0a 43EB0C0C 		adc	ip, r3, ip
 6862 4a0e 1F9B     		ldr	r3, [sp, #124]
 6863 4a10 DC0C     		lsrs	r4, r3, #19
 6864 4a12 0D9B     		ldr	r3, [sp, #52]
 6865 4a14 44EA4334 		orr	r4, r4, r3, lsl #13
 6866 4a18 DA0C     		lsrs	r2, r3, #19
 6867 4a1a 1F9B     		ldr	r3, [sp, #124]
 6868 4a1c 42EA4332 		orr	r2, r2, r3, lsl #13
 6869 4a20 0D9B     		ldr	r3, [sp, #52]
 6870 4a22 D800     		lsls	r0, r3, #3
 6871 4a24 1F9B     		ldr	r3, [sp, #124]
 6872 4a26 40EA5370 		orr	r0, r0, r3, lsr #29
 6873 4a2a 4240     		eors	r2, r2, r0
 6874 4a2c DB00     		lsls	r3, r3, #3
 6875 4a2e 1F98     		ldr	r0, [sp, #124]
 6876 4a30 43EA5573 		orr	r3, r3, r5, lsr #29
 6877 4a34 6340     		eors	r3, r3, r4
 6878 4a36 8409     		lsrs	r4, r0, #6
 6879 4a38 44EA8564 		orr	r4, r4, r5, lsl #26
 6880 4a3c 6340     		eors	r3, r3, r4
 6881 4a3e 5B18     		adds	r3, r3, r1
 6882 4a40 82EA9512 		eor	r2, r2, r5, lsr #6
 6883 4a44 2193     		str	r3, [sp, #132]
 6884 4a46 4CEB0203 		adc	r3, ip, r2
 6885 4a4a 0F93     		str	r3, [sp, #60]
 6886 4a4c 239B     		ldr	r3, [sp, #140]
 6887 4a4e 239A     		ldr	r2, [sp, #140]
 6888 4a50 5908     		lsrs	r1, r3, #1
 6889 4a52 119B     		ldr	r3, [sp, #68]
 6890 4a54 140A     		lsrs	r4, r2, #8
 6891 4a56 41EAC371 		orr	r1, r1, r3, lsl #31
 6892 4a5a 5B08     		lsrs	r3, r3, #1
 6893 4a5c 43EAC273 		orr	r3, r3, r2, lsl #31
 6894 4a60 119A     		ldr	r2, [sp, #68]
 6895 4a62 2398     		ldr	r0, [sp, #140]
 6896 4a64 44EA0264 		orr	r4, r4, r2, lsl #24
 6897 4a68 120A     		lsrs	r2, r2, #8
 6898 4a6a 42EA0062 		orr	r2, r2, r0, lsl #24
 6899 4a6e 5A40     		eors	r2, r2, r3
 6900 4a70 119B     		ldr	r3, [sp, #68]
 6901 4a72 4C40     		eors	r4, r4, r1
 6902 4a74 C109     		lsrs	r1, r0, #7
 6903 4a76 41EA4361 		orr	r1, r1, r3, lsl #25
 6904 4a7a 82EAD312 		eor	r2, r2, r3, lsr #7
ARM GAS  /tmp/ccxnUvyY.s 			page 122


 6905 4a7e 229B     		ldr	r3, [sp, #136]
 6906 4a80 4C40     		eors	r4, r4, r1
 6907 4a82 E418     		adds	r4, r4, r3
 6908 4a84 109B     		ldr	r3, [sp, #64]
 6909 4a86 43EB0202 		adc	r2, r3, r2
 6910 4a8a 1B9B     		ldr	r3, [sp, #108]
 6911 4a8c E418     		adds	r4, r4, r3
 6912 4a8e 099B     		ldr	r3, [sp, #36]
 6913 4a90 43EB0202 		adc	r2, r3, r2
 6914 4a94 209B     		ldr	r3, [sp, #128]
 6915 4a96 DD0C     		lsrs	r5, r3, #19
 6916 4a98 0E9B     		ldr	r3, [sp, #56]
 6917 4a9a 45EA4335 		orr	r5, r5, r3, lsl #13
 6918 4a9e D90C     		lsrs	r1, r3, #19
 6919 4aa0 209B     		ldr	r3, [sp, #128]
 6920 4aa2 41EA4331 		orr	r1, r1, r3, lsl #13
 6921 4aa6 0E9B     		ldr	r3, [sp, #56]
 6922 4aa8 D800     		lsls	r0, r3, #3
 6923 4aaa 209B     		ldr	r3, [sp, #128]
 6924 4aac 0E9E     		ldr	r6, [sp, #56]
 6925 4aae 40EA5370 		orr	r0, r0, r3, lsr #29
 6926 4ab2 4140     		eors	r1, r1, r0
 6927 4ab4 DB00     		lsls	r3, r3, #3
 6928 4ab6 2098     		ldr	r0, [sp, #128]
 6929 4ab8 43EA5673 		orr	r3, r3, r6, lsr #29
 6930 4abc 6B40     		eors	r3, r3, r5
 6931 4abe 8509     		lsrs	r5, r0, #6
 6932 4ac0 45EA8665 		orr	r5, r5, r6, lsl #26
 6933 4ac4 6B40     		eors	r3, r3, r5
 6934 4ac6 1B19     		adds	r3, r3, r4
 6935 4ac8 81EA9611 		eor	r1, r1, r6, lsr #6
 6936 4acc 2293     		str	r3, [sp, #136]
 6937 4ace 42EB0103 		adc	r3, r2, r1
 6938 4ad2 1093     		str	r3, [sp, #64]
 6939 4ad4 249B     		ldr	r3, [sp, #144]
 6940 4ad6 2499     		ldr	r1, [sp, #144]
 6941 4ad8 5A08     		lsrs	r2, r3, #1
 6942 4ada 129B     		ldr	r3, [sp, #72]
 6943 4adc 080A     		lsrs	r0, r1, #8
 6944 4ade 42EAC372 		orr	r2, r2, r3, lsl #31
 6945 4ae2 5B08     		lsrs	r3, r3, #1
 6946 4ae4 43EAC173 		orr	r3, r3, r1, lsl #31
 6947 4ae8 1299     		ldr	r1, [sp, #72]
 6948 4aea 249C     		ldr	r4, [sp, #144]
 6949 4aec 40EA0160 		orr	r0, r0, r1, lsl #24
 6950 4af0 090A     		lsrs	r1, r1, #8
 6951 4af2 41EA0461 		orr	r1, r1, r4, lsl #24
 6952 4af6 4B40     		eors	r3, r3, r1
 6953 4af8 1299     		ldr	r1, [sp, #72]
 6954 4afa 5040     		eors	r0, r0, r2
 6955 4afc E209     		lsrs	r2, r4, #7
 6956 4afe 42EA4162 		orr	r2, r2, r1, lsl #25
 6957 4b02 83EAD111 		eor	r1, r3, r1, lsr #7
 6958 4b06 239B     		ldr	r3, [sp, #140]
 6959 4b08 5040     		eors	r0, r0, r2
 6960 4b0a C018     		adds	r0, r0, r3
 6961 4b0c 119B     		ldr	r3, [sp, #68]
ARM GAS  /tmp/ccxnUvyY.s 			page 123


 6962 4b0e 219A     		ldr	r2, [sp, #132]
 6963 4b10 43EB0101 		adc	r1, r3, r1
 6964 4b14 1C9B     		ldr	r3, [sp, #112]
 6965 4b16 0F9E     		ldr	r6, [sp, #60]
 6966 4b18 C018     		adds	r0, r0, r3
 6967 4b1a 0A9B     		ldr	r3, [sp, #40]
 6968 4b1c 43EB0101 		adc	r1, r3, r1
 6969 4b20 219B     		ldr	r3, [sp, #132]
 6970 4b22 DD0C     		lsrs	r5, r3, #19
 6971 4b24 0F9B     		ldr	r3, [sp, #60]
 6972 4b26 45EA4335 		orr	r5, r5, r3, lsl #13
 6973 4b2a DB0C     		lsrs	r3, r3, #19
 6974 4b2c 43EA4233 		orr	r3, r3, r2, lsl #13
 6975 4b30 0F9A     		ldr	r2, [sp, #60]
 6976 4b32 D400     		lsls	r4, r2, #3
 6977 4b34 219A     		ldr	r2, [sp, #132]
 6978 4b36 44EA5274 		orr	r4, r4, r2, lsr #29
 6979 4b3a 6340     		eors	r3, r3, r4
 6980 4b3c D200     		lsls	r2, r2, #3
 6981 4b3e 219C     		ldr	r4, [sp, #132]
 6982 4b40 42EA5672 		orr	r2, r2, r6, lsr #29
 6983 4b44 6A40     		eors	r2, r2, r5
 6984 4b46 A509     		lsrs	r5, r4, #6
 6985 4b48 45EA8665 		orr	r5, r5, r6, lsl #26
 6986 4b4c 6A40     		eors	r2, r2, r5
 6987 4b4e 1218     		adds	r2, r2, r0
 6988 4b50 83EA9613 		eor	r3, r3, r6, lsr #6
 6989 4b54 41EB0303 		adc	r3, r1, r3
 6990 4b58 1193     		str	r3, [sp, #68]
 6991 4b5a 259B     		ldr	r3, [sp, #148]
 6992 4b5c 2392     		str	r2, [sp, #140]
 6993 4b5e 5908     		lsrs	r1, r3, #1
 6994 4b60 139B     		ldr	r3, [sp, #76]
 6995 4b62 259A     		ldr	r2, [sp, #148]
 6996 4b64 41EAC371 		orr	r1, r1, r3, lsl #31
 6997 4b68 5B08     		lsrs	r3, r3, #1
 6998 4b6a 43EAC273 		orr	r3, r3, r2, lsl #31
 6999 4b6e 150A     		lsrs	r5, r2, #8
 7000 4b70 139A     		ldr	r2, [sp, #76]
 7001 4b72 2598     		ldr	r0, [sp, #148]
 7002 4b74 45EA0265 		orr	r5, r5, r2, lsl #24
 7003 4b78 120A     		lsrs	r2, r2, #8
 7004 4b7a 42EA0062 		orr	r2, r2, r0, lsl #24
 7005 4b7e 5A40     		eors	r2, r2, r3
 7006 4b80 139B     		ldr	r3, [sp, #76]
 7007 4b82 4D40     		eors	r5, r5, r1
 7008 4b84 C109     		lsrs	r1, r0, #7
 7009 4b86 41EA4361 		orr	r1, r1, r3, lsl #25
 7010 4b8a 82EAD312 		eor	r2, r2, r3, lsr #7
 7011 4b8e 249B     		ldr	r3, [sp, #144]
 7012 4b90 4D40     		eors	r5, r5, r1
 7013 4b92 ED18     		adds	r5, r5, r3
 7014 4b94 129B     		ldr	r3, [sp, #72]
 7015 4b96 43EB0202 		adc	r2, r3, r2
 7016 4b9a 1D9B     		ldr	r3, [sp, #116]
 7017 4b9c ED18     		adds	r5, r5, r3
 7018 4b9e 0B9B     		ldr	r3, [sp, #44]
ARM GAS  /tmp/ccxnUvyY.s 			page 124


 7019 4ba0 2299     		ldr	r1, [sp, #136]
 7020 4ba2 43EB0202 		adc	r2, r3, r2
 7021 4ba6 229B     		ldr	r3, [sp, #136]
 7022 4ba8 109E     		ldr	r6, [sp, #64]
 7023 4baa DC0C     		lsrs	r4, r3, #19
 7024 4bac 109B     		ldr	r3, [sp, #64]
 7025 4bae 44EA4334 		orr	r4, r4, r3, lsl #13
 7026 4bb2 DB0C     		lsrs	r3, r3, #19
 7027 4bb4 43EA4133 		orr	r3, r3, r1, lsl #13
 7028 4bb8 1099     		ldr	r1, [sp, #64]
 7029 4bba C800     		lsls	r0, r1, #3
 7030 4bbc 2299     		ldr	r1, [sp, #136]
 7031 4bbe 40EA5170 		orr	r0, r0, r1, lsr #29
 7032 4bc2 4340     		eors	r3, r3, r0
 7033 4bc4 C900     		lsls	r1, r1, #3
 7034 4bc6 2298     		ldr	r0, [sp, #136]
 7035 4bc8 41EA5671 		orr	r1, r1, r6, lsr #29
 7036 4bcc 6140     		eors	r1, r1, r4
 7037 4bce 8409     		lsrs	r4, r0, #6
 7038 4bd0 44EA8664 		orr	r4, r4, r6, lsl #26
 7039 4bd4 6140     		eors	r1, r1, r4
 7040 4bd6 4919     		adds	r1, r1, r5
 7041 4bd8 83EA9613 		eor	r3, r3, r6, lsr #6
 7042 4bdc 42EB0303 		adc	r3, r2, r3
 7043 4be0 1293     		str	r3, [sp, #72]
 7044 4be2 169B     		ldr	r3, [sp, #88]
 7045 4be4 2491     		str	r1, [sp, #144]
 7046 4be6 5A08     		lsrs	r2, r3, #1
 7047 4be8 029B     		ldr	r3, [sp, #8]
 7048 4bea 1699     		ldr	r1, [sp, #88]
 7049 4bec 42EAC372 		orr	r2, r2, r3, lsl #31
 7050 4bf0 5B08     		lsrs	r3, r3, #1
 7051 4bf2 43EAC173 		orr	r3, r3, r1, lsl #31
 7052 4bf6 0C0A     		lsrs	r4, r1, #8
 7053 4bf8 0299     		ldr	r1, [sp, #8]
 7054 4bfa 119E     		ldr	r6, [sp, #68]
 7055 4bfc 44EA0164 		orr	r4, r4, r1, lsl #24
 7056 4c00 0D0A     		lsrs	r5, r1, #8
 7057 4c02 1699     		ldr	r1, [sp, #88]
 7058 4c04 5440     		eors	r4, r4, r2
 7059 4c06 45EA0165 		orr	r5, r5, r1, lsl #24
 7060 4c0a 5D40     		eors	r5, r5, r3
 7061 4c0c 029B     		ldr	r3, [sp, #8]
 7062 4c0e CA09     		lsrs	r2, r1, #7
 7063 4c10 42EA4362 		orr	r2, r2, r3, lsl #25
 7064 4c14 85EAD315 		eor	r5, r5, r3, lsr #7
 7065 4c18 259B     		ldr	r3, [sp, #148]
 7066 4c1a 5440     		eors	r4, r4, r2
 7067 4c1c E418     		adds	r4, r4, r3
 7068 4c1e 139B     		ldr	r3, [sp, #76]
 7069 4c20 239A     		ldr	r2, [sp, #140]
 7070 4c22 43EB0505 		adc	r5, r3, r5
 7071 4c26 1E9B     		ldr	r3, [sp, #120]
 7072 4c28 E418     		adds	r4, r4, r3
 7073 4c2a 0C9B     		ldr	r3, [sp, #48]
 7074 4c2c 43EB0505 		adc	r5, r3, r5
 7075 4c30 239B     		ldr	r3, [sp, #140]
ARM GAS  /tmp/ccxnUvyY.s 			page 125


 7076 4c32 D80C     		lsrs	r0, r3, #19
 7077 4c34 119B     		ldr	r3, [sp, #68]
 7078 4c36 40EA4330 		orr	r0, r0, r3, lsl #13
 7079 4c3a DB0C     		lsrs	r3, r3, #19
 7080 4c3c 43EA4233 		orr	r3, r3, r2, lsl #13
 7081 4c40 119A     		ldr	r2, [sp, #68]
 7082 4c42 D100     		lsls	r1, r2, #3
 7083 4c44 239A     		ldr	r2, [sp, #140]
 7084 4c46 41EA5271 		orr	r1, r1, r2, lsr #29
 7085 4c4a 4B40     		eors	r3, r3, r1
 7086 4c4c D200     		lsls	r2, r2, #3
 7087 4c4e 2399     		ldr	r1, [sp, #140]
 7088 4c50 42EA5672 		orr	r2, r2, r6, lsr #29
 7089 4c54 4240     		eors	r2, r2, r0
 7090 4c56 8809     		lsrs	r0, r1, #6
 7091 4c58 40EA8660 		orr	r0, r0, r6, lsl #26
 7092 4c5c 4240     		eors	r2, r2, r0
 7093 4c5e 1219     		adds	r2, r2, r4
 7094 4c60 83EA9613 		eor	r3, r3, r6, lsr #6
 7095 4c64 45EB0303 		adc	r3, r5, r3
 7096 4c68 1393     		str	r3, [sp, #76]
 7097 4c6a 179B     		ldr	r3, [sp, #92]
 7098 4c6c 2592     		str	r2, [sp, #148]
 7099 4c6e 5A08     		lsrs	r2, r3, #1
 7100 4c70 039B     		ldr	r3, [sp, #12]
 7101 4c72 1799     		ldr	r1, [sp, #92]
 7102 4c74 42EAC372 		orr	r2, r2, r3, lsl #31
 7103 4c78 5B08     		lsrs	r3, r3, #1
 7104 4c7a 43EAC173 		orr	r3, r3, r1, lsl #31
 7105 4c7e 0C0A     		lsrs	r4, r1, #8
 7106 4c80 0399     		ldr	r1, [sp, #12]
 7107 4c82 129E     		ldr	r6, [sp, #72]
 7108 4c84 44EA0164 		orr	r4, r4, r1, lsl #24
 7109 4c88 080A     		lsrs	r0, r1, #8
 7110 4c8a 1799     		ldr	r1, [sp, #92]
 7111 4c8c 5440     		eors	r4, r4, r2
 7112 4c8e 40EA0160 		orr	r0, r0, r1, lsl #24
 7113 4c92 5840     		eors	r0, r0, r3
 7114 4c94 039B     		ldr	r3, [sp, #12]
 7115 4c96 CA09     		lsrs	r2, r1, #7
 7116 4c98 42EA4362 		orr	r2, r2, r3, lsl #25
 7117 4c9c 80EAD310 		eor	r0, r0, r3, lsr #7
 7118 4ca0 169B     		ldr	r3, [sp, #88]
 7119 4ca2 5440     		eors	r4, r4, r2
 7120 4ca4 E418     		adds	r4, r4, r3
 7121 4ca6 029B     		ldr	r3, [sp, #8]
 7122 4ca8 249A     		ldr	r2, [sp, #144]
 7123 4caa 43EB0000 		adc	r0, r3, r0
 7124 4cae 1F9B     		ldr	r3, [sp, #124]
 7125 4cb0 E418     		adds	r4, r4, r3
 7126 4cb2 0D9B     		ldr	r3, [sp, #52]
 7127 4cb4 43EB0000 		adc	r0, r3, r0
 7128 4cb8 249B     		ldr	r3, [sp, #144]
 7129 4cba DD0C     		lsrs	r5, r3, #19
 7130 4cbc 129B     		ldr	r3, [sp, #72]
 7131 4cbe 45EA4335 		orr	r5, r5, r3, lsl #13
 7132 4cc2 DB0C     		lsrs	r3, r3, #19
ARM GAS  /tmp/ccxnUvyY.s 			page 126


 7133 4cc4 43EA4233 		orr	r3, r3, r2, lsl #13
 7134 4cc8 129A     		ldr	r2, [sp, #72]
 7135 4cca D100     		lsls	r1, r2, #3
 7136 4ccc 249A     		ldr	r2, [sp, #144]
 7137 4cce 41EA5271 		orr	r1, r1, r2, lsr #29
 7138 4cd2 4B40     		eors	r3, r3, r1
 7139 4cd4 D200     		lsls	r2, r2, #3
 7140 4cd6 2499     		ldr	r1, [sp, #144]
 7141 4cd8 42EA5672 		orr	r2, r2, r6, lsr #29
 7142 4cdc 6A40     		eors	r2, r2, r5
 7143 4cde 8D09     		lsrs	r5, r1, #6
 7144 4ce0 45EA8665 		orr	r5, r5, r6, lsl #26
 7145 4ce4 6A40     		eors	r2, r2, r5
 7146 4ce6 1219     		adds	r2, r2, r4
 7147 4ce8 83EA9613 		eor	r3, r3, r6, lsr #6
 7148 4cec 40EB0303 		adc	r3, r0, r3
 7149 4cf0 0293     		str	r3, [sp, #8]
 7150 4cf2 189B     		ldr	r3, [sp, #96]
 7151 4cf4 1692     		str	r2, [sp, #88]
 7152 4cf6 5908     		lsrs	r1, r3, #1
 7153 4cf8 069B     		ldr	r3, [sp, #24]
 7154 4cfa 189A     		ldr	r2, [sp, #96]
 7155 4cfc 41EAC371 		orr	r1, r1, r3, lsl #31
 7156 4d00 5B08     		lsrs	r3, r3, #1
 7157 4d02 43EAC273 		orr	r3, r3, r2, lsl #31
 7158 4d06 150A     		lsrs	r5, r2, #8
 7159 4d08 069A     		ldr	r2, [sp, #24]
 7160 4d0a 1898     		ldr	r0, [sp, #96]
 7161 4d0c 45EA0265 		orr	r5, r5, r2, lsl #24
 7162 4d10 120A     		lsrs	r2, r2, #8
 7163 4d12 42EA0062 		orr	r2, r2, r0, lsl #24
 7164 4d16 5A40     		eors	r2, r2, r3
 7165 4d18 069B     		ldr	r3, [sp, #24]
 7166 4d1a 4D40     		eors	r5, r5, r1
 7167 4d1c C109     		lsrs	r1, r0, #7
 7168 4d1e 41EA4361 		orr	r1, r1, r3, lsl #25
 7169 4d22 82EAD312 		eor	r2, r2, r3, lsr #7
 7170 4d26 179B     		ldr	r3, [sp, #92]
 7171 4d28 4D40     		eors	r5, r5, r1
 7172 4d2a ED18     		adds	r5, r5, r3
 7173 4d2c 039B     		ldr	r3, [sp, #12]
 7174 4d2e 2599     		ldr	r1, [sp, #148]
 7175 4d30 43EB0202 		adc	r2, r3, r2
 7176 4d34 209B     		ldr	r3, [sp, #128]
 7177 4d36 139E     		ldr	r6, [sp, #76]
 7178 4d38 ED18     		adds	r5, r5, r3
 7179 4d3a 0E9B     		ldr	r3, [sp, #56]
 7180 4d3c 43EB0202 		adc	r2, r3, r2
 7181 4d40 259B     		ldr	r3, [sp, #148]
 7182 4d42 DC0C     		lsrs	r4, r3, #19
 7183 4d44 139B     		ldr	r3, [sp, #76]
 7184 4d46 44EA4334 		orr	r4, r4, r3, lsl #13
 7185 4d4a DB0C     		lsrs	r3, r3, #19
 7186 4d4c 43EA4133 		orr	r3, r3, r1, lsl #13
 7187 4d50 1399     		ldr	r1, [sp, #76]
 7188 4d52 C800     		lsls	r0, r1, #3
 7189 4d54 2599     		ldr	r1, [sp, #148]
ARM GAS  /tmp/ccxnUvyY.s 			page 127


 7190 4d56 40EA5170 		orr	r0, r0, r1, lsr #29
 7191 4d5a 4340     		eors	r3, r3, r0
 7192 4d5c C900     		lsls	r1, r1, #3
 7193 4d5e 2598     		ldr	r0, [sp, #148]
 7194 4d60 41EA5671 		orr	r1, r1, r6, lsr #29
 7195 4d64 6140     		eors	r1, r1, r4
 7196 4d66 8409     		lsrs	r4, r0, #6
 7197 4d68 44EA8664 		orr	r4, r4, r6, lsl #26
 7198 4d6c 6140     		eors	r1, r1, r4
 7199 4d6e 4919     		adds	r1, r1, r5
 7200 4d70 83EA9613 		eor	r3, r3, r6, lsr #6
 7201 4d74 42EB0303 		adc	r3, r2, r3
 7202 4d78 0393     		str	r3, [sp, #12]
 7203 4d7a 2D9B     		ldr	r3, [sp, #180]
 7204 4d7c 1791     		str	r1, [sp, #92]
 7205 4d7e 990B     		lsrs	r1, r3, #14
 7206 4d80 319B     		ldr	r3, [sp, #196]
 7207 4d82 319E     		ldr	r6, [sp, #196]
 7208 4d84 41EA8341 		orr	r1, r1, r3, lsl #18
 7209 4d88 980B     		lsrs	r0, r3, #14
 7210 4d8a 2D9B     		ldr	r3, [sp, #180]
 7211 4d8c 289F     		ldr	r7, [sp, #160]
 7212 4d8e 40EA8340 		orr	r0, r0, r3, lsl #18
 7213 4d92 9A0C     		lsrs	r2, r3, #18
 7214 4d94 319B     		ldr	r3, [sp, #196]
 7215 4d96 08EA0707 		and	r7, r8, r7
 7216 4d9a 42EA8335 		orr	r5, r2, r3, lsl #14
 7217 4d9e 2D9A     		ldr	r2, [sp, #180]
 7218 4da0 9B0C     		lsrs	r3, r3, #18
 7219 4da2 43EA8234 		orr	r4, r3, r2, lsl #14
 7220 4da6 81EA0502 		eor	r2, r1, r5
 7221 4daa 3199     		ldr	r1, [sp, #196]
 7222 4dac 80EA0403 		eor	r3, r0, r4
 7223 4db0 C805     		lsls	r0, r1, #23
 7224 4db2 2D99     		ldr	r1, [sp, #180]
 7225 4db4 319C     		ldr	r4, [sp, #196]
 7226 4db6 40EA5120 		orr	r0, r0, r1, lsr #9
 7227 4dba C905     		lsls	r1, r1, #23
 7228 4dbc 41EA5421 		orr	r1, r1, r4, lsr #9
 7229 4dc0 5140     		eors	r1, r1, r2
 7230 4dc2 5840     		eors	r0, r0, r3
 7231 4dc4 D24A     		ldr	r2, .L46
 7232 4dc6 189B     		ldr	r3, [sp, #96]
 7233 4dc8 069C     		ldr	r4, [sp, #24]
 7234 4dca 9A18     		adds	r2, r3, r2
 7235 4dcc D14B     		ldr	r3, .L46+4
 7236 4dce 43EB0403 		adc	r3, r3, r4
 7237 4dd2 2E9C     		ldr	r4, [sp, #184]
 7238 4dd4 1219     		adds	r2, r2, r4
 7239 4dd6 2F9C     		ldr	r4, [sp, #188]
 7240 4dd8 44EB0303 		adc	r3, r4, r3
 7241 4ddc 8A18     		adds	r2, r1, r2
 7242 4dde 40EB0303 		adc	r3, r0, r3
 7243 4de2 2A99     		ldr	r1, [sp, #168]
 7244 4de4 2D98     		ldr	r0, [sp, #180]
 7245 4de6 2D9C     		ldr	r4, [sp, #180]
 7246 4de8 21EA0005 		bic	r5, r1, r0
ARM GAS  /tmp/ccxnUvyY.s 			page 128


 7247 4dec 2B99     		ldr	r1, [sp, #172]
 7248 4dee 3198     		ldr	r0, [sp, #196]
 7249 4df0 21EA0000 		bic	r0, r1, r0
 7250 4df4 3099     		ldr	r1, [sp, #192]
 7251 4df6 2140     		ands	r1, r1, r4
 7252 4df8 2C9C     		ldr	r4, [sp, #176]
 7253 4dfa 6940     		eors	r1, r1, r5
 7254 4dfc 3440     		ands	r4, r4, r6
 7255 4dfe 5218     		adds	r2, r2, r1
 7256 4e00 80EA0400 		eor	r0, r0, r4
 7257 4e04 43EB0003 		adc	r3, r3, r0
 7258 4e08 2998     		ldr	r0, [sp, #164]
 7259 4e0a 4FEA1B71 		lsr	r1, fp, #28
 7260 4e0e 299E     		ldr	r6, [sp, #164]
 7261 4e10 41EA0011 		orr	r1, r1, r0, lsl #4
 7262 4e14 050F     		lsrs	r5, r0, #28
 7263 4e16 8007     		lsls	r0, r0, #30
 7264 4e18 40EA9B00 		orr	r0, r0, fp, lsr #2
 7265 4e1c 45EA0B15 		orr	r5, r5, fp, lsl #4
 7266 4e20 4540     		eors	r5, r5, r0
 7267 4e22 7006     		lsls	r0, r6, #25
 7268 4e24 40EADB10 		orr	r0, r0, fp, lsr #7
 7269 4e28 4FEA8B74 		lsl	r4, fp, #30
 7270 4e2c 44EA9604 		orr	r4, r4, r6, lsr #2
 7271 4e30 4540     		eors	r5, r5, r0
 7272 4e32 2798     		ldr	r0, [sp, #156]
 7273 4e34 6140     		eors	r1, r1, r4
 7274 4e36 4FEA4B64 		lsl	r4, fp, #25
 7275 4e3a 44EAD614 		orr	r4, r4, r6, lsr #7
 7276 4e3e 8EEA0006 		eor	r6, lr, r0
 7277 4e42 2898     		ldr	r0, [sp, #160]
 7278 4e44 6140     		eors	r1, r1, r4
 7279 4e46 299C     		ldr	r4, [sp, #164]
 7280 4e48 88EA0000 		eor	r0, r8, r0
 7281 4e4c 2040     		ands	r0, r0, r4
 7282 4e4e 279C     		ldr	r4, [sp, #156]
 7283 4e50 06EA0B06 		and	r6, r6, fp
 7284 4e54 0EEA0404 		and	r4, lr, r4
 7285 4e58 7440     		eors	r4, r4, r6
 7286 4e5a 0919     		adds	r1, r1, r4
 7287 4e5c 269C     		ldr	r4, [sp, #152]
 7288 4e5e 80EA0700 		eor	r0, r0, r7
 7289 4e62 45EB0000 		adc	r0, r5, r0
 7290 4e66 A418     		adds	r4, r4, r2
 7291 4e68 49EB0306 		adc	r6, r9, r3
 7292 4e6c 12EB0109 		adds	r9, r2, r1
 7293 4e70 43EB0003 		adc	r3, r3, r0
 7294 4e74 2046     		mov	r0, r4
 7295 4e76 4FEA963A 		lsr	r10, r6, #14
 7296 4e7a B20C     		lsrs	r2, r6, #18
 7297 4e7c 42EA8432 		orr	r2, r2, r4, lsl #14
 7298 4e80 4AEA844A 		orr	r10, r10, r4, lsl #18
 7299 4e84 2E94     		str	r4, [sp, #184]
 7300 4e86 A10C     		lsrs	r1, r4, #18
 7301 4e88 2693     		str	r3, [sp, #152]
 7302 4e8a 8AEA020A 		eor	r10, r10, r2
 7303 4e8e A30B     		lsrs	r3, r4, #14
ARM GAS  /tmp/ccxnUvyY.s 			page 129


 7304 4e90 F205     		lsls	r2, r6, #23
 7305 4e92 41EA8631 		orr	r1, r1, r6, lsl #14
 7306 4e96 42EA5422 		orr	r2, r2, r4, lsr #9
 7307 4e9a 43EA8643 		orr	r3, r3, r6, lsl #18
 7308 4e9e 4B40     		eors	r3, r3, r1
 7309 4ea0 8AEA020A 		eor	r10, r10, r2
 7310 4ea4 E105     		lsls	r1, r4, #23
 7311 4ea6 199A     		ldr	r2, [sp, #100]
 7312 4ea8 9B4F     		ldr	r7, .L46+8
 7313 4eaa 41EA5621 		orr	r1, r1, r6, lsr #9
 7314 4eae D719     		adds	r7, r2, r7
 7315 4eb0 83EA0103 		eor	r3, r3, r1
 7316 4eb4 994A     		ldr	r2, .L46+12
 7317 4eb6 0799     		ldr	r1, [sp, #28]
 7318 4eb8 42EB010C 		adc	ip, r2, r1
 7319 4ebc 2A9A     		ldr	r2, [sp, #168]
 7320 4ebe BF18     		adds	r7, r7, r2
 7321 4ec0 2B9A     		ldr	r2, [sp, #172]
 7322 4ec2 42EB0C0C 		adc	ip, r2, ip
 7323 4ec6 309A     		ldr	r2, [sp, #192]
 7324 4ec8 DB19     		adds	r3, r3, r7
 7325 4eca 22EA0404 		bic	r4, r2, r4
 7326 4ece 2C9A     		ldr	r2, [sp, #176]
 7327 4ed0 4AEB0C0A 		adc	r10, r10, ip
 7328 4ed4 22EA0601 		bic	r1, r2, r6
 7329 4ed8 2D9A     		ldr	r2, [sp, #180]
 7330 4eda 269F     		ldr	r7, [sp, #152]
 7331 4edc 0240     		ands	r2, r2, r0
 7332 4ede 3198     		ldr	r0, [sp, #196]
 7333 4ee0 6240     		eors	r2, r2, r4
 7334 4ee2 3040     		ands	r0, r0, r6
 7335 4ee4 9B18     		adds	r3, r3, r2
 7336 4ee6 81EA0001 		eor	r1, r1, r0
 7337 4eea 4AEB010A 		adc	r10, r10, r1
 7338 4eee 2699     		ldr	r1, [sp, #152]
 7339 4ef0 4FEA1972 		lsr	r2, r9, #28
 7340 4ef4 42EA0112 		orr	r2, r2, r1, lsl #4
 7341 4ef8 0C0F     		lsrs	r4, r1, #28
 7342 4efa 8907     		lsls	r1, r1, #30
 7343 4efc 41EA9901 		orr	r1, r1, r9, lsr #2
 7344 4f00 44EA0914 		orr	r4, r4, r9, lsl #4
 7345 4f04 4FEA8970 		lsl	r0, r9, #30
 7346 4f08 4C40     		eors	r4, r4, r1
 7347 4f0a 7906     		lsls	r1, r7, #25
 7348 4f0c 40EA9700 		orr	r0, r0, r7, lsr #2
 7349 4f10 41EAD911 		orr	r1, r1, r9, lsr #7
 7350 4f14 4240     		eors	r2, r2, r0
 7351 4f16 4C40     		eors	r4, r4, r1
 7352 4f18 4FEA4960 		lsl	r0, r9, #25
 7353 4f1c 2799     		ldr	r1, [sp, #156]
 7354 4f1e 40EAD710 		orr	r0, r0, r7, lsr #7
 7355 4f22 4240     		eors	r2, r2, r0
 7356 4f24 81EA0B07 		eor	r7, r1, fp
 7357 4f28 DDE92810 		ldrd	r1, r0, [sp, #160]
 7358 4f2c 4140     		eors	r1, r1, r0
 7359 4f2e 2698     		ldr	r0, [sp, #152]
 7360 4f30 2A92     		str	r2, [sp, #168]
ARM GAS  /tmp/ccxnUvyY.s 			page 130


 7361 4f32 0140     		ands	r1, r1, r0
 7362 4f34 2798     		ldr	r0, [sp, #156]
 7363 4f36 07EA0907 		and	r7, r7, r9
 7364 4f3a DDE92852 		ldrd	r5, r2, [sp, #160]
 7365 4f3e 00EA0B00 		and	r0, r0, fp
 7366 4f42 05EA020C 		and	ip, r5, r2
 7367 4f46 2A9A     		ldr	r2, [sp, #168]
 7368 4f48 7840     		eors	r0, r0, r7
 7369 4f4a 1018     		adds	r0, r2, r0
 7370 4f4c 81EA0C01 		eor	r1, r1, ip
 7371 4f50 44EB0104 		adc	r4, r4, r1
 7372 4f54 1EEB0302 		adds	r2, lr, r3
 7373 4f58 48EB0A08 		adc	r8, r8, r10
 7374 4f5c 1B18     		adds	r3, r3, r0
 7375 4f5e 2A93     		str	r3, [sp, #168]
 7376 4f60 4AEB0403 		adc	r3, r10, r4
 7377 4f64 2B93     		str	r3, [sp, #172]
 7378 4f66 940B     		lsrs	r4, r2, #14
 7379 4f68 4FEA9837 		lsr	r7, r8, #14
 7380 4f6c 910C     		lsrs	r1, r2, #18
 7381 4f6e 4FEA9843 		lsr	r3, r8, #18
 7382 4f72 41EA8831 		orr	r1, r1, r8, lsl #14
 7383 4f76 43EA8233 		orr	r3, r3, r2, lsl #14
 7384 4f7a 44EA8844 		orr	r4, r4, r8, lsl #18
 7385 4f7e 47EA8247 		orr	r7, r7, r2, lsl #18
 7386 4f82 4C40     		eors	r4, r4, r1
 7387 4f84 5F40     		eors	r7, r7, r3
 7388 4f86 D105     		lsls	r1, r2, #23
 7389 4f88 4FEAC853 		lsl	r3, r8, #23
 7390 4f8c 43EA5223 		orr	r3, r3, r2, lsr #9
 7391 4f90 41EA5821 		orr	r1, r1, r8, lsr #9
 7392 4f94 4C40     		eors	r4, r4, r1
 7393 4f96 5F40     		eors	r7, r7, r3
 7394 4f98 1A99     		ldr	r1, [sp, #104]
 7395 4f9a 614B     		ldr	r3, .L46+16
 7396 4f9c 06EA0800 		and	r0, r6, r8
 7397 4fa0 11EB030C 		adds	ip, r1, r3
 7398 4fa4 0899     		ldr	r1, [sp, #32]
 7399 4fa6 5F4B     		ldr	r3, .L46+20
 7400 4fa8 8BEA090E 		eor	lr, fp, r9
 7401 4fac 43EB0103 		adc	r3, r3, r1
 7402 4fb0 3099     		ldr	r1, [sp, #192]
 7403 4fb2 1CEB010C 		adds	ip, ip, r1
 7404 4fb6 2C99     		ldr	r1, [sp, #176]
 7405 4fb8 41EB0303 		adc	r3, r1, r3
 7406 4fbc 14EB0C04 		adds	r4, r4, ip
 7407 4fc0 47EB0307 		adc	r7, r7, r3
 7408 4fc4 2D9B     		ldr	r3, [sp, #180]
 7409 4fc6 23EA020C 		bic	ip, r3, r2
 7410 4fca 319B     		ldr	r3, [sp, #196]
 7411 4fcc 23EA0801 		bic	r1, r3, r8
 7412 4fd0 2E9B     		ldr	r3, [sp, #184]
 7413 4fd2 4140     		eors	r1, r1, r0
 7414 4fd4 1340     		ands	r3, r3, r2
 7415 4fd6 8CEA0303 		eor	r3, ip, r3
 7416 4fda E418     		adds	r4, r4, r3
 7417 4fdc 2A9B     		ldr	r3, [sp, #168]
ARM GAS  /tmp/ccxnUvyY.s 			page 131


 7418 4fde 47EB0107 		adc	r7, r7, r1
 7419 4fe2 2B99     		ldr	r1, [sp, #172]
 7420 4fe4 2A98     		ldr	r0, [sp, #168]
 7421 4fe6 1B0F     		lsrs	r3, r3, #28
 7422 4fe8 43EA0113 		orr	r3, r3, r1, lsl #4
 7423 4fec 090F     		lsrs	r1, r1, #28
 7424 4fee 41EA0011 		orr	r1, r1, r0, lsl #4
 7425 4ff2 2B98     		ldr	r0, [sp, #172]
 7426 4ff4 2A9D     		ldr	r5, [sp, #168]
 7427 4ff6 8007     		lsls	r0, r0, #30
 7428 4ff8 40EA9500 		orr	r0, r0, r5, lsr #2
 7429 4ffc 4FEA857C 		lsl	ip, r5, #30
 7430 5000 2B9D     		ldr	r5, [sp, #172]
 7431 5002 4140     		eors	r1, r1, r0
 7432 5004 4CEA950C 		orr	ip, ip, r5, lsr #2
 7433 5008 6806     		lsls	r0, r5, #25
 7434 500a 2A9D     		ldr	r5, [sp, #168]
 7435 500c 83EA0C03 		eor	r3, r3, ip
 7436 5010 40EAD510 		orr	r0, r0, r5, lsr #7
 7437 5014 4FEA456C 		lsl	ip, r5, #25
 7438 5018 2B9D     		ldr	r5, [sp, #172]
 7439 501a 4140     		eors	r1, r1, r0
 7440 501c 4CEAD51C 		orr	ip, ip, r5, lsr #7
 7441 5020 2998     		ldr	r0, [sp, #164]
 7442 5022 269D     		ldr	r5, [sp, #152]
 7443 5024 83EA0C03 		eor	r3, r3, ip
 7444 5028 6840     		eors	r0, r0, r5
 7445 502a 2A9D     		ldr	r5, [sp, #168]
 7446 502c 2C93     		str	r3, [sp, #176]
 7447 502e 0EEA050E 		and	lr, lr, r5
 7448 5032 2B9D     		ldr	r5, [sp, #172]
 7449 5034 269B     		ldr	r3, [sp, #152]
 7450 5036 2840     		ands	r0, r0, r5
 7451 5038 299D     		ldr	r5, [sp, #164]
 7452 503a 0BEA090C 		and	ip, fp, r9
 7453 503e 05EA030A 		and	r10, r5, r3
 7454 5042 2C9B     		ldr	r3, [sp, #176]
 7455 5044 8EEA0C0C 		eor	ip, lr, ip
 7456 5048 13EB0C03 		adds	r3, r3, ip
 7457 504c 80EA0A00 		eor	r0, r0, r10
 7458 5050 41EB0000 		adc	r0, r1, r0
 7459 5054 2799     		ldr	r1, [sp, #156]
 7460 5056 289D     		ldr	r5, [sp, #160]
 7461 5058 0919     		adds	r1, r1, r4
 7462 505a 45EB0705 		adc	r5, r5, r7
 7463 505e E318     		adds	r3, r4, r3
 7464 5060 2793     		str	r3, [sp, #156]
 7465 5062 47EB0003 		adc	r3, r7, r0
 7466 5066 2893     		str	r3, [sp, #160]
 7467 5068 8F0B     		lsrs	r7, r1, #14
 7468 506a AB0B     		lsrs	r3, r5, #14
 7469 506c 8C0C     		lsrs	r4, r1, #18
 7470 506e A80C     		lsrs	r0, r5, #18
 7471 5070 44EA8534 		orr	r4, r4, r5, lsl #14
 7472 5074 40EA8130 		orr	r0, r0, r1, lsl #14
 7473 5078 47EA8547 		orr	r7, r7, r5, lsl #18
 7474 507c 43EA8143 		orr	r3, r3, r1, lsl #18
ARM GAS  /tmp/ccxnUvyY.s 			page 132


 7475 5080 6740     		eors	r7, r7, r4
 7476 5082 4340     		eors	r3, r3, r0
 7477 5084 CC05     		lsls	r4, r1, #23
 7478 5086 E805     		lsls	r0, r5, #23
 7479 5088 40EA5120 		orr	r0, r0, r1, lsr #9
 7480 508c 44EA5524 		orr	r4, r4, r5, lsr #9
 7481 5090 6740     		eors	r7, r7, r4
 7482 5092 4340     		eors	r3, r3, r0
 7483 5094 1B9C     		ldr	r4, [sp, #108]
 7484 5096 2448     		ldr	r0, .L46+24
 7485 5098 2F95     		str	r5, [sp, #188]
 7486 509a 2018     		adds	r0, r4, r0
 7487 509c 099D     		ldr	r5, [sp, #36]
 7488 509e 234C     		ldr	r4, .L46+28
 7489 50a0 44EB050C 		adc	ip, r4, r5
 7490 50a4 2D9C     		ldr	r4, [sp, #180]
 7491 50a6 2F9D     		ldr	r5, [sp, #188]
 7492 50a8 0019     		adds	r0, r0, r4
 7493 50aa 319C     		ldr	r4, [sp, #196]
 7494 50ac 44EB0C0C 		adc	ip, r4, ip
 7495 50b0 3F18     		adds	r7, r7, r0
 7496 50b2 2E98     		ldr	r0, [sp, #184]
 7497 50b4 43EB0C03 		adc	r3, r3, ip
 7498 50b8 20EA010E 		bic	lr, r0, r1
 7499 50bc 2F98     		ldr	r0, [sp, #188]
 7500 50be 08EA050C 		and	ip, r8, r5
 7501 50c2 26EA0004 		bic	r4, r6, r0
 7502 50c6 02EA0100 		and	r0, r2, r1
 7503 50ca 8EEA0000 		eor	r0, lr, r0
 7504 50ce 3F18     		adds	r7, r7, r0
 7505 50d0 84EA0C04 		eor	r4, r4, ip
 7506 50d4 2798     		ldr	r0, [sp, #156]
 7507 50d6 43EB0403 		adc	r3, r3, r4
 7508 50da 289C     		ldr	r4, [sp, #160]
 7509 50dc 279D     		ldr	r5, [sp, #156]
 7510 50de 000F     		lsrs	r0, r0, #28
 7511 50e0 40EA0410 		orr	r0, r0, r4, lsl #4
 7512 50e4 240F     		lsrs	r4, r4, #28
 7513 50e6 44EA0514 		orr	r4, r4, r5, lsl #4
 7514 50ea 289D     		ldr	r5, [sp, #160]
 7515 50ec 4FEA857C 		lsl	ip, r5, #30
 7516 50f0 279D     		ldr	r5, [sp, #156]
 7517 50f2 4CEA950C 		orr	ip, ip, r5, lsr #2
 7518 50f6 4FEA857E 		lsl	lr, r5, #30
 7519 50fa 289D     		ldr	r5, [sp, #160]
 7520 50fc 84EA0C04 		eor	r4, r4, ip
 7521 5100 4EEA950E 		orr	lr, lr, r5, lsr #2
 7522 5104 4FEA456C 		lsl	ip, r5, #25
 7523 5108 279D     		ldr	r5, [sp, #156]
 7524 510a 80EA0E00 		eor	r0, r0, lr
 7525 510e 0FE0     		b	.L47
 7526              	.L48:
 7527              		.align	2
 7528              	.L46:
 7529 5110 C8D0D2B8 		.word	-1194143544
 7530 5114 16C1A419 		.word	430227734
 7531 5118 53AB4151 		.word	1363258195
ARM GAS  /tmp/ccxnUvyY.s 			page 133


 7532 511c 086C371E 		.word	506948616
 7533 5120 99EB8EDF 		.word	-544281703
 7534 5124 4C774827 		.word	659060556
 7535 5128 A8489BE1 		.word	-509917016
 7536 512c B5BCB034 		.word	883997877
 7537              	.L47:
 7538 5130 4CEAD51C 		orr	ip, ip, r5, lsr #7
 7539 5134 4FEA456E 		lsl	lr, r5, #25
 7540 5138 289D     		ldr	r5, [sp, #160]
 7541 513a 84EA0C04 		eor	r4, r4, ip
 7542 513e 4EEAD51E 		orr	lr, lr, r5, lsr #7
 7543 5142 80EA0E00 		eor	r0, r0, lr
 7544 5146 2C90     		str	r0, [sp, #176]
 7545 5148 2A9D     		ldr	r5, [sp, #168]
 7546 514a 2B98     		ldr	r0, [sp, #172]
 7547 514c 89EA050E 		eor	lr, r9, r5
 7548 5150 269D     		ldr	r5, [sp, #152]
 7549 5152 85EA000C 		eor	ip, r5, r0
 7550 5156 2798     		ldr	r0, [sp, #156]
 7551 5158 0EEA0000 		and	r0, lr, r0
 7552 515c 2D90     		str	r0, [sp, #180]
 7553 515e 2898     		ldr	r0, [sp, #160]
 7554 5160 0CEA000C 		and	ip, ip, r0
 7555 5164 2A98     		ldr	r0, [sp, #168]
 7556 5166 09EA000E 		and	lr, r9, r0
 7557 516a 2846     		mov	r0, r5
 7558 516c 2B9D     		ldr	r5, [sp, #172]
 7559 516e 00EA050A 		and	r10, r0, r5
 7560 5172 2D98     		ldr	r0, [sp, #180]
 7561 5174 8CEA0A0C 		eor	ip, ip, r10
 7562 5178 80EA0E0E 		eor	lr, r0, lr
 7563 517c 2C98     		ldr	r0, [sp, #176]
 7564 517e 2F9D     		ldr	r5, [sp, #188]
 7565 5180 10EB0E00 		adds	r0, r0, lr
 7566 5184 44EB0C0C 		adc	ip, r4, ip
 7567 5188 299C     		ldr	r4, [sp, #164]
 7568 518a 1BEB070E 		adds	lr, fp, r7
 7569 518e 44EB030A 		adc	r10, r4, r3
 7570 5192 3818     		adds	r0, r7, r0
 7571 5194 43EB0C03 		adc	r3, r3, ip
 7572 5198 2C93     		str	r3, [sp, #176]
 7573 519a 4FEA9E37 		lsr	r7, lr, #14
 7574 519e 4FEA9E43 		lsr	r3, lr, #18
 7575 51a2 47EA8A47 		orr	r7, r7, r10, lsl #18
 7576 51a6 43EA8A34 		orr	r4, r3, r10, lsl #14
 7577 51aa 2990     		str	r0, [sp, #164]
 7578 51ac 87EA0403 		eor	r3, r7, r4
 7579 51b0 4FEA9A3C 		lsr	ip, r10, #14
 7580 51b4 4FEA9A40 		lsr	r0, r10, #18
 7581 51b8 4FEACE57 		lsl	r7, lr, #23
 7582 51bc 40EA8E30 		orr	r0, r0, lr, lsl #14
 7583 51c0 4CEA8E4C 		orr	ip, ip, lr, lsl #18
 7584 51c4 47EA5A27 		orr	r7, r7, r10, lsr #9
 7585 51c8 5F40     		eors	r7, r7, r3
 7586 51ca 8CEA000C 		eor	ip, ip, r0
 7587 51ce 1C9B     		ldr	r3, [sp, #112]
 7588 51d0 4FEACA50 		lsl	r0, r10, #23
ARM GAS  /tmp/ccxnUvyY.s 			page 134


 7589 51d4 D04C     		ldr	r4, .L49
 7590 51d6 40EA5E20 		orr	r0, r0, lr, lsr #9
 7591 51da 1C19     		adds	r4, r3, r4
 7592 51dc 8CEA000C 		eor	ip, ip, r0
 7593 51e0 0A9B     		ldr	r3, [sp, #40]
 7594 51e2 CE48     		ldr	r0, .L49+4
 7595 51e4 05EA0A05 		and	r5, r5, r10
 7596 51e8 40EB0300 		adc	r0, r0, r3
 7597 51ec 2E9B     		ldr	r3, [sp, #184]
 7598 51ee E318     		adds	r3, r4, r3
 7599 51f0 46EB0006 		adc	r6, r6, r0
 7600 51f4 FB18     		adds	r3, r7, r3
 7601 51f6 01EA0E00 		and	r0, r1, lr
 7602 51fa 22EA0E07 		bic	r7, r2, lr
 7603 51fe 80EA0700 		eor	r0, r0, r7
 7604 5202 4CEB0606 		adc	r6, ip, r6
 7605 5206 1B18     		adds	r3, r3, r0
 7606 5208 2998     		ldr	r0, [sp, #164]
 7607 520a 28EA0A04 		bic	r4, r8, r10
 7608 520e 84EA0504 		eor	r4, r4, r5
 7609 5212 4FEA1075 		lsr	r5, r0, #28
 7610 5216 2C98     		ldr	r0, [sp, #176]
 7611 5218 46EB0406 		adc	r6, r6, r4
 7612 521c 299C     		ldr	r4, [sp, #164]
 7613 521e 45EA0015 		orr	r5, r5, r0, lsl #4
 7614 5222 000F     		lsrs	r0, r0, #28
 7615 5224 40EA0410 		orr	r0, r0, r4, lsl #4
 7616 5228 2C9C     		ldr	r4, [sp, #176]
 7617 522a 299F     		ldr	r7, [sp, #164]
 7618 522c 2D93     		str	r3, [sp, #180]
 7619 522e A407     		lsls	r4, r4, #30
 7620 5230 2C9B     		ldr	r3, [sp, #176]
 7621 5232 44EA9704 		orr	r4, r4, r7, lsr #2
 7622 5236 BF07     		lsls	r7, r7, #30
 7623 5238 47EA9307 		orr	r7, r7, r3, lsr #2
 7624 523c 6040     		eors	r0, r0, r4
 7625 523e 5C06     		lsls	r4, r3, #25
 7626 5240 299B     		ldr	r3, [sp, #164]
 7627 5242 7D40     		eors	r5, r5, r7
 7628 5244 44EAD314 		orr	r4, r4, r3, lsr #7
 7629 5248 5F06     		lsls	r7, r3, #25
 7630 524a 2C9B     		ldr	r3, [sp, #176]
 7631 524c 6040     		eors	r0, r0, r4
 7632 524e 47EAD317 		orr	r7, r7, r3, lsr #7
 7633 5252 279C     		ldr	r4, [sp, #156]
 7634 5254 2A9B     		ldr	r3, [sp, #168]
 7635 5256 7D40     		eors	r5, r5, r7
 7636 5258 5C40     		eors	r4, r4, r3
 7637 525a 289F     		ldr	r7, [sp, #160]
 7638 525c 2B9B     		ldr	r3, [sp, #172]
 7639 525e 83EA070C 		eor	ip, r3, r7
 7640 5262 299B     		ldr	r3, [sp, #164]
 7641 5264 1C40     		ands	r4, r4, r3
 7642 5266 2C9B     		ldr	r3, [sp, #176]
 7643 5268 0CEA030C 		and	ip, ip, r3
 7644 526c 2A9B     		ldr	r3, [sp, #168]
 7645 526e 279F     		ldr	r7, [sp, #156]
ARM GAS  /tmp/ccxnUvyY.s 			page 135


 7646 5270 03EA070B 		and	fp, r3, r7
 7647 5274 2B9B     		ldr	r3, [sp, #172]
 7648 5276 289F     		ldr	r7, [sp, #160]
 7649 5278 84EA0B04 		eor	r4, r4, fp
 7650 527c 1F40     		ands	r7, r7, r3
 7651 527e 2D9B     		ldr	r3, [sp, #180]
 7652 5280 2C19     		adds	r4, r5, r4
 7653 5282 8CEA0707 		eor	r7, ip, r7
 7654 5286 40EB0707 		adc	r7, r0, r7
 7655 528a 19EB0309 		adds	r9, r9, r3
 7656 528e 269B     		ldr	r3, [sp, #152]
 7657 5290 0B9D     		ldr	r5, [sp, #44]
 7658 5292 43EB060C 		adc	ip, r3, r6
 7659 5296 2D9B     		ldr	r3, [sp, #180]
 7660 5298 4FEA9C40 		lsr	r0, ip, #18
 7661 529c 1B19     		adds	r3, r3, r4
 7662 529e 2693     		str	r3, [sp, #152]
 7663 52a0 46EB0703 		adc	r3, r6, r7
 7664 52a4 2D93     		str	r3, [sp, #180]
 7665 52a6 4FEA9C37 		lsr	r7, ip, #14
 7666 52aa 4FEA9933 		lsr	r3, r9, #14
 7667 52ae 4FEA9944 		lsr	r4, r9, #18
 7668 52b2 44EA8C34 		orr	r4, r4, ip, lsl #14
 7669 52b6 40EA8930 		orr	r0, r0, r9, lsl #14
 7670 52ba 43EA8C43 		orr	r3, r3, ip, lsl #18
 7671 52be 47EA8947 		orr	r7, r7, r9, lsl #18
 7672 52c2 6340     		eors	r3, r3, r4
 7673 52c4 4740     		eors	r7, r7, r0
 7674 52c6 4FEAC954 		lsl	r4, r9, #23
 7675 52ca 4FEACC50 		lsl	r0, ip, #23
 7676 52ce 40EA5920 		orr	r0, r0, r9, lsr #9
 7677 52d2 44EA5C24 		orr	r4, r4, ip, lsr #9
 7678 52d6 6340     		eors	r3, r3, r4
 7679 52d8 4740     		eors	r7, r7, r0
 7680 52da 914C     		ldr	r4, .L49+8
 7681 52dc 1D98     		ldr	r0, [sp, #116]
 7682 52de 2D9E     		ldr	r6, [sp, #180]
 7683 52e0 0419     		adds	r4, r0, r4
 7684 52e2 9048     		ldr	r0, .L49+12
 7685 52e4 40EB0500 		adc	r0, r0, r5
 7686 52e8 A218     		adds	r2, r4, r2
 7687 52ea 48EB0008 		adc	r8, r8, r0
 7688 52ee 9A18     		adds	r2, r3, r2
 7689 52f0 2F9B     		ldr	r3, [sp, #188]
 7690 52f2 21EA0905 		bic	r5, r1, r9
 7691 52f6 23EA0C00 		bic	r0, r3, ip
 7692 52fa 0EEA0903 		and	r3, lr, r9
 7693 52fe 83EA0503 		eor	r3, r3, r5
 7694 5302 47EB0808 		adc	r8, r7, r8
 7695 5306 D218     		adds	r2, r2, r3
 7696 5308 269B     		ldr	r3, [sp, #152]
 7697 530a 0AEA0C04 		and	r4, r10, ip
 7698 530e 80EA0400 		eor	r0, r0, r4
 7699 5312 4FEA1374 		lsr	r4, r3, #28
 7700 5316 2D9B     		ldr	r3, [sp, #180]
 7701 5318 48EB0008 		adc	r8, r8, r0
 7702 531c 2698     		ldr	r0, [sp, #152]
ARM GAS  /tmp/ccxnUvyY.s 			page 136


 7703 531e 44EA0314 		orr	r4, r4, r3, lsl #4
 7704 5322 1B0F     		lsrs	r3, r3, #28
 7705 5324 43EA0013 		orr	r3, r3, r0, lsl #4
 7706 5328 2D98     		ldr	r0, [sp, #180]
 7707 532a 269D     		ldr	r5, [sp, #152]
 7708 532c 8007     		lsls	r0, r0, #30
 7709 532e 40EA9500 		orr	r0, r0, r5, lsr #2
 7710 5332 AD07     		lsls	r5, r5, #30
 7711 5334 45EA9605 		orr	r5, r5, r6, lsr #2
 7712 5338 6C40     		eors	r4, r4, r5
 7713 533a 269D     		ldr	r5, [sp, #152]
 7714 533c 4340     		eors	r3, r3, r0
 7715 533e 7006     		lsls	r0, r6, #25
 7716 5340 40EAD510 		orr	r0, r0, r5, lsr #7
 7717 5344 6D06     		lsls	r5, r5, #25
 7718 5346 45EAD615 		orr	r5, r5, r6, lsr #7
 7719 534a 83EA000B 		eor	fp, r3, r0
 7720 534e 6C40     		eors	r4, r4, r5
 7721 5350 2798     		ldr	r0, [sp, #156]
 7722 5352 299D     		ldr	r5, [sp, #164]
 7723 5354 2C9E     		ldr	r6, [sp, #176]
 7724 5356 6840     		eors	r0, r0, r5
 7725 5358 289D     		ldr	r5, [sp, #160]
 7726 535a 299F     		ldr	r7, [sp, #164]
 7727 535c 6E40     		eors	r6, r6, r5
 7728 535e 269D     		ldr	r5, [sp, #152]
 7729 5360 2C9B     		ldr	r3, [sp, #176]
 7730 5362 2840     		ands	r0, r0, r5
 7731 5364 2D9D     		ldr	r5, [sp, #180]
 7732 5366 2E40     		ands	r6, r6, r5
 7733 5368 279D     		ldr	r5, [sp, #156]
 7734 536a 2F40     		ands	r7, r7, r5
 7735 536c 289D     		ldr	r5, [sp, #160]
 7736 536e 7840     		eors	r0, r0, r7
 7737 5370 1D40     		ands	r5, r5, r3
 7738 5372 2A9B     		ldr	r3, [sp, #168]
 7739 5374 2018     		adds	r0, r4, r0
 7740 5376 85EA0605 		eor	r5, r5, r6
 7741 537a 4BEB0506 		adc	r6, fp, r5
 7742 537e 9B18     		adds	r3, r3, r2
 7743 5380 2E93     		str	r3, [sp, #184]
 7744 5382 2B9B     		ldr	r3, [sp, #172]
 7745 5384 43EB0805 		adc	r5, r3, r8
 7746 5388 1318     		adds	r3, r2, r0
 7747 538a 2A93     		str	r3, [sp, #168]
 7748 538c 48EB0603 		adc	r3, r8, r6
 7749 5390 2B93     		str	r3, [sp, #172]
 7750 5392 2E9B     		ldr	r3, [sp, #184]
 7751 5394 2E9C     		ldr	r4, [sp, #184]
 7752 5396 A80B     		lsrs	r0, r5, #14
 7753 5398 9A0B     		lsrs	r2, r3, #14
 7754 539a 40EA8340 		orr	r0, r0, r3, lsl #18
 7755 539e 9E0C     		lsrs	r6, r3, #18
 7756 53a0 AB0C     		lsrs	r3, r5, #18
 7757 53a2 46EA8536 		orr	r6, r6, r5, lsl #14
 7758 53a6 43EA8433 		orr	r3, r3, r4, lsl #14
 7759 53aa 42EA8542 		orr	r2, r2, r5, lsl #18
ARM GAS  /tmp/ccxnUvyY.s 			page 137


 7760 53ae 7240     		eors	r2, r2, r6
 7761 53b0 5840     		eors	r0, r0, r3
 7762 53b2 E605     		lsls	r6, r4, #23
 7763 53b4 EB05     		lsls	r3, r5, #23
 7764 53b6 43EA5423 		orr	r3, r3, r4, lsr #9
 7765 53ba 46EA5526 		orr	r6, r6, r5, lsr #9
 7766 53be 7240     		eors	r2, r2, r6
 7767 53c0 5840     		eors	r0, r0, r3
 7768 53c2 1E9E     		ldr	r6, [sp, #120]
 7769 53c4 584B     		ldr	r3, .L49+16
 7770 53c6 0C9F     		ldr	r7, [sp, #48]
 7771 53c8 F318     		adds	r3, r6, r3
 7772 53ca 584E     		ldr	r6, .L49+20
 7773 53cc 46EB0706 		adc	r6, r6, r7
 7774 53d0 5918     		adds	r1, r3, r1
 7775 53d2 2F9B     		ldr	r3, [sp, #188]
 7776 53d4 2B9F     		ldr	r7, [sp, #172]
 7777 53d6 43EB060B 		adc	fp, r3, r6
 7778 53da 2EEA0406 		bic	r6, lr, r4
 7779 53de 09EA0403 		and	r3, r9, r4
 7780 53e2 5118     		adds	r1, r2, r1
 7781 53e4 83EA0603 		eor	r3, r3, r6
 7782 53e8 40EB0B0B 		adc	fp, r0, fp
 7783 53ec C918     		adds	r1, r1, r3
 7784 53ee 2A9B     		ldr	r3, [sp, #168]
 7785 53f0 0CEA0500 		and	r0, ip, r5
 7786 53f4 2AEA0502 		bic	r2, r10, r5
 7787 53f8 82EA0002 		eor	r2, r2, r0
 7788 53fc 4FEA1370 		lsr	r0, r3, #28
 7789 5400 2B9B     		ldr	r3, [sp, #172]
 7790 5402 4BEB020B 		adc	fp, fp, r2
 7791 5406 2A9A     		ldr	r2, [sp, #168]
 7792 5408 40EA0310 		orr	r0, r0, r3, lsl #4
 7793 540c 1B0F     		lsrs	r3, r3, #28
 7794 540e 43EA0213 		orr	r3, r3, r2, lsl #4
 7795 5412 2B9A     		ldr	r2, [sp, #172]
 7796 5414 2A9E     		ldr	r6, [sp, #168]
 7797 5416 9207     		lsls	r2, r2, #30
 7798 5418 42EA9602 		orr	r2, r2, r6, lsr #2
 7799 541c B607     		lsls	r6, r6, #30
 7800 541e 46EA9706 		orr	r6, r6, r7, lsr #2
 7801 5422 7040     		eors	r0, r0, r6
 7802 5424 2A9E     		ldr	r6, [sp, #168]
 7803 5426 5340     		eors	r3, r3, r2
 7804 5428 7A06     		lsls	r2, r7, #25
 7805 542a 42EAD612 		orr	r2, r2, r6, lsr #7
 7806 542e 7606     		lsls	r6, r6, #25
 7807 5430 46EAD716 		orr	r6, r6, r7, lsr #7
 7808 5434 7040     		eors	r0, r0, r6
 7809 5436 5340     		eors	r3, r3, r2
 7810 5438 269E     		ldr	r6, [sp, #152]
 7811 543a 299A     		ldr	r2, [sp, #164]
 7812 543c 269C     		ldr	r4, [sp, #152]
 7813 543e 7240     		eors	r2, r2, r6
 7814 5440 DDE92C67 		ldrd	r6, r7, [sp, #176]
 7815 5444 7740     		eors	r7, r7, r6
 7816 5446 2A9E     		ldr	r6, [sp, #168]
ARM GAS  /tmp/ccxnUvyY.s 			page 138


 7817 5448 3240     		ands	r2, r2, r6
 7818 544a 2B9E     		ldr	r6, [sp, #172]
 7819 544c 3740     		ands	r7, r7, r6
 7820 544e 299E     		ldr	r6, [sp, #164]
 7821 5450 06EA0408 		and	r8, r6, r4
 7822 5454 82EA0802 		eor	r2, r2, r8
 7823 5458 DDE92C46 		ldrd	r4, r6, [sp, #176]
 7824 545c 2640     		ands	r6, r6, r4
 7825 545e 8218     		adds	r2, r0, r2
 7826 5460 86EA0706 		eor	r6, r6, r7
 7827 5464 43EB0606 		adc	r6, r3, r6
 7828 5468 279B     		ldr	r3, [sp, #156]
 7829 546a 2898     		ldr	r0, [sp, #160]
 7830 546c 5B18     		adds	r3, r3, r1
 7831 546e 40EB0B00 		adc	r0, r0, fp
 7832 5472 8A18     		adds	r2, r1, r2
 7833 5474 2792     		str	r2, [sp, #156]
 7834 5476 4BEB0602 		adc	r2, fp, r6
 7835 547a 2892     		str	r2, [sp, #160]
 7836 547c 860B     		lsrs	r6, r0, #14
 7837 547e 820C     		lsrs	r2, r0, #18
 7838 5480 42EA8332 		orr	r2, r2, r3, lsl #14
 7839 5484 46EA8346 		orr	r6, r6, r3, lsl #18
 7840 5488 990B     		lsrs	r1, r3, #14
 7841 548a 9F0C     		lsrs	r7, r3, #18
 7842 548c 5640     		eors	r6, r6, r2
 7843 548e C205     		lsls	r2, r0, #23
 7844 5490 47EA8037 		orr	r7, r7, r0, lsl #14
 7845 5494 42EA5322 		orr	r2, r2, r3, lsr #9
 7846 5498 41EA8041 		orr	r1, r1, r0, lsl #18
 7847 549c 1F9C     		ldr	r4, [sp, #124]
 7848 549e 5640     		eors	r6, r6, r2
 7849 54a0 7940     		eors	r1, r1, r7
 7850 54a2 234A     		ldr	r2, .L49+24
 7851 54a4 DF05     		lsls	r7, r3, #23
 7852 54a6 47EA5027 		orr	r7, r7, r0, lsr #9
 7853 54aa A218     		adds	r2, r4, r2
 7854 54ac 81EA0701 		eor	r1, r1, r7
 7855 54b0 0D9C     		ldr	r4, [sp, #52]
 7856 54b2 204F     		ldr	r7, .L49+28
 7857 54b4 47EB0407 		adc	r7, r7, r4
 7858 54b8 12EB0E0E 		adds	lr, r2, lr
 7859 54bc 2E9A     		ldr	r2, [sp, #184]
 7860 54be 4AEB070A 		adc	r10, r10, r7
 7861 54c2 1A40     		ands	r2, r2, r3
 7862 54c4 29EA0307 		bic	r7, r9, r3
 7863 54c8 11EB0E0E 		adds	lr, r1, lr
 7864 54cc 82EA0702 		eor	r2, r2, r7
 7865 54d0 46EB0A0A 		adc	r10, r6, r10
 7866 54d4 1EEB020E 		adds	lr, lr, r2
 7867 54d8 279A     		ldr	r2, [sp, #156]
 7868 54da 05EA0006 		and	r6, r5, r0
 7869 54de 2CEA0001 		bic	r1, ip, r0
 7870 54e2 81EA0601 		eor	r1, r1, r6
 7871 54e6 4FEA1276 		lsr	r6, r2, #28
 7872 54ea 289A     		ldr	r2, [sp, #160]
 7873 54ec 4AEB010A 		adc	r10, r10, r1
ARM GAS  /tmp/ccxnUvyY.s 			page 139


 7874 54f0 2799     		ldr	r1, [sp, #156]
 7875 54f2 46EA0216 		orr	r6, r6, r2, lsl #4
 7876 54f6 120F     		lsrs	r2, r2, #28
 7877 54f8 42EA0112 		orr	r2, r2, r1, lsl #4
 7878 54fc 2899     		ldr	r1, [sp, #160]
 7879 54fe 279C     		ldr	r4, [sp, #156]
 7880 5500 8907     		lsls	r1, r1, #30
 7881 5502 41EA9401 		orr	r1, r1, r4, lsr #2
 7882 5506 A707     		lsls	r7, r4, #30
 7883 5508 289C     		ldr	r4, [sp, #160]
 7884 550a 4A40     		eors	r2, r2, r1
 7885 550c 47EA9407 		orr	r7, r7, r4, lsr #2
 7886 5510 6106     		lsls	r1, r4, #25
 7887 5512 279C     		ldr	r4, [sp, #156]
 7888 5514 7E40     		eors	r6, r6, r7
 7889 5516 0FE0     		b	.L50
 7890              	.L51:
 7891              		.align	2
 7892              	.L49:
 7893 5518 635AC9C5 		.word	-976659869
 7894 551c B30C1C39 		.word	958139571
 7895 5520 CB8A41E3 		.word	-482243893
 7896 5524 4AAAD84E 		.word	1322822218
 7897 5528 73E36377 		.word	2003034995
 7898 552c 4FCA9C5B 		.word	1537002063
 7899 5530 A3B8B2D6 		.word	-692930397
 7900 5534 F36F2E68 		.word	1747873779
 7901              	.L50:
 7902 5538 41EAD411 		orr	r1, r1, r4, lsr #7
 7903 553c 6706     		lsls	r7, r4, #25
 7904 553e 289C     		ldr	r4, [sp, #160]
 7905 5540 4A40     		eors	r2, r2, r1
 7906 5542 47EAD417 		orr	r7, r7, r4, lsr #7
 7907 5546 2699     		ldr	r1, [sp, #152]
 7908 5548 2A9C     		ldr	r4, [sp, #168]
 7909 554a 7E40     		eors	r6, r6, r7
 7910 554c 6140     		eors	r1, r1, r4
 7911 554e 2B9F     		ldr	r7, [sp, #172]
 7912 5550 2D9C     		ldr	r4, [sp, #180]
 7913 5552 84EA0708 		eor	r8, r4, r7
 7914 5556 279C     		ldr	r4, [sp, #156]
 7915 5558 2A9F     		ldr	r7, [sp, #168]
 7916 555a 2140     		ands	r1, r1, r4
 7917 555c 289C     		ldr	r4, [sp, #160]
 7918 555e 08EA0408 		and	r8, r8, r4
 7919 5562 269C     		ldr	r4, [sp, #152]
 7920 5564 04EA070B 		and	fp, r4, r7
 7921 5568 2D9C     		ldr	r4, [sp, #180]
 7922 556a 2B9F     		ldr	r7, [sp, #172]
 7923 556c 81EA0B01 		eor	r1, r1, fp
 7924 5570 2740     		ands	r7, r7, r4
 7925 5572 299C     		ldr	r4, [sp, #164]
 7926 5574 7118     		adds	r1, r6, r1
 7927 5576 88EA0707 		eor	r7, r8, r7
 7928 557a 42EB0702 		adc	r2, r2, r7
 7929 557e 14EB0E04 		adds	r4, r4, lr
 7930 5582 2F94     		str	r4, [sp, #188]
ARM GAS  /tmp/ccxnUvyY.s 			page 140


 7931 5584 2C9C     		ldr	r4, [sp, #176]
 7932 5586 44EB0A08 		adc	r8, r4, r10
 7933 558a 1EEB0101 		adds	r1, lr, r1
 7934 558e 4AEB0202 		adc	r2, r10, r2
 7935 5592 2C92     		str	r2, [sp, #176]
 7936 5594 2F9A     		ldr	r2, [sp, #188]
 7937 5596 2F9C     		ldr	r4, [sp, #188]
 7938 5598 4FEA9836 		lsr	r6, r8, #14
 7939 559c 2991     		str	r1, [sp, #164]
 7940 559e 46EA8246 		orr	r6, r6, r2, lsl #18
 7941 55a2 910B     		lsrs	r1, r2, #14
 7942 55a4 4FEA924E 		lsr	lr, r2, #18
 7943 55a8 4FEA9842 		lsr	r2, r8, #18
 7944 55ac 42EA8432 		orr	r2, r2, r4, lsl #14
 7945 55b0 5640     		eors	r6, r6, r2
 7946 55b2 4FEAC852 		lsl	r2, r8, #23
 7947 55b6 4EEA883E 		orr	lr, lr, r8, lsl #14
 7948 55ba 42EA5422 		orr	r2, r2, r4, lsr #9
 7949 55be 41EA8841 		orr	r1, r1, r8, lsl #18
 7950 55c2 5640     		eors	r6, r6, r2
 7951 55c4 81EA0E01 		eor	r1, r1, lr
 7952 55c8 D24A     		ldr	r2, .L52
 7953 55ca 4FEAC45E 		lsl	lr, r4, #23
 7954 55ce 209C     		ldr	r4, [sp, #128]
 7955 55d0 4EEA582E 		orr	lr, lr, r8, lsr #9
 7956 55d4 A218     		adds	r2, r4, r2
 7957 55d6 81EA0E01 		eor	r1, r1, lr
 7958 55da 0E9C     		ldr	r4, [sp, #56]
 7959 55dc DFF84CE3 		ldr	lr, .L52+24
 7960 55e0 4EEB040E 		adc	lr, lr, r4
 7961 55e4 12EB0909 		adds	r9, r2, r9
 7962 55e8 4CEB0E0C 		adc	ip, ip, lr
 7963 55ec 11EB0909 		adds	r9, r1, r9
 7964 55f0 DDE92E21 		ldrd	r2, r1, [sp, #184]
 7965 55f4 22EA010E 		bic	lr, r2, r1
 7966 55f8 2F9A     		ldr	r2, [sp, #188]
 7967 55fa 46EB0C0C 		adc	ip, r6, ip
 7968 55fe 1A40     		ands	r2, r2, r3
 7969 5600 8EEA0202 		eor	r2, lr, r2
 7970 5604 19EB0209 		adds	r9, r9, r2
 7971 5608 299A     		ldr	r2, [sp, #164]
 7972 560a 00EA0806 		and	r6, r0, r8
 7973 560e 25EA0801 		bic	r1, r5, r8
 7974 5612 81EA0601 		eor	r1, r1, r6
 7975 5616 4FEA1276 		lsr	r6, r2, #28
 7976 561a 2C9A     		ldr	r2, [sp, #176]
 7977 561c 4CEB010C 		adc	ip, ip, r1
 7978 5620 2999     		ldr	r1, [sp, #164]
 7979 5622 46EA0216 		orr	r6, r6, r2, lsl #4
 7980 5626 120F     		lsrs	r2, r2, #28
 7981 5628 42EA0112 		orr	r2, r2, r1, lsl #4
 7982 562c 2C99     		ldr	r1, [sp, #176]
 7983 562e 299C     		ldr	r4, [sp, #164]
 7984 5630 8907     		lsls	r1, r1, #30
 7985 5632 41EA9401 		orr	r1, r1, r4, lsr #2
 7986 5636 4FEA847E 		lsl	lr, r4, #30
 7987 563a 2C9C     		ldr	r4, [sp, #176]
ARM GAS  /tmp/ccxnUvyY.s 			page 141


 7988 563c 4A40     		eors	r2, r2, r1
 7989 563e 4EEA940E 		orr	lr, lr, r4, lsr #2
 7990 5642 6106     		lsls	r1, r4, #25
 7991 5644 299C     		ldr	r4, [sp, #164]
 7992 5646 86EA0E06 		eor	r6, r6, lr
 7993 564a 41EAD411 		orr	r1, r1, r4, lsr #7
 7994 564e 4FEA446E 		lsl	lr, r4, #25
 7995 5652 2C9C     		ldr	r4, [sp, #176]
 7996 5654 4A40     		eors	r2, r2, r1
 7997 5656 4EEAD41E 		orr	lr, lr, r4, lsr #7
 7998 565a 2A99     		ldr	r1, [sp, #168]
 7999 565c 279C     		ldr	r4, [sp, #156]
 8000 565e 289F     		ldr	r7, [sp, #160]
 8001 5660 6140     		eors	r1, r1, r4
 8002 5662 2B9C     		ldr	r4, [sp, #172]
 8003 5664 86EA0E06 		eor	r6, r6, lr
 8004 5668 84EA070A 		eor	r10, r4, r7
 8005 566c 299C     		ldr	r4, [sp, #164]
 8006 566e 279F     		ldr	r7, [sp, #156]
 8007 5670 2140     		ands	r1, r1, r4
 8008 5672 2C9C     		ldr	r4, [sp, #176]
 8009 5674 0AEA040A 		and	r10, r10, r4
 8010 5678 2A9C     		ldr	r4, [sp, #168]
 8011 567a 04EA070B 		and	fp, r4, r7
 8012 567e 2B9C     		ldr	r4, [sp, #172]
 8013 5680 289F     		ldr	r7, [sp, #160]
 8014 5682 81EA0B01 		eor	r1, r1, fp
 8015 5686 04EA070E 		and	lr, r4, r7
 8016 568a 7118     		adds	r1, r6, r1
 8017 568c 8AEA0E0E 		eor	lr, r10, lr
 8018 5690 42EB0E0E 		adc	lr, r2, lr
 8019 5694 269A     		ldr	r2, [sp, #152]
 8020 5696 12EB090B 		adds	fp, r2, r9
 8021 569a 2D9A     		ldr	r2, [sp, #180]
 8022 569c 42EB0C02 		adc	r2, r2, ip
 8023 56a0 3092     		str	r2, [sp, #192]
 8024 56a2 19EB0102 		adds	r2, r9, r1
 8025 56a6 2692     		str	r2, [sp, #152]
 8026 56a8 3099     		ldr	r1, [sp, #192]
 8027 56aa 4CEB0E02 		adc	r2, ip, lr
 8028 56ae 309C     		ldr	r4, [sp, #192]
 8029 56b0 2D92     		str	r2, [sp, #180]
 8030 56b2 4FEA9B32 		lsr	r2, fp, #14
 8031 56b6 42EA8142 		orr	r2, r2, r1, lsl #18
 8032 56ba 4FEA913E 		lsr	lr, r1, #14
 8033 56be 4FEA9B41 		lsr	r1, fp, #18
 8034 56c2 41EA843A 		orr	r10, r1, r4, lsl #14
 8035 56c6 82EA0A01 		eor	r1, r2, r10
 8036 56ca 4FEA944C 		lsr	ip, r4, #18
 8037 56ce 4FEACB52 		lsl	r2, fp, #23
 8038 56d2 4EEA8B4E 		orr	lr, lr, fp, lsl #18
 8039 56d6 4CEA8B39 		orr	r9, ip, fp, lsl #14
 8040 56da 42EA5422 		orr	r2, r2, r4, lsr #9
 8041 56de 8EEA090C 		eor	ip, lr, r9
 8042 56e2 4A40     		eors	r2, r2, r1
 8043 56e4 4FEAC45E 		lsl	lr, r4, #23
 8044 56e8 8B49     		ldr	r1, .L52+4
ARM GAS  /tmp/ccxnUvyY.s 			page 142


 8045 56ea 219C     		ldr	r4, [sp, #132]
 8046 56ec 4EEA5B2E 		orr	lr, lr, fp, lsr #9
 8047 56f0 8CEA0E0E 		eor	lr, ip, lr
 8048 56f4 6118     		adds	r1, r4, r1
 8049 56f6 DFF838C2 		ldr	ip, .L52+28
 8050 56fa 0F9C     		ldr	r4, [sp, #60]
 8051 56fc 269F     		ldr	r7, [sp, #152]
 8052 56fe 4CEB040C 		adc	ip, ip, r4
 8053 5702 2E9C     		ldr	r4, [sp, #184]
 8054 5704 0919     		adds	r1, r1, r4
 8055 5706 45EB0C0C 		adc	ip, r5, ip
 8056 570a 5118     		adds	r1, r2, r1
 8057 570c 309A     		ldr	r2, [sp, #192]
 8058 570e 4EEB0C0C 		adc	ip, lr, ip
 8059 5712 20EA0205 		bic	r5, r0, r2
 8060 5716 2F9A     		ldr	r2, [sp, #188]
 8061 5718 23EA0B0E 		bic	lr, r3, fp
 8062 571c 02EA0B04 		and	r4, r2, fp
 8063 5720 309A     		ldr	r2, [sp, #192]
 8064 5722 8EEA0404 		eor	r4, lr, r4
 8065 5726 08EA0202 		and	r2, r8, r2
 8066 572a 5540     		eors	r5, r5, r2
 8067 572c 269A     		ldr	r2, [sp, #152]
 8068 572e 0919     		adds	r1, r1, r4
 8069 5730 4CEB050C 		adc	ip, ip, r5
 8070 5734 150F     		lsrs	r5, r2, #28
 8071 5736 2D9A     		ldr	r2, [sp, #180]
 8072 5738 269C     		ldr	r4, [sp, #152]
 8073 573a 45EA0215 		orr	r5, r5, r2, lsl #4
 8074 573e 120F     		lsrs	r2, r2, #28
 8075 5740 42EA0412 		orr	r2, r2, r4, lsl #4
 8076 5744 2D9C     		ldr	r4, [sp, #180]
 8077 5746 4FEA877E 		lsl	lr, r7, #30
 8078 574a A407     		lsls	r4, r4, #30
 8079 574c 44EA9704 		orr	r4, r4, r7, lsr #2
 8080 5750 2D9F     		ldr	r7, [sp, #180]
 8081 5752 6240     		eors	r2, r2, r4
 8082 5754 4EEA970E 		orr	lr, lr, r7, lsr #2
 8083 5758 7C06     		lsls	r4, r7, #25
 8084 575a 269F     		ldr	r7, [sp, #152]
 8085 575c 85EA0E05 		eor	r5, r5, lr
 8086 5760 44EAD714 		orr	r4, r4, r7, lsr #7
 8087 5764 4FEA476E 		lsl	lr, r7, #25
 8088 5768 2D9F     		ldr	r7, [sp, #180]
 8089 576a 6240     		eors	r2, r2, r4
 8090 576c 4EEAD71E 		orr	lr, lr, r7, lsr #7
 8091 5770 279C     		ldr	r4, [sp, #156]
 8092 5772 299F     		ldr	r7, [sp, #164]
 8093 5774 2C9E     		ldr	r6, [sp, #176]
 8094 5776 7C40     		eors	r4, r4, r7
 8095 5778 289F     		ldr	r7, [sp, #160]
 8096 577a 85EA0E05 		eor	r5, r5, lr
 8097 577e 87EA0609 		eor	r9, r7, r6
 8098 5782 269E     		ldr	r6, [sp, #152]
 8099 5784 299F     		ldr	r7, [sp, #164]
 8100 5786 3440     		ands	r4, r4, r6
 8101 5788 2D9E     		ldr	r6, [sp, #180]
ARM GAS  /tmp/ccxnUvyY.s 			page 143


 8102 578a 09EA0609 		and	r9, r9, r6
 8103 578e 279E     		ldr	r6, [sp, #156]
 8104 5790 06EA070A 		and	r10, r6, r7
 8105 5794 2C9F     		ldr	r7, [sp, #176]
 8106 5796 289E     		ldr	r6, [sp, #160]
 8107 5798 84EA0A04 		eor	r4, r4, r10
 8108 579c 06EA070E 		and	lr, r6, r7
 8109 57a0 2C19     		adds	r4, r5, r4
 8110 57a2 89EA0E0E 		eor	lr, r9, lr
 8111 57a6 42EB0E0E 		adc	lr, r2, lr
 8112 57aa 2A9A     		ldr	r2, [sp, #168]
 8113 57ac 2B9D     		ldr	r5, [sp, #172]
 8114 57ae 5218     		adds	r2, r2, r1
 8115 57b0 45EB0C05 		adc	r5, r5, ip
 8116 57b4 0919     		adds	r1, r1, r4
 8117 57b6 2A91     		str	r1, [sp, #168]
 8118 57b8 4CEB0E01 		adc	r1, ip, lr
 8119 57bc 2B91     		str	r1, [sp, #172]
 8120 57be 4FEA953A 		lsr	r10, r5, #14
 8121 57c2 A90C     		lsrs	r1, r5, #18
 8122 57c4 41EA8231 		orr	r1, r1, r2, lsl #14
 8123 57c8 4FEA923E 		lsr	lr, r2, #14
 8124 57cc 4AEA824A 		orr	r10, r10, r2, lsl #18
 8125 57d0 940C     		lsrs	r4, r2, #18
 8126 57d2 44EA8534 		orr	r4, r4, r5, lsl #14
 8127 57d6 4EEA854E 		orr	lr, lr, r5, lsl #18
 8128 57da 8AEA010A 		eor	r10, r10, r1
 8129 57de D105     		lsls	r1, r2, #23
 8130 57e0 41EA5521 		orr	r1, r1, r5, lsr #9
 8131 57e4 8EEA040E 		eor	lr, lr, r4
 8132 57e8 8EEA010E 		eor	lr, lr, r1
 8133 57ec 4B4C     		ldr	r4, .L52+8
 8134 57ee 2299     		ldr	r1, [sp, #136]
 8135 57f0 109E     		ldr	r6, [sp, #64]
 8136 57f2 0C19     		adds	r4, r1, r4
 8137 57f4 4FEAC55C 		lsl	ip, r5, #23
 8138 57f8 4949     		ldr	r1, .L52+12
 8139 57fa 4CEA522C 		orr	ip, ip, r2, lsr #9
 8140 57fe 8AEA0C0A 		eor	r10, r10, ip
 8141 5802 41EB060C 		adc	ip, r1, r6
 8142 5806 2F99     		ldr	r1, [sp, #188]
 8143 5808 E318     		adds	r3, r4, r3
 8144 580a 40EB0C00 		adc	r0, r0, ip
 8145 580e 1EEB0303 		adds	r3, lr, r3
 8146 5812 21EA020E 		bic	lr, r1, r2
 8147 5816 0BEA0201 		and	r1, fp, r2
 8148 581a 8EEA0101 		eor	r1, lr, r1
 8149 581e 309C     		ldr	r4, [sp, #192]
 8150 5820 4AEB0000 		adc	r0, r10, r0
 8151 5824 5B18     		adds	r3, r3, r1
 8152 5826 2A99     		ldr	r1, [sp, #168]
 8153 5828 28EA050C 		bic	ip, r8, r5
 8154 582c 04EA0504 		and	r4, r4, r5
 8155 5830 8CEA040C 		eor	ip, ip, r4
 8156 5834 4FEA1174 		lsr	r4, r1, #28
 8157 5838 2B99     		ldr	r1, [sp, #172]
 8158 583a 40EB0C0C 		adc	ip, r0, ip
ARM GAS  /tmp/ccxnUvyY.s 			page 144


 8159 583e 2A98     		ldr	r0, [sp, #168]
 8160 5840 44EA0114 		orr	r4, r4, r1, lsl #4
 8161 5844 090F     		lsrs	r1, r1, #28
 8162 5846 41EA0011 		orr	r1, r1, r0, lsl #4
 8163 584a 2B98     		ldr	r0, [sp, #172]
 8164 584c 2A9E     		ldr	r6, [sp, #168]
 8165 584e 8007     		lsls	r0, r0, #30
 8166 5850 40EA9600 		orr	r0, r0, r6, lsr #2
 8167 5854 4FEA867E 		lsl	lr, r6, #30
 8168 5858 2B9E     		ldr	r6, [sp, #172]
 8169 585a 4140     		eors	r1, r1, r0
 8170 585c 4EEA960E 		orr	lr, lr, r6, lsr #2
 8171 5860 7006     		lsls	r0, r6, #25
 8172 5862 2A9E     		ldr	r6, [sp, #168]
 8173 5864 84EA0E04 		eor	r4, r4, lr
 8174 5868 40EAD610 		orr	r0, r0, r6, lsr #7
 8175 586c 4FEA466E 		lsl	lr, r6, #25
 8176 5870 2B9E     		ldr	r6, [sp, #172]
 8177 5872 4140     		eors	r1, r1, r0
 8178 5874 4EEAD61E 		orr	lr, lr, r6, lsr #7
 8179 5878 2998     		ldr	r0, [sp, #164]
 8180 587a 269E     		ldr	r6, [sp, #152]
 8181 587c 84EA0E04 		eor	r4, r4, lr
 8182 5880 7040     		eors	r0, r0, r6
 8183 5882 3E46     		mov	r6, r7
 8184 5884 2D9F     		ldr	r7, [sp, #180]
 8185 5886 86EA0709 		eor	r9, r6, r7
 8186 588a 2A9E     		ldr	r6, [sp, #168]
 8187 588c 269F     		ldr	r7, [sp, #152]
 8188 588e 3040     		ands	r0, r0, r6
 8189 5890 2B9E     		ldr	r6, [sp, #172]
 8190 5892 09EA0609 		and	r9, r9, r6
 8191 5896 299E     		ldr	r6, [sp, #164]
 8192 5898 06EA070A 		and	r10, r6, r7
 8193 589c 80EA0A00 		eor	r0, r0, r10
 8194 58a0 DDE92C67 		ldrd	r6, r7, [sp, #176]
 8195 58a4 06EA070E 		and	lr, r6, r7
 8196 58a8 2018     		adds	r0, r4, r0
 8197 58aa 89EA0E0E 		eor	lr, r9, lr
 8198 58ae 41EB0E0E 		adc	lr, r1, lr
 8199 58b2 2799     		ldr	r1, [sp, #156]
 8200 58b4 289C     		ldr	r4, [sp, #160]
 8201 58b6 C918     		adds	r1, r1, r3
 8202 58b8 44EB0C09 		adc	r9, r4, ip
 8203 58bc 1B18     		adds	r3, r3, r0
 8204 58be 2793     		str	r3, [sp, #156]
 8205 58c0 4FEA9144 		lsr	r4, r1, #18
 8206 58c4 4CEB0E03 		adc	r3, ip, lr
 8207 58c8 4FEA993A 		lsr	r10, r9, #14
 8208 58cc 4FEA994C 		lsr	ip, r9, #18
 8209 58d0 4FEA913E 		lsr	lr, r1, #14
 8210 58d4 2893     		str	r3, [sp, #160]
 8211 58d6 4EEA894E 		orr	lr, lr, r9, lsl #18
 8212 58da 4AEA814A 		orr	r10, r10, r1, lsl #18
 8213 58de 44EA8930 		orr	r0, r4, r9, lsl #14
 8214 58e2 4CEA8133 		orr	r3, ip, r1, lsl #14
 8215 58e6 8EEA0004 		eor	r4, lr, r0
ARM GAS  /tmp/ccxnUvyY.s 			page 145


 8216 58ea 8AEA030C 		eor	ip, r10, r3
 8217 58ee 4FEAC15E 		lsl	lr, r1, #23
 8218 58f2 239B     		ldr	r3, [sp, #140]
 8219 58f4 0B48     		ldr	r0, .L52+16
 8220 58f6 4EEA592E 		orr	lr, lr, r9, lsr #9
 8221 58fa 1818     		adds	r0, r3, r0
 8222 58fc 84EA0E0E 		eor	lr, r4, lr
 8223 5900 094B     		ldr	r3, .L52+20
 8224 5902 119C     		ldr	r4, [sp, #68]
 8225 5904 4FEAC95A 		lsl	r10, r9, #23
 8226 5908 4AEA512A 		orr	r10, r10, r1, lsr #9
 8227 590c 8CEA0A0A 		eor	r10, ip, r10
 8228 5910 10E0     		b	.L53
 8229              	.L54:
 8230 5912 00BF     		.align	2
 8231              	.L52:
 8232 5914 FCB2EF5D 		.word	1575990012
 8233 5918 602F1743 		.word	1125592928
 8234 591c 72ABF0A1 		.word	-1578062990
 8235 5920 1478C884 		.word	-2067236844
 8236 5924 EC39641A 		.word	442776044
 8237 5928 0802C78C 		.word	-1933114872
 8238 592c EE828F74 		.word	1955562222
 8239 5930 6F63A578 		.word	2024104815
 8240              	.L53:
 8241 5934 43EB040C 		adc	ip, r3, r4
 8242 5938 2F9B     		ldr	r3, [sp, #188]
 8243 593a 02EA0107 		and	r7, r2, r1
 8244 593e C418     		adds	r4, r0, r3
 8245 5940 309B     		ldr	r3, [sp, #192]
 8246 5942 48EB0C0C 		adc	ip, r8, ip
 8247 5946 23EA0908 		bic	r8, r3, r9
 8248 594a 05EA0903 		and	r3, r5, r9
 8249 594e 2BEA0100 		bic	r0, fp, r1
 8250 5952 88EA0308 		eor	r8, r8, r3
 8251 5956 279B     		ldr	r3, [sp, #156]
 8252 5958 1EEB0404 		adds	r4, lr, r4
 8253 595c 87EA0007 		eor	r7, r7, r0
 8254 5960 4AEB0C0C 		adc	ip, r10, ip
 8255 5964 E419     		adds	r4, r4, r7
 8256 5966 4FEA1377 		lsr	r7, r3, #28
 8257 596a 289B     		ldr	r3, [sp, #160]
 8258 596c 2798     		ldr	r0, [sp, #156]
 8259 596e 47EA0317 		orr	r7, r7, r3, lsl #4
 8260 5972 4FEA1373 		lsr	r3, r3, #28
 8261 5976 43EA0013 		orr	r3, r3, r0, lsl #4
 8262 597a 2898     		ldr	r0, [sp, #160]
 8263 597c 279E     		ldr	r6, [sp, #156]
 8264 597e 4FEA8070 		lsl	r0, r0, #30
 8265 5982 40EA9600 		orr	r0, r0, r6, lsr #2
 8266 5986 4FEA867E 		lsl	lr, r6, #30
 8267 598a 289E     		ldr	r6, [sp, #160]
 8268 598c 83EA0003 		eor	r3, r3, r0
 8269 5990 4EEA960E 		orr	lr, lr, r6, lsr #2
 8270 5994 4FEA4660 		lsl	r0, r6, #25
 8271 5998 279E     		ldr	r6, [sp, #156]
 8272 599a 87EA0E07 		eor	r7, r7, lr
ARM GAS  /tmp/ccxnUvyY.s 			page 146


 8273 599e 40EAD610 		orr	r0, r0, r6, lsr #7
 8274 59a2 4FEA466E 		lsl	lr, r6, #25
 8275 59a6 289E     		ldr	r6, [sp, #160]
 8276 59a8 83EA0003 		eor	r3, r3, r0
 8277 59ac 4EEAD61E 		orr	lr, lr, r6, lsr #7
 8278 59b0 2698     		ldr	r0, [sp, #152]
 8279 59b2 2A9E     		ldr	r6, [sp, #168]
 8280 59b4 2E93     		str	r3, [sp, #184]
 8281 59b6 80EA0600 		eor	r0, r0, r6
 8282 59ba 2B9B     		ldr	r3, [sp, #172]
 8283 59bc 2D9E     		ldr	r6, [sp, #180]
 8284 59be 4CEB080C 		adc	ip, ip, r8
 8285 59c2 86EA0308 		eor	r8, r6, r3
 8286 59c6 279B     		ldr	r3, [sp, #156]
 8287 59c8 2A9E     		ldr	r6, [sp, #168]
 8288 59ca 1840     		ands	r0, r0, r3
 8289 59cc 289B     		ldr	r3, [sp, #160]
 8290 59ce 87EA0E07 		eor	r7, r7, lr
 8291 59d2 08EA0308 		and	r8, r8, r3
 8292 59d6 269B     		ldr	r3, [sp, #152]
 8293 59d8 03EA060A 		and	r10, r3, r6
 8294 59dc 2D9B     		ldr	r3, [sp, #180]
 8295 59de 2B9E     		ldr	r6, [sp, #172]
 8296 59e0 80EA0A00 		eor	r0, r0, r10
 8297 59e4 03EA060E 		and	lr, r3, r6
 8298 59e8 2E9B     		ldr	r3, [sp, #184]
 8299 59ea 3818     		adds	r0, r7, r0
 8300 59ec 88EA0E0E 		eor	lr, r8, lr
 8301 59f0 43EB0E08 		adc	r8, r3, lr
 8302 59f4 299B     		ldr	r3, [sp, #164]
 8303 59f6 1B19     		adds	r3, r3, r4
 8304 59f8 2993     		str	r3, [sp, #164]
 8305 59fa 2C9B     		ldr	r3, [sp, #176]
 8306 59fc 43EB0C03 		adc	r3, r3, ip
 8307 5a00 2C93     		str	r3, [sp, #176]
 8308 5a02 299B     		ldr	r3, [sp, #164]
 8309 5a04 14EB000A 		adds	r10, r4, r0
 8310 5a08 4CEB080E 		adc	lr, ip, r8
 8311 5a0c 4FEA9338 		lsr	r8, r3, #14
 8312 5a10 2C9B     		ldr	r3, [sp, #176]
 8313 5a12 D34C     		ldr	r4, .L55
 8314 5a14 48EA8348 		orr	r8, r8, r3, lsl #18
 8315 5a18 4FEA933C 		lsr	ip, r3, #14
 8316 5a1c 299B     		ldr	r3, [sp, #164]
 8317 5a1e 4CEA834C 		orr	ip, ip, r3, lsl #18
 8318 5a22 980C     		lsrs	r0, r3, #18
 8319 5a24 2C9B     		ldr	r3, [sp, #176]
 8320 5a26 40EA8330 		orr	r0, r0, r3, lsl #14
 8321 5a2a 9F0C     		lsrs	r7, r3, #18
 8322 5a2c 299B     		ldr	r3, [sp, #164]
 8323 5a2e 88EA0008 		eor	r8, r8, r0
 8324 5a32 47EA8333 		orr	r3, r7, r3, lsl #14
 8325 5a36 8CEA0307 		eor	r7, ip, r3
 8326 5a3a 2C9B     		ldr	r3, [sp, #176]
 8327 5a3c 2C98     		ldr	r0, [sp, #176]
 8328 5a3e 4FEAC35C 		lsl	ip, r3, #23
 8329 5a42 299B     		ldr	r3, [sp, #164]
ARM GAS  /tmp/ccxnUvyY.s 			page 147


 8330 5a44 25EA0006 		bic	r6, r5, r0
 8331 5a48 4CEA532C 		orr	ip, ip, r3, lsr #9
 8332 5a4c DB05     		lsls	r3, r3, #23
 8333 5a4e 43EA5023 		orr	r3, r3, r0, lsr #9
 8334 5a52 88EA0308 		eor	r8, r8, r3
 8335 5a56 249B     		ldr	r3, [sp, #144]
 8336 5a58 87EA0C0C 		eor	ip, r7, ip
 8337 5a5c 1C19     		adds	r4, r3, r4
 8338 5a5e C14F     		ldr	r7, .L55+4
 8339 5a60 129B     		ldr	r3, [sp, #72]
 8340 5a62 09EA0000 		and	r0, r9, r0
 8341 5a66 47EB0307 		adc	r7, r7, r3
 8342 5a6a 309B     		ldr	r3, [sp, #192]
 8343 5a6c 14EB0B0B 		adds	fp, r4, fp
 8344 5a70 43EB0707 		adc	r7, r3, r7
 8345 5a74 299B     		ldr	r3, [sp, #164]
 8346 5a76 18EB0B0B 		adds	fp, r8, fp
 8347 5a7a 22EA0304 		bic	r4, r2, r3
 8348 5a7e 299B     		ldr	r3, [sp, #164]
 8349 5a80 4CEB0707 		adc	r7, ip, r7
 8350 5a84 0B40     		ands	r3, r3, r1
 8351 5a86 6340     		eors	r3, r3, r4
 8352 5a88 1BEB030B 		adds	fp, fp, r3
 8353 5a8c 86EA0006 		eor	r6, r6, r0
 8354 5a90 47EB0607 		adc	r7, r7, r6
 8355 5a94 4FEA1A73 		lsr	r3, r10, #28
 8356 5a98 4FEA8A76 		lsl	r6, r10, #30
 8357 5a9c 46EA9E06 		orr	r6, r6, lr, lsr #2
 8358 5aa0 43EA0E13 		orr	r3, r3, lr, lsl #4
 8359 5aa4 4FEA1E70 		lsr	r0, lr, #28
 8360 5aa8 4FEA8E74 		lsl	r4, lr, #30
 8361 5aac 44EA9A04 		orr	r4, r4, r10, lsr #2
 8362 5ab0 40EA0A10 		orr	r0, r0, r10, lsl #4
 8363 5ab4 7340     		eors	r3, r3, r6
 8364 5ab6 4FEA4A66 		lsl	r6, r10, #25
 8365 5aba 6040     		eors	r0, r0, r4
 8366 5abc 46EADE16 		orr	r6, r6, lr, lsr #7
 8367 5ac0 4FEA4E64 		lsl	r4, lr, #25
 8368 5ac4 44EADA14 		orr	r4, r4, r10, lsr #7
 8369 5ac8 7340     		eors	r3, r3, r6
 8370 5aca 2E93     		str	r3, [sp, #184]
 8371 5acc 279E     		ldr	r6, [sp, #156]
 8372 5ace 80EA0403 		eor	r3, r0, r4
 8373 5ad2 2A9C     		ldr	r4, [sp, #168]
 8374 5ad4 2F93     		str	r3, [sp, #188]
 8375 5ad6 7440     		eors	r4, r4, r6
 8376 5ad8 289B     		ldr	r3, [sp, #160]
 8377 5ada 2B9E     		ldr	r6, [sp, #172]
 8378 5adc 2798     		ldr	r0, [sp, #156]
 8379 5ade 5E40     		eors	r6, r6, r3
 8380 5ae0 2A9B     		ldr	r3, [sp, #168]
 8381 5ae2 04EA0A04 		and	r4, r4, r10
 8382 5ae6 03EA0008 		and	r8, r3, r0
 8383 5aea 2B9B     		ldr	r3, [sp, #172]
 8384 5aec 2898     		ldr	r0, [sp, #160]
 8385 5aee 84EA0804 		eor	r4, r4, r8
 8386 5af2 03EA000C 		and	ip, r3, r0
ARM GAS  /tmp/ccxnUvyY.s 			page 148


 8387 5af6 2E9B     		ldr	r3, [sp, #184]
 8388 5af8 06EA0E06 		and	r6, r6, lr
 8389 5afc 1C19     		adds	r4, r3, r4
 8390 5afe 2F9B     		ldr	r3, [sp, #188]
 8391 5b00 86EA0C06 		eor	r6, r6, ip
 8392 5b04 43EB0606 		adc	r6, r3, r6
 8393 5b08 269B     		ldr	r3, [sp, #152]
 8394 5b0a 13EB0B03 		adds	r3, r3, fp
 8395 5b0e 2E93     		str	r3, [sp, #184]
 8396 5b10 2D9B     		ldr	r3, [sp, #180]
 8397 5b12 43EB0703 		adc	r3, r3, r7
 8398 5b16 2D93     		str	r3, [sp, #180]
 8399 5b18 2E9B     		ldr	r3, [sp, #184]
 8400 5b1a 1BEB040B 		adds	fp, fp, r4
 8401 5b1e 47EB0608 		adc	r8, r7, r6
 8402 5b22 9F0B     		lsrs	r7, r3, #14
 8403 5b24 2D9B     		ldr	r3, [sp, #180]
 8404 5b26 2E9C     		ldr	r4, [sp, #184]
 8405 5b28 47EA8347 		orr	r7, r7, r3, lsl #18
 8406 5b2c 4FEA933C 		lsr	ip, r3, #14
 8407 5b30 2E9B     		ldr	r3, [sp, #184]
 8408 5b32 8D4E     		ldr	r6, .L55+8
 8409 5b34 4CEA834C 		orr	ip, ip, r3, lsl #18
 8410 5b38 980C     		lsrs	r0, r3, #18
 8411 5b3a 2D9B     		ldr	r3, [sp, #180]
 8412 5b3c 40EA8330 		orr	r0, r0, r3, lsl #14
 8413 5b40 9B0C     		lsrs	r3, r3, #18
 8414 5b42 43EA8433 		orr	r3, r3, r4, lsl #14
 8415 5b46 8CEA030C 		eor	ip, ip, r3
 8416 5b4a 2D9B     		ldr	r3, [sp, #180]
 8417 5b4c 4740     		eors	r7, r7, r0
 8418 5b4e DB05     		lsls	r3, r3, #23
 8419 5b50 43EA5423 		orr	r3, r3, r4, lsr #9
 8420 5b54 E005     		lsls	r0, r4, #23
 8421 5b56 2D9C     		ldr	r4, [sp, #180]
 8422 5b58 8CEA030C 		eor	ip, ip, r3
 8423 5b5c 40EA5420 		orr	r0, r0, r4, lsr #9
 8424 5b60 259B     		ldr	r3, [sp, #148]
 8425 5b62 4740     		eors	r7, r7, r0
 8426 5b64 8148     		ldr	r0, .L55+12
 8427 5b66 1818     		adds	r0, r3, r0
 8428 5b68 139B     		ldr	r3, [sp, #76]
 8429 5b6a 46EB0306 		adc	r6, r6, r3
 8430 5b6e 2E9B     		ldr	r3, [sp, #184]
 8431 5b70 8218     		adds	r2, r0, r2
 8432 5b72 45EB0605 		adc	r5, r5, r6
 8433 5b76 29EA0400 		bic	r0, r9, r4
 8434 5b7a 21EA0306 		bic	r6, r1, r3
 8435 5b7e 2E9C     		ldr	r4, [sp, #184]
 8436 5b80 299B     		ldr	r3, [sp, #164]
 8437 5b82 BA18     		adds	r2, r7, r2
 8438 5b84 03EA0403 		and	r3, r3, r4
 8439 5b88 83EA0603 		eor	r3, r3, r6
 8440 5b8c DDE92C47 		ldrd	r4, r7, [sp, #176]
 8441 5b90 04EA0704 		and	r4, r4, r7
 8442 5b94 4CEB0505 		adc	r5, ip, r5
 8443 5b98 6040     		eors	r0, r0, r4
ARM GAS  /tmp/ccxnUvyY.s 			page 149


 8444 5b9a D218     		adds	r2, r2, r3
 8445 5b9c 45EB0005 		adc	r5, r5, r0
 8446 5ba0 4FEA8874 		lsl	r4, r8, #30
 8447 5ba4 4FEA1870 		lsr	r0, r8, #28
 8448 5ba8 44EA9B04 		orr	r4, r4, fp, lsr #2
 8449 5bac 40EA0B10 		orr	r0, r0, fp, lsl #4
 8450 5bb0 4FEA1B73 		lsr	r3, fp, #28
 8451 5bb4 4FEA8B76 		lsl	r6, fp, #30
 8452 5bb8 6040     		eors	r0, r0, r4
 8453 5bba 4FEA4864 		lsl	r4, r8, #25
 8454 5bbe 46EA9806 		orr	r6, r6, r8, lsr #2
 8455 5bc2 44EADB14 		orr	r4, r4, fp, lsr #7
 8456 5bc6 43EA0813 		orr	r3, r3, r8, lsl #4
 8457 5bca 6040     		eors	r0, r0, r4
 8458 5bcc 7340     		eors	r3, r3, r6
 8459 5bce 279C     		ldr	r4, [sp, #156]
 8460 5bd0 4FEA4B66 		lsl	r6, fp, #25
 8461 5bd4 279F     		ldr	r7, [sp, #156]
 8462 5bd6 46EAD816 		orr	r6, r6, r8, lsr #7
 8463 5bda 7340     		eors	r3, r3, r6
 8464 5bdc 84EA0A04 		eor	r4, r4, r10
 8465 5be0 289E     		ldr	r6, [sp, #160]
 8466 5be2 07EA0A0C 		and	ip, r7, r10
 8467 5be6 04EA0B04 		and	r4, r4, fp
 8468 5bea 289F     		ldr	r7, [sp, #160]
 8469 5bec 86EA0E06 		eor	r6, r6, lr
 8470 5bf0 84EA0C04 		eor	r4, r4, ip
 8471 5bf4 1C19     		adds	r4, r3, r4
 8472 5bf6 07EA0E07 		and	r7, r7, lr
 8473 5bfa 2A9B     		ldr	r3, [sp, #168]
 8474 5bfc 06EA0806 		and	r6, r6, r8
 8475 5c00 86EA0706 		eor	r6, r6, r7
 8476 5c04 40EB0606 		adc	r6, r0, r6
 8477 5c08 9B18     		adds	r3, r3, r2
 8478 5c0a 2F93     		str	r3, [sp, #188]
 8479 5c0c 2B9B     		ldr	r3, [sp, #172]
 8480 5c0e 2F98     		ldr	r0, [sp, #188]
 8481 5c10 43EB0503 		adc	r3, r3, r5
 8482 5c14 1719     		adds	r7, r2, r4
 8483 5c16 2B93     		str	r3, [sp, #172]
 8484 5c18 45EB0603 		adc	r3, r5, r6
 8485 5c1c 2693     		str	r3, [sp, #152]
 8486 5c1e 2F9B     		ldr	r3, [sp, #188]
 8487 5c20 534E     		ldr	r6, .L55+16
 8488 5c22 9C0B     		lsrs	r4, r3, #14
 8489 5c24 2B9B     		ldr	r3, [sp, #172]
 8490 5c26 44EA8344 		orr	r4, r4, r3, lsl #18
 8491 5c2a 9D0B     		lsrs	r5, r3, #14
 8492 5c2c 2F9B     		ldr	r3, [sp, #188]
 8493 5c2e 4FEA934C 		lsr	ip, r3, #18
 8494 5c32 45EA8345 		orr	r5, r5, r3, lsl #18
 8495 5c36 2B9B     		ldr	r3, [sp, #172]
 8496 5c38 4CEA8332 		orr	r2, ip, r3, lsl #14
 8497 5c3c 9B0C     		lsrs	r3, r3, #18
 8498 5c3e 43EA8033 		orr	r3, r3, r0, lsl #14
 8499 5c42 5D40     		eors	r5, r5, r3
 8500 5c44 2B9B     		ldr	r3, [sp, #172]
ARM GAS  /tmp/ccxnUvyY.s 			page 150


 8501 5c46 84EA020C 		eor	ip, r4, r2
 8502 5c4a DB05     		lsls	r3, r3, #23
 8503 5c4c 2B9A     		ldr	r2, [sp, #172]
 8504 5c4e 43EA5023 		orr	r3, r3, r0, lsr #9
 8505 5c52 C405     		lsls	r4, r0, #23
 8506 5c54 5D40     		eors	r5, r5, r3
 8507 5c56 44EA5224 		orr	r4, r4, r2, lsr #9
 8508 5c5a 169B     		ldr	r3, [sp, #88]
 8509 5c5c 454A     		ldr	r2, .L55+20
 8510 5c5e 8CEA0404 		eor	r4, ip, r4
 8511 5c62 9A18     		adds	r2, r3, r2
 8512 5c64 029B     		ldr	r3, [sp, #8]
 8513 5c66 46EB0306 		adc	r6, r6, r3
 8514 5c6a 299B     		ldr	r3, [sp, #164]
 8515 5c6c 12EB010C 		adds	ip, r2, r1
 8516 5c70 23EA0001 		bic	r1, r3, r0
 8517 5c74 DDE92B23 		ldrd	r2, r3, [sp, #172]
 8518 5c78 23EA0202 		bic	r2, r3, r2
 8519 5c7c 2E9B     		ldr	r3, [sp, #184]
 8520 5c7e 49EB0609 		adc	r9, r9, r6
 8521 5c82 0340     		ands	r3, r3, r0
 8522 5c84 14EB0C0C 		adds	ip, r4, ip
 8523 5c88 2D98     		ldr	r0, [sp, #180]
 8524 5c8a 2B9C     		ldr	r4, [sp, #172]
 8525 5c8c 81EA0301 		eor	r1, r1, r3
 8526 5c90 00EA0400 		and	r0, r0, r4
 8527 5c94 45EB0909 		adc	r9, r5, r9
 8528 5c98 4240     		eors	r2, r2, r0
 8529 5c9a 1CEB010C 		adds	ip, ip, r1
 8530 5c9e 49EB0209 		adc	r9, r9, r2
 8531 5ca2 2699     		ldr	r1, [sp, #152]
 8532 5ca4 269A     		ldr	r2, [sp, #152]
 8533 5ca6 3B0F     		lsrs	r3, r7, #28
 8534 5ca8 269C     		ldr	r4, [sp, #152]
 8535 5caa 43EA0213 		orr	r3, r3, r2, lsl #4
 8536 5cae 8907     		lsls	r1, r1, #30
 8537 5cb0 120F     		lsrs	r2, r2, #28
 8538 5cb2 41EA9701 		orr	r1, r1, r7, lsr #2
 8539 5cb6 42EA0712 		orr	r2, r2, r7, lsl #4
 8540 5cba B807     		lsls	r0, r7, #30
 8541 5cbc 4A40     		eors	r2, r2, r1
 8542 5cbe 6106     		lsls	r1, r4, #25
 8543 5cc0 40EA9400 		orr	r0, r0, r4, lsr #2
 8544 5cc4 41EAD711 		orr	r1, r1, r7, lsr #7
 8545 5cc8 4A40     		eors	r2, r2, r1
 8546 5cca 4340     		eors	r3, r3, r0
 8547 5ccc 8AEA0B01 		eor	r1, r10, fp
 8548 5cd0 7806     		lsls	r0, r7, #25
 8549 5cd2 0AEA0B05 		and	r5, r10, fp
 8550 5cd6 40EAD410 		orr	r0, r0, r4, lsr #7
 8551 5cda 3940     		ands	r1, r1, r7
 8552 5cdc 4340     		eors	r3, r3, r0
 8553 5cde 6940     		eors	r1, r1, r5
 8554 5ce0 8EEA0800 		eor	r0, lr, r8
 8555 5ce4 5918     		adds	r1, r3, r1
 8556 5ce6 00EA0400 		and	r0, r0, r4
 8557 5cea 279B     		ldr	r3, [sp, #156]
ARM GAS  /tmp/ccxnUvyY.s 			page 151


 8558 5cec 0EEA0804 		and	r4, lr, r8
 8559 5cf0 80EA0400 		eor	r0, r0, r4
 8560 5cf4 42EB0000 		adc	r0, r2, r0
 8561 5cf8 13EB0C03 		adds	r3, r3, ip
 8562 5cfc 3093     		str	r3, [sp, #192]
 8563 5cfe 289B     		ldr	r3, [sp, #160]
 8564 5d00 0BEA0706 		and	r6, fp, r7
 8565 5d04 43EB0903 		adc	r3, r3, r9
 8566 5d08 3193     		str	r3, [sp, #196]
 8567 5d0a 1CEB0103 		adds	r3, ip, r1
 8568 5d0e 2793     		str	r3, [sp, #156]
 8569 5d10 49EB0003 		adc	r3, r9, r0
 8570 5d14 2893     		str	r3, [sp, #160]
 8571 5d16 309B     		ldr	r3, [sp, #192]
 8572 5d18 319A     		ldr	r2, [sp, #196]
 8573 5d1a 980B     		lsrs	r0, r3, #14
 8574 5d1c 319B     		ldr	r3, [sp, #196]
 8575 5d1e 4FEA9249 		lsr	r9, r2, #18
 8576 5d22 40EA8340 		orr	r0, r0, r3, lsl #18
 8577 5d26 9C0B     		lsrs	r4, r3, #14
 8578 5d28 309B     		ldr	r3, [sp, #192]
 8579 5d2a 44EA8344 		orr	r4, r4, r3, lsl #18
 8580 5d2e 9B0C     		lsrs	r3, r3, #18
 8581 5d30 43EA8231 		orr	r1, r3, r2, lsl #14
 8582 5d34 309B     		ldr	r3, [sp, #192]
 8583 5d36 49EA8332 		orr	r2, r9, r3, lsl #14
 8584 5d3a 84EA0209 		eor	r9, r4, r2
 8585 5d3e 319A     		ldr	r2, [sp, #196]
 8586 5d40 80EA0103 		eor	r3, r0, r1
 8587 5d44 D405     		lsls	r4, r2, #23
 8588 5d46 309A     		ldr	r2, [sp, #192]
 8589 5d48 0B49     		ldr	r1, .L55+24
 8590 5d4a 44EA5224 		orr	r4, r4, r2, lsr #9
 8591 5d4e D005     		lsls	r0, r2, #23
 8592 5d50 319A     		ldr	r2, [sp, #196]
 8593 5d52 89EA0404 		eor	r4, r9, r4
 8594 5d56 40EA5220 		orr	r0, r0, r2, lsr #9
 8595 5d5a 5840     		eors	r0, r0, r3
 8596 5d5c 179B     		ldr	r3, [sp, #92]
 8597 5d5e 0DE0     		b	.L56
 8598              	.L57:
 8599              		.align	2
 8600              	.L55:
 8601 5d60 281E6323 		.word	593698344
 8602 5d64 FAFFBE90 		.word	-1866530822
 8603 5d68 EB6C50A4 		.word	-1538233109
 8604 5d6c E9BD82DE 		.word	-561857047
 8605 5d70 F7A3F9BE 		.word	-1090935817
 8606 5d74 1579C6B2 		.word	-1295615723
 8607 5d78 2B5372E3 		.word	-479046869
 8608              	.L56:
 8609 5d7c C84A     		ldr	r2, .L58
 8610 5d7e 5918     		adds	r1, r3, r1
 8611 5d80 039B     		ldr	r3, [sp, #12]
 8612 5d82 42EB0309 		adc	r9, r2, r3
 8613 5d86 299B     		ldr	r3, [sp, #164]
 8614 5d88 2C9A     		ldr	r2, [sp, #176]
ARM GAS  /tmp/ccxnUvyY.s 			page 152


 8615 5d8a CB18     		adds	r3, r1, r3
 8616 5d8c 42EB0909 		adc	r9, r2, r9
 8617 5d90 3099     		ldr	r1, [sp, #192]
 8618 5d92 2E9A     		ldr	r2, [sp, #184]
 8619 5d94 C318     		adds	r3, r0, r3
 8620 5d96 44EB0909 		adc	r9, r4, r9
 8621 5d9a 22EA0104 		bic	r4, r2, r1
 8622 5d9e 2D9A     		ldr	r2, [sp, #180]
 8623 5da0 3199     		ldr	r1, [sp, #196]
 8624 5da2 319D     		ldr	r5, [sp, #196]
 8625 5da4 22EA0101 		bic	r1, r2, r1
 8626 5da8 DDE92F20 		ldrd	r2, r0, [sp, #188]
 8627 5dac 0240     		ands	r2, r2, r0
 8628 5dae 6240     		eors	r2, r2, r4
 8629 5db0 2B98     		ldr	r0, [sp, #172]
 8630 5db2 9B18     		adds	r3, r3, r2
 8631 5db4 279A     		ldr	r2, [sp, #156]
 8632 5db6 00EA0500 		and	r0, r0, r5
 8633 5dba 81EA0001 		eor	r1, r1, r0
 8634 5dbe 4FEA1270 		lsr	r0, r2, #28
 8635 5dc2 289A     		ldr	r2, [sp, #160]
 8636 5dc4 49EB0109 		adc	r9, r9, r1
 8637 5dc8 2799     		ldr	r1, [sp, #156]
 8638 5dca 40EA0210 		orr	r0, r0, r2, lsl #4
 8639 5dce 120F     		lsrs	r2, r2, #28
 8640 5dd0 42EA0112 		orr	r2, r2, r1, lsl #4
 8641 5dd4 2899     		ldr	r1, [sp, #160]
 8642 5dd6 279C     		ldr	r4, [sp, #156]
 8643 5dd8 289D     		ldr	r5, [sp, #160]
 8644 5dda 8907     		lsls	r1, r1, #30
 8645 5ddc 41EA9401 		orr	r1, r1, r4, lsr #2
 8646 5de0 A407     		lsls	r4, r4, #30
 8647 5de2 44EA9504 		orr	r4, r4, r5, lsr #2
 8648 5de6 6040     		eors	r0, r0, r4
 8649 5de8 279C     		ldr	r4, [sp, #156]
 8650 5dea 4A40     		eors	r2, r2, r1
 8651 5dec 6906     		lsls	r1, r5, #25
 8652 5dee 41EAD411 		orr	r1, r1, r4, lsr #7
 8653 5df2 6406     		lsls	r4, r4, #25
 8654 5df4 44EAD514 		orr	r4, r4, r5, lsr #7
 8655 5df8 279D     		ldr	r5, [sp, #156]
 8656 5dfa 6040     		eors	r0, r0, r4
 8657 5dfc 4A40     		eors	r2, r2, r1
 8658 5dfe 269C     		ldr	r4, [sp, #152]
 8659 5e00 8BEA0701 		eor	r1, fp, r7
 8660 5e04 2940     		ands	r1, r1, r5
 8661 5e06 289D     		ldr	r5, [sp, #160]
 8662 5e08 88EA0404 		eor	r4, r8, r4
 8663 5e0c 2C40     		ands	r4, r4, r5
 8664 5e0e 269D     		ldr	r5, [sp, #152]
 8665 5e10 7140     		eors	r1, r1, r6
 8666 5e12 08EA0505 		and	r5, r8, r5
 8667 5e16 4118     		adds	r1, r0, r1
 8668 5e18 85EA0405 		eor	r5, r5, r4
 8669 5e1c 42EB0505 		adc	r5, r2, r5
 8670 5e20 1AEB0302 		adds	r2, r10, r3
 8671 5e24 2C92     		str	r2, [sp, #176]
ARM GAS  /tmp/ccxnUvyY.s 			page 153


 8672 5e26 4EEB0902 		adc	r2, lr, r9
 8673 5e2a 5B18     		adds	r3, r3, r1
 8674 5e2c 2993     		str	r3, [sp, #164]
 8675 5e2e 49EB0503 		adc	r3, r9, r5
 8676 5e32 2A93     		str	r3, [sp, #168]
 8677 5e34 199B     		ldr	r3, [sp, #100]
 8678 5e36 3292     		str	r2, [sp, #200]
 8679 5e38 5908     		lsrs	r1, r3, #1
 8680 5e3a 079B     		ldr	r3, [sp, #28]
 8681 5e3c 199A     		ldr	r2, [sp, #100]
 8682 5e3e 0798     		ldr	r0, [sp, #28]
 8683 5e40 41EAC371 		orr	r1, r1, r3, lsl #31
 8684 5e44 5B08     		lsrs	r3, r3, #1
 8685 5e46 43EAC273 		orr	r3, r3, r2, lsl #31
 8686 5e4a 120A     		lsrs	r2, r2, #8
 8687 5e4c 42EA0062 		orr	r2, r2, r0, lsl #24
 8688 5e50 060A     		lsrs	r6, r0, #8
 8689 5e52 1998     		ldr	r0, [sp, #100]
 8690 5e54 4A40     		eors	r2, r2, r1
 8691 5e56 46EA0066 		orr	r6, r6, r0, lsl #24
 8692 5e5a 5E40     		eors	r6, r6, r3
 8693 5e5c 079B     		ldr	r3, [sp, #28]
 8694 5e5e C109     		lsrs	r1, r0, #7
 8695 5e60 41EA4361 		orr	r1, r1, r3, lsl #25
 8696 5e64 86EAD316 		eor	r6, r6, r3, lsr #7
 8697 5e68 189B     		ldr	r3, [sp, #96]
 8698 5e6a 4A40     		eors	r2, r2, r1
 8699 5e6c D218     		adds	r2, r2, r3
 8700 5e6e 069B     		ldr	r3, [sp, #24]
 8701 5e70 43EB0606 		adc	r6, r3, r6
 8702 5e74 219B     		ldr	r3, [sp, #132]
 8703 5e76 D218     		adds	r2, r2, r3
 8704 5e78 0F9B     		ldr	r3, [sp, #60]
 8705 5e7a 43EB0606 		adc	r6, r3, r6
 8706 5e7e 169B     		ldr	r3, [sp, #88]
 8707 5e80 DC0C     		lsrs	r4, r3, #19
 8708 5e82 029B     		ldr	r3, [sp, #8]
 8709 5e84 1699     		ldr	r1, [sp, #88]
 8710 5e86 44EA4334 		orr	r4, r4, r3, lsl #13
 8711 5e8a DB0C     		lsrs	r3, r3, #19
 8712 5e8c 43EA4133 		orr	r3, r3, r1, lsl #13
 8713 5e90 0299     		ldr	r1, [sp, #8]
 8714 5e92 1698     		ldr	r0, [sp, #88]
 8715 5e94 C900     		lsls	r1, r1, #3
 8716 5e96 029D     		ldr	r5, [sp, #8]
 8717 5e98 41EA5071 		orr	r1, r1, r0, lsr #29
 8718 5e9c 4B40     		eors	r3, r3, r1
 8719 5e9e C000     		lsls	r0, r0, #3
 8720 5ea0 1699     		ldr	r1, [sp, #88]
 8721 5ea2 40EA5570 		orr	r0, r0, r5, lsr #29
 8722 5ea6 6040     		eors	r0, r0, r4
 8723 5ea8 8C09     		lsrs	r4, r1, #6
 8724 5eaa 44EA8564 		orr	r4, r4, r5, lsl #26
 8725 5eae 6040     		eors	r0, r0, r4
 8726 5eb0 8218     		adds	r2, r0, r2
 8727 5eb2 83EA9513 		eor	r3, r3, r5, lsr #6
 8728 5eb6 46EB0303 		adc	r3, r6, r3
ARM GAS  /tmp/ccxnUvyY.s 			page 154


 8729 5eba 0693     		str	r3, [sp, #24]
 8730 5ebc 1A9B     		ldr	r3, [sp, #104]
 8731 5ebe 1892     		str	r2, [sp, #96]
 8732 5ec0 5A08     		lsrs	r2, r3, #1
 8733 5ec2 089B     		ldr	r3, [sp, #32]
 8734 5ec4 1A99     		ldr	r1, [sp, #104]
 8735 5ec6 42EAC372 		orr	r2, r2, r3, lsl #31
 8736 5eca 5B08     		lsrs	r3, r3, #1
 8737 5ecc 43EAC173 		orr	r3, r3, r1, lsl #31
 8738 5ed0 0C0A     		lsrs	r4, r1, #8
 8739 5ed2 0899     		ldr	r1, [sp, #32]
 8740 5ed4 039D     		ldr	r5, [sp, #12]
 8741 5ed6 44EA0164 		orr	r4, r4, r1, lsl #24
 8742 5eda 4FEA112A 		lsr	r10, r1, #8
 8743 5ede 1A99     		ldr	r1, [sp, #104]
 8744 5ee0 5440     		eors	r4, r4, r2
 8745 5ee2 4AEA016A 		orr	r10, r10, r1, lsl #24
 8746 5ee6 83EA0A0A 		eor	r10, r3, r10
 8747 5eea 089B     		ldr	r3, [sp, #32]
 8748 5eec CA09     		lsrs	r2, r1, #7
 8749 5eee 42EA4362 		orr	r2, r2, r3, lsl #25
 8750 5ef2 8AEAD31A 		eor	r10, r10, r3, lsr #7
 8751 5ef6 199B     		ldr	r3, [sp, #100]
 8752 5ef8 5440     		eors	r4, r4, r2
 8753 5efa E418     		adds	r4, r4, r3
 8754 5efc 079B     		ldr	r3, [sp, #28]
 8755 5efe 179A     		ldr	r2, [sp, #92]
 8756 5f00 43EB0A0A 		adc	r10, r3, r10
 8757 5f04 229B     		ldr	r3, [sp, #136]
 8758 5f06 E418     		adds	r4, r4, r3
 8759 5f08 109B     		ldr	r3, [sp, #64]
 8760 5f0a 43EB0A0A 		adc	r10, r3, r10
 8761 5f0e 179B     		ldr	r3, [sp, #92]
 8762 5f10 D80C     		lsrs	r0, r3, #19
 8763 5f12 039B     		ldr	r3, [sp, #12]
 8764 5f14 40EA4330 		orr	r0, r0, r3, lsl #13
 8765 5f18 DB0C     		lsrs	r3, r3, #19
 8766 5f1a 43EA4233 		orr	r3, r3, r2, lsl #13
 8767 5f1e 039A     		ldr	r2, [sp, #12]
 8768 5f20 D100     		lsls	r1, r2, #3
 8769 5f22 179A     		ldr	r2, [sp, #92]
 8770 5f24 41EA5271 		orr	r1, r1, r2, lsr #29
 8771 5f28 5940     		eors	r1, r1, r3
 8772 5f2a D200     		lsls	r2, r2, #3
 8773 5f2c 179B     		ldr	r3, [sp, #92]
 8774 5f2e 42EA5572 		orr	r2, r2, r5, lsr #29
 8775 5f32 4240     		eors	r2, r2, r0
 8776 5f34 9809     		lsrs	r0, r3, #6
 8777 5f36 40EA8560 		orr	r0, r0, r5, lsl #26
 8778 5f3a 4240     		eors	r2, r2, r0
 8779 5f3c 1319     		adds	r3, r2, r4
 8780 5f3e 3393     		str	r3, [sp, #204]
 8781 5f40 1B9B     		ldr	r3, [sp, #108]
 8782 5f42 81EA9511 		eor	r1, r1, r5, lsr #6
 8783 5f46 4AEB010A 		adc	r10, r10, r1
 8784 5f4a 5908     		lsrs	r1, r3, #1
 8785 5f4c 099B     		ldr	r3, [sp, #36]
ARM GAS  /tmp/ccxnUvyY.s 			page 155


 8786 5f4e 0998     		ldr	r0, [sp, #36]
 8787 5f50 41EAC371 		orr	r1, r1, r3, lsl #31
 8788 5f54 5A08     		lsrs	r2, r3, #1
 8789 5f56 1B9B     		ldr	r3, [sp, #108]
 8790 5f58 4FEA102C 		lsr	ip, r0, #8
 8791 5f5c 42EAC372 		orr	r2, r2, r3, lsl #31
 8792 5f60 1B0A     		lsrs	r3, r3, #8
 8793 5f62 43EA0063 		orr	r3, r3, r0, lsl #24
 8794 5f66 1B98     		ldr	r0, [sp, #108]
 8795 5f68 4B40     		eors	r3, r3, r1
 8796 5f6a 4CEA006C 		orr	ip, ip, r0, lsl #24
 8797 5f6e 82EA0C0C 		eor	ip, r2, ip
 8798 5f72 099A     		ldr	r2, [sp, #36]
 8799 5f74 C109     		lsrs	r1, r0, #7
 8800 5f76 41EA4261 		orr	r1, r1, r2, lsl #25
 8801 5f7a 8CEAD21C 		eor	ip, ip, r2, lsr #7
 8802 5f7e 1A9A     		ldr	r2, [sp, #104]
 8803 5f80 4B40     		eors	r3, r3, r1
 8804 5f82 9B18     		adds	r3, r3, r2
 8805 5f84 089A     		ldr	r2, [sp, #32]
 8806 5f86 1899     		ldr	r1, [sp, #96]
 8807 5f88 42EB0C0C 		adc	ip, r2, ip
 8808 5f8c 239A     		ldr	r2, [sp, #140]
 8809 5f8e 069D     		ldr	r5, [sp, #24]
 8810 5f90 9B18     		adds	r3, r3, r2
 8811 5f92 119A     		ldr	r2, [sp, #68]
 8812 5f94 42EB0C0C 		adc	ip, r2, ip
 8813 5f98 189A     		ldr	r2, [sp, #96]
 8814 5f9a D40C     		lsrs	r4, r2, #19
 8815 5f9c 069A     		ldr	r2, [sp, #24]
 8816 5f9e 44EA4234 		orr	r4, r4, r2, lsl #13
 8817 5fa2 D20C     		lsrs	r2, r2, #19
 8818 5fa4 42EA4132 		orr	r2, r2, r1, lsl #13
 8819 5fa8 0699     		ldr	r1, [sp, #24]
 8820 5faa C800     		lsls	r0, r1, #3
 8821 5fac 1899     		ldr	r1, [sp, #96]
 8822 5fae 40EA5170 		orr	r0, r0, r1, lsr #29
 8823 5fb2 4240     		eors	r2, r2, r0
 8824 5fb4 C900     		lsls	r1, r1, #3
 8825 5fb6 1898     		ldr	r0, [sp, #96]
 8826 5fb8 41EA5571 		orr	r1, r1, r5, lsr #29
 8827 5fbc 6140     		eors	r1, r1, r4
 8828 5fbe 8409     		lsrs	r4, r0, #6
 8829 5fc0 44EA8564 		orr	r4, r4, r5, lsl #26
 8830 5fc4 6140     		eors	r1, r1, r4
 8831 5fc6 CB18     		adds	r3, r1, r3
 8832 5fc8 82EA9512 		eor	r2, r2, r5, lsr #6
 8833 5fcc 3793     		str	r3, [sp, #220]
 8834 5fce 4CEB0203 		adc	r3, ip, r2
 8835 5fd2 1993     		str	r3, [sp, #100]
 8836 5fd4 1C9B     		ldr	r3, [sp, #112]
 8837 5fd6 1C9C     		ldr	r4, [sp, #112]
 8838 5fd8 5908     		lsrs	r1, r3, #1
 8839 5fda 0A9B     		ldr	r3, [sp, #40]
 8840 5fdc 41EAC371 		orr	r1, r1, r3, lsl #31
 8841 5fe0 5A08     		lsrs	r2, r3, #1
 8842 5fe2 1C9B     		ldr	r3, [sp, #112]
ARM GAS  /tmp/ccxnUvyY.s 			page 156


 8843 5fe4 42EAC372 		orr	r2, r2, r3, lsl #31
 8844 5fe8 180A     		lsrs	r0, r3, #8
 8845 5fea 0A9B     		ldr	r3, [sp, #40]
 8846 5fec 40EA0360 		orr	r0, r0, r3, lsl #24
 8847 5ff0 1B0A     		lsrs	r3, r3, #8
 8848 5ff2 43EA0463 		orr	r3, r3, r4, lsl #24
 8849 5ff6 5340     		eors	r3, r3, r2
 8850 5ff8 0A9A     		ldr	r2, [sp, #40]
 8851 5ffa 4840     		eors	r0, r0, r1
 8852 5ffc E109     		lsrs	r1, r4, #7
 8853 5ffe 41EA4261 		orr	r1, r1, r2, lsl #25
 8854 6002 83EAD213 		eor	r3, r3, r2, lsr #7
 8855 6006 1B9A     		ldr	r2, [sp, #108]
 8856 6008 4840     		eors	r0, r0, r1
 8857 600a 8018     		adds	r0, r0, r2
 8858 600c 099A     		ldr	r2, [sp, #36]
 8859 600e 3399     		ldr	r1, [sp, #204]
 8860 6010 42EB0303 		adc	r3, r2, r3
 8861 6014 249A     		ldr	r2, [sp, #144]
 8862 6016 4FEACA04 		lsl	r4, r10, #3
 8863 601a 8018     		adds	r0, r0, r2
 8864 601c 129A     		ldr	r2, [sp, #72]
 8865 601e 44EA5174 		orr	r4, r4, r1, lsr #29
 8866 6022 42EB0303 		adc	r3, r2, r3
 8867 6026 339A     		ldr	r2, [sp, #204]
 8868 6028 D50C     		lsrs	r5, r2, #19
 8869 602a 4FEADA42 		lsr	r2, r10, #19
 8870 602e 42EA4132 		orr	r2, r2, r1, lsl #13
 8871 6032 6240     		eors	r2, r2, r4
 8872 6034 C900     		lsls	r1, r1, #3
 8873 6036 339C     		ldr	r4, [sp, #204]
 8874 6038 45EA4A35 		orr	r5, r5, r10, lsl #13
 8875 603c 41EA5A71 		orr	r1, r1, r10, lsr #29
 8876 6040 6940     		eors	r1, r1, r5
 8877 6042 A509     		lsrs	r5, r4, #6
 8878 6044 45EA8A65 		orr	r5, r5, r10, lsl #26
 8879 6048 6940     		eors	r1, r1, r5
 8880 604a 0918     		adds	r1, r1, r0
 8881 604c 82EA9A12 		eor	r2, r2, r10, lsr #6
 8882 6050 43EB0203 		adc	r3, r3, r2
 8883 6054 1A93     		str	r3, [sp, #104]
 8884 6056 1D9B     		ldr	r3, [sp, #116]
 8885 6058 3891     		str	r1, [sp, #224]
 8886 605a 5908     		lsrs	r1, r3, #1
 8887 605c 0B9B     		ldr	r3, [sp, #44]
 8888 605e 1D9A     		ldr	r2, [sp, #116]
 8889 6060 0B98     		ldr	r0, [sp, #44]
 8890 6062 41EAC371 		orr	r1, r1, r3, lsl #31
 8891 6066 5B08     		lsrs	r3, r3, #1
 8892 6068 43EAC273 		orr	r3, r3, r2, lsl #31
 8893 606c 120A     		lsrs	r2, r2, #8
 8894 606e 42EA0062 		orr	r2, r2, r0, lsl #24
 8895 6072 060A     		lsrs	r6, r0, #8
 8896 6074 1D98     		ldr	r0, [sp, #116]
 8897 6076 4A40     		eors	r2, r2, r1
 8898 6078 46EA0066 		orr	r6, r6, r0, lsl #24
 8899 607c 5E40     		eors	r6, r6, r3
ARM GAS  /tmp/ccxnUvyY.s 			page 157


 8900 607e 0B9B     		ldr	r3, [sp, #44]
 8901 6080 C109     		lsrs	r1, r0, #7
 8902 6082 41EA4361 		orr	r1, r1, r3, lsl #25
 8903 6086 86EAD316 		eor	r6, r6, r3, lsr #7
 8904 608a 1C9B     		ldr	r3, [sp, #112]
 8905 608c 4A40     		eors	r2, r2, r1
 8906 608e D218     		adds	r2, r2, r3
 8907 6090 0A9B     		ldr	r3, [sp, #40]
 8908 6092 3799     		ldr	r1, [sp, #220]
 8909 6094 43EB0606 		adc	r6, r3, r6
 8910 6098 259B     		ldr	r3, [sp, #148]
 8911 609a 199D     		ldr	r5, [sp, #100]
 8912 609c D218     		adds	r2, r2, r3
 8913 609e 01E0     		b	.L59
 8914              	.L60:
 8915              		.align	2
 8916              	.L58:
 8917 60a0 F27871C6 		.word	-965641998
 8918              	.L59:
 8919 60a4 139B     		ldr	r3, [sp, #76]
 8920 60a6 43EB0606 		adc	r6, r3, r6
 8921 60aa 379B     		ldr	r3, [sp, #220]
 8922 60ac DC0C     		lsrs	r4, r3, #19
 8923 60ae 199B     		ldr	r3, [sp, #100]
 8924 60b0 44EA4334 		orr	r4, r4, r3, lsl #13
 8925 60b4 DB0C     		lsrs	r3, r3, #19
 8926 60b6 43EA4133 		orr	r3, r3, r1, lsl #13
 8927 60ba 1999     		ldr	r1, [sp, #100]
 8928 60bc C800     		lsls	r0, r1, #3
 8929 60be 3799     		ldr	r1, [sp, #220]
 8930 60c0 40EA5170 		orr	r0, r0, r1, lsr #29
 8931 60c4 4340     		eors	r3, r3, r0
 8932 60c6 C900     		lsls	r1, r1, #3
 8933 60c8 3798     		ldr	r0, [sp, #220]
 8934 60ca 41EA5571 		orr	r1, r1, r5, lsr #29
 8935 60ce 6140     		eors	r1, r1, r4
 8936 60d0 8409     		lsrs	r4, r0, #6
 8937 60d2 44EA8564 		orr	r4, r4, r5, lsl #26
 8938 60d6 6140     		eors	r1, r1, r4
 8939 60d8 8A18     		adds	r2, r1, r2
 8940 60da 83EA9513 		eor	r3, r3, r5, lsr #6
 8941 60de 46EB0303 		adc	r3, r6, r3
 8942 60e2 1B93     		str	r3, [sp, #108]
 8943 60e4 1E9B     		ldr	r3, [sp, #120]
 8944 60e6 3992     		str	r2, [sp, #228]
 8945 60e8 5908     		lsrs	r1, r3, #1
 8946 60ea 0C9B     		ldr	r3, [sp, #48]
 8947 60ec 1E9A     		ldr	r2, [sp, #120]
 8948 60ee 0C98     		ldr	r0, [sp, #48]
 8949 60f0 41EAC371 		orr	r1, r1, r3, lsl #31
 8950 60f4 5B08     		lsrs	r3, r3, #1
 8951 60f6 1E9C     		ldr	r4, [sp, #120]
 8952 60f8 43EAC273 		orr	r3, r3, r2, lsl #31
 8953 60fc 120A     		lsrs	r2, r2, #8
 8954 60fe 42EA0062 		orr	r2, r2, r0, lsl #24
 8955 6102 000A     		lsrs	r0, r0, #8
 8956 6104 40EA0460 		orr	r0, r0, r4, lsl #24
ARM GAS  /tmp/ccxnUvyY.s 			page 158


 8957 6108 5840     		eors	r0, r0, r3
 8958 610a 0C9B     		ldr	r3, [sp, #48]
 8959 610c 4A40     		eors	r2, r2, r1
 8960 610e E109     		lsrs	r1, r4, #7
 8961 6110 41EA4361 		orr	r1, r1, r3, lsl #25
 8962 6114 80EAD310 		eor	r0, r0, r3, lsr #7
 8963 6118 1D9B     		ldr	r3, [sp, #116]
 8964 611a 4A40     		eors	r2, r2, r1
 8965 611c D218     		adds	r2, r2, r3
 8966 611e 0B9B     		ldr	r3, [sp, #44]
 8967 6120 3899     		ldr	r1, [sp, #224]
 8968 6122 43EB0000 		adc	r0, r3, r0
 8969 6126 169B     		ldr	r3, [sp, #88]
 8970 6128 1A9E     		ldr	r6, [sp, #104]
 8971 612a D218     		adds	r2, r2, r3
 8972 612c 029B     		ldr	r3, [sp, #8]
 8973 612e 43EB0000 		adc	r0, r3, r0
 8974 6132 389B     		ldr	r3, [sp, #224]
 8975 6134 DD0C     		lsrs	r5, r3, #19
 8976 6136 1A9B     		ldr	r3, [sp, #104]
 8977 6138 45EA4335 		orr	r5, r5, r3, lsl #13
 8978 613c DB0C     		lsrs	r3, r3, #19
 8979 613e 43EA4133 		orr	r3, r3, r1, lsl #13
 8980 6142 1A99     		ldr	r1, [sp, #104]
 8981 6144 CC00     		lsls	r4, r1, #3
 8982 6146 3899     		ldr	r1, [sp, #224]
 8983 6148 44EA5174 		orr	r4, r4, r1, lsr #29
 8984 614c 6340     		eors	r3, r3, r4
 8985 614e C900     		lsls	r1, r1, #3
 8986 6150 389C     		ldr	r4, [sp, #224]
 8987 6152 41EA5671 		orr	r1, r1, r6, lsr #29
 8988 6156 6940     		eors	r1, r1, r5
 8989 6158 A509     		lsrs	r5, r4, #6
 8990 615a 45EA8665 		orr	r5, r5, r6, lsl #26
 8991 615e 6940     		eors	r1, r1, r5
 8992 6160 8A18     		adds	r2, r1, r2
 8993 6162 83EA9613 		eor	r3, r3, r6, lsr #6
 8994 6166 40EB0303 		adc	r3, r0, r3
 8995 616a 3A92     		str	r2, [sp, #232]
 8996 616c 1C93     		str	r3, [sp, #112]
 8997 616e 1F9B     		ldr	r3, [sp, #124]
 8998 6170 1F9A     		ldr	r2, [sp, #124]
 8999 6172 5908     		lsrs	r1, r3, #1
 9000 6174 0D9B     		ldr	r3, [sp, #52]
 9001 6176 0D98     		ldr	r0, [sp, #52]
 9002 6178 41EAC371 		orr	r1, r1, r3, lsl #31
 9003 617c 5B08     		lsrs	r3, r3, #1
 9004 617e 43EAC273 		orr	r3, r3, r2, lsl #31
 9005 6182 120A     		lsrs	r2, r2, #8
 9006 6184 42EA0062 		orr	r2, r2, r0, lsl #24
 9007 6188 050A     		lsrs	r5, r0, #8
 9008 618a 1F98     		ldr	r0, [sp, #124]
 9009 618c 4A40     		eors	r2, r2, r1
 9010 618e 45EA0065 		orr	r5, r5, r0, lsl #24
 9011 6192 5D40     		eors	r5, r5, r3
 9012 6194 0D9B     		ldr	r3, [sp, #52]
 9013 6196 C109     		lsrs	r1, r0, #7
ARM GAS  /tmp/ccxnUvyY.s 			page 159


 9014 6198 41EA4361 		orr	r1, r1, r3, lsl #25
 9015 619c 85EAD315 		eor	r5, r5, r3, lsr #7
 9016 61a0 1E9B     		ldr	r3, [sp, #120]
 9017 61a2 4A40     		eors	r2, r2, r1
 9018 61a4 D218     		adds	r2, r2, r3
 9019 61a6 0C9B     		ldr	r3, [sp, #48]
 9020 61a8 3999     		ldr	r1, [sp, #228]
 9021 61aa 43EB0505 		adc	r5, r3, r5
 9022 61ae 179B     		ldr	r3, [sp, #92]
 9023 61b0 1B9E     		ldr	r6, [sp, #108]
 9024 61b2 D218     		adds	r2, r2, r3
 9025 61b4 039B     		ldr	r3, [sp, #12]
 9026 61b6 43EB0505 		adc	r5, r3, r5
 9027 61ba 399B     		ldr	r3, [sp, #228]
 9028 61bc DC0C     		lsrs	r4, r3, #19
 9029 61be 1B9B     		ldr	r3, [sp, #108]
 9030 61c0 44EA4334 		orr	r4, r4, r3, lsl #13
 9031 61c4 DB0C     		lsrs	r3, r3, #19
 9032 61c6 43EA4133 		orr	r3, r3, r1, lsl #13
 9033 61ca 1B99     		ldr	r1, [sp, #108]
 9034 61cc C800     		lsls	r0, r1, #3
 9035 61ce 3999     		ldr	r1, [sp, #228]
 9036 61d0 40EA5170 		orr	r0, r0, r1, lsr #29
 9037 61d4 4340     		eors	r3, r3, r0
 9038 61d6 C900     		lsls	r1, r1, #3
 9039 61d8 3998     		ldr	r0, [sp, #228]
 9040 61da 41EA5671 		orr	r1, r1, r6, lsr #29
 9041 61de 6140     		eors	r1, r1, r4
 9042 61e0 8409     		lsrs	r4, r0, #6
 9043 61e2 44EA8664 		orr	r4, r4, r6, lsl #26
 9044 61e6 6140     		eors	r1, r1, r4
 9045 61e8 8A18     		adds	r2, r1, r2
 9046 61ea 83EA9613 		eor	r3, r3, r6, lsr #6
 9047 61ee 45EB0303 		adc	r3, r5, r3
 9048 61f2 1D93     		str	r3, [sp, #116]
 9049 61f4 209B     		ldr	r3, [sp, #128]
 9050 61f6 3B92     		str	r2, [sp, #236]
 9051 61f8 5908     		lsrs	r1, r3, #1
 9052 61fa 0E9B     		ldr	r3, [sp, #56]
 9053 61fc 0E98     		ldr	r0, [sp, #56]
 9054 61fe 41EAC371 		orr	r1, r1, r3, lsl #31
 9055 6202 5A08     		lsrs	r2, r3, #1
 9056 6204 209B     		ldr	r3, [sp, #128]
 9057 6206 060A     		lsrs	r6, r0, #8
 9058 6208 42EAC372 		orr	r2, r2, r3, lsl #31
 9059 620c 1B0A     		lsrs	r3, r3, #8
 9060 620e 43EA0063 		orr	r3, r3, r0, lsl #24
 9061 6212 2098     		ldr	r0, [sp, #128]
 9062 6214 4B40     		eors	r3, r3, r1
 9063 6216 46EA0066 		orr	r6, r6, r0, lsl #24
 9064 621a 5640     		eors	r6, r6, r2
 9065 621c 0E9A     		ldr	r2, [sp, #56]
 9066 621e C109     		lsrs	r1, r0, #7
 9067 6220 41EA4261 		orr	r1, r1, r2, lsl #25
 9068 6224 86EAD216 		eor	r6, r6, r2, lsr #7
 9069 6228 1F9A     		ldr	r2, [sp, #124]
 9070 622a 4B40     		eors	r3, r3, r1
ARM GAS  /tmp/ccxnUvyY.s 			page 160


 9071 622c 9B18     		adds	r3, r3, r2
 9072 622e 0D9A     		ldr	r2, [sp, #52]
 9073 6230 3A99     		ldr	r1, [sp, #232]
 9074 6232 42EB0606 		adc	r6, r2, r6
 9075 6236 189A     		ldr	r2, [sp, #96]
 9076 6238 9B18     		adds	r3, r3, r2
 9077 623a 069A     		ldr	r2, [sp, #24]
 9078 623c 42EB0606 		adc	r6, r2, r6
 9079 6240 3A9A     		ldr	r2, [sp, #232]
 9080 6242 D40C     		lsrs	r4, r2, #19
 9081 6244 1C9A     		ldr	r2, [sp, #112]
 9082 6246 44EA4234 		orr	r4, r4, r2, lsl #13
 9083 624a D20C     		lsrs	r2, r2, #19
 9084 624c 42EA4132 		orr	r2, r2, r1, lsl #13
 9085 6250 1C99     		ldr	r1, [sp, #112]
 9086 6252 1C9D     		ldr	r5, [sp, #112]
 9087 6254 C800     		lsls	r0, r1, #3
 9088 6256 3A99     		ldr	r1, [sp, #232]
 9089 6258 40EA5170 		orr	r0, r0, r1, lsr #29
 9090 625c 4240     		eors	r2, r2, r0
 9091 625e C900     		lsls	r1, r1, #3
 9092 6260 3A98     		ldr	r0, [sp, #232]
 9093 6262 41EA5571 		orr	r1, r1, r5, lsr #29
 9094 6266 6140     		eors	r1, r1, r4
 9095 6268 8409     		lsrs	r4, r0, #6
 9096 626a 44EA8564 		orr	r4, r4, r5, lsl #26
 9097 626e 6140     		eors	r1, r1, r4
 9098 6270 CB18     		adds	r3, r1, r3
 9099 6272 82EA9512 		eor	r2, r2, r5, lsr #6
 9100 6276 3C93     		str	r3, [sp, #240]
 9101 6278 46EB0203 		adc	r3, r6, r2
 9102 627c 1E93     		str	r3, [sp, #120]
 9103 627e 219B     		ldr	r3, [sp, #132]
 9104 6280 2199     		ldr	r1, [sp, #132]
 9105 6282 5A08     		lsrs	r2, r3, #1
 9106 6284 0F9B     		ldr	r3, [sp, #60]
 9107 6286 080A     		lsrs	r0, r1, #8
 9108 6288 42EAC372 		orr	r2, r2, r3, lsl #31
 9109 628c 5B08     		lsrs	r3, r3, #1
 9110 628e 43EAC173 		orr	r3, r3, r1, lsl #31
 9111 6292 0F99     		ldr	r1, [sp, #60]
 9112 6294 1D9D     		ldr	r5, [sp, #116]
 9113 6296 40EA0160 		orr	r0, r0, r1, lsl #24
 9114 629a 0E0A     		lsrs	r6, r1, #8
 9115 629c 2199     		ldr	r1, [sp, #132]
 9116 629e 5040     		eors	r0, r0, r2
 9117 62a0 46EA0166 		orr	r6, r6, r1, lsl #24
 9118 62a4 5E40     		eors	r6, r6, r3
 9119 62a6 0F9B     		ldr	r3, [sp, #60]
 9120 62a8 CA09     		lsrs	r2, r1, #7
 9121 62aa 42EA4362 		orr	r2, r2, r3, lsl #25
 9122 62ae 86EAD316 		eor	r6, r6, r3, lsr #7
 9123 62b2 209B     		ldr	r3, [sp, #128]
 9124 62b4 5040     		eors	r0, r0, r2
 9125 62b6 C018     		adds	r0, r0, r3
 9126 62b8 0E9B     		ldr	r3, [sp, #56]
 9127 62ba 3B9A     		ldr	r2, [sp, #236]
ARM GAS  /tmp/ccxnUvyY.s 			page 161


 9128 62bc 43EB0606 		adc	r6, r3, r6
 9129 62c0 339B     		ldr	r3, [sp, #204]
 9130 62c2 C018     		adds	r0, r0, r3
 9131 62c4 3B9B     		ldr	r3, [sp, #236]
 9132 62c6 4AEB0606 		adc	r6, r10, r6
 9133 62ca DC0C     		lsrs	r4, r3, #19
 9134 62cc 1D9B     		ldr	r3, [sp, #116]
 9135 62ce 44EA4334 		orr	r4, r4, r3, lsl #13
 9136 62d2 DB0C     		lsrs	r3, r3, #19
 9137 62d4 43EA4233 		orr	r3, r3, r2, lsl #13
 9138 62d8 1D9A     		ldr	r2, [sp, #116]
 9139 62da D100     		lsls	r1, r2, #3
 9140 62dc 3B9A     		ldr	r2, [sp, #236]
 9141 62de 41EA5271 		orr	r1, r1, r2, lsr #29
 9142 62e2 4B40     		eors	r3, r3, r1
 9143 62e4 D200     		lsls	r2, r2, #3
 9144 62e6 3B99     		ldr	r1, [sp, #236]
 9145 62e8 42EA5572 		orr	r2, r2, r5, lsr #29
 9146 62ec 6240     		eors	r2, r2, r4
 9147 62ee 8C09     		lsrs	r4, r1, #6
 9148 62f0 44EA8564 		orr	r4, r4, r5, lsl #26
 9149 62f4 6240     		eors	r2, r2, r4
 9150 62f6 1218     		adds	r2, r2, r0
 9151 62f8 83EA9513 		eor	r3, r3, r5, lsr #6
 9152 62fc 46EB0303 		adc	r3, r6, r3
 9153 6300 1F93     		str	r3, [sp, #124]
 9154 6302 229B     		ldr	r3, [sp, #136]
 9155 6304 2092     		str	r2, [sp, #128]
 9156 6306 5908     		lsrs	r1, r3, #1
 9157 6308 109B     		ldr	r3, [sp, #64]
 9158 630a 1098     		ldr	r0, [sp, #64]
 9159 630c 41EAC371 		orr	r1, r1, r3, lsl #31
 9160 6310 5A08     		lsrs	r2, r3, #1
 9161 6312 229B     		ldr	r3, [sp, #136]
 9162 6314 4FEA102C 		lsr	ip, r0, #8
 9163 6318 42EAC372 		orr	r2, r2, r3, lsl #31
 9164 631c 1B0A     		lsrs	r3, r3, #8
 9165 631e 43EA0063 		orr	r3, r3, r0, lsl #24
 9166 6322 2298     		ldr	r0, [sp, #136]
 9167 6324 4B40     		eors	r3, r3, r1
 9168 6326 4CEA006C 		orr	ip, ip, r0, lsl #24
 9169 632a 82EA0C0C 		eor	ip, r2, ip
 9170 632e 109A     		ldr	r2, [sp, #64]
 9171 6330 C109     		lsrs	r1, r0, #7
 9172 6332 41EA4261 		orr	r1, r1, r2, lsl #25
 9173 6336 8CEAD21C 		eor	ip, ip, r2, lsr #7
 9174 633a 219A     		ldr	r2, [sp, #132]
 9175 633c 4B40     		eors	r3, r3, r1
 9176 633e 9B18     		adds	r3, r3, r2
 9177 6340 0F9A     		ldr	r2, [sp, #60]
 9178 6342 42EB0C0C 		adc	ip, r2, ip
 9179 6346 379A     		ldr	r2, [sp, #220]
 9180 6348 3C99     		ldr	r1, [sp, #240]
 9181 634a 9B18     		adds	r3, r3, r2
 9182 634c 199A     		ldr	r2, [sp, #100]
 9183 634e 1E9D     		ldr	r5, [sp, #120]
 9184 6350 42EB0C0C 		adc	ip, r2, ip
ARM GAS  /tmp/ccxnUvyY.s 			page 162


 9185 6354 3C9A     		ldr	r2, [sp, #240]
 9186 6356 1F9E     		ldr	r6, [sp, #124]
 9187 6358 D40C     		lsrs	r4, r2, #19
 9188 635a 1E9A     		ldr	r2, [sp, #120]
 9189 635c 44EA4234 		orr	r4, r4, r2, lsl #13
 9190 6360 D20C     		lsrs	r2, r2, #19
 9191 6362 42EA4132 		orr	r2, r2, r1, lsl #13
 9192 6366 1E99     		ldr	r1, [sp, #120]
 9193 6368 C800     		lsls	r0, r1, #3
 9194 636a 3C99     		ldr	r1, [sp, #240]
 9195 636c 40EA5170 		orr	r0, r0, r1, lsr #29
 9196 6370 4240     		eors	r2, r2, r0
 9197 6372 C900     		lsls	r1, r1, #3
 9198 6374 3C98     		ldr	r0, [sp, #240]
 9199 6376 41EA5571 		orr	r1, r1, r5, lsr #29
 9200 637a 6140     		eors	r1, r1, r4
 9201 637c 8409     		lsrs	r4, r0, #6
 9202 637e 44EA8564 		orr	r4, r4, r5, lsl #26
 9203 6382 6140     		eors	r1, r1, r4
 9204 6384 CB18     		adds	r3, r1, r3
 9205 6386 82EA9512 		eor	r2, r2, r5, lsr #6
 9206 638a 4193     		str	r3, [sp, #260]
 9207 638c 4CEB0203 		adc	r3, ip, r2
 9208 6390 2193     		str	r3, [sp, #132]
 9209 6392 239B     		ldr	r3, [sp, #140]
 9210 6394 119A     		ldr	r2, [sp, #68]
 9211 6396 5808     		lsrs	r0, r3, #1
 9212 6398 119B     		ldr	r3, [sp, #68]
 9213 639a 239C     		ldr	r4, [sp, #140]
 9214 639c 40EAC370 		orr	r0, r0, r3, lsl #31
 9215 63a0 5908     		lsrs	r1, r3, #1
 9216 63a2 239B     		ldr	r3, [sp, #140]
 9217 63a4 41EAC371 		orr	r1, r1, r3, lsl #31
 9218 63a8 1B0A     		lsrs	r3, r3, #8
 9219 63aa 43EA0263 		orr	r3, r3, r2, lsl #24
 9220 63ae 120A     		lsrs	r2, r2, #8
 9221 63b0 42EA0462 		orr	r2, r2, r4, lsl #24
 9222 63b4 4A40     		eors	r2, r2, r1
 9223 63b6 1199     		ldr	r1, [sp, #68]
 9224 63b8 4340     		eors	r3, r3, r0
 9225 63ba E009     		lsrs	r0, r4, #7
 9226 63bc 40EA4160 		orr	r0, r0, r1, lsl #25
 9227 63c0 82EAD112 		eor	r2, r2, r1, lsr #7
 9228 63c4 2299     		ldr	r1, [sp, #136]
 9229 63c6 4340     		eors	r3, r3, r0
 9230 63c8 5B18     		adds	r3, r3, r1
 9231 63ca 1099     		ldr	r1, [sp, #64]
 9232 63cc 2098     		ldr	r0, [sp, #128]
 9233 63ce 41EB0202 		adc	r2, r1, r2
 9234 63d2 3899     		ldr	r1, [sp, #224]
 9235 63d4 5B18     		adds	r3, r3, r1
 9236 63d6 1A99     		ldr	r1, [sp, #104]
 9237 63d8 41EB0202 		adc	r2, r1, r2
 9238 63dc 2099     		ldr	r1, [sp, #128]
 9239 63de CD0C     		lsrs	r5, r1, #19
 9240 63e0 1F99     		ldr	r1, [sp, #124]
 9241 63e2 45EA4135 		orr	r5, r5, r1, lsl #13
ARM GAS  /tmp/ccxnUvyY.s 			page 163


 9242 63e6 C90C     		lsrs	r1, r1, #19
 9243 63e8 41EA4031 		orr	r1, r1, r0, lsl #13
 9244 63ec 1F98     		ldr	r0, [sp, #124]
 9245 63ee C400     		lsls	r4, r0, #3
 9246 63f0 2098     		ldr	r0, [sp, #128]
 9247 63f2 44EA5074 		orr	r4, r4, r0, lsr #29
 9248 63f6 6140     		eors	r1, r1, r4
 9249 63f8 C000     		lsls	r0, r0, #3
 9250 63fa 209C     		ldr	r4, [sp, #128]
 9251 63fc 40EA5670 		orr	r0, r0, r6, lsr #29
 9252 6400 6840     		eors	r0, r0, r5
 9253 6402 A509     		lsrs	r5, r4, #6
 9254 6404 45EA8665 		orr	r5, r5, r6, lsl #26
 9255 6408 6840     		eors	r0, r0, r5
 9256 640a C318     		adds	r3, r0, r3
 9257 640c 81EA9611 		eor	r1, r1, r6, lsr #6
 9258 6410 4293     		str	r3, [sp, #264]
 9259 6412 42EB0103 		adc	r3, r2, r1
 9260 6416 2293     		str	r3, [sp, #136]
 9261 6418 249B     		ldr	r3, [sp, #144]
 9262 641a 5A08     		lsrs	r2, r3, #1
 9263 641c 129B     		ldr	r3, [sp, #72]
 9264 641e 2499     		ldr	r1, [sp, #144]
 9265 6420 42EAC372 		orr	r2, r2, r3, lsl #31
 9266 6424 5B08     		lsrs	r3, r3, #1
 9267 6426 43EAC173 		orr	r3, r3, r1, lsl #31
 9268 642a 080A     		lsrs	r0, r1, #8
 9269 642c 1299     		ldr	r1, [sp, #72]
 9270 642e 249C     		ldr	r4, [sp, #144]
 9271 6430 40EA0160 		orr	r0, r0, r1, lsl #24
 9272 6434 090A     		lsrs	r1, r1, #8
 9273 6436 41EA0461 		orr	r1, r1, r4, lsl #24
 9274 643a 5940     		eors	r1, r1, r3
 9275 643c 129B     		ldr	r3, [sp, #72]
 9276 643e 5040     		eors	r0, r0, r2
 9277 6440 E209     		lsrs	r2, r4, #7
 9278 6442 42EA4362 		orr	r2, r2, r3, lsl #25
 9279 6446 81EAD311 		eor	r1, r1, r3, lsr #7
 9280 644a 239B     		ldr	r3, [sp, #140]
 9281 644c 5040     		eors	r0, r0, r2
 9282 644e C018     		adds	r0, r0, r3
 9283 6450 119B     		ldr	r3, [sp, #68]
 9284 6452 419A     		ldr	r2, [sp, #260]
 9285 6454 43EB0101 		adc	r1, r3, r1
 9286 6458 399B     		ldr	r3, [sp, #228]
 9287 645a 219E     		ldr	r6, [sp, #132]
 9288 645c C018     		adds	r0, r0, r3
 9289 645e 1B9B     		ldr	r3, [sp, #108]
 9290 6460 43EB0101 		adc	r1, r3, r1
 9291 6464 419B     		ldr	r3, [sp, #260]
 9292 6466 DD0C     		lsrs	r5, r3, #19
 9293 6468 219B     		ldr	r3, [sp, #132]
 9294 646a 45EA4335 		orr	r5, r5, r3, lsl #13
 9295 646e DB0C     		lsrs	r3, r3, #19
 9296 6470 43EA4233 		orr	r3, r3, r2, lsl #13
 9297 6474 219A     		ldr	r2, [sp, #132]
 9298 6476 D400     		lsls	r4, r2, #3
ARM GAS  /tmp/ccxnUvyY.s 			page 164


 9299 6478 419A     		ldr	r2, [sp, #260]
 9300 647a 44EA5274 		orr	r4, r4, r2, lsr #29
 9301 647e 6340     		eors	r3, r3, r4
 9302 6480 D200     		lsls	r2, r2, #3
 9303 6482 419C     		ldr	r4, [sp, #260]
 9304 6484 42EA5672 		orr	r2, r2, r6, lsr #29
 9305 6488 6A40     		eors	r2, r2, r5
 9306 648a A509     		lsrs	r5, r4, #6
 9307 648c 45EA8665 		orr	r5, r5, r6, lsl #26
 9308 6490 6A40     		eors	r2, r2, r5
 9309 6492 1218     		adds	r2, r2, r0
 9310 6494 83EA9613 		eor	r3, r3, r6, lsr #6
 9311 6498 41EB0303 		adc	r3, r1, r3
 9312 649c 1193     		str	r3, [sp, #68]
 9313 649e 259B     		ldr	r3, [sp, #148]
 9314 64a0 2392     		str	r2, [sp, #140]
 9315 64a2 5908     		lsrs	r1, r3, #1
 9316 64a4 139B     		ldr	r3, [sp, #76]
 9317 64a6 259A     		ldr	r2, [sp, #148]
 9318 64a8 41EAC371 		orr	r1, r1, r3, lsl #31
 9319 64ac 5B08     		lsrs	r3, r3, #1
 9320 64ae 43EAC273 		orr	r3, r3, r2, lsl #31
 9321 64b2 150A     		lsrs	r5, r2, #8
 9322 64b4 139A     		ldr	r2, [sp, #76]
 9323 64b6 2598     		ldr	r0, [sp, #148]
 9324 64b8 45EA0265 		orr	r5, r5, r2, lsl #24
 9325 64bc 120A     		lsrs	r2, r2, #8
 9326 64be 42EA0062 		orr	r2, r2, r0, lsl #24
 9327 64c2 5A40     		eors	r2, r2, r3
 9328 64c4 139B     		ldr	r3, [sp, #76]
 9329 64c6 4D40     		eors	r5, r5, r1
 9330 64c8 C109     		lsrs	r1, r0, #7
 9331 64ca 41EA4361 		orr	r1, r1, r3, lsl #25
 9332 64ce 82EAD312 		eor	r2, r2, r3, lsr #7
 9333 64d2 249B     		ldr	r3, [sp, #144]
 9334 64d4 4D40     		eors	r5, r5, r1
 9335 64d6 ED18     		adds	r5, r5, r3
 9336 64d8 129B     		ldr	r3, [sp, #72]
 9337 64da 4299     		ldr	r1, [sp, #264]
 9338 64dc 43EB0202 		adc	r2, r3, r2
 9339 64e0 3A9B     		ldr	r3, [sp, #232]
 9340 64e2 ED18     		adds	r5, r5, r3
 9341 64e4 1C9B     		ldr	r3, [sp, #112]
 9342 64e6 43EB0202 		adc	r2, r3, r2
 9343 64ea 429B     		ldr	r3, [sp, #264]
 9344 64ec DC0C     		lsrs	r4, r3, #19
 9345 64ee 229B     		ldr	r3, [sp, #136]
 9346 64f0 44EA4334 		orr	r4, r4, r3, lsl #13
 9347 64f4 DB0C     		lsrs	r3, r3, #19
 9348 64f6 43EA4133 		orr	r3, r3, r1, lsl #13
 9349 64fa 2299     		ldr	r1, [sp, #136]
 9350 64fc C800     		lsls	r0, r1, #3
 9351 64fe 4299     		ldr	r1, [sp, #264]
 9352 6500 229E     		ldr	r6, [sp, #136]
 9353 6502 40EA5170 		orr	r0, r0, r1, lsr #29
 9354 6506 4340     		eors	r3, r3, r0
 9355 6508 C900     		lsls	r1, r1, #3
ARM GAS  /tmp/ccxnUvyY.s 			page 165


 9356 650a 4298     		ldr	r0, [sp, #264]
 9357 650c 41EA5671 		orr	r1, r1, r6, lsr #29
 9358 6510 6140     		eors	r1, r1, r4
 9359 6512 8409     		lsrs	r4, r0, #6
 9360 6514 44EA8664 		orr	r4, r4, r6, lsl #26
 9361 6518 6140     		eors	r1, r1, r4
 9362 651a 4919     		adds	r1, r1, r5
 9363 651c 83EA9613 		eor	r3, r3, r6, lsr #6
 9364 6520 42EB0303 		adc	r3, r2, r3
 9365 6524 1293     		str	r3, [sp, #72]
 9366 6526 169B     		ldr	r3, [sp, #88]
 9367 6528 2491     		str	r1, [sp, #144]
 9368 652a 5A08     		lsrs	r2, r3, #1
 9369 652c 029B     		ldr	r3, [sp, #8]
 9370 652e 1699     		ldr	r1, [sp, #88]
 9371 6530 42EAC372 		orr	r2, r2, r3, lsl #31
 9372 6534 5B08     		lsrs	r3, r3, #1
 9373 6536 43EAC173 		orr	r3, r3, r1, lsl #31
 9374 653a 4FEA1129 		lsr	r9, r1, #8
 9375 653e 0299     		ldr	r1, [sp, #8]
 9376 6540 119C     		ldr	r4, [sp, #68]
 9377 6542 49EA0169 		orr	r9, r9, r1, lsl #24
 9378 6546 0D0A     		lsrs	r5, r1, #8
 9379 6548 1699     		ldr	r1, [sp, #88]
 9380 654a 82EA0909 		eor	r9, r2, r9
 9381 654e 45EA0165 		orr	r5, r5, r1, lsl #24
 9382 6552 5D40     		eors	r5, r5, r3
 9383 6554 029B     		ldr	r3, [sp, #8]
 9384 6556 CA09     		lsrs	r2, r1, #7
 9385 6558 42EA4362 		orr	r2, r2, r3, lsl #25
 9386 655c 85EAD315 		eor	r5, r5, r3, lsr #7
 9387 6560 259B     		ldr	r3, [sp, #148]
 9388 6562 89EA0209 		eor	r9, r9, r2
 9389 6566 19EB0309 		adds	r9, r9, r3
 9390 656a 139B     		ldr	r3, [sp, #76]
 9391 656c 239A     		ldr	r2, [sp, #140]
 9392 656e 43EB0505 		adc	r5, r3, r5
 9393 6572 3B9B     		ldr	r3, [sp, #236]
 9394 6574 19EB0309 		adds	r9, r9, r3
 9395 6578 1D9B     		ldr	r3, [sp, #116]
 9396 657a 43EB0505 		adc	r5, r3, r5
 9397 657e 239B     		ldr	r3, [sp, #140]
 9398 6580 D80C     		lsrs	r0, r3, #19
 9399 6582 119B     		ldr	r3, [sp, #68]
 9400 6584 40EA4330 		orr	r0, r0, r3, lsl #13
 9401 6588 DB0C     		lsrs	r3, r3, #19
 9402 658a 43EA4233 		orr	r3, r3, r2, lsl #13
 9403 658e 119A     		ldr	r2, [sp, #68]
 9404 6590 D100     		lsls	r1, r2, #3
 9405 6592 239A     		ldr	r2, [sp, #140]
 9406 6594 41EA5271 		orr	r1, r1, r2, lsr #29
 9407 6598 4B40     		eors	r3, r3, r1
 9408 659a D200     		lsls	r2, r2, #3
 9409 659c 2399     		ldr	r1, [sp, #140]
 9410 659e 42EA5472 		orr	r2, r2, r4, lsr #29
 9411 65a2 4240     		eors	r2, r2, r0
 9412 65a4 8809     		lsrs	r0, r1, #6
ARM GAS  /tmp/ccxnUvyY.s 			page 166


 9413 65a6 40EA8460 		orr	r0, r0, r4, lsl #26
 9414 65aa 4240     		eors	r2, r2, r0
 9415 65ac 12EB0902 		adds	r2, r2, r9
 9416 65b0 83EA9413 		eor	r3, r3, r4, lsr #6
 9417 65b4 45EB0303 		adc	r3, r5, r3
 9418 65b8 1393     		str	r3, [sp, #76]
 9419 65ba 2C9B     		ldr	r3, [sp, #176]
 9420 65bc 2592     		str	r2, [sp, #148]
 9421 65be 990B     		lsrs	r1, r3, #14
 9422 65c0 329B     		ldr	r3, [sp, #200]
 9423 65c2 2C98     		ldr	r0, [sp, #176]
 9424 65c4 41EA8341 		orr	r1, r1, r3, lsl #18
 9425 65c8 4FEA933E 		lsr	lr, r3, #14
 9426 65cc 2C9B     		ldr	r3, [sp, #176]
 9427 65ce 4EEA834E 		orr	lr, lr, r3, lsl #18
 9428 65d2 9A0C     		lsrs	r2, r3, #18
 9429 65d4 329B     		ldr	r3, [sp, #200]
 9430 65d6 42EA8332 		orr	r2, r2, r3, lsl #14
 9431 65da 9B0C     		lsrs	r3, r3, #18
 9432 65dc 43EA8033 		orr	r3, r3, r0, lsl #14
 9433 65e0 8EEA030E 		eor	lr, lr, r3
 9434 65e4 329B     		ldr	r3, [sp, #200]
 9435 65e6 5140     		eors	r1, r1, r2
 9436 65e8 DB05     		lsls	r3, r3, #23
 9437 65ea 43EA5023 		orr	r3, r3, r0, lsr #9
 9438 65ee C205     		lsls	r2, r0, #23
 9439 65f0 3298     		ldr	r0, [sp, #200]
 9440 65f2 8EEA030E 		eor	lr, lr, r3
 9441 65f6 42EA5022 		orr	r2, r2, r0, lsr #9
 9442 65fa CE4B     		ldr	r3, .L61
 9443 65fc 5140     		eors	r1, r1, r2
 9444 65fe 189A     		ldr	r2, [sp, #96]
 9445 6600 12EB0309 		adds	r9, r2, r3
 9446 6604 069A     		ldr	r2, [sp, #24]
 9447 6606 CC4B     		ldr	r3, .L61+4
 9448 6608 43EB020C 		adc	ip, r3, r2
 9449 660c 2E9B     		ldr	r3, [sp, #184]
 9450 660e 2C9A     		ldr	r2, [sp, #176]
 9451 6610 19EB0309 		adds	r9, r9, r3
 9452 6614 2D9B     		ldr	r3, [sp, #180]
 9453 6616 269E     		ldr	r6, [sp, #152]
 9454 6618 43EB0C0C 		adc	ip, r3, ip
 9455 661c 2F9B     		ldr	r3, [sp, #188]
 9456 661e 11EB0901 		adds	r1, r1, r9
 9457 6622 23EA0204 		bic	r4, r3, r2
 9458 6626 2B9B     		ldr	r3, [sp, #172]
 9459 6628 4EEB0C0E 		adc	lr, lr, ip
 9460 662c 23EA0002 		bic	r2, r3, r0
 9461 6630 2C98     		ldr	r0, [sp, #176]
 9462 6632 309B     		ldr	r3, [sp, #192]
 9463 6634 0340     		ands	r3, r3, r0
 9464 6636 6340     		eors	r3, r3, r4
 9465 6638 DDE93105 		ldrd	r0, r5, [sp, #196]
 9466 663c 2840     		ands	r0, r0, r5
 9467 663e C918     		adds	r1, r1, r3
 9468 6640 82EA0002 		eor	r2, r2, r0
 9469 6644 299B     		ldr	r3, [sp, #164]
ARM GAS  /tmp/ccxnUvyY.s 			page 167


 9470 6646 4EEB020E 		adc	lr, lr, r2
 9471 664a 2A9A     		ldr	r2, [sp, #168]
 9472 664c 1B0F     		lsrs	r3, r3, #28
 9473 664e 43EA0213 		orr	r3, r3, r2, lsl #4
 9474 6652 140F     		lsrs	r4, r2, #28
 9475 6654 299A     		ldr	r2, [sp, #164]
 9476 6656 2998     		ldr	r0, [sp, #164]
 9477 6658 44EA0214 		orr	r4, r4, r2, lsl #4
 9478 665c 2A9A     		ldr	r2, [sp, #168]
 9479 665e 2A9D     		ldr	r5, [sp, #168]
 9480 6660 9207     		lsls	r2, r2, #30
 9481 6662 42EA9002 		orr	r2, r2, r0, lsr #2
 9482 6666 8007     		lsls	r0, r0, #30
 9483 6668 40EA9500 		orr	r0, r0, r5, lsr #2
 9484 666c 4340     		eors	r3, r3, r0
 9485 666e 2998     		ldr	r0, [sp, #164]
 9486 6670 5440     		eors	r4, r4, r2
 9487 6672 6A06     		lsls	r2, r5, #25
 9488 6674 42EAD012 		orr	r2, r2, r0, lsr #7
 9489 6678 5440     		eors	r4, r4, r2
 9490 667a 4006     		lsls	r0, r0, #25
 9491 667c 279A     		ldr	r2, [sp, #156]
 9492 667e 40EAD510 		orr	r0, r0, r5, lsr #7
 9493 6682 83EA000C 		eor	ip, r3, r0
 9494 6686 87EA0205 		eor	r5, r7, r2
 9495 668a 2898     		ldr	r0, [sp, #160]
 9496 668c 269A     		ldr	r2, [sp, #152]
 9497 668e 289B     		ldr	r3, [sp, #160]
 9498 6690 4240     		eors	r2, r2, r0
 9499 6692 2998     		ldr	r0, [sp, #164]
 9500 6694 1E40     		ands	r6, r6, r3
 9501 6696 0540     		ands	r5, r5, r0
 9502 6698 2A98     		ldr	r0, [sp, #168]
 9503 669a 0240     		ands	r2, r2, r0
 9504 669c 2798     		ldr	r0, [sp, #156]
 9505 669e 7240     		eors	r2, r2, r6
 9506 66a0 3840     		ands	r0, r0, r7
 9507 66a2 6840     		eors	r0, r0, r5
 9508 66a4 1CEB0003 		adds	r3, ip, r0
 9509 66a8 44EB0204 		adc	r4, r4, r2
 9510 66ac 1BEB010B 		adds	fp, fp, r1
 9511 66b0 48EB0E06 		adc	r6, r8, lr
 9512 66b4 CB18     		adds	r3, r1, r3
 9513 66b6 0793     		str	r3, [sp, #28]
 9514 66b8 4FEA9642 		lsr	r2, r6, #18
 9515 66bc 4EEB0403 		adc	r3, lr, r4
 9516 66c0 4FEA963E 		lsr	lr, r6, #14
 9517 66c4 42EA8B32 		orr	r2, r2, fp, lsl #14
 9518 66c8 4EEA8B4E 		orr	lr, lr, fp, lsl #18
 9519 66cc 8EEA020E 		eor	lr, lr, r2
 9520 66d0 F205     		lsls	r2, r6, #23
 9521 66d2 42EA5B22 		orr	r2, r2, fp, lsr #9
 9522 66d6 8EEA020E 		eor	lr, lr, r2
 9523 66da 984C     		ldr	r4, .L61+8
 9524 66dc 339A     		ldr	r2, [sp, #204]
 9525 66de 0893     		str	r3, [sp, #32]
 9526 66e0 1419     		adds	r4, r2, r4
ARM GAS  /tmp/ccxnUvyY.s 			page 168


 9527 66e2 974A     		ldr	r2, .L61+12
 9528 66e4 4FEA9B33 		lsr	r3, fp, #14
 9529 66e8 42EB0A0A 		adc	r10, r2, r10
 9530 66ec 2F9A     		ldr	r2, [sp, #188]
 9531 66ee 4FEA9B41 		lsr	r1, fp, #18
 9532 66f2 A418     		adds	r4, r4, r2
 9533 66f4 41EA8631 		orr	r1, r1, r6, lsl #14
 9534 66f8 2B9A     		ldr	r2, [sp, #172]
 9535 66fa 43EA8643 		orr	r3, r3, r6, lsl #18
 9536 66fe 83EA0103 		eor	r3, r3, r1
 9537 6702 4FEACB51 		lsl	r1, fp, #23
 9538 6706 42EB0A0A 		adc	r10, r2, r10
 9539 670a 41EA5621 		orr	r1, r1, r6, lsr #9
 9540 670e 309A     		ldr	r2, [sp, #192]
 9541 6710 4B40     		eors	r3, r3, r1
 9542 6712 1B19     		adds	r3, r3, r4
 9543 6714 22EA0B04 		bic	r4, r2, fp
 9544 6718 319A     		ldr	r2, [sp, #196]
 9545 671a 4EEB0A0E 		adc	lr, lr, r10
 9546 671e 22EA0601 		bic	r1, r2, r6
 9547 6722 2C9A     		ldr	r2, [sp, #176]
 9548 6724 3298     		ldr	r0, [sp, #200]
 9549 6726 02EA0B02 		and	r2, r2, fp
 9550 672a 3040     		ands	r0, r0, r6
 9551 672c 6240     		eors	r2, r2, r4
 9552 672e 9B18     		adds	r3, r3, r2
 9553 6730 81EA0001 		eor	r1, r1, r0
 9554 6734 079A     		ldr	r2, [sp, #28]
 9555 6736 4EEB010E 		adc	lr, lr, r1
 9556 673a 0899     		ldr	r1, [sp, #32]
 9557 673c 120F     		lsrs	r2, r2, #28
 9558 673e 42EA0112 		orr	r2, r2, r1, lsl #4
 9559 6742 0C0F     		lsrs	r4, r1, #28
 9560 6744 0799     		ldr	r1, [sp, #28]
 9561 6746 0798     		ldr	r0, [sp, #28]
 9562 6748 44EA0114 		orr	r4, r4, r1, lsl #4
 9563 674c 0899     		ldr	r1, [sp, #32]
 9564 674e 089D     		ldr	r5, [sp, #32]
 9565 6750 8907     		lsls	r1, r1, #30
 9566 6752 41EA9001 		orr	r1, r1, r0, lsr #2
 9567 6756 8007     		lsls	r0, r0, #30
 9568 6758 40EA9500 		orr	r0, r0, r5, lsr #2
 9569 675c 4240     		eors	r2, r2, r0
 9570 675e 0798     		ldr	r0, [sp, #28]
 9571 6760 4C40     		eors	r4, r4, r1
 9572 6762 6906     		lsls	r1, r5, #25
 9573 6764 41EAD011 		orr	r1, r1, r0, lsr #7
 9574 6768 4006     		lsls	r0, r0, #25
 9575 676a 40EAD510 		orr	r0, r0, r5, lsr #7
 9576 676e 82EA0008 		eor	r8, r2, r0
 9577 6772 4C40     		eors	r4, r4, r1
 9578 6774 2998     		ldr	r0, [sp, #164]
 9579 6776 2799     		ldr	r1, [sp, #156]
 9580 6778 299A     		ldr	r2, [sp, #164]
 9581 677a 81EA0005 		eor	r5, r1, r0
 9582 677e 2A98     		ldr	r0, [sp, #168]
 9583 6780 2899     		ldr	r1, [sp, #160]
ARM GAS  /tmp/ccxnUvyY.s 			page 169


 9584 6782 4140     		eors	r1, r1, r0
 9585 6784 0798     		ldr	r0, [sp, #28]
 9586 6786 0540     		ands	r5, r5, r0
 9587 6788 0898     		ldr	r0, [sp, #32]
 9588 678a 01EA0009 		and	r9, r1, r0
 9589 678e 2798     		ldr	r0, [sp, #156]
 9590 6790 2A99     		ldr	r1, [sp, #168]
 9591 6792 1040     		ands	r0, r0, r2
 9592 6794 289A     		ldr	r2, [sp, #160]
 9593 6796 6840     		eors	r0, r0, r5
 9594 6798 02EA010C 		and	ip, r2, r1
 9595 679c 89EA0C01 		eor	r1, r9, ip
 9596 67a0 18EB0002 		adds	r2, r8, r0
 9597 67a4 44EB0101 		adc	r1, r4, r1
 9598 67a8 F818     		adds	r0, r7, r3
 9599 67aa 0E90     		str	r0, [sp, #56]
 9600 67ac 2698     		ldr	r0, [sp, #152]
 9601 67ae 40EB0E05 		adc	r5, r0, lr
 9602 67b2 9B18     		adds	r3, r3, r2
 9603 67b4 0993     		str	r3, [sp, #36]
 9604 67b6 0E9B     		ldr	r3, [sp, #56]
 9605 67b8 4EEB010A 		adc	r10, lr, r1
 9606 67bc 0E99     		ldr	r1, [sp, #56]
 9607 67be 4FEA953E 		lsr	lr, r5, #14
 9608 67c2 980B     		lsrs	r0, r3, #14
 9609 67c4 4EEA834E 		orr	lr, lr, r3, lsl #18
 9610 67c8 9A0C     		lsrs	r2, r3, #18
 9611 67ca AB0C     		lsrs	r3, r5, #18
 9612 67cc 42EA8532 		orr	r2, r2, r5, lsl #14
 9613 67d0 43EA8133 		orr	r3, r3, r1, lsl #14
 9614 67d4 40EA8540 		orr	r0, r0, r5, lsl #18
 9615 67d8 5040     		eors	r0, r0, r2
 9616 67da 8EEA030E 		eor	lr, lr, r3
 9617 67de CA05     		lsls	r2, r1, #23
 9618 67e0 EB05     		lsls	r3, r5, #23
 9619 67e2 43EA5123 		orr	r3, r3, r1, lsr #9
 9620 67e6 42EA5522 		orr	r2, r2, r5, lsr #9
 9621 67ea 5040     		eors	r0, r0, r2
 9622 67ec 8EEA030E 		eor	lr, lr, r3
 9623 67f0 379A     		ldr	r2, [sp, #220]
 9624 67f2 544B     		ldr	r3, .L61+16
 9625 67f4 1999     		ldr	r1, [sp, #100]
 9626 67f6 D318     		adds	r3, r2, r3
 9627 67f8 534A     		ldr	r2, .L61+20
 9628 67fa 42EB010C 		adc	ip, r2, r1
 9629 67fe 309A     		ldr	r2, [sp, #192]
 9630 6800 06EA0501 		and	r1, r6, r5
 9631 6804 9B18     		adds	r3, r3, r2
 9632 6806 319A     		ldr	r2, [sp, #196]
 9633 6808 42EB0C0C 		adc	ip, r2, ip
 9634 680c 0E9A     		ldr	r2, [sp, #56]
 9635 680e C018     		adds	r0, r0, r3
 9636 6810 2C9B     		ldr	r3, [sp, #176]
 9637 6812 4EEB0C0E 		adc	lr, lr, ip
 9638 6816 23EA0207 		bic	r7, r3, r2
 9639 681a 329B     		ldr	r3, [sp, #200]
 9640 681c 23EA0502 		bic	r2, r3, r5
ARM GAS  /tmp/ccxnUvyY.s 			page 170


 9641 6820 0E9B     		ldr	r3, [sp, #56]
 9642 6822 4A40     		eors	r2, r2, r1
 9643 6824 0BEA0303 		and	r3, fp, r3
 9644 6828 7B40     		eors	r3, r3, r7
 9645 682a C018     		adds	r0, r0, r3
 9646 682c 099B     		ldr	r3, [sp, #36]
 9647 682e 0999     		ldr	r1, [sp, #36]
 9648 6830 4EEB020E 		adc	lr, lr, r2
 9649 6834 099F     		ldr	r7, [sp, #36]
 9650 6836 4FEA1A72 		lsr	r2, r10, #28
 9651 683a 42EA0112 		orr	r2, r2, r1, lsl #4
 9652 683e 4FEA8A71 		lsl	r1, r10, #30
 9653 6842 41EA9701 		orr	r1, r1, r7, lsr #2
 9654 6846 1B0F     		lsrs	r3, r3, #28
 9655 6848 BF07     		lsls	r7, r7, #30
 9656 684a 47EA9A07 		orr	r7, r7, r10, lsr #2
 9657 684e 43EA0A13 		orr	r3, r3, r10, lsl #4
 9658 6852 7B40     		eors	r3, r3, r7
 9659 6854 099F     		ldr	r7, [sp, #36]
 9660 6856 4A40     		eors	r2, r2, r1
 9661 6858 4FEA4A61 		lsl	r1, r10, #25
 9662 685c 41EAD711 		orr	r1, r1, r7, lsr #7
 9663 6860 7F06     		lsls	r7, r7, #25
 9664 6862 47EADA17 		orr	r7, r7, r10, lsr #7
 9665 6866 83EA0709 		eor	r9, r3, r7
 9666 686a 4A40     		eors	r2, r2, r1
 9667 686c 079F     		ldr	r7, [sp, #28]
 9668 686e 2999     		ldr	r1, [sp, #164]
 9669 6870 079C     		ldr	r4, [sp, #28]
 9670 6872 81EA070C 		eor	ip, r1, r7
 9671 6876 089F     		ldr	r7, [sp, #32]
 9672 6878 2A99     		ldr	r1, [sp, #168]
 9673 687a 089B     		ldr	r3, [sp, #32]
 9674 687c 7940     		eors	r1, r1, r7
 9675 687e 099F     		ldr	r7, [sp, #36]
 9676 6880 01EA0A01 		and	r1, r1, r10
 9677 6884 0CEA070C 		and	ip, ip, r7
 9678 6888 299F     		ldr	r7, [sp, #164]
 9679 688a 2740     		ands	r7, r7, r4
 9680 688c 2A9C     		ldr	r4, [sp, #168]
 9681 688e 8CEA0707 		eor	r7, ip, r7
 9682 6892 04EA0308 		and	r8, r4, r3
 9683 6896 81EA0801 		eor	r1, r1, r8
 9684 689a 19EB0703 		adds	r3, r9, r7
 9685 689e 42EB0101 		adc	r1, r2, r1
 9686 68a2 279A     		ldr	r2, [sp, #156]
 9687 68a4 12EB000C 		adds	ip, r2, r0
 9688 68a8 289A     		ldr	r2, [sp, #160]
 9689 68aa 42EB0E02 		adc	r2, r2, lr
 9690 68ae C318     		adds	r3, r0, r3
 9691 68b0 0A93     		str	r3, [sp, #40]
 9692 68b2 4EEB0103 		adc	r3, lr, r1
 9693 68b6 0B93     		str	r3, [sp, #44]
 9694 68b8 1346     		mov	r3, r2
 9695 68ba 4FEA9C3E 		lsr	lr, ip, #14
 9696 68be 0F92     		str	r2, [sp, #60]
 9697 68c0 4EEA824E 		orr	lr, lr, r2, lsl #18
ARM GAS  /tmp/ccxnUvyY.s 			page 171


 9698 68c4 4FEA9238 		lsr	r8, r2, #14
 9699 68c8 4FEA9C42 		lsr	r2, ip, #18
 9700 68cc 42EA8332 		orr	r2, r2, r3, lsl #14
 9701 68d0 9B0C     		lsrs	r3, r3, #18
 9702 68d2 43EA8C33 		orr	r3, r3, ip, lsl #14
 9703 68d6 48EA8C48 		orr	r8, r8, ip, lsl #18
 9704 68da 88EA0308 		eor	r8, r8, r3
 9705 68de 0F9B     		ldr	r3, [sp, #60]
 9706 68e0 0F99     		ldr	r1, [sp, #60]
 9707 68e2 DB05     		lsls	r3, r3, #23
 9708 68e4 43EA5C23 		orr	r3, r3, ip, lsr #9
 9709 68e8 8EEA020E 		eor	lr, lr, r2
 9710 68ec 88EA0308 		eor	r8, r8, r3
 9711 68f0 4FEACC52 		lsl	r2, ip, #23
 9712 68f4 389B     		ldr	r3, [sp, #224]
 9713 68f6 1548     		ldr	r0, .L61+24
 9714 68f8 42EA5122 		orr	r2, r2, r1, lsr #9
 9715 68fc 1818     		adds	r0, r3, r0
 9716 68fe 8EEA020E 		eor	lr, lr, r2
 9717 6902 134B     		ldr	r3, .L61+28
 9718 6904 1A9A     		ldr	r2, [sp, #104]
 9719 6906 0B9C     		ldr	r4, [sp, #44]
 9720 6908 43EB0203 		adc	r3, r3, r2
 9721 690c 2C9A     		ldr	r2, [sp, #176]
 9722 690e 8018     		adds	r0, r0, r2
 9723 6910 329A     		ldr	r2, [sp, #200]
 9724 6912 42EB0303 		adc	r3, r2, r3
 9725 6916 1EEB000E 		adds	lr, lr, r0
 9726 691a 48EB0308 		adc	r8, r8, r3
 9727 691e 0E9B     		ldr	r3, [sp, #56]
 9728 6920 2BEA0C00 		bic	r0, fp, ip
 9729 6924 03EA0C03 		and	r3, r3, ip
 9730 6928 26EA0102 		bic	r2, r6, r1
 9731 692c 4340     		eors	r3, r3, r0
 9732 692e 2940     		ands	r1, r1, r5
 9733 6930 10E0     		b	.L62
 9734              	.L63:
 9735 6932 00BF     		.align	2
 9736              	.L61:
 9737 6934 9C6126EA 		.word	-366583396
 9738 6938 CE3E27CA 		.word	-903397682
 9739 693c 07C2C021 		.word	566280711
 9740 6940 C7B886D1 		.word	-779700025
 9741 6944 1EEBE0CD 		.word	-840897762
 9742 6948 D67DDAEA 		.word	-354779690
 9743 694c 78D16EEE 		.word	-294727304
 9744 6950 7F4F7DF5 		.word	-176337025
 9745              	.L62:
 9746 6954 1EEB030E 		adds	lr, lr, r3
 9747 6958 82EA0102 		eor	r2, r2, r1
 9748 695c 0A9B     		ldr	r3, [sp, #40]
 9749 695e 48EB0208 		adc	r8, r8, r2
 9750 6962 0B9A     		ldr	r2, [sp, #44]
 9751 6964 0A99     		ldr	r1, [sp, #40]
 9752 6966 1B0F     		lsrs	r3, r3, #28
 9753 6968 43EA0213 		orr	r3, r3, r2, lsl #4
 9754 696c 120F     		lsrs	r2, r2, #28
ARM GAS  /tmp/ccxnUvyY.s 			page 172


 9755 696e 42EA0112 		orr	r2, r2, r1, lsl #4
 9756 6972 0B99     		ldr	r1, [sp, #44]
 9757 6974 0A98     		ldr	r0, [sp, #40]
 9758 6976 8907     		lsls	r1, r1, #30
 9759 6978 41EA9001 		orr	r1, r1, r0, lsr #2
 9760 697c 8007     		lsls	r0, r0, #30
 9761 697e 40EA9400 		orr	r0, r0, r4, lsr #2
 9762 6982 4340     		eors	r3, r3, r0
 9763 6984 0A98     		ldr	r0, [sp, #40]
 9764 6986 4A40     		eors	r2, r2, r1
 9765 6988 6106     		lsls	r1, r4, #25
 9766 698a 41EAD011 		orr	r1, r1, r0, lsr #7
 9767 698e 4006     		lsls	r0, r0, #25
 9768 6990 40EAD410 		orr	r0, r0, r4, lsr #7
 9769 6994 4340     		eors	r3, r3, r0
 9770 6996 4A40     		eors	r2, r2, r1
 9771 6998 0799     		ldr	r1, [sp, #28]
 9772 699a 0998     		ldr	r0, [sp, #36]
 9773 699c 81EA0007 		eor	r7, r1, r0
 9774 69a0 0899     		ldr	r1, [sp, #32]
 9775 69a2 0A98     		ldr	r0, [sp, #40]
 9776 69a4 81EA0A01 		eor	r1, r1, r10
 9777 69a8 0740     		ands	r7, r7, r0
 9778 69aa 2140     		ands	r1, r1, r4
 9779 69ac 0798     		ldr	r0, [sp, #28]
 9780 69ae 099C     		ldr	r4, [sp, #36]
 9781 69b0 2040     		ands	r0, r0, r4
 9782 69b2 089C     		ldr	r4, [sp, #32]
 9783 69b4 7840     		eors	r0, r0, r7
 9784 69b6 04EA0A09 		and	r9, r4, r10
 9785 69ba 1818     		adds	r0, r3, r0
 9786 69bc 81EA0901 		eor	r1, r1, r9
 9787 69c0 299B     		ldr	r3, [sp, #164]
 9788 69c2 42EB0101 		adc	r1, r2, r1
 9789 69c6 2A9A     		ldr	r2, [sp, #168]
 9790 69c8 13EB0E03 		adds	r3, r3, lr
 9791 69cc 42EB0809 		adc	r9, r2, r8
 9792 69d0 1EEB0002 		adds	r2, lr, r0
 9793 69d4 0C92     		str	r2, [sp, #48]
 9794 69d6 48EB0102 		adc	r2, r8, r1
 9795 69da 0D92     		str	r2, [sp, #52]
 9796 69dc 990C     		lsrs	r1, r3, #18
 9797 69de 4FEA933E 		lsr	lr, r3, #14
 9798 69e2 4FEA9938 		lsr	r8, r9, #14
 9799 69e6 4FEA9942 		lsr	r2, r9, #18
 9800 69ea 4EEA894E 		orr	lr, lr, r9, lsl #18
 9801 69ee 41EA8930 		orr	r0, r1, r9, lsl #14
 9802 69f2 42EA8332 		orr	r2, r2, r3, lsl #14
 9803 69f6 48EA8348 		orr	r8, r8, r3, lsl #18
 9804 69fa 8EEA0001 		eor	r1, lr, r0
 9805 69fe 88EA0208 		eor	r8, r8, r2
 9806 6a02 4FEAC35E 		lsl	lr, r3, #23
 9807 6a06 4FEAC952 		lsl	r2, r9, #23
 9808 6a0a 42EA5322 		orr	r2, r2, r3, lsr #9
 9809 6a0e 4EEA592E 		orr	lr, lr, r9, lsr #9
 9810 6a12 81EA0E0E 		eor	lr, r1, lr
 9811 6a16 88EA0208 		eor	r8, r8, r2
ARM GAS  /tmp/ccxnUvyY.s 			page 173


 9812 6a1a 3999     		ldr	r1, [sp, #228]
 9813 6a1c D14A     		ldr	r2, .L64
 9814 6a1e D24F     		ldr	r7, .L64+4
 9815 6a20 8A18     		adds	r2, r1, r2
 9816 6a22 1B99     		ldr	r1, [sp, #108]
 9817 6a24 0F9C     		ldr	r4, [sp, #60]
 9818 6a26 47EB0107 		adc	r7, r7, r1
 9819 6a2a 12EB0B01 		adds	r1, r2, fp
 9820 6a2e 0E9A     		ldr	r2, [sp, #56]
 9821 6a30 46EB0706 		adc	r6, r6, r7
 9822 6a34 1EEB0101 		adds	r1, lr, r1
 9823 6a38 22EA030E 		bic	lr, r2, r3
 9824 6a3c 0CEA0302 		and	r2, ip, r3
 9825 6a40 8EEA0202 		eor	r2, lr, r2
 9826 6a44 48EB0606 		adc	r6, r8, r6
 9827 6a48 8918     		adds	r1, r1, r2
 9828 6a4a 0C9A     		ldr	r2, [sp, #48]
 9829 6a4c 04EA0907 		and	r7, r4, r9
 9830 6a50 25EA0900 		bic	r0, r5, r9
 9831 6a54 80EA0700 		eor	r0, r0, r7
 9832 6a58 4FEA1277 		lsr	r7, r2, #28
 9833 6a5c 0D9A     		ldr	r2, [sp, #52]
 9834 6a5e 46EB0006 		adc	r6, r6, r0
 9835 6a62 0C98     		ldr	r0, [sp, #48]
 9836 6a64 47EA0217 		orr	r7, r7, r2, lsl #4
 9837 6a68 120F     		lsrs	r2, r2, #28
 9838 6a6a 42EA0012 		orr	r2, r2, r0, lsl #4
 9839 6a6e 0D98     		ldr	r0, [sp, #52]
 9840 6a70 0C9C     		ldr	r4, [sp, #48]
 9841 6a72 8007     		lsls	r0, r0, #30
 9842 6a74 40EA9400 		orr	r0, r0, r4, lsr #2
 9843 6a78 4FEA847E 		lsl	lr, r4, #30
 9844 6a7c 0D9C     		ldr	r4, [sp, #52]
 9845 6a7e 4240     		eors	r2, r2, r0
 9846 6a80 4EEA940E 		orr	lr, lr, r4, lsr #2
 9847 6a84 6006     		lsls	r0, r4, #25
 9848 6a86 0C9C     		ldr	r4, [sp, #48]
 9849 6a88 87EA0E07 		eor	r7, r7, lr
 9850 6a8c 40EAD410 		orr	r0, r0, r4, lsr #7
 9851 6a90 4FEA446E 		lsl	lr, r4, #25
 9852 6a94 0D9C     		ldr	r4, [sp, #52]
 9853 6a96 4240     		eors	r2, r2, r0
 9854 6a98 4EEAD41E 		orr	lr, lr, r4, lsr #7
 9855 6a9c DDE90904 		ldrd	r0, r4, [sp, #36]
 9856 6aa0 6040     		eors	r0, r0, r4
 9857 6aa2 0B9C     		ldr	r4, [sp, #44]
 9858 6aa4 1092     		str	r2, [sp, #64]
 9859 6aa6 8AEA0408 		eor	r8, r10, r4
 9860 6aaa 0C9C     		ldr	r4, [sp, #48]
 9861 6aac 87EA0E07 		eor	r7, r7, lr
 9862 6ab0 2040     		ands	r0, r0, r4
 9863 6ab2 0D9C     		ldr	r4, [sp, #52]
 9864 6ab4 08EA0408 		and	r8, r8, r4
 9865 6ab8 DDE90942 		ldrd	r4, r2, [sp, #36]
 9866 6abc 04EA020B 		and	fp, r4, r2
 9867 6ac0 0B9A     		ldr	r2, [sp, #44]
 9868 6ac2 80EA0B00 		eor	r0, r0, fp
ARM GAS  /tmp/ccxnUvyY.s 			page 174


 9869 6ac6 0AEA020E 		and	lr, r10, r2
 9870 6aca 109A     		ldr	r2, [sp, #64]
 9871 6acc 3818     		adds	r0, r7, r0
 9872 6ace 88EA0E0E 		eor	lr, r8, lr
 9873 6ad2 42EB0E0E 		adc	lr, r2, lr
 9874 6ad6 079A     		ldr	r2, [sp, #28]
 9875 6ad8 1C9C     		ldr	r4, [sp, #112]
 9876 6ada 12EB010B 		adds	fp, r2, r1
 9877 6ade 089A     		ldr	r2, [sp, #32]
 9878 6ae0 42EB0608 		adc	r8, r2, r6
 9879 6ae4 0A18     		adds	r2, r1, r0
 9880 6ae6 0792     		str	r2, [sp, #28]
 9881 6ae8 46EB0E02 		adc	r2, r6, lr
 9882 6aec 0892     		str	r2, [sp, #32]
 9883 6aee 4FEA9B31 		lsr	r1, fp, #14
 9884 6af2 4FEA983E 		lsr	lr, r8, #14
 9885 6af6 4FEA9B40 		lsr	r0, fp, #18
 9886 6afa 4FEA9842 		lsr	r2, r8, #18
 9887 6afe 40EA8830 		orr	r0, r0, r8, lsl #14
 9888 6b02 42EA8B32 		orr	r2, r2, fp, lsl #14
 9889 6b06 41EA8841 		orr	r1, r1, r8, lsl #18
 9890 6b0a 4EEA8B4E 		orr	lr, lr, fp, lsl #18
 9891 6b0e 4140     		eors	r1, r1, r0
 9892 6b10 8EEA020E 		eor	lr, lr, r2
 9893 6b14 4FEACB50 		lsl	r0, fp, #23
 9894 6b18 4FEAC852 		lsl	r2, r8, #23
 9895 6b1c 42EA5B22 		orr	r2, r2, fp, lsr #9
 9896 6b20 40EA5820 		orr	r0, r0, r8, lsr #9
 9897 6b24 4140     		eors	r1, r1, r0
 9898 6b26 8EEA020E 		eor	lr, lr, r2
 9899 6b2a 3A98     		ldr	r0, [sp, #232]
 9900 6b2c 8F4A     		ldr	r2, .L64+8
 9901 6b2e 2CEA0B06 		bic	r6, ip, fp
 9902 6b32 8218     		adds	r2, r0, r2
 9903 6b34 8E48     		ldr	r0, .L64+12
 9904 6b36 089F     		ldr	r7, [sp, #32]
 9905 6b38 40EB0400 		adc	r0, r0, r4
 9906 6b3c 0E9C     		ldr	r4, [sp, #56]
 9907 6b3e 1419     		adds	r4, r2, r4
 9908 6b40 0F9A     		ldr	r2, [sp, #60]
 9909 6b42 45EB0005 		adc	r5, r5, r0
 9910 6b46 0C19     		adds	r4, r1, r4
 9911 6b48 22EA0801 		bic	r1, r2, r8
 9912 6b4c 03EA0B02 		and	r2, r3, fp
 9913 6b50 82EA0602 		eor	r2, r2, r6
 9914 6b54 4EEB0505 		adc	r5, lr, r5
 9915 6b58 A418     		adds	r4, r4, r2
 9916 6b5a 079A     		ldr	r2, [sp, #28]
 9917 6b5c 09EA0800 		and	r0, r9, r8
 9918 6b60 81EA0001 		eor	r1, r1, r0
 9919 6b64 4FEA1270 		lsr	r0, r2, #28
 9920 6b68 089A     		ldr	r2, [sp, #32]
 9921 6b6a 45EB0105 		adc	r5, r5, r1
 9922 6b6e 0799     		ldr	r1, [sp, #28]
 9923 6b70 40EA0210 		orr	r0, r0, r2, lsl #4
 9924 6b74 120F     		lsrs	r2, r2, #28
 9925 6b76 42EA0112 		orr	r2, r2, r1, lsl #4
ARM GAS  /tmp/ccxnUvyY.s 			page 175


 9926 6b7a 0899     		ldr	r1, [sp, #32]
 9927 6b7c 079E     		ldr	r6, [sp, #28]
 9928 6b7e 8907     		lsls	r1, r1, #30
 9929 6b80 41EA9601 		orr	r1, r1, r6, lsr #2
 9930 6b84 B607     		lsls	r6, r6, #30
 9931 6b86 46EA9706 		orr	r6, r6, r7, lsr #2
 9932 6b8a 7040     		eors	r0, r0, r6
 9933 6b8c 079E     		ldr	r6, [sp, #28]
 9934 6b8e 4A40     		eors	r2, r2, r1
 9935 6b90 7906     		lsls	r1, r7, #25
 9936 6b92 41EAD611 		orr	r1, r1, r6, lsr #7
 9937 6b96 7606     		lsls	r6, r6, #25
 9938 6b98 46EAD716 		orr	r6, r6, r7, lsr #7
 9939 6b9c 7040     		eors	r0, r0, r6
 9940 6b9e 4A40     		eors	r2, r2, r1
 9941 6ba0 0C9E     		ldr	r6, [sp, #48]
 9942 6ba2 0A99     		ldr	r1, [sp, #40]
 9943 6ba4 0D9F     		ldr	r7, [sp, #52]
 9944 6ba6 7140     		eors	r1, r1, r6
 9945 6ba8 0B9E     		ldr	r6, [sp, #44]
 9946 6baa 0E92     		str	r2, [sp, #56]
 9947 6bac 7740     		eors	r7, r7, r6
 9948 6bae 079E     		ldr	r6, [sp, #28]
 9949 6bb0 0C9A     		ldr	r2, [sp, #48]
 9950 6bb2 3140     		ands	r1, r1, r6
 9951 6bb4 089E     		ldr	r6, [sp, #32]
 9952 6bb6 3740     		ands	r7, r7, r6
 9953 6bb8 0A9E     		ldr	r6, [sp, #40]
 9954 6bba 06EA020E 		and	lr, r6, r2
 9955 6bbe 0B9A     		ldr	r2, [sp, #44]
 9956 6bc0 0D9E     		ldr	r6, [sp, #52]
 9957 6bc2 81EA0E01 		eor	r1, r1, lr
 9958 6bc6 1640     		ands	r6, r6, r2
 9959 6bc8 0E9A     		ldr	r2, [sp, #56]
 9960 6bca 4118     		adds	r1, r0, r1
 9961 6bcc 86EA0706 		eor	r6, r6, r7
 9962 6bd0 42EB0606 		adc	r6, r2, r6
 9963 6bd4 099A     		ldr	r2, [sp, #36]
 9964 6bd6 1219     		adds	r2, r2, r4
 9965 6bd8 4AEB0507 		adc	r7, r10, r5
 9966 6bdc 1092     		str	r2, [sp, #64]
 9967 6bde 6218     		adds	r2, r4, r1
 9968 6be0 0992     		str	r2, [sp, #36]
 9969 6be2 45EB0602 		adc	r2, r5, r6
 9970 6be6 0E92     		str	r2, [sp, #56]
 9971 6be8 109A     		ldr	r2, [sp, #64]
 9972 6bea BC0B     		lsrs	r4, r7, #14
 9973 6bec 1098     		ldr	r0, [sp, #64]
 9974 6bee 910B     		lsrs	r1, r2, #14
 9975 6bf0 44EA8244 		orr	r4, r4, r2, lsl #18
 9976 6bf4 950C     		lsrs	r5, r2, #18
 9977 6bf6 BA0C     		lsrs	r2, r7, #18
 9978 6bf8 45EA8735 		orr	r5, r5, r7, lsl #14
 9979 6bfc 42EA8032 		orr	r2, r2, r0, lsl #14
 9980 6c00 41EA8741 		orr	r1, r1, r7, lsl #18
 9981 6c04 6940     		eors	r1, r1, r5
 9982 6c06 5440     		eors	r4, r4, r2
ARM GAS  /tmp/ccxnUvyY.s 			page 176


 9983 6c08 C505     		lsls	r5, r0, #23
 9984 6c0a FA05     		lsls	r2, r7, #23
 9985 6c0c 42EA5022 		orr	r2, r2, r0, lsr #9
 9986 6c10 45EA5725 		orr	r5, r5, r7, lsr #9
 9987 6c14 6940     		eors	r1, r1, r5
 9988 6c16 5440     		eors	r4, r4, r2
 9989 6c18 3B9D     		ldr	r5, [sp, #236]
 9990 6c1a 564A     		ldr	r2, .L64+16
 9991 6c1c 1D9E     		ldr	r6, [sp, #116]
 9992 6c1e AA18     		adds	r2, r5, r2
 9993 6c20 554D     		ldr	r5, .L64+20
 9994 6c22 45EB0605 		adc	r5, r5, r6
 9995 6c26 12EB0C0C 		adds	ip, r2, ip
 9996 6c2a 0F9A     		ldr	r2, [sp, #60]
 9997 6c2c 0E9E     		ldr	r6, [sp, #56]
 9998 6c2e 42EB050A 		adc	r10, r2, r5
 9999 6c32 23EA0005 		bic	r5, r3, r0
 10000 6c36 0BEA0002 		and	r2, fp, r0
 10001 6c3a 11EB0C0C 		adds	ip, r1, ip
 10002 6c3e 82EA0502 		eor	r2, r2, r5
 10003 6c42 44EB0A0A 		adc	r10, r4, r10
 10004 6c46 1CEB020C 		adds	ip, ip, r2
 10005 6c4a 099A     		ldr	r2, [sp, #36]
 10006 6c4c 08EA0704 		and	r4, r8, r7
 10007 6c50 29EA0701 		bic	r1, r9, r7
 10008 6c54 81EA0401 		eor	r1, r1, r4
 10009 6c58 4FEA1274 		lsr	r4, r2, #28
 10010 6c5c 0E9A     		ldr	r2, [sp, #56]
 10011 6c5e 4AEB010A 		adc	r10, r10, r1
 10012 6c62 0999     		ldr	r1, [sp, #36]
 10013 6c64 44EA0214 		orr	r4, r4, r2, lsl #4
 10014 6c68 120F     		lsrs	r2, r2, #28
 10015 6c6a 42EA0112 		orr	r2, r2, r1, lsl #4
 10016 6c6e 0E99     		ldr	r1, [sp, #56]
 10017 6c70 099D     		ldr	r5, [sp, #36]
 10018 6c72 8907     		lsls	r1, r1, #30
 10019 6c74 41EA9501 		orr	r1, r1, r5, lsr #2
 10020 6c78 AD07     		lsls	r5, r5, #30
 10021 6c7a 45EA9605 		orr	r5, r5, r6, lsr #2
 10022 6c7e 6C40     		eors	r4, r4, r5
 10023 6c80 099D     		ldr	r5, [sp, #36]
 10024 6c82 4A40     		eors	r2, r2, r1
 10025 6c84 7106     		lsls	r1, r6, #25
 10026 6c86 41EAD511 		orr	r1, r1, r5, lsr #7
 10027 6c8a 6D06     		lsls	r5, r5, #25
 10028 6c8c 45EAD615 		orr	r5, r5, r6, lsr #7
 10029 6c90 6C40     		eors	r4, r4, r5
 10030 6c92 4A40     		eors	r2, r2, r1
 10031 6c94 079D     		ldr	r5, [sp, #28]
 10032 6c96 0C99     		ldr	r1, [sp, #48]
 10033 6c98 089E     		ldr	r6, [sp, #32]
 10034 6c9a 6940     		eors	r1, r1, r5
 10035 6c9c 0D9D     		ldr	r5, [sp, #52]
 10036 6c9e 0798     		ldr	r0, [sp, #28]
 10037 6ca0 6E40     		eors	r6, r6, r5
 10038 6ca2 099D     		ldr	r5, [sp, #36]
 10039 6ca4 2940     		ands	r1, r1, r5
ARM GAS  /tmp/ccxnUvyY.s 			page 177


 10040 6ca6 0E9D     		ldr	r5, [sp, #56]
 10041 6ca8 2E40     		ands	r6, r6, r5
 10042 6caa 0C9D     		ldr	r5, [sp, #48]
 10043 6cac 05EA000E 		and	lr, r5, r0
 10044 6cb0 0D98     		ldr	r0, [sp, #52]
 10045 6cb2 089D     		ldr	r5, [sp, #32]
 10046 6cb4 81EA0E01 		eor	r1, r1, lr
 10047 6cb8 0540     		ands	r5, r5, r0
 10048 6cba 6118     		adds	r1, r4, r1
 10049 6cbc 85EA0605 		eor	r5, r5, r6
 10050 6cc0 42EB0506 		adc	r6, r2, r5
 10051 6cc4 0A9A     		ldr	r2, [sp, #40]
 10052 6cc6 3C98     		ldr	r0, [sp, #240]
 10053 6cc8 12EB0C0E 		adds	lr, r2, ip
 10054 6ccc 0B9A     		ldr	r2, [sp, #44]
 10055 6cce 4FEA9E44 		lsr	r4, lr, #18
 10056 6cd2 42EB0A05 		adc	r5, r2, r10
 10057 6cd6 1CEB0102 		adds	r2, ip, r1
 10058 6cda 0A92     		str	r2, [sp, #40]
 10059 6cdc 4AEB0602 		adc	r2, r10, r6
 10060 6ce0 0B92     		str	r2, [sp, #44]
 10061 6ce2 4FEA9E32 		lsr	r2, lr, #14
 10062 6ce6 42EA8542 		orr	r2, r2, r5, lsl #18
 10063 6cea 44EA853C 		orr	ip, r4, r5, lsl #14
 10064 6cee 82EA0C04 		eor	r4, r2, ip
 10065 6cf2 A90B     		lsrs	r1, r5, #14
 10066 6cf4 AE0C     		lsrs	r6, r5, #18
 10067 6cf6 4FEACE52 		lsl	r2, lr, #23
 10068 6cfa 46EA8E36 		orr	r6, r6, lr, lsl #14
 10069 6cfe 41EA8E41 		orr	r1, r1, lr, lsl #18
 10070 6d02 42EA5522 		orr	r2, r2, r5, lsr #9
 10071 6d06 6240     		eors	r2, r2, r4
 10072 6d08 7140     		eors	r1, r1, r6
 10073 6d0a 1C4C     		ldr	r4, .L64+24
 10074 6d0c EE05     		lsls	r6, r5, #23
 10075 6d0e 46EA5E26 		orr	r6, r6, lr, lsr #9
 10076 6d12 7140     		eors	r1, r1, r6
 10077 6d14 0419     		adds	r4, r0, r4
 10078 6d16 1A4E     		ldr	r6, .L64+28
 10079 6d18 1E98     		ldr	r0, [sp, #120]
 10080 6d1a 46EB0006 		adc	r6, r6, r0
 10081 6d1e E418     		adds	r4, r4, r3
 10082 6d20 109B     		ldr	r3, [sp, #64]
 10083 6d22 49EB0609 		adc	r9, r9, r6
 10084 6d26 03EA0E03 		and	r3, r3, lr
 10085 6d2a 2BEA0E06 		bic	r6, fp, lr
 10086 6d2e 1419     		adds	r4, r2, r4
 10087 6d30 83EA0603 		eor	r3, r3, r6
 10088 6d34 41EB0909 		adc	r9, r1, r9
 10089 6d38 E418     		adds	r4, r4, r3
 10090 6d3a 0A9B     		ldr	r3, [sp, #40]
 10091 6d3c 07EA0501 		and	r1, r7, r5
 10092 6d40 28EA0502 		bic	r2, r8, r5
 10093 6d44 82EA0102 		eor	r2, r2, r1
 10094 6d48 4FEA1371 		lsr	r1, r3, #28
 10095 6d4c 0B9B     		ldr	r3, [sp, #44]
 10096 6d4e 49EB0209 		adc	r9, r9, r2
ARM GAS  /tmp/ccxnUvyY.s 			page 178


 10097 6d52 0A9A     		ldr	r2, [sp, #40]
 10098 6d54 41EA0311 		orr	r1, r1, r3, lsl #4
 10099 6d58 1B0F     		lsrs	r3, r3, #28
 10100 6d5a 43EA0213 		orr	r3, r3, r2, lsl #4
 10101 6d5e 0B9A     		ldr	r2, [sp, #44]
 10102 6d60 10E0     		b	.L65
 10103              	.L66:
 10104 6d62 00BF     		.align	2
 10105              	.L64:
 10106 6d64 BA6F1772 		.word	1914138554
 10107 6d68 AA67F006 		.word	116418474
 10108 6d6c A698C8A2 		.word	-1563912026
 10109 6d70 C57D630A 		.word	174292421
 10110 6d74 AE0DF9BE 		.word	-1090974290
 10111 6d78 04983F11 		.word	289380356
 10112 6d7c 1B471C13 		.word	320620315
 10113 6d80 350B711B 		.word	460393269
 10114              	.L65:
 10115 6d84 0A98     		ldr	r0, [sp, #40]
 10116 6d86 9207     		lsls	r2, r2, #30
 10117 6d88 42EA9002 		orr	r2, r2, r0, lsr #2
 10118 6d8c 8607     		lsls	r6, r0, #30
 10119 6d8e 0B98     		ldr	r0, [sp, #44]
 10120 6d90 5340     		eors	r3, r3, r2
 10121 6d92 46EA9006 		orr	r6, r6, r0, lsr #2
 10122 6d96 4206     		lsls	r2, r0, #25
 10123 6d98 0A98     		ldr	r0, [sp, #40]
 10124 6d9a 7140     		eors	r1, r1, r6
 10125 6d9c 42EAD012 		orr	r2, r2, r0, lsr #7
 10126 6da0 4606     		lsls	r6, r0, #25
 10127 6da2 0B98     		ldr	r0, [sp, #44]
 10128 6da4 5340     		eors	r3, r3, r2
 10129 6da6 46EAD016 		orr	r6, r6, r0, lsr #7
 10130 6daa 079A     		ldr	r2, [sp, #28]
 10131 6dac 0998     		ldr	r0, [sp, #36]
 10132 6dae 7140     		eors	r1, r1, r6
 10133 6db0 4240     		eors	r2, r2, r0
 10134 6db2 0E9E     		ldr	r6, [sp, #56]
 10135 6db4 0898     		ldr	r0, [sp, #32]
 10136 6db6 80EA060C 		eor	ip, r0, r6
 10137 6dba 0A98     		ldr	r0, [sp, #40]
 10138 6dbc 099E     		ldr	r6, [sp, #36]
 10139 6dbe 0240     		ands	r2, r2, r0
 10140 6dc0 0B98     		ldr	r0, [sp, #44]
 10141 6dc2 0CEA000C 		and	ip, ip, r0
 10142 6dc6 0798     		ldr	r0, [sp, #28]
 10143 6dc8 00EA060A 		and	r10, r0, r6
 10144 6dcc 0898     		ldr	r0, [sp, #32]
 10145 6dce 0E9E     		ldr	r6, [sp, #56]
 10146 6dd0 82EA0A02 		eor	r2, r2, r10
 10147 6dd4 0640     		ands	r6, r6, r0
 10148 6dd6 8A18     		adds	r2, r1, r2
 10149 6dd8 8CEA0606 		eor	r6, ip, r6
 10150 6ddc 43EB0606 		adc	r6, r3, r6
 10151 6de0 0C9B     		ldr	r3, [sp, #48]
 10152 6de2 2098     		ldr	r0, [sp, #128]
 10153 6de4 13EB040A 		adds	r10, r3, r4
ARM GAS  /tmp/ccxnUvyY.s 			page 179


 10154 6de8 0D9B     		ldr	r3, [sp, #52]
 10155 6dea 43EB0901 		adc	r1, r3, r9
 10156 6dee A318     		adds	r3, r4, r2
 10157 6df0 0C93     		str	r3, [sp, #48]
 10158 6df2 49EB0603 		adc	r3, r9, r6
 10159 6df6 0D93     		str	r3, [sp, #52]
 10160 6df8 8C0B     		lsrs	r4, r1, #14
 10161 6dfa 8B0C     		lsrs	r3, r1, #18
 10162 6dfc 43EA8A33 		orr	r3, r3, r10, lsl #14
 10163 6e00 44EA8A44 		orr	r4, r4, r10, lsl #18
 10164 6e04 4FEA9A32 		lsr	r2, r10, #14
 10165 6e08 4FEA9A46 		lsr	r6, r10, #18
 10166 6e0c 5C40     		eors	r4, r4, r3
 10167 6e0e CB05     		lsls	r3, r1, #23
 10168 6e10 46EA8136 		orr	r6, r6, r1, lsl #14
 10169 6e14 43EA5A23 		orr	r3, r3, r10, lsr #9
 10170 6e18 42EA8142 		orr	r2, r2, r1, lsl #18
 10171 6e1c 5C40     		eors	r4, r4, r3
 10172 6e1e 7240     		eors	r2, r2, r6
 10173 6e20 D24B     		ldr	r3, .L67
 10174 6e22 4FEACA56 		lsl	r6, r10, #23
 10175 6e26 46EA5126 		orr	r6, r6, r1, lsr #9
 10176 6e2a C318     		adds	r3, r0, r3
 10177 6e2c 82EA0602 		eor	r2, r2, r6
 10178 6e30 1F98     		ldr	r0, [sp, #124]
 10179 6e32 CF4E     		ldr	r6, .L67+4
 10180 6e34 46EB0006 		adc	r6, r6, r0
 10181 6e38 13EB0B0B 		adds	fp, r3, fp
 10182 6e3c 109B     		ldr	r3, [sp, #64]
 10183 6e3e 48EB0608 		adc	r8, r8, r6
 10184 6e42 23EA0A06 		bic	r6, r3, r10
 10185 6e46 0EEA0A03 		and	r3, lr, r10
 10186 6e4a 12EB0B0B 		adds	fp, r2, fp
 10187 6e4e 83EA0603 		eor	r3, r3, r6
 10188 6e52 44EB0808 		adc	r8, r4, r8
 10189 6e56 1BEB030B 		adds	fp, fp, r3
 10190 6e5a 0C9B     		ldr	r3, [sp, #48]
 10191 6e5c 05EA0104 		and	r4, r5, r1
 10192 6e60 27EA0102 		bic	r2, r7, r1
 10193 6e64 82EA0402 		eor	r2, r2, r4
 10194 6e68 4FEA1374 		lsr	r4, r3, #28
 10195 6e6c 0D9B     		ldr	r3, [sp, #52]
 10196 6e6e 48EB0208 		adc	r8, r8, r2
 10197 6e72 0C9A     		ldr	r2, [sp, #48]
 10198 6e74 44EA0314 		orr	r4, r4, r3, lsl #4
 10199 6e78 1B0F     		lsrs	r3, r3, #28
 10200 6e7a 43EA0213 		orr	r3, r3, r2, lsl #4
 10201 6e7e 0D9A     		ldr	r2, [sp, #52]
 10202 6e80 0C98     		ldr	r0, [sp, #48]
 10203 6e82 9207     		lsls	r2, r2, #30
 10204 6e84 42EA9002 		orr	r2, r2, r0, lsr #2
 10205 6e88 8607     		lsls	r6, r0, #30
 10206 6e8a 0D98     		ldr	r0, [sp, #52]
 10207 6e8c 5340     		eors	r3, r3, r2
 10208 6e8e 46EA9006 		orr	r6, r6, r0, lsr #2
 10209 6e92 4206     		lsls	r2, r0, #25
 10210 6e94 0C98     		ldr	r0, [sp, #48]
ARM GAS  /tmp/ccxnUvyY.s 			page 180


 10211 6e96 7440     		eors	r4, r4, r6
 10212 6e98 42EAD012 		orr	r2, r2, r0, lsr #7
 10213 6e9c 4606     		lsls	r6, r0, #25
 10214 6e9e 0D98     		ldr	r0, [sp, #52]
 10215 6ea0 5340     		eors	r3, r3, r2
 10216 6ea2 46EAD016 		orr	r6, r6, r0, lsr #7
 10217 6ea6 7440     		eors	r4, r4, r6
 10218 6ea8 DDE90920 		ldrd	r2, r0, [sp, #36]
 10219 6eac 4240     		eors	r2, r2, r0
 10220 6eae 0E98     		ldr	r0, [sp, #56]
 10221 6eb0 0B9E     		ldr	r6, [sp, #44]
 10222 6eb2 80EA060C 		eor	ip, r0, r6
 10223 6eb6 0C98     		ldr	r0, [sp, #48]
 10224 6eb8 0240     		ands	r2, r2, r0
 10225 6eba 0D98     		ldr	r0, [sp, #52]
 10226 6ebc 0CEA000C 		and	ip, ip, r0
 10227 6ec0 DDE90906 		ldrd	r0, r6, [sp, #36]
 10228 6ec4 00EA0609 		and	r9, r0, r6
 10229 6ec8 0E98     		ldr	r0, [sp, #56]
 10230 6eca 0B9E     		ldr	r6, [sp, #44]
 10231 6ecc 82EA0902 		eor	r2, r2, r9
 10232 6ed0 0640     		ands	r6, r6, r0
 10233 6ed2 A218     		adds	r2, r4, r2
 10234 6ed4 8CEA0606 		eor	r6, ip, r6
 10235 6ed8 43EB060C 		adc	ip, r3, r6
 10236 6edc 079B     		ldr	r3, [sp, #28]
 10237 6ede 13EB0B09 		adds	r9, r3, fp
 10238 6ee2 089B     		ldr	r3, [sp, #32]
 10239 6ee4 43EB0803 		adc	r3, r3, r8
 10240 6ee8 0F93     		str	r3, [sp, #60]
 10241 6eea 1BEB0203 		adds	r3, fp, r2
 10242 6eee 0793     		str	r3, [sp, #28]
 10243 6ef0 48EB0C03 		adc	r3, r8, ip
 10244 6ef4 0893     		str	r3, [sp, #32]
 10245 6ef6 0F9B     		ldr	r3, [sp, #60]
 10246 6ef8 0F98     		ldr	r0, [sp, #60]
 10247 6efa 4FEA9932 		lsr	r2, r9, #14
 10248 6efe 42EA8342 		orr	r2, r2, r3, lsl #18
 10249 6f02 9C0B     		lsrs	r4, r3, #14
 10250 6f04 4FEA9943 		lsr	r3, r9, #18
 10251 6f08 43EA803B 		orr	fp, r3, r0, lsl #14
 10252 6f0c 82EA0B03 		eor	r3, r2, fp
 10253 6f10 4FEA904C 		lsr	ip, r0, #18
 10254 6f14 4FEAC952 		lsl	r2, r9, #23
 10255 6f18 44EA8944 		orr	r4, r4, r9, lsl #18
 10256 6f1c 4CEA8938 		orr	r8, ip, r9, lsl #14
 10257 6f20 42EA5022 		orr	r2, r2, r0, lsr #9
 10258 6f24 84EA080C 		eor	ip, r4, r8
 10259 6f28 5A40     		eors	r2, r2, r3
 10260 6f2a C405     		lsls	r4, r0, #23
 10261 6f2c 914B     		ldr	r3, .L67+8
 10262 6f2e 4198     		ldr	r0, [sp, #260]
 10263 6f30 44EA5924 		orr	r4, r4, r9, lsr #9
 10264 6f34 8CEA0404 		eor	r4, ip, r4
 10265 6f38 C318     		adds	r3, r0, r3
 10266 6f3a DFF84CC2 		ldr	ip, .L67+28
 10267 6f3e 2198     		ldr	r0, [sp, #132]
ARM GAS  /tmp/ccxnUvyY.s 			page 181


 10268 6f40 089E     		ldr	r6, [sp, #32]
 10269 6f42 4CEB000C 		adc	ip, ip, r0
 10270 6f46 1098     		ldr	r0, [sp, #64]
 10271 6f48 1B18     		adds	r3, r3, r0
 10272 6f4a 47EB0C0C 		adc	ip, r7, ip
 10273 6f4e D318     		adds	r3, r2, r3
 10274 6f50 0F9A     		ldr	r2, [sp, #60]
 10275 6f52 44EB0C0C 		adc	ip, r4, ip
 10276 6f56 25EA0207 		bic	r7, r5, r2
 10277 6f5a 0A40     		ands	r2, r2, r1
 10278 6f5c 5740     		eors	r7, r7, r2
 10279 6f5e 079A     		ldr	r2, [sp, #28]
 10280 6f60 2EEA0904 		bic	r4, lr, r9
 10281 6f64 0AEA0900 		and	r0, r10, r9
 10282 6f68 6040     		eors	r0, r0, r4
 10283 6f6a 140F     		lsrs	r4, r2, #28
 10284 6f6c 089A     		ldr	r2, [sp, #32]
 10285 6f6e 1B18     		adds	r3, r3, r0
 10286 6f70 0798     		ldr	r0, [sp, #28]
 10287 6f72 44EA0214 		orr	r4, r4, r2, lsl #4
 10288 6f76 4FEA1272 		lsr	r2, r2, #28
 10289 6f7a 42EA0012 		orr	r2, r2, r0, lsl #4
 10290 6f7e 0898     		ldr	r0, [sp, #32]
 10291 6f80 4CEB070C 		adc	ip, ip, r7
 10292 6f84 079F     		ldr	r7, [sp, #28]
 10293 6f86 8007     		lsls	r0, r0, #30
 10294 6f88 40EA9700 		orr	r0, r0, r7, lsr #2
 10295 6f8c BF07     		lsls	r7, r7, #30
 10296 6f8e 47EA9607 		orr	r7, r7, r6, lsr #2
 10297 6f92 4240     		eors	r2, r2, r0
 10298 6f94 7006     		lsls	r0, r6, #25
 10299 6f96 079E     		ldr	r6, [sp, #28]
 10300 6f98 7C40     		eors	r4, r4, r7
 10301 6f9a 40EAD610 		orr	r0, r0, r6, lsr #7
 10302 6f9e 7706     		lsls	r7, r6, #25
 10303 6fa0 089E     		ldr	r6, [sp, #32]
 10304 6fa2 4240     		eors	r2, r2, r0
 10305 6fa4 47EAD617 		orr	r7, r7, r6, lsr #7
 10306 6fa8 0A98     		ldr	r0, [sp, #40]
 10307 6faa 0C9E     		ldr	r6, [sp, #48]
 10308 6fac 7C40     		eors	r4, r4, r7
 10309 6fae 7040     		eors	r0, r0, r6
 10310 6fb0 0D9F     		ldr	r7, [sp, #52]
 10311 6fb2 0B9E     		ldr	r6, [sp, #44]
 10312 6fb4 86EA0708 		eor	r8, r6, r7
 10313 6fb8 079E     		ldr	r6, [sp, #28]
 10314 6fba 3040     		ands	r0, r0, r6
 10315 6fbc 089E     		ldr	r6, [sp, #32]
 10316 6fbe 08EA0608 		and	r8, r8, r6
 10317 6fc2 0A9E     		ldr	r6, [sp, #40]
 10318 6fc4 0C9F     		ldr	r7, [sp, #48]
 10319 6fc6 06EA070B 		and	fp, r6, r7
 10320 6fca 0B9E     		ldr	r6, [sp, #44]
 10321 6fcc 0D9F     		ldr	r7, [sp, #52]
 10322 6fce 80EA0B00 		eor	r0, r0, fp
 10323 6fd2 3740     		ands	r7, r7, r6
 10324 6fd4 2018     		adds	r0, r4, r0
ARM GAS  /tmp/ccxnUvyY.s 			page 182


 10325 6fd6 88EA0707 		eor	r7, r8, r7
 10326 6fda 42EB0708 		adc	r8, r2, r7
 10327 6fde 099A     		ldr	r2, [sp, #36]
 10328 6fe0 D418     		adds	r4, r2, r3
 10329 6fe2 0E9A     		ldr	r2, [sp, #56]
 10330 6fe4 42EB0C07 		adc	r7, r2, ip
 10331 6fe8 1B18     		adds	r3, r3, r0
 10332 6fea 0993     		str	r3, [sp, #36]
 10333 6fec 4CEB0803 		adc	r3, ip, r8
 10334 6ff0 0E93     		str	r3, [sp, #56]
 10335 6ff2 4FEA943C 		lsr	ip, r4, #14
 10336 6ff6 A30C     		lsrs	r3, r4, #18
 10337 6ff8 4FEA973B 		lsr	fp, r7, #14
 10338 6ffc BA0C     		lsrs	r2, r7, #18
 10339 6ffe 4CEA874C 		orr	ip, ip, r7, lsl #18
 10340 7002 43EA8730 		orr	r0, r3, r7, lsl #14
 10341 7006 42EA8432 		orr	r2, r2, r4, lsl #14
 10342 700a 4BEA844B 		orr	fp, fp, r4, lsl #18
 10343 700e 8CEA0003 		eor	r3, ip, r0
 10344 7012 8BEA020B 		eor	fp, fp, r2
 10345 7016 4FEAC45C 		lsl	ip, r4, #23
 10346 701a FA05     		lsls	r2, r7, #23
 10347 701c 42EA5422 		orr	r2, r2, r4, lsr #9
 10348 7020 4CEA572C 		orr	ip, ip, r7, lsr #9
 10349 7024 83EA0C0C 		eor	ip, r3, ip
 10350 7028 8BEA020B 		eor	fp, fp, r2
 10351 702c 524B     		ldr	r3, .L67+12
 10352 702e 429A     		ldr	r2, [sp, #264]
 10353 7030 2298     		ldr	r0, [sp, #136]
 10354 7032 D318     		adds	r3, r2, r3
 10355 7034 514A     		ldr	r2, .L67+16
 10356 7036 099E     		ldr	r6, [sp, #36]
 10357 7038 42EB0002 		adc	r2, r2, r0
 10358 703c 13EB0E03 		adds	r3, r3, lr
 10359 7040 0F98     		ldr	r0, [sp, #60]
 10360 7042 45EB0205 		adc	r5, r5, r2
 10361 7046 09EA040E 		and	lr, r9, r4
 10362 704a 1CEB0303 		adds	r3, ip, r3
 10363 704e 2AEA040C 		bic	ip, r10, r4
 10364 7052 21EA0702 		bic	r2, r1, r7
 10365 7056 00EA0700 		and	r0, r0, r7
 10366 705a 8CEA0E0E 		eor	lr, ip, lr
 10367 705e 4BEB0505 		adc	r5, fp, r5
 10368 7062 4240     		eors	r2, r2, r0
 10369 7064 13EB0E03 		adds	r3, r3, lr
 10370 7068 45EB0205 		adc	r5, r5, r2
 10371 706c 099A     		ldr	r2, [sp, #36]
 10372 706e 0E98     		ldr	r0, [sp, #56]
 10373 7070 120F     		lsrs	r2, r2, #28
 10374 7072 42EA0012 		orr	r2, r2, r0, lsl #4
 10375 7076 000F     		lsrs	r0, r0, #28
 10376 7078 40EA0610 		orr	r0, r0, r6, lsl #4
 10377 707c 0E9E     		ldr	r6, [sp, #56]
 10378 707e 4FEA867C 		lsl	ip, r6, #30
 10379 7082 099E     		ldr	r6, [sp, #36]
 10380 7084 4CEA960C 		orr	ip, ip, r6, lsr #2
 10381 7088 4FEA867E 		lsl	lr, r6, #30
ARM GAS  /tmp/ccxnUvyY.s 			page 183


 10382 708c 0E9E     		ldr	r6, [sp, #56]
 10383 708e 80EA0C00 		eor	r0, r0, ip
 10384 7092 4EEA960E 		orr	lr, lr, r6, lsr #2
 10385 7096 4FEA466C 		lsl	ip, r6, #25
 10386 709a 099E     		ldr	r6, [sp, #36]
 10387 709c 82EA0E02 		eor	r2, r2, lr
 10388 70a0 4CEAD61C 		orr	ip, ip, r6, lsr #7
 10389 70a4 4FEA466E 		lsl	lr, r6, #25
 10390 70a8 0E9E     		ldr	r6, [sp, #56]
 10391 70aa 80EA0C00 		eor	r0, r0, ip
 10392 70ae 4EEAD61E 		orr	lr, lr, r6, lsr #7
 10393 70b2 82EA0E02 		eor	r2, r2, lr
 10394 70b6 0C9E     		ldr	r6, [sp, #48]
 10395 70b8 1092     		str	r2, [sp, #64]
 10396 70ba 079A     		ldr	r2, [sp, #28]
 10397 70bc 86EA020C 		eor	ip, r6, r2
 10398 70c0 0D9A     		ldr	r2, [sp, #52]
 10399 70c2 089E     		ldr	r6, [sp, #32]
 10400 70c4 82EA060E 		eor	lr, r2, r6
 10401 70c8 099A     		ldr	r2, [sp, #36]
 10402 70ca 079E     		ldr	r6, [sp, #28]
 10403 70cc 0CEA020C 		and	ip, ip, r2
 10404 70d0 0E9A     		ldr	r2, [sp, #56]
 10405 70d2 0EEA020E 		and	lr, lr, r2
 10406 70d6 0C9A     		ldr	r2, [sp, #48]
 10407 70d8 02EA060B 		and	fp, r2, r6
 10408 70dc 089E     		ldr	r6, [sp, #32]
 10409 70de 0D9A     		ldr	r2, [sp, #52]
 10410 70e0 8CEA0B0C 		eor	ip, ip, fp
 10411 70e4 02EA0608 		and	r8, r2, r6
 10412 70e8 109A     		ldr	r2, [sp, #64]
 10413 70ea 8EEA080E 		eor	lr, lr, r8
 10414 70ee 12EB0C0C 		adds	ip, r2, ip
 10415 70f2 40EB0E02 		adc	r2, r0, lr
 10416 70f6 0A98     		ldr	r0, [sp, #40]
 10417 70f8 10EB030B 		adds	fp, r0, r3
 10418 70fc 0B98     		ldr	r0, [sp, #44]
 10419 70fe 40EB0500 		adc	r0, r0, r5
 10420 7102 13EB0C0E 		adds	lr, r3, ip
 10421 7106 4FEA903C 		lsr	ip, r0, #14
 10422 710a 4FEA9043 		lsr	r3, r0, #18
 10423 710e 45EB0208 		adc	r8, r5, r2
 10424 7112 43EA8B33 		orr	r3, r3, fp, lsl #14
 10425 7116 4FEA9B35 		lsr	r5, fp, #14
 10426 711a 4CEA8B4C 		orr	ip, ip, fp, lsl #18
 10427 711e 4FEA9B42 		lsr	r2, fp, #18
 10428 7122 42EA8032 		orr	r2, r2, r0, lsl #14
 10429 7126 45EA8045 		orr	r5, r5, r0, lsl #18
 10430 712a 8CEA030C 		eor	ip, ip, r3
 10431 712e C305     		lsls	r3, r0, #23
 10432 7130 43EA5B23 		orr	r3, r3, fp, lsr #9
 10433 7134 5540     		eors	r5, r5, r2
 10434 7136 4FEACB52 		lsl	r2, fp, #23
 10435 713a 0B90     		str	r0, [sp, #44]
 10436 713c 42EA5022 		orr	r2, r2, r0, lsr #9
 10437 7140 8CEA030C 		eor	ip, ip, r3
 10438 7144 0E48     		ldr	r0, .L67+20
ARM GAS  /tmp/ccxnUvyY.s 			page 184


 10439 7146 239B     		ldr	r3, [sp, #140]
 10440 7148 5540     		eors	r5, r5, r2
 10441 714a 1818     		adds	r0, r3, r0
 10442 714c 119A     		ldr	r2, [sp, #68]
 10443 714e 0D4B     		ldr	r3, .L67+24
 10444 7150 43EB0203 		adc	r3, r3, r2
 10445 7154 10EB0A0A 		adds	r10, r0, r10
 10446 7158 41EB0301 		adc	r1, r1, r3
 10447 715c 0F9A     		ldr	r2, [sp, #60]
 10448 715e 0B9B     		ldr	r3, [sp, #44]
 10449 7160 0B98     		ldr	r0, [sp, #44]
 10450 7162 15EB0A0A 		adds	r10, r5, r10
 10451 7166 22EA0302 		bic	r2, r2, r3
 10452 716a 0FE0     		b	.L68
 10453              	.L69:
 10454              		.align	2
 10455              	.L67:
 10456 716c 847D0423 		.word	587496836
 10457 7170 F577DB28 		.word	685471733
 10458 7174 9324C740 		.word	1086792851
 10459 7178 BCBEC915 		.word	365543100
 10460 717c 0ABE9E3C 		.word	1017036298
 10461 7180 4C0D109C 		.word	-1676669620
 10462 7184 C4671D43 		.word	1126000580
 10463 7188 7BABCA32 		.word	852142971
 10464              	.L68:
 10465 718c 29EA0B05 		bic	r5, r9, fp
 10466 7190 04EA0B03 		and	r3, r4, fp
 10467 7194 07EA0000 		and	r0, r7, r0
 10468 7198 83EA0503 		eor	r3, r3, r5
 10469 719c 4CEB0101 		adc	r1, ip, r1
 10470 71a0 4240     		eors	r2, r2, r0
 10471 71a2 1AEB030A 		adds	r10, r10, r3
 10472 71a6 41EB0201 		adc	r1, r1, r2
 10473 71aa 4FEA1E73 		lsr	r3, lr, #28
 10474 71ae 4FEA1872 		lsr	r2, r8, #28
 10475 71b2 4FEA8870 		lsl	r0, r8, #30
 10476 71b6 4FEA8E75 		lsl	r5, lr, #30
 10477 71ba 40EA9E00 		orr	r0, r0, lr, lsr #2
 10478 71be 45EA9805 		orr	r5, r5, r8, lsr #2
 10479 71c2 43EA0813 		orr	r3, r3, r8, lsl #4
 10480 71c6 42EA0E12 		orr	r2, r2, lr, lsl #4
 10481 71ca 6B40     		eors	r3, r3, r5
 10482 71cc 4240     		eors	r2, r2, r0
 10483 71ce 4FEA4E65 		lsl	r5, lr, #25
 10484 71d2 4FEA4860 		lsl	r0, r8, #25
 10485 71d6 40EADE10 		orr	r0, r0, lr, lsr #7
 10486 71da 45EAD815 		orr	r5, r5, r8, lsr #7
 10487 71de 6B40     		eors	r3, r3, r5
 10488 71e0 4240     		eors	r2, r2, r0
 10489 71e2 099D     		ldr	r5, [sp, #36]
 10490 71e4 0798     		ldr	r0, [sp, #28]
 10491 71e6 0A93     		str	r3, [sp, #40]
 10492 71e8 6840     		eors	r0, r0, r5
 10493 71ea 3546     		mov	r5, r6
 10494 71ec 0E9E     		ldr	r6, [sp, #56]
 10495 71ee 099B     		ldr	r3, [sp, #36]
ARM GAS  /tmp/ccxnUvyY.s 			page 185


 10496 71f0 7540     		eors	r5, r5, r6
 10497 71f2 079E     		ldr	r6, [sp, #28]
 10498 71f4 00EA0E00 		and	r0, r0, lr
 10499 71f8 3340     		ands	r3, r3, r6
 10500 71fa 1093     		str	r3, [sp, #64]
 10501 71fc 0E9E     		ldr	r6, [sp, #56]
 10502 71fe 089B     		ldr	r3, [sp, #32]
 10503 7200 05EA0805 		and	r5, r5, r8
 10504 7204 03EA060C 		and	ip, r3, r6
 10505 7208 109B     		ldr	r3, [sp, #64]
 10506 720a 85EA0C05 		eor	r5, r5, ip
 10507 720e 5840     		eors	r0, r0, r3
 10508 7210 0A9B     		ldr	r3, [sp, #40]
 10509 7212 1818     		adds	r0, r3, r0
 10510 7214 0C9B     		ldr	r3, [sp, #48]
 10511 7216 42EB0505 		adc	r5, r2, r5
 10512 721a 13EB0A03 		adds	r3, r3, r10
 10513 721e 0C93     		str	r3, [sp, #48]
 10514 7220 0D9B     		ldr	r3, [sp, #52]
 10515 7222 43EB0103 		adc	r3, r3, r1
 10516 7226 1AEB000A 		adds	r10, r10, r0
 10517 722a 0D93     		str	r3, [sp, #52]
 10518 722c 41EB0503 		adc	r3, r1, r5
 10519 7230 0A93     		str	r3, [sp, #40]
 10520 7232 0C9B     		ldr	r3, [sp, #48]
 10521 7234 0D9A     		ldr	r2, [sp, #52]
 10522 7236 9B0B     		lsrs	r3, r3, #14
 10523 7238 43EA8243 		orr	r3, r3, r2, lsl #18
 10524 723c 950B     		lsrs	r5, r2, #14
 10525 723e 0C9A     		ldr	r2, [sp, #48]
 10526 7240 0C98     		ldr	r0, [sp, #48]
 10527 7242 45EA8245 		orr	r5, r5, r2, lsl #18
 10528 7246 910C     		lsrs	r1, r2, #18
 10529 7248 0D9A     		ldr	r2, [sp, #52]
 10530 724a 41EA8231 		orr	r1, r1, r2, lsl #14
 10531 724e 920C     		lsrs	r2, r2, #18
 10532 7250 42EA8032 		orr	r2, r2, r0, lsl #14
 10533 7254 5540     		eors	r5, r5, r2
 10534 7256 0D9A     		ldr	r2, [sp, #52]
 10535 7258 4B40     		eors	r3, r3, r1
 10536 725a D205     		lsls	r2, r2, #23
 10537 725c 42EA5022 		orr	r2, r2, r0, lsr #9
 10538 7260 C105     		lsls	r1, r0, #23
 10539 7262 0D98     		ldr	r0, [sp, #52]
 10540 7264 5540     		eors	r5, r5, r2
 10541 7266 41EA5021 		orr	r1, r1, r0, lsr #9
 10542 726a 249A     		ldr	r2, [sp, #144]
 10543 726c CB48     		ldr	r0, .L70
 10544 726e 4B40     		eors	r3, r3, r1
 10545 7270 1018     		adds	r0, r2, r0
 10546 7272 1299     		ldr	r1, [sp, #72]
 10547 7274 CA4A     		ldr	r2, .L70+4
 10548 7276 42EB0102 		adc	r2, r2, r1
 10549 727a 0F99     		ldr	r1, [sp, #60]
 10550 727c 10EB0909 		adds	r9, r0, r9
 10551 7280 41EB0206 		adc	r6, r1, r2
 10552 7284 13EB0909 		adds	r9, r3, r9
ARM GAS  /tmp/ccxnUvyY.s 			page 186


 10553 7288 0C9B     		ldr	r3, [sp, #48]
 10554 728a 45EB0606 		adc	r6, r5, r6
 10555 728e 24EA0300 		bic	r0, r4, r3
 10556 7292 0D9B     		ldr	r3, [sp, #52]
 10557 7294 0D9D     		ldr	r5, [sp, #52]
 10558 7296 27EA0302 		bic	r2, r7, r3
 10559 729a 0C9B     		ldr	r3, [sp, #48]
 10560 729c 0B99     		ldr	r1, [sp, #44]
 10561 729e 0BEA0303 		and	r3, fp, r3
 10562 72a2 4340     		eors	r3, r3, r0
 10563 72a4 19EB0309 		adds	r9, r9, r3
 10564 72a8 01EA0501 		and	r1, r1, r5
 10565 72ac 0A9B     		ldr	r3, [sp, #40]
 10566 72ae 0A9D     		ldr	r5, [sp, #40]
 10567 72b0 82EA0102 		eor	r2, r2, r1
 10568 72b4 4FEA8A70 		lsl	r0, r10, #30
 10569 72b8 4FEA1A71 		lsr	r1, r10, #28
 10570 72bc 46EB0206 		adc	r6, r6, r2
 10571 72c0 40EA9500 		orr	r0, r0, r5, lsr #2
 10572 72c4 0A9A     		ldr	r2, [sp, #40]
 10573 72c6 41EA0311 		orr	r1, r1, r3, lsl #4
 10574 72ca 4140     		eors	r1, r1, r0
 10575 72cc 4FEA4A60 		lsl	r0, r10, #25
 10576 72d0 40EAD510 		orr	r0, r0, r5, lsr #7
 10577 72d4 1B0F     		lsrs	r3, r3, #28
 10578 72d6 9207     		lsls	r2, r2, #30
 10579 72d8 42EA9A02 		orr	r2, r2, r10, lsr #2
 10580 72dc 4140     		eors	r1, r1, r0
 10581 72de 43EA0A13 		orr	r3, r3, r10, lsl #4
 10582 72e2 0E98     		ldr	r0, [sp, #56]
 10583 72e4 5340     		eors	r3, r3, r2
 10584 72e6 6A06     		lsls	r2, r5, #25
 10585 72e8 42EADA12 		orr	r2, r2, r10, lsr #7
 10586 72ec 80EA0800 		eor	r0, r0, r8
 10587 72f0 5340     		eors	r3, r3, r2
 10588 72f2 2840     		ands	r0, r0, r5
 10589 72f4 099A     		ldr	r2, [sp, #36]
 10590 72f6 099D     		ldr	r5, [sp, #36]
 10591 72f8 82EA0E02 		eor	r2, r2, lr
 10592 72fc 05EA0E0C 		and	ip, r5, lr
 10593 7300 0E9D     		ldr	r5, [sp, #56]
 10594 7302 02EA0A02 		and	r2, r2, r10
 10595 7306 05EA0805 		and	r5, r5, r8
 10596 730a 82EA0C02 		eor	r2, r2, ip
 10597 730e 8A18     		adds	r2, r1, r2
 10598 7310 85EA0005 		eor	r5, r5, r0
 10599 7314 43EB0505 		adc	r5, r3, r5
 10600 7318 079B     		ldr	r3, [sp, #28]
 10601 731a 13EB0903 		adds	r3, r3, r9
 10602 731e 0F93     		str	r3, [sp, #60]
 10603 7320 089B     		ldr	r3, [sp, #32]
 10604 7322 0F98     		ldr	r0, [sp, #60]
 10605 7324 43EB0603 		adc	r3, r3, r6
 10606 7328 1093     		str	r3, [sp, #64]
 10607 732a 19EB0203 		adds	r3, r9, r2
 10608 732e 0793     		str	r3, [sp, #28]
 10609 7330 46EB0503 		adc	r3, r6, r5
ARM GAS  /tmp/ccxnUvyY.s 			page 187


 10610 7334 0893     		str	r3, [sp, #32]
 10611 7336 0F9B     		ldr	r3, [sp, #60]
 10612 7338 109A     		ldr	r2, [sp, #64]
 10613 733a 9B0B     		lsrs	r3, r3, #14
 10614 733c 43EA8243 		orr	r3, r3, r2, lsl #18
 10615 7340 4FEA923C 		lsr	ip, r2, #14
 10616 7344 0F9A     		ldr	r2, [sp, #60]
 10617 7346 974E     		ldr	r6, .L70+8
 10618 7348 4CEA824C 		orr	ip, ip, r2, lsl #18
 10619 734c 910C     		lsrs	r1, r2, #18
 10620 734e 109A     		ldr	r2, [sp, #64]
 10621 7350 41EA8231 		orr	r1, r1, r2, lsl #14
 10622 7354 920C     		lsrs	r2, r2, #18
 10623 7356 42EA8032 		orr	r2, r2, r0, lsl #14
 10624 735a 8CEA020C 		eor	ip, ip, r2
 10625 735e 109A     		ldr	r2, [sp, #64]
 10626 7360 4B40     		eors	r3, r3, r1
 10627 7362 D205     		lsls	r2, r2, #23
 10628 7364 42EA5022 		orr	r2, r2, r0, lsr #9
 10629 7368 C105     		lsls	r1, r0, #23
 10630 736a 1098     		ldr	r0, [sp, #64]
 10631 736c 8CEA020C 		eor	ip, ip, r2
 10632 7370 41EA5021 		orr	r1, r1, r0, lsr #9
 10633 7374 259A     		ldr	r2, [sp, #148]
 10634 7376 4B40     		eors	r3, r3, r1
 10635 7378 8B49     		ldr	r1, .L70+12
 10636 737a 5118     		adds	r1, r2, r1
 10637 737c 139A     		ldr	r2, [sp, #76]
 10638 737e 46EB0206 		adc	r6, r6, r2
 10639 7382 0C19     		adds	r4, r1, r4
 10640 7384 47EB0607 		adc	r7, r7, r6
 10641 7388 1C19     		adds	r4, r3, r4
 10642 738a 0F9B     		ldr	r3, [sp, #60]
 10643 738c 109A     		ldr	r2, [sp, #64]
 10644 738e 2BEA0300 		bic	r0, fp, r3
 10645 7392 0B9B     		ldr	r3, [sp, #44]
 10646 7394 4CEB0707 		adc	r7, ip, r7
 10647 7398 23EA0202 		bic	r2, r3, r2
 10648 739c 0C9B     		ldr	r3, [sp, #48]
 10649 739e 0F99     		ldr	r1, [sp, #60]
 10650 73a0 109D     		ldr	r5, [sp, #64]
 10651 73a2 0B40     		ands	r3, r3, r1
 10652 73a4 0D99     		ldr	r1, [sp, #52]
 10653 73a6 4340     		eors	r3, r3, r0
 10654 73a8 2940     		ands	r1, r1, r5
 10655 73aa E418     		adds	r4, r4, r3
 10656 73ac 82EA0102 		eor	r2, r2, r1
 10657 73b0 079B     		ldr	r3, [sp, #28]
 10658 73b2 47EB0207 		adc	r7, r7, r2
 10659 73b6 089A     		ldr	r2, [sp, #32]
 10660 73b8 1B0F     		lsrs	r3, r3, #28
 10661 73ba 43EA0213 		orr	r3, r3, r2, lsl #4
 10662 73be 100F     		lsrs	r0, r2, #28
 10663 73c0 079A     		ldr	r2, [sp, #28]
 10664 73c2 0799     		ldr	r1, [sp, #28]
 10665 73c4 40EA0210 		orr	r0, r0, r2, lsl #4
 10666 73c8 089A     		ldr	r2, [sp, #32]
ARM GAS  /tmp/ccxnUvyY.s 			page 188


 10667 73ca 089D     		ldr	r5, [sp, #32]
 10668 73cc 9207     		lsls	r2, r2, #30
 10669 73ce 42EA9102 		orr	r2, r2, r1, lsr #2
 10670 73d2 8907     		lsls	r1, r1, #30
 10671 73d4 41EA9501 		orr	r1, r1, r5, lsr #2
 10672 73d8 4B40     		eors	r3, r3, r1
 10673 73da 0799     		ldr	r1, [sp, #28]
 10674 73dc 5040     		eors	r0, r0, r2
 10675 73de 6A06     		lsls	r2, r5, #25
 10676 73e0 42EAD112 		orr	r2, r2, r1, lsr #7
 10677 73e4 4906     		lsls	r1, r1, #25
 10678 73e6 41EAD511 		orr	r1, r1, r5, lsr #7
 10679 73ea 4B40     		eors	r3, r3, r1
 10680 73ec 0799     		ldr	r1, [sp, #28]
 10681 73ee 8EEA0A05 		eor	r5, lr, r10
 10682 73f2 5040     		eors	r0, r0, r2
 10683 73f4 0A9A     		ldr	r2, [sp, #40]
 10684 73f6 0D40     		ands	r5, r5, r1
 10685 73f8 0899     		ldr	r1, [sp, #32]
 10686 73fa 0A9E     		ldr	r6, [sp, #40]
 10687 73fc 88EA0202 		eor	r2, r8, r2
 10688 7400 0A40     		ands	r2, r2, r1
 10689 7402 0EEA0A01 		and	r1, lr, r10
 10690 7406 08EA0606 		and	r6, r8, r6
 10691 740a 6940     		eors	r1, r1, r5
 10692 740c 5B18     		adds	r3, r3, r1
 10693 740e 82EA0602 		eor	r2, r2, r6
 10694 7412 40EB0200 		adc	r0, r0, r2
 10695 7416 099A     		ldr	r2, [sp, #36]
 10696 7418 1219     		adds	r2, r2, r4
 10697 741a 0992     		str	r2, [sp, #36]
 10698 741c 0E9A     		ldr	r2, [sp, #56]
 10699 741e 42EB0702 		adc	r2, r2, r7
 10700 7422 E318     		adds	r3, r4, r3
 10701 7424 1193     		str	r3, [sp, #68]
 10702 7426 179B     		ldr	r3, [sp, #92]
 10703 7428 0E92     		str	r2, [sp, #56]
 10704 742a 4FEA5301 		lsr	r1, r3, #1
 10705 742e 039B     		ldr	r3, [sp, #12]
 10706 7430 47EB0007 		adc	r7, r7, r0
 10707 7434 41EAC371 		orr	r1, r1, r3, lsl #31
 10708 7438 5A08     		lsrs	r2, r3, #1
 10709 743a 179B     		ldr	r3, [sp, #92]
 10710 743c 0398     		ldr	r0, [sp, #12]
 10711 743e 42EAC372 		orr	r2, r2, r3, lsl #31
 10712 7442 1B0A     		lsrs	r3, r3, #8
 10713 7444 43EA0063 		orr	r3, r3, r0, lsl #24
 10714 7448 060A     		lsrs	r6, r0, #8
 10715 744a 1798     		ldr	r0, [sp, #92]
 10716 744c 5940     		eors	r1, r1, r3
 10717 744e 46EA0066 		orr	r6, r6, r0, lsl #24
 10718 7452 5640     		eors	r6, r6, r2
 10719 7454 039A     		ldr	r2, [sp, #12]
 10720 7456 C309     		lsrs	r3, r0, #7
 10721 7458 43EA4263 		orr	r3, r3, r2, lsl #25
 10722 745c 5940     		eors	r1, r1, r3
 10723 745e 86EAD216 		eor	r6, r6, r2, lsr #7
ARM GAS  /tmp/ccxnUvyY.s 			page 189


 10724 7462 169B     		ldr	r3, [sp, #88]
 10725 7464 514A     		ldr	r2, .L70+16
 10726 7466 5248     		ldr	r0, .L70+20
 10727 7468 9A18     		adds	r2, r3, r2
 10728 746a 029B     		ldr	r3, [sp, #8]
 10729 746c 40EB0300 		adc	r0, r0, r3
 10730 7470 8B18     		adds	r3, r1, r2
 10731 7472 3C9A     		ldr	r2, [sp, #240]
 10732 7474 46EB0006 		adc	r6, r6, r0
 10733 7478 9B18     		adds	r3, r3, r2
 10734 747a 1E9A     		ldr	r2, [sp, #120]
 10735 747c 2499     		ldr	r1, [sp, #144]
 10736 747e 42EB0606 		adc	r6, r2, r6
 10737 7482 249A     		ldr	r2, [sp, #144]
 10738 7484 D50C     		lsrs	r5, r2, #19
 10739 7486 129A     		ldr	r2, [sp, #72]
 10740 7488 45EA4235 		orr	r5, r5, r2, lsl #13
 10741 748c D20C     		lsrs	r2, r2, #19
 10742 748e 42EA4132 		orr	r2, r2, r1, lsl #13
 10743 7492 1299     		ldr	r1, [sp, #72]
 10744 7494 129C     		ldr	r4, [sp, #72]
 10745 7496 C800     		lsls	r0, r1, #3
 10746 7498 2499     		ldr	r1, [sp, #144]
 10747 749a 40EA5170 		orr	r0, r0, r1, lsr #29
 10748 749e 4240     		eors	r2, r2, r0
 10749 74a0 C900     		lsls	r1, r1, #3
 10750 74a2 2498     		ldr	r0, [sp, #144]
 10751 74a4 41EA5471 		orr	r1, r1, r4, lsr #29
 10752 74a8 6940     		eors	r1, r1, r5
 10753 74aa 8509     		lsrs	r5, r0, #6
 10754 74ac 45EA8465 		orr	r5, r5, r4, lsl #26
 10755 74b0 6940     		eors	r1, r1, r5
 10756 74b2 5918     		adds	r1, r3, r1
 10757 74b4 82EA9412 		eor	r2, r2, r4, lsr #6
 10758 74b8 0B9B     		ldr	r3, [sp, #44]
 10759 74ba 46EB0202 		adc	r2, r6, r2
 10760 74be 11EB0B0B 		adds	fp, r1, fp
 10761 74c2 43EB0206 		adc	r6, r3, r2
 10762 74c6 099B     		ldr	r3, [sp, #36]
 10763 74c8 099A     		ldr	r2, [sp, #36]
 10764 74ca 990B     		lsrs	r1, r3, #14
 10765 74cc 0E9B     		ldr	r3, [sp, #56]
 10766 74ce 099C     		ldr	r4, [sp, #36]
 10767 74d0 41EA8341 		orr	r1, r1, r3, lsl #18
 10768 74d4 9B0B     		lsrs	r3, r3, #14
 10769 74d6 43EA8242 		orr	r2, r3, r2, lsl #18
 10770 74da 099B     		ldr	r3, [sp, #36]
 10771 74dc 0E9D     		ldr	r5, [sp, #56]
 10772 74de 980C     		lsrs	r0, r3, #18
 10773 74e0 0E9B     		ldr	r3, [sp, #56]
 10774 74e2 40EA8330 		orr	r0, r0, r3, lsl #14
 10775 74e6 9B0C     		lsrs	r3, r3, #18
 10776 74e8 43EA8433 		orr	r3, r3, r4, lsl #14
 10777 74ec 5A40     		eors	r2, r2, r3
 10778 74ee 0E9B     		ldr	r3, [sp, #56]
 10779 74f0 4140     		eors	r1, r1, r0
 10780 74f2 DB05     		lsls	r3, r3, #23
ARM GAS  /tmp/ccxnUvyY.s 			page 190


 10781 74f4 43EA5423 		orr	r3, r3, r4, lsr #9
 10782 74f8 E005     		lsls	r0, r4, #23
 10783 74fa 0E9C     		ldr	r4, [sp, #56]
 10784 74fc 5340     		eors	r3, r3, r2
 10785 74fe 40EA5420 		orr	r0, r0, r4, lsr #9
 10786 7502 0C9A     		ldr	r2, [sp, #48]
 10787 7504 4140     		eors	r1, r1, r0
 10788 7506 0998     		ldr	r0, [sp, #36]
 10789 7508 1BEB0101 		adds	r1, fp, r1
 10790 750c 46EB0303 		adc	r3, r6, r3
 10791 7510 22EA0006 		bic	r6, r2, r0
 10792 7514 0D9A     		ldr	r2, [sp, #52]
 10793 7516 22EA0400 		bic	r0, r2, r4
 10794 751a 099C     		ldr	r4, [sp, #36]
 10795 751c 0F9A     		ldr	r2, [sp, #60]
 10796 751e 2240     		ands	r2, r2, r4
 10797 7520 109C     		ldr	r4, [sp, #64]
 10798 7522 7240     		eors	r2, r2, r6
 10799 7524 2540     		ands	r5, r5, r4
 10800 7526 8918     		adds	r1, r1, r2
 10801 7528 80EA0500 		eor	r0, r0, r5
 10802 752c 43EB0003 		adc	r3, r3, r0
 10803 7530 1198     		ldr	r0, [sp, #68]
 10804 7532 119C     		ldr	r4, [sp, #68]
 10805 7534 3E0F     		lsrs	r6, r7, #28
 10806 7536 46EA0016 		orr	r6, r6, r0, lsl #4
 10807 753a B807     		lsls	r0, r7, #30
 10808 753c 40EA9400 		orr	r0, r0, r4, lsr #2
 10809 7540 119A     		ldr	r2, [sp, #68]
 10810 7542 4640     		eors	r6, r6, r0
 10811 7544 7806     		lsls	r0, r7, #25
 10812 7546 40EAD410 		orr	r0, r0, r4, lsr #7
 10813 754a A507     		lsls	r5, r4, #30
 10814 754c 4640     		eors	r6, r6, r0
 10815 754e 120F     		lsrs	r2, r2, #28
 10816 7550 0798     		ldr	r0, [sp, #28]
 10817 7552 45EA9705 		orr	r5, r5, r7, lsr #2
 10818 7556 42EA0712 		orr	r2, r2, r7, lsl #4
 10819 755a 6A40     		eors	r2, r2, r5
 10820 755c 8AEA000C 		eor	ip, r10, r0
 10821 7560 6506     		lsls	r5, r4, #25
 10822 7562 0A98     		ldr	r0, [sp, #40]
 10823 7564 089C     		ldr	r4, [sp, #32]
 10824 7566 45EAD715 		orr	r5, r5, r7, lsr #7
 10825 756a 82EA050B 		eor	fp, r2, r5
 10826 756e 6040     		eors	r0, r0, r4
 10827 7570 119A     		ldr	r2, [sp, #68]
 10828 7572 079C     		ldr	r4, [sp, #28]
 10829 7574 0CEA020C 		and	ip, ip, r2
 10830 7578 0AEA0405 		and	r5, r10, r4
 10831 757c 089A     		ldr	r2, [sp, #32]
 10832 757e 0A9C     		ldr	r4, [sp, #40]
 10833 7580 8CEA0505 		eor	r5, ip, r5
 10834 7584 04EA0209 		and	r9, r4, r2
 10835 7588 3840     		ands	r0, r0, r7
 10836 758a 1BEB0502 		adds	r2, fp, r5
 10837 758e 80EA0900 		eor	r0, r0, r9
ARM GAS  /tmp/ccxnUvyY.s 			page 191


 10838 7592 46EB0006 		adc	r6, r6, r0
 10839 7596 1EEB010C 		adds	ip, lr, r1
 10840 759a 0BE0     		b	.L71
 10841              	.L72:
 10842              		.align	2
 10843              	.L70:
 10844 759c B6423ECB 		.word	-885112138
 10845 75a0 BED4C54C 		.word	1288033470
 10846 75a4 9C297F59 		.word	1501505948
 10847 75a8 2A7E65FC 		.word	-60457430
 10848 75ac ECFAD63A 		.word	987167468
 10849 75b0 AB6FCB5F 		.word	1607167915
 10850              	.L71:
 10851 75b4 48EB030E 		adc	lr, r8, r3
 10852 75b8 8918     		adds	r1, r1, r2
 10853 75ba 189A     		ldr	r2, [sp, #96]
 10854 75bc 0698     		ldr	r0, [sp, #24]
 10855 75be 4FEA5202 		lsr	r2, r2, #1
 10856 75c2 42EAC072 		orr	r2, r2, r0, lsl #31
 10857 75c6 4FEA5005 		lsr	r5, r0, #1
 10858 75ca 1898     		ldr	r0, [sp, #96]
 10859 75cc 069C     		ldr	r4, [sp, #24]
 10860 75ce 45EAC075 		orr	r5, r5, r0, lsl #31
 10861 75d2 4FEA1020 		lsr	r0, r0, #8
 10862 75d6 43EB0603 		adc	r3, r3, r6
 10863 75da 40EA0460 		orr	r0, r0, r4, lsl #24
 10864 75de 260A     		lsrs	r6, r4, #8
 10865 75e0 189C     		ldr	r4, [sp, #96]
 10866 75e2 4240     		eors	r2, r2, r0
 10867 75e4 46EA0466 		orr	r6, r6, r4, lsl #24
 10868 75e8 E009     		lsrs	r0, r4, #7
 10869 75ea 069C     		ldr	r4, [sp, #24]
 10870 75ec 6E40     		eors	r6, r6, r5
 10871 75ee 40EA4460 		orr	r0, r0, r4, lsl #25
 10872 75f2 4240     		eors	r2, r2, r0
 10873 75f4 7F4D     		ldr	r5, .L73
 10874 75f6 1798     		ldr	r0, [sp, #92]
 10875 75f8 86EAD416 		eor	r6, r6, r4, lsr #7
 10876 75fc 4519     		adds	r5, r0, r5
 10877 75fe 039C     		ldr	r4, [sp, #12]
 10878 7600 7D48     		ldr	r0, .L73+4
 10879 7602 40EB0408 		adc	r8, r0, r4
 10880 7606 5019     		adds	r0, r2, r5
 10881 7608 209A     		ldr	r2, [sp, #128]
 10882 760a 46EB0806 		adc	r6, r6, r8
 10883 760e 8018     		adds	r0, r0, r2
 10884 7610 1F9A     		ldr	r2, [sp, #124]
 10885 7612 139C     		ldr	r4, [sp, #76]
 10886 7614 42EB0606 		adc	r6, r2, r6
 10887 7618 259A     		ldr	r2, [sp, #148]
 10888 761a 4FEAD249 		lsr	r9, r2, #19
 10889 761e 139A     		ldr	r2, [sp, #76]
 10890 7620 49EA4239 		orr	r9, r9, r2, lsl #13
 10891 7624 D50C     		lsrs	r5, r2, #19
 10892 7626 259A     		ldr	r2, [sp, #148]
 10893 7628 45EA4235 		orr	r5, r5, r2, lsl #13
 10894 762c 139A     		ldr	r2, [sp, #76]
ARM GAS  /tmp/ccxnUvyY.s 			page 192


 10895 762e 4FEAC208 		lsl	r8, r2, #3
 10896 7632 259A     		ldr	r2, [sp, #148]
 10897 7634 48EA5278 		orr	r8, r8, r2, lsr #29
 10898 7638 D200     		lsls	r2, r2, #3
 10899 763a 42EA5472 		orr	r2, r2, r4, lsr #29
 10900 763e 259C     		ldr	r4, [sp, #148]
 10901 7640 89EA0202 		eor	r2, r9, r2
 10902 7644 4FEA9419 		lsr	r9, r4, #6
 10903 7648 139C     		ldr	r4, [sp, #76]
 10904 764a 85EA0805 		eor	r5, r5, r8
 10905 764e 49EA8469 		orr	r9, r9, r4, lsl #26
 10906 7652 82EA0902 		eor	r2, r2, r9
 10907 7656 8218     		adds	r2, r0, r2
 10908 7658 0C98     		ldr	r0, [sp, #48]
 10909 765a 85EA9415 		eor	r5, r5, r4, lsr #6
 10910 765e 46EB0506 		adc	r6, r6, r5
 10911 7662 1218     		adds	r2, r2, r0
 10912 7664 4FEA9E35 		lsr	r5, lr, #14
 10913 7668 0D98     		ldr	r0, [sp, #52]
 10914 766a 45EA8C49 		orr	r9, r5, ip, lsl #18
 10915 766e 4FEA9C38 		lsr	r8, ip, #14
 10916 7672 4FEA9E45 		lsr	r5, lr, #18
 10917 7676 40EB0606 		adc	r6, r0, r6
 10918 767a 48EA8E4B 		orr	fp, r8, lr, lsl #18
 10919 767e 45EA8C30 		orr	r0, r5, ip, lsl #14
 10920 7682 4FEA9C48 		lsr	r8, ip, #18
 10921 7686 89EA0005 		eor	r5, r9, r0
 10922 768a 48EA8E38 		orr	r8, r8, lr, lsl #14
 10923 768e 4FEACC50 		lsl	r0, ip, #23
 10924 7692 8BEA0808 		eor	r8, fp, r8
 10925 7696 40EA5E20 		orr	r0, r0, lr, lsr #9
 10926 769a 88EA0000 		eor	r0, r8, r0
 10927 769e 4FEACE59 		lsl	r9, lr, #23
 10928 76a2 1218     		adds	r2, r2, r0
 10929 76a4 49EA5C29 		orr	r9, r9, ip, lsr #9
 10930 76a8 0F98     		ldr	r0, [sp, #60]
 10931 76aa 85EA0909 		eor	r9, r5, r9
 10932 76ae 46EB0906 		adc	r6, r6, r9
 10933 76b2 20EA0C09 		bic	r9, r0, ip
 10934 76b6 1098     		ldr	r0, [sp, #64]
 10935 76b8 0E9C     		ldr	r4, [sp, #56]
 10936 76ba 20EA0E05 		bic	r5, r0, lr
 10937 76be 0998     		ldr	r0, [sp, #36]
 10938 76c0 04EA0E08 		and	r8, r4, lr
 10939 76c4 00EA0C00 		and	r0, r0, ip
 10940 76c8 89EA0000 		eor	r0, r9, r0
 10941 76cc 85EA0805 		eor	r5, r5, r8
 10942 76d0 1218     		adds	r2, r2, r0
 10943 76d2 46EB0506 		adc	r6, r6, r5
 10944 76d6 1AEB0200 		adds	r0, r10, r2
 10945 76da 0290     		str	r0, [sp, #8]
 10946 76dc 0A98     		ldr	r0, [sp, #40]
 10947 76de 4FEA8179 		lsl	r9, r1, #30
 10948 76e2 40EB0600 		adc	r0, r0, r6
 10949 76e6 0390     		str	r0, [sp, #12]
 10950 76e8 080F     		lsrs	r0, r1, #28
 10951 76ea 49EA9309 		orr	r9, r9, r3, lsr #2
ARM GAS  /tmp/ccxnUvyY.s 			page 193


 10952 76ee 40EA0310 		orr	r0, r0, r3, lsl #4
 10953 76f2 80EA0900 		eor	r0, r0, r9
 10954 76f6 4FEA4169 		lsl	r9, r1, #25
 10955 76fa 49EAD319 		orr	r9, r9, r3, lsr #7
 10956 76fe 80EA0900 		eor	r0, r0, r9
 10957 7702 079C     		ldr	r4, [sp, #28]
 10958 7704 0690     		str	r0, [sp, #24]
 10959 7706 4FEA1378 		lsr	r8, r3, #28
 10960 770a 1198     		ldr	r0, [sp, #68]
 10961 770c 9D07     		lsls	r5, r3, #30
 10962 770e 45EA9105 		orr	r5, r5, r1, lsr #2
 10963 7712 48EA0118 		orr	r8, r8, r1, lsl #4
 10964 7716 84EA0009 		eor	r9, r4, r0
 10965 771a 88EA0508 		eor	r8, r8, r5
 10966 771e 089C     		ldr	r4, [sp, #32]
 10967 7720 5D06     		lsls	r5, r3, #25
 10968 7722 45EAD115 		orr	r5, r5, r1, lsr #7
 10969 7726 88EA0508 		eor	r8, r8, r5
 10970 772a 84EA0705 		eor	r5, r4, r7
 10971 772e 079C     		ldr	r4, [sp, #28]
 10972 7730 09EA0109 		and	r9, r9, r1
 10973 7734 04EA000B 		and	fp, r4, r0
 10974 7738 089C     		ldr	r4, [sp, #32]
 10975 773a 0698     		ldr	r0, [sp, #24]
 10976 773c 89EA0B09 		eor	r9, r9, fp
 10977 7740 10EB0909 		adds	r9, r0, r9
 10978 7744 05EA0305 		and	r5, r5, r3
 10979 7748 0498     		ldr	r0, [sp, #16]
 10980 774a 04EA070A 		and	r10, r4, r7
 10981 774e 85EA0A05 		eor	r5, r5, r10
 10982 7752 48EB0505 		adc	r5, r8, r5
 10983 7756 19EB0009 		adds	r9, r9, r0
 10984 775a 0598     		ldr	r0, [sp, #20]
 10985 775c 40EB0505 		adc	r5, r0, r5
 10986 7760 12EB0902 		adds	r2, r2, r9
 10987 7764 0492     		str	r2, [sp, #16]
 10988 7766 46EB0502 		adc	r2, r6, r5
 10989 776a 0592     		str	r2, [sp, #20]
 10990 776c 359A     		ldr	r2, [sp, #212]
 10991 776e 5118     		adds	r1, r2, r1
 10992 7770 369A     		ldr	r2, [sp, #216]
 10993 7772 3591     		str	r1, [sp, #212]
 10994 7774 42EB0303 		adc	r3, r2, r3
 10995 7778 3693     		str	r3, [sp, #216]
 10996 777a 119A     		ldr	r2, [sp, #68]
 10997 777c 3F9B     		ldr	r3, [sp, #252]
 10998 777e 9C18     		adds	r4, r3, r2
 10999 7780 409B     		ldr	r3, [sp, #256]
 11000 7782 079A     		ldr	r2, [sp, #28]
 11001 7784 43EB0703 		adc	r3, r3, r7
 11002 7788 4093     		str	r3, [sp, #256]
 11003 778a 479B     		ldr	r3, [sp, #284]
 11004 778c 3F94     		str	r4, [sp, #252]
 11005 778e 13EB0209 		adds	r9, r3, r2
 11006 7792 489B     		ldr	r3, [sp, #288]
 11007 7794 089A     		ldr	r2, [sp, #32]
 11008 7796 CDF81C91 		str	r9, [sp, #284]
ARM GAS  /tmp/ccxnUvyY.s 			page 194


 11009 779a 43EB0203 		adc	r3, r3, r2
 11010 779e 4893     		str	r3, [sp, #288]
 11011 77a0 029A     		ldr	r2, [sp, #8]
 11012 77a2 149B     		ldr	r3, [sp, #80]
 11013 77a4 9818     		adds	r0, r3, r2
 11014 77a6 159B     		ldr	r3, [sp, #84]
 11015 77a8 039A     		ldr	r2, [sp, #12]
 11016 77aa 1490     		str	r0, [sp, #80]
 11017 77ac 43EB0203 		adc	r3, r3, r2
 11018 77b0 1593     		str	r3, [sp, #84]
 11019 77b2 3D9B     		ldr	r3, [sp, #244]
 11020 77b4 099A     		ldr	r2, [sp, #36]
 11021 77b6 13EB0C0C 		adds	ip, r3, ip
 11022 77ba 3E9B     		ldr	r3, [sp, #248]
 11023 77bc CDF8F4C0 		str	ip, [sp, #244]
 11024 77c0 43EB0E03 		adc	r3, r3, lr
 11025 77c4 3E93     		str	r3, [sp, #248]
 11026 77c6 439B     		ldr	r3, [sp, #268]
 11027 77c8 9818     		adds	r0, r3, r2
 11028 77ca 4390     		str	r0, [sp, #268]
 11029 77cc 449B     		ldr	r3, [sp, #272]
 11030 77ce 0E9A     		ldr	r2, [sp, #56]
 11031 77d0 43EB0203 		adc	r3, r3, r2
 11032 77d4 4493     		str	r3, [sp, #272]
 11033 77d6 0F9A     		ldr	r2, [sp, #60]
 11034 77d8 459B     		ldr	r3, [sp, #276]
 11035 77da 9818     		adds	r0, r3, r2
 11036 77dc 469B     		ldr	r3, [sp, #280]
 11037 77de 109A     		ldr	r2, [sp, #64]
 11038 77e0 4590     		str	r0, [sp, #276]
 11039 77e2 43EB0203 		adc	r3, r3, r2
 11040 77e6 4693     		str	r3, [sp, #280]
 11041 77e8 019B     		ldr	r3, [sp, #4]
 11042 77ea 8033     		adds	r3, r3, #128
 11043 77ec 0193     		str	r3, [sp, #4]
 11044 77ee F8F754BC 		b	.L5
 11045              	.L74:
 11046 77f2 00BF     		.align	2
 11047              	.L73:
 11048 77f4 1758474A 		.word	1246189591
 11049 77f8 8C19446C 		.word	1816402316
 11051              		.section	.text.crypto_hashblocks_sha256.isra.0,"ax",%progbits
 11052              		.align	1
 11053              		.syntax unified
 11054              		.thumb
 11055              		.thumb_func
 11056              		.fpu fpv4-sp-d16
 11058              	crypto_hashblocks_sha256.isra.0:
 11059              		@ args = 0, pretend = 0, frame = 112
 11060              		@ frame_needed = 0, uses_anonymous_args = 0
 11061 0000 2DE9F04F 		push	{r4, r5, r6, r7, r8, r9, r10, fp, lr}
 11062 0004 9DB0     		sub	sp, sp, #116
 11063 0006 CDE90101 		strd	r0, r1, [sp, #4]
 11064 000a FFF7FEFF 		bl	load_bigendian_32
 11065 000e 019B     		ldr	r3, [sp, #4]
 11066 0010 0390     		str	r0, [sp, #12]
 11067 0012 181D     		adds	r0, r3, #4
ARM GAS  /tmp/ccxnUvyY.s 			page 195


 11068 0014 FFF7FEFF 		bl	load_bigendian_32
 11069 0018 0590     		str	r0, [sp, #20]
 11070 001a 03F10800 		add	r0, r3, #8
 11071 001e FFF7FEFF 		bl	load_bigendian_32
 11072 0022 0890     		str	r0, [sp, #32]
 11073 0024 03F10C00 		add	r0, r3, #12
 11074 0028 FFF7FEFF 		bl	load_bigendian_32
 11075 002c 1A90     		str	r0, [sp, #104]
 11076 002e 03F11000 		add	r0, r3, #16
 11077 0032 FFF7FEFF 		bl	load_bigendian_32
 11078 0036 0490     		str	r0, [sp, #16]
 11079 0038 03F11400 		add	r0, r3, #20
 11080 003c FFF7FEFF 		bl	load_bigendian_32
 11081 0040 0790     		str	r0, [sp, #28]
 11082 0042 03F11800 		add	r0, r3, #24
 11083 0046 FFF7FEFF 		bl	load_bigendian_32
 11084 004a 1790     		str	r0, [sp, #92]
 11085 004c 03F11C00 		add	r0, r3, #28
 11086 0050 0B46     		mov	r3, r1
 11087 0052 FFF7FEFF 		bl	load_bigendian_32
 11088 0056 22F03F02 		bic	r2, r2, #63
 11089 005a 1344     		add	r3, r3, r2
 11090 005c 1990     		str	r0, [sp, #100]
 11091 005e 1B93     		str	r3, [sp, #108]
 11092              	.L76:
 11093 0060 029B     		ldr	r3, [sp, #8]
 11094 0062 1B9A     		ldr	r2, [sp, #108]
 11095 0064 9342     		cmp	r3, r2
 11096 0066 62D1     		bne	.L77
 11097 0068 039A     		ldr	r2, [sp, #12]
 11098 006a 019B     		ldr	r3, [sp, #4]
 11099 006c DA70     		strb	r2, [r3, #3]
 11100 006e 130A     		lsrs	r3, r2, #8
 11101 0070 019A     		ldr	r2, [sp, #4]
 11102 0072 9370     		strb	r3, [r2, #2]
 11103 0074 039B     		ldr	r3, [sp, #12]
 11104 0076 1B0C     		lsrs	r3, r3, #16
 11105 0078 5370     		strb	r3, [r2, #1]
 11106 007a 039B     		ldr	r3, [sp, #12]
 11107 007c 180E     		lsrs	r0, r3, #24
 11108 007e 1346     		mov	r3, r2
 11109 0080 1070     		strb	r0, [r2]
 11110 0082 059A     		ldr	r2, [sp, #20]
 11111 0084 DA71     		strb	r2, [r3, #7]
 11112 0086 130A     		lsrs	r3, r2, #8
 11113 0088 019A     		ldr	r2, [sp, #4]
 11114 008a 9371     		strb	r3, [r2, #6]
 11115 008c 059B     		ldr	r3, [sp, #20]
 11116 008e 1B0C     		lsrs	r3, r3, #16
 11117 0090 5371     		strb	r3, [r2, #5]
 11118 0092 059B     		ldr	r3, [sp, #20]
 11119 0094 180E     		lsrs	r0, r3, #24
 11120 0096 1346     		mov	r3, r2
 11121 0098 1071     		strb	r0, [r2, #4]
 11122 009a 089A     		ldr	r2, [sp, #32]
 11123 009c DA72     		strb	r2, [r3, #11]
 11124 009e 130A     		lsrs	r3, r2, #8
ARM GAS  /tmp/ccxnUvyY.s 			page 196


 11125 00a0 019A     		ldr	r2, [sp, #4]
 11126 00a2 9372     		strb	r3, [r2, #10]
 11127 00a4 089B     		ldr	r3, [sp, #32]
 11128 00a6 1B0C     		lsrs	r3, r3, #16
 11129 00a8 5372     		strb	r3, [r2, #9]
 11130 00aa 089B     		ldr	r3, [sp, #32]
 11131 00ac 180E     		lsrs	r0, r3, #24
 11132 00ae 1346     		mov	r3, r2
 11133 00b0 1072     		strb	r0, [r2, #8]
 11134 00b2 1A9A     		ldr	r2, [sp, #104]
 11135 00b4 DA73     		strb	r2, [r3, #15]
 11136 00b6 130A     		lsrs	r3, r2, #8
 11137 00b8 019A     		ldr	r2, [sp, #4]
 11138 00ba 9373     		strb	r3, [r2, #14]
 11139 00bc 1A9B     		ldr	r3, [sp, #104]
 11140 00be 1B0C     		lsrs	r3, r3, #16
 11141 00c0 5373     		strb	r3, [r2, #13]
 11142 00c2 1A9B     		ldr	r3, [sp, #104]
 11143 00c4 180E     		lsrs	r0, r3, #24
 11144 00c6 1346     		mov	r3, r2
 11145 00c8 1073     		strb	r0, [r2, #12]
 11146 00ca 049A     		ldr	r2, [sp, #16]
 11147 00cc DA74     		strb	r2, [r3, #19]
 11148 00ce 130A     		lsrs	r3, r2, #8
 11149 00d0 019A     		ldr	r2, [sp, #4]
 11150 00d2 9374     		strb	r3, [r2, #18]
 11151 00d4 049B     		ldr	r3, [sp, #16]
 11152 00d6 1B0C     		lsrs	r3, r3, #16
 11153 00d8 5374     		strb	r3, [r2, #17]
 11154 00da 049B     		ldr	r3, [sp, #16]
 11155 00dc 180E     		lsrs	r0, r3, #24
 11156 00de 1346     		mov	r3, r2
 11157 00e0 1074     		strb	r0, [r2, #16]
 11158 00e2 079A     		ldr	r2, [sp, #28]
 11159 00e4 DA75     		strb	r2, [r3, #23]
 11160 00e6 130A     		lsrs	r3, r2, #8
 11161 00e8 019A     		ldr	r2, [sp, #4]
 11162 00ea 9375     		strb	r3, [r2, #22]
 11163 00ec 079B     		ldr	r3, [sp, #28]
 11164 00ee 1B0C     		lsrs	r3, r3, #16
 11165 00f0 5375     		strb	r3, [r2, #21]
 11166 00f2 079B     		ldr	r3, [sp, #28]
 11167 00f4 180E     		lsrs	r0, r3, #24
 11168 00f6 1346     		mov	r3, r2
 11169 00f8 1075     		strb	r0, [r2, #20]
 11170 00fa 179A     		ldr	r2, [sp, #92]
 11171 00fc DA76     		strb	r2, [r3, #27]
 11172 00fe 130A     		lsrs	r3, r2, #8
 11173 0100 019A     		ldr	r2, [sp, #4]
 11174 0102 9376     		strb	r3, [r2, #26]
 11175 0104 179B     		ldr	r3, [sp, #92]
 11176 0106 1B0C     		lsrs	r3, r3, #16
 11177 0108 5376     		strb	r3, [r2, #25]
 11178 010a 179B     		ldr	r3, [sp, #92]
 11179 010c 180E     		lsrs	r0, r3, #24
 11180 010e 1346     		mov	r3, r2
 11181 0110 1076     		strb	r0, [r2, #24]
ARM GAS  /tmp/ccxnUvyY.s 			page 197


 11182 0112 199A     		ldr	r2, [sp, #100]
 11183 0114 DA77     		strb	r2, [r3, #31]
 11184 0116 130A     		lsrs	r3, r2, #8
 11185 0118 019A     		ldr	r2, [sp, #4]
 11186 011a 9377     		strb	r3, [r2, #30]
 11187 011c 199B     		ldr	r3, [sp, #100]
 11188 011e 1B0C     		lsrs	r3, r3, #16
 11189 0120 5377     		strb	r3, [r2, #29]
 11190 0122 199B     		ldr	r3, [sp, #100]
 11191 0124 180E     		lsrs	r0, r3, #24
 11192 0126 1077     		strb	r0, [r2, #28]
 11193 0128 1DB0     		add	sp, sp, #116
 11194              		@ sp needed
 11195 012a BDE8F08F 		pop	{r4, r5, r6, r7, r8, r9, r10, fp, pc}
 11196              	.L77:
 11197 012e 0298     		ldr	r0, [sp, #8]
 11198 0130 FFF7FEFF 		bl	load_bigendian_32
 11199 0134 029B     		ldr	r3, [sp, #8]
 11200 0136 1690     		str	r0, [sp, #88]
 11201 0138 181D     		adds	r0, r3, #4
 11202 013a FFF7FEFF 		bl	load_bigendian_32
 11203 013e 0990     		str	r0, [sp, #36]
 11204 0140 03F10800 		add	r0, r3, #8
 11205 0144 FFF7FEFF 		bl	load_bigendian_32
 11206 0148 0A90     		str	r0, [sp, #40]
 11207 014a 03F10C00 		add	r0, r3, #12
 11208 014e FFF7FEFF 		bl	load_bigendian_32
 11209 0152 0B90     		str	r0, [sp, #44]
 11210 0154 03F11000 		add	r0, r3, #16
 11211 0158 FFF7FEFF 		bl	load_bigendian_32
 11212 015c 0C90     		str	r0, [sp, #48]
 11213 015e 03F11400 		add	r0, r3, #20
 11214 0162 FFF7FEFF 		bl	load_bigendian_32
 11215 0166 0D90     		str	r0, [sp, #52]
 11216 0168 03F11800 		add	r0, r3, #24
 11217 016c FFF7FEFF 		bl	load_bigendian_32
 11218 0170 0E90     		str	r0, [sp, #56]
 11219 0172 03F11C00 		add	r0, r3, #28
 11220 0176 FFF7FEFF 		bl	load_bigendian_32
 11221 017a 0F90     		str	r0, [sp, #60]
 11222 017c 03F12000 		add	r0, r3, #32
 11223 0180 FFF7FEFF 		bl	load_bigendian_32
 11224 0184 1090     		str	r0, [sp, #64]
 11225 0186 03F12400 		add	r0, r3, #36
 11226 018a FFF7FEFF 		bl	load_bigendian_32
 11227 018e 1190     		str	r0, [sp, #68]
 11228 0190 03F12800 		add	r0, r3, #40
 11229 0194 FFF7FEFF 		bl	load_bigendian_32
 11230 0198 1290     		str	r0, [sp, #72]
 11231 019a 03F12C00 		add	r0, r3, #44
 11232 019e FFF7FEFF 		bl	load_bigendian_32
 11233 01a2 1390     		str	r0, [sp, #76]
 11234 01a4 03F13000 		add	r0, r3, #48
 11235 01a8 FFF7FEFF 		bl	load_bigendian_32
 11236 01ac 1490     		str	r0, [sp, #80]
 11237 01ae 03F13400 		add	r0, r3, #52
 11238 01b2 FFF7FEFF 		bl	load_bigendian_32
ARM GAS  /tmp/ccxnUvyY.s 			page 198


 11239 01b6 1590     		str	r0, [sp, #84]
 11240 01b8 03F13800 		add	r0, r3, #56
 11241 01bc FFF7FEFF 		bl	load_bigendian_32
 11242 01c0 8146     		mov	r9, r0
 11243 01c2 03F13C00 		add	r0, r3, #60
 11244 01c6 FFF7FEFF 		bl	load_bigendian_32
 11245 01ca 049B     		ldr	r3, [sp, #16]
 11246 01cc 049A     		ldr	r2, [sp, #16]
 11247 01ce 4FEAF323 		ror	r3, r3, #11
 11248 01d2 83EAB213 		eor	r3, r3, r2, ror #6
 11249 01d6 1999     		ldr	r1, [sp, #100]
 11250 01d8 83EA7263 		eor	r3, r3, r2, ror #25
 11251 01dc E54A     		ldr	r2, .L78
 11252 01de 079C     		ldr	r4, [sp, #28]
 11253 01e0 0A44     		add	r2, r2, r1
 11254 01e2 1344     		add	r3, r3, r2
 11255 01e4 0499     		ldr	r1, [sp, #16]
 11256 01e6 179A     		ldr	r2, [sp, #92]
 11257 01e8 089D     		ldr	r5, [sp, #32]
 11258 01ea 22EA0102 		bic	r2, r2, r1
 11259 01ee 2140     		ands	r1, r1, r4
 11260 01f0 4A40     		eors	r2, r2, r1
 11261 01f2 1344     		add	r3, r3, r2
 11262 01f4 169A     		ldr	r2, [sp, #88]
 11263 01f6 089C     		ldr	r4, [sp, #32]
 11264 01f8 1344     		add	r3, r3, r2
 11265 01fa 039A     		ldr	r2, [sp, #12]
 11266 01fc 0690     		str	r0, [sp, #24]
 11267 01fe 4FEA7231 		ror	r1, r2, #13
 11268 0202 81EAB201 		eor	r1, r1, r2, ror #2
 11269 0206 81EAB251 		eor	r1, r1, r2, ror #22
 11270 020a 059A     		ldr	r2, [sp, #20]
 11271 020c 6240     		eors	r2, r2, r4
 11272 020e 039C     		ldr	r4, [sp, #12]
 11273 0210 2240     		ands	r2, r2, r4
 11274 0212 059C     		ldr	r4, [sp, #20]
 11275 0214 2C40     		ands	r4, r4, r5
 11276 0216 6240     		eors	r2, r2, r4
 11277 0218 1144     		add	r1, r1, r2
 11278 021a 1A9A     		ldr	r2, [sp, #104]
 11279 021c 059D     		ldr	r5, [sp, #20]
 11280 021e 03EB020C 		add	ip, r3, r2
 11281 0222 0B44     		add	r3, r3, r1
 11282 0224 D44A     		ldr	r2, .L78+4
 11283 0226 1799     		ldr	r1, [sp, #92]
 11284 0228 4FEAFC24 		ror	r4, ip, #11
 11285 022c 0A44     		add	r2, r2, r1
 11286 022e 0999     		ldr	r1, [sp, #36]
 11287 0230 84EABC14 		eor	r4, r4, ip, ror #6
 11288 0234 0A44     		add	r2, r2, r1
 11289 0236 84EA7C64 		eor	r4, r4, ip, ror #25
 11290 023a 0499     		ldr	r1, [sp, #16]
 11291 023c 1444     		add	r4, r4, r2
 11292 023e 079A     		ldr	r2, [sp, #28]
 11293 0240 01EA0C01 		and	r1, r1, ip
 11294 0244 22EA0C02 		bic	r2, r2, ip
 11295 0248 4A40     		eors	r2, r2, r1
ARM GAS  /tmp/ccxnUvyY.s 			page 199


 11296 024a 1444     		add	r4, r4, r2
 11297 024c 039A     		ldr	r2, [sp, #12]
 11298 024e 059E     		ldr	r6, [sp, #20]
 11299 0250 6A40     		eors	r2, r2, r5
 11300 0252 039D     		ldr	r5, [sp, #12]
 11301 0254 4FEA7331 		ror	r1, r3, #13
 11302 0258 3540     		ands	r5, r5, r6
 11303 025a 81EAB301 		eor	r1, r1, r3, ror #2
 11304 025e 1A40     		ands	r2, r2, r3
 11305 0260 6A40     		eors	r2, r2, r5
 11306 0262 81EAB351 		eor	r1, r1, r3, ror #22
 11307 0266 1144     		add	r1, r1, r2
 11308 0268 089A     		ldr	r2, [sp, #32]
 11309 026a 039E     		ldr	r6, [sp, #12]
 11310 026c 1519     		adds	r5, r2, r4
 11311 026e 0C44     		add	r4, r4, r1
 11312 0270 C24A     		ldr	r2, .L78+8
 11313 0272 0799     		ldr	r1, [sp, #28]
 11314 0274 4FEAF527 		ror	r7, r5, #11
 11315 0278 0A44     		add	r2, r2, r1
 11316 027a 0A99     		ldr	r1, [sp, #40]
 11317 027c 87EAB517 		eor	r7, r7, r5, ror #6
 11318 0280 0A44     		add	r2, r2, r1
 11319 0282 87EA7567 		eor	r7, r7, r5, ror #25
 11320 0286 1744     		add	r7, r7, r2
 11321 0288 049A     		ldr	r2, [sp, #16]
 11322 028a 0CEA0501 		and	r1, ip, r5
 11323 028e 22EA0502 		bic	r2, r2, r5
 11324 0292 4A40     		eors	r2, r2, r1
 11325 0294 1744     		add	r7, r7, r2
 11326 0296 039A     		ldr	r2, [sp, #12]
 11327 0298 4FEA7431 		ror	r1, r4, #13
 11328 029c 5A40     		eors	r2, r2, r3
 11329 029e 1E40     		ands	r6, r6, r3
 11330 02a0 81EAB401 		eor	r1, r1, r4, ror #2
 11331 02a4 2240     		ands	r2, r2, r4
 11332 02a6 7240     		eors	r2, r2, r6
 11333 02a8 81EAB451 		eor	r1, r1, r4, ror #22
 11334 02ac 1144     		add	r1, r1, r2
 11335 02ae 059A     		ldr	r2, [sp, #20]
 11336 02b0 0498     		ldr	r0, [sp, #16]
 11337 02b2 D619     		adds	r6, r2, r7
 11338 02b4 B24A     		ldr	r2, .L78+12
 11339 02b6 0F44     		add	r7, r7, r1
 11340 02b8 0244     		add	r2, r2, r0
 11341 02ba 4FEAF621 		ror	r1, r6, #11
 11342 02be 0B98     		ldr	r0, [sp, #44]
 11343 02c0 81EAB611 		eor	r1, r1, r6, ror #6
 11344 02c4 0244     		add	r2, r2, r0
 11345 02c6 81EA7661 		eor	r1, r1, r6, ror #25
 11346 02ca 05EA060E 		and	lr, r5, r6
 11347 02ce 1144     		add	r1, r1, r2
 11348 02d0 2CEA0602 		bic	r2, ip, r6
 11349 02d4 82EA0E02 		eor	r2, r2, lr
 11350 02d8 1144     		add	r1, r1, r2
 11351 02da 4FEA773E 		ror	lr, r7, #13
 11352 02de 83EA0402 		eor	r2, r3, r4
ARM GAS  /tmp/ccxnUvyY.s 			page 200


 11353 02e2 03EA0408 		and	r8, r3, r4
 11354 02e6 8EEAB70E 		eor	lr, lr, r7, ror #2
 11355 02ea 3A40     		ands	r2, r2, r7
 11356 02ec 82EA0802 		eor	r2, r2, r8
 11357 02f0 8EEAB75E 		eor	lr, lr, r7, ror #22
 11358 02f4 9644     		add	lr, lr, r2
 11359 02f6 039A     		ldr	r2, [sp, #12]
 11360 02f8 0C98     		ldr	r0, [sp, #48]
 11361 02fa 0A44     		add	r2, r2, r1
 11362 02fc 4FEAF22A 		ror	r10, r2, #11
 11363 0300 8AEAB21A 		eor	r10, r10, r2, ror #6
 11364 0304 8AEA7268 		eor	r8, r10, r2, ror #25
 11365 0308 DFF890A2 		ldr	r10, .L78+40
 11366 030c 7144     		add	r1, r1, lr
 11367 030e 8244     		add	r10, r10, r0
 11368 0310 06EA020E 		and	lr, r6, r2
 11369 0314 E244     		add	r10, r10, ip
 11370 0316 25EA020C 		bic	ip, r5, r2
 11371 031a 8CEA0E0C 		eor	ip, ip, lr
 11372 031e C244     		add	r10, r10, r8
 11373 0320 E244     		add	r10, r10, ip
 11374 0322 4FEA713E 		ror	lr, r1, #13
 11375 0326 84EA070C 		eor	ip, r4, r7
 11376 032a 5344     		add	r3, r3, r10
 11377 032c 04EA0708 		and	r8, r4, r7
 11378 0330 8EEAB10E 		eor	lr, lr, r1, ror #2
 11379 0334 0CEA010C 		and	ip, ip, r1
 11380 0338 8CEA080C 		eor	ip, ip, r8
 11381 033c 8EEAB15E 		eor	lr, lr, r1, ror #22
 11382 0340 4FEAF328 		ror	r8, r3, #11
 11383 0344 E644     		add	lr, lr, ip
 11384 0346 88EAB318 		eor	r8, r8, r3, ror #6
 11385 034a F244     		add	r10, r10, lr
 11386 034c 0D98     		ldr	r0, [sp, #52]
 11387 034e 88EA736E 		eor	lr, r8, r3, ror #25
 11388 0352 DFF84C82 		ldr	r8, .L78+44
 11389 0356 02EA030C 		and	ip, r2, r3
 11390 035a 8044     		add	r8, r8, r0
 11391 035c A844     		add	r8, r8, r5
 11392 035e 26EA0305 		bic	r5, r6, r3
 11393 0362 85EA0C05 		eor	r5, r5, ip
 11394 0366 F044     		add	r8, r8, lr
 11395 0368 A844     		add	r8, r8, r5
 11396 036a 4FEA7A3C 		ror	ip, r10, #13
 11397 036e 87EA0105 		eor	r5, r7, r1
 11398 0372 07EA010E 		and	lr, r7, r1
 11399 0376 8CEABA0C 		eor	ip, ip, r10, ror #2
 11400 037a 05EA0A05 		and	r5, r5, r10
 11401 037e 4444     		add	r4, r4, r8
 11402 0380 85EA0E05 		eor	r5, r5, lr
 11403 0384 8CEABA5C 		eor	ip, ip, r10, ror #22
 11404 0388 AC44     		add	ip, ip, r5
 11405 038a 4FEAF425 		ror	r5, r4, #11
 11406 038e 85EAB415 		eor	r5, r5, r4, ror #6
 11407 0392 E044     		add	r8, r8, ip
 11408 0394 0E98     		ldr	r0, [sp, #56]
 11409 0396 85EA746C 		eor	ip, r5, r4, ror #25
ARM GAS  /tmp/ccxnUvyY.s 			page 201


 11410 039a 7A4D     		ldr	r5, .L78+16
 11411 039c 01EA0A0E 		and	lr, r1, r10
 11412 03a0 0544     		add	r5, r5, r0
 11413 03a2 3544     		add	r5, r5, r6
 11414 03a4 6544     		add	r5, r5, ip
 11415 03a6 22EA0406 		bic	r6, r2, r4
 11416 03aa 03EA040C 		and	ip, r3, r4
 11417 03ae 86EA0C06 		eor	r6, r6, ip
 11418 03b2 3544     		add	r5, r5, r6
 11419 03b4 4FEA783C 		ror	ip, r8, #13
 11420 03b8 81EA0A06 		eor	r6, r1, r10
 11421 03bc 8CEAB80C 		eor	ip, ip, r8, ror #2
 11422 03c0 06EA0806 		and	r6, r6, r8
 11423 03c4 86EA0E06 		eor	r6, r6, lr
 11424 03c8 8CEAB85C 		eor	ip, ip, r8, ror #22
 11425 03cc 2F44     		add	r7, r7, r5
 11426 03ce 0F98     		ldr	r0, [sp, #60]
 11427 03d0 B444     		add	ip, ip, r6
 11428 03d2 6D4E     		ldr	r6, .L78+20
 11429 03d4 4FEAF72B 		ror	fp, r7, #11
 11430 03d8 8BEAB71B 		eor	fp, fp, r7, ror #6
 11431 03dc 8619     		adds	r6, r0, r6
 11432 03de 6544     		add	r5, r5, ip
 11433 03e0 8BEA776C 		eor	ip, fp, r7, ror #25
 11434 03e4 06EB020B 		add	fp, r6, r2
 11435 03e8 04EA0706 		and	r6, r4, r7
 11436 03ec 23EA0702 		bic	r2, r3, r7
 11437 03f0 7240     		eors	r2, r2, r6
 11438 03f2 E344     		add	fp, fp, ip
 11439 03f4 9344     		add	fp, fp, r2
 11440 03f6 4FEA7536 		ror	r6, r5, #13
 11441 03fa 8AEA0802 		eor	r2, r10, r8
 11442 03fe 0AEA080C 		and	ip, r10, r8
 11443 0402 86EAB506 		eor	r6, r6, r5, ror #2
 11444 0406 2A40     		ands	r2, r2, r5
 11445 0408 82EA0C02 		eor	r2, r2, ip
 11446 040c 86EAB556 		eor	r6, r6, r5, ror #22
 11447 0410 5944     		add	r1, r1, fp
 11448 0412 1098     		ldr	r0, [sp, #64]
 11449 0414 1644     		add	r6, r6, r2
 11450 0416 5D4A     		ldr	r2, .L78+24
 11451 0418 4FEAF12C 		ror	ip, r1, #11
 11452 041c 8CEAB11C 		eor	ip, ip, r1, ror #6
 11453 0420 0244     		add	r2, r2, r0
 11454 0422 B344     		add	fp, fp, r6
 11455 0424 8CEA7166 		eor	r6, ip, r1, ror #25
 11456 0428 02EB030C 		add	ip, r2, r3
 11457 042c 07EA0102 		and	r2, r7, r1
 11458 0430 24EA0103 		bic	r3, r4, r1
 11459 0434 5340     		eors	r3, r3, r2
 11460 0436 B444     		add	ip, ip, r6
 11461 0438 9C44     		add	ip, ip, r3
 11462 043a 4FEA7B32 		ror	r2, fp, #13
 11463 043e 88EA0503 		eor	r3, r8, r5
 11464 0442 08EA0506 		and	r6, r8, r5
 11465 0446 82EABB02 		eor	r2, r2, fp, ror #2
 11466 044a 03EA0B03 		and	r3, r3, fp
ARM GAS  /tmp/ccxnUvyY.s 			page 202


 11467 044e 7340     		eors	r3, r3, r6
 11468 0450 82EABB52 		eor	r2, r2, fp, ror #22
 11469 0454 E244     		add	r10, r10, ip
 11470 0456 1198     		ldr	r0, [sp, #68]
 11471 0458 1A44     		add	r2, r2, r3
 11472 045a 4D4B     		ldr	r3, .L78+28
 11473 045c 9444     		add	ip, ip, r2
 11474 045e 4FEAFA22 		ror	r2, r10, #11
 11475 0462 0344     		add	r3, r3, r0
 11476 0464 82EABA12 		eor	r2, r2, r10, ror #6
 11477 0468 82EA7A62 		eor	r2, r2, r10, ror #25
 11478 046c 1C44     		add	r4, r4, r3
 11479 046e 1444     		add	r4, r4, r2
 11480 0470 27EA0A03 		bic	r3, r7, r10
 11481 0474 01EA0A02 		and	r2, r1, r10
 11482 0478 5340     		eors	r3, r3, r2
 11483 047a 1C44     		add	r4, r4, r3
 11484 047c 4FEA7C32 		ror	r2, ip, #13
 11485 0480 85EA0B03 		eor	r3, r5, fp
 11486 0484 05EA0B06 		and	r6, r5, fp
 11487 0488 82EABC02 		eor	r2, r2, ip, ror #2
 11488 048c 03EA0C03 		and	r3, r3, ip
 11489 0490 7340     		eors	r3, r3, r6
 11490 0492 82EABC52 		eor	r2, r2, ip, ror #22
 11491 0496 A044     		add	r8, r8, r4
 11492 0498 1298     		ldr	r0, [sp, #72]
 11493 049a 1A44     		add	r2, r2, r3
 11494 049c 3D4B     		ldr	r3, .L78+32
 11495 049e 1444     		add	r4, r4, r2
 11496 04a0 4FEAF822 		ror	r2, r8, #11
 11497 04a4 0344     		add	r3, r3, r0
 11498 04a6 82EAB812 		eor	r2, r2, r8, ror #6
 11499 04aa 82EA7862 		eor	r2, r2, r8, ror #25
 11500 04ae 1F44     		add	r7, r7, r3
 11501 04b0 1744     		add	r7, r7, r2
 11502 04b2 21EA0803 		bic	r3, r1, r8
 11503 04b6 0AEA0802 		and	r2, r10, r8
 11504 04ba 5340     		eors	r3, r3, r2
 11505 04bc 1F44     		add	r7, r7, r3
 11506 04be 4FEA7432 		ror	r2, r4, #13
 11507 04c2 8BEA0C03 		eor	r3, fp, ip
 11508 04c6 0BEA0C06 		and	r6, fp, ip
 11509 04ca 82EAB402 		eor	r2, r2, r4, ror #2
 11510 04ce 2340     		ands	r3, r3, r4
 11511 04d0 7340     		eors	r3, r3, r6
 11512 04d2 82EAB452 		eor	r2, r2, r4, ror #22
 11513 04d6 3D44     		add	r5, r5, r7
 11514 04d8 1398     		ldr	r0, [sp, #76]
 11515 04da 1A44     		add	r2, r2, r3
 11516 04dc 2E4B     		ldr	r3, .L78+36
 11517 04de 1744     		add	r7, r7, r2
 11518 04e0 4FEAF522 		ror	r2, r5, #11
 11519 04e4 0344     		add	r3, r3, r0
 11520 04e6 82EAB512 		eor	r2, r2, r5, ror #6
 11521 04ea 82EA7562 		eor	r2, r2, r5, ror #25
 11522 04ee 1944     		add	r1, r1, r3
 11523 04f0 1144     		add	r1, r1, r2
ARM GAS  /tmp/ccxnUvyY.s 			page 203


 11524 04f2 2AEA0503 		bic	r3, r10, r5
 11525 04f6 08EA0502 		and	r2, r8, r5
 11526 04fa 5340     		eors	r3, r3, r2
 11527 04fc 1944     		add	r1, r1, r3
 11528 04fe 4FEA7732 		ror	r2, r7, #13
 11529 0502 8CEA0403 		eor	r3, ip, r4
 11530 0506 0CEA0406 		and	r6, ip, r4
 11531 050a 82EAB702 		eor	r2, r2, r7, ror #2
 11532 050e 3B40     		ands	r3, r3, r7
 11533 0510 7340     		eors	r3, r3, r6
 11534 0512 82EAB752 		eor	r2, r2, r7, ror #22
 11535 0516 1A44     		add	r2, r2, r3
 11536 0518 149B     		ldr	r3, [sp, #80]
 11537 051a 8B44     		add	fp, fp, r1
 11538 051c 03F1E543 		add	r3, r3, #1920991232
 11539 0520 03F57913 		add	r3, r3, #4079616
 11540 0524 4FEAFB2E 		ror	lr, fp, #11
 11541 0528 03F5EB53 		add	r3, r3, #7520
 11542 052c 8EEABB1E 		eor	lr, lr, fp, ror #6
 11543 0530 1433     		adds	r3, r3, #20
 11544 0532 1144     		add	r1, r1, r2
 11545 0534 8EEA7B62 		eor	r2, lr, fp, ror #25
 11546 0538 03EB0A0E 		add	lr, r3, r10
 11547 053c 05EA0B03 		and	r3, r5, fp
 11548 0540 28EA0B0A 		bic	r10, r8, fp
 11549 0544 8AEA030A 		eor	r10, r10, r3
 11550 0548 9644     		add	lr, lr, r2
 11551 054a 84EA0703 		eor	r3, r4, r7
 11552 054e 4FEA7132 		ror	r2, r1, #13
 11553 0552 04EA0706 		and	r6, r4, r7
 11554 0556 82EAB102 		eor	r2, r2, r1, ror #2
 11555 055a 0B40     		ands	r3, r3, r1
 11556 055c D644     		add	lr, lr, r10
 11557 055e 7340     		eors	r3, r3, r6
 11558 0560 82EAB152 		eor	r2, r2, r1, ror #22
 11559 0564 F444     		add	ip, ip, lr
 11560 0566 1A44     		add	r2, r2, r3
 11561 0568 9644     		add	lr, lr, r2
 11562 056a 4FEAFC22 		ror	r2, ip, #11
 11563 056e 82EABC12 		eor	r2, r2, ip, ror #6
 11564 0572 17E0     		b	.L79
 11565              	.L80:
 11566              		.align	2
 11567              	.L78:
 11568 0574 982F8A42 		.word	1116352408
 11569 0578 91443771 		.word	1899447441
 11570 057c CFFBC0B5 		.word	-1245643825
 11571 0580 A5DBB5E9 		.word	-373957723
 11572 0584 A4823F92 		.word	-1841331548
 11573 0588 D55E1CAB 		.word	-1424204075
 11574 058c 98AA07D8 		.word	-670586216
 11575 0590 015B8312 		.word	310598401
 11576 0594 BE853124 		.word	607225278
 11577 0598 C37D0C55 		.word	1426881987
 11578 059c 5BC25639 		.word	961987163
 11579 05a0 F111F159 		.word	1508970993
 11580              	.L79:
ARM GAS  /tmp/ccxnUvyY.s 			page 204


 11581 05a4 82EA7C66 		eor	r6, r2, ip, ror #25
 11582 05a8 159B     		ldr	r3, [sp, #84]
 11583 05aa DA4A     		ldr	r2, .L81
 11584 05ac 0698     		ldr	r0, [sp, #24]
 11585 05ae 1A44     		add	r2, r2, r3
 11586 05b0 4244     		add	r2, r2, r8
 11587 05b2 0BEA0C03 		and	r3, fp, ip
 11588 05b6 25EA0C08 		bic	r8, r5, ip
 11589 05ba 88EA0308 		eor	r8, r8, r3
 11590 05be 3244     		add	r2, r2, r6
 11591 05c0 87EA0103 		eor	r3, r7, r1
 11592 05c4 4FEA7E36 		ror	r6, lr, #13
 11593 05c8 4244     		add	r2, r2, r8
 11594 05ca 86EABE06 		eor	r6, r6, lr, ror #2
 11595 05ce 07EA0108 		and	r8, r7, r1
 11596 05d2 03EA0E03 		and	r3, r3, lr
 11597 05d6 83EA0803 		eor	r3, r3, r8
 11598 05da 86EABE56 		eor	r6, r6, lr, ror #22
 11599 05de 1444     		add	r4, r4, r2
 11600 05e0 1E44     		add	r6, r6, r3
 11601 05e2 3244     		add	r2, r2, r6
 11602 05e4 4FEAF426 		ror	r6, r4, #11
 11603 05e8 86EAB416 		eor	r6, r6, r4, ror #6
 11604 05ec 86EA7468 		eor	r8, r6, r4, ror #25
 11605 05f0 C94E     		ldr	r6, .L81+4
 11606 05f2 0CEA0403 		and	r3, ip, r4
 11607 05f6 4E44     		add	r6, r6, r9
 11608 05f8 2E44     		add	r6, r6, r5
 11609 05fa 2BEA0405 		bic	r5, fp, r4
 11610 05fe 5D40     		eors	r5, r5, r3
 11611 0600 4644     		add	r6, r6, r8
 11612 0602 2E44     		add	r6, r6, r5
 11613 0604 81EA0E03 		eor	r3, r1, lr
 11614 0608 4FEA7235 		ror	r5, r2, #13
 11615 060c 01EA0E08 		and	r8, r1, lr
 11616 0610 85EAB205 		eor	r5, r5, r2, ror #2
 11617 0614 1340     		ands	r3, r3, r2
 11618 0616 3744     		add	r7, r7, r6
 11619 0618 83EA0803 		eor	r3, r3, r8
 11620 061c 85EAB255 		eor	r5, r5, r2, ror #22
 11621 0620 1D44     		add	r5, r5, r3
 11622 0622 4FEAF723 		ror	r3, r7, #11
 11623 0626 83EAB713 		eor	r3, r3, r7, ror #6
 11624 062a 83EA7768 		eor	r8, r3, r7, ror #25
 11625 062e BB4B     		ldr	r3, .L81+8
 11626 0630 2E44     		add	r6, r6, r5
 11627 0632 0344     		add	r3, r3, r0
 11628 0634 04EA0705 		and	r5, r4, r7
 11629 0638 5B44     		add	r3, r3, fp
 11630 063a 2CEA070B 		bic	fp, ip, r7
 11631 063e 8BEA050B 		eor	fp, fp, r5
 11632 0642 4344     		add	r3, r3, r8
 11633 0644 8EEA0205 		eor	r5, lr, r2
 11634 0648 4FEA7638 		ror	r8, r6, #13
 11635 064c 0EEA020A 		and	r10, lr, r2
 11636 0650 88EAB608 		eor	r8, r8, r6, ror #2
 11637 0654 3540     		ands	r5, r5, r6
ARM GAS  /tmp/ccxnUvyY.s 			page 205


 11638 0656 85EA0A05 		eor	r5, r5, r10
 11639 065a 88EAB658 		eor	r8, r8, r6, ror #22
 11640 065e A844     		add	r8, r8, r5
 11641 0660 1698     		ldr	r0, [sp, #88]
 11642 0662 119D     		ldr	r5, [sp, #68]
 11643 0664 5B44     		add	r3, r3, fp
 11644 0666 01EB030B 		add	fp, r1, r3
 11645 066a 4344     		add	r3, r3, r8
 11646 066c 4FEAF948 		ror	r8, r9, #19
 11647 0670 88EA7948 		eor	r8, r8, r9, ror #17
 11648 0674 4519     		adds	r5, r0, r5
 11649 0676 0998     		ldr	r0, [sp, #36]
 11650 0678 88EA9928 		eor	r8, r8, r9, lsr #10
 11651 067c 4544     		add	r5, r5, r8
 11652 067e 4FEAB048 		ror	r8, r0, #18
 11653 0682 88EAF018 		eor	r8, r8, r0, ror #7
 11654 0686 0699     		ldr	r1, [sp, #24]
 11655 0688 88EAD008 		eor	r8, r8, r0, lsr #3
 11656 068c A844     		add	r8, r8, r5
 11657 068e 129D     		ldr	r5, [sp, #72]
 11658 0690 4FEAF14A 		ror	r10, r1, #19
 11659 0694 4519     		adds	r5, r0, r5
 11660 0696 8AEA714A 		eor	r10, r10, r1, ror #17
 11661 069a 0A98     		ldr	r0, [sp, #40]
 11662 069c 8AEA912A 		eor	r10, r10, r1, lsr #10
 11663 06a0 AA44     		add	r10, r10, r5
 11664 06a2 4FEAB045 		ror	r5, r0, #18
 11665 06a6 85EAF015 		eor	r5, r5, r0, ror #7
 11666 06aa 85EAD005 		eor	r5, r5, r0, lsr #3
 11667 06ae 05EB0A00 		add	r0, r5, r10
 11668 06b2 0990     		str	r0, [sp, #36]
 11669 06b4 0B98     		ldr	r0, [sp, #44]
 11670 06b6 1599     		ldr	r1, [sp, #84]
 11671 06b8 4FEAB045 		ror	r5, r0, #18
 11672 06bc 85EAF015 		eor	r5, r5, r0, ror #7
 11673 06c0 85EAD00A 		eor	r10, r5, r0, lsr #3
 11674 06c4 0A98     		ldr	r0, [sp, #40]
 11675 06c6 139D     		ldr	r5, [sp, #76]
 11676 06c8 4519     		adds	r5, r0, r5
 11677 06ca 5544     		add	r5, r5, r10
 11678 06cc 4FEAF84A 		ror	r10, r8, #19
 11679 06d0 8AEA784A 		eor	r10, r10, r8, ror #17
 11680 06d4 8AEA982A 		eor	r10, r10, r8, lsr #10
 11681 06d8 0AEB0500 		add	r0, r10, r5
 11682 06dc 0A90     		str	r0, [sp, #40]
 11683 06de 0C98     		ldr	r0, [sp, #48]
 11684 06e0 4FEAB045 		ror	r5, r0, #18
 11685 06e4 85EAF015 		eor	r5, r5, r0, ror #7
 11686 06e8 85EAD00A 		eor	r10, r5, r0, lsr #3
 11687 06ec 0B98     		ldr	r0, [sp, #44]
 11688 06ee 149D     		ldr	r5, [sp, #80]
 11689 06f0 4519     		adds	r5, r0, r5
 11690 06f2 0998     		ldr	r0, [sp, #36]
 11691 06f4 5544     		add	r5, r5, r10
 11692 06f6 4FEAF04A 		ror	r10, r0, #19
 11693 06fa 8AEA704A 		eor	r10, r10, r0, ror #17
 11694 06fe 8AEA902A 		eor	r10, r10, r0, lsr #10
ARM GAS  /tmp/ccxnUvyY.s 			page 206


 11695 0702 0AEB0500 		add	r0, r10, r5
 11696 0706 0B90     		str	r0, [sp, #44]
 11697 0708 0D98     		ldr	r0, [sp, #52]
 11698 070a 4FEAB045 		ror	r5, r0, #18
 11699 070e 85EAF015 		eor	r5, r5, r0, ror #7
 11700 0712 85EAD005 		eor	r5, r5, r0, lsr #3
 11701 0716 0C98     		ldr	r0, [sp, #48]
 11702 0718 00EB010A 		add	r10, r0, r1
 11703 071c 0A99     		ldr	r1, [sp, #40]
 11704 071e 5544     		add	r5, r5, r10
 11705 0720 4FEAF14A 		ror	r10, r1, #19
 11706 0724 8AEA714A 		eor	r10, r10, r1, ror #17
 11707 0728 8AEA912A 		eor	r10, r10, r1, lsr #10
 11708 072c 0AEB0501 		add	r1, r10, r5
 11709 0730 0C91     		str	r1, [sp, #48]
 11710 0732 0E99     		ldr	r1, [sp, #56]
 11711 0734 0698     		ldr	r0, [sp, #24]
 11712 0736 4FEAB145 		ror	r5, r1, #18
 11713 073a 85EAF115 		eor	r5, r5, r1, ror #7
 11714 073e 85EAD105 		eor	r5, r5, r1, lsr #3
 11715 0742 0D99     		ldr	r1, [sp, #52]
 11716 0744 01EB090A 		add	r10, r1, r9
 11717 0748 0B99     		ldr	r1, [sp, #44]
 11718 074a 5544     		add	r5, r5, r10
 11719 074c 4FEAF14A 		ror	r10, r1, #19
 11720 0750 8AEA714A 		eor	r10, r10, r1, ror #17
 11721 0754 8AEA912A 		eor	r10, r10, r1, lsr #10
 11722 0758 0AEB0501 		add	r1, r10, r5
 11723 075c 0D91     		str	r1, [sp, #52]
 11724 075e 0F99     		ldr	r1, [sp, #60]
 11725 0760 4FEAB145 		ror	r5, r1, #18
 11726 0764 85EAF115 		eor	r5, r5, r1, ror #7
 11727 0768 85EAD105 		eor	r5, r5, r1, lsr #3
 11728 076c 0E99     		ldr	r1, [sp, #56]
 11729 076e 01EB000A 		add	r10, r1, r0
 11730 0772 0C99     		ldr	r1, [sp, #48]
 11731 0774 5544     		add	r5, r5, r10
 11732 0776 4FEAF14A 		ror	r10, r1, #19
 11733 077a 8AEA714A 		eor	r10, r10, r1, ror #17
 11734 077e 8AEA912A 		eor	r10, r10, r1, lsr #10
 11735 0782 0AEB0501 		add	r1, r10, r5
 11736 0786 0E91     		str	r1, [sp, #56]
 11737 0788 1099     		ldr	r1, [sp, #64]
 11738 078a 4FEAB145 		ror	r5, r1, #18
 11739 078e 85EAF115 		eor	r5, r5, r1, ror #7
 11740 0792 85EAD105 		eor	r5, r5, r1, lsr #3
 11741 0796 0F99     		ldr	r1, [sp, #60]
 11742 0798 0D44     		add	r5, r5, r1
 11743 079a 0D99     		ldr	r1, [sp, #52]
 11744 079c 4544     		add	r5, r5, r8
 11745 079e 4FEAF14A 		ror	r10, r1, #19
 11746 07a2 8AEA714A 		eor	r10, r10, r1, ror #17
 11747 07a6 8AEA912A 		eor	r10, r10, r1, lsr #10
 11748 07aa 0AEB0501 		add	r1, r10, r5
 11749 07ae 0F91     		str	r1, [sp, #60]
 11750 07b0 1199     		ldr	r1, [sp, #68]
 11751 07b2 4FEAB145 		ror	r5, r1, #18
ARM GAS  /tmp/ccxnUvyY.s 			page 207


 11752 07b6 85EAF115 		eor	r5, r5, r1, ror #7
 11753 07ba 85EAD105 		eor	r5, r5, r1, lsr #3
 11754 07be 1099     		ldr	r1, [sp, #64]
 11755 07c0 0D44     		add	r5, r5, r1
 11756 07c2 0999     		ldr	r1, [sp, #36]
 11757 07c4 0D44     		add	r5, r5, r1
 11758 07c6 0E99     		ldr	r1, [sp, #56]
 11759 07c8 4FEAF14A 		ror	r10, r1, #19
 11760 07cc 8AEA714A 		eor	r10, r10, r1, ror #17
 11761 07d0 8AEA912A 		eor	r10, r10, r1, lsr #10
 11762 07d4 0AEB0501 		add	r1, r10, r5
 11763 07d8 1091     		str	r1, [sp, #64]
 11764 07da 1299     		ldr	r1, [sp, #72]
 11765 07dc 4FEAB145 		ror	r5, r1, #18
 11766 07e0 85EAF115 		eor	r5, r5, r1, ror #7
 11767 07e4 85EAD105 		eor	r5, r5, r1, lsr #3
 11768 07e8 1199     		ldr	r1, [sp, #68]
 11769 07ea 0D44     		add	r5, r5, r1
 11770 07ec 0A99     		ldr	r1, [sp, #40]
 11771 07ee 0D44     		add	r5, r5, r1
 11772 07f0 0F99     		ldr	r1, [sp, #60]
 11773 07f2 4FEAF14A 		ror	r10, r1, #19
 11774 07f6 8AEA714A 		eor	r10, r10, r1, ror #17
 11775 07fa 8AEA912A 		eor	r10, r10, r1, lsr #10
 11776 07fe 0AEB0501 		add	r1, r10, r5
 11777 0802 1191     		str	r1, [sp, #68]
 11778 0804 1399     		ldr	r1, [sp, #76]
 11779 0806 4FEAB145 		ror	r5, r1, #18
 11780 080a 85EAF115 		eor	r5, r5, r1, ror #7
 11781 080e 85EAD105 		eor	r5, r5, r1, lsr #3
 11782 0812 1299     		ldr	r1, [sp, #72]
 11783 0814 0D44     		add	r5, r5, r1
 11784 0816 0B99     		ldr	r1, [sp, #44]
 11785 0818 0D44     		add	r5, r5, r1
 11786 081a 1099     		ldr	r1, [sp, #64]
 11787 081c 4FEAF14A 		ror	r10, r1, #19
 11788 0820 8AEA714A 		eor	r10, r10, r1, ror #17
 11789 0824 8AEA912A 		eor	r10, r10, r1, lsr #10
 11790 0828 0AEB0501 		add	r1, r10, r5
 11791 082c 1291     		str	r1, [sp, #72]
 11792 082e 1499     		ldr	r1, [sp, #80]
 11793 0830 4FEAB145 		ror	r5, r1, #18
 11794 0834 85EAF115 		eor	r5, r5, r1, ror #7
 11795 0838 85EAD105 		eor	r5, r5, r1, lsr #3
 11796 083c 1399     		ldr	r1, [sp, #76]
 11797 083e 0D44     		add	r5, r5, r1
 11798 0840 0C99     		ldr	r1, [sp, #48]
 11799 0842 0D44     		add	r5, r5, r1
 11800 0844 1199     		ldr	r1, [sp, #68]
 11801 0846 4FEAF14A 		ror	r10, r1, #19
 11802 084a 8AEA714A 		eor	r10, r10, r1, ror #17
 11803 084e 8AEA912A 		eor	r10, r10, r1, lsr #10
 11804 0852 0AEB0501 		add	r1, r10, r5
 11805 0856 1391     		str	r1, [sp, #76]
 11806 0858 1599     		ldr	r1, [sp, #84]
 11807 085a 4FEAB145 		ror	r5, r1, #18
 11808 085e 85EAF115 		eor	r5, r5, r1, ror #7
ARM GAS  /tmp/ccxnUvyY.s 			page 208


 11809 0862 85EAD105 		eor	r5, r5, r1, lsr #3
 11810 0866 1499     		ldr	r1, [sp, #80]
 11811 0868 0D44     		add	r5, r5, r1
 11812 086a 0D99     		ldr	r1, [sp, #52]
 11813 086c 0D44     		add	r5, r5, r1
 11814 086e 1299     		ldr	r1, [sp, #72]
 11815 0870 4FEAF14A 		ror	r10, r1, #19
 11816 0874 8AEA714A 		eor	r10, r10, r1, ror #17
 11817 0878 8AEA912A 		eor	r10, r10, r1, lsr #10
 11818 087c 0AEB0501 		add	r1, r10, r5
 11819 0880 4FEAB945 		ror	r5, r9, #18
 11820 0884 1491     		str	r1, [sp, #80]
 11821 0886 85EAF915 		eor	r5, r5, r9, ror #7
 11822 088a 1599     		ldr	r1, [sp, #84]
 11823 088c 85EAD905 		eor	r5, r5, r9, lsr #3
 11824 0890 0D44     		add	r5, r5, r1
 11825 0892 0E99     		ldr	r1, [sp, #56]
 11826 0894 0D44     		add	r5, r5, r1
 11827 0896 1399     		ldr	r1, [sp, #76]
 11828 0898 4FEAF14A 		ror	r10, r1, #19
 11829 089c 8AEA714A 		eor	r10, r10, r1, ror #17
 11830 08a0 8AEA912A 		eor	r10, r10, r1, lsr #10
 11831 08a4 0AEB0501 		add	r1, r10, r5
 11832 08a8 4FEAB045 		ror	r5, r0, #18
 11833 08ac 85EAF015 		eor	r5, r5, r0, ror #7
 11834 08b0 1591     		str	r1, [sp, #84]
 11835 08b2 85EAD005 		eor	r5, r5, r0, lsr #3
 11836 08b6 0F99     		ldr	r1, [sp, #60]
 11837 08b8 4D44     		add	r5, r5, r9
 11838 08ba 0D44     		add	r5, r5, r1
 11839 08bc 1499     		ldr	r1, [sp, #80]
 11840 08be 4FEAF149 		ror	r9, r1, #19
 11841 08c2 89EA7149 		eor	r9, r9, r1, ror #17
 11842 08c6 89EA9129 		eor	r9, r9, r1, lsr #10
 11843 08ca 09EB0501 		add	r1, r9, r5
 11844 08ce 4FEAB845 		ror	r5, r8, #18
 11845 08d2 85EAF815 		eor	r5, r5, r8, ror #7
 11846 08d6 85EAD805 		eor	r5, r5, r8, lsr #3
 11847 08da 1691     		str	r1, [sp, #88]
 11848 08dc 1099     		ldr	r1, [sp, #64]
 11849 08de 0544     		add	r5, r5, r0
 11850 08e0 0D44     		add	r5, r5, r1
 11851 08e2 1599     		ldr	r1, [sp, #84]
 11852 08e4 4FEAF140 		ror	r0, r1, #19
 11853 08e8 80EA7140 		eor	r0, r0, r1, ror #17
 11854 08ec 80EA9120 		eor	r0, r0, r1, lsr #10
 11855 08f0 4119     		adds	r1, r0, r5
 11856 08f2 4FEAFB25 		ror	r5, fp, #11
 11857 08f6 85EABB15 		eor	r5, r5, fp, ror #6
 11858 08fa 85EA7B69 		eor	r9, r5, fp, ror #25
 11859 08fe 084D     		ldr	r5, .L81+12
 11860 0900 24EA0B00 		bic	r0, r4, fp
 11861 0904 4544     		add	r5, r5, r8
 11862 0906 6544     		add	r5, r5, ip
 11863 0908 07EA0B0C 		and	ip, r7, fp
 11864 090c 80EA0C0C 		eor	ip, r0, ip
 11865 0910 08E0     		b	.L82
ARM GAS  /tmp/ccxnUvyY.s 			page 209


 11866              	.L83:
 11867 0912 00BF     		.align	2
 11868              	.L81:
 11869 0914 FEB1DE80 		.word	-2132889090
 11870 0918 A706DC9B 		.word	-1680079193
 11871 091c 74F19BC1 		.word	-1046744716
 11872 0920 C1699BE4 		.word	-459576895
 11873              	.L82:
 11874 0924 4D44     		add	r5, r5, r9
 11875 0926 6544     		add	r5, r5, ip
 11876 0928 82EA0600 		eor	r0, r2, r6
 11877 092c 4FEA733C 		ror	ip, r3, #13
 11878 0930 02EA0609 		and	r9, r2, r6
 11879 0934 8CEAB30C 		eor	ip, ip, r3, ror #2
 11880 0938 1840     		ands	r0, r0, r3
 11881 093a 80EA0900 		eor	r0, r0, r9
 11882 093e 8CEAB35C 		eor	ip, ip, r3, ror #22
 11883 0942 AE44     		add	lr, lr, r5
 11884 0944 0691     		str	r1, [sp, #24]
 11885 0946 8444     		add	ip, ip, r0
 11886 0948 0999     		ldr	r1, [sp, #36]
 11887 094a F248     		ldr	r0, .L84
 11888 094c 6544     		add	r5, r5, ip
 11889 094e 4FEAFE2C 		ror	ip, lr, #11
 11890 0952 0844     		add	r0, r0, r1
 11891 0954 8CEABE1C 		eor	ip, ip, lr, ror #6
 11892 0958 8CEA7E6C 		eor	ip, ip, lr, ror #25
 11893 095c 0444     		add	r4, r4, r0
 11894 095e 6444     		add	r4, r4, ip
 11895 0960 27EA0E00 		bic	r0, r7, lr
 11896 0964 0BEA0E0C 		and	ip, fp, lr
 11897 0968 80EA0C00 		eor	r0, r0, ip
 11898 096c 0444     		add	r4, r4, r0
 11899 096e 4FEA753C 		ror	ip, r5, #13
 11900 0972 86EA0300 		eor	r0, r6, r3
 11901 0976 06EA0309 		and	r9, r6, r3
 11902 097a 8CEAB50C 		eor	ip, ip, r5, ror #2
 11903 097e 2840     		ands	r0, r0, r5
 11904 0980 2244     		add	r2, r2, r4
 11905 0982 80EA0900 		eor	r0, r0, r9
 11906 0986 8CEAB55C 		eor	ip, ip, r5, ror #22
 11907 098a 8444     		add	ip, ip, r0
 11908 098c 4FEAF220 		ror	r0, r2, #11
 11909 0990 80EAB210 		eor	r0, r0, r2, ror #6
 11910 0994 6444     		add	r4, r4, ip
 11911 0996 0A99     		ldr	r1, [sp, #40]
 11912 0998 80EA726C 		eor	ip, r0, r2, ror #25
 11913 099c DE48     		ldr	r0, .L84+4
 11914 099e 03EA0509 		and	r9, r3, r5
 11915 09a2 0844     		add	r0, r0, r1
 11916 09a4 3844     		add	r0, r0, r7
 11917 09a6 6044     		add	r0, r0, ip
 11918 09a8 2BEA0207 		bic	r7, fp, r2
 11919 09ac 0EEA020C 		and	ip, lr, r2
 11920 09b0 87EA0C07 		eor	r7, r7, ip
 11921 09b4 3844     		add	r0, r0, r7
 11922 09b6 4FEA743C 		ror	ip, r4, #13
ARM GAS  /tmp/ccxnUvyY.s 			page 210


 11923 09ba 83EA0507 		eor	r7, r3, r5
 11924 09be 8CEAB40C 		eor	ip, ip, r4, ror #2
 11925 09c2 2740     		ands	r7, r7, r4
 11926 09c4 87EA0907 		eor	r7, r7, r9
 11927 09c8 8CEAB45C 		eor	ip, ip, r4, ror #22
 11928 09cc 0644     		add	r6, r6, r0
 11929 09ce 0B99     		ldr	r1, [sp, #44]
 11930 09d0 BC44     		add	ip, ip, r7
 11931 09d2 D24F     		ldr	r7, .L84+8
 11932 09d4 6044     		add	r0, r0, ip
 11933 09d6 4FEAF62C 		ror	ip, r6, #11
 11934 09da 8CEAB61C 		eor	ip, ip, r6, ror #6
 11935 09de 0F44     		add	r7, r7, r1
 11936 09e0 8CEA766C 		eor	ip, ip, r6, ror #25
 11937 09e4 0BEB0701 		add	r1, fp, r7
 11938 09e8 6144     		add	r1, r1, ip
 11939 09ea 2EEA0607 		bic	r7, lr, r6
 11940 09ee 02EA060C 		and	ip, r2, r6
 11941 09f2 87EA0C07 		eor	r7, r7, ip
 11942 09f6 3944     		add	r1, r1, r7
 11943 09f8 4FEA703C 		ror	ip, r0, #13
 11944 09fc 85EA0407 		eor	r7, r5, r4
 11945 0a00 05EA0409 		and	r9, r5, r4
 11946 0a04 8CEAB00C 		eor	ip, ip, r0, ror #2
 11947 0a08 0740     		ands	r7, r7, r0
 11948 0a0a 87EA0907 		eor	r7, r7, r9
 11949 0a0e 8CEAB05C 		eor	ip, ip, r0, ror #22
 11950 0a12 BC44     		add	ip, ip, r7
 11951 0a14 0C9F     		ldr	r7, [sp, #48]
 11952 0a16 03EB010B 		add	fp, r3, r1
 11953 0a1a 07F13757 		add	r7, r7, #767557632
 11954 0a1e 07F52417 		add	r7, r7, #2686976
 11955 0a22 4FEAFB2A 		ror	r10, fp, #11
 11956 0a26 07F53157 		add	r7, r7, #11328
 11957 0a2a 8AEABB1A 		eor	r10, r10, fp, ror #6
 11958 0a2e 2F37     		adds	r7, r7, #47
 11959 0a30 6144     		add	r1, r1, ip
 11960 0a32 8AEA7B6C 		eor	ip, r10, fp, ror #25
 11961 0a36 07EB0E0A 		add	r10, r7, lr
 11962 0a3a E244     		add	r10, r10, ip
 11963 0a3c 22EA0B07 		bic	r7, r2, fp
 11964 0a40 06EA0B0C 		and	ip, r6, fp
 11965 0a44 87EA0C07 		eor	r7, r7, ip
 11966 0a48 BA44     		add	r10, r10, r7
 11967 0a4a 4FEA713C 		ror	ip, r1, #13
 11968 0a4e 84EA0007 		eor	r7, r4, r0
 11969 0a52 04EA000E 		and	lr, r4, r0
 11970 0a56 8CEAB10C 		eor	ip, ip, r1, ror #2
 11971 0a5a 0F40     		ands	r7, r7, r1
 11972 0a5c 5544     		add	r5, r5, r10
 11973 0a5e 87EA0E07 		eor	r7, r7, lr
 11974 0a62 8CEAB15C 		eor	ip, ip, r1, ror #22
 11975 0a66 BC44     		add	ip, ip, r7
 11976 0a68 4FEAF527 		ror	r7, r5, #11
 11977 0a6c 87EAB517 		eor	r7, r7, r5, ror #6
 11978 0a70 E244     		add	r10, r10, ip
 11979 0a72 0D9B     		ldr	r3, [sp, #52]
ARM GAS  /tmp/ccxnUvyY.s 			page 211


 11980 0a74 87EA756C 		eor	ip, r7, r5, ror #25
 11981 0a78 A94F     		ldr	r7, .L84+12
 11982 0a7a 00EA010E 		and	lr, r0, r1
 11983 0a7e 1F44     		add	r7, r7, r3
 11984 0a80 1744     		add	r7, r7, r2
 11985 0a82 6744     		add	r7, r7, ip
 11986 0a84 26EA0502 		bic	r2, r6, r5
 11987 0a88 0BEA050C 		and	ip, fp, r5
 11988 0a8c 82EA0C02 		eor	r2, r2, ip
 11989 0a90 1744     		add	r7, r7, r2
 11990 0a92 4FEA7A3C 		ror	ip, r10, #13
 11991 0a96 80EA0102 		eor	r2, r0, r1
 11992 0a9a 8CEABA0C 		eor	ip, ip, r10, ror #2
 11993 0a9e 02EA0A02 		and	r2, r2, r10
 11994 0aa2 82EA0E02 		eor	r2, r2, lr
 11995 0aa6 8CEABA5C 		eor	ip, ip, r10, ror #22
 11996 0aaa 3C44     		add	r4, r4, r7
 11997 0aac 0E9B     		ldr	r3, [sp, #56]
 11998 0aae 9444     		add	ip, ip, r2
 11999 0ab0 9C4A     		ldr	r2, .L84+16
 12000 0ab2 4FEAF429 		ror	r9, r4, #11
 12001 0ab6 89EAB419 		eor	r9, r9, r4, ror #6
 12002 0aba 9A18     		adds	r2, r3, r2
 12003 0abc 6744     		add	r7, r7, ip
 12004 0abe 89EA746C 		eor	ip, r9, r4, ror #25
 12005 0ac2 02EB0609 		add	r9, r2, r6
 12006 0ac6 2BEA0402 		bic	r2, fp, r4
 12007 0aca 05EA0406 		and	r6, r5, r4
 12008 0ace 5640     		eors	r6, r6, r2
 12009 0ad0 E144     		add	r9, r9, ip
 12010 0ad2 B144     		add	r9, r9, r6
 12011 0ad4 81EA0A02 		eor	r2, r1, r10
 12012 0ad8 4FEA7736 		ror	r6, r7, #13
 12013 0adc 01EA0A0C 		and	ip, r1, r10
 12014 0ae0 86EAB706 		eor	r6, r6, r7, ror #2
 12015 0ae4 3A40     		ands	r2, r2, r7
 12016 0ae6 82EA0C02 		eor	r2, r2, ip
 12017 0aea 86EAB756 		eor	r6, r6, r7, ror #22
 12018 0aee 4844     		add	r0, r0, r9
 12019 0af0 0F9B     		ldr	r3, [sp, #60]
 12020 0af2 1644     		add	r6, r6, r2
 12021 0af4 8C4A     		ldr	r2, .L84+20
 12022 0af6 4FEAF02E 		ror	lr, r0, #11
 12023 0afa 8EEAB01E 		eor	lr, lr, r0, ror #6
 12024 0afe 1A44     		add	r2, r2, r3
 12025 0b00 B144     		add	r9, r9, r6
 12026 0b02 25EA0003 		bic	r3, r5, r0
 12027 0b06 8EEA7066 		eor	r6, lr, r0, ror #25
 12028 0b0a 02EB0B0E 		add	lr, r2, fp
 12029 0b0e 04EA0002 		and	r2, r4, r0
 12030 0b12 5340     		eors	r3, r3, r2
 12031 0b14 B644     		add	lr, lr, r6
 12032 0b16 9E44     		add	lr, lr, r3
 12033 0b18 4FEA7932 		ror	r2, r9, #13
 12034 0b1c 8AEA0703 		eor	r3, r10, r7
 12035 0b20 0AEA0706 		and	r6, r10, r7
 12036 0b24 82EAB902 		eor	r2, r2, r9, ror #2
ARM GAS  /tmp/ccxnUvyY.s 			page 212


 12037 0b28 03EA0903 		and	r3, r3, r9
 12038 0b2c 7340     		eors	r3, r3, r6
 12039 0b2e 82EAB952 		eor	r2, r2, r9, ror #22
 12040 0b32 1A44     		add	r2, r2, r3
 12041 0b34 109B     		ldr	r3, [sp, #64]
 12042 0b36 7144     		add	r1, r1, lr
 12043 0b38 03F11843 		add	r3, r3, #-1744830464
 12044 0b3c 03F57913 		add	r3, r3, #4079616
 12045 0b40 4FEAF12C 		ror	ip, r1, #11
 12046 0b44 03F58A53 		add	r3, r3, #4416
 12047 0b48 8CEAB11C 		eor	ip, ip, r1, ror #6
 12048 0b4c 1233     		adds	r3, r3, #18
 12049 0b4e 9644     		add	lr, lr, r2
 12050 0b50 8CEA7162 		eor	r2, ip, r1, ror #25
 12051 0b54 03EB050C 		add	ip, r3, r5
 12052 0b58 9444     		add	ip, ip, r2
 12053 0b5a 24EA0103 		bic	r3, r4, r1
 12054 0b5e 00EA0102 		and	r2, r0, r1
 12055 0b62 5340     		eors	r3, r3, r2
 12056 0b64 9C44     		add	ip, ip, r3
 12057 0b66 4FEA7E32 		ror	r2, lr, #13
 12058 0b6a 87EA0903 		eor	r3, r7, r9
 12059 0b6e 07EA0905 		and	r5, r7, r9
 12060 0b72 82EABE02 		eor	r2, r2, lr, ror #2
 12061 0b76 03EA0E03 		and	r3, r3, lr
 12062 0b7a 6B40     		eors	r3, r3, r5
 12063 0b7c 82EABE52 		eor	r2, r2, lr, ror #22
 12064 0b80 E244     		add	r10, r10, ip
 12065 0b82 119D     		ldr	r5, [sp, #68]
 12066 0b84 1A44     		add	r2, r2, r3
 12067 0b86 694B     		ldr	r3, .L84+24
 12068 0b88 9444     		add	ip, ip, r2
 12069 0b8a 4FEAFA22 		ror	r2, r10, #11
 12070 0b8e 2B44     		add	r3, r3, r5
 12071 0b90 82EABA12 		eor	r2, r2, r10, ror #6
 12072 0b94 82EA7A62 		eor	r2, r2, r10, ror #25
 12073 0b98 1C44     		add	r4, r4, r3
 12074 0b9a 1444     		add	r4, r4, r2
 12075 0b9c 20EA0A03 		bic	r3, r0, r10
 12076 0ba0 01EA0A02 		and	r2, r1, r10
 12077 0ba4 5340     		eors	r3, r3, r2
 12078 0ba6 1C44     		add	r4, r4, r3
 12079 0ba8 4FEA7C32 		ror	r2, ip, #13
 12080 0bac 89EA0E03 		eor	r3, r9, lr
 12081 0bb0 2744     		add	r7, r7, r4
 12082 0bb2 09EA0E05 		and	r5, r9, lr
 12083 0bb6 82EABC02 		eor	r2, r2, ip, ror #2
 12084 0bba 03EA0C03 		and	r3, r3, ip
 12085 0bbe 6B40     		eors	r3, r3, r5
 12086 0bc0 82EABC52 		eor	r2, r2, ip, ror #22
 12087 0bc4 4FEAF726 		ror	r6, r7, #11
 12088 0bc8 1A44     		add	r2, r2, r3
 12089 0bca 86EAB716 		eor	r6, r6, r7, ror #6
 12090 0bce 1444     		add	r4, r4, r2
 12091 0bd0 129B     		ldr	r3, [sp, #72]
 12092 0bd2 86EA7762 		eor	r2, r6, r7, ror #25
 12093 0bd6 564E     		ldr	r6, .L84+28
ARM GAS  /tmp/ccxnUvyY.s 			page 213


 12094 0bd8 1E44     		add	r6, r6, r3
 12095 0bda 0644     		add	r6, r6, r0
 12096 0bdc 21EA0703 		bic	r3, r1, r7
 12097 0be0 1644     		add	r6, r6, r2
 12098 0be2 0AEA0702 		and	r2, r10, r7
 12099 0be6 5340     		eors	r3, r3, r2
 12100 0be8 1E44     		add	r6, r6, r3
 12101 0bea 4FEA7432 		ror	r2, r4, #13
 12102 0bee 8EEA0C03 		eor	r3, lr, ip
 12103 0bf2 B144     		add	r9, r9, r6
 12104 0bf4 0EEA0C00 		and	r0, lr, ip
 12105 0bf8 82EAB402 		eor	r2, r2, r4, ror #2
 12106 0bfc 2340     		ands	r3, r3, r4
 12107 0bfe 4340     		eors	r3, r3, r0
 12108 0c00 82EAB452 		eor	r2, r2, r4, ror #22
 12109 0c04 4FEAF920 		ror	r0, r9, #11
 12110 0c08 1A44     		add	r2, r2, r3
 12111 0c0a 80EAB910 		eor	r0, r0, r9, ror #6
 12112 0c0e 1644     		add	r6, r6, r2
 12113 0c10 139B     		ldr	r3, [sp, #76]
 12114 0c12 80EA7962 		eor	r2, r0, r9, ror #25
 12115 0c16 4748     		ldr	r0, .L84+32
 12116 0c18 04EA0605 		and	r5, r4, r6
 12117 0c1c 1844     		add	r0, r0, r3
 12118 0c1e 0844     		add	r0, r0, r1
 12119 0c20 2AEA0903 		bic	r3, r10, r9
 12120 0c24 1044     		add	r0, r0, r2
 12121 0c26 07EA0902 		and	r2, r7, r9
 12122 0c2a 5340     		eors	r3, r3, r2
 12123 0c2c 1844     		add	r0, r0, r3
 12124 0c2e 4FEA7632 		ror	r2, r6, #13
 12125 0c32 8CEA0403 		eor	r3, ip, r4
 12126 0c36 8644     		add	lr, lr, r0
 12127 0c38 0CEA0401 		and	r1, ip, r4
 12128 0c3c 82EAB602 		eor	r2, r2, r6, ror #2
 12129 0c40 3340     		ands	r3, r3, r6
 12130 0c42 4B40     		eors	r3, r3, r1
 12131 0c44 82EAB652 		eor	r2, r2, r6, ror #22
 12132 0c48 4FEAFE21 		ror	r1, lr, #11
 12133 0c4c 1A44     		add	r2, r2, r3
 12134 0c4e 81EABE11 		eor	r1, r1, lr, ror #6
 12135 0c52 1044     		add	r0, r0, r2
 12136 0c54 149B     		ldr	r3, [sp, #80]
 12137 0c56 81EA7E62 		eor	r2, r1, lr, ror #25
 12138 0c5a 3749     		ldr	r1, .L84+36
 12139 0c5c 1944     		add	r1, r1, r3
 12140 0c5e 5144     		add	r1, r1, r10
 12141 0c60 09EA0E03 		and	r3, r9, lr
 12142 0c64 27EA0E0A 		bic	r10, r7, lr
 12143 0c68 8AEA030A 		eor	r10, r10, r3
 12144 0c6c 1144     		add	r1, r1, r2
 12145 0c6e 84EA0603 		eor	r3, r4, r6
 12146 0c72 4FEA7032 		ror	r2, r0, #13
 12147 0c76 82EAB002 		eor	r2, r2, r0, ror #2
 12148 0c7a 0340     		ands	r3, r3, r0
 12149 0c7c 5144     		add	r1, r1, r10
 12150 0c7e 6B40     		eors	r3, r3, r5
ARM GAS  /tmp/ccxnUvyY.s 			page 214


 12151 0c80 82EAB052 		eor	r2, r2, r0, ror #22
 12152 0c84 8C44     		add	ip, ip, r1
 12153 0c86 1A44     		add	r2, r2, r3
 12154 0c88 1144     		add	r1, r1, r2
 12155 0c8a 4FEAFC22 		ror	r2, ip, #11
 12156 0c8e 82EABC12 		eor	r2, r2, ip, ror #6
 12157 0c92 82EA7C65 		eor	r5, r2, ip, ror #25
 12158 0c96 159B     		ldr	r3, [sp, #84]
 12159 0c98 284A     		ldr	r2, .L84+40
 12160 0c9a 1A44     		add	r2, r2, r3
 12161 0c9c 3A44     		add	r2, r2, r7
 12162 0c9e 0EEA0C03 		and	r3, lr, ip
 12163 0ca2 29EA0C07 		bic	r7, r9, ip
 12164 0ca6 5F40     		eors	r7, r7, r3
 12165 0ca8 2A44     		add	r2, r2, r5
 12166 0caa 3A44     		add	r2, r2, r7
 12167 0cac 86EA0003 		eor	r3, r6, r0
 12168 0cb0 4FEA7135 		ror	r5, r1, #13
 12169 0cb4 1444     		add	r4, r4, r2
 12170 0cb6 06EA0007 		and	r7, r6, r0
 12171 0cba 85EAB105 		eor	r5, r5, r1, ror #2
 12172 0cbe 0B40     		ands	r3, r3, r1
 12173 0cc0 7B40     		eors	r3, r3, r7
 12174 0cc2 85EAB155 		eor	r5, r5, r1, ror #22
 12175 0cc6 4FEAF427 		ror	r7, r4, #11
 12176 0cca 1D44     		add	r5, r5, r3
 12177 0ccc 87EAB417 		eor	r7, r7, r4, ror #6
 12178 0cd0 2A44     		add	r2, r2, r5
 12179 0cd2 169B     		ldr	r3, [sp, #88]
 12180 0cd4 87EA7465 		eor	r5, r7, r4, ror #25
 12181 0cd8 194F     		ldr	r7, .L84+44
 12182 0cda 1F44     		add	r7, r7, r3
 12183 0cdc 4F44     		add	r7, r7, r9
 12184 0cde 0CEA0403 		and	r3, ip, r4
 12185 0ce2 2EEA0409 		bic	r9, lr, r4
 12186 0ce6 89EA0309 		eor	r9, r9, r3
 12187 0cea 2F44     		add	r7, r7, r5
 12188 0cec 80EA0103 		eor	r3, r0, r1
 12189 0cf0 4FEA7235 		ror	r5, r2, #13
 12190 0cf4 4F44     		add	r7, r7, r9
 12191 0cf6 85EAB205 		eor	r5, r5, r2, ror #2
 12192 0cfa 00EA0109 		and	r9, r0, r1
 12193 0cfe 1340     		ands	r3, r3, r2
 12194 0d00 3E44     		add	r6, r6, r7
 12195 0d02 83EA0903 		eor	r3, r3, r9
 12196 0d06 85EAB255 		eor	r5, r5, r2, ror #22
 12197 0d0a 1D44     		add	r5, r5, r3
 12198 0d0c 4FEAF623 		ror	r3, r6, #11
 12199 0d10 18E0     		b	.L85
 12200              	.L86:
 12201 0d12 00BF     		.align	2
 12202              	.L84:
 12203 0d14 8647BEEF 		.word	-272742522
 12204 0d18 C69DC10F 		.word	264347078
 12205 0d1c CCA10C24 		.word	604807628
 12206 0d20 AA84744A 		.word	1249150122
 12207 0d24 DCA9B05C 		.word	1555081692
ARM GAS  /tmp/ccxnUvyY.s 			page 215


 12208 0d28 DA88F976 		.word	1996064986
 12209 0d2c 6DC631A8 		.word	-1473132947
 12210 0d30 C82703B0 		.word	-1341970488
 12211 0d34 C77F59BF 		.word	-1084653625
 12212 0d38 F30BE0C6 		.word	-958395405
 12213 0d3c 4791A7D5 		.word	-710438585
 12214 0d40 5163CA06 		.word	113926993
 12215              	.L85:
 12216 0d44 83EAB613 		eor	r3, r3, r6, ror #6
 12217 0d48 2F44     		add	r7, r7, r5
 12218 0d4a 83EA7669 		eor	r9, r3, r6, ror #25
 12219 0d4e 069D     		ldr	r5, [sp, #24]
 12220 0d50 D84B     		ldr	r3, .L87
 12221 0d52 2B44     		add	r3, r3, r5
 12222 0d54 7344     		add	r3, r3, lr
 12223 0d56 04EA0605 		and	r5, r4, r6
 12224 0d5a 2CEA060E 		bic	lr, ip, r6
 12225 0d5e 8EEA050E 		eor	lr, lr, r5
 12226 0d62 4B44     		add	r3, r3, r9
 12227 0d64 7344     		add	r3, r3, lr
 12228 0d66 81EA0205 		eor	r5, r1, r2
 12229 0d6a 4FEA773E 		ror	lr, r7, #13
 12230 0d6e 01EA0209 		and	r9, r1, r2
 12231 0d72 8EEAB70E 		eor	lr, lr, r7, ror #2
 12232 0d76 3D40     		ands	r5, r5, r7
 12233 0d78 85EA0905 		eor	r5, r5, r9
 12234 0d7c 8EEAB75E 		eor	lr, lr, r7, ror #22
 12235 0d80 AE44     		add	lr, lr, r5
 12236 0d82 099D     		ldr	r5, [sp, #36]
 12237 0d84 1844     		add	r0, r0, r3
 12238 0d86 4FEAB54B 		ror	fp, r5, #18
 12239 0d8a 8BEAF51B 		eor	fp, fp, r5, ror #7
 12240 0d8e 8BEAD50B 		eor	fp, fp, r5, lsr #3
 12241 0d92 119D     		ldr	r5, [sp, #68]
 12242 0d94 D844     		add	r8, r8, fp
 12243 0d96 A844     		add	r8, r8, r5
 12244 0d98 169D     		ldr	r5, [sp, #88]
 12245 0d9a 1890     		str	r0, [sp, #96]
 12246 0d9c 4FEAF54B 		ror	fp, r5, #19
 12247 0da0 8BEA754B 		eor	fp, fp, r5, ror #17
 12248 0da4 8BEA952B 		eor	fp, fp, r5, lsr #10
 12249 0da8 0A9D     		ldr	r5, [sp, #40]
 12250 0daa 0698     		ldr	r0, [sp, #24]
 12251 0dac 4FEAB54A 		ror	r10, r5, #18
 12252 0db0 8AEAF51A 		eor	r10, r10, r5, ror #7
 12253 0db4 8AEAD50A 		eor	r10, r10, r5, lsr #3
 12254 0db8 099D     		ldr	r5, [sp, #36]
 12255 0dba C344     		add	fp, fp, r8
 12256 0dbc AA44     		add	r10, r10, r5
 12257 0dbe 129D     		ldr	r5, [sp, #72]
 12258 0dc0 7344     		add	r3, r3, lr
 12259 0dc2 5544     		add	r5, r10, r5
 12260 0dc4 4FEAF04A 		ror	r10, r0, #19
 12261 0dc8 8AEA704A 		eor	r10, r10, r0, ror #17
 12262 0dcc 8AEA902A 		eor	r10, r10, r0, lsr #10
 12263 0dd0 0B98     		ldr	r0, [sp, #44]
 12264 0dd2 AA44     		add	r10, r10, r5
ARM GAS  /tmp/ccxnUvyY.s 			page 216


 12265 0dd4 4FEAB049 		ror	r9, r0, #18
 12266 0dd8 89EAF019 		eor	r9, r9, r0, ror #7
 12267 0ddc 89EAD009 		eor	r9, r9, r0, lsr #3
 12268 0de0 0A98     		ldr	r0, [sp, #40]
 12269 0de2 4FEAFB4E 		ror	lr, fp, #19
 12270 0de6 8144     		add	r9, r9, r0
 12271 0de8 1398     		ldr	r0, [sp, #76]
 12272 0dea 8EEA7B4E 		eor	lr, lr, fp, ror #17
 12273 0dee 8144     		add	r9, r9, r0
 12274 0df0 0C98     		ldr	r0, [sp, #48]
 12275 0df2 8EEA9B2E 		eor	lr, lr, fp, lsr #10
 12276 0df6 4FEAB045 		ror	r5, r0, #18
 12277 0dfa 85EAF015 		eor	r5, r5, r0, ror #7
 12278 0dfe 85EAD005 		eor	r5, r5, r0, lsr #3
 12279 0e02 0B98     		ldr	r0, [sp, #44]
 12280 0e04 F144     		add	r9, r9, lr
 12281 0e06 0544     		add	r5, r5, r0
 12282 0e08 4FEAFA4E 		ror	lr, r10, #19
 12283 0e0c 1498     		ldr	r0, [sp, #80]
 12284 0e0e 8EEA7A4E 		eor	lr, lr, r10, ror #17
 12285 0e12 8EEA9A2E 		eor	lr, lr, r10, lsr #10
 12286 0e16 0544     		add	r5, r5, r0
 12287 0e18 0EEB0500 		add	r0, lr, r5
 12288 0e1c 0990     		str	r0, [sp, #36]
 12289 0e1e 0D98     		ldr	r0, [sp, #52]
 12290 0e20 4FEAF94E 		ror	lr, r9, #19
 12291 0e24 4FEAB045 		ror	r5, r0, #18
 12292 0e28 85EAF015 		eor	r5, r5, r0, ror #7
 12293 0e2c 85EAD005 		eor	r5, r5, r0, lsr #3
 12294 0e30 0C98     		ldr	r0, [sp, #48]
 12295 0e32 8EEA794E 		eor	lr, lr, r9, ror #17
 12296 0e36 0544     		add	r5, r5, r0
 12297 0e38 1598     		ldr	r0, [sp, #84]
 12298 0e3a 8EEA992E 		eor	lr, lr, r9, lsr #10
 12299 0e3e 0544     		add	r5, r5, r0
 12300 0e40 0EEB0500 		add	r0, lr, r5
 12301 0e44 0A90     		str	r0, [sp, #40]
 12302 0e46 0E98     		ldr	r0, [sp, #56]
 12303 0e48 02EA0708 		and	r8, r2, r7
 12304 0e4c 4FEAB045 		ror	r5, r0, #18
 12305 0e50 85EAF015 		eor	r5, r5, r0, ror #7
 12306 0e54 85EAD005 		eor	r5, r5, r0, lsr #3
 12307 0e58 0D98     		ldr	r0, [sp, #52]
 12308 0e5a 0544     		add	r5, r5, r0
 12309 0e5c 1698     		ldr	r0, [sp, #88]
 12310 0e5e 0544     		add	r5, r5, r0
 12311 0e60 0998     		ldr	r0, [sp, #36]
 12312 0e62 4FEAF04E 		ror	lr, r0, #19
 12313 0e66 8EEA704E 		eor	lr, lr, r0, ror #17
 12314 0e6a 8EEA902E 		eor	lr, lr, r0, lsr #10
 12315 0e6e 0EEB0500 		add	r0, lr, r5
 12316 0e72 0B90     		str	r0, [sp, #44]
 12317 0e74 0F98     		ldr	r0, [sp, #60]
 12318 0e76 4FEAB045 		ror	r5, r0, #18
 12319 0e7a 85EAF015 		eor	r5, r5, r0, ror #7
 12320 0e7e 85EAD005 		eor	r5, r5, r0, lsr #3
 12321 0e82 0E98     		ldr	r0, [sp, #56]
ARM GAS  /tmp/ccxnUvyY.s 			page 217


 12322 0e84 0544     		add	r5, r5, r0
 12323 0e86 0698     		ldr	r0, [sp, #24]
 12324 0e88 0544     		add	r5, r5, r0
 12325 0e8a 0A98     		ldr	r0, [sp, #40]
 12326 0e8c 4FEAF04E 		ror	lr, r0, #19
 12327 0e90 8EEA704E 		eor	lr, lr, r0, ror #17
 12328 0e94 8EEA902E 		eor	lr, lr, r0, lsr #10
 12329 0e98 0EEB0500 		add	r0, lr, r5
 12330 0e9c 0C90     		str	r0, [sp, #48]
 12331 0e9e 1098     		ldr	r0, [sp, #64]
 12332 0ea0 4FEAB045 		ror	r5, r0, #18
 12333 0ea4 85EAF015 		eor	r5, r5, r0, ror #7
 12334 0ea8 85EAD005 		eor	r5, r5, r0, lsr #3
 12335 0eac 0F98     		ldr	r0, [sp, #60]
 12336 0eae 0544     		add	r5, r5, r0
 12337 0eb0 0B98     		ldr	r0, [sp, #44]
 12338 0eb2 5D44     		add	r5, r5, fp
 12339 0eb4 4FEAF04E 		ror	lr, r0, #19
 12340 0eb8 8EEA704E 		eor	lr, lr, r0, ror #17
 12341 0ebc 8EEA902E 		eor	lr, lr, r0, lsr #10
 12342 0ec0 0EEB0500 		add	r0, lr, r5
 12343 0ec4 0D90     		str	r0, [sp, #52]
 12344 0ec6 1198     		ldr	r0, [sp, #68]
 12345 0ec8 4FEAB045 		ror	r5, r0, #18
 12346 0ecc 85EAF015 		eor	r5, r5, r0, ror #7
 12347 0ed0 85EAD005 		eor	r5, r5, r0, lsr #3
 12348 0ed4 1098     		ldr	r0, [sp, #64]
 12349 0ed6 0544     		add	r5, r5, r0
 12350 0ed8 0C98     		ldr	r0, [sp, #48]
 12351 0eda 5544     		add	r5, r5, r10
 12352 0edc 4FEAF04E 		ror	lr, r0, #19
 12353 0ee0 8EEA704E 		eor	lr, lr, r0, ror #17
 12354 0ee4 8EEA902E 		eor	lr, lr, r0, lsr #10
 12355 0ee8 0EEB0500 		add	r0, lr, r5
 12356 0eec 0E90     		str	r0, [sp, #56]
 12357 0eee 1298     		ldr	r0, [sp, #72]
 12358 0ef0 4FEAB045 		ror	r5, r0, #18
 12359 0ef4 85EAF015 		eor	r5, r5, r0, ror #7
 12360 0ef8 85EAD005 		eor	r5, r5, r0, lsr #3
 12361 0efc 1198     		ldr	r0, [sp, #68]
 12362 0efe 0544     		add	r5, r5, r0
 12363 0f00 0D98     		ldr	r0, [sp, #52]
 12364 0f02 4D44     		add	r5, r5, r9
 12365 0f04 4FEAF04E 		ror	lr, r0, #19
 12366 0f08 8EEA704E 		eor	lr, lr, r0, ror #17
 12367 0f0c 8EEA902E 		eor	lr, lr, r0, lsr #10
 12368 0f10 0EEB0500 		add	r0, lr, r5
 12369 0f14 0F90     		str	r0, [sp, #60]
 12370 0f16 1398     		ldr	r0, [sp, #76]
 12371 0f18 4FEAB045 		ror	r5, r0, #18
 12372 0f1c 85EAF015 		eor	r5, r5, r0, ror #7
 12373 0f20 85EAD005 		eor	r5, r5, r0, lsr #3
 12374 0f24 1298     		ldr	r0, [sp, #72]
 12375 0f26 0544     		add	r5, r5, r0
 12376 0f28 0998     		ldr	r0, [sp, #36]
 12377 0f2a 0544     		add	r5, r5, r0
 12378 0f2c 0E98     		ldr	r0, [sp, #56]
ARM GAS  /tmp/ccxnUvyY.s 			page 218


 12379 0f2e 4FEAF04E 		ror	lr, r0, #19
 12380 0f32 8EEA704E 		eor	lr, lr, r0, ror #17
 12381 0f36 8EEA902E 		eor	lr, lr, r0, lsr #10
 12382 0f3a 0EEB0500 		add	r0, lr, r5
 12383 0f3e 1090     		str	r0, [sp, #64]
 12384 0f40 1498     		ldr	r0, [sp, #80]
 12385 0f42 4FEAB045 		ror	r5, r0, #18
 12386 0f46 85EAF015 		eor	r5, r5, r0, ror #7
 12387 0f4a 85EAD005 		eor	r5, r5, r0, lsr #3
 12388 0f4e 1398     		ldr	r0, [sp, #76]
 12389 0f50 0544     		add	r5, r5, r0
 12390 0f52 0A98     		ldr	r0, [sp, #40]
 12391 0f54 0544     		add	r5, r5, r0
 12392 0f56 0F98     		ldr	r0, [sp, #60]
 12393 0f58 4FEAF04E 		ror	lr, r0, #19
 12394 0f5c 8EEA704E 		eor	lr, lr, r0, ror #17
 12395 0f60 8EEA902E 		eor	lr, lr, r0, lsr #10
 12396 0f64 0EEB0500 		add	r0, lr, r5
 12397 0f68 1190     		str	r0, [sp, #68]
 12398 0f6a 1598     		ldr	r0, [sp, #84]
 12399 0f6c 4FEAB045 		ror	r5, r0, #18
 12400 0f70 85EAF015 		eor	r5, r5, r0, ror #7
 12401 0f74 85EAD005 		eor	r5, r5, r0, lsr #3
 12402 0f78 1498     		ldr	r0, [sp, #80]
 12403 0f7a 0544     		add	r5, r5, r0
 12404 0f7c 0B98     		ldr	r0, [sp, #44]
 12405 0f7e 0544     		add	r5, r5, r0
 12406 0f80 1098     		ldr	r0, [sp, #64]
 12407 0f82 4FEAF04E 		ror	lr, r0, #19
 12408 0f86 8EEA704E 		eor	lr, lr, r0, ror #17
 12409 0f8a 8EEA902E 		eor	lr, lr, r0, lsr #10
 12410 0f8e 0EEB0500 		add	r0, lr, r5
 12411 0f92 1290     		str	r0, [sp, #72]
 12412 0f94 1698     		ldr	r0, [sp, #88]
 12413 0f96 4FEAB045 		ror	r5, r0, #18
 12414 0f9a 85EAF015 		eor	r5, r5, r0, ror #7
 12415 0f9e 85EAD005 		eor	r5, r5, r0, lsr #3
 12416 0fa2 1598     		ldr	r0, [sp, #84]
 12417 0fa4 0544     		add	r5, r5, r0
 12418 0fa6 0C98     		ldr	r0, [sp, #48]
 12419 0fa8 0544     		add	r5, r5, r0
 12420 0faa 1198     		ldr	r0, [sp, #68]
 12421 0fac 4FEAF04E 		ror	lr, r0, #19
 12422 0fb0 8EEA704E 		eor	lr, lr, r0, ror #17
 12423 0fb4 8EEA902E 		eor	lr, lr, r0, lsr #10
 12424 0fb8 0EEB0500 		add	r0, lr, r5
 12425 0fbc 1390     		str	r0, [sp, #76]
 12426 0fbe 0698     		ldr	r0, [sp, #24]
 12427 0fc0 4FEAB045 		ror	r5, r0, #18
 12428 0fc4 85EAF015 		eor	r5, r5, r0, ror #7
 12429 0fc8 85EAD005 		eor	r5, r5, r0, lsr #3
 12430 0fcc 1698     		ldr	r0, [sp, #88]
 12431 0fce 0544     		add	r5, r5, r0
 12432 0fd0 0D98     		ldr	r0, [sp, #52]
 12433 0fd2 0544     		add	r5, r5, r0
 12434 0fd4 1298     		ldr	r0, [sp, #72]
 12435 0fd6 4FEAF04E 		ror	lr, r0, #19
ARM GAS  /tmp/ccxnUvyY.s 			page 219


 12436 0fda 8EEA704E 		eor	lr, lr, r0, ror #17
 12437 0fde 8EEA902E 		eor	lr, lr, r0, lsr #10
 12438 0fe2 0EEB0500 		add	r0, lr, r5
 12439 0fe6 4FEABB45 		ror	r5, fp, #18
 12440 0fea 1490     		str	r0, [sp, #80]
 12441 0fec 85EAFB15 		eor	r5, r5, fp, ror #7
 12442 0ff0 0698     		ldr	r0, [sp, #24]
 12443 0ff2 85EADB05 		eor	r5, r5, fp, lsr #3
 12444 0ff6 0544     		add	r5, r5, r0
 12445 0ff8 0E98     		ldr	r0, [sp, #56]
 12446 0ffa 0544     		add	r5, r5, r0
 12447 0ffc 1398     		ldr	r0, [sp, #76]
 12448 0ffe 4FEAF04E 		ror	lr, r0, #19
 12449 1002 8EEA704E 		eor	lr, lr, r0, ror #17
 12450 1006 8EEA902E 		eor	lr, lr, r0, lsr #10
 12451 100a 0EEB0500 		add	r0, lr, r5
 12452 100e 0690     		str	r0, [sp, #24]
 12453 1010 1898     		ldr	r0, [sp, #96]
 12454 1012 4FEAF025 		ror	r5, r0, #11
 12455 1016 85EAB015 		eor	r5, r5, r0, ror #6
 12456 101a 85EA706E 		eor	lr, r5, r0, ror #25
 12457 101e 264D     		ldr	r5, .L87+4
 12458 1020 5D44     		add	r5, r5, fp
 12459 1022 6544     		add	r5, r5, ip
 12460 1024 7544     		add	r5, r5, lr
 12461 1026 24EA000C 		bic	ip, r4, r0
 12462 102a 06EA000E 		and	lr, r6, r0
 12463 102e 8CEA0E0C 		eor	ip, ip, lr
 12464 1032 6544     		add	r5, r5, ip
 12465 1034 4FEA733E 		ror	lr, r3, #13
 12466 1038 82EA070C 		eor	ip, r2, r7
 12467 103c 8EEAB30E 		eor	lr, lr, r3, ror #2
 12468 1040 0CEA030C 		and	ip, ip, r3
 12469 1044 8CEA080C 		eor	ip, ip, r8
 12470 1048 8EEAB35E 		eor	lr, lr, r3, ror #22
 12471 104c 2944     		add	r1, r1, r5
 12472 104e E644     		add	lr, lr, ip
 12473 1050 DFF868C0 		ldr	ip, .L87+8
 12474 1054 7544     		add	r5, r5, lr
 12475 1056 4FEAF12E 		ror	lr, r1, #11
 12476 105a D444     		add	ip, ip, r10
 12477 105c 8EEAB11E 		eor	lr, lr, r1, ror #6
 12478 1060 8EEA716E 		eor	lr, lr, r1, ror #25
 12479 1064 6444     		add	r4, r4, ip
 12480 1066 7444     		add	r4, r4, lr
 12481 1068 26EA010C 		bic	ip, r6, r1
 12482 106c 00EA010E 		and	lr, r0, r1
 12483 1070 8CEA0E0C 		eor	ip, ip, lr
 12484 1074 6444     		add	r4, r4, ip
 12485 1076 4FEA753E 		ror	lr, r5, #13
 12486 107a 87EA030C 		eor	ip, r7, r3
 12487 107e 07EA0308 		and	r8, r7, r3
 12488 1082 8EEAB50E 		eor	lr, lr, r5, ror #2
 12489 1086 0CEA050C 		and	ip, ip, r5
 12490 108a 8CEA080C 		eor	ip, ip, r8
 12491 108e 8EEAB55E 		eor	lr, lr, r5, ror #22
 12492 1092 2244     		add	r2, r2, r4
ARM GAS  /tmp/ccxnUvyY.s 			page 220


 12493 1094 E644     		add	lr, lr, ip
 12494 1096 DFF828C0 		ldr	ip, .L87+12
 12495 109a 7444     		add	r4, r4, lr
 12496 109c 4FEAF22E 		ror	lr, r2, #11
 12497 10a0 CC44     		add	ip, r9, ip
 12498 10a2 8EEAB21E 		eor	lr, lr, r2, ror #6
 12499 10a6 8EEA726E 		eor	lr, lr, r2, ror #25
 12500 10aa 6644     		add	r6, r6, ip
 12501 10ac 7644     		add	r6, r6, lr
 12502 10ae 20EA020C 		bic	ip, r0, r2
 12503 10b2 07E0     		b	.L88
 12504              	.L89:
 12505              		.align	2
 12506              	.L87:
 12507 10b4 67292914 		.word	338241895
 12508 10b8 850AB727 		.word	666307205
 12509 10bc 38211B2E 		.word	773529912
 12510 10c0 FC6D2C4D 		.word	1294757372
 12511              	.L88:
 12512 10c4 01EA020E 		and	lr, r1, r2
 12513 10c8 8CEA0E0C 		eor	ip, ip, lr
 12514 10cc 6644     		add	r6, r6, ip
 12515 10ce 4FEA743E 		ror	lr, r4, #13
 12516 10d2 83EA050C 		eor	ip, r3, r5
 12517 10d6 03EA0508 		and	r8, r3, r5
 12518 10da 8EEAB40E 		eor	lr, lr, r4, ror #2
 12519 10de 0CEA040C 		and	ip, ip, r4
 12520 10e2 8CEA080C 		eor	ip, ip, r8
 12521 10e6 8EEAB45E 		eor	lr, lr, r4, ror #22
 12522 10ea 0998     		ldr	r0, [sp, #36]
 12523 10ec E644     		add	lr, lr, ip
 12524 10ee DFF868C4 		ldr	ip, .L90+36
 12525 10f2 3744     		add	r7, r7, r6
 12526 10f4 8444     		add	ip, ip, r0
 12527 10f6 7644     		add	r6, r6, lr
 12528 10f8 1898     		ldr	r0, [sp, #96]
 12529 10fa 4FEAF72E 		ror	lr, r7, #11
 12530 10fe 8EEAB71E 		eor	lr, lr, r7, ror #6
 12531 1102 8EEA776E 		eor	lr, lr, r7, ror #25
 12532 1106 6044     		add	r0, r0, ip
 12533 1108 7044     		add	r0, r0, lr
 12534 110a 21EA070C 		bic	ip, r1, r7
 12535 110e 02EA070E 		and	lr, r2, r7
 12536 1112 8CEA0E0C 		eor	ip, ip, lr
 12537 1116 6044     		add	r0, r0, ip
 12538 1118 4FEA763E 		ror	lr, r6, #13
 12539 111c 85EA040C 		eor	ip, r5, r4
 12540 1120 05EA0408 		and	r8, r5, r4
 12541 1124 8EEAB60E 		eor	lr, lr, r6, ror #2
 12542 1128 0CEA060C 		and	ip, ip, r6
 12543 112c 8CEA080C 		eor	ip, ip, r8
 12544 1130 8EEAB65E 		eor	lr, lr, r6, ror #22
 12545 1134 0344     		add	r3, r3, r0
 12546 1136 E644     		add	lr, lr, ip
 12547 1138 7044     		add	r0, r0, lr
 12548 113a 4FEAF32E 		ror	lr, r3, #11
 12549 113e 8EEAB31E 		eor	lr, lr, r3, ror #6
ARM GAS  /tmp/ccxnUvyY.s 			page 221


 12550 1142 1593     		str	r3, [sp, #84]
 12551 1144 8EEA7368 		eor	r8, lr, r3, ror #25
 12552 1148 0A9B     		ldr	r3, [sp, #40]
 12553 114a DFF810E4 		ldr	lr, .L90+40
 12554 114e 9E44     		add	lr, lr, r3
 12555 1150 159B     		ldr	r3, [sp, #84]
 12556 1152 8E44     		add	lr, lr, r1
 12557 1154 07EA030C 		and	ip, r7, r3
 12558 1158 22EA0301 		bic	r1, r2, r3
 12559 115c 81EA0C01 		eor	r1, r1, ip
 12560 1160 C644     		add	lr, lr, r8
 12561 1162 8E44     		add	lr, lr, r1
 12562 1164 4FEA703C 		ror	ip, r0, #13
 12563 1168 84EA0601 		eor	r1, r4, r6
 12564 116c 04EA0608 		and	r8, r4, r6
 12565 1170 8CEAB00C 		eor	ip, ip, r0, ror #2
 12566 1174 0140     		ands	r1, r1, r0
 12567 1176 81EA0801 		eor	r1, r1, r8
 12568 117a 8CEAB05C 		eor	ip, ip, r0, ror #22
 12569 117e 7544     		add	r5, r5, lr
 12570 1180 0B9B     		ldr	r3, [sp, #44]
 12571 1182 8C44     		add	ip, ip, r1
 12572 1184 EB49     		ldr	r1, .L90
 12573 1186 E644     		add	lr, lr, ip
 12574 1188 4FEAF52C 		ror	ip, r5, #11
 12575 118c 1944     		add	r1, r1, r3
 12576 118e 8CEAB51C 		eor	ip, ip, r5, ror #6
 12577 1192 159B     		ldr	r3, [sp, #84]
 12578 1194 8CEA756C 		eor	ip, ip, r5, ror #25
 12579 1198 0A44     		add	r2, r2, r1
 12580 119a 6244     		add	r2, r2, ip
 12581 119c 27EA0501 		bic	r1, r7, r5
 12582 11a0 03EA050C 		and	ip, r3, r5
 12583 11a4 81EA0C01 		eor	r1, r1, ip
 12584 11a8 0A44     		add	r2, r2, r1
 12585 11aa 4FEA7E3C 		ror	ip, lr, #13
 12586 11ae 86EA0001 		eor	r1, r6, r0
 12587 11b2 06EA0008 		and	r8, r6, r0
 12588 11b6 8CEABE0C 		eor	ip, ip, lr, ror #2
 12589 11ba 01EA0E01 		and	r1, r1, lr
 12590 11be 81EA0801 		eor	r1, r1, r8
 12591 11c2 8CEABE5C 		eor	ip, ip, lr, ror #22
 12592 11c6 8C44     		add	ip, ip, r1
 12593 11c8 0C9B     		ldr	r3, [sp, #48]
 12594 11ca DB49     		ldr	r1, .L90+4
 12595 11cc 1444     		add	r4, r4, r2
 12596 11ce 5918     		adds	r1, r3, r1
 12597 11d0 4FEAF428 		ror	r8, r4, #11
 12598 11d4 159B     		ldr	r3, [sp, #84]
 12599 11d6 88EAB418 		eor	r8, r8, r4, ror #6
 12600 11da 6244     		add	r2, r2, ip
 12601 11dc 88EA746C 		eor	ip, r8, r4, ror #25
 12602 11e0 01EB0708 		add	r8, r1, r7
 12603 11e4 23EA0401 		bic	r1, r3, r4
 12604 11e8 05EA0407 		and	r7, r5, r4
 12605 11ec 4F40     		eors	r7, r7, r1
 12606 11ee E044     		add	r8, r8, ip
ARM GAS  /tmp/ccxnUvyY.s 			page 222


 12607 11f0 B844     		add	r8, r8, r7
 12608 11f2 80EA0E01 		eor	r1, r0, lr
 12609 11f6 4FEA7237 		ror	r7, r2, #13
 12610 11fa 00EA0E0C 		and	ip, r0, lr
 12611 11fe 87EAB207 		eor	r7, r7, r2, ror #2
 12612 1202 1140     		ands	r1, r1, r2
 12613 1204 81EA0C01 		eor	r1, r1, ip
 12614 1208 87EAB257 		eor	r7, r7, r2, ror #22
 12615 120c 0D9B     		ldr	r3, [sp, #52]
 12616 120e 0F44     		add	r7, r7, r1
 12617 1210 CA49     		ldr	r1, .L90+8
 12618 1212 4644     		add	r6, r6, r8
 12619 1214 1944     		add	r1, r1, r3
 12620 1216 159B     		ldr	r3, [sp, #84]
 12621 1218 4FEAF62C 		ror	ip, r6, #11
 12622 121c 8CEAB61C 		eor	ip, ip, r6, ror #6
 12623 1220 0B44     		add	r3, r3, r1
 12624 1222 B844     		add	r8, r8, r7
 12625 1224 8CEA7667 		eor	r7, ip, r6, ror #25
 12626 1228 9C46     		mov	ip, r3
 12627 122a 04EA0601 		and	r1, r4, r6
 12628 122e 25EA0603 		bic	r3, r5, r6
 12629 1232 4B40     		eors	r3, r3, r1
 12630 1234 BC44     		add	ip, ip, r7
 12631 1236 9C44     		add	ip, ip, r3
 12632 1238 4FEA7831 		ror	r1, r8, #13
 12633 123c 8EEA0203 		eor	r3, lr, r2
 12634 1240 0EEA0207 		and	r7, lr, r2
 12635 1244 81EAB801 		eor	r1, r1, r8, ror #2
 12636 1248 03EA0803 		and	r3, r3, r8
 12637 124c 7B40     		eors	r3, r3, r7
 12638 124e 81EAB851 		eor	r1, r1, r8, ror #22
 12639 1252 1944     		add	r1, r1, r3
 12640 1254 0E9B     		ldr	r3, [sp, #56]
 12641 1256 6044     		add	r0, r0, ip
 12642 1258 03F12243 		add	r3, r3, #-1577058304
 12643 125c 03F53F03 		add	r3, r3, #12517376
 12644 1260 4FEAF027 		ror	r7, r0, #11
 12645 1264 03F56843 		add	r3, r3, #59392
 12646 1268 87EAB017 		eor	r7, r7, r0, ror #6
 12647 126c A133     		adds	r3, r3, #161
 12648 126e 8C44     		add	ip, ip, r1
 12649 1270 87EA7061 		eor	r1, r7, r0, ror #25
 12650 1274 5F19     		adds	r7, r3, r5
 12651 1276 0F44     		add	r7, r7, r1
 12652 1278 24EA0003 		bic	r3, r4, r0
 12653 127c 06EA0001 		and	r1, r6, r0
 12654 1280 4B40     		eors	r3, r3, r1
 12655 1282 1F44     		add	r7, r7, r3
 12656 1284 4FEA7C31 		ror	r1, ip, #13
 12657 1288 82EA0803 		eor	r3, r2, r8
 12658 128c BE44     		add	lr, lr, r7
 12659 128e 02EA0805 		and	r5, r2, r8
 12660 1292 81EABC01 		eor	r1, r1, ip, ror #2
 12661 1296 03EA0C03 		and	r3, r3, ip
 12662 129a 6B40     		eors	r3, r3, r5
 12663 129c 81EABC51 		eor	r1, r1, ip, ror #22
ARM GAS  /tmp/ccxnUvyY.s 			page 223


 12664 12a0 4FEAFE25 		ror	r5, lr, #11
 12665 12a4 1944     		add	r1, r1, r3
 12666 12a6 85EABE15 		eor	r5, r5, lr, ror #6
 12667 12aa 0F44     		add	r7, r7, r1
 12668 12ac 0F9B     		ldr	r3, [sp, #60]
 12669 12ae 85EA7E61 		eor	r1, r5, lr, ror #25
 12670 12b2 A34D     		ldr	r5, .L90+12
 12671 12b4 1D44     		add	r5, r5, r3
 12672 12b6 2544     		add	r5, r5, r4
 12673 12b8 26EA0E03 		bic	r3, r6, lr
 12674 12bc 0D44     		add	r5, r5, r1
 12675 12be 00EA0E01 		and	r1, r0, lr
 12676 12c2 4B40     		eors	r3, r3, r1
 12677 12c4 1D44     		add	r5, r5, r3
 12678 12c6 4FEA7731 		ror	r1, r7, #13
 12679 12ca 88EA0C03 		eor	r3, r8, ip
 12680 12ce 2A44     		add	r2, r2, r5
 12681 12d0 08EA0C04 		and	r4, r8, ip
 12682 12d4 81EAB701 		eor	r1, r1, r7, ror #2
 12683 12d8 3B40     		ands	r3, r3, r7
 12684 12da 6340     		eors	r3, r3, r4
 12685 12dc 81EAB751 		eor	r1, r1, r7, ror #22
 12686 12e0 4FEAF224 		ror	r4, r2, #11
 12687 12e4 1944     		add	r1, r1, r3
 12688 12e6 84EAB214 		eor	r4, r4, r2, ror #6
 12689 12ea 0D44     		add	r5, r5, r1
 12690 12ec 109B     		ldr	r3, [sp, #64]
 12691 12ee 84EA7261 		eor	r1, r4, r2, ror #25
 12692 12f2 944C     		ldr	r4, .L90+16
 12693 12f4 1C44     		add	r4, r4, r3
 12694 12f6 3444     		add	r4, r4, r6
 12695 12f8 20EA0203 		bic	r3, r0, r2
 12696 12fc 0C44     		add	r4, r4, r1
 12697 12fe 0EEA0201 		and	r1, lr, r2
 12698 1302 4B40     		eors	r3, r3, r1
 12699 1304 1C44     		add	r4, r4, r3
 12700 1306 4FEA7531 		ror	r1, r5, #13
 12701 130a 8CEA0703 		eor	r3, ip, r7
 12702 130e 0CEA0706 		and	r6, ip, r7
 12703 1312 81EAB501 		eor	r1, r1, r5, ror #2
 12704 1316 2B40     		ands	r3, r3, r5
 12705 1318 7340     		eors	r3, r3, r6
 12706 131a 81EAB551 		eor	r1, r1, r5, ror #22
 12707 131e A044     		add	r8, r8, r4
 12708 1320 119E     		ldr	r6, [sp, #68]
 12709 1322 1944     		add	r1, r1, r3
 12710 1324 884B     		ldr	r3, .L90+20
 12711 1326 0C44     		add	r4, r4, r1
 12712 1328 4FEAF821 		ror	r1, r8, #11
 12713 132c 3344     		add	r3, r3, r6
 12714 132e 81EAB811 		eor	r1, r1, r8, ror #6
 12715 1332 81EA7861 		eor	r1, r1, r8, ror #25
 12716 1336 1844     		add	r0, r0, r3
 12717 1338 0844     		add	r0, r0, r1
 12718 133a 2EEA0803 		bic	r3, lr, r8
 12719 133e 02EA0801 		and	r1, r2, r8
 12720 1342 4B40     		eors	r3, r3, r1
ARM GAS  /tmp/ccxnUvyY.s 			page 224


 12721 1344 1844     		add	r0, r0, r3
 12722 1346 4FEA7431 		ror	r1, r4, #13
 12723 134a 87EA0503 		eor	r3, r7, r5
 12724 134e 07EA0506 		and	r6, r7, r5
 12725 1352 81EAB401 		eor	r1, r1, r4, ror #2
 12726 1356 2340     		ands	r3, r3, r4
 12727 1358 7340     		eors	r3, r3, r6
 12728 135a 81EAB451 		eor	r1, r1, r4, ror #22
 12729 135e 1944     		add	r1, r1, r3
 12730 1360 129B     		ldr	r3, [sp, #72]
 12731 1362 8444     		add	ip, ip, r0
 12732 1364 03F15143 		add	r3, r3, #-788529152
 12733 1368 03F51203 		add	r3, r3, #9568256
 12734 136c 4FEAFC26 		ror	r6, ip, #11
 12735 1370 03F56843 		add	r3, r3, #59392
 12736 1374 86EABC16 		eor	r6, r6, ip, ror #6
 12737 1378 1933     		adds	r3, r3, #25
 12738 137a 0844     		add	r0, r0, r1
 12739 137c 86EA7C61 		eor	r1, r6, ip, ror #25
 12740 1380 03EB0E06 		add	r6, r3, lr
 12741 1384 08EA0C03 		and	r3, r8, ip
 12742 1388 22EA0C0E 		bic	lr, r2, ip
 12743 138c 8EEA030E 		eor	lr, lr, r3
 12744 1390 0E44     		add	r6, r6, r1
 12745 1392 85EA0403 		eor	r3, r5, r4
 12746 1396 4FEA7031 		ror	r1, r0, #13
 12747 139a 7644     		add	r6, r6, lr
 12748 139c 81EAB001 		eor	r1, r1, r0, ror #2
 12749 13a0 05EA040E 		and	lr, r5, r4
 12750 13a4 0340     		ands	r3, r3, r0
 12751 13a6 83EA0E03 		eor	r3, r3, lr
 12752 13aa 81EAB051 		eor	r1, r1, r0, ror #22
 12753 13ae 3744     		add	r7, r7, r6
 12754 13b0 1944     		add	r1, r1, r3
 12755 13b2 0E44     		add	r6, r6, r1
 12756 13b4 4FEAF721 		ror	r1, r7, #11
 12757 13b8 81EAB711 		eor	r1, r1, r7, ror #6
 12758 13bc 81EA776E 		eor	lr, r1, r7, ror #25
 12759 13c0 139B     		ldr	r3, [sp, #76]
 12760 13c2 6249     		ldr	r1, .L90+24
 12761 13c4 1944     		add	r1, r1, r3
 12762 13c6 1144     		add	r1, r1, r2
 12763 13c8 0CEA0703 		and	r3, ip, r7
 12764 13cc 28EA0702 		bic	r2, r8, r7
 12765 13d0 5A40     		eors	r2, r2, r3
 12766 13d2 7144     		add	r1, r1, lr
 12767 13d4 1144     		add	r1, r1, r2
 12768 13d6 84EA0003 		eor	r3, r4, r0
 12769 13da 4FEA7632 		ror	r2, r6, #13
 12770 13de 04EA000E 		and	lr, r4, r0
 12771 13e2 82EAB602 		eor	r2, r2, r6, ror #2
 12772 13e6 3340     		ands	r3, r3, r6
 12773 13e8 83EA0E03 		eor	r3, r3, lr
 12774 13ec 82EAB652 		eor	r2, r2, r6, ror #22
 12775 13f0 0D44     		add	r5, r5, r1
 12776 13f2 1A44     		add	r2, r2, r3
 12777 13f4 1144     		add	r1, r1, r2
ARM GAS  /tmp/ccxnUvyY.s 			page 225


 12778 13f6 4FEAF522 		ror	r2, r5, #11
 12779 13fa 82EAB512 		eor	r2, r2, r5, ror #6
 12780 13fe 82EA756E 		eor	lr, r2, r5, ror #25
 12781 1402 149B     		ldr	r3, [sp, #80]
 12782 1404 524A     		ldr	r2, .L90+28
 12783 1406 1A44     		add	r2, r2, r3
 12784 1408 4244     		add	r2, r2, r8
 12785 140a 07EA0503 		and	r3, r7, r5
 12786 140e 2CEA0508 		bic	r8, ip, r5
 12787 1412 88EA0308 		eor	r8, r8, r3
 12788 1416 7244     		add	r2, r2, lr
 12789 1418 80EA0603 		eor	r3, r0, r6
 12790 141c 4FEA713E 		ror	lr, r1, #13
 12791 1420 4244     		add	r2, r2, r8
 12792 1422 8EEAB10E 		eor	lr, lr, r1, ror #2
 12793 1426 00EA0608 		and	r8, r0, r6
 12794 142a 0B40     		ands	r3, r3, r1
 12795 142c 83EA0803 		eor	r3, r3, r8
 12796 1430 8EEAB15E 		eor	lr, lr, r1, ror #22
 12797 1434 9E44     		add	lr, lr, r3
 12798 1436 A318     		adds	r3, r4, r2
 12799 1438 1593     		str	r3, [sp, #84]
 12800 143a 159C     		ldr	r4, [sp, #84]
 12801 143c 4FEAF323 		ror	r3, r3, #11
 12802 1440 83EAB413 		eor	r3, r3, r4, ror #6
 12803 1444 7244     		add	r2, r2, lr
 12804 1446 83EA746E 		eor	lr, r3, r4, ror #25
 12805 144a 069C     		ldr	r4, [sp, #24]
 12806 144c 414B     		ldr	r3, .L90+32
 12807 144e 06EA0108 		and	r8, r6, r1
 12808 1452 2344     		add	r3, r3, r4
 12809 1454 159C     		ldr	r4, [sp, #84]
 12810 1456 6344     		add	r3, r3, ip
 12811 1458 7344     		add	r3, r3, lr
 12812 145a 27EA040C 		bic	ip, r7, r4
 12813 145e 05EA040E 		and	lr, r5, r4
 12814 1462 8CEA0E0C 		eor	ip, ip, lr
 12815 1466 6344     		add	r3, r3, ip
 12816 1468 4FEA723E 		ror	lr, r2, #13
 12817 146c 86EA010C 		eor	ip, r6, r1
 12818 1470 8EEAB20E 		eor	lr, lr, r2, ror #2
 12819 1474 0CEA020C 		and	ip, ip, r2
 12820 1478 8CEA080C 		eor	ip, ip, r8
 12821 147c 8EEAB25E 		eor	lr, lr, r2, ror #22
 12822 1480 E644     		add	lr, lr, ip
 12823 1482 4FEABA4C 		ror	ip, r10, #18
 12824 1486 8CEAFA1C 		eor	ip, ip, r10, ror #7
 12825 148a 0F9C     		ldr	r4, [sp, #60]
 12826 148c 8CEADA0C 		eor	ip, ip, r10, lsr #3
 12827 1490 E344     		add	fp, fp, ip
 12828 1492 A344     		add	fp, fp, r4
 12829 1494 149C     		ldr	r4, [sp, #80]
 12830 1496 4FEAB948 		ror	r8, r9, #18
 12831 149a 4FEAF44C 		ror	ip, r4, #19
 12832 149e 8CEA744C 		eor	ip, ip, r4, ror #17
 12833 14a2 8CEA942C 		eor	ip, ip, r4, lsr #10
 12834 14a6 0CEB0B04 		add	r4, ip, fp
ARM GAS  /tmp/ccxnUvyY.s 			page 226


 12835 14aa 88EAF918 		eor	r8, r8, r9, ror #7
 12836 14ae 1694     		str	r4, [sp, #88]
 12837 14b0 88EAD908 		eor	r8, r8, r9, lsr #3
 12838 14b4 109C     		ldr	r4, [sp, #64]
 12839 14b6 C244     		add	r10, r10, r8
 12840 14b8 A244     		add	r10, r10, r4
 12841 14ba 069C     		ldr	r4, [sp, #24]
 12842 14bc 1844     		add	r0, r0, r3
 12843 14be 4FEAF448 		ror	r8, r4, #19
 12844 14c2 88EA7448 		eor	r8, r8, r4, ror #17
 12845 14c6 88EA9428 		eor	r8, r8, r4, lsr #10
 12846 14ca 099C     		ldr	r4, [sp, #36]
 12847 14cc 7344     		add	r3, r3, lr
 12848 14ce 4FEAB44E 		ror	lr, r4, #18
 12849 14d2 8EEAF41E 		eor	lr, lr, r4, ror #7
 12850 14d6 8EEAD40E 		eor	lr, lr, r4, lsr #3
 12851 14da 119C     		ldr	r4, [sp, #68]
 12852 14dc F144     		add	r9, r9, lr
 12853 14de A144     		add	r9, r9, r4
 12854 14e0 169C     		ldr	r4, [sp, #88]
 12855 14e2 D044     		add	r8, r8, r10
 12856 14e4 4FEAF44E 		ror	lr, r4, #19
 12857 14e8 8EEA744E 		eor	lr, lr, r4, ror #17
 12858 14ec 8EEA942E 		eor	lr, lr, r4, lsr #10
 12859 14f0 0A9C     		ldr	r4, [sp, #40]
 12860 14f2 CE44     		add	lr, lr, r9
 12861 14f4 4FEAB44C 		ror	ip, r4, #18
 12862 14f8 8CEAF41C 		eor	ip, ip, r4, ror #7
 12863 14fc 8CEAD40C 		eor	ip, ip, r4, lsr #3
 12864 1500 099C     		ldr	r4, [sp, #36]
 12865 1502 4FEAFE4A 		ror	r10, lr, #19
 12866 1506 A444     		add	ip, ip, r4
 12867 1508 129C     		ldr	r4, [sp, #72]
 12868 150a 8AEA7E4A 		eor	r10, r10, lr, ror #17
 12869 150e 0CEB0409 		add	r9, ip, r4
 12870 1512 4FEAF84C 		ror	ip, r8, #19
 12871 1516 0B9C     		ldr	r4, [sp, #44]
 12872 1518 8CEA784C 		eor	ip, ip, r8, ror #17
 12873 151c 8CEA982C 		eor	ip, ip, r8, lsr #10
 12874 1520 CC44     		add	ip, ip, r9
 12875 1522 4FEAB449 		ror	r9, r4, #18
 12876 1526 89EAF419 		eor	r9, r9, r4, ror #7
 12877 152a 89EAD409 		eor	r9, r9, r4, lsr #3
 12878 152e 0A9C     		ldr	r4, [sp, #40]
 12879 1530 16E0     		b	.L91
 12880              	.L92:
 12881 1532 00BF     		.align	2
 12882              	.L90:
 12883 1534 BB0A6A76 		.word	1986661051
 12884 1538 2EC9C281 		.word	-2117940946
 12885 153c 852C7292 		.word	-1838011259
 12886 1540 4B661AA8 		.word	-1474664885
 12887 1544 708B4BC2 		.word	-1035236496
 12888 1548 A3516CC7 		.word	-949202525
 12889 154c 240699D6 		.word	-694614492
 12890 1550 85350EF4 		.word	-200395387
 12891 1554 70A06A10 		.word	275423344
ARM GAS  /tmp/ccxnUvyY.s 			page 227


 12892 1558 130D3853 		.word	1396182291
 12893 155c 54730A65 		.word	1695183700
 12894              	.L91:
 12895 1560 8AEA9E2A 		eor	r10, r10, lr, lsr #10
 12896 1564 A144     		add	r9, r9, r4
 12897 1566 139C     		ldr	r4, [sp, #76]
 12898 1568 A144     		add	r9, r9, r4
 12899 156a 0AEB0904 		add	r4, r10, r9
 12900 156e 0994     		str	r4, [sp, #36]
 12901 1570 0C9C     		ldr	r4, [sp, #48]
 12902 1572 4FEAFC4A 		ror	r10, ip, #19
 12903 1576 4FEAB449 		ror	r9, r4, #18
 12904 157a 89EAF419 		eor	r9, r9, r4, ror #7
 12905 157e 89EAD409 		eor	r9, r9, r4, lsr #3
 12906 1582 0B9C     		ldr	r4, [sp, #44]
 12907 1584 8AEA7C4A 		eor	r10, r10, ip, ror #17
 12908 1588 A144     		add	r9, r9, r4
 12909 158a 149C     		ldr	r4, [sp, #80]
 12910 158c 8AEA9C2A 		eor	r10, r10, ip, lsr #10
 12911 1590 A144     		add	r9, r9, r4
 12912 1592 0AEB0904 		add	r4, r10, r9
 12913 1596 0A94     		str	r4, [sp, #40]
 12914 1598 0D9C     		ldr	r4, [sp, #52]
 12915 159a 4FEAB449 		ror	r9, r4, #18
 12916 159e 89EAF419 		eor	r9, r9, r4, ror #7
 12917 15a2 89EAD409 		eor	r9, r9, r4, lsr #3
 12918 15a6 0C9C     		ldr	r4, [sp, #48]
 12919 15a8 A144     		add	r9, r9, r4
 12920 15aa 069C     		ldr	r4, [sp, #24]
 12921 15ac A144     		add	r9, r9, r4
 12922 15ae 099C     		ldr	r4, [sp, #36]
 12923 15b0 4FEAF44A 		ror	r10, r4, #19
 12924 15b4 8AEA744A 		eor	r10, r10, r4, ror #17
 12925 15b8 8AEA942A 		eor	r10, r10, r4, lsr #10
 12926 15bc 0AEB0904 		add	r4, r10, r9
 12927 15c0 0B94     		str	r4, [sp, #44]
 12928 15c2 0E9C     		ldr	r4, [sp, #56]
 12929 15c4 4FEAB449 		ror	r9, r4, #18
 12930 15c8 89EAF419 		eor	r9, r9, r4, ror #7
 12931 15cc 89EAD409 		eor	r9, r9, r4, lsr #3
 12932 15d0 0D9C     		ldr	r4, [sp, #52]
 12933 15d2 A144     		add	r9, r9, r4
 12934 15d4 169C     		ldr	r4, [sp, #88]
 12935 15d6 A144     		add	r9, r9, r4
 12936 15d8 0A9C     		ldr	r4, [sp, #40]
 12937 15da 4FEAF44A 		ror	r10, r4, #19
 12938 15de 8AEA744A 		eor	r10, r10, r4, ror #17
 12939 15e2 8AEA942A 		eor	r10, r10, r4, lsr #10
 12940 15e6 0AEB0904 		add	r4, r10, r9
 12941 15ea 0C94     		str	r4, [sp, #48]
 12942 15ec 0F9C     		ldr	r4, [sp, #60]
 12943 15ee 4FEAB449 		ror	r9, r4, #18
 12944 15f2 89EAF419 		eor	r9, r9, r4, ror #7
 12945 15f6 89EAD409 		eor	r9, r9, r4, lsr #3
 12946 15fa 0E9C     		ldr	r4, [sp, #56]
 12947 15fc A144     		add	r9, r9, r4
 12948 15fe 0B9C     		ldr	r4, [sp, #44]
ARM GAS  /tmp/ccxnUvyY.s 			page 228


 12949 1600 C144     		add	r9, r9, r8
 12950 1602 4FEAF44A 		ror	r10, r4, #19
 12951 1606 8AEA744A 		eor	r10, r10, r4, ror #17
 12952 160a 8AEA942A 		eor	r10, r10, r4, lsr #10
 12953 160e 0AEB0904 		add	r4, r10, r9
 12954 1612 0D94     		str	r4, [sp, #52]
 12955 1614 109C     		ldr	r4, [sp, #64]
 12956 1616 4FEAB449 		ror	r9, r4, #18
 12957 161a 89EAF419 		eor	r9, r9, r4, ror #7
 12958 161e 89EAD409 		eor	r9, r9, r4, lsr #3
 12959 1622 0F9C     		ldr	r4, [sp, #60]
 12960 1624 A144     		add	r9, r9, r4
 12961 1626 0C9C     		ldr	r4, [sp, #48]
 12962 1628 F144     		add	r9, r9, lr
 12963 162a 4FEAF44A 		ror	r10, r4, #19
 12964 162e 8AEA744A 		eor	r10, r10, r4, ror #17
 12965 1632 8AEA942A 		eor	r10, r10, r4, lsr #10
 12966 1636 0AEB0904 		add	r4, r10, r9
 12967 163a 0E94     		str	r4, [sp, #56]
 12968 163c 119C     		ldr	r4, [sp, #68]
 12969 163e 4FEAB449 		ror	r9, r4, #18
 12970 1642 89EAF419 		eor	r9, r9, r4, ror #7
 12971 1646 89EAD409 		eor	r9, r9, r4, lsr #3
 12972 164a 109C     		ldr	r4, [sp, #64]
 12973 164c A144     		add	r9, r9, r4
 12974 164e 0D9C     		ldr	r4, [sp, #52]
 12975 1650 E144     		add	r9, r9, ip
 12976 1652 4FEAF44A 		ror	r10, r4, #19
 12977 1656 8AEA744A 		eor	r10, r10, r4, ror #17
 12978 165a 8AEA942A 		eor	r10, r10, r4, lsr #10
 12979 165e 0AEB0904 		add	r4, r10, r9
 12980 1662 0F94     		str	r4, [sp, #60]
 12981 1664 129C     		ldr	r4, [sp, #72]
 12982 1666 4FEAB449 		ror	r9, r4, #18
 12983 166a 89EAF419 		eor	r9, r9, r4, ror #7
 12984 166e 89EAD409 		eor	r9, r9, r4, lsr #3
 12985 1672 119C     		ldr	r4, [sp, #68]
 12986 1674 A144     		add	r9, r9, r4
 12987 1676 099C     		ldr	r4, [sp, #36]
 12988 1678 A144     		add	r9, r9, r4
 12989 167a 0E9C     		ldr	r4, [sp, #56]
 12990 167c 4FEAF44A 		ror	r10, r4, #19
 12991 1680 8AEA744A 		eor	r10, r10, r4, ror #17
 12992 1684 8AEA942A 		eor	r10, r10, r4, lsr #10
 12993 1688 0AEB0904 		add	r4, r10, r9
 12994 168c 1094     		str	r4, [sp, #64]
 12995 168e 139C     		ldr	r4, [sp, #76]
 12996 1690 4FEAB449 		ror	r9, r4, #18
 12997 1694 89EAF419 		eor	r9, r9, r4, ror #7
 12998 1698 89EAD409 		eor	r9, r9, r4, lsr #3
 12999 169c 129C     		ldr	r4, [sp, #72]
 13000 169e A144     		add	r9, r9, r4
 13001 16a0 0A9C     		ldr	r4, [sp, #40]
 13002 16a2 A144     		add	r9, r9, r4
 13003 16a4 0F9C     		ldr	r4, [sp, #60]
 13004 16a6 4FEAF44A 		ror	r10, r4, #19
 13005 16aa 8AEA744A 		eor	r10, r10, r4, ror #17
ARM GAS  /tmp/ccxnUvyY.s 			page 229


 13006 16ae 8AEA942A 		eor	r10, r10, r4, lsr #10
 13007 16b2 0AEB0904 		add	r4, r10, r9
 13008 16b6 1194     		str	r4, [sp, #68]
 13009 16b8 149C     		ldr	r4, [sp, #80]
 13010 16ba 4FEAB449 		ror	r9, r4, #18
 13011 16be 89EAF419 		eor	r9, r9, r4, ror #7
 13012 16c2 89EAD409 		eor	r9, r9, r4, lsr #3
 13013 16c6 139C     		ldr	r4, [sp, #76]
 13014 16c8 A144     		add	r9, r9, r4
 13015 16ca 0B9C     		ldr	r4, [sp, #44]
 13016 16cc A144     		add	r9, r9, r4
 13017 16ce 109C     		ldr	r4, [sp, #64]
 13018 16d0 4FEAF44A 		ror	r10, r4, #19
 13019 16d4 8AEA744A 		eor	r10, r10, r4, ror #17
 13020 16d8 8AEA942A 		eor	r10, r10, r4, lsr #10
 13021 16dc 0AEB0904 		add	r4, r10, r9
 13022 16e0 4FEAF029 		ror	r9, r0, #11
 13023 16e4 89EAB019 		eor	r9, r9, r0, ror #6
 13024 16e8 1294     		str	r4, [sp, #72]
 13025 16ea 89EA706B 		eor	fp, r9, r0, ror #25
 13026 16ee 169C     		ldr	r4, [sp, #88]
 13027 16f0 DFF83094 		ldr	r9, .L93+56
 13028 16f4 A144     		add	r9, r9, r4
 13029 16f6 159C     		ldr	r4, [sp, #84]
 13030 16f8 B944     		add	r9, r9, r7
 13031 16fa 04EA000A 		and	r10, r4, r0
 13032 16fe 25EA0007 		bic	r7, r5, r0
 13033 1702 87EA0A07 		eor	r7, r7, r10
 13034 1706 D944     		add	r9, r9, fp
 13035 1708 B944     		add	r9, r9, r7
 13036 170a 4FEA733A 		ror	r10, r3, #13
 13037 170e 81EA0207 		eor	r7, r1, r2
 13038 1712 1F40     		ands	r7, r7, r3
 13039 1714 01EA020B 		and	fp, r1, r2
 13040 1718 8AEAB30A 		eor	r10, r10, r3, ror #2
 13041 171c 87EA0B0B 		eor	fp, r7, fp
 13042 1720 8AEAB35A 		eor	r10, r10, r3, ror #22
 13043 1724 4E44     		add	r6, r6, r9
 13044 1726 DA44     		add	r10, r10, fp
 13045 1728 F04F     		ldr	r7, .L93
 13046 172a D144     		add	r9, r9, r10
 13047 172c 4FEAF62A 		ror	r10, r6, #11
 13048 1730 4744     		add	r7, r7, r8
 13049 1732 8AEAB61A 		eor	r10, r10, r6, ror #6
 13050 1736 3D44     		add	r5, r5, r7
 13051 1738 8AEA766A 		eor	r10, r10, r6, ror #25
 13052 173c 00EA0607 		and	r7, r0, r6
 13053 1740 AA44     		add	r10, r10, r5
 13054 1742 24EA0605 		bic	r5, r4, r6
 13055 1746 82EA0308 		eor	r8, r2, r3
 13056 174a 7D40     		eors	r5, r5, r7
 13057 174c 4FEA7937 		ror	r7, r9, #13
 13058 1750 5544     		add	r5, r5, r10
 13059 1752 08EA0908 		and	r8, r8, r9
 13060 1756 02EA030A 		and	r10, r2, r3
 13061 175a 87EAB907 		eor	r7, r7, r9, ror #2
 13062 175e 88EA0A0A 		eor	r10, r8, r10
ARM GAS  /tmp/ccxnUvyY.s 			page 230


 13063 1762 87EAB957 		eor	r7, r7, r9, ror #22
 13064 1766 5744     		add	r7, r7, r10
 13065 1768 2944     		add	r1, r1, r5
 13066 176a 3D44     		add	r5, r5, r7
 13067 176c E04F     		ldr	r7, .L93+4
 13068 176e 4FEAF128 		ror	r8, r1, #11
 13069 1772 7744     		add	r7, r7, lr
 13070 1774 88EAB118 		eor	r8, r8, r1, ror #6
 13071 1778 3C44     		add	r4, r4, r7
 13072 177a 88EA7168 		eor	r8, r8, r1, ror #25
 13073 177e 06EA0107 		and	r7, r6, r1
 13074 1782 A044     		add	r8, r8, r4
 13075 1784 20EA0104 		bic	r4, r0, r1
 13076 1788 83EA090E 		eor	lr, r3, r9
 13077 178c 7C40     		eors	r4, r4, r7
 13078 178e 4FEA7537 		ror	r7, r5, #13
 13079 1792 4444     		add	r4, r4, r8
 13080 1794 0EEA050E 		and	lr, lr, r5
 13081 1798 03EA0908 		and	r8, r3, r9
 13082 179c 87EAB507 		eor	r7, r7, r5, ror #2
 13083 17a0 8EEA0808 		eor	r8, lr, r8
 13084 17a4 87EAB557 		eor	r7, r7, r5, ror #22
 13085 17a8 4744     		add	r7, r7, r8
 13086 17aa 2244     		add	r2, r2, r4
 13087 17ac 3C44     		add	r4, r4, r7
 13088 17ae D14F     		ldr	r7, .L93+8
 13089 17b0 4FEAF22E 		ror	lr, r2, #11
 13090 17b4 6744     		add	r7, r7, ip
 13091 17b6 8EEAB21E 		eor	lr, lr, r2, ror #6
 13092 17ba 3844     		add	r0, r0, r7
 13093 17bc 8EEA726E 		eor	lr, lr, r2, ror #25
 13094 17c0 01EA0207 		and	r7, r1, r2
 13095 17c4 8644     		add	lr, lr, r0
 13096 17c6 26EA0200 		bic	r0, r6, r2
 13097 17ca 89EA050C 		eor	ip, r9, r5
 13098 17ce 7840     		eors	r0, r0, r7
 13099 17d0 4FEA7437 		ror	r7, r4, #13
 13100 17d4 7044     		add	r0, r0, lr
 13101 17d6 0CEA040C 		and	ip, ip, r4
 13102 17da 09EA050E 		and	lr, r9, r5
 13103 17de 87EAB407 		eor	r7, r7, r4, ror #2
 13104 17e2 8CEA0E0E 		eor	lr, ip, lr
 13105 17e6 87EAB457 		eor	r7, r7, r4, ror #22
 13106 17ea 7744     		add	r7, r7, lr
 13107 17ec 03EB000A 		add	r10, r3, r0
 13108 17f0 3844     		add	r0, r0, r7
 13109 17f2 099B     		ldr	r3, [sp, #36]
 13110 17f4 C04F     		ldr	r7, .L93+12
 13111 17f6 4FEAFA2C 		ror	ip, r10, #11
 13112 17fa 1F44     		add	r7, r7, r3
 13113 17fc 8CEABA1C 		eor	ip, ip, r10, ror #6
 13114 1800 8CEA7A6C 		eor	ip, ip, r10, ror #25
 13115 1804 3E44     		add	r6, r6, r7
 13116 1806 6644     		add	r6, r6, ip
 13117 1808 21EA0A07 		bic	r7, r1, r10
 13118 180c 02EA0A0C 		and	ip, r2, r10
 13119 1810 87EA0C07 		eor	r7, r7, ip
ARM GAS  /tmp/ccxnUvyY.s 			page 231


 13120 1814 3E44     		add	r6, r6, r7
 13121 1816 85EA0408 		eor	r8, r5, r4
 13122 181a 4FEA7037 		ror	r7, r0, #13
 13123 181e 08EA0008 		and	r8, r8, r0
 13124 1822 05EA040C 		and	ip, r5, r4
 13125 1826 87EAB007 		eor	r7, r7, r0, ror #2
 13126 182a 88EA0C0C 		eor	ip, r8, ip
 13127 182e 87EAB057 		eor	r7, r7, r0, ror #22
 13128 1832 6744     		add	r7, r7, ip
 13129 1834 B144     		add	r9, r9, r6
 13130 1836 0A9B     		ldr	r3, [sp, #40]
 13131 1838 3E44     		add	r6, r6, r7
 13132 183a B04F     		ldr	r7, .L93+16
 13133 183c 4FEAF92C 		ror	ip, r9, #11
 13134 1840 1F44     		add	r7, r7, r3
 13135 1842 8CEAB91C 		eor	ip, ip, r9, ror #6
 13136 1846 8CEA796C 		eor	ip, ip, r9, ror #25
 13137 184a 3944     		add	r1, r1, r7
 13138 184c 6144     		add	r1, r1, ip
 13139 184e 22EA0907 		bic	r7, r2, r9
 13140 1852 0AEA090C 		and	ip, r10, r9
 13141 1856 87EA0C07 		eor	r7, r7, ip
 13142 185a 3944     		add	r1, r1, r7
 13143 185c 84EA000E 		eor	lr, r4, r0
 13144 1860 4FEA7637 		ror	r7, r6, #13
 13145 1864 0EEA060E 		and	lr, lr, r6
 13146 1868 04EA000C 		and	ip, r4, r0
 13147 186c 87EAB607 		eor	r7, r7, r6, ror #2
 13148 1870 8EEA0C0C 		eor	ip, lr, ip
 13149 1874 87EAB657 		eor	r7, r7, r6, ror #22
 13150 1878 6744     		add	r7, r7, ip
 13151 187a 0D44     		add	r5, r5, r1
 13152 187c 0B9B     		ldr	r3, [sp, #44]
 13153 187e 3944     		add	r1, r1, r7
 13154 1880 9F4F     		ldr	r7, .L93+20
 13155 1882 4FEAF52C 		ror	ip, r5, #11
 13156 1886 1F44     		add	r7, r7, r3
 13157 1888 8CEAB51C 		eor	ip, ip, r5, ror #6
 13158 188c 8CEA756C 		eor	ip, ip, r5, ror #25
 13159 1890 3A44     		add	r2, r2, r7
 13160 1892 6244     		add	r2, r2, ip
 13161 1894 2AEA0507 		bic	r7, r10, r5
 13162 1898 09EA050C 		and	ip, r9, r5
 13163 189c 87EA0C07 		eor	r7, r7, ip
 13164 18a0 3A44     		add	r2, r2, r7
 13165 18a2 4FEA713C 		ror	ip, r1, #13
 13166 18a6 80EA0607 		eor	r7, r0, r6
 13167 18aa 00EA060E 		and	lr, r0, r6
 13168 18ae 8CEAB10C 		eor	ip, ip, r1, ror #2
 13169 18b2 0F40     		ands	r7, r7, r1
 13170 18b4 87EA0E07 		eor	r7, r7, lr
 13171 18b8 8CEAB15C 		eor	ip, ip, r1, ror #22
 13172 18bc 1444     		add	r4, r4, r2
 13173 18be 0C9B     		ldr	r3, [sp, #48]
 13174 18c0 BC44     		add	ip, ip, r7
 13175 18c2 904F     		ldr	r7, .L93+24
 13176 18c4 6244     		add	r2, r2, ip
ARM GAS  /tmp/ccxnUvyY.s 			page 232


 13177 18c6 4FEAF42C 		ror	ip, r4, #11
 13178 18ca 8CEAB41C 		eor	ip, ip, r4, ror #6
 13179 18ce 1F44     		add	r7, r7, r3
 13180 18d0 8CEA746C 		eor	ip, ip, r4, ror #25
 13181 18d4 0AEB0703 		add	r3, r10, r7
 13182 18d8 6344     		add	r3, r3, ip
 13183 18da 29EA0407 		bic	r7, r9, r4
 13184 18de 05EA040C 		and	ip, r5, r4
 13185 18e2 87EA0C07 		eor	r7, r7, ip
 13186 18e6 3B44     		add	r3, r3, r7
 13187 18e8 4FEA723C 		ror	ip, r2, #13
 13188 18ec 86EA0107 		eor	r7, r6, r1
 13189 18f0 06EA010E 		and	lr, r6, r1
 13190 18f4 8CEAB20C 		eor	ip, ip, r2, ror #2
 13191 18f8 1740     		ands	r7, r7, r2
 13192 18fa 87EA0E07 		eor	r7, r7, lr
 13193 18fe 8CEAB25C 		eor	ip, ip, r2, ror #22
 13194 1902 00EB030B 		add	fp, r0, r3
 13195 1906 BC44     		add	ip, ip, r7
 13196 1908 0D98     		ldr	r0, [sp, #52]
 13197 190a 7F4F     		ldr	r7, .L93+28
 13198 190c 6344     		add	r3, r3, ip
 13199 190e 4FEAFB2C 		ror	ip, fp, #11
 13200 1912 0744     		add	r7, r7, r0
 13201 1914 8CEABB1C 		eor	ip, ip, fp, ror #6
 13202 1918 8CEA7B6C 		eor	ip, ip, fp, ror #25
 13203 191c B944     		add	r9, r9, r7
 13204 191e E144     		add	r9, r9, ip
 13205 1920 25EA0B07 		bic	r7, r5, fp
 13206 1924 04EA0B0C 		and	ip, r4, fp
 13207 1928 87EA0C07 		eor	r7, r7, ip
 13208 192c B944     		add	r9, r9, r7
 13209 192e 81EA020A 		eor	r10, r1, r2
 13210 1932 4FEA7337 		ror	r7, r3, #13
 13211 1936 0AEA030A 		and	r10, r10, r3
 13212 193a 01EA020C 		and	ip, r1, r2
 13213 193e 87EAB307 		eor	r7, r7, r3, ror #2
 13214 1942 8AEA0C0C 		eor	ip, r10, ip
 13215 1946 87EAB357 		eor	r7, r7, r3, ror #22
 13216 194a 6744     		add	r7, r7, ip
 13217 194c 4E44     		add	r6, r6, r9
 13218 194e 0E98     		ldr	r0, [sp, #56]
 13219 1950 B944     		add	r9, r9, r7
 13220 1952 6E4F     		ldr	r7, .L93+32
 13221 1954 4FEAF62C 		ror	ip, r6, #11
 13222 1958 0744     		add	r7, r7, r0
 13223 195a 8CEAB61C 		eor	ip, ip, r6, ror #6
 13224 195e 8CEA766C 		eor	ip, ip, r6, ror #25
 13225 1962 3D44     		add	r5, r5, r7
 13226 1964 6544     		add	r5, r5, ip
 13227 1966 24EA0607 		bic	r7, r4, r6
 13228 196a 0BEA060C 		and	ip, fp, r6
 13229 196e 87EA0C07 		eor	r7, r7, ip
 13230 1972 3D44     		add	r5, r5, r7
 13231 1974 82EA030E 		eor	lr, r2, r3
 13232 1978 4FEA7937 		ror	r7, r9, #13
 13233 197c 0EEA090E 		and	lr, lr, r9
ARM GAS  /tmp/ccxnUvyY.s 			page 233


 13234 1980 02EA030C 		and	ip, r2, r3
 13235 1984 87EAB907 		eor	r7, r7, r9, ror #2
 13236 1988 8EEA0C0C 		eor	ip, lr, ip
 13237 198c 87EAB957 		eor	r7, r7, r9, ror #22
 13238 1990 6744     		add	r7, r7, ip
 13239 1992 2944     		add	r1, r1, r5
 13240 1994 0F98     		ldr	r0, [sp, #60]
 13241 1996 3D44     		add	r5, r5, r7
 13242 1998 5D4F     		ldr	r7, .L93+36
 13243 199a 4FEAF12C 		ror	ip, r1, #11
 13244 199e 0744     		add	r7, r7, r0
 13245 19a0 8CEAB11C 		eor	ip, ip, r1, ror #6
 13246 19a4 8CEA716C 		eor	ip, ip, r1, ror #25
 13247 19a8 3C44     		add	r4, r4, r7
 13248 19aa 6444     		add	r4, r4, ip
 13249 19ac 2BEA0107 		bic	r7, fp, r1
 13250 19b0 06EA010C 		and	ip, r6, r1
 13251 19b4 87EA0C07 		eor	r7, r7, ip
 13252 19b8 3C44     		add	r4, r4, r7
 13253 19ba 83EA0908 		eor	r8, r3, r9
 13254 19be 4FEA7537 		ror	r7, r5, #13
 13255 19c2 08EA0508 		and	r8, r8, r5
 13256 19c6 03EA090C 		and	ip, r3, r9
 13257 19ca 87EAB507 		eor	r7, r7, r5, ror #2
 13258 19ce 88EA0C0C 		eor	ip, r8, ip
 13259 19d2 87EAB557 		eor	r7, r7, r5, ror #22
 13260 19d6 6744     		add	r7, r7, ip
 13261 19d8 2244     		add	r2, r2, r4
 13262 19da 1098     		ldr	r0, [sp, #64]
 13263 19dc 3C44     		add	r4, r4, r7
 13264 19de 4D4F     		ldr	r7, .L93+40
 13265 19e0 4FEAF22C 		ror	ip, r2, #11
 13266 19e4 8CEAB21C 		eor	ip, ip, r2, ror #6
 13267 19e8 0744     		add	r7, r7, r0
 13268 19ea 8CEA726C 		eor	ip, ip, r2, ror #25
 13269 19ee 0BEB0700 		add	r0, fp, r7
 13270 19f2 6044     		add	r0, r0, ip
 13271 19f4 26EA0207 		bic	r7, r6, r2
 13272 19f8 01EA020C 		and	ip, r1, r2
 13273 19fc 87EA0C07 		eor	r7, r7, ip
 13274 1a00 3844     		add	r0, r0, r7
 13275 1a02 4FEA743C 		ror	ip, r4, #13
 13276 1a06 89EA0507 		eor	r7, r9, r5
 13277 1a0a 09EA050E 		and	lr, r9, r5
 13278 1a0e 8CEAB40C 		eor	ip, ip, r4, ror #2
 13279 1a12 2740     		ands	r7, r7, r4
 13280 1a14 87EA0E07 		eor	r7, r7, lr
 13281 1a18 8CEAB45C 		eor	ip, ip, r4, ror #22
 13282 1a1c 03EB0008 		add	r8, r3, r0
 13283 1a20 BC44     		add	ip, ip, r7
 13284 1a22 119B     		ldr	r3, [sp, #68]
 13285 1a24 3C4F     		ldr	r7, .L93+44
 13286 1a26 6044     		add	r0, r0, ip
 13287 1a28 4FEAF82C 		ror	ip, r8, #11
 13288 1a2c 1F44     		add	r7, r7, r3
 13289 1a2e 8CEAB81C 		eor	ip, ip, r8, ror #6
 13290 1a32 8CEA786C 		eor	ip, ip, r8, ror #25
ARM GAS  /tmp/ccxnUvyY.s 			page 234


 13291 1a36 3E44     		add	r6, r6, r7
 13292 1a38 6644     		add	r6, r6, ip
 13293 1a3a 21EA0807 		bic	r7, r1, r8
 13294 1a3e 02EA080C 		and	ip, r2, r8
 13295 1a42 87EA0C07 		eor	r7, r7, ip
 13296 1a46 3E44     		add	r6, r6, r7
 13297 1a48 4FEA703C 		ror	ip, r0, #13
 13298 1a4c 85EA0407 		eor	r7, r5, r4
 13299 1a50 05EA040E 		and	lr, r5, r4
 13300 1a54 8CEAB00C 		eor	ip, ip, r0, ror #2
 13301 1a58 0740     		ands	r7, r7, r0
 13302 1a5a 87EA0E07 		eor	r7, r7, lr
 13303 1a5e 8CEAB05C 		eor	ip, ip, r0, ror #22
 13304 1a62 B144     		add	r9, r9, r6
 13305 1a64 129B     		ldr	r3, [sp, #72]
 13306 1a66 BC44     		add	ip, ip, r7
 13307 1a68 2C4F     		ldr	r7, .L93+48
 13308 1a6a 6644     		add	r6, r6, ip
 13309 1a6c 4FEAF92C 		ror	ip, r9, #11
 13310 1a70 1F44     		add	r7, r7, r3
 13311 1a72 8CEAB91C 		eor	ip, ip, r9, ror #6
 13312 1a76 8CEA796C 		eor	ip, ip, r9, ror #25
 13313 1a7a 3944     		add	r1, r1, r7
 13314 1a7c 6144     		add	r1, r1, ip
 13315 1a7e 22EA0907 		bic	r7, r2, r9
 13316 1a82 08EA090C 		and	ip, r8, r9
 13317 1a86 87EA0C07 		eor	r7, r7, ip
 13318 1a8a 069B     		ldr	r3, [sp, #24]
 13319 1a8c 3944     		add	r1, r1, r7
 13320 1a8e 84EA000E 		eor	lr, r4, r0
 13321 1a92 4FEA7637 		ror	r7, r6, #13
 13322 1a96 04EA000C 		and	ip, r4, r0
 13323 1a9a 0EEA060E 		and	lr, lr, r6
 13324 1a9e 87EAB607 		eor	r7, r7, r6, ror #2
 13325 1aa2 8EEA0C0C 		eor	ip, lr, ip
 13326 1aa6 4FEAB34A 		ror	r10, r3, #18
 13327 1aaa 87EAB657 		eor	r7, r7, r6, ror #22
 13328 1aae 6744     		add	r7, r7, ip
 13329 1ab0 8AEAF31A 		eor	r10, r10, r3, ror #7
 13330 1ab4 0D44     		add	r5, r5, r1
 13331 1ab6 8AEAD30A 		eor	r10, r10, r3, lsr #3
 13332 1aba 3944     		add	r1, r1, r7
 13333 1abc 149B     		ldr	r3, [sp, #80]
 13334 1abe 184F     		ldr	r7, .L93+52
 13335 1ac0 4FEAF52C 		ror	ip, r5, #11
 13336 1ac4 1F44     		add	r7, r7, r3
 13337 1ac6 0C9B     		ldr	r3, [sp, #48]
 13338 1ac8 BA44     		add	r10, r10, r7
 13339 1aca 9A44     		add	r10, r10, r3
 13340 1acc 119B     		ldr	r3, [sp, #68]
 13341 1ace 8CEAB51C 		eor	ip, ip, r5, ror #6
 13342 1ad2 4FEAF347 		ror	r7, r3, #19
 13343 1ad6 87EA7347 		eor	r7, r7, r3, ror #17
 13344 1ada 87EA9327 		eor	r7, r7, r3, lsr #10
 13345 1ade 5744     		add	r7, r7, r10
 13346 1ae0 3A44     		add	r2, r2, r7
 13347 1ae2 8CEA756C 		eor	ip, ip, r5, ror #25
ARM GAS  /tmp/ccxnUvyY.s 			page 235


 13348 1ae6 6244     		add	r2, r2, ip
 13349 1ae8 1EE0     		b	.L94
 13350              	.L95:
 13351 1aea 00BF     		.align	2
 13352              	.L93:
 13353 1aec 086C371E 		.word	506948616
 13354 1af0 4C774827 		.word	659060556
 13355 1af4 B5BCB034 		.word	883997877
 13356 1af8 B30C1C39 		.word	958139571
 13357 1afc 4AAAD84E 		.word	1322822218
 13358 1b00 4FCA9C5B 		.word	1537002063
 13359 1b04 F36F2E68 		.word	1747873779
 13360 1b08 EE828F74 		.word	1955562222
 13361 1b0c 6F63A578 		.word	2024104815
 13362 1b10 1478C884 		.word	-2067236844
 13363 1b14 0802C78C 		.word	-1933114872
 13364 1b18 FAFFBE90 		.word	-1866530822
 13365 1b1c EB6C50A4 		.word	-1538233109
 13366 1b20 F7A3F9BE 		.word	-1090935817
 13367 1b24 16C1A419 		.word	430227734
 13368              	.L94:
 13369 1b28 28EA0507 		bic	r7, r8, r5
 13370 1b2c 09EA050C 		and	ip, r9, r5
 13371 1b30 87EA0C07 		eor	r7, r7, ip
 13372 1b34 169B     		ldr	r3, [sp, #88]
 13373 1b36 3A44     		add	r2, r2, r7
 13374 1b38 4FEA713C 		ror	ip, r1, #13
 13375 1b3c 80EA0607 		eor	r7, r0, r6
 13376 1b40 00EA060E 		and	lr, r0, r6
 13377 1b44 8CEAB10C 		eor	ip, ip, r1, ror #2
 13378 1b48 0F40     		ands	r7, r7, r1
 13379 1b4a 8CEAB15C 		eor	ip, ip, r1, ror #22
 13380 1b4e 87EA0E07 		eor	r7, r7, lr
 13381 1b52 4FEAB34B 		ror	fp, r3, #18
 13382 1b56 6744     		add	r7, r7, ip
 13383 1b58 8BEAF31B 		eor	fp, fp, r3, ror #7
 13384 1b5c 1444     		add	r4, r4, r2
 13385 1b5e 1744     		add	r7, r7, r2
 13386 1b60 8BEAD30B 		eor	fp, fp, r3, lsr #3
 13387 1b64 264A     		ldr	r2, .L96
 13388 1b66 069B     		ldr	r3, [sp, #24]
 13389 1b68 4FEAF42C 		ror	ip, r4, #11
 13390 1b6c 1A44     		add	r2, r2, r3
 13391 1b6e 0D9B     		ldr	r3, [sp, #52]
 13392 1b70 9344     		add	fp, fp, r2
 13393 1b72 0BEB030A 		add	r10, fp, r3
 13394 1b76 129B     		ldr	r3, [sp, #72]
 13395 1b78 8CEAB41C 		eor	ip, ip, r4, ror #6
 13396 1b7c 4FEAF342 		ror	r2, r3, #19
 13397 1b80 82EA7342 		eor	r2, r2, r3, ror #17
 13398 1b84 82EA9322 		eor	r2, r2, r3, lsr #10
 13399 1b88 5244     		add	r2, r2, r10
 13400 1b8a 08EB0203 		add	r3, r8, r2
 13401 1b8e 8CEA746C 		eor	ip, ip, r4, ror #25
 13402 1b92 6344     		add	r3, r3, ip
 13403 1b94 29EA0402 		bic	r2, r9, r4
 13404 1b98 05EA040C 		and	ip, r5, r4
ARM GAS  /tmp/ccxnUvyY.s 			page 236


 13405 1b9c 82EA0C02 		eor	r2, r2, ip
 13406 1ba0 1344     		add	r3, r3, r2
 13407 1ba2 86EA010C 		eor	ip, r6, r1
 13408 1ba6 4FEA7732 		ror	r2, r7, #13
 13409 1baa 82EAB702 		eor	r2, r2, r7, ror #2
 13410 1bae 0CEA070C 		and	ip, ip, r7
 13411 1bb2 06EA010E 		and	lr, r6, r1
 13412 1bb6 82EAB752 		eor	r2, r2, r7, ror #22
 13413 1bba 8CEA0E0C 		eor	ip, ip, lr
 13414 1bbe 9444     		add	ip, ip, r2
 13415 1bc0 039A     		ldr	r2, [sp, #12]
 13416 1bc2 1844     		add	r0, r0, r3
 13417 1bc4 9444     		add	ip, ip, r2
 13418 1bc6 6344     		add	r3, r3, ip
 13419 1bc8 0393     		str	r3, [sp, #12]
 13420 1bca 059B     		ldr	r3, [sp, #20]
 13421 1bcc 3B44     		add	r3, r3, r7
 13422 1bce 0593     		str	r3, [sp, #20]
 13423 1bd0 089B     		ldr	r3, [sp, #32]
 13424 1bd2 0B44     		add	r3, r3, r1
 13425 1bd4 0893     		str	r3, [sp, #32]
 13426 1bd6 1A9B     		ldr	r3, [sp, #104]
 13427 1bd8 3344     		add	r3, r3, r6
 13428 1bda 1A93     		str	r3, [sp, #104]
 13429 1bdc 049B     		ldr	r3, [sp, #16]
 13430 1bde 0344     		add	r3, r3, r0
 13431 1be0 0493     		str	r3, [sp, #16]
 13432 1be2 079B     		ldr	r3, [sp, #28]
 13433 1be4 2344     		add	r3, r3, r4
 13434 1be6 0793     		str	r3, [sp, #28]
 13435 1be8 179B     		ldr	r3, [sp, #92]
 13436 1bea 2B44     		add	r3, r3, r5
 13437 1bec 1793     		str	r3, [sp, #92]
 13438 1bee 199B     		ldr	r3, [sp, #100]
 13439 1bf0 4B44     		add	r3, r3, r9
 13440 1bf2 1993     		str	r3, [sp, #100]
 13441 1bf4 029B     		ldr	r3, [sp, #8]
 13442 1bf6 4033     		adds	r3, r3, #64
 13443 1bf8 0293     		str	r3, [sp, #8]
 13444 1bfa FEF731BA 		b	.L76
 13445              	.L97:
 13446 1bfe 00BF     		.align	2
 13447              	.L96:
 13448 1c00 F27871C6 		.word	-965641998
 13450              		.section	.text.sha224_inc_init,"ax",%progbits
 13451              		.align	1
 13452              		.global	sha224_inc_init
 13453              		.syntax unified
 13454              		.thumb
 13455              		.thumb_func
 13456              		.fpu fpv4-sp-d16
 13458              	sha224_inc_init:
 13459              		@ args = 0, pretend = 0, frame = 0
 13460              		@ frame_needed = 0, uses_anonymous_args = 0
 13461 0000 10B5     		push	{r4, lr}
 13462 0002 0446     		mov	r4, r0
 13463 0004 2820     		movs	r0, #40
ARM GAS  /tmp/ccxnUvyY.s 			page 237


 13464 0006 FFF7FEFF 		bl	malloc
 13465 000a 2060     		str	r0, [r4]
 13466 000c 10B9     		cbnz	r0, .L99
 13467 000e 6F20     		movs	r0, #111
 13468 0010 FFF7FEFF 		bl	exit
 13469              	.L99:
 13470 0014 0023     		movs	r3, #0
 13471 0016 074A     		ldr	r2, .L104
 13472              	.L100:
 13473 0018 12F8010B 		ldrb	r0, [r2], #1	@ zero_extendqisi2
 13474 001c 2168     		ldr	r1, [r4]
 13475 001e C854     		strb	r0, [r1, r3]
 13476 0020 0133     		adds	r3, r3, #1
 13477 0022 202B     		cmp	r3, #32
 13478 0024 F8D1     		bne	.L100
 13479 0026 0021     		movs	r1, #0
 13480              	.L101:
 13481 0028 2268     		ldr	r2, [r4]
 13482 002a D154     		strb	r1, [r2, r3]
 13483 002c 0133     		adds	r3, r3, #1
 13484 002e 282B     		cmp	r3, #40
 13485 0030 FAD1     		bne	.L101
 13486 0032 10BD     		pop	{r4, pc}
 13487              	.L105:
 13488              		.align	2
 13489              	.L104:
 13490 0034 00000000 		.word	.LANCHOR0
 13492              		.section	.text.sha256_inc_init,"ax",%progbits
 13493              		.align	1
 13494              		.global	sha256_inc_init
 13495              		.syntax unified
 13496              		.thumb
 13497              		.thumb_func
 13498              		.fpu fpv4-sp-d16
 13500              	sha256_inc_init:
 13501              		@ args = 0, pretend = 0, frame = 0
 13502              		@ frame_needed = 0, uses_anonymous_args = 0
 13503 0000 10B5     		push	{r4, lr}
 13504 0002 0446     		mov	r4, r0
 13505 0004 2820     		movs	r0, #40
 13506 0006 FFF7FEFF 		bl	malloc
 13507 000a 2060     		str	r0, [r4]
 13508 000c 10B9     		cbnz	r0, .L107
 13509 000e 6F20     		movs	r0, #111
 13510 0010 FFF7FEFF 		bl	exit
 13511              	.L107:
 13512 0014 0023     		movs	r3, #0
 13513 0016 074A     		ldr	r2, .L112
 13514              	.L108:
 13515 0018 12F8010B 		ldrb	r0, [r2], #1	@ zero_extendqisi2
 13516 001c 2168     		ldr	r1, [r4]
 13517 001e C854     		strb	r0, [r1, r3]
 13518 0020 0133     		adds	r3, r3, #1
 13519 0022 202B     		cmp	r3, #32
 13520 0024 F8D1     		bne	.L108
 13521 0026 0021     		movs	r1, #0
 13522              	.L109:
ARM GAS  /tmp/ccxnUvyY.s 			page 238


 13523 0028 2268     		ldr	r2, [r4]
 13524 002a D154     		strb	r1, [r2, r3]
 13525 002c 0133     		adds	r3, r3, #1
 13526 002e 282B     		cmp	r3, #40
 13527 0030 FAD1     		bne	.L109
 13528 0032 10BD     		pop	{r4, pc}
 13529              	.L113:
 13530              		.align	2
 13531              	.L112:
 13532 0034 00000000 		.word	.LANCHOR1
 13534              		.section	.text.sha384_inc_init,"ax",%progbits
 13535              		.align	1
 13536              		.global	sha384_inc_init
 13537              		.syntax unified
 13538              		.thumb
 13539              		.thumb_func
 13540              		.fpu fpv4-sp-d16
 13542              	sha384_inc_init:
 13543              		@ args = 0, pretend = 0, frame = 0
 13544              		@ frame_needed = 0, uses_anonymous_args = 0
 13545 0000 10B5     		push	{r4, lr}
 13546 0002 0446     		mov	r4, r0
 13547 0004 4820     		movs	r0, #72
 13548 0006 FFF7FEFF 		bl	malloc
 13549 000a 2060     		str	r0, [r4]
 13550 000c 10B9     		cbnz	r0, .L115
 13551 000e 6F20     		movs	r0, #111
 13552 0010 FFF7FEFF 		bl	exit
 13553              	.L115:
 13554 0014 0023     		movs	r3, #0
 13555 0016 074A     		ldr	r2, .L120
 13556              	.L116:
 13557 0018 12F8010B 		ldrb	r0, [r2], #1	@ zero_extendqisi2
 13558 001c 2168     		ldr	r1, [r4]
 13559 001e C854     		strb	r0, [r1, r3]
 13560 0020 0133     		adds	r3, r3, #1
 13561 0022 402B     		cmp	r3, #64
 13562 0024 F8D1     		bne	.L116
 13563 0026 0021     		movs	r1, #0
 13564              	.L117:
 13565 0028 2268     		ldr	r2, [r4]
 13566 002a D154     		strb	r1, [r2, r3]
 13567 002c 0133     		adds	r3, r3, #1
 13568 002e 482B     		cmp	r3, #72
 13569 0030 FAD1     		bne	.L117
 13570 0032 10BD     		pop	{r4, pc}
 13571              	.L121:
 13572              		.align	2
 13573              	.L120:
 13574 0034 00000000 		.word	.LANCHOR2
 13576              		.section	.text.sha512_inc_init,"ax",%progbits
 13577              		.align	1
 13578              		.global	sha512_inc_init
 13579              		.syntax unified
 13580              		.thumb
 13581              		.thumb_func
 13582              		.fpu fpv4-sp-d16
ARM GAS  /tmp/ccxnUvyY.s 			page 239


 13584              	sha512_inc_init:
 13585              		@ args = 0, pretend = 0, frame = 0
 13586              		@ frame_needed = 0, uses_anonymous_args = 0
 13587 0000 10B5     		push	{r4, lr}
 13588 0002 0446     		mov	r4, r0
 13589 0004 4820     		movs	r0, #72
 13590 0006 FFF7FEFF 		bl	malloc
 13591 000a 2060     		str	r0, [r4]
 13592 000c 10B9     		cbnz	r0, .L123
 13593 000e 6F20     		movs	r0, #111
 13594 0010 FFF7FEFF 		bl	exit
 13595              	.L123:
 13596 0014 0023     		movs	r3, #0
 13597 0016 074A     		ldr	r2, .L128
 13598              	.L124:
 13599 0018 12F8010B 		ldrb	r0, [r2], #1	@ zero_extendqisi2
 13600 001c 2168     		ldr	r1, [r4]
 13601 001e C854     		strb	r0, [r1, r3]
 13602 0020 0133     		adds	r3, r3, #1
 13603 0022 402B     		cmp	r3, #64
 13604 0024 F8D1     		bne	.L124
 13605 0026 0021     		movs	r1, #0
 13606              	.L125:
 13607 0028 2268     		ldr	r2, [r4]
 13608 002a D154     		strb	r1, [r2, r3]
 13609 002c 0133     		adds	r3, r3, #1
 13610 002e 482B     		cmp	r3, #72
 13611 0030 FAD1     		bne	.L125
 13612 0032 10BD     		pop	{r4, pc}
 13613              	.L129:
 13614              		.align	2
 13615              	.L128:
 13616 0034 00000000 		.word	.LANCHOR3
 13618              		.section	.text.sha224_inc_ctx_clone,"ax",%progbits
 13619              		.align	1
 13620              		.global	sha224_inc_ctx_clone
 13621              		.syntax unified
 13622              		.thumb
 13623              		.thumb_func
 13624              		.fpu fpv4-sp-d16
 13626              	sha224_inc_ctx_clone:
 13627              		@ args = 0, pretend = 0, frame = 0
 13628              		@ frame_needed = 0, uses_anonymous_args = 0
 13629 0000 38B5     		push	{r3, r4, r5, lr}
 13630 0002 0546     		mov	r5, r0
 13631 0004 2820     		movs	r0, #40
 13632 0006 0C46     		mov	r4, r1
 13633 0008 FFF7FEFF 		bl	malloc
 13634 000c 0346     		mov	r3, r0
 13635 000e 2860     		str	r0, [r5]
 13636 0010 10B9     		cbnz	r0, .L131
 13637 0012 6F20     		movs	r0, #111
 13638 0014 FFF7FEFF 		bl	exit
 13639              	.L131:
 13640 0018 2268     		ldr	r2, [r4]
 13641 001a 02F12805 		add	r5, r2, #40
 13642              	.L132:
ARM GAS  /tmp/ccxnUvyY.s 			page 240


 13643 001e 1C46     		mov	r4, r3
 13644 0020 1068     		ldr	r0, [r2]	@ unaligned
 13645 0022 5168     		ldr	r1, [r2, #4]	@ unaligned
 13646 0024 0832     		adds	r2, r2, #8
 13647 0026 03C4     		stmia	r4!, {r0, r1}
 13648 0028 AA42     		cmp	r2, r5
 13649 002a 2346     		mov	r3, r4
 13650 002c F7D1     		bne	.L132
 13651 002e 38BD     		pop	{r3, r4, r5, pc}
 13653              		.section	.text.sha256_inc_ctx_clone,"ax",%progbits
 13654              		.align	1
 13655              		.global	sha256_inc_ctx_clone
 13656              		.syntax unified
 13657              		.thumb
 13658              		.thumb_func
 13659              		.fpu fpv4-sp-d16
 13661              	sha256_inc_ctx_clone:
 13662              		@ args = 0, pretend = 0, frame = 0
 13663              		@ frame_needed = 0, uses_anonymous_args = 0
 13664 0000 38B5     		push	{r3, r4, r5, lr}
 13665 0002 0546     		mov	r5, r0
 13666 0004 2820     		movs	r0, #40
 13667 0006 0C46     		mov	r4, r1
 13668 0008 FFF7FEFF 		bl	malloc
 13669 000c 0346     		mov	r3, r0
 13670 000e 2860     		str	r0, [r5]
 13671 0010 10B9     		cbnz	r0, .L135
 13672 0012 6F20     		movs	r0, #111
 13673 0014 FFF7FEFF 		bl	exit
 13674              	.L135:
 13675 0018 2268     		ldr	r2, [r4]
 13676 001a 02F12805 		add	r5, r2, #40
 13677              	.L136:
 13678 001e 1C46     		mov	r4, r3
 13679 0020 1068     		ldr	r0, [r2]	@ unaligned
 13680 0022 5168     		ldr	r1, [r2, #4]	@ unaligned
 13681 0024 0832     		adds	r2, r2, #8
 13682 0026 03C4     		stmia	r4!, {r0, r1}
 13683 0028 AA42     		cmp	r2, r5
 13684 002a 2346     		mov	r3, r4
 13685 002c F7D1     		bne	.L136
 13686 002e 38BD     		pop	{r3, r4, r5, pc}
 13688              		.section	.text.sha384_inc_ctx_clone,"ax",%progbits
 13689              		.align	1
 13690              		.global	sha384_inc_ctx_clone
 13691              		.syntax unified
 13692              		.thumb
 13693              		.thumb_func
 13694              		.fpu fpv4-sp-d16
 13696              	sha384_inc_ctx_clone:
 13697              		@ args = 0, pretend = 0, frame = 0
 13698              		@ frame_needed = 0, uses_anonymous_args = 0
 13699 0000 38B5     		push	{r3, r4, r5, lr}
 13700 0002 0546     		mov	r5, r0
 13701 0004 4820     		movs	r0, #72
 13702 0006 0C46     		mov	r4, r1
 13703 0008 FFF7FEFF 		bl	malloc
ARM GAS  /tmp/ccxnUvyY.s 			page 241


 13704 000c 2860     		str	r0, [r5]
 13705 000e 10B9     		cbnz	r0, .L139
 13706 0010 6F20     		movs	r0, #111
 13707 0012 FFF7FEFF 		bl	exit
 13708              	.L139:
 13709 0016 2168     		ldr	r1, [r4]
 13710 0018 4822     		movs	r2, #72
 13711 001a BDE83840 		pop	{r3, r4, r5, lr}
 13712 001e FFF7FEBF 		b	memcpy
 13714              		.section	.text.sha512_inc_ctx_clone,"ax",%progbits
 13715              		.align	1
 13716              		.global	sha512_inc_ctx_clone
 13717              		.syntax unified
 13718              		.thumb
 13719              		.thumb_func
 13720              		.fpu fpv4-sp-d16
 13722              	sha512_inc_ctx_clone:
 13723              		@ args = 0, pretend = 0, frame = 0
 13724              		@ frame_needed = 0, uses_anonymous_args = 0
 13725 0000 38B5     		push	{r3, r4, r5, lr}
 13726 0002 0546     		mov	r5, r0
 13727 0004 4820     		movs	r0, #72
 13728 0006 0C46     		mov	r4, r1
 13729 0008 FFF7FEFF 		bl	malloc
 13730 000c 2860     		str	r0, [r5]
 13731 000e 10B9     		cbnz	r0, .L141
 13732 0010 6F20     		movs	r0, #111
 13733 0012 FFF7FEFF 		bl	exit
 13734              	.L141:
 13735 0016 2168     		ldr	r1, [r4]
 13736 0018 4822     		movs	r2, #72
 13737 001a BDE83840 		pop	{r3, r4, r5, lr}
 13738 001e FFF7FEBF 		b	memcpy
 13740              		.section	.text.sha224_inc_ctx_release,"ax",%progbits
 13741              		.align	1
 13742              		.global	sha224_inc_ctx_release
 13743              		.syntax unified
 13744              		.thumb
 13745              		.thumb_func
 13746              		.fpu fpv4-sp-d16
 13748              	sha224_inc_ctx_release:
 13749              		@ args = 0, pretend = 0, frame = 0
 13750              		@ frame_needed = 0, uses_anonymous_args = 0
 13751              		@ link register save eliminated.
 13752 0000 0068     		ldr	r0, [r0]
 13753 0002 FFF7FEBF 		b	free
 13755              		.section	.text.sha256_inc_ctx_release,"ax",%progbits
 13756              		.align	1
 13757              		.global	sha256_inc_ctx_release
 13758              		.syntax unified
 13759              		.thumb
 13760              		.thumb_func
 13761              		.fpu fpv4-sp-d16
 13763              	sha256_inc_ctx_release:
 13764              		@ args = 0, pretend = 0, frame = 0
 13765              		@ frame_needed = 0, uses_anonymous_args = 0
 13766              		@ link register save eliminated.
ARM GAS  /tmp/ccxnUvyY.s 			page 242


 13767 0000 0068     		ldr	r0, [r0]
 13768 0002 FFF7FEBF 		b	free
 13770              		.section	.text.sha384_inc_ctx_release,"ax",%progbits
 13771              		.align	1
 13772              		.global	sha384_inc_ctx_release
 13773              		.syntax unified
 13774              		.thumb
 13775              		.thumb_func
 13776              		.fpu fpv4-sp-d16
 13778              	sha384_inc_ctx_release:
 13779              		@ args = 0, pretend = 0, frame = 0
 13780              		@ frame_needed = 0, uses_anonymous_args = 0
 13781              		@ link register save eliminated.
 13782 0000 0068     		ldr	r0, [r0]
 13783 0002 FFF7FEBF 		b	free
 13785              		.section	.text.sha512_inc_ctx_release,"ax",%progbits
 13786              		.align	1
 13787              		.global	sha512_inc_ctx_release
 13788              		.syntax unified
 13789              		.thumb
 13790              		.thumb_func
 13791              		.fpu fpv4-sp-d16
 13793              	sha512_inc_ctx_release:
 13794              		@ args = 0, pretend = 0, frame = 0
 13795              		@ frame_needed = 0, uses_anonymous_args = 0
 13796              		@ link register save eliminated.
 13797 0000 0068     		ldr	r0, [r0]
 13798 0002 FFF7FEBF 		b	free
 13800              		.section	.text.sha256_inc_blocks,"ax",%progbits
 13801              		.align	1
 13802              		.global	sha256_inc_blocks
 13803              		.syntax unified
 13804              		.thumb
 13805              		.thumb_func
 13806              		.fpu fpv4-sp-d16
 13808              	sha256_inc_blocks:
 13809              		@ args = 0, pretend = 0, frame = 0
 13810              		@ frame_needed = 0, uses_anonymous_args = 0
 13811 0000 2DE9F041 		push	{r4, r5, r6, r7, r8, lr}
 13812 0004 D0F80080 		ldr	r8, [r0]
 13813 0008 0546     		mov	r5, r0
 13814 000a 08F12000 		add	r0, r8, #32
 13815 000e 0B46     		mov	r3, r1
 13816 0010 FFF7FEFF 		bl	load_bigendian_64
 13817 0014 0646     		mov	r6, r0
 13818 0016 0F46     		mov	r7, r1
 13819 0018 9401     		lsls	r4, r2, #6
 13820 001a 2246     		mov	r2, r4
 13821 001c 4046     		mov	r0, r8
 13822 001e 1946     		mov	r1, r3
 13823 0020 FFF7FEFF 		bl	crypto_hashblocks_sha256.isra.0
 13824 0024 2868     		ldr	r0, [r5]
 13825 0026 A219     		adds	r2, r4, r6
 13826 0028 47F10003 		adc	r3, r7, #0
 13827 002c 2030     		adds	r0, r0, #32
 13828 002e BDE8F041 		pop	{r4, r5, r6, r7, r8, lr}
 13829 0032 FFF7FEBF 		b	store_bigendian_64
ARM GAS  /tmp/ccxnUvyY.s 			page 243


 13831              		.section	.text.sha224_inc_blocks,"ax",%progbits
 13832              		.align	1
 13833              		.global	sha224_inc_blocks
 13834              		.syntax unified
 13835              		.thumb
 13836              		.thumb_func
 13837              		.fpu fpv4-sp-d16
 13839              	sha224_inc_blocks:
 13840              		@ args = 0, pretend = 0, frame = 0
 13841              		@ frame_needed = 0, uses_anonymous_args = 0
 13842              		@ link register save eliminated.
 13843 0000 FFF7FEBF 		b	sha256_inc_blocks
 13845              		.section	.text.sha512_inc_blocks,"ax",%progbits
 13846              		.align	1
 13847              		.global	sha512_inc_blocks
 13848              		.syntax unified
 13849              		.thumb
 13850              		.thumb_func
 13851              		.fpu fpv4-sp-d16
 13853              	sha512_inc_blocks:
 13854              		@ args = 0, pretend = 0, frame = 0
 13855              		@ frame_needed = 0, uses_anonymous_args = 0
 13856 0000 2DE9F041 		push	{r4, r5, r6, r7, r8, lr}
 13857 0004 D0F80080 		ldr	r8, [r0]
 13858 0008 0546     		mov	r5, r0
 13859 000a 08F14000 		add	r0, r8, #64
 13860 000e 0B46     		mov	r3, r1
 13861 0010 FFF7FEFF 		bl	load_bigendian_64
 13862 0014 0646     		mov	r6, r0
 13863 0016 0F46     		mov	r7, r1
 13864 0018 D401     		lsls	r4, r2, #7
 13865 001a 2246     		mov	r2, r4
 13866 001c 4046     		mov	r0, r8
 13867 001e 1946     		mov	r1, r3
 13868 0020 FFF7FEFF 		bl	crypto_hashblocks_sha512.isra.0
 13869 0024 2868     		ldr	r0, [r5]
 13870 0026 A219     		adds	r2, r4, r6
 13871 0028 47F10003 		adc	r3, r7, #0
 13872 002c 4030     		adds	r0, r0, #64
 13873 002e BDE8F041 		pop	{r4, r5, r6, r7, r8, lr}
 13874 0032 FFF7FEBF 		b	store_bigendian_64
 13876              		.section	.text.sha384_inc_blocks,"ax",%progbits
 13877              		.align	1
 13878              		.global	sha384_inc_blocks
 13879              		.syntax unified
 13880              		.thumb
 13881              		.thumb_func
 13882              		.fpu fpv4-sp-d16
 13884              	sha384_inc_blocks:
 13885              		@ args = 0, pretend = 0, frame = 0
 13886              		@ frame_needed = 0, uses_anonymous_args = 0
 13887              		@ link register save eliminated.
 13888 0000 FFF7FEBF 		b	sha512_inc_blocks
 13890              		.section	.text.sha256_inc_finalize,"ax",%progbits
 13891              		.align	1
 13892              		.global	sha256_inc_finalize
 13893              		.syntax unified
ARM GAS  /tmp/ccxnUvyY.s 			page 244


 13894              		.thumb
 13895              		.thumb_func
 13896              		.fpu fpv4-sp-d16
 13898              	sha256_inc_finalize:
 13899              		@ args = 0, pretend = 0, frame = 136
 13900              		@ frame_needed = 0, uses_anonymous_args = 0
 13901 0000 2DE9F04F 		push	{r4, r5, r6, r7, r8, r9, r10, fp, lr}
 13902 0004 1F46     		mov	r7, r3
 13903 0006 0B68     		ldr	r3, [r1]
 13904 0008 A3B0     		sub	sp, sp, #140
 13905 000a 0090     		str	r0, [sp]
 13906 000c 03F12000 		add	r0, r3, #32
 13907 0010 0E46     		mov	r6, r1
 13908 0012 FFF7FEFF 		bl	load_bigendian_64
 13909 0016 9046     		mov	r8, r2
 13910 0018 3C18     		adds	r4, r7, r0
 13911 001a 41F10005 		adc	r5, r1, #0
 13912 001e 1846     		mov	r0, r3
 13913 0020 3A46     		mov	r2, r7
 13914 0022 4146     		mov	r1, r8
 13915 0024 FFF7FEFF 		bl	crypto_hashblocks_sha256.isra.0
 13916 0028 27F03F01 		bic	r1, r7, #63
 13917 002c 07F03F02 		and	r2, r7, #63
 13918 0030 4144     		add	r1, r1, r8
 13919 0032 02A8     		add	r0, sp, #8
 13920 0034 0192     		str	r2, [sp, #4]
 13921 0036 FFF7FEFF 		bl	memcpy
 13922 003a 019A     		ldr	r2, [sp, #4]
 13923 003c 4FEA555B 		lsr	fp, r5, #21
 13924 0040 02F18803 		add	r3, r2, #136
 13925 0044 0DEB0301 		add	r1, sp, r3
 13926 0048 8023     		movs	r3, #128
 13927 004a 501C     		adds	r0, r2, #1
 13928 004c 01F8803C 		strb	r3, [r1, #-128]
 13929 0050 372A     		cmp	r2, #55
 13930 0052 02AB     		add	r3, sp, #8
 13931 0054 4FEA5431 		lsr	r1, r4, #13
 13932 0058 1844     		add	r0, r0, r3
 13933 005a 4FEA553A 		lsr	r10, r5, #13
 13934 005e 4FEA5519 		lsr	r9, r5, #5
 13935 0062 4FEA5477 		lsr	r7, r4, #29
 13936 0066 4FEA5458 		lsr	r8, r4, #21
 13937 006a 0191     		str	r1, [sp, #4]
 13938 006c 2CD8     		bhi	.L151
 13939 006e C2F13702 		rsb	r2, r2, #55
 13940 0072 0021     		movs	r1, #0
 13941 0074 FFF7FEFF 		bl	memset
 13942 0078 4022     		movs	r2, #64
 13943 007a 630B     		lsrs	r3, r4, #13
 13944 007c 47EAC505 		orr	r5, r7, r5, lsl #3
 13945 0080 8DF84530 		strb	r3, [sp, #69]
 13946 0084 6309     		lsrs	r3, r4, #5
 13947 0086 E400     		lsls	r4, r4, #3
 13948 0088 8DF840B0 		strb	fp, [sp, #64]
 13949 008c 8DF841A0 		strb	r10, [sp, #65]
 13950 0090 8DF84290 		strb	r9, [sp, #66]
 13951 0094 8DF84350 		strb	r5, [sp, #67]
ARM GAS  /tmp/ccxnUvyY.s 			page 245


 13952 0098 8DF84480 		strb	r8, [sp, #68]
 13953 009c 8DF84630 		strb	r3, [sp, #70]
 13954 00a0 8DF84740 		strb	r4, [sp, #71]
 13955              	.L155:
 13956 00a4 3068     		ldr	r0, [r6]
 13957 00a6 02A9     		add	r1, sp, #8
 13958 00a8 FFF7FEFF 		bl	crypto_hashblocks_sha256.isra.0
 13959 00ac 0023     		movs	r3, #0
 13960              	.L152:
 13961 00ae 3268     		ldr	r2, [r6]
 13962 00b0 0099     		ldr	r1, [sp]
 13963 00b2 D25C     		ldrb	r2, [r2, r3]	@ zero_extendqisi2
 13964 00b4 CA54     		strb	r2, [r1, r3]
 13965 00b6 0133     		adds	r3, r3, #1
 13966 00b8 202B     		cmp	r3, #32
 13967 00ba F8D1     		bne	.L152
 13968 00bc 3046     		mov	r0, r6
 13969 00be FFF7FEFF 		bl	sha256_inc_ctx_release
 13970 00c2 23B0     		add	sp, sp, #140
 13971              		@ sp needed
 13972 00c4 BDE8F08F 		pop	{r4, r5, r6, r7, r8, r9, r10, fp, pc}
 13973              	.L151:
 13974 00c8 C2F17702 		rsb	r2, r2, #119
 13975 00cc 0021     		movs	r1, #0
 13976 00ce FFF7FEFF 		bl	memset
 13977 00d2 630B     		lsrs	r3, r4, #13
 13978 00d4 8DF88530 		strb	r3, [sp, #133]
 13979 00d8 8023     		movs	r3, #128
 13980 00da 6209     		lsrs	r2, r4, #5
 13981 00dc 47EAC505 		orr	r5, r7, r5, lsl #3
 13982 00e0 E400     		lsls	r4, r4, #3
 13983 00e2 8DF88620 		strb	r2, [sp, #134]
 13984 00e6 8DF880B0 		strb	fp, [sp, #128]
 13985 00ea 1A46     		mov	r2, r3
 13986 00ec 8DF881A0 		strb	r10, [sp, #129]
 13987 00f0 8DF88290 		strb	r9, [sp, #130]
 13988 00f4 8DF88350 		strb	r5, [sp, #131]
 13989 00f8 8DF88480 		strb	r8, [sp, #132]
 13990 00fc 8DF88740 		strb	r4, [sp, #135]
 13991 0100 D0E7     		b	.L155
 13993              		.section	.text.sha224_inc_finalize,"ax",%progbits
 13994              		.align	1
 13995              		.global	sha224_inc_finalize
 13996              		.syntax unified
 13997              		.thumb
 13998              		.thumb_func
 13999              		.fpu fpv4-sp-d16
 14001              	sha224_inc_finalize:
 14002              		@ args = 0, pretend = 0, frame = 32
 14003              		@ frame_needed = 0, uses_anonymous_args = 0
 14004 0000 30B5     		push	{r4, r5, lr}
 14005 0002 0446     		mov	r4, r0
 14006 0004 89B0     		sub	sp, sp, #36
 14007 0006 6846     		mov	r0, sp
 14008 0008 FFF7FEFF 		bl	sha256_inc_finalize
 14009 000c 6A46     		mov	r2, sp
 14010 000e 2346     		mov	r3, r4
ARM GAS  /tmp/ccxnUvyY.s 			page 246


 14011 0010 06AD     		add	r5, sp, #24
 14012              	.L157:
 14013 0012 1446     		mov	r4, r2
 14014 0014 03CC     		ldmia	r4!, {r0, r1}
 14015 0016 AC42     		cmp	r4, r5
 14016 0018 1860     		str	r0, [r3]	@ unaligned
 14017 001a 5960     		str	r1, [r3, #4]	@ unaligned
 14018 001c 2246     		mov	r2, r4
 14019 001e 03F10803 		add	r3, r3, #8
 14020 0022 F6D1     		bne	.L157
 14021 0024 2068     		ldr	r0, [r4]
 14022 0026 1860     		str	r0, [r3]	@ unaligned
 14023 0028 09B0     		add	sp, sp, #36
 14024              		@ sp needed
 14025 002a 30BD     		pop	{r4, r5, pc}
 14027              		.section	.text.sha512_inc_finalize,"ax",%progbits
 14028              		.align	1
 14029              		.global	sha512_inc_finalize
 14030              		.syntax unified
 14031              		.thumb
 14032              		.thumb_func
 14033              		.fpu fpv4-sp-d16
 14035              	sha512_inc_finalize:
 14036              		@ args = 0, pretend = 0, frame = 264
 14037              		@ frame_needed = 0, uses_anonymous_args = 0
 14038 0000 2DE9F04F 		push	{r4, r5, r6, r7, r8, r9, r10, fp, lr}
 14039 0004 1F46     		mov	r7, r3
 14040 0006 0B68     		ldr	r3, [r1]
 14041 0008 C3B0     		sub	sp, sp, #268
 14042 000a 0090     		str	r0, [sp]
 14043 000c 03F14000 		add	r0, r3, #64
 14044 0010 0E46     		mov	r6, r1
 14045 0012 FFF7FEFF 		bl	load_bigendian_64
 14046 0016 9046     		mov	r8, r2
 14047 0018 3C18     		adds	r4, r7, r0
 14048 001a 41F10005 		adc	r5, r1, #0
 14049 001e 1846     		mov	r0, r3
 14050 0020 3A46     		mov	r2, r7
 14051 0022 4146     		mov	r1, r8
 14052 0024 FFF7FEFF 		bl	crypto_hashblocks_sha512.isra.0
 14053 0028 27F07F01 		bic	r1, r7, #127
 14054 002c 07F07F02 		and	r2, r7, #127
 14055 0030 4144     		add	r1, r1, r8
 14056 0032 02A8     		add	r0, sp, #8
 14057 0034 0192     		str	r2, [sp, #4]
 14058 0036 FFF7FEFF 		bl	memcpy
 14059 003a 8023     		movs	r3, #128
 14060 003c 019A     		ldr	r2, [sp, #4]
 14061 003e 02A9     		add	r1, sp, #8
 14062 0040 8B54     		strb	r3, [r1, r2]
 14063 0042 501C     		adds	r0, r2, #1
 14064 0044 630D     		lsrs	r3, r4, #21
 14065 0046 6F2A     		cmp	r2, #111
 14066 0048 0844     		add	r0, r0, r1
 14067 004a 4FEA557B 		lsr	fp, r5, #29
 14068 004e 4FEA555A 		lsr	r10, r5, #21
 14069 0052 4FEA5539 		lsr	r9, r5, #13
ARM GAS  /tmp/ccxnUvyY.s 			page 247


 14070 0056 4FEA5518 		lsr	r8, r5, #5
 14071 005a 4FEA5477 		lsr	r7, r4, #29
 14072 005e 0193     		str	r3, [sp, #4]
 14073 0060 30D8     		bhi	.L160
 14074 0062 C2F17602 		rsb	r2, r2, #118
 14075 0066 0021     		movs	r1, #0
 14076 0068 FFF7FEFF 		bl	memset
 14077 006c 630D     		lsrs	r3, r4, #21
 14078 006e 8DF88430 		strb	r3, [sp, #132]
 14079 0072 8023     		movs	r3, #128
 14080 0074 620B     		lsrs	r2, r4, #13
 14081 0076 8DF88520 		strb	r2, [sp, #133]
 14082 007a 6209     		lsrs	r2, r4, #5
 14083 007c 8DF88620 		strb	r2, [sp, #134]
 14084 0080 1A46     		mov	r2, r3
 14085 0082 47EAC505 		orr	r5, r7, r5, lsl #3
 14086 0086 E400     		lsls	r4, r4, #3
 14087 0088 8DF87FB0 		strb	fp, [sp, #127]
 14088 008c 8DF880A0 		strb	r10, [sp, #128]
 14089 0090 8DF88190 		strb	r9, [sp, #129]
 14090 0094 8DF88280 		strb	r8, [sp, #130]
 14091 0098 8DF88350 		strb	r5, [sp, #131]
 14092 009c 8DF88740 		strb	r4, [sp, #135]
 14093              	.L164:
 14094 00a0 3068     		ldr	r0, [r6]
 14095 00a2 02A9     		add	r1, sp, #8
 14096 00a4 FFF7FEFF 		bl	crypto_hashblocks_sha512.isra.0
 14097 00a8 0023     		movs	r3, #0
 14098              	.L161:
 14099 00aa 3268     		ldr	r2, [r6]
 14100 00ac 0099     		ldr	r1, [sp]
 14101 00ae D25C     		ldrb	r2, [r2, r3]	@ zero_extendqisi2
 14102 00b0 CA54     		strb	r2, [r1, r3]
 14103 00b2 0133     		adds	r3, r3, #1
 14104 00b4 402B     		cmp	r3, #64
 14105 00b6 F8D1     		bne	.L161
 14106 00b8 3046     		mov	r0, r6
 14107 00ba FFF7FEFF 		bl	sha512_inc_ctx_release
 14108 00be 43B0     		add	sp, sp, #268
 14109              		@ sp needed
 14110 00c0 BDE8F08F 		pop	{r4, r5, r6, r7, r8, r9, r10, fp, pc}
 14111              	.L160:
 14112 00c4 C2F1F602 		rsb	r2, r2, #246
 14113 00c8 0021     		movs	r1, #0
 14114 00ca FFF7FEFF 		bl	memset
 14115 00ce 630D     		lsrs	r3, r4, #21
 14116 00d0 8DF80431 		strb	r3, [sp, #260]
 14117 00d4 630B     		lsrs	r3, r4, #13
 14118 00d6 47EAC505 		orr	r5, r7, r5, lsl #3
 14119 00da 8DF80531 		strb	r3, [sp, #261]
 14120 00de 6309     		lsrs	r3, r4, #5
 14121 00e0 E400     		lsls	r4, r4, #3
 14122 00e2 4FF48072 		mov	r2, #256
 14123 00e6 8DF8FFB0 		strb	fp, [sp, #255]
 14124 00ea 8DF800A1 		strb	r10, [sp, #256]
 14125 00ee 8DF80191 		strb	r9, [sp, #257]
 14126 00f2 8DF80281 		strb	r8, [sp, #258]
ARM GAS  /tmp/ccxnUvyY.s 			page 248


 14127 00f6 8DF80351 		strb	r5, [sp, #259]
 14128 00fa 8DF80631 		strb	r3, [sp, #262]
 14129 00fe 8DF80741 		strb	r4, [sp, #263]
 14130 0102 CDE7     		b	.L164
 14132              		.section	.text.sha384_inc_finalize,"ax",%progbits
 14133              		.align	1
 14134              		.global	sha384_inc_finalize
 14135              		.syntax unified
 14136              		.thumb
 14137              		.thumb_func
 14138              		.fpu fpv4-sp-d16
 14140              	sha384_inc_finalize:
 14141              		@ args = 0, pretend = 0, frame = 64
 14142              		@ frame_needed = 0, uses_anonymous_args = 0
 14143 0000 30B5     		push	{r4, r5, lr}
 14144 0002 0446     		mov	r4, r0
 14145 0004 91B0     		sub	sp, sp, #68
 14146 0006 6846     		mov	r0, sp
 14147 0008 FFF7FEFF 		bl	sha512_inc_finalize
 14148 000c 6A46     		mov	r2, sp
 14149 000e 2346     		mov	r3, r4
 14150 0010 0CAD     		add	r5, sp, #48
 14151              	.L166:
 14152 0012 1446     		mov	r4, r2
 14153 0014 03CC     		ldmia	r4!, {r0, r1}
 14154 0016 AC42     		cmp	r4, r5
 14155 0018 1860     		str	r0, [r3]	@ unaligned
 14156 001a 5960     		str	r1, [r3, #4]	@ unaligned
 14157 001c 2246     		mov	r2, r4
 14158 001e 03F10803 		add	r3, r3, #8
 14159 0022 F6D1     		bne	.L166
 14160 0024 11B0     		add	sp, sp, #68
 14161              		@ sp needed
 14162 0026 30BD     		pop	{r4, r5, pc}
 14164              		.section	.text.sha224,"ax",%progbits
 14165              		.align	1
 14166              		.global	sha224
 14167              		.syntax unified
 14168              		.thumb
 14169              		.thumb_func
 14170              		.fpu fpv4-sp-d16
 14172              	sha224:
 14173              		@ args = 0, pretend = 0, frame = 16
 14174              		@ frame_needed = 0, uses_anonymous_args = 0
 14175 0000 30B5     		push	{r4, r5, lr}
 14176 0002 0D46     		mov	r5, r1
 14177 0004 0446     		mov	r4, r0
 14178 0006 85B0     		sub	sp, sp, #20
 14179 0008 03A8     		add	r0, sp, #12
 14180 000a 0192     		str	r2, [sp, #4]
 14181 000c FFF7FEFF 		bl	sha224_inc_init
 14182 0010 2A46     		mov	r2, r5
 14183 0012 2046     		mov	r0, r4
 14184 0014 019B     		ldr	r3, [sp, #4]
 14185 0016 03A9     		add	r1, sp, #12
 14186 0018 FFF7FEFF 		bl	sha224_inc_finalize
 14187 001c 05B0     		add	sp, sp, #20
ARM GAS  /tmp/ccxnUvyY.s 			page 249


 14188              		@ sp needed
 14189 001e 30BD     		pop	{r4, r5, pc}
 14191              		.section	.text.sha256,"ax",%progbits
 14192              		.align	1
 14193              		.global	sha256
 14194              		.syntax unified
 14195              		.thumb
 14196              		.thumb_func
 14197              		.fpu fpv4-sp-d16
 14199              	sha256:
 14200              		@ args = 0, pretend = 0, frame = 16
 14201              		@ frame_needed = 0, uses_anonymous_args = 0
 14202 0000 30B5     		push	{r4, r5, lr}
 14203 0002 0D46     		mov	r5, r1
 14204 0004 0446     		mov	r4, r0
 14205 0006 85B0     		sub	sp, sp, #20
 14206 0008 03A8     		add	r0, sp, #12
 14207 000a 0192     		str	r2, [sp, #4]
 14208 000c FFF7FEFF 		bl	sha256_inc_init
 14209 0010 2A46     		mov	r2, r5
 14210 0012 2046     		mov	r0, r4
 14211 0014 019B     		ldr	r3, [sp, #4]
 14212 0016 03A9     		add	r1, sp, #12
 14213 0018 FFF7FEFF 		bl	sha256_inc_finalize
 14214 001c 05B0     		add	sp, sp, #20
 14215              		@ sp needed
 14216 001e 30BD     		pop	{r4, r5, pc}
 14218              		.section	.text.sha384,"ax",%progbits
 14219              		.align	1
 14220              		.global	sha384
 14221              		.syntax unified
 14222              		.thumb
 14223              		.thumb_func
 14224              		.fpu fpv4-sp-d16
 14226              	sha384:
 14227              		@ args = 0, pretend = 0, frame = 16
 14228              		@ frame_needed = 0, uses_anonymous_args = 0
 14229 0000 30B5     		push	{r4, r5, lr}
 14230 0002 0D46     		mov	r5, r1
 14231 0004 0446     		mov	r4, r0
 14232 0006 85B0     		sub	sp, sp, #20
 14233 0008 03A8     		add	r0, sp, #12
 14234 000a 0192     		str	r2, [sp, #4]
 14235 000c FFF7FEFF 		bl	sha384_inc_init
 14236 0010 2A46     		mov	r2, r5
 14237 0012 2046     		mov	r0, r4
 14238 0014 019B     		ldr	r3, [sp, #4]
 14239 0016 03A9     		add	r1, sp, #12
 14240 0018 FFF7FEFF 		bl	sha384_inc_finalize
 14241 001c 05B0     		add	sp, sp, #20
 14242              		@ sp needed
 14243 001e 30BD     		pop	{r4, r5, pc}
 14245              		.section	.text.sha512,"ax",%progbits
 14246              		.align	1
 14247              		.global	sha512
 14248              		.syntax unified
 14249              		.thumb
ARM GAS  /tmp/ccxnUvyY.s 			page 250


 14250              		.thumb_func
 14251              		.fpu fpv4-sp-d16
 14253              	sha512:
 14254              		@ args = 0, pretend = 0, frame = 16
 14255              		@ frame_needed = 0, uses_anonymous_args = 0
 14256 0000 30B5     		push	{r4, r5, lr}
 14257 0002 0D46     		mov	r5, r1
 14258 0004 0446     		mov	r4, r0
 14259 0006 85B0     		sub	sp, sp, #20
 14260 0008 03A8     		add	r0, sp, #12
 14261 000a 0192     		str	r2, [sp, #4]
 14262 000c FFF7FEFF 		bl	sha512_inc_init
 14263 0010 2A46     		mov	r2, r5
 14264 0012 2046     		mov	r0, r4
 14265 0014 019B     		ldr	r3, [sp, #4]
 14266 0016 03A9     		add	r1, sp, #12
 14267 0018 FFF7FEFF 		bl	sha512_inc_finalize
 14268 001c 05B0     		add	sp, sp, #20
 14269              		@ sp needed
 14270 001e 30BD     		pop	{r4, r5, pc}
 14272              		.section	.rodata.iv_224,"a"
 14273              		.set	.LANCHOR0,. + 0
 14276              	iv_224:
 14277 0000 C1059ED8 		.ascii	"\301\005\236\3306|\325\0070p\335\027\367\016Y9\377\300"
 14277      367CD507 
 14277      3070DD17 
 14277      F70E5939 
 14277      FFC0
 14278 0012 0B316858 		.ascii	"\0131hX\025\021d\371\217\247\276\372O\244"
 14278      151164F9 
 14278      8FA7BEFA 
 14278      4FA4
 14279              		.section	.rodata.iv_256,"a"
 14280              		.set	.LANCHOR1,. + 0
 14283              	iv_256:
 14284 0000 6A09E667 		.ascii	"j\011\346g\273g\256\205<n\363r\245O\365:Q\016R\177\233"
 14284      BB67AE85 
 14284      3C6EF372 
 14284      A54FF53A 
 14284      510E527F 
 14285 0015 05688C1F 		.ascii	"\005h\214\037\203\331\253[\340\315\031"
 14285      83D9AB5B 
 14285      E0CD19
 14286              		.section	.rodata.iv_384,"a"
 14287              		.set	.LANCHOR2,. + 0
 14290              	iv_384:
 14291 0000 CBBB9D5D 		.ascii	"\313\273\235]\301\005\236\330b\232)*6|\325\007\221Y"
 14291      C1059ED8 
 14291      629A292A 
 14291      367CD507 
 14291      9159
 14292 0012 015A3070 		.ascii	"\001Z0p\335\027\025/\354\330\367\016Y9g3&g\377\300\013"
 14292      DD17152F 
 14292      ECD8F70E 
 14292      59396733 
 14292      2667FFC0 
 14293 0027 318EB44A 		.ascii	"1\216\264J\207hX\025\021\333\014.\015d\371\217\247G"
ARM GAS  /tmp/ccxnUvyY.s 			page 251


 14293      87685815 
 14293      11DB0C2E 
 14293      0D64F98F 
 14293      A747
 14294 0039 B5481DBE 		.ascii	"\265H\035\276\372O\244"
 14294      FA4FA4
 14295              		.section	.rodata.iv_512,"a"
 14296              		.set	.LANCHOR3,. + 0
 14299              	iv_512:
 14300 0000 6A09E667 		.ascii	"j\011\346g\363\274\311\010\273g\256\205\204\312\247"
 14300      F3BCC908 
 14300      BB67AE85 
 14300      84CAA7
 14301 000f 3B3C6EF3 		.ascii	";<n\363r\376\224\370+\245O\365:_\0356\361Q\016R\177"
 14301      72FE94F8 
 14301      2BA54FF5 
 14301      3A5F1D36 
 14301      F1510E52 
 14302 0024 ADE682D1 		.ascii	"\255\346\202\321\233\005h\214+>l\037\037\203\331\253"
 14302      9B05688C 
 14302      2B3E6C1F 
 14302      1F83D9AB 
 14303 0034 FB41BD6B 		.ascii	"\373A\275k[\340\315\031\023~!y"
 14303      5BE0CD19 
 14303      137E2179 
 14304              		.ident	"GCC: (15:10.3-2021.07-4) 10.3.1 20210621 (release)"
ARM GAS  /tmp/ccxnUvyY.s 			page 252


DEFINED SYMBOLS
                            *ABS*:0000000000000000 sha2.c
     /tmp/ccxnUvyY.s:16     .text.load_bigendian_32:0000000000000000 $t
     /tmp/ccxnUvyY.s:24     .text.load_bigendian_32:0000000000000000 load_bigendian_32
     /tmp/ccxnUvyY.s:33     .text.load_bigendian_64:0000000000000000 $t
     /tmp/ccxnUvyY.s:39     .text.load_bigendian_64:0000000000000000 load_bigendian_64
     /tmp/ccxnUvyY.s:50     .text.store_bigendian_64:0000000000000000 $t
     /tmp/ccxnUvyY.s:56     .text.store_bigendian_64:0000000000000000 store_bigendian_64
     /tmp/ccxnUvyY.s:77     .text.crypto_hashblocks_sha512.isra.0:0000000000000000 $t
     /tmp/ccxnUvyY.s:83     .text.crypto_hashblocks_sha512.isra.0:0000000000000000 crypto_hashblocks_sha512.isra.0
     /tmp/ccxnUvyY.s:553    .text.crypto_hashblocks_sha512.isra.0:0000000000000548 $d
     /tmp/ccxnUvyY.s:562    .text.crypto_hashblocks_sha512.isra.0:0000000000000568 $t
     /tmp/ccxnUvyY.s:907    .text.crypto_hashblocks_sha512.isra.0:0000000000000980 $d
     /tmp/ccxnUvyY.s:916    .text.crypto_hashblocks_sha512.isra.0:00000000000009a0 $t
     /tmp/ccxnUvyY.s:1292   .text.crypto_hashblocks_sha512.isra.0:0000000000000dcc $d
     /tmp/ccxnUvyY.s:1301   .text.crypto_hashblocks_sha512.isra.0:0000000000000dec $t
     /tmp/ccxnUvyY.s:1640   .text.crypto_hashblocks_sha512.isra.0:00000000000011e4 $d
     /tmp/ccxnUvyY.s:1647   .text.crypto_hashblocks_sha512.isra.0:00000000000011fc $t
     /tmp/ccxnUvyY.s:1966   .text.crypto_hashblocks_sha512.isra.0:0000000000001544 $d
     /tmp/ccxnUvyY.s:1969   .text.crypto_hashblocks_sha512.isra.0:000000000000154c $t
     /tmp/ccxnUvyY.s:2901   .text.crypto_hashblocks_sha512.isra.0:0000000000001edc $d
     /tmp/ccxnUvyY.s:2910   .text.crypto_hashblocks_sha512.isra.0:0000000000001efc $t
     /tmp/ccxnUvyY.s:3249   .text.crypto_hashblocks_sha512.isra.0:00000000000022d0 $d
     /tmp/ccxnUvyY.s:3258   .text.crypto_hashblocks_sha512.isra.0:00000000000022f0 $t
     /tmp/ccxnUvyY.s:3611   .text.crypto_hashblocks_sha512.isra.0:00000000000026f8 $d
     /tmp/ccxnUvyY.s:3620   .text.crypto_hashblocks_sha512.isra.0:0000000000002718 $t
     /tmp/ccxnUvyY.s:3971   .text.crypto_hashblocks_sha512.isra.0:0000000000002b08 $d
     /tmp/ccxnUvyY.s:3980   .text.crypto_hashblocks_sha512.isra.0:0000000000002b28 $t
     /tmp/ccxnUvyY.s:5212   .text.crypto_hashblocks_sha512.isra.0:00000000000037f4 $d
     /tmp/ccxnUvyY.s:5221   .text.crypto_hashblocks_sha512.isra.0:0000000000003814 $t
     /tmp/ccxnUvyY.s:5578   .text.crypto_hashblocks_sha512.isra.0:0000000000003c08 $d
     /tmp/ccxnUvyY.s:5587   .text.crypto_hashblocks_sha512.isra.0:0000000000003c28 $t
     /tmp/ccxnUvyY.s:5918   .text.crypto_hashblocks_sha512.isra.0:0000000000004014 $d
     /tmp/ccxnUvyY.s:5927   .text.crypto_hashblocks_sha512.isra.0:0000000000004034 $t
     /tmp/ccxnUvyY.s:6293   .text.crypto_hashblocks_sha512.isra.0:0000000000004438 $d
     /tmp/ccxnUvyY.s:6302   .text.crypto_hashblocks_sha512.isra.0:0000000000004458 $t
     /tmp/ccxnUvyY.s:7529   .text.crypto_hashblocks_sha512.isra.0:0000000000005110 $d
     /tmp/ccxnUvyY.s:7538   .text.crypto_hashblocks_sha512.isra.0:0000000000005130 $t
     /tmp/ccxnUvyY.s:7893   .text.crypto_hashblocks_sha512.isra.0:0000000000005518 $d
     /tmp/ccxnUvyY.s:7902   .text.crypto_hashblocks_sha512.isra.0:0000000000005538 $t
     /tmp/ccxnUvyY.s:8232   .text.crypto_hashblocks_sha512.isra.0:0000000000005914 $d
     /tmp/ccxnUvyY.s:8241   .text.crypto_hashblocks_sha512.isra.0:0000000000005934 $t
     /tmp/ccxnUvyY.s:8601   .text.crypto_hashblocks_sha512.isra.0:0000000000005d60 $d
     /tmp/ccxnUvyY.s:8609   .text.crypto_hashblocks_sha512.isra.0:0000000000005d7c $t
     /tmp/ccxnUvyY.s:8917   .text.crypto_hashblocks_sha512.isra.0:00000000000060a0 $d
     /tmp/ccxnUvyY.s:8919   .text.crypto_hashblocks_sha512.isra.0:00000000000060a4 $t
     /tmp/ccxnUvyY.s:9737   .text.crypto_hashblocks_sha512.isra.0:0000000000006934 $d
     /tmp/ccxnUvyY.s:9746   .text.crypto_hashblocks_sha512.isra.0:0000000000006954 $t
     /tmp/ccxnUvyY.s:10106  .text.crypto_hashblocks_sha512.isra.0:0000000000006d64 $d
     /tmp/ccxnUvyY.s:10115  .text.crypto_hashblocks_sha512.isra.0:0000000000006d84 $t
     /tmp/ccxnUvyY.s:10456  .text.crypto_hashblocks_sha512.isra.0:000000000000716c $d
     /tmp/ccxnUvyY.s:10465  .text.crypto_hashblocks_sha512.isra.0:000000000000718c $t
     /tmp/ccxnUvyY.s:10844  .text.crypto_hashblocks_sha512.isra.0:000000000000759c $d
     /tmp/ccxnUvyY.s:10851  .text.crypto_hashblocks_sha512.isra.0:00000000000075b4 $t
     /tmp/ccxnUvyY.s:11048  .text.crypto_hashblocks_sha512.isra.0:00000000000077f4 $d
     /tmp/ccxnUvyY.s:11052  .text.crypto_hashblocks_sha256.isra.0:0000000000000000 $t
     /tmp/ccxnUvyY.s:11058  .text.crypto_hashblocks_sha256.isra.0:0000000000000000 crypto_hashblocks_sha256.isra.0
ARM GAS  /tmp/ccxnUvyY.s 			page 253


     /tmp/ccxnUvyY.s:11568  .text.crypto_hashblocks_sha256.isra.0:0000000000000574 $d
     /tmp/ccxnUvyY.s:11581  .text.crypto_hashblocks_sha256.isra.0:00000000000005a4 $t
     /tmp/ccxnUvyY.s:11869  .text.crypto_hashblocks_sha256.isra.0:0000000000000914 $d
     /tmp/ccxnUvyY.s:11874  .text.crypto_hashblocks_sha256.isra.0:0000000000000924 $t
     /tmp/ccxnUvyY.s:12203  .text.crypto_hashblocks_sha256.isra.0:0000000000000d14 $d
     /tmp/ccxnUvyY.s:12216  .text.crypto_hashblocks_sha256.isra.0:0000000000000d44 $t
     /tmp/ccxnUvyY.s:12507  .text.crypto_hashblocks_sha256.isra.0:00000000000010b4 $d
     /tmp/ccxnUvyY.s:12512  .text.crypto_hashblocks_sha256.isra.0:00000000000010c4 $t
     /tmp/ccxnUvyY.s:12883  .text.crypto_hashblocks_sha256.isra.0:0000000000001534 $d
     /tmp/ccxnUvyY.s:12895  .text.crypto_hashblocks_sha256.isra.0:0000000000001560 $t
     /tmp/ccxnUvyY.s:13353  .text.crypto_hashblocks_sha256.isra.0:0000000000001aec $d
     /tmp/ccxnUvyY.s:13369  .text.crypto_hashblocks_sha256.isra.0:0000000000001b28 $t
     /tmp/ccxnUvyY.s:13448  .text.crypto_hashblocks_sha256.isra.0:0000000000001c00 $d
     /tmp/ccxnUvyY.s:13451  .text.sha224_inc_init:0000000000000000 $t
     /tmp/ccxnUvyY.s:13458  .text.sha224_inc_init:0000000000000000 sha224_inc_init
     /tmp/ccxnUvyY.s:13490  .text.sha224_inc_init:0000000000000034 $d
     /tmp/ccxnUvyY.s:13493  .text.sha256_inc_init:0000000000000000 $t
     /tmp/ccxnUvyY.s:13500  .text.sha256_inc_init:0000000000000000 sha256_inc_init
     /tmp/ccxnUvyY.s:13532  .text.sha256_inc_init:0000000000000034 $d
     /tmp/ccxnUvyY.s:13535  .text.sha384_inc_init:0000000000000000 $t
     /tmp/ccxnUvyY.s:13542  .text.sha384_inc_init:0000000000000000 sha384_inc_init
     /tmp/ccxnUvyY.s:13574  .text.sha384_inc_init:0000000000000034 $d
     /tmp/ccxnUvyY.s:13577  .text.sha512_inc_init:0000000000000000 $t
     /tmp/ccxnUvyY.s:13584  .text.sha512_inc_init:0000000000000000 sha512_inc_init
     /tmp/ccxnUvyY.s:13616  .text.sha512_inc_init:0000000000000034 $d
     /tmp/ccxnUvyY.s:13619  .text.sha224_inc_ctx_clone:0000000000000000 $t
     /tmp/ccxnUvyY.s:13626  .text.sha224_inc_ctx_clone:0000000000000000 sha224_inc_ctx_clone
     /tmp/ccxnUvyY.s:13654  .text.sha256_inc_ctx_clone:0000000000000000 $t
     /tmp/ccxnUvyY.s:13661  .text.sha256_inc_ctx_clone:0000000000000000 sha256_inc_ctx_clone
     /tmp/ccxnUvyY.s:13689  .text.sha384_inc_ctx_clone:0000000000000000 $t
     /tmp/ccxnUvyY.s:13696  .text.sha384_inc_ctx_clone:0000000000000000 sha384_inc_ctx_clone
     /tmp/ccxnUvyY.s:13715  .text.sha512_inc_ctx_clone:0000000000000000 $t
     /tmp/ccxnUvyY.s:13722  .text.sha512_inc_ctx_clone:0000000000000000 sha512_inc_ctx_clone
     /tmp/ccxnUvyY.s:13741  .text.sha224_inc_ctx_release:0000000000000000 $t
     /tmp/ccxnUvyY.s:13748  .text.sha224_inc_ctx_release:0000000000000000 sha224_inc_ctx_release
     /tmp/ccxnUvyY.s:13756  .text.sha256_inc_ctx_release:0000000000000000 $t
     /tmp/ccxnUvyY.s:13763  .text.sha256_inc_ctx_release:0000000000000000 sha256_inc_ctx_release
     /tmp/ccxnUvyY.s:13771  .text.sha384_inc_ctx_release:0000000000000000 $t
     /tmp/ccxnUvyY.s:13778  .text.sha384_inc_ctx_release:0000000000000000 sha384_inc_ctx_release
     /tmp/ccxnUvyY.s:13786  .text.sha512_inc_ctx_release:0000000000000000 $t
     /tmp/ccxnUvyY.s:13793  .text.sha512_inc_ctx_release:0000000000000000 sha512_inc_ctx_release
     /tmp/ccxnUvyY.s:13801  .text.sha256_inc_blocks:0000000000000000 $t
     /tmp/ccxnUvyY.s:13808  .text.sha256_inc_blocks:0000000000000000 sha256_inc_blocks
     /tmp/ccxnUvyY.s:13832  .text.sha224_inc_blocks:0000000000000000 $t
     /tmp/ccxnUvyY.s:13839  .text.sha224_inc_blocks:0000000000000000 sha224_inc_blocks
     /tmp/ccxnUvyY.s:13846  .text.sha512_inc_blocks:0000000000000000 $t
     /tmp/ccxnUvyY.s:13853  .text.sha512_inc_blocks:0000000000000000 sha512_inc_blocks
     /tmp/ccxnUvyY.s:13877  .text.sha384_inc_blocks:0000000000000000 $t
     /tmp/ccxnUvyY.s:13884  .text.sha384_inc_blocks:0000000000000000 sha384_inc_blocks
     /tmp/ccxnUvyY.s:13891  .text.sha256_inc_finalize:0000000000000000 $t
     /tmp/ccxnUvyY.s:13898  .text.sha256_inc_finalize:0000000000000000 sha256_inc_finalize
     /tmp/ccxnUvyY.s:13994  .text.sha224_inc_finalize:0000000000000000 $t
     /tmp/ccxnUvyY.s:14001  .text.sha224_inc_finalize:0000000000000000 sha224_inc_finalize
     /tmp/ccxnUvyY.s:14028  .text.sha512_inc_finalize:0000000000000000 $t
     /tmp/ccxnUvyY.s:14035  .text.sha512_inc_finalize:0000000000000000 sha512_inc_finalize
     /tmp/ccxnUvyY.s:14133  .text.sha384_inc_finalize:0000000000000000 $t
     /tmp/ccxnUvyY.s:14140  .text.sha384_inc_finalize:0000000000000000 sha384_inc_finalize
ARM GAS  /tmp/ccxnUvyY.s 			page 254


     /tmp/ccxnUvyY.s:14165  .text.sha224:0000000000000000 $t
     /tmp/ccxnUvyY.s:14172  .text.sha224:0000000000000000 sha224
     /tmp/ccxnUvyY.s:14192  .text.sha256:0000000000000000 $t
     /tmp/ccxnUvyY.s:14199  .text.sha256:0000000000000000 sha256
     /tmp/ccxnUvyY.s:14219  .text.sha384:0000000000000000 $t
     /tmp/ccxnUvyY.s:14226  .text.sha384:0000000000000000 sha384
     /tmp/ccxnUvyY.s:14246  .text.sha512:0000000000000000 $t
     /tmp/ccxnUvyY.s:14253  .text.sha512:0000000000000000 sha512
     /tmp/ccxnUvyY.s:14276  .rodata.iv_224:0000000000000000 iv_224
     /tmp/ccxnUvyY.s:14283  .rodata.iv_256:0000000000000000 iv_256
     /tmp/ccxnUvyY.s:14290  .rodata.iv_384:0000000000000000 iv_384
     /tmp/ccxnUvyY.s:14299  .rodata.iv_512:0000000000000000 iv_512

UNDEFINED SYMBOLS
malloc
exit
memcpy
free
memset
