ARM GAS  /tmp/ccxnUvyY.s 			page 1


   1              		.cpu cortex-m33
   2              		.eabi_attribute 27, 1
   3              		.eabi_attribute 28, 1
   4              		.eabi_attribute 20, 1
   5              		.eabi_attribute 21, 1
   6              		.eabi_attribute 23, 3
   7              		.eabi_attribute 24, 1
   8              		.eabi_attribute 25, 1
   9              		.eabi_attribute 26, 1
  10              		.eabi_attribute 30, 4
  11              		.eabi_attribute 34, 1
  12              		.eabi_attribute 18, 4
  13              		.file	"sha2.c"
  14              		.text
  15              		.section	.text.load_bigendian_32,"ax",%progbits
  16              		.align	1
  17              		.arch armv8-m.main
  18              		.arch_extension dsp
  19              		.syntax unified
  20              		.thumb
  21              		.thumb_func
  22              		.fpu fpv4-sp-d16
  24              	load_bigendian_32:
  25              		@ args = 0, pretend = 0, frame = 0
  26              		@ frame_needed = 0, uses_anonymous_args = 0
  27              		@ link register save eliminated.
  28 0000 0068     		ldr	r0, [r0]	@ unaligned
  29 0002 00BA     		rev	r0, r0
  30 0004 7047     		bx	lr
  32              		.section	.text.load_bigendian_64,"ax",%progbits
  33              		.align	1
  34              		.syntax unified
  35              		.thumb
  36              		.thumb_func
  37              		.fpu fpv4-sp-d16
  39              	load_bigendian_64:
  40              		@ args = 0, pretend = 0, frame = 0
  41              		@ frame_needed = 0, uses_anonymous_args = 0
  42              		@ link register save eliminated.
  43 0000 0168     		ldr	r1, [r0]	@ unaligned
  44 0002 4068     		ldr	r0, [r0, #4]	@ unaligned
  45 0004 09BA     		rev	r1, r1
  46 0006 00BA     		rev	r0, r0
  47 0008 7047     		bx	lr
  49              		.section	.text.store_bigendian_64,"ax",%progbits
  50              		.align	1
  51              		.syntax unified
  52              		.thumb
  53              		.thumb_func
  54              		.fpu fpv4-sp-d16
  56              	store_bigendian_64:
  57              		@ args = 0, pretend = 0, frame = 0
  58              		@ frame_needed = 0, uses_anonymous_args = 0
  59              		@ link register save eliminated.
  60 0000 110A     		lsrs	r1, r2, #8
  61 0002 C271     		strb	r2, [r0, #7]
  62 0004 8171     		strb	r1, [r0, #6]
ARM GAS  /tmp/ccxnUvyY.s 			page 2


  63 0006 110C     		lsrs	r1, r2, #16
  64 0008 120E     		lsrs	r2, r2, #24
  65 000a 0271     		strb	r2, [r0, #4]
  66 000c 1A0A     		lsrs	r2, r3, #8
  67 000e C370     		strb	r3, [r0, #3]
  68 0010 8270     		strb	r2, [r0, #2]
  69 0012 1A0C     		lsrs	r2, r3, #16
  70 0014 1B0E     		lsrs	r3, r3, #24
  71 0016 4171     		strb	r1, [r0, #5]
  72 0018 4270     		strb	r2, [r0, #1]
  73 001a 0370     		strb	r3, [r0]
  74 001c 7047     		bx	lr
  76              		.section	.text.crypto_hashblocks_sha512.isra.0,"ax",%progbits
  77              		.align	1
  78              		.syntax unified
  79              		.thumb
  80              		.thumb_func
  81              		.fpu fpv4-sp-d16
  83              	crypto_hashblocks_sha512.isra.0:
  84              		@ args = 0, pretend = 0, frame = 296
  85              		@ frame_needed = 0, uses_anonymous_args = 0
  86 0000 2DE9F04F 		push	{r4, r5, r6, r7, r8, r9, r10, fp, lr}
  87 0004 CBB0     		sub	sp, sp, #300
  88 0006 3490     		str	r0, [sp, #208]
  89 0008 0191     		str	r1, [sp, #4]
  90 000a FFF7FEFF 		bl	load_bigendian_64
  91 000e 349B     		ldr	r3, [sp, #208]
  92 0010 CDE90401 		strd	r0, r1, [sp, #16]
  93 0014 0833     		adds	r3, r3, #8
  94 0016 1846     		mov	r0, r3
  95 0018 FFF7FEFF 		bl	load_bigendian_64
  96 001c 07EE903A 		vmov	s15, r3	@ int
  97 0020 349B     		ldr	r3, [sp, #208]
  98 0022 CDE93501 		strd	r0, r1, [sp, #212]
  99 0026 1033     		adds	r3, r3, #16
 100 0028 1846     		mov	r0, r3
 101 002a FFF7FEFF 		bl	load_bigendian_64
 102 002e 07EE103A 		vmov	s14, r3	@ int
 103 0032 349B     		ldr	r3, [sp, #208]
 104 0034 CDE93F01 		strd	r0, r1, [sp, #252]
 105 0038 1833     		adds	r3, r3, #24
 106 003a 1846     		mov	r0, r3
 107 003c FFF7FEFF 		bl	load_bigendian_64
 108 0040 06EE903A 		vmov	s13, r3	@ int
 109 0044 349B     		ldr	r3, [sp, #208]
 110 0046 CDE94701 		strd	r0, r1, [sp, #284]
 111 004a 2033     		adds	r3, r3, #32
 112 004c 1846     		mov	r0, r3
 113 004e FFF7FEFF 		bl	load_bigendian_64
 114 0052 06EE103A 		vmov	s12, r3	@ int
 115 0056 349B     		ldr	r3, [sp, #208]
 116 0058 CDE91401 		strd	r0, r1, [sp, #80]
 117 005c 2833     		adds	r3, r3, #40
 118 005e 1846     		mov	r0, r3
 119 0060 FFF7FEFF 		bl	load_bigendian_64
 120 0064 05EE903A 		vmov	s11, r3	@ int
 121 0068 349B     		ldr	r3, [sp, #208]
ARM GAS  /tmp/ccxnUvyY.s 			page 3


 122 006a CDE93D01 		strd	r0, r1, [sp, #244]
 123 006e 3033     		adds	r3, r3, #48
 124 0070 1846     		mov	r0, r3
 125 0072 FFF7FEFF 		bl	load_bigendian_64
 126 0076 05EE103A 		vmov	s10, r3	@ int
 127 007a 349B     		ldr	r3, [sp, #208]
 128 007c CDE94301 		strd	r0, r1, [sp, #268]
 129 0080 3833     		adds	r3, r3, #56
 130 0082 1846     		mov	r0, r3
 131 0084 FFF7FEFF 		bl	load_bigendian_64
 132 0088 04EE903A 		vmov	s9, r3	@ int
 133 008c 019B     		ldr	r3, [sp, #4]
 134 008e 22F07F02 		bic	r2, r2, #127
 135 0092 CDE94501 		strd	r0, r1, [sp, #276]
 136 0096 1344     		add	r3, r3, r2
 137 0098 4993     		str	r3, [sp, #292]
 138              	.L5:
 139 009a 019B     		ldr	r3, [sp, #4]
 140 009c 499A     		ldr	r2, [sp, #292]
 141 009e 9342     		cmp	r3, r2
 142 00a0 31D1     		bne	.L6
 143 00a2 DDE90423 		ldrd	r2, r3, [sp, #16]
 144 00a6 3498     		ldr	r0, [sp, #208]
 145 00a8 FFF7FEFF 		bl	store_bigendian_64
 146 00ac DDE93523 		ldrd	r2, r3, [sp, #212]
 147 00b0 17EE900A 		vmov	r0, s15	@ int
 148 00b4 FFF7FEFF 		bl	store_bigendian_64
 149 00b8 DDE93F23 		ldrd	r2, r3, [sp, #252]
 150 00bc 17EE100A 		vmov	r0, s14	@ int
 151 00c0 FFF7FEFF 		bl	store_bigendian_64
 152 00c4 DDE94723 		ldrd	r2, r3, [sp, #284]
 153 00c8 16EE900A 		vmov	r0, s13	@ int
 154 00cc FFF7FEFF 		bl	store_bigendian_64
 155 00d0 DDE91423 		ldrd	r2, r3, [sp, #80]
 156 00d4 16EE100A 		vmov	r0, s12	@ int
 157 00d8 FFF7FEFF 		bl	store_bigendian_64
 158 00dc DDE93D23 		ldrd	r2, r3, [sp, #244]
 159 00e0 15EE900A 		vmov	r0, s11	@ int
 160 00e4 FFF7FEFF 		bl	store_bigendian_64
 161 00e8 DDE94323 		ldrd	r2, r3, [sp, #268]
 162 00ec 15EE100A 		vmov	r0, s10	@ int
 163 00f0 FFF7FEFF 		bl	store_bigendian_64
 164 00f4 DDE94523 		ldrd	r2, r3, [sp, #276]
 165 00f8 14EE900A 		vmov	r0, s9	@ int
 166 00fc 4BB0     		add	sp, sp, #300
 167              		@ sp needed
 168 00fe BDE8F04F 		pop	{r4, r5, r6, r7, r8, r9, r10, fp, lr}
 169 0102 FFF7FEBF 		b	store_bigendian_64
 170              	.L6:
 171 0106 0198     		ldr	r0, [sp, #4]
 172 0108 FFF7FEFF 		bl	load_bigendian_64
 173 010c 019B     		ldr	r3, [sp, #4]
 174 010e 1890     		str	r0, [sp, #96]
 175 0110 03F10800 		add	r0, r3, #8
 176 0114 3B91     		str	r1, [sp, #236]
 177 0116 FFF7FEFF 		bl	load_bigendian_64
 178 011a 3090     		str	r0, [sp, #192]
ARM GAS  /tmp/ccxnUvyY.s 			page 4


 179 011c 03F11000 		add	r0, r3, #16
 180 0120 1991     		str	r1, [sp, #100]
 181 0122 FFF7FEFF 		bl	load_bigendian_64
 182 0126 3190     		str	r0, [sp, #196]
 183 0128 03F11800 		add	r0, r3, #24
 184 012c 1A91     		str	r1, [sp, #104]
 185 012e FFF7FEFF 		bl	load_bigendian_64
 186 0132 3290     		str	r0, [sp, #200]
 187 0134 03F12000 		add	r0, r3, #32
 188 0138 1B91     		str	r1, [sp, #108]
 189 013a FFF7FEFF 		bl	load_bigendian_64
 190 013e 3390     		str	r0, [sp, #204]
 191 0140 03F12800 		add	r0, r3, #40
 192 0144 1C91     		str	r1, [sp, #112]
 193 0146 FFF7FEFF 		bl	load_bigendian_64
 194 014a 3790     		str	r0, [sp, #220]
 195 014c 03F13000 		add	r0, r3, #48
 196 0150 1D91     		str	r1, [sp, #116]
 197 0152 FFF7FEFF 		bl	load_bigendian_64
 198 0156 3890     		str	r0, [sp, #224]
 199 0158 03F13800 		add	r0, r3, #56
 200 015c 1E91     		str	r1, [sp, #120]
 201 015e FFF7FEFF 		bl	load_bigendian_64
 202 0162 3990     		str	r0, [sp, #228]
 203 0164 03F14000 		add	r0, r3, #64
 204 0168 1F91     		str	r1, [sp, #124]
 205 016a FFF7FEFF 		bl	load_bigendian_64
 206 016e 3A90     		str	r0, [sp, #232]
 207 0170 03F14800 		add	r0, r3, #72
 208 0174 2091     		str	r1, [sp, #128]
 209 0176 FFF7FEFF 		bl	load_bigendian_64
 210 017a 2190     		str	r0, [sp, #132]
 211 017c 03F15000 		add	r0, r3, #80
 212 0180 1091     		str	r1, [sp, #64]
 213 0182 FFF7FEFF 		bl	load_bigendian_64
 214 0186 2290     		str	r0, [sp, #136]
 215 0188 03F15800 		add	r0, r3, #88
 216 018c 1191     		str	r1, [sp, #68]
 217 018e FFF7FEFF 		bl	load_bigendian_64
 218 0192 2390     		str	r0, [sp, #140]
 219 0194 03F16000 		add	r0, r3, #96
 220 0198 1291     		str	r1, [sp, #72]
 221 019a FFF7FEFF 		bl	load_bigendian_64
 222 019e 2490     		str	r0, [sp, #144]
 223 01a0 03F16800 		add	r0, r3, #104
 224 01a4 1391     		str	r1, [sp, #76]
 225 01a6 FFF7FEFF 		bl	load_bigendian_64
 226 01aa 2F90     		str	r0, [sp, #188]
 227 01ac 03F17000 		add	r0, r3, #112
 228 01b0 2591     		str	r1, [sp, #148]
 229 01b2 FFF7FEFF 		bl	load_bigendian_64
 230 01b6 1690     		str	r0, [sp, #88]
 231 01b8 03F17800 		add	r0, r3, #120
 232 01bc 0291     		str	r1, [sp, #8]
 233 01be FFF7FEFF 		bl	load_bigendian_64
 234 01c2 149B     		ldr	r3, [sp, #80]
 235 01c4 0391     		str	r1, [sp, #12]
ARM GAS  /tmp/ccxnUvyY.s 			page 5


 236 01c6 990B     		lsrs	r1, r3, #14
 237 01c8 159B     		ldr	r3, [sp, #84]
 238 01ca 1790     		str	r0, [sp, #92]
 239 01cc 41EA8341 		orr	r1, r1, r3, lsl #18
 240 01d0 980B     		lsrs	r0, r3, #14
 241 01d2 149B     		ldr	r3, [sp, #80]
 242 01d4 159A     		ldr	r2, [sp, #84]
 243 01d6 40EA8344 		orr	r4, r0, r3, lsl #18
 244 01da 9B0C     		lsrs	r3, r3, #18
 245 01dc 43EA8235 		orr	r5, r3, r2, lsl #14
 246 01e0 149B     		ldr	r3, [sp, #80]
 247 01e2 900C     		lsrs	r0, r2, #18
 248 01e4 40EA8332 		orr	r2, r0, r3, lsl #14
 249 01e8 84EA0200 		eor	r0, r4, r2
 250 01ec 159A     		ldr	r2, [sp, #84]
 251 01ee 81EA0503 		eor	r3, r1, r5
 252 01f2 1499     		ldr	r1, [sp, #80]
 253 01f4 159C     		ldr	r4, [sp, #84]
 254 01f6 D205     		lsls	r2, r2, #23
 255 01f8 42EA5122 		orr	r2, r2, r1, lsr #9
 256 01fc C905     		lsls	r1, r1, #23
 257 01fe 41EA5421 		orr	r1, r1, r4, lsr #9
 258 0202 5940     		eors	r1, r1, r3
 259 0204 4240     		eors	r2, r2, r0
 260 0206 459B     		ldr	r3, [sp, #276]
 261 0208 CF48     		ldr	r0, .L7
 262 020a 469C     		ldr	r4, [sp, #280]
 263 020c 1B18     		adds	r3, r3, r0
 264 020e CF48     		ldr	r0, .L7+4
 265 0210 40EB0400 		adc	r0, r0, r4
 266 0214 C918     		adds	r1, r1, r3
 267 0216 42EB0002 		adc	r2, r2, r0
 268 021a 439B     		ldr	r3, [sp, #268]
 269 021c 1498     		ldr	r0, [sp, #80]
 270 021e 23EA0003 		bic	r3, r3, r0
 271 0222 4498     		ldr	r0, [sp, #272]
 272 0224 159C     		ldr	r4, [sp, #84]
 273 0226 3D9D     		ldr	r5, [sp, #244]
 274 0228 20EA0400 		bic	r0, r0, r4
 275 022c 149C     		ldr	r4, [sp, #80]
 276 022e 3E9E     		ldr	r6, [sp, #248]
 277 0230 2540     		ands	r5, r5, r4
 278 0232 159C     		ldr	r4, [sp, #84]
 279 0234 6B40     		eors	r3, r3, r5
 280 0236 3440     		ands	r4, r4, r6
 281 0238 CB18     		adds	r3, r1, r3
 282 023a 1899     		ldr	r1, [sp, #96]
 283 023c 80EA0400 		eor	r0, r0, r4
 284 0240 42EB0002 		adc	r2, r2, r0
 285 0244 5B18     		adds	r3, r3, r1
 286 0246 3B99     		ldr	r1, [sp, #236]
 287 0248 0598     		ldr	r0, [sp, #20]
 288 024a 41EB0202 		adc	r2, r1, r2
 289 024e 0499     		ldr	r1, [sp, #16]
 290 0250 050F     		lsrs	r5, r0, #28
 291 0252 090F     		lsrs	r1, r1, #28
 292 0254 41EA0011 		orr	r1, r1, r0, lsl #4
ARM GAS  /tmp/ccxnUvyY.s 			page 6


 293 0258 0498     		ldr	r0, [sp, #16]
 294 025a 049C     		ldr	r4, [sp, #16]
 295 025c 45EA0015 		orr	r5, r5, r0, lsl #4
 296 0260 0598     		ldr	r0, [sp, #20]
 297 0262 059E     		ldr	r6, [sp, #20]
 298 0264 8007     		lsls	r0, r0, #30
 299 0266 40EA9400 		orr	r0, r0, r4, lsr #2
 300 026a A407     		lsls	r4, r4, #30
 301 026c 44EA9604 		orr	r4, r4, r6, lsr #2
 302 0270 6140     		eors	r1, r1, r4
 303 0272 049C     		ldr	r4, [sp, #16]
 304 0274 4540     		eors	r5, r5, r0
 305 0276 7006     		lsls	r0, r6, #25
 306 0278 40EAD410 		orr	r0, r0, r4, lsr #7
 307 027c 6406     		lsls	r4, r4, #25
 308 027e 44EAD614 		orr	r4, r4, r6, lsr #7
 309 0282 81EA040C 		eor	ip, r1, r4
 310 0286 4540     		eors	r5, r5, r0
 311 0288 3F9C     		ldr	r4, [sp, #252]
 312 028a 3598     		ldr	r0, [sp, #212]
 313 028c 3F9F     		ldr	r7, [sp, #252]
 314 028e 80EA0406 		eor	r6, r0, r4
 315 0292 409C     		ldr	r4, [sp, #256]
 316 0294 3698     		ldr	r0, [sp, #216]
 317 0296 4099     		ldr	r1, [sp, #256]
 318 0298 6040     		eors	r0, r0, r4
 319 029a 049C     		ldr	r4, [sp, #16]
 320 029c 2640     		ands	r6, r6, r4
 321 029e 059C     		ldr	r4, [sp, #20]
 322 02a0 2040     		ands	r0, r0, r4
 323 02a2 359C     		ldr	r4, [sp, #212]
 324 02a4 3C40     		ands	r4, r4, r7
 325 02a6 369F     		ldr	r7, [sp, #216]
 326 02a8 7440     		eors	r4, r4, r6
 327 02aa 0F40     		ands	r7, r7, r1
 328 02ac 7840     		eors	r0, r0, r7
 329 02ae 1CEB0401 		adds	r1, ip, r4
 330 02b2 45EB0005 		adc	r5, r5, r0
 331 02b6 4798     		ldr	r0, [sp, #284]
 332 02b8 13EB000E 		adds	lr, r3, r0
 333 02bc 4898     		ldr	r0, [sp, #288]
 334 02be 42EB0000 		adc	r0, r2, r0
 335 02c2 13EB010A 		adds	r10, r3, r1
 336 02c6 42EB050B 		adc	fp, r2, r5
 337 02ca 4FEA9038 		lsr	r8, r0, #14
 338 02ce 820C     		lsrs	r2, r0, #18
 339 02d0 42EA8E32 		orr	r2, r2, lr, lsl #14
 340 02d4 48EA8E48 		orr	r8, r8, lr, lsl #18
 341 02d8 4FEA9E33 		lsr	r3, lr, #14
 342 02dc 4FEA9E41 		lsr	r1, lr, #18
 343 02e0 88EA0208 		eor	r8, r8, r2
 344 02e4 C205     		lsls	r2, r0, #23
 345 02e6 41EA8031 		orr	r1, r1, r0, lsl #14
 346 02ea 42EA5E22 		orr	r2, r2, lr, lsr #9
 347 02ee 43EA8043 		orr	r3, r3, r0, lsl #18
 348 02f2 4B40     		eors	r3, r3, r1
 349 02f4 4FEACE55 		lsl	r5, lr, #23
ARM GAS  /tmp/ccxnUvyY.s 			page 7


 350 02f8 9549     		ldr	r1, .L7+8
 351 02fa 88EA0208 		eor	r8, r8, r2
 352 02fe 439A     		ldr	r2, [sp, #268]
 353 0300 45EA5025 		orr	r5, r5, r0, lsr #9
 354 0304 6B40     		eors	r3, r3, r5
 355 0306 5518     		adds	r5, r2, r1
 356 0308 4499     		ldr	r1, [sp, #272]
 357 030a 924A     		ldr	r2, .L7+12
 358 030c 0C90     		str	r0, [sp, #48]
 359 030e 42EB0102 		adc	r2, r2, r1
 360 0312 3099     		ldr	r1, [sp, #192]
 361 0314 6D18     		adds	r5, r5, r1
 362 0316 1999     		ldr	r1, [sp, #100]
 363 0318 41EB0202 		adc	r2, r1, r2
 364 031c 5B19     		adds	r3, r3, r5
 365 031e 48EB0208 		adc	r8, r8, r2
 366 0322 3D9A     		ldr	r2, [sp, #244]
 367 0324 0C99     		ldr	r1, [sp, #48]
 368 0326 22EA0E00 		bic	r0, r2, lr
 369 032a 3E9A     		ldr	r2, [sp, #248]
 370 032c 0C9C     		ldr	r4, [sp, #48]
 371 032e 22EA0102 		bic	r2, r2, r1
 372 0332 1499     		ldr	r1, [sp, #80]
 373 0334 359F     		ldr	r7, [sp, #212]
 374 0336 01EA0E05 		and	r5, r1, lr
 375 033a 1599     		ldr	r1, [sp, #84]
 376 033c 4540     		eors	r5, r5, r0
 377 033e 2140     		ands	r1, r1, r4
 378 0340 5B19     		adds	r3, r3, r5
 379 0342 82EA0102 		eor	r2, r2, r1
 380 0346 48EB0208 		adc	r8, r8, r2
 381 034a 4FEA1B70 		lsr	r0, fp, #28
 382 034e 4FEA1A72 		lsr	r2, r10, #28
 383 0352 4FEA8B71 		lsl	r1, fp, #30
 384 0356 4FEA8A75 		lsl	r5, r10, #30
 385 035a 41EA9A01 		orr	r1, r1, r10, lsr #2
 386 035e 45EA9B05 		orr	r5, r5, fp, lsr #2
 387 0362 42EA0B12 		orr	r2, r2, fp, lsl #4
 388 0366 40EA0A10 		orr	r0, r0, r10, lsl #4
 389 036a 6A40     		eors	r2, r2, r5
 390 036c 4840     		eors	r0, r0, r1
 391 036e 4FEA4A65 		lsl	r5, r10, #25
 392 0372 4FEA4B61 		lsl	r1, fp, #25
 393 0376 41EADA11 		orr	r1, r1, r10, lsr #7
 394 037a 45EADB15 		orr	r5, r5, fp, lsr #7
 395 037e 6A40     		eors	r2, r2, r5
 396 0380 4840     		eors	r0, r0, r1
 397 0382 359D     		ldr	r5, [sp, #212]
 398 0384 0499     		ldr	r1, [sp, #16]
 399 0386 369C     		ldr	r4, [sp, #216]
 400 0388 81EA0506 		eor	r6, r1, r5
 401 038c 369D     		ldr	r5, [sp, #216]
 402 038e 0599     		ldr	r1, [sp, #20]
 403 0390 06EA0A06 		and	r6, r6, r10
 404 0394 6940     		eors	r1, r1, r5
 405 0396 049D     		ldr	r5, [sp, #16]
 406 0398 01EA0B01 		and	r1, r1, fp
ARM GAS  /tmp/ccxnUvyY.s 			page 8


 407 039c 3D40     		ands	r5, r5, r7
 408 039e 059F     		ldr	r7, [sp, #20]
 409 03a0 7540     		eors	r5, r5, r6
 410 03a2 2740     		ands	r7, r7, r4
 411 03a4 5219     		adds	r2, r2, r5
 412 03a6 81EA0701 		eor	r1, r1, r7
 413 03aa 40EB0100 		adc	r0, r0, r1
 414 03ae 3F99     		ldr	r1, [sp, #252]
 415 03b0 3D9C     		ldr	r4, [sp, #244]
 416 03b2 CD18     		adds	r5, r1, r3
 417 03b4 4099     		ldr	r1, [sp, #256]
 418 03b6 4FEA9546 		lsr	r6, r5, #18
 419 03ba 41EB0801 		adc	r1, r1, r8
 420 03be 9B18     		adds	r3, r3, r2
 421 03c0 0693     		str	r3, [sp, #24]
 422 03c2 4FEA9132 		lsr	r2, r1, #14
 423 03c6 48EB0003 		adc	r3, r8, r0
 424 03ca 880C     		lsrs	r0, r1, #18
 425 03cc 40EA8530 		orr	r0, r0, r5, lsl #14
 426 03d0 42EA8542 		orr	r2, r2, r5, lsl #18
 427 03d4 4240     		eors	r2, r2, r0
 428 03d6 C805     		lsls	r0, r1, #23
 429 03d8 0793     		str	r3, [sp, #28]
 430 03da 40EA5520 		orr	r0, r0, r5, lsr #9
 431 03de AB0B     		lsrs	r3, r5, #14
 432 03e0 46EA8136 		orr	r6, r6, r1, lsl #14
 433 03e4 43EA8143 		orr	r3, r3, r1, lsl #18
 434 03e8 4FEAC55C 		lsl	ip, r5, #23
 435 03ec 4240     		eors	r2, r2, r0
 436 03ee 5A48     		ldr	r0, .L7+16
 437 03f0 4CEA512C 		orr	ip, ip, r1, lsr #9
 438 03f4 7340     		eors	r3, r3, r6
 439 03f6 83EA0C03 		eor	r3, r3, ip
 440 03fa 14EB000C 		adds	ip, r4, r0
 441 03fe 3E9C     		ldr	r4, [sp, #248]
 442 0400 5648     		ldr	r0, .L7+20
 443 0402 40EB0400 		adc	r0, r0, r4
 444 0406 319C     		ldr	r4, [sp, #196]
 445 0408 1CEB040C 		adds	ip, ip, r4
 446 040c 1A9C     		ldr	r4, [sp, #104]
 447 040e 44EB0000 		adc	r0, r4, r0
 448 0412 13EB0C03 		adds	r3, r3, ip
 449 0416 42EB0002 		adc	r2, r2, r0
 450 041a 1498     		ldr	r0, [sp, #80]
 451 041c 0C9C     		ldr	r4, [sp, #48]
 452 041e 20EA0507 		bic	r7, r0, r5
 453 0422 1598     		ldr	r0, [sp, #84]
 454 0424 0EEA050C 		and	ip, lr, r5
 455 0428 04EA0106 		and	r6, r4, r1
 456 042c 87EA0C0C 		eor	ip, r7, ip
 457 0430 20EA0100 		bic	r0, r0, r1
 458 0434 13EB0C03 		adds	r3, r3, ip
 459 0438 80EA0600 		eor	r0, r0, r6
 460 043c 42EB0002 		adc	r2, r2, r0
 461 0440 0698     		ldr	r0, [sp, #24]
 462 0442 069C     		ldr	r4, [sp, #24]
 463 0444 4FEA107C 		lsr	ip, r0, #28
ARM GAS  /tmp/ccxnUvyY.s 			page 9


 464 0448 0798     		ldr	r0, [sp, #28]
 465 044a 4CEA001C 		orr	ip, ip, r0, lsl #4
 466 044e 000F     		lsrs	r0, r0, #28
 467 0450 40EA0410 		orr	r0, r0, r4, lsl #4
 468 0454 079C     		ldr	r4, [sp, #28]
 469 0456 A607     		lsls	r6, r4, #30
 470 0458 069C     		ldr	r4, [sp, #24]
 471 045a 46EA9406 		orr	r6, r6, r4, lsr #2
 472 045e A707     		lsls	r7, r4, #30
 473 0460 079C     		ldr	r4, [sp, #28]
 474 0462 7040     		eors	r0, r0, r6
 475 0464 47EA9407 		orr	r7, r7, r4, lsr #2
 476 0468 6606     		lsls	r6, r4, #25
 477 046a 069C     		ldr	r4, [sp, #24]
 478 046c 8CEA070C 		eor	ip, ip, r7
 479 0470 46EAD416 		orr	r6, r6, r4, lsr #7
 480 0474 6706     		lsls	r7, r4, #25
 481 0476 079C     		ldr	r4, [sp, #28]
 482 0478 7040     		eors	r0, r0, r6
 483 047a 47EAD417 		orr	r7, r7, r4, lsr #7
 484 047e 049C     		ldr	r4, [sp, #16]
 485 0480 8CEA070C 		eor	ip, ip, r7
 486 0484 84EA0A08 		eor	r8, r4, r10
 487 0488 059C     		ldr	r4, [sp, #20]
 488 048a 84EA0B06 		eor	r6, r4, fp
 489 048e 069C     		ldr	r4, [sp, #24]
 490 0490 08EA0408 		and	r8, r8, r4
 491 0494 079C     		ldr	r4, [sp, #28]
 492 0496 2640     		ands	r6, r6, r4
 493 0498 049C     		ldr	r4, [sp, #16]
 494 049a 04EA0A07 		and	r7, r4, r10
 495 049e 059C     		ldr	r4, [sp, #20]
 496 04a0 88EA0707 		eor	r7, r8, r7
 497 04a4 04EA0B09 		and	r9, r4, fp
 498 04a8 1CEB0707 		adds	r7, ip, r7
 499 04ac 86EA0906 		eor	r6, r6, r9
 500 04b0 40EB0606 		adc	r6, r0, r6
 501 04b4 3598     		ldr	r0, [sp, #212]
 502 04b6 149C     		ldr	r4, [sp, #80]
 503 04b8 10EB030C 		adds	ip, r0, r3
 504 04bc 3698     		ldr	r0, [sp, #216]
 505 04be 2EEA0C09 		bic	r9, lr, ip
 506 04c2 40EB0200 		adc	r0, r0, r2
 507 04c6 DB19     		adds	r3, r3, r7
 508 04c8 0893     		str	r3, [sp, #32]
 509 04ca 42EB0603 		adc	r3, r2, r6
 510 04ce 0993     		str	r3, [sp, #36]
 511 04d0 860C     		lsrs	r6, r0, #18
 512 04d2 830B     		lsrs	r3, r0, #14
 513 04d4 46EA8C36 		orr	r6, r6, ip, lsl #14
 514 04d8 43EA8C43 		orr	r3, r3, ip, lsl #18
 515 04dc 4FEA9C32 		lsr	r2, ip, #14
 516 04e0 4FEA9C47 		lsr	r7, ip, #18
 517 04e4 7340     		eors	r3, r3, r6
 518 04e6 C605     		lsls	r6, r0, #23
 519 04e8 47EA8037 		orr	r7, r7, r0, lsl #14
 520 04ec 46EA5C26 		orr	r6, r6, ip, lsr #9
ARM GAS  /tmp/ccxnUvyY.s 			page 10


 521 04f0 42EA8042 		orr	r2, r2, r0, lsl #18
 522 04f4 7A40     		eors	r2, r2, r7
 523 04f6 7340     		eors	r3, r3, r6
 524 04f8 4FEACC57 		lsl	r7, ip, #23
 525 04fc 184E     		ldr	r6, .L7+24
 526 04fe 47EA5027 		orr	r7, r7, r0, lsr #9
 527 0502 A619     		adds	r6, r4, r6
 528 0504 82EA0702 		eor	r2, r2, r7
 529 0508 159C     		ldr	r4, [sp, #84]
 530 050a 164F     		ldr	r7, .L7+28
 531 050c 01EA0008 		and	r8, r1, r0
 532 0510 47EB0407 		adc	r7, r7, r4
 533 0514 329C     		ldr	r4, [sp, #200]
 534 0516 3619     		adds	r6, r6, r4
 535 0518 1B9C     		ldr	r4, [sp, #108]
 536 051a 44EB0707 		adc	r7, r4, r7
 537 051e 0C9C     		ldr	r4, [sp, #48]
 538 0520 9219     		adds	r2, r2, r6
 539 0522 43EB0703 		adc	r3, r3, r7
 540 0526 05EA0C06 		and	r6, r5, ip
 541 052a 24EA0007 		bic	r7, r4, r0
 542 052e 089C     		ldr	r4, [sp, #32]
 543 0530 89EA0606 		eor	r6, r9, r6
 544 0534 9219     		adds	r2, r2, r6
 545 0536 4FEA1476 		lsr	r6, r4, #28
 546 053a 099C     		ldr	r4, [sp, #36]
 547 053c 87EA0807 		eor	r7, r7, r8
 548 0540 43EB0703 		adc	r3, r3, r7
 549 0544 10E0     		b	.L8
 550              	.L9:
 551 0546 00BF     		.align	2
 552              	.L7:
 553 0548 22AE28D7 		.word	-685199838
 554 054c 982F8A42 		.word	1116352408
 555 0550 CD65EF23 		.word	602891725
 556 0554 91443771 		.word	1899447441
 557 0558 2F3B4DEC 		.word	-330482897
 558 055c CFFBC0B5 		.word	-1245643825
 559 0560 BCDB8981 		.word	-2121671748
 560 0564 A5DBB5E9 		.word	-373957723
 561              	.L8:
 562 0568 46EA0416 		orr	r6, r6, r4, lsl #4
 563 056c 270F     		lsrs	r7, r4, #28
 564 056e 089C     		ldr	r4, [sp, #32]
 565 0570 47EA0417 		orr	r7, r7, r4, lsl #4
 566 0574 099C     		ldr	r4, [sp, #36]
 567 0576 4FEA8478 		lsl	r8, r4, #30
 568 057a 089C     		ldr	r4, [sp, #32]
 569 057c 48EA9408 		orr	r8, r8, r4, lsr #2
 570 0580 4FEA8479 		lsl	r9, r4, #30
 571 0584 099C     		ldr	r4, [sp, #36]
 572 0586 87EA0807 		eor	r7, r7, r8
 573 058a 49EA9409 		orr	r9, r9, r4, lsr #2
 574 058e 4FEA4468 		lsl	r8, r4, #25
 575 0592 089C     		ldr	r4, [sp, #32]
 576 0594 86EA0906 		eor	r6, r6, r9
 577 0598 48EAD418 		orr	r8, r8, r4, lsr #7
ARM GAS  /tmp/ccxnUvyY.s 			page 11


 578 059c 4FEA4469 		lsl	r9, r4, #25
 579 05a0 099C     		ldr	r4, [sp, #36]
 580 05a2 87EA0807 		eor	r7, r7, r8
 581 05a6 49EAD419 		orr	r9, r9, r4, lsr #7
 582 05aa 069C     		ldr	r4, [sp, #24]
 583 05ac 86EA0906 		eor	r6, r6, r9
 584 05b0 8AEA0409 		eor	r9, r10, r4
 585 05b4 079C     		ldr	r4, [sp, #28]
 586 05b6 8BEA0408 		eor	r8, fp, r4
 587 05ba 089C     		ldr	r4, [sp, #32]
 588 05bc 09EA0404 		and	r4, r9, r4
 589 05c0 0A94     		str	r4, [sp, #40]
 590 05c2 099C     		ldr	r4, [sp, #36]
 591 05c4 08EA0408 		and	r8, r8, r4
 592 05c8 069C     		ldr	r4, [sp, #24]
 593 05ca 0AEA0409 		and	r9, r10, r4
 594 05ce 079C     		ldr	r4, [sp, #28]
 595 05d0 0BEA0404 		and	r4, fp, r4
 596 05d4 0B94     		str	r4, [sp, #44]
 597 05d6 0A9C     		ldr	r4, [sp, #40]
 598 05d8 84EA0909 		eor	r9, r4, r9
 599 05dc 0B9C     		ldr	r4, [sp, #44]
 600 05de 16EB0909 		adds	r9, r6, r9
 601 05e2 88EA0408 		eor	r8, r8, r4
 602 05e6 049C     		ldr	r4, [sp, #16]
 603 05e8 47EB0808 		adc	r8, r7, r8
 604 05ec A718     		adds	r7, r4, r2
 605 05ee 059C     		ldr	r4, [sp, #20]
 606 05f0 44EB0304 		adc	r4, r4, r3
 607 05f4 12EB0902 		adds	r2, r2, r9
 608 05f8 43EB0803 		adc	r3, r3, r8
 609 05fc 0A92     		str	r2, [sp, #40]
 610 05fe 0B93     		str	r3, [sp, #44]
 611 0600 4FEA9738 		lsr	r8, r7, #14
 612 0604 4FEA9439 		lsr	r9, r4, #14
 613 0608 BB0C     		lsrs	r3, r7, #18
 614 060a A20C     		lsrs	r2, r4, #18
 615 060c 48EA8448 		orr	r8, r8, r4, lsl #18
 616 0610 42EA8732 		orr	r2, r2, r7, lsl #14
 617 0614 49EA8749 		orr	r9, r9, r7, lsl #18
 618 0618 43EA8433 		orr	r3, r3, r4, lsl #14
 619 061c 88EA0303 		eor	r3, r8, r3
 620 0620 89EA0209 		eor	r9, r9, r2
 621 0624 4FEAC758 		lsl	r8, r7, #23
 622 0628 E205     		lsls	r2, r4, #23
 623 062a 42EA5722 		orr	r2, r2, r7, lsr #9
 624 062e 48EA5428 		orr	r8, r8, r4, lsr #9
 625 0632 83EA0808 		eor	r8, r3, r8
 626 0636 89EA0209 		eor	r9, r9, r2
 627 063a 339B     		ldr	r3, [sp, #204]
 628 063c D04A     		ldr	r2, .L10
 629 063e 0E94     		str	r4, [sp, #56]
 630 0640 9A18     		adds	r2, r3, r2
 631 0642 1C9C     		ldr	r4, [sp, #112]
 632 0644 CF4B     		ldr	r3, .L10+4
 633 0646 0E9E     		ldr	r6, [sp, #56]
 634 0648 43EB0403 		adc	r3, r3, r4
ARM GAS  /tmp/ccxnUvyY.s 			page 12


 635 064c 1C46     		mov	r4, r3
 636 064e 12EB0E03 		adds	r3, r2, lr
 637 0652 2246     		mov	r2, r4
 638 0654 0C9C     		ldr	r4, [sp, #48]
 639 0656 44EB0204 		adc	r4, r4, r2
 640 065a 0E9A     		ldr	r2, [sp, #56]
 641 065c 18EB0303 		adds	r3, r8, r3
 642 0660 49EB0404 		adc	r4, r9, r4
 643 0664 21EA020E 		bic	lr, r1, r2
 644 0668 25EA0709 		bic	r9, r5, r7
 645 066c 0CEA0702 		and	r2, ip, r7
 646 0670 89EA0202 		eor	r2, r9, r2
 647 0674 9B18     		adds	r3, r3, r2
 648 0676 0A9A     		ldr	r2, [sp, #40]
 649 0678 00EA0608 		and	r8, r0, r6
 650 067c 8EEA080E 		eor	lr, lr, r8
 651 0680 4FEA1278 		lsr	r8, r2, #28
 652 0684 0B9A     		ldr	r2, [sp, #44]
 653 0686 0A9E     		ldr	r6, [sp, #40]
 654 0688 48EA0218 		orr	r8, r8, r2, lsl #4
 655 068c 4FEA1272 		lsr	r2, r2, #28
 656 0690 42EA0612 		orr	r2, r2, r6, lsl #4
 657 0694 0B9E     		ldr	r6, [sp, #44]
 658 0696 44EB0E04 		adc	r4, r4, lr
 659 069a 4FEA867E 		lsl	lr, r6, #30
 660 069e 0A9E     		ldr	r6, [sp, #40]
 661 06a0 4EEA960E 		orr	lr, lr, r6, lsr #2
 662 06a4 4FEA8679 		lsl	r9, r6, #30
 663 06a8 0B9E     		ldr	r6, [sp, #44]
 664 06aa 82EA0E02 		eor	r2, r2, lr
 665 06ae 49EA9609 		orr	r9, r9, r6, lsr #2
 666 06b2 4FEA466E 		lsl	lr, r6, #25
 667 06b6 0A9E     		ldr	r6, [sp, #40]
 668 06b8 88EA0908 		eor	r8, r8, r9
 669 06bc 4EEAD61E 		orr	lr, lr, r6, lsr #7
 670 06c0 4FEA4669 		lsl	r9, r6, #25
 671 06c4 0B9E     		ldr	r6, [sp, #44]
 672 06c6 82EA0E02 		eor	r2, r2, lr
 673 06ca 49EAD619 		orr	r9, r9, r6, lsr #7
 674 06ce 0C92     		str	r2, [sp, #48]
 675 06d0 069E     		ldr	r6, [sp, #24]
 676 06d2 089A     		ldr	r2, [sp, #32]
 677 06d4 88EA0908 		eor	r8, r8, r9
 678 06d8 86EA020E 		eor	lr, r6, r2
 679 06dc 079A     		ldr	r2, [sp, #28]
 680 06de 099E     		ldr	r6, [sp, #36]
 681 06e0 82EA0609 		eor	r9, r2, r6
 682 06e4 0A9A     		ldr	r2, [sp, #40]
 683 06e6 089E     		ldr	r6, [sp, #32]
 684 06e8 0EEA020E 		and	lr, lr, r2
 685 06ec 0B9A     		ldr	r2, [sp, #44]
 686 06ee 09EA0202 		and	r2, r9, r2
 687 06f2 0D92     		str	r2, [sp, #52]
 688 06f4 069A     		ldr	r2, [sp, #24]
 689 06f6 3240     		ands	r2, r2, r6
 690 06f8 0F92     		str	r2, [sp, #60]
 691 06fa 079A     		ldr	r2, [sp, #28]
ARM GAS  /tmp/ccxnUvyY.s 			page 13


 692 06fc 099E     		ldr	r6, [sp, #36]
 693 06fe 02EA0609 		and	r9, r2, r6
 694 0702 0F9A     		ldr	r2, [sp, #60]
 695 0704 379E     		ldr	r6, [sp, #220]
 696 0706 8EEA020E 		eor	lr, lr, r2
 697 070a 0D9A     		ldr	r2, [sp, #52]
 698 070c 18EB0E0E 		adds	lr, r8, lr
 699 0710 82EA0909 		eor	r9, r2, r9
 700 0714 0C9A     		ldr	r2, [sp, #48]
 701 0716 42EB0909 		adc	r9, r2, r9
 702 071a 1AEB030A 		adds	r10, r10, r3
 703 071e 4BEB040B 		adc	fp, fp, r4
 704 0722 13EB0E03 		adds	r3, r3, lr
 705 0726 0C93     		str	r3, [sp, #48]
 706 0728 44EB0903 		adc	r3, r4, r9
 707 072c 0D93     		str	r3, [sp, #52]
 708 072e 4FEA9A32 		lsr	r2, r10, #14
 709 0732 4FEA9A43 		lsr	r3, r10, #18
 710 0736 43EA8B33 		orr	r3, r3, fp, lsl #14
 711 073a 42EA8B42 		orr	r2, r2, fp, lsl #18
 712 073e 4FEA9B34 		lsr	r4, fp, #14
 713 0742 4FEA9B4E 		lsr	lr, fp, #18
 714 0746 5A40     		eors	r2, r2, r3
 715 0748 4FEACA53 		lsl	r3, r10, #23
 716 074c 4EEA8A3E 		orr	lr, lr, r10, lsl #14
 717 0750 43EA5B23 		orr	r3, r3, fp, lsr #9
 718 0754 44EA8A44 		orr	r4, r4, r10, lsl #18
 719 0758 5A40     		eors	r2, r2, r3
 720 075a 84EA0E04 		eor	r4, r4, lr
 721 075e 8A4B     		ldr	r3, .L10+8
 722 0760 4FEACB5E 		lsl	lr, fp, #23
 723 0764 4EEA5A2E 		orr	lr, lr, r10, lsr #9
 724 0768 F318     		adds	r3, r6, r3
 725 076a 84EA0E04 		eor	r4, r4, lr
 726 076e 1D9E     		ldr	r6, [sp, #116]
 727 0770 DFF828E2 		ldr	lr, .L10+28
 728 0774 4EEB060E 		adc	lr, lr, r6
 729 0778 5D19     		adds	r5, r3, r5
 730 077a 41EB0E01 		adc	r1, r1, lr
 731 077e 5519     		adds	r5, r2, r5
 732 0780 44EB0101 		adc	r1, r4, r1
 733 0784 0E9C     		ldr	r4, [sp, #56]
 734 0786 2CEA0A0E 		bic	lr, ip, r10
 735 078a 07EA0A03 		and	r3, r7, r10
 736 078e 20EA0B02 		bic	r2, r0, fp
 737 0792 04EA0B04 		and	r4, r4, fp
 738 0796 8EEA0303 		eor	r3, lr, r3
 739 079a EB18     		adds	r3, r5, r3
 740 079c 82EA0402 		eor	r2, r2, r4
 741 07a0 41EB0201 		adc	r1, r1, r2
 742 07a4 0C9A     		ldr	r2, [sp, #48]
 743 07a6 0D9C     		ldr	r4, [sp, #52]
 744 07a8 120F     		lsrs	r2, r2, #28
 745 07aa 42EA0412 		orr	r2, r2, r4, lsl #4
 746 07ae 4FEA147E 		lsr	lr, r4, #28
 747 07b2 0C9C     		ldr	r4, [sp, #48]
 748 07b4 0C9D     		ldr	r5, [sp, #48]
ARM GAS  /tmp/ccxnUvyY.s 			page 14


 749 07b6 4EEA041E 		orr	lr, lr, r4, lsl #4
 750 07ba 0D9C     		ldr	r4, [sp, #52]
 751 07bc 0D9E     		ldr	r6, [sp, #52]
 752 07be A407     		lsls	r4, r4, #30
 753 07c0 44EA9504 		orr	r4, r4, r5, lsr #2
 754 07c4 AD07     		lsls	r5, r5, #30
 755 07c6 45EA9605 		orr	r5, r5, r6, lsr #2
 756 07ca 6A40     		eors	r2, r2, r5
 757 07cc 0C9D     		ldr	r5, [sp, #48]
 758 07ce 8EEA040E 		eor	lr, lr, r4
 759 07d2 7406     		lsls	r4, r6, #25
 760 07d4 44EAD514 		orr	r4, r4, r5, lsr #7
 761 07d8 6D06     		lsls	r5, r5, #25
 762 07da 45EAD615 		orr	r5, r5, r6, lsr #7
 763 07de 6A40     		eors	r2, r2, r5
 764 07e0 8EEA040E 		eor	lr, lr, r4
 765 07e4 0A9D     		ldr	r5, [sp, #40]
 766 07e6 089C     		ldr	r4, [sp, #32]
 767 07e8 0F92     		str	r2, [sp, #60]
 768 07ea 84EA0508 		eor	r8, r4, r5
 769 07ee 0B9D     		ldr	r5, [sp, #44]
 770 07f0 099C     		ldr	r4, [sp, #36]
 771 07f2 0B9A     		ldr	r2, [sp, #44]
 772 07f4 6C40     		eors	r4, r4, r5
 773 07f6 0C9D     		ldr	r5, [sp, #48]
 774 07f8 3440     		ands	r4, r4, r6
 775 07fa 08EA0508 		and	r8, r8, r5
 776 07fe 0A9E     		ldr	r6, [sp, #40]
 777 0800 089D     		ldr	r5, [sp, #32]
 778 0802 3540     		ands	r5, r5, r6
 779 0804 099E     		ldr	r6, [sp, #36]
 780 0806 88EA0505 		eor	r5, r8, r5
 781 080a 06EA0209 		and	r9, r6, r2
 782 080e 0F9A     		ldr	r2, [sp, #60]
 783 0810 84EA0904 		eor	r4, r4, r9
 784 0814 5219     		adds	r2, r2, r5
 785 0816 4EEB040E 		adc	lr, lr, r4
 786 081a 069C     		ldr	r4, [sp, #24]
 787 081c E518     		adds	r5, r4, r3
 788 081e 079C     		ldr	r4, [sp, #28]
 789 0820 44EB0108 		adc	r8, r4, r1
 790 0824 9B18     		adds	r3, r3, r2
 791 0826 0693     		str	r3, [sp, #24]
 792 0828 41EB0E03 		adc	r3, r1, lr
 793 082c AC0C     		lsrs	r4, r5, #18
 794 082e 4FEA9842 		lsr	r2, r8, #18
 795 0832 0793     		str	r3, [sp, #28]
 796 0834 4FEA9831 		lsr	r1, r8, #14
 797 0838 AB0B     		lsrs	r3, r5, #14
 798 083a 43EA8843 		orr	r3, r3, r8, lsl #18
 799 083e 41EA8541 		orr	r1, r1, r5, lsl #18
 800 0842 44EA8839 		orr	r9, r4, r8, lsl #14
 801 0846 42EA853E 		orr	lr, r2, r5, lsl #14
 802 084a 83EA0904 		eor	r4, r3, r9
 803 084e 81EA0E02 		eor	r2, r1, lr
 804 0852 EB05     		lsls	r3, r5, #23
 805 0854 4FEAC851 		lsl	r1, r8, #23
ARM GAS  /tmp/ccxnUvyY.s 			page 15


 806 0858 41EA5521 		orr	r1, r1, r5, lsr #9
 807 085c 43EA5823 		orr	r3, r3, r8, lsr #9
 808 0860 6340     		eors	r3, r3, r4
 809 0862 5140     		eors	r1, r1, r2
 810 0864 494C     		ldr	r4, .L10+12
 811 0866 389A     		ldr	r2, [sp, #224]
 812 0868 1E9E     		ldr	r6, [sp, #120]
 813 086a 1419     		adds	r4, r2, r4
 814 086c 484A     		ldr	r2, .L10+16
 815 086e 42EB0602 		adc	r2, r2, r6
 816 0872 14EB0C04 		adds	r4, r4, ip
 817 0876 40EB0202 		adc	r2, r0, r2
 818 087a 1C19     		adds	r4, r3, r4
 819 087c 0E9B     		ldr	r3, [sp, #56]
 820 087e 41EB0202 		adc	r2, r1, r2
 821 0882 23EA0800 		bic	r0, r3, r8
 822 0886 27EA0501 		bic	r1, r7, r5
 823 088a 0BEA0803 		and	r3, fp, r8
 824 088e 0AEA050C 		and	ip, r10, r5
 825 0892 81EA0C0C 		eor	ip, r1, ip
 826 0896 5840     		eors	r0, r0, r3
 827 0898 069B     		ldr	r3, [sp, #24]
 828 089a 14EB0C04 		adds	r4, r4, ip
 829 089e 0799     		ldr	r1, [sp, #28]
 830 08a0 42EB0002 		adc	r2, r2, r0
 831 08a4 1B0F     		lsrs	r3, r3, #28
 832 08a6 0698     		ldr	r0, [sp, #24]
 833 08a8 43EA0113 		orr	r3, r3, r1, lsl #4
 834 08ac 090F     		lsrs	r1, r1, #28
 835 08ae 41EA0011 		orr	r1, r1, r0, lsl #4
 836 08b2 0798     		ldr	r0, [sp, #28]
 837 08b4 069E     		ldr	r6, [sp, #24]
 838 08b6 8007     		lsls	r0, r0, #30
 839 08b8 40EA9600 		orr	r0, r0, r6, lsr #2
 840 08bc 4FEA867C 		lsl	ip, r6, #30
 841 08c0 079E     		ldr	r6, [sp, #28]
 842 08c2 4140     		eors	r1, r1, r0
 843 08c4 4CEA960C 		orr	ip, ip, r6, lsr #2
 844 08c8 7006     		lsls	r0, r6, #25
 845 08ca 069E     		ldr	r6, [sp, #24]
 846 08cc 83EA0C03 		eor	r3, r3, ip
 847 08d0 40EAD610 		orr	r0, r0, r6, lsr #7
 848 08d4 4FEA466C 		lsl	ip, r6, #25
 849 08d8 079E     		ldr	r6, [sp, #28]
 850 08da 4140     		eors	r1, r1, r0
 851 08dc 4CEAD61C 		orr	ip, ip, r6, lsr #7
 852 08e0 0A98     		ldr	r0, [sp, #40]
 853 08e2 0C9E     		ldr	r6, [sp, #48]
 854 08e4 83EA0C03 		eor	r3, r3, ip
 855 08e8 80EA060E 		eor	lr, r0, r6
 856 08ec 0D9E     		ldr	r6, [sp, #52]
 857 08ee 0B98     		ldr	r0, [sp, #44]
 858 08f0 0F93     		str	r3, [sp, #60]
 859 08f2 7040     		eors	r0, r0, r6
 860 08f4 069E     		ldr	r6, [sp, #24]
 861 08f6 0C9B     		ldr	r3, [sp, #48]
 862 08f8 0EEA060E 		and	lr, lr, r6
ARM GAS  /tmp/ccxnUvyY.s 			page 16


 863 08fc 079E     		ldr	r6, [sp, #28]
 864 08fe 3040     		ands	r0, r0, r6
 865 0900 0A9E     		ldr	r6, [sp, #40]
 866 0902 06EA030C 		and	ip, r6, r3
 867 0906 0B9B     		ldr	r3, [sp, #44]
 868 0908 0D9E     		ldr	r6, [sp, #52]
 869 090a 8EEA0C0C 		eor	ip, lr, ip
 870 090e 03EA0609 		and	r9, r3, r6
 871 0912 0F9B     		ldr	r3, [sp, #60]
 872 0914 80EA0900 		eor	r0, r0, r9
 873 0918 13EB0C03 		adds	r3, r3, ip
 874 091c 41EB0000 		adc	r0, r1, r0
 875 0920 0899     		ldr	r1, [sp, #32]
 876 0922 11EB040C 		adds	ip, r1, r4
 877 0926 0999     		ldr	r1, [sp, #36]
 878 0928 41EB020E 		adc	lr, r1, r2
 879 092c 4FEA9E31 		lsr	r1, lr, #14
 880 0930 E318     		adds	r3, r4, r3
 881 0932 0893     		str	r3, [sp, #32]
 882 0934 41EA8C49 		orr	r9, r1, ip, lsl #18
 883 0938 42EB0003 		adc	r3, r2, r0
 884 093c 4FEA9C44 		lsr	r4, ip, #18
 885 0940 4FEA9E41 		lsr	r1, lr, #18
 886 0944 4FEA9C32 		lsr	r2, ip, #14
 887 0948 0993     		str	r3, [sp, #36]
 888 094a 42EA8E42 		orr	r2, r2, lr, lsl #18
 889 094e 44EA8E30 		orr	r0, r4, lr, lsl #14
 890 0952 41EA8C33 		orr	r3, r1, ip, lsl #14
 891 0956 89EA0301 		eor	r1, r9, r3
 892 095a 82EA0004 		eor	r4, r2, r0
 893 095e 4FEACE53 		lsl	r3, lr, #23
 894 0962 4FEACC50 		lsl	r0, ip, #23
 895 0966 40EA5E20 		orr	r0, r0, lr, lsr #9
 896 096a 43EA5C23 		orr	r3, r3, ip, lsr #9
 897 096e 84EA0002 		eor	r2, r4, r0
 898 0972 4B40     		eors	r3, r3, r1
 899 0974 0748     		ldr	r0, .L10+20
 900 0976 3999     		ldr	r1, [sp, #228]
 901 0978 074C     		ldr	r4, .L10+24
 902 097a 0818     		adds	r0, r1, r0
 903 097c 10E0     		b	.L11
 904              	.L12:
 905 097e 00BF     		.align	2
 906              	.L10:
 907 0980 38B548F3 		.word	-213338824
 908 0984 5BC25639 		.word	961987163
 909 0988 19D005B6 		.word	-1241133031
 910 098c 9B4F19AF 		.word	-1357295717
 911 0990 A4823F92 		.word	-1841331548
 912 0994 18816DDA 		.word	-630357736
 913 0998 D55E1CAB 		.word	-1424204075
 914 099c F111F159 		.word	1508970993
 915              	.L11:
 916 09a0 1F99     		ldr	r1, [sp, #124]
 917 09a2 41EB0401 		adc	r1, r1, r4
 918 09a6 0E9C     		ldr	r4, [sp, #56]
 919 09a8 C019     		adds	r0, r0, r7
ARM GAS  /tmp/ccxnUvyY.s 			page 17


 920 09aa 44EB0106 		adc	r6, r4, r1
 921 09ae 05EA0C07 		and	r7, r5, ip
 922 09b2 2AEA0C01 		bic	r1, r10, ip
 923 09b6 1018     		adds	r0, r2, r0
 924 09b8 43EB0606 		adc	r6, r3, r6
 925 09bc 2BEA0E02 		bic	r2, fp, lr
 926 09c0 08EA0E03 		and	r3, r8, lr
 927 09c4 4F40     		eors	r7, r7, r1
 928 09c6 C019     		adds	r0, r0, r7
 929 09c8 83EA0203 		eor	r3, r3, r2
 930 09cc 46EB0306 		adc	r6, r6, r3
 931 09d0 089B     		ldr	r3, [sp, #32]
 932 09d2 0899     		ldr	r1, [sp, #32]
 933 09d4 1A0F     		lsrs	r2, r3, #28
 934 09d6 099B     		ldr	r3, [sp, #36]
 935 09d8 42EA0312 		orr	r2, r2, r3, lsl #4
 936 09dc 1B0F     		lsrs	r3, r3, #28
 937 09de 43EA0113 		orr	r3, r3, r1, lsl #4
 938 09e2 0999     		ldr	r1, [sp, #36]
 939 09e4 089C     		ldr	r4, [sp, #32]
 940 09e6 099F     		ldr	r7, [sp, #36]
 941 09e8 8907     		lsls	r1, r1, #30
 942 09ea 41EA9401 		orr	r1, r1, r4, lsr #2
 943 09ee A407     		lsls	r4, r4, #30
 944 09f0 44EA9704 		orr	r4, r4, r7, lsr #2
 945 09f4 6240     		eors	r2, r2, r4
 946 09f6 089C     		ldr	r4, [sp, #32]
 947 09f8 4B40     		eors	r3, r3, r1
 948 09fa 7906     		lsls	r1, r7, #25
 949 09fc 41EAD411 		orr	r1, r1, r4, lsr #7
 950 0a00 6406     		lsls	r4, r4, #25
 951 0a02 44EAD714 		orr	r4, r4, r7, lsr #7
 952 0a06 6240     		eors	r2, r2, r4
 953 0a08 4B40     		eors	r3, r3, r1
 954 0a0a 069C     		ldr	r4, [sp, #24]
 955 0a0c 0C99     		ldr	r1, [sp, #48]
 956 0a0e 0F93     		str	r3, [sp, #60]
 957 0a10 81EA0407 		eor	r7, r1, r4
 958 0a14 079C     		ldr	r4, [sp, #28]
 959 0a16 0D99     		ldr	r1, [sp, #52]
 960 0a18 069B     		ldr	r3, [sp, #24]
 961 0a1a 6140     		eors	r1, r1, r4
 962 0a1c 089C     		ldr	r4, [sp, #32]
 963 0a1e 0E92     		str	r2, [sp, #56]
 964 0a20 2740     		ands	r7, r7, r4
 965 0a22 099C     		ldr	r4, [sp, #36]
 966 0a24 079A     		ldr	r2, [sp, #28]
 967 0a26 2140     		ands	r1, r1, r4
 968 0a28 0C9C     		ldr	r4, [sp, #48]
 969 0a2a 1C40     		ands	r4, r4, r3
 970 0a2c 0D9B     		ldr	r3, [sp, #52]
 971 0a2e 7C40     		eors	r4, r4, r7
 972 0a30 03EA0209 		and	r9, r3, r2
 973 0a34 0E9B     		ldr	r3, [sp, #56]
 974 0a36 81EA0901 		eor	r1, r1, r9
 975 0a3a 1A19     		adds	r2, r3, r4
 976 0a3c 0F9B     		ldr	r3, [sp, #60]
ARM GAS  /tmp/ccxnUvyY.s 			page 18


 977 0a3e 43EB0101 		adc	r1, r3, r1
 978 0a42 0A9B     		ldr	r3, [sp, #40]
 979 0a44 13EB0009 		adds	r9, r3, r0
 980 0a48 0B9B     		ldr	r3, [sp, #44]
 981 0a4a 4FEA9934 		lsr	r4, r9, #14
 982 0a4e 43EB0603 		adc	r3, r3, r6
 983 0a52 8218     		adds	r2, r0, r2
 984 0a54 0A92     		str	r2, [sp, #40]
 985 0a56 46EB0102 		adc	r2, r6, r1
 986 0a5a 0B92     		str	r2, [sp, #44]
 987 0a5c 4FEA9942 		lsr	r2, r9, #18
 988 0a60 42EA8332 		orr	r2, r2, r3, lsl #14
 989 0a64 44EA8344 		orr	r4, r4, r3, lsl #18
 990 0a68 990C     		lsrs	r1, r3, #18
 991 0a6a 9E0B     		lsrs	r6, r3, #14
 992 0a6c 5440     		eors	r4, r4, r2
 993 0a6e 4FEAC952 		lsl	r2, r9, #23
 994 0a72 46EA8946 		orr	r6, r6, r9, lsl #18
 995 0a76 41EA8930 		orr	r0, r1, r9, lsl #14
 996 0a7a 42EA5322 		orr	r2, r2, r3, lsr #9
 997 0a7e 86EA0001 		eor	r1, r6, r0
 998 0a82 5440     		eors	r4, r4, r2
 999 0a84 DE05     		lsls	r6, r3, #23
 1000 0a86 3A9A     		ldr	r2, [sp, #232]
 1001 0a88 D048     		ldr	r0, .L13
 1002 0a8a 46EA5926 		orr	r6, r6, r9, lsr #9
 1003 0a8e 1018     		adds	r0, r2, r0
 1004 0a90 86EA0106 		eor	r6, r6, r1
 1005 0a94 209A     		ldr	r2, [sp, #128]
 1006 0a96 CE49     		ldr	r1, .L13+4
 1007 0a98 0A9F     		ldr	r7, [sp, #40]
 1008 0a9a 41EB0201 		adc	r1, r1, r2
 1009 0a9e 10EB0A02 		adds	r2, r0, r10
 1010 0aa2 4BEB0101 		adc	r1, fp, r1
 1011 0aa6 A418     		adds	r4, r4, r2
 1012 0aa8 0EEA0300 		and	r0, lr, r3
 1013 0aac 46EB0101 		adc	r1, r6, r1
 1014 0ab0 25EA0902 		bic	r2, r5, r9
 1015 0ab4 0CEA0906 		and	r6, ip, r9
 1016 0ab8 28EA030B 		bic	fp, r8, r3
 1017 0abc 8BEA000B 		eor	fp, fp, r0
 1018 0ac0 7240     		eors	r2, r2, r6
 1019 0ac2 0A98     		ldr	r0, [sp, #40]
 1020 0ac4 A218     		adds	r2, r4, r2
 1021 0ac6 0B9C     		ldr	r4, [sp, #44]
 1022 0ac8 0A9E     		ldr	r6, [sp, #40]
 1023 0aca 4FEA1070 		lsr	r0, r0, #28
 1024 0ace 40EA0410 		orr	r0, r0, r4, lsl #4
 1025 0ad2 4FEA1474 		lsr	r4, r4, #28
 1026 0ad6 44EA0614 		orr	r4, r4, r6, lsl #4
 1027 0ada 0B9E     		ldr	r6, [sp, #44]
 1028 0adc 0E92     		str	r2, [sp, #56]
 1029 0ade 4FEA8676 		lsl	r6, r6, #30
 1030 0ae2 0B9A     		ldr	r2, [sp, #44]
 1031 0ae4 46EA9706 		orr	r6, r6, r7, lsr #2
 1032 0ae8 4FEA8777 		lsl	r7, r7, #30
 1033 0aec 47EA9207 		orr	r7, r7, r2, lsr #2
ARM GAS  /tmp/ccxnUvyY.s 			page 19


 1034 0af0 84EA0604 		eor	r4, r4, r6
 1035 0af4 4FEA4266 		lsl	r6, r2, #25
 1036 0af8 0A9A     		ldr	r2, [sp, #40]
 1037 0afa 80EA0700 		eor	r0, r0, r7
 1038 0afe 46EAD216 		orr	r6, r6, r2, lsr #7
 1039 0b02 4FEA4267 		lsl	r7, r2, #25
 1040 0b06 0B9A     		ldr	r2, [sp, #44]
 1041 0b08 84EA0604 		eor	r4, r4, r6
 1042 0b0c 47EAD217 		orr	r7, r7, r2, lsr #7
 1043 0b10 80EA0702 		eor	r2, r0, r7
 1044 0b14 089E     		ldr	r6, [sp, #32]
 1045 0b16 0F92     		str	r2, [sp, #60]
 1046 0b18 069A     		ldr	r2, [sp, #24]
 1047 0b1a 089F     		ldr	r7, [sp, #32]
 1048 0b1c 82EA060A 		eor	r10, r2, r6
 1049 0b20 079A     		ldr	r2, [sp, #28]
 1050 0b22 099E     		ldr	r6, [sp, #36]
 1051 0b24 0998     		ldr	r0, [sp, #36]
 1052 0b26 82EA0606 		eor	r6, r2, r6
 1053 0b2a 0A9A     		ldr	r2, [sp, #40]
 1054 0b2c 41EB0B01 		adc	r1, r1, fp
 1055 0b30 0AEA020A 		and	r10, r10, r2
 1056 0b34 0B9A     		ldr	r2, [sp, #44]
 1057 0b36 1640     		ands	r6, r6, r2
 1058 0b38 069A     		ldr	r2, [sp, #24]
 1059 0b3a 1740     		ands	r7, r7, r2
 1060 0b3c 079A     		ldr	r2, [sp, #28]
 1061 0b3e 8AEA0707 		eor	r7, r10, r7
 1062 0b42 02EA000B 		and	fp, r2, r0
 1063 0b46 0F9A     		ldr	r2, [sp, #60]
 1064 0b48 86EA0B06 		eor	r6, r6, fp
 1065 0b4c D019     		adds	r0, r2, r7
 1066 0b4e 44EB0606 		adc	r6, r4, r6
 1067 0b52 0C9A     		ldr	r2, [sp, #48]
 1068 0b54 0E9C     		ldr	r4, [sp, #56]
 1069 0b56 12EB040B 		adds	fp, r2, r4
 1070 0b5a 0D9A     		ldr	r2, [sp, #52]
 1071 0b5c 42EB010A 		adc	r10, r2, r1
 1072 0b60 2218     		adds	r2, r4, r0
 1073 0b62 0C92     		str	r2, [sp, #48]
 1074 0b64 41EB0602 		adc	r2, r1, r6
 1075 0b68 0D92     		str	r2, [sp, #52]
 1076 0b6a 4FEA9B30 		lsr	r0, fp, #14
 1077 0b6e 4FEA9A34 		lsr	r4, r10, #14
 1078 0b72 4FEA9B42 		lsr	r2, fp, #18
 1079 0b76 4FEA9A41 		lsr	r1, r10, #18
 1080 0b7a 42EA8A32 		orr	r2, r2, r10, lsl #14
 1081 0b7e 41EA8B31 		orr	r1, r1, fp, lsl #14
 1082 0b82 40EA8A40 		orr	r0, r0, r10, lsl #18
 1083 0b86 44EA8B44 		orr	r4, r4, fp, lsl #18
 1084 0b8a 5040     		eors	r0, r0, r2
 1085 0b8c 4C40     		eors	r4, r4, r1
 1086 0b8e 4FEACB52 		lsl	r2, fp, #23
 1087 0b92 4FEACA51 		lsl	r1, r10, #23
 1088 0b96 41EA5B21 		orr	r1, r1, fp, lsr #9
 1089 0b9a 42EA5A22 		orr	r2, r2, r10, lsr #9
 1090 0b9e 4C40     		eors	r4, r4, r1
ARM GAS  /tmp/ccxnUvyY.s 			page 20


 1091 0ba0 5040     		eors	r0, r0, r2
 1092 0ba2 8C49     		ldr	r1, .L13+8
 1093 0ba4 219A     		ldr	r2, [sp, #132]
 1094 0ba6 8C4E     		ldr	r6, .L13+12
 1095 0ba8 5118     		adds	r1, r2, r1
 1096 0baa 109A     		ldr	r2, [sp, #64]
 1097 0bac 46EB0206 		adc	r6, r6, r2
 1098 0bb0 4A19     		adds	r2, r1, r5
 1099 0bb2 48EB0608 		adc	r8, r8, r6
 1100 0bb6 8018     		adds	r0, r0, r2
 1101 0bb8 44EB0808 		adc	r8, r4, r8
 1102 0bbc 2CEA0B02 		bic	r2, ip, fp
 1103 0bc0 09EA0B04 		and	r4, r9, fp
 1104 0bc4 2EEA0A06 		bic	r6, lr, r10
 1105 0bc8 03EA0A01 		and	r1, r3, r10
 1106 0bcc 6240     		eors	r2, r2, r4
 1107 0bce 8218     		adds	r2, r0, r2
 1108 0bd0 81EA0601 		eor	r1, r1, r6
 1109 0bd4 48EB0108 		adc	r8, r8, r1
 1110 0bd8 0C99     		ldr	r1, [sp, #48]
 1111 0bda 0D98     		ldr	r0, [sp, #52]
 1112 0bdc 0C9C     		ldr	r4, [sp, #48]
 1113 0bde 090F     		lsrs	r1, r1, #28
 1114 0be0 41EA0011 		orr	r1, r1, r0, lsl #4
 1115 0be4 000F     		lsrs	r0, r0, #28
 1116 0be6 40EA0410 		orr	r0, r0, r4, lsl #4
 1117 0bea 0D9C     		ldr	r4, [sp, #52]
 1118 0bec 0C9D     		ldr	r5, [sp, #48]
 1119 0bee 0D9E     		ldr	r6, [sp, #52]
 1120 0bf0 A407     		lsls	r4, r4, #30
 1121 0bf2 44EA9504 		orr	r4, r4, r5, lsr #2
 1122 0bf6 AD07     		lsls	r5, r5, #30
 1123 0bf8 45EA9605 		orr	r5, r5, r6, lsr #2
 1124 0bfc 6940     		eors	r1, r1, r5
 1125 0bfe 0C9D     		ldr	r5, [sp, #48]
 1126 0c00 6040     		eors	r0, r0, r4
 1127 0c02 7406     		lsls	r4, r6, #25
 1128 0c04 44EAD514 		orr	r4, r4, r5, lsr #7
 1129 0c08 6D06     		lsls	r5, r5, #25
 1130 0c0a 45EAD615 		orr	r5, r5, r6, lsr #7
 1131 0c0e 6940     		eors	r1, r1, r5
 1132 0c10 6040     		eors	r0, r0, r4
 1133 0c12 0A9D     		ldr	r5, [sp, #40]
 1134 0c14 089C     		ldr	r4, [sp, #32]
 1135 0c16 0E91     		str	r1, [sp, #56]
 1136 0c18 84EA0506 		eor	r6, r4, r5
 1137 0c1c 099C     		ldr	r4, [sp, #36]
 1138 0c1e 0B9D     		ldr	r5, [sp, #44]
 1139 0c20 6C40     		eors	r4, r4, r5
 1140 0c22 0C9D     		ldr	r5, [sp, #48]
 1141 0c24 0A9F     		ldr	r7, [sp, #40]
 1142 0c26 2E40     		ands	r6, r6, r5
 1143 0c28 0D9D     		ldr	r5, [sp, #52]
 1144 0c2a 0B99     		ldr	r1, [sp, #44]
 1145 0c2c 2C40     		ands	r4, r4, r5
 1146 0c2e 089D     		ldr	r5, [sp, #32]
 1147 0c30 3D40     		ands	r5, r5, r7
ARM GAS  /tmp/ccxnUvyY.s 			page 21


 1148 0c32 099F     		ldr	r7, [sp, #36]
 1149 0c34 6E40     		eors	r6, r6, r5
 1150 0c36 0F40     		ands	r7, r7, r1
 1151 0c38 0E99     		ldr	r1, [sp, #56]
 1152 0c3a 7C40     		eors	r4, r4, r7
 1153 0c3c 8E19     		adds	r6, r1, r6
 1154 0c3e 0699     		ldr	r1, [sp, #24]
 1155 0c40 40EB0404 		adc	r4, r0, r4
 1156 0c44 8D18     		adds	r5, r1, r2
 1157 0c46 0799     		ldr	r1, [sp, #28]
 1158 0c48 4FEA9530 		lsr	r0, r5, #14
 1159 0c4c 41EB0801 		adc	r1, r1, r8
 1160 0c50 9219     		adds	r2, r2, r6
 1161 0c52 0692     		str	r2, [sp, #24]
 1162 0c54 48EB0402 		adc	r2, r8, r4
 1163 0c58 0792     		str	r2, [sp, #28]
 1164 0c5a 8C0B     		lsrs	r4, r1, #14
 1165 0c5c AE0C     		lsrs	r6, r5, #18
 1166 0c5e 8A0C     		lsrs	r2, r1, #18
 1167 0c60 46EA8136 		orr	r6, r6, r1, lsl #14
 1168 0c64 42EA8532 		orr	r2, r2, r5, lsl #14
 1169 0c68 40EA8140 		orr	r0, r0, r1, lsl #18
 1170 0c6c 44EA8544 		orr	r4, r4, r5, lsl #18
 1171 0c70 7040     		eors	r0, r0, r6
 1172 0c72 5440     		eors	r4, r4, r2
 1173 0c74 EE05     		lsls	r6, r5, #23
 1174 0c76 CA05     		lsls	r2, r1, #23
 1175 0c78 42EA5522 		orr	r2, r2, r5, lsr #9
 1176 0c7c 46EA5126 		orr	r6, r6, r1, lsr #9
 1177 0c80 7040     		eors	r0, r0, r6
 1178 0c82 5440     		eors	r4, r4, r2
 1179 0c84 229E     		ldr	r6, [sp, #136]
 1180 0c86 554A     		ldr	r2, .L13+16
 1181 0c88 119F     		ldr	r7, [sp, #68]
 1182 0c8a B218     		adds	r2, r6, r2
 1183 0c8c 544E     		ldr	r6, .L13+20
 1184 0c8e 0E91     		str	r1, [sp, #56]
 1185 0c90 46EB0706 		adc	r6, r6, r7
 1186 0c94 12EB0C0C 		adds	ip, r2, ip
 1187 0c98 4EEB060E 		adc	lr, lr, r6
 1188 0c9c 0BEA0502 		and	r2, fp, r5
 1189 0ca0 29EA0506 		bic	r6, r9, r5
 1190 0ca4 10EB0C0C 		adds	ip, r0, ip
 1191 0ca8 44EB0E0E 		adc	lr, r4, lr
 1192 0cac 23EA0100 		bic	r0, r3, r1
 1193 0cb0 0AEA0104 		and	r4, r10, r1
 1194 0cb4 7240     		eors	r2, r2, r6
 1195 0cb6 1CEB020C 		adds	ip, ip, r2
 1196 0cba 80EA0400 		eor	r0, r0, r4
 1197 0cbe 069A     		ldr	r2, [sp, #24]
 1198 0cc0 4EEB000E 		adc	lr, lr, r0
 1199 0cc4 0798     		ldr	r0, [sp, #28]
 1200 0cc6 069C     		ldr	r4, [sp, #24]
 1201 0cc8 120F     		lsrs	r2, r2, #28
 1202 0cca 42EA0012 		orr	r2, r2, r0, lsl #4
 1203 0cce 000F     		lsrs	r0, r0, #28
 1204 0cd0 40EA0410 		orr	r0, r0, r4, lsl #4
ARM GAS  /tmp/ccxnUvyY.s 			page 22


 1205 0cd4 079C     		ldr	r4, [sp, #28]
 1206 0cd6 069E     		ldr	r6, [sp, #24]
 1207 0cd8 079F     		ldr	r7, [sp, #28]
 1208 0cda A407     		lsls	r4, r4, #30
 1209 0cdc 44EA9604 		orr	r4, r4, r6, lsr #2
 1210 0ce0 B607     		lsls	r6, r6, #30
 1211 0ce2 46EA9706 		orr	r6, r6, r7, lsr #2
 1212 0ce6 7240     		eors	r2, r2, r6
 1213 0ce8 069E     		ldr	r6, [sp, #24]
 1214 0cea 6040     		eors	r0, r0, r4
 1215 0cec 7C06     		lsls	r4, r7, #25
 1216 0cee 44EAD614 		orr	r4, r4, r6, lsr #7
 1217 0cf2 7606     		lsls	r6, r6, #25
 1218 0cf4 46EAD716 		orr	r6, r6, r7, lsr #7
 1219 0cf8 7240     		eors	r2, r2, r6
 1220 0cfa 6040     		eors	r0, r0, r4
 1221 0cfc 0C9E     		ldr	r6, [sp, #48]
 1222 0cfe 0A9C     		ldr	r4, [sp, #40]
 1223 0d00 0C99     		ldr	r1, [sp, #48]
 1224 0d02 84EA0607 		eor	r7, r4, r6
 1225 0d06 0D9E     		ldr	r6, [sp, #52]
 1226 0d08 0B9C     		ldr	r4, [sp, #44]
 1227 0d0a 0F92     		str	r2, [sp, #60]
 1228 0d0c 7440     		eors	r4, r4, r6
 1229 0d0e 069E     		ldr	r6, [sp, #24]
 1230 0d10 0D9A     		ldr	r2, [sp, #52]
 1231 0d12 3740     		ands	r7, r7, r6
 1232 0d14 079E     		ldr	r6, [sp, #28]
 1233 0d16 3440     		ands	r4, r4, r6
 1234 0d18 0A9E     		ldr	r6, [sp, #40]
 1235 0d1a 0E40     		ands	r6, r6, r1
 1236 0d1c 0B99     		ldr	r1, [sp, #44]
 1237 0d1e 7E40     		eors	r6, r6, r7
 1238 0d20 01EA0208 		and	r8, r1, r2
 1239 0d24 0F9A     		ldr	r2, [sp, #60]
 1240 0d26 84EA0804 		eor	r4, r4, r8
 1241 0d2a 9619     		adds	r6, r2, r6
 1242 0d2c 089A     		ldr	r2, [sp, #32]
 1243 0d2e 40EB0408 		adc	r8, r0, r4
 1244 0d32 12EB0C04 		adds	r4, r2, ip
 1245 0d36 099A     		ldr	r2, [sp, #36]
 1246 0d38 4FEA9447 		lsr	r7, r4, #18
 1247 0d3c 42EB0E02 		adc	r2, r2, lr
 1248 0d40 1CEB0601 		adds	r1, ip, r6
 1249 0d44 0891     		str	r1, [sp, #32]
 1250 0d46 4FEA9246 		lsr	r6, r2, #18
 1251 0d4a 4EEB0801 		adc	r1, lr, r8
 1252 0d4e 4FEA923E 		lsr	lr, r2, #14
 1253 0d52 4EEA844E 		orr	lr, lr, r4, lsl #18
 1254 0d56 46EA8430 		orr	r0, r6, r4, lsl #14
 1255 0d5a 4FEA943C 		lsr	ip, r4, #14
 1256 0d5e 8EEA0006 		eor	r6, lr, r0
 1257 0d62 47EA8237 		orr	r7, r7, r2, lsl #14
 1258 0d66 4CEA824C 		orr	ip, ip, r2, lsl #18
 1259 0d6a E005     		lsls	r0, r4, #23
 1260 0d6c 40EA5220 		orr	r0, r0, r2, lsr #9
 1261 0d70 8CEA070C 		eor	ip, ip, r7
ARM GAS  /tmp/ccxnUvyY.s 			page 23


 1262 0d74 0991     		str	r1, [sp, #36]
 1263 0d76 8CEA000C 		eor	ip, ip, r0
 1264 0d7a 2399     		ldr	r1, [sp, #140]
 1265 0d7c 4FEAC25E 		lsl	lr, r2, #23
 1266 0d80 1848     		ldr	r0, .L13+24
 1267 0d82 4EEA542E 		orr	lr, lr, r4, lsr #9
 1268 0d86 0818     		adds	r0, r1, r0
 1269 0d88 86EA0E0E 		eor	lr, r6, lr
 1270 0d8c 1299     		ldr	r1, [sp, #72]
 1271 0d8e 164E     		ldr	r6, .L13+28
 1272 0d90 0F92     		str	r2, [sp, #60]
 1273 0d92 46EB0106 		adc	r6, r6, r1
 1274 0d96 10EB0909 		adds	r9, r0, r9
 1275 0d9a 43EB0606 		adc	r6, r3, r6
 1276 0d9e 05EA0400 		and	r0, r5, r4
 1277 0da2 1CEB0909 		adds	r9, ip, r9
 1278 0da6 2BEA040C 		bic	ip, fp, r4
 1279 0daa 2AEA0203 		bic	r3, r10, r2
 1280 0dae 8CEA0000 		eor	r0, ip, r0
 1281 0db2 DDE90E21 		ldrd	r2, r1, [sp, #56]
 1282 0db6 02EA0107 		and	r7, r2, r1
 1283 0dba 4EEB0606 		adc	r6, lr, r6
 1284 0dbe 7B40     		eors	r3, r3, r7
 1285 0dc0 19EB0009 		adds	r9, r9, r0
 1286 0dc4 46EB0306 		adc	r6, r6, r3
 1287 0dc8 089B     		ldr	r3, [sp, #32]
 1288 0dca 0FE0     		b	.L14
 1289              	.L15:
 1290              		.align	2
 1291              	.L13:
 1292 0dcc 420203A3 		.word	-1560083902
 1293 0dd0 98AA07D8 		.word	-670586216
 1294 0dd4 BE6F7045 		.word	1164996542
 1295 0dd8 015B8312 		.word	310598401
 1296 0ddc 8CB2E44E 		.word	1323610764
 1297 0de0 BE853124 		.word	607225278
 1298 0de4 E2B4FFD5 		.word	-704662302
 1299 0de8 C37D0C55 		.word	1426881987
 1300              	.L14:
 1301 0dec 0999     		ldr	r1, [sp, #36]
 1302 0dee 1B0F     		lsrs	r3, r3, #28
 1303 0df0 43EA0113 		orr	r3, r3, r1, lsl #4
 1304 0df4 4FEA117C 		lsr	ip, r1, #28
 1305 0df8 0899     		ldr	r1, [sp, #32]
 1306 0dfa 079A     		ldr	r2, [sp, #28]
 1307 0dfc 4CEA011C 		orr	ip, ip, r1, lsl #4
 1308 0e00 0999     		ldr	r1, [sp, #36]
 1309 0e02 8807     		lsls	r0, r1, #30
 1310 0e04 0899     		ldr	r1, [sp, #32]
 1311 0e06 40EA9100 		orr	r0, r0, r1, lsr #2
 1312 0e0a 8F07     		lsls	r7, r1, #30
 1313 0e0c 0999     		ldr	r1, [sp, #36]
 1314 0e0e 8CEA000C 		eor	ip, ip, r0
 1315 0e12 47EA9107 		orr	r7, r7, r1, lsr #2
 1316 0e16 4806     		lsls	r0, r1, #25
 1317 0e18 0899     		ldr	r1, [sp, #32]
 1318 0e1a 7B40     		eors	r3, r3, r7
ARM GAS  /tmp/ccxnUvyY.s 			page 24


 1319 0e1c 40EAD110 		orr	r0, r0, r1, lsr #7
 1320 0e20 4F06     		lsls	r7, r1, #25
 1321 0e22 0999     		ldr	r1, [sp, #36]
 1322 0e24 8CEA000C 		eor	ip, ip, r0
 1323 0e28 47EAD117 		orr	r7, r7, r1, lsr #7
 1324 0e2c 0698     		ldr	r0, [sp, #24]
 1325 0e2e 0C99     		ldr	r1, [sp, #48]
 1326 0e30 7B40     		eors	r3, r3, r7
 1327 0e32 81EA000E 		eor	lr, r1, r0
 1328 0e36 0D99     		ldr	r1, [sp, #52]
 1329 0e38 0798     		ldr	r0, [sp, #28]
 1330 0e3a 069F     		ldr	r7, [sp, #24]
 1331 0e3c 4840     		eors	r0, r0, r1
 1332 0e3e 0899     		ldr	r1, [sp, #32]
 1333 0e40 0EEA010E 		and	lr, lr, r1
 1334 0e44 0999     		ldr	r1, [sp, #36]
 1335 0e46 0840     		ands	r0, r0, r1
 1336 0e48 0C99     		ldr	r1, [sp, #48]
 1337 0e4a 0F40     		ands	r7, r7, r1
 1338 0e4c 0D99     		ldr	r1, [sp, #52]
 1339 0e4e 8EEA0707 		eor	r7, lr, r7
 1340 0e52 DF19     		adds	r7, r3, r7
 1341 0e54 01EA0208 		and	r8, r1, r2
 1342 0e58 0A9B     		ldr	r3, [sp, #40]
 1343 0e5a 80EA0800 		eor	r0, r0, r8
 1344 0e5e 4CEB000C 		adc	ip, ip, r0
 1345 0e62 13EB0900 		adds	r0, r3, r9
 1346 0e66 0B9B     		ldr	r3, [sp, #44]
 1347 0e68 4FEA9048 		lsr	r8, r0, #18
 1348 0e6c 43EB0603 		adc	r3, r3, r6
 1349 0e70 19EB0702 		adds	r2, r9, r7
 1350 0e74 4FEA9037 		lsr	r7, r0, #14
 1351 0e78 47EA8347 		orr	r7, r7, r3, lsl #18
 1352 0e7c 4FEA933E 		lsr	lr, r3, #14
 1353 0e80 0A92     		str	r2, [sp, #40]
 1354 0e82 46EB0C02 		adc	r2, r6, ip
 1355 0e86 48EA8336 		orr	r6, r8, r3, lsl #14
 1356 0e8a 4EEA8049 		orr	r9, lr, r0, lsl #18
 1357 0e8e 87EA0608 		eor	r8, r7, r6
 1358 0e92 4FEA934E 		lsr	lr, r3, #18
 1359 0e96 C605     		lsls	r6, r0, #23
 1360 0e98 4EEA803C 		orr	ip, lr, r0, lsl #14
 1361 0e9c 46EA5326 		orr	r6, r6, r3, lsr #9
 1362 0ea0 89EA0C0E 		eor	lr, r9, ip
 1363 0ea4 88EA0607 		eor	r7, r8, r6
 1364 0ea8 4FEAC35C 		lsl	ip, r3, #23
 1365 0eac CD4E     		ldr	r6, .L16
 1366 0eae 0B92     		str	r2, [sp, #44]
 1367 0eb0 249A     		ldr	r2, [sp, #144]
 1368 0eb2 4CEA502C 		orr	ip, ip, r0, lsr #9
 1369 0eb6 CC49     		ldr	r1, .L16+4
 1370 0eb8 8EEA0C0C 		eor	ip, lr, ip
 1371 0ebc 12EB060E 		adds	lr, r2, r6
 1372 0ec0 139A     		ldr	r2, [sp, #76]
 1373 0ec2 42EB0109 		adc	r9, r2, r1
 1374 0ec6 0E9A     		ldr	r2, [sp, #56]
 1375 0ec8 1EEB0B06 		adds	r6, lr, fp
ARM GAS  /tmp/ccxnUvyY.s 			page 25


 1376 0ecc 22EA030E 		bic	lr, r2, r3
 1377 0ed0 0F9A     		ldr	r2, [sp, #60]
 1378 0ed2 4AEB090A 		adc	r10, r10, r9
 1379 0ed6 02EA0308 		and	r8, r2, r3
 1380 0eda 25EA0009 		bic	r9, r5, r0
 1381 0ede 0A9A     		ldr	r2, [sp, #40]
 1382 0ee0 BE19     		adds	r6, r7, r6
 1383 0ee2 04EA0007 		and	r7, r4, r0
 1384 0ee6 89EA0707 		eor	r7, r9, r7
 1385 0eea 4CEB0A0C 		adc	ip, ip, r10
 1386 0eee F619     		adds	r6, r6, r7
 1387 0ef0 4FEA1277 		lsr	r7, r2, #28
 1388 0ef4 0B9A     		ldr	r2, [sp, #44]
 1389 0ef6 8EEA080E 		eor	lr, lr, r8
 1390 0efa 4CEB0E0C 		adc	ip, ip, lr
 1391 0efe 47EA0217 		orr	r7, r7, r2, lsl #4
 1392 0f02 4FEA127E 		lsr	lr, r2, #28
 1393 0f06 0A9A     		ldr	r2, [sp, #40]
 1394 0f08 0899     		ldr	r1, [sp, #32]
 1395 0f0a 4EEA021E 		orr	lr, lr, r2, lsl #4
 1396 0f0e 0B9A     		ldr	r2, [sp, #44]
 1397 0f10 4FEA8278 		lsl	r8, r2, #30
 1398 0f14 0A9A     		ldr	r2, [sp, #40]
 1399 0f16 48EA9208 		orr	r8, r8, r2, lsr #2
 1400 0f1a 4FEA8279 		lsl	r9, r2, #30
 1401 0f1e 0B9A     		ldr	r2, [sp, #44]
 1402 0f20 8EEA080E 		eor	lr, lr, r8
 1403 0f24 49EA9209 		orr	r9, r9, r2, lsr #2
 1404 0f28 4FEA4268 		lsl	r8, r2, #25
 1405 0f2c 0A9A     		ldr	r2, [sp, #40]
 1406 0f2e 87EA0907 		eor	r7, r7, r9
 1407 0f32 48EAD218 		orr	r8, r8, r2, lsr #7
 1408 0f36 4FEA4269 		lsl	r9, r2, #25
 1409 0f3a 0B9A     		ldr	r2, [sp, #44]
 1410 0f3c 8EEA080E 		eor	lr, lr, r8
 1411 0f40 49EAD219 		orr	r9, r9, r2, lsr #7
 1412 0f44 069A     		ldr	r2, [sp, #24]
 1413 0f46 87EA0907 		eor	r7, r7, r9
 1414 0f4a 82EA0108 		eor	r8, r2, r1
 1415 0f4e 079A     		ldr	r2, [sp, #28]
 1416 0f50 0999     		ldr	r1, [sp, #36]
 1417 0f52 82EA0109 		eor	r9, r2, r1
 1418 0f56 0A9A     		ldr	r2, [sp, #40]
 1419 0f58 0899     		ldr	r1, [sp, #32]
 1420 0f5a 08EA0208 		and	r8, r8, r2
 1421 0f5e 0B9A     		ldr	r2, [sp, #44]
 1422 0f60 09EA0209 		and	r9, r9, r2
 1423 0f64 069A     		ldr	r2, [sp, #24]
 1424 0f66 02EA010B 		and	fp, r2, r1
 1425 0f6a 079A     		ldr	r2, [sp, #28]
 1426 0f6c 0999     		ldr	r1, [sp, #36]
 1427 0f6e 88EA0B08 		eor	r8, r8, fp
 1428 0f72 02EA010A 		and	r10, r2, r1
 1429 0f76 0C9A     		ldr	r2, [sp, #48]
 1430 0f78 17EB0808 		adds	r8, r7, r8
 1431 0f7c 89EA0A09 		eor	r9, r9, r10
 1432 0f80 4EEB0909 		adc	r9, lr, r9
ARM GAS  /tmp/ccxnUvyY.s 			page 26


 1433 0f84 9219     		adds	r2, r2, r6
 1434 0f86 2892     		str	r2, [sp, #160]
 1435 0f88 0D9A     		ldr	r2, [sp, #52]
 1436 0f8a 9849     		ldr	r1, .L16+8
 1437 0f8c 42EB0C02 		adc	r2, r2, ip
 1438 0f90 16EB080B 		adds	fp, r6, r8
 1439 0f94 2992     		str	r2, [sp, #164]
 1440 0f96 4CEB0902 		adc	r2, ip, r9
 1441 0f9a 2692     		str	r2, [sp, #152]
 1442 0f9c 289A     		ldr	r2, [sp, #160]
 1443 0f9e 970B     		lsrs	r7, r2, #14
 1444 0fa0 299A     		ldr	r2, [sp, #164]
 1445 0fa2 47EA8247 		orr	r7, r7, r2, lsl #18
 1446 0fa6 4FEA923C 		lsr	ip, r2, #14
 1447 0faa 289A     		ldr	r2, [sp, #160]
 1448 0fac 4CEA824C 		orr	ip, ip, r2, lsl #18
 1449 0fb0 4FEA924E 		lsr	lr, r2, #18
 1450 0fb4 299A     		ldr	r2, [sp, #164]
 1451 0fb6 4EEA823E 		orr	lr, lr, r2, lsl #14
 1452 0fba 960C     		lsrs	r6, r2, #18
 1453 0fbc 289A     		ldr	r2, [sp, #160]
 1454 0fbe 87EA0E07 		eor	r7, r7, lr
 1455 0fc2 46EA8236 		orr	r6, r6, r2, lsl #14
 1456 0fc6 299A     		ldr	r2, [sp, #164]
 1457 0fc8 8CEA060C 		eor	ip, ip, r6
 1458 0fcc D605     		lsls	r6, r2, #23
 1459 0fce 289A     		ldr	r2, [sp, #160]
 1460 0fd0 46EA5226 		orr	r6, r6, r2, lsr #9
 1461 0fd4 4FEAC25E 		lsl	lr, r2, #23
 1462 0fd8 299A     		ldr	r2, [sp, #164]
 1463 0fda 8CEA060C 		eor	ip, ip, r6
 1464 0fde 4EEA522E 		orr	lr, lr, r2, lsr #9
 1465 0fe2 2F9A     		ldr	r2, [sp, #188]
 1466 0fe4 87EA0E07 		eor	r7, r7, lr
 1467 0fe8 5618     		adds	r6, r2, r1
 1468 0fea DFF80CE2 		ldr	lr, .L16+20
 1469 0fee 259A     		ldr	r2, [sp, #148]
 1470 0ff0 4EEB020E 		adc	lr, lr, r2
 1471 0ff4 0E9A     		ldr	r2, [sp, #56]
 1472 0ff6 7519     		adds	r5, r6, r5
 1473 0ff8 42EB0E01 		adc	r1, r2, lr
 1474 0ffc 289A     		ldr	r2, [sp, #160]
 1475 0ffe 0F9E     		ldr	r6, [sp, #60]
 1476 1000 24EA020E 		bic	lr, r4, r2
 1477 1004 299A     		ldr	r2, [sp, #164]
 1478 1006 7D19     		adds	r5, r7, r5
 1479 1008 26EA0207 		bic	r7, r6, r2
 1480 100c 289A     		ldr	r2, [sp, #160]
 1481 100e 4CEB0101 		adc	r1, ip, r1
 1482 1012 00EA0206 		and	r6, r0, r2
 1483 1016 299A     		ldr	r2, [sp, #164]
 1484 1018 8EEA0606 		eor	r6, lr, r6
 1485 101c 03EA020C 		and	ip, r3, r2
 1486 1020 269A     		ldr	r2, [sp, #152]
 1487 1022 AD19     		adds	r5, r5, r6
 1488 1024 4FEA8B7E 		lsl	lr, fp, #30
 1489 1028 4FEA1B76 		lsr	r6, fp, #28
ARM GAS  /tmp/ccxnUvyY.s 			page 27


 1490 102c 87EA0C07 		eor	r7, r7, ip
 1491 1030 4EEA920E 		orr	lr, lr, r2, lsr #2
 1492 1034 46EA0216 		orr	r6, r6, r2, lsl #4
 1493 1038 41EB0701 		adc	r1, r1, r7
 1494 103c 86EA0E06 		eor	r6, r6, lr
 1495 1040 170F     		lsrs	r7, r2, #28
 1496 1042 4FEA827C 		lsl	ip, r2, #30
 1497 1046 4FEA4B6E 		lsl	lr, fp, #25
 1498 104a 4CEA9B0C 		orr	ip, ip, fp, lsr #2
 1499 104e 4EEAD21E 		orr	lr, lr, r2, lsr #7
 1500 1052 47EA0B17 		orr	r7, r7, fp, lsl #4
 1501 1056 86EA0E0A 		eor	r10, r6, lr
 1502 105a 87EA0C07 		eor	r7, r7, ip
 1503 105e 0A9E     		ldr	r6, [sp, #40]
 1504 1060 4FEA426C 		lsl	ip, r2, #25
 1505 1064 089A     		ldr	r2, [sp, #32]
 1506 1066 4CEADB1C 		orr	ip, ip, fp, lsr #7
 1507 106a 87EA0C07 		eor	r7, r7, ip
 1508 106e 82EA060C 		eor	ip, r2, r6
 1509 1072 099A     		ldr	r2, [sp, #36]
 1510 1074 0B9E     		ldr	r6, [sp, #44]
 1511 1076 0CEA0B0C 		and	ip, ip, fp
 1512 107a 82EA060E 		eor	lr, r2, r6
 1513 107e 269A     		ldr	r2, [sp, #152]
 1514 1080 0A9E     		ldr	r6, [sp, #40]
 1515 1082 0EEA020E 		and	lr, lr, r2
 1516 1086 089A     		ldr	r2, [sp, #32]
 1517 1088 02EA0609 		and	r9, r2, r6
 1518 108c 099A     		ldr	r2, [sp, #36]
 1519 108e 0B9E     		ldr	r6, [sp, #44]
 1520 1090 8CEA090C 		eor	ip, ip, r9
 1521 1094 02EA0608 		and	r8, r2, r6
 1522 1098 069A     		ldr	r2, [sp, #24]
 1523 109a 1AEB0C0C 		adds	ip, r10, ip
 1524 109e 8EEA080E 		eor	lr, lr, r8
 1525 10a2 47EB0E0E 		adc	lr, r7, lr
 1526 10a6 5219     		adds	r2, r2, r5
 1527 10a8 2A92     		str	r2, [sp, #168]
 1528 10aa 079A     		ldr	r2, [sp, #28]
 1529 10ac 42EB0102 		adc	r2, r2, r1
 1530 10b0 2B92     		str	r2, [sp, #172]
 1531 10b2 15EB0C02 		adds	r2, r5, ip
 1532 10b6 2792     		str	r2, [sp, #156]
 1533 10b8 2A9A     		ldr	r2, [sp, #168]
 1534 10ba 41EB0E0E 		adc	lr, r1, lr
 1535 10be 910B     		lsrs	r1, r2, #14
 1536 10c0 2B9A     		ldr	r2, [sp, #172]
 1537 10c2 41EA8241 		orr	r1, r1, r2, lsl #18
 1538 10c6 950B     		lsrs	r5, r2, #14
 1539 10c8 2A9A     		ldr	r2, [sp, #168]
 1540 10ca 4FEA924A 		lsr	r10, r2, #18
 1541 10ce 45EA8245 		orr	r5, r5, r2, lsl #18
 1542 10d2 2B9A     		ldr	r2, [sp, #172]
 1543 10d4 4AEA8237 		orr	r7, r10, r2, lsl #14
 1544 10d8 960C     		lsrs	r6, r2, #18
 1545 10da 2A9A     		ldr	r2, [sp, #168]
 1546 10dc 81EA070A 		eor	r10, r1, r7
ARM GAS  /tmp/ccxnUvyY.s 			page 28


 1547 10e0 46EA8236 		orr	r6, r6, r2, lsl #14
 1548 10e4 2B9A     		ldr	r2, [sp, #172]
 1549 10e6 7540     		eors	r5, r5, r6
 1550 10e8 D605     		lsls	r6, r2, #23
 1551 10ea 2A9A     		ldr	r2, [sp, #168]
 1552 10ec 2B9F     		ldr	r7, [sp, #172]
 1553 10ee 46EA5226 		orr	r6, r6, r2, lsr #9
 1554 10f2 D105     		lsls	r1, r2, #23
 1555 10f4 2B9A     		ldr	r2, [sp, #172]
 1556 10f6 7540     		eors	r5, r5, r6
 1557 10f8 41EA5221 		orr	r1, r1, r2, lsr #9
 1558 10fc 3C4E     		ldr	r6, .L16+12
 1559 10fe 169A     		ldr	r2, [sp, #88]
 1560 1100 8AEA0101 		eor	r1, r10, r1
 1561 1104 12EB060A 		adds	r10, r2, r6
 1562 1108 029A     		ldr	r2, [sp, #8]
 1563 110a 3A4E     		ldr	r6, .L16+16
 1564 110c 46EB0206 		adc	r6, r6, r2
 1565 1110 0F9A     		ldr	r2, [sp, #60]
 1566 1112 1AEB040A 		adds	r10, r10, r4
 1567 1116 42EB0602 		adc	r2, r2, r6
 1568 111a 11EB0A0A 		adds	r10, r1, r10
 1569 111e 2A99     		ldr	r1, [sp, #168]
 1570 1120 45EB0202 		adc	r2, r5, r2
 1571 1124 20EA0106 		bic	r6, r0, r1
 1572 1128 2B99     		ldr	r1, [sp, #172]
 1573 112a 2A9D     		ldr	r5, [sp, #168]
 1574 112c 23EA0104 		bic	r4, r3, r1
 1575 1130 2899     		ldr	r1, [sp, #160]
 1576 1132 2940     		ands	r1, r1, r5
 1577 1134 299D     		ldr	r5, [sp, #164]
 1578 1136 7140     		eors	r1, r1, r6
 1579 1138 3D40     		ands	r5, r5, r7
 1580 113a 1AEB010A 		adds	r10, r10, r1
 1581 113e 84EA0504 		eor	r4, r4, r5
 1582 1142 279D     		ldr	r5, [sp, #156]
 1583 1144 42EB0404 		adc	r4, r2, r4
 1584 1148 279E     		ldr	r6, [sp, #156]
 1585 114a 279A     		ldr	r2, [sp, #156]
 1586 114c 4FEA1E71 		lsr	r1, lr, #28
 1587 1150 41EA0511 		orr	r1, r1, r5, lsl #4
 1588 1154 4FEA8E75 		lsl	r5, lr, #30
 1589 1158 45EA9605 		orr	r5, r5, r6, lsr #2
 1590 115c 120F     		lsrs	r2, r2, #28
 1591 115e B607     		lsls	r6, r6, #30
 1592 1160 46EA9E06 		orr	r6, r6, lr, lsr #2
 1593 1164 42EA0E12 		orr	r2, r2, lr, lsl #4
 1594 1168 7240     		eors	r2, r2, r6
 1595 116a 279E     		ldr	r6, [sp, #156]
 1596 116c 6940     		eors	r1, r1, r5
 1597 116e 4FEA4E65 		lsl	r5, lr, #25
 1598 1172 45EAD615 		orr	r5, r5, r6, lsr #7
 1599 1176 7606     		lsls	r6, r6, #25
 1600 1178 46EADE16 		orr	r6, r6, lr, lsr #7
 1601 117c 82EA0608 		eor	r8, r2, r6
 1602 1180 269F     		ldr	r7, [sp, #152]
 1603 1182 0B9E     		ldr	r6, [sp, #44]
ARM GAS  /tmp/ccxnUvyY.s 			page 29


 1604 1184 6940     		eors	r1, r1, r5
 1605 1186 0A9D     		ldr	r5, [sp, #40]
 1606 1188 7E40     		eors	r6, r6, r7
 1607 118a 279F     		ldr	r7, [sp, #156]
 1608 118c 85EA0B05 		eor	r5, r5, fp
 1609 1190 3D40     		ands	r5, r5, r7
 1610 1192 0A9F     		ldr	r7, [sp, #40]
 1611 1194 269A     		ldr	r2, [sp, #152]
 1612 1196 07EA0B0C 		and	ip, r7, fp
 1613 119a 0B9F     		ldr	r7, [sp, #44]
 1614 119c 06EA0E06 		and	r6, r6, lr
 1615 11a0 1740     		ands	r7, r7, r2
 1616 11a2 85EA0C05 		eor	r5, r5, ip
 1617 11a6 089A     		ldr	r2, [sp, #32]
 1618 11a8 18EB0505 		adds	r5, r8, r5
 1619 11ac 86EA0706 		eor	r6, r6, r7
 1620 11b0 41EB0606 		adc	r6, r1, r6
 1621 11b4 12EB0A02 		adds	r2, r2, r10
 1622 11b8 2C92     		str	r2, [sp, #176]
 1623 11ba 099A     		ldr	r2, [sp, #36]
 1624 11bc 42EB0407 		adc	r7, r2, r4
 1625 11c0 1AEB050A 		adds	r10, r10, r5
 1626 11c4 2C9A     		ldr	r2, [sp, #176]
 1627 11c6 44EB060C 		adc	ip, r4, r6
 1628 11ca BC0B     		lsrs	r4, r7, #14
 1629 11cc 910B     		lsrs	r1, r2, #14
 1630 11ce 44EA8244 		orr	r4, r4, r2, lsl #18
 1631 11d2 920C     		lsrs	r2, r2, #18
 1632 11d4 42EA8736 		orr	r6, r2, r7, lsl #14
 1633 11d8 2C9A     		ldr	r2, [sp, #176]
 1634 11da 41EA8741 		orr	r1, r1, r7, lsl #18
 1635 11de BD0C     		lsrs	r5, r7, #18
 1636 11e0 0CE0     		b	.L17
 1637              	.L18:
 1638 11e2 00BF     		.align	2
 1639              	.L16:
 1640 11e4 6F897BF2 		.word	-226784913
 1641 11e8 745DBE72 		.word	1925078388
 1642 11ec B196163B 		.word	991336113
 1643 11f0 3512C725 		.word	633803317
 1644 11f4 A706DC9B 		.word	-1680079193
 1645 11f8 FEB1DE80 		.word	-2132889090
 1646              	.L17:
 1647 11fc 45EA8235 		orr	r5, r5, r2, lsl #14
 1648 1200 81EA0602 		eor	r2, r1, r6
 1649 1204 2C99     		ldr	r1, [sp, #176]
 1650 1206 6C40     		eors	r4, r4, r5
 1651 1208 FD05     		lsls	r5, r7, #23
 1652 120a 45EA5125 		orr	r5, r5, r1, lsr #9
 1653 120e C905     		lsls	r1, r1, #23
 1654 1210 41EA5721 		orr	r1, r1, r7, lsr #9
 1655 1214 5140     		eors	r1, r1, r2
 1656 1216 6C40     		eors	r4, r4, r5
 1657 1218 179A     		ldr	r2, [sp, #92]
 1658 121a CA4D     		ldr	r5, .L19
 1659 121c 039E     		ldr	r6, [sp, #12]
 1660 121e 5219     		adds	r2, r2, r5
ARM GAS  /tmp/ccxnUvyY.s 			page 30


 1661 1220 C94D     		ldr	r5, .L19+4
 1662 1222 45EB0605 		adc	r5, r5, r6
 1663 1226 1218     		adds	r2, r2, r0
 1664 1228 43EB0503 		adc	r3, r3, r5
 1665 122c 2C98     		ldr	r0, [sp, #176]
 1666 122e 8A18     		adds	r2, r1, r2
 1667 1230 2899     		ldr	r1, [sp, #160]
 1668 1232 44EB0303 		adc	r3, r4, r3
 1669 1236 21EA0005 		bic	r5, r1, r0
 1670 123a 2999     		ldr	r1, [sp, #164]
 1671 123c 2C9C     		ldr	r4, [sp, #176]
 1672 123e 21EA0700 		bic	r0, r1, r7
 1673 1242 2A99     		ldr	r1, [sp, #168]
 1674 1244 279E     		ldr	r6, [sp, #156]
 1675 1246 2140     		ands	r1, r1, r4
 1676 1248 2B9C     		ldr	r4, [sp, #172]
 1677 124a 6940     		eors	r1, r1, r5
 1678 124c 3C40     		ands	r4, r4, r7
 1679 124e 5218     		adds	r2, r2, r1
 1680 1250 80EA0400 		eor	r0, r0, r4
 1681 1254 43EB0003 		adc	r3, r3, r0
 1682 1258 4FEA8C71 		lsl	r1, ip, #30
 1683 125c 4FEA1C70 		lsr	r0, ip, #28
 1684 1260 41EA9A01 		orr	r1, r1, r10, lsr #2
 1685 1264 40EA0A10 		orr	r0, r0, r10, lsl #4
 1686 1268 4FEA1A74 		lsr	r4, r10, #28
 1687 126c 4FEA8A75 		lsl	r5, r10, #30
 1688 1270 4840     		eors	r0, r0, r1
 1689 1272 4FEA4C61 		lsl	r1, ip, #25
 1690 1276 45EA9C05 		orr	r5, r5, ip, lsr #2
 1691 127a 41EADA11 		orr	r1, r1, r10, lsr #7
 1692 127e 44EA0C14 		orr	r4, r4, ip, lsl #4
 1693 1282 6C40     		eors	r4, r4, r5
 1694 1284 4840     		eors	r0, r0, r1
 1695 1286 4FEA4A65 		lsl	r5, r10, #25
 1696 128a 2799     		ldr	r1, [sp, #156]
 1697 128c 45EADC15 		orr	r5, r5, ip, lsr #7
 1698 1290 6C40     		eors	r4, r4, r5
 1699 1292 8BEA0101 		eor	r1, fp, r1
 1700 1296 269D     		ldr	r5, [sp, #152]
 1701 1298 0BEA0608 		and	r8, fp, r6
 1702 129c 01EA0A01 		and	r1, r1, r10
 1703 12a0 269E     		ldr	r6, [sp, #152]
 1704 12a2 85EA0E05 		eor	r5, r5, lr
 1705 12a6 81EA0801 		eor	r1, r1, r8
 1706 12aa 6118     		adds	r1, r4, r1
 1707 12ac 05EA0C05 		and	r5, r5, ip
 1708 12b0 0A9C     		ldr	r4, [sp, #40]
 1709 12b2 06EA0E06 		and	r6, r6, lr
 1710 12b6 86EA0506 		eor	r6, r6, r5
 1711 12ba 40EB0600 		adc	r0, r0, r6
 1712 12be A418     		adds	r4, r4, r2
 1713 12c0 2D94     		str	r4, [sp, #180]
 1714 12c2 0B9C     		ldr	r4, [sp, #44]
 1715 12c4 309E     		ldr	r6, [sp, #192]
 1716 12c6 44EB0304 		adc	r4, r4, r3
 1717 12ca 12EB0109 		adds	r9, r2, r1
ARM GAS  /tmp/ccxnUvyY.s 			page 31


 1718 12ce 43EB0008 		adc	r8, r3, r0
 1719 12d2 169B     		ldr	r3, [sp, #88]
 1720 12d4 1699     		ldr	r1, [sp, #88]
 1721 12d6 DA0C     		lsrs	r2, r3, #19
 1722 12d8 029B     		ldr	r3, [sp, #8]
 1723 12da 1698     		ldr	r0, [sp, #88]
 1724 12dc 42EA4332 		orr	r2, r2, r3, lsl #13
 1725 12e0 DB0C     		lsrs	r3, r3, #19
 1726 12e2 43EA4133 		orr	r3, r3, r1, lsl #13
 1727 12e6 0299     		ldr	r1, [sp, #8]
 1728 12e8 2E94     		str	r4, [sp, #184]
 1729 12ea C900     		lsls	r1, r1, #3
 1730 12ec 41EA5071 		orr	r1, r1, r0, lsr #29
 1731 12f0 029C     		ldr	r4, [sp, #8]
 1732 12f2 5940     		eors	r1, r1, r3
 1733 12f4 169B     		ldr	r3, [sp, #88]
 1734 12f6 C000     		lsls	r0, r0, #3
 1735 12f8 40EA5470 		orr	r0, r0, r4, lsr #29
 1736 12fc 9B09     		lsrs	r3, r3, #6
 1737 12fe 43EA8463 		orr	r3, r3, r4, lsl #26
 1738 1302 5040     		eors	r0, r0, r2
 1739 1304 5840     		eors	r0, r0, r3
 1740 1306 219A     		ldr	r2, [sp, #132]
 1741 1308 189B     		ldr	r3, [sp, #96]
 1742 130a 81EA9411 		eor	r1, r1, r4, lsr #6
 1743 130e 9A18     		adds	r2, r3, r2
 1744 1310 109C     		ldr	r4, [sp, #64]
 1745 1312 3B9B     		ldr	r3, [sp, #236]
 1746 1314 43EB0403 		adc	r3, r3, r4
 1747 1318 8018     		adds	r0, r0, r2
 1748 131a 41EB0301 		adc	r1, r1, r3
 1749 131e 309B     		ldr	r3, [sp, #192]
 1750 1320 309A     		ldr	r2, [sp, #192]
 1751 1322 5D08     		lsrs	r5, r3, #1
 1752 1324 199B     		ldr	r3, [sp, #100]
 1753 1326 199C     		ldr	r4, [sp, #100]
 1754 1328 45EAC375 		orr	r5, r5, r3, lsl #31
 1755 132c 5B08     		lsrs	r3, r3, #1
 1756 132e 43EAC273 		orr	r3, r3, r2, lsl #31
 1757 1332 120A     		lsrs	r2, r2, #8
 1758 1334 42EA0462 		orr	r2, r2, r4, lsl #24
 1759 1338 240A     		lsrs	r4, r4, #8
 1760 133a 44EA0664 		orr	r4, r4, r6, lsl #24
 1761 133e 6340     		eors	r3, r3, r4
 1762 1340 199C     		ldr	r4, [sp, #100]
 1763 1342 6A40     		eors	r2, r2, r5
 1764 1344 F509     		lsrs	r5, r6, #7
 1765 1346 45EA4465 		orr	r5, r5, r4, lsl #25
 1766 134a 6A40     		eors	r2, r2, r5
 1767 134c 1218     		adds	r2, r2, r0
 1768 134e 83EAD413 		eor	r3, r3, r4, lsr #7
 1769 1352 41EB0303 		adc	r3, r1, r3
 1770 1356 0693     		str	r3, [sp, #24]
 1771 1358 179B     		ldr	r3, [sp, #92]
 1772 135a 1892     		str	r2, [sp, #96]
 1773 135c DC0C     		lsrs	r4, r3, #19
 1774 135e 039B     		ldr	r3, [sp, #12]
ARM GAS  /tmp/ccxnUvyY.s 			page 32


 1775 1360 179A     		ldr	r2, [sp, #92]
 1776 1362 44EA4334 		orr	r4, r4, r3, lsl #13
 1777 1366 DB0C     		lsrs	r3, r3, #19
 1778 1368 43EA4233 		orr	r3, r3, r2, lsl #13
 1779 136c 039A     		ldr	r2, [sp, #12]
 1780 136e D100     		lsls	r1, r2, #3
 1781 1370 179A     		ldr	r2, [sp, #92]
 1782 1372 41EA5271 		orr	r1, r1, r2, lsr #29
 1783 1376 D000     		lsls	r0, r2, #3
 1784 1378 5940     		eors	r1, r1, r3
 1785 137a 039A     		ldr	r2, [sp, #12]
 1786 137c 179B     		ldr	r3, [sp, #92]
 1787 137e 40EA5270 		orr	r0, r0, r2, lsr #29
 1788 1382 9A09     		lsrs	r2, r3, #6
 1789 1384 039B     		ldr	r3, [sp, #12]
 1790 1386 6040     		eors	r0, r0, r4
 1791 1388 42EA8362 		orr	r2, r2, r3, lsl #26
 1792 138c 4240     		eors	r2, r2, r0
 1793 138e 2298     		ldr	r0, [sp, #136]
 1794 1390 119C     		ldr	r4, [sp, #68]
 1795 1392 81EA9311 		eor	r1, r1, r3, lsr #6
 1796 1396 199B     		ldr	r3, [sp, #100]
 1797 1398 3018     		adds	r0, r6, r0
 1798 139a 43EB0403 		adc	r3, r3, r4
 1799 139e 1018     		adds	r0, r2, r0
 1800 13a0 41EB0301 		adc	r1, r1, r3
 1801 13a4 319B     		ldr	r3, [sp, #196]
 1802 13a6 319A     		ldr	r2, [sp, #196]
 1803 13a8 5D08     		lsrs	r5, r3, #1
 1804 13aa 1A9B     		ldr	r3, [sp, #104]
 1805 13ac 1A9C     		ldr	r4, [sp, #104]
 1806 13ae 45EAC375 		orr	r5, r5, r3, lsl #31
 1807 13b2 5B08     		lsrs	r3, r3, #1
 1808 13b4 319E     		ldr	r6, [sp, #196]
 1809 13b6 43EAC273 		orr	r3, r3, r2, lsl #31
 1810 13ba 120A     		lsrs	r2, r2, #8
 1811 13bc 42EA0462 		orr	r2, r2, r4, lsl #24
 1812 13c0 240A     		lsrs	r4, r4, #8
 1813 13c2 44EA0664 		orr	r4, r4, r6, lsl #24
 1814 13c6 6340     		eors	r3, r3, r4
 1815 13c8 1A9C     		ldr	r4, [sp, #104]
 1816 13ca 6A40     		eors	r2, r2, r5
 1817 13cc F509     		lsrs	r5, r6, #7
 1818 13ce 45EA4465 		orr	r5, r5, r4, lsl #25
 1819 13d2 6A40     		eors	r2, r2, r5
 1820 13d4 1218     		adds	r2, r2, r0
 1821 13d6 83EAD413 		eor	r3, r3, r4, lsr #7
 1822 13da 41EB0303 		adc	r3, r1, r3
 1823 13de 0793     		str	r3, [sp, #28]
 1824 13e0 329B     		ldr	r3, [sp, #200]
 1825 13e2 1992     		str	r2, [sp, #100]
 1826 13e4 5C08     		lsrs	r4, r3, #1
 1827 13e6 1B9B     		ldr	r3, [sp, #108]
 1828 13e8 329A     		ldr	r2, [sp, #200]
 1829 13ea 44EAC374 		orr	r4, r4, r3, lsl #31
 1830 13ee 5B08     		lsrs	r3, r3, #1
 1831 13f0 43EAC273 		orr	r3, r3, r2, lsl #31
ARM GAS  /tmp/ccxnUvyY.s 			page 33


 1832 13f4 100A     		lsrs	r0, r2, #8
 1833 13f6 1B9A     		ldr	r2, [sp, #108]
 1834 13f8 40EA0260 		orr	r0, r0, r2, lsl #24
 1835 13fc 110A     		lsrs	r1, r2, #8
 1836 13fe 329A     		ldr	r2, [sp, #200]
 1837 1400 6040     		eors	r0, r0, r4
 1838 1402 41EA0261 		orr	r1, r1, r2, lsl #24
 1839 1406 5940     		eors	r1, r1, r3
 1840 1408 1B9B     		ldr	r3, [sp, #108]
 1841 140a D209     		lsrs	r2, r2, #7
 1842 140c 42EA4362 		orr	r2, r2, r3, lsl #25
 1843 1410 4240     		eors	r2, r2, r0
 1844 1412 2398     		ldr	r0, [sp, #140]
 1845 1414 129C     		ldr	r4, [sp, #72]
 1846 1416 81EAD311 		eor	r1, r1, r3, lsr #7
 1847 141a 1A9B     		ldr	r3, [sp, #104]
 1848 141c 3018     		adds	r0, r6, r0
 1849 141e 43EB0403 		adc	r3, r3, r4
 1850 1422 1018     		adds	r0, r2, r0
 1851 1424 41EB0301 		adc	r1, r1, r3
 1852 1428 189B     		ldr	r3, [sp, #96]
 1853 142a 189A     		ldr	r2, [sp, #96]
 1854 142c DD0C     		lsrs	r5, r3, #19
 1855 142e 069B     		ldr	r3, [sp, #24]
 1856 1430 45EA4335 		orr	r5, r5, r3, lsl #13
 1857 1434 DB0C     		lsrs	r3, r3, #19
 1858 1436 43EA4233 		orr	r3, r3, r2, lsl #13
 1859 143a 069A     		ldr	r2, [sp, #24]
 1860 143c D400     		lsls	r4, r2, #3
 1861 143e 189A     		ldr	r2, [sp, #96]
 1862 1440 069E     		ldr	r6, [sp, #24]
 1863 1442 44EA5274 		orr	r4, r4, r2, lsr #29
 1864 1446 6340     		eors	r3, r3, r4
 1865 1448 D200     		lsls	r2, r2, #3
 1866 144a 189C     		ldr	r4, [sp, #96]
 1867 144c 42EA5672 		orr	r2, r2, r6, lsr #29
 1868 1450 6A40     		eors	r2, r2, r5
 1869 1452 A509     		lsrs	r5, r4, #6
 1870 1454 45EA8665 		orr	r5, r5, r6, lsl #26
 1871 1458 6A40     		eors	r2, r2, r5
 1872 145a 1218     		adds	r2, r2, r0
 1873 145c 83EA9613 		eor	r3, r3, r6, lsr #6
 1874 1460 41EB0303 		adc	r3, r1, r3
 1875 1464 0893     		str	r3, [sp, #32]
 1876 1466 339B     		ldr	r3, [sp, #204]
 1877 1468 1A92     		str	r2, [sp, #104]
 1878 146a 5C08     		lsrs	r4, r3, #1
 1879 146c 1C9B     		ldr	r3, [sp, #112]
 1880 146e 339A     		ldr	r2, [sp, #204]
 1881 1470 44EAC374 		orr	r4, r4, r3, lsl #31
 1882 1474 5B08     		lsrs	r3, r3, #1
 1883 1476 43EAC273 		orr	r3, r3, r2, lsl #31
 1884 147a 100A     		lsrs	r0, r2, #8
 1885 147c 1C9A     		ldr	r2, [sp, #112]
 1886 147e 079E     		ldr	r6, [sp, #28]
 1887 1480 40EA0260 		orr	r0, r0, r2, lsl #24
 1888 1484 110A     		lsrs	r1, r2, #8
ARM GAS  /tmp/ccxnUvyY.s 			page 34


 1889 1486 339A     		ldr	r2, [sp, #204]
 1890 1488 6040     		eors	r0, r0, r4
 1891 148a 41EA0261 		orr	r1, r1, r2, lsl #24
 1892 148e 5940     		eors	r1, r1, r3
 1893 1490 1C9B     		ldr	r3, [sp, #112]
 1894 1492 D209     		lsrs	r2, r2, #7
 1895 1494 42EA4362 		orr	r2, r2, r3, lsl #25
 1896 1498 4240     		eors	r2, r2, r0
 1897 149a 81EAD311 		eor	r1, r1, r3, lsr #7
 1898 149e 2498     		ldr	r0, [sp, #144]
 1899 14a0 329B     		ldr	r3, [sp, #200]
 1900 14a2 139C     		ldr	r4, [sp, #76]
 1901 14a4 1818     		adds	r0, r3, r0
 1902 14a6 1B9B     		ldr	r3, [sp, #108]
 1903 14a8 43EB0403 		adc	r3, r3, r4
 1904 14ac 1018     		adds	r0, r2, r0
 1905 14ae 41EB0301 		adc	r1, r1, r3
 1906 14b2 199B     		ldr	r3, [sp, #100]
 1907 14b4 199A     		ldr	r2, [sp, #100]
 1908 14b6 DD0C     		lsrs	r5, r3, #19
 1909 14b8 079B     		ldr	r3, [sp, #28]
 1910 14ba 45EA4335 		orr	r5, r5, r3, lsl #13
 1911 14be DB0C     		lsrs	r3, r3, #19
 1912 14c0 43EA4233 		orr	r3, r3, r2, lsl #13
 1913 14c4 079A     		ldr	r2, [sp, #28]
 1914 14c6 D400     		lsls	r4, r2, #3
 1915 14c8 199A     		ldr	r2, [sp, #100]
 1916 14ca 44EA5274 		orr	r4, r4, r2, lsr #29
 1917 14ce 6340     		eors	r3, r3, r4
 1918 14d0 D200     		lsls	r2, r2, #3
 1919 14d2 199C     		ldr	r4, [sp, #100]
 1920 14d4 42EA5672 		orr	r2, r2, r6, lsr #29
 1921 14d8 6A40     		eors	r2, r2, r5
 1922 14da A509     		lsrs	r5, r4, #6
 1923 14dc 45EA8665 		orr	r5, r5, r6, lsl #26
 1924 14e0 6A40     		eors	r2, r2, r5
 1925 14e2 1218     		adds	r2, r2, r0
 1926 14e4 83EA9613 		eor	r3, r3, r6, lsr #6
 1927 14e8 41EB0303 		adc	r3, r1, r3
 1928 14ec 0993     		str	r3, [sp, #36]
 1929 14ee 379B     		ldr	r3, [sp, #220]
 1930 14f0 1B92     		str	r2, [sp, #108]
 1931 14f2 5C08     		lsrs	r4, r3, #1
 1932 14f4 1D9B     		ldr	r3, [sp, #116]
 1933 14f6 379A     		ldr	r2, [sp, #220]
 1934 14f8 44EAC374 		orr	r4, r4, r3, lsl #31
 1935 14fc 5B08     		lsrs	r3, r3, #1
 1936 14fe 43EAC273 		orr	r3, r3, r2, lsl #31
 1937 1502 100A     		lsrs	r0, r2, #8
 1938 1504 1D9A     		ldr	r2, [sp, #116]
 1939 1506 40EA0260 		orr	r0, r0, r2, lsl #24
 1940 150a 110A     		lsrs	r1, r2, #8
 1941 150c 379A     		ldr	r2, [sp, #220]
 1942 150e 6040     		eors	r0, r0, r4
 1943 1510 41EA0261 		orr	r1, r1, r2, lsl #24
 1944 1514 5940     		eors	r1, r1, r3
 1945 1516 1D9B     		ldr	r3, [sp, #116]
ARM GAS  /tmp/ccxnUvyY.s 			page 35


 1946 1518 D209     		lsrs	r2, r2, #7
 1947 151a 42EA4362 		orr	r2, r2, r3, lsl #25
 1948 151e 4240     		eors	r2, r2, r0
 1949 1520 81EAD311 		eor	r1, r1, r3, lsr #7
 1950 1524 2F98     		ldr	r0, [sp, #188]
 1951 1526 339B     		ldr	r3, [sp, #204]
 1952 1528 1818     		adds	r0, r3, r0
 1953 152a 1C9B     		ldr	r3, [sp, #112]
 1954 152c 259C     		ldr	r4, [sp, #148]
 1955 152e 089E     		ldr	r6, [sp, #32]
 1956 1530 43EB0403 		adc	r3, r3, r4
 1957 1534 1018     		adds	r0, r2, r0
 1958 1536 41EB0301 		adc	r1, r1, r3
 1959 153a 1A9B     		ldr	r3, [sp, #104]
 1960 153c 1A9A     		ldr	r2, [sp, #104]
 1961 153e DD0C     		lsrs	r5, r3, #19
 1962 1540 04E0     		b	.L20
 1963              	.L21:
 1964 1542 00BF     		.align	2
 1965              	.L19:
 1966 1544 942669CF 		.word	-815192428
 1967 1548 74F19BC1 		.word	-1046744716
 1968              	.L20:
 1969 154c 089B     		ldr	r3, [sp, #32]
 1970 154e 45EA4335 		orr	r5, r5, r3, lsl #13
 1971 1552 DB0C     		lsrs	r3, r3, #19
 1972 1554 43EA4233 		orr	r3, r3, r2, lsl #13
 1973 1558 089A     		ldr	r2, [sp, #32]
 1974 155a D400     		lsls	r4, r2, #3
 1975 155c 1A9A     		ldr	r2, [sp, #104]
 1976 155e 44EA5274 		orr	r4, r4, r2, lsr #29
 1977 1562 6340     		eors	r3, r3, r4
 1978 1564 D200     		lsls	r2, r2, #3
 1979 1566 1A9C     		ldr	r4, [sp, #104]
 1980 1568 42EA5672 		orr	r2, r2, r6, lsr #29
 1981 156c 6A40     		eors	r2, r2, r5
 1982 156e A509     		lsrs	r5, r4, #6
 1983 1570 45EA8665 		orr	r5, r5, r6, lsl #26
 1984 1574 6A40     		eors	r2, r2, r5
 1985 1576 1218     		adds	r2, r2, r0
 1986 1578 83EA9613 		eor	r3, r3, r6, lsr #6
 1987 157c 41EB0303 		adc	r3, r1, r3
 1988 1580 0A93     		str	r3, [sp, #40]
 1989 1582 389B     		ldr	r3, [sp, #224]
 1990 1584 1C92     		str	r2, [sp, #112]
 1991 1586 5C08     		lsrs	r4, r3, #1
 1992 1588 1E9B     		ldr	r3, [sp, #120]
 1993 158a 389A     		ldr	r2, [sp, #224]
 1994 158c 44EAC374 		orr	r4, r4, r3, lsl #31
 1995 1590 5B08     		lsrs	r3, r3, #1
 1996 1592 43EAC273 		orr	r3, r3, r2, lsl #31
 1997 1596 100A     		lsrs	r0, r2, #8
 1998 1598 1E9A     		ldr	r2, [sp, #120]
 1999 159a 099E     		ldr	r6, [sp, #36]
 2000 159c 40EA0260 		orr	r0, r0, r2, lsl #24
 2001 15a0 110A     		lsrs	r1, r2, #8
 2002 15a2 389A     		ldr	r2, [sp, #224]
ARM GAS  /tmp/ccxnUvyY.s 			page 36


 2003 15a4 6040     		eors	r0, r0, r4
 2004 15a6 41EA0261 		orr	r1, r1, r2, lsl #24
 2005 15aa 5940     		eors	r1, r1, r3
 2006 15ac 1E9B     		ldr	r3, [sp, #120]
 2007 15ae D209     		lsrs	r2, r2, #7
 2008 15b0 42EA4362 		orr	r2, r2, r3, lsl #25
 2009 15b4 4240     		eors	r2, r2, r0
 2010 15b6 81EAD311 		eor	r1, r1, r3, lsr #7
 2011 15ba 1698     		ldr	r0, [sp, #88]
 2012 15bc 379B     		ldr	r3, [sp, #220]
 2013 15be 029C     		ldr	r4, [sp, #8]
 2014 15c0 1818     		adds	r0, r3, r0
 2015 15c2 1D9B     		ldr	r3, [sp, #116]
 2016 15c4 43EB0403 		adc	r3, r3, r4
 2017 15c8 1018     		adds	r0, r2, r0
 2018 15ca 41EB0301 		adc	r1, r1, r3
 2019 15ce 1B9B     		ldr	r3, [sp, #108]
 2020 15d0 1B9A     		ldr	r2, [sp, #108]
 2021 15d2 DD0C     		lsrs	r5, r3, #19
 2022 15d4 099B     		ldr	r3, [sp, #36]
 2023 15d6 45EA4335 		orr	r5, r5, r3, lsl #13
 2024 15da DB0C     		lsrs	r3, r3, #19
 2025 15dc 43EA4233 		orr	r3, r3, r2, lsl #13
 2026 15e0 099A     		ldr	r2, [sp, #36]
 2027 15e2 D400     		lsls	r4, r2, #3
 2028 15e4 1B9A     		ldr	r2, [sp, #108]
 2029 15e6 44EA5274 		orr	r4, r4, r2, lsr #29
 2030 15ea 6340     		eors	r3, r3, r4
 2031 15ec D200     		lsls	r2, r2, #3
 2032 15ee 1B9C     		ldr	r4, [sp, #108]
 2033 15f0 42EA5672 		orr	r2, r2, r6, lsr #29
 2034 15f4 6A40     		eors	r2, r2, r5
 2035 15f6 A509     		lsrs	r5, r4, #6
 2036 15f8 45EA8665 		orr	r5, r5, r6, lsl #26
 2037 15fc 6A40     		eors	r2, r2, r5
 2038 15fe 1218     		adds	r2, r2, r0
 2039 1600 83EA9613 		eor	r3, r3, r6, lsr #6
 2040 1604 41EB0303 		adc	r3, r1, r3
 2041 1608 0B93     		str	r3, [sp, #44]
 2042 160a 399B     		ldr	r3, [sp, #228]
 2043 160c 1D92     		str	r2, [sp, #116]
 2044 160e 5C08     		lsrs	r4, r3, #1
 2045 1610 1F9B     		ldr	r3, [sp, #124]
 2046 1612 399A     		ldr	r2, [sp, #228]
 2047 1614 44EAC374 		orr	r4, r4, r3, lsl #31
 2048 1618 5B08     		lsrs	r3, r3, #1
 2049 161a 43EAC273 		orr	r3, r3, r2, lsl #31
 2050 161e 100A     		lsrs	r0, r2, #8
 2051 1620 1F9A     		ldr	r2, [sp, #124]
 2052 1622 0A9E     		ldr	r6, [sp, #40]
 2053 1624 40EA0260 		orr	r0, r0, r2, lsl #24
 2054 1628 110A     		lsrs	r1, r2, #8
 2055 162a 399A     		ldr	r2, [sp, #228]
 2056 162c 6040     		eors	r0, r0, r4
 2057 162e 41EA0261 		orr	r1, r1, r2, lsl #24
 2058 1632 5940     		eors	r1, r1, r3
 2059 1634 1F9B     		ldr	r3, [sp, #124]
ARM GAS  /tmp/ccxnUvyY.s 			page 37


 2060 1636 D209     		lsrs	r2, r2, #7
 2061 1638 42EA4362 		orr	r2, r2, r3, lsl #25
 2062 163c 4240     		eors	r2, r2, r0
 2063 163e 81EAD311 		eor	r1, r1, r3, lsr #7
 2064 1642 1798     		ldr	r0, [sp, #92]
 2065 1644 389B     		ldr	r3, [sp, #224]
 2066 1646 039C     		ldr	r4, [sp, #12]
 2067 1648 1818     		adds	r0, r3, r0
 2068 164a 1E9B     		ldr	r3, [sp, #120]
 2069 164c 43EB0403 		adc	r3, r3, r4
 2070 1650 1018     		adds	r0, r2, r0
 2071 1652 41EB0301 		adc	r1, r1, r3
 2072 1656 1C9B     		ldr	r3, [sp, #112]
 2073 1658 1C9A     		ldr	r2, [sp, #112]
 2074 165a DD0C     		lsrs	r5, r3, #19
 2075 165c 0A9B     		ldr	r3, [sp, #40]
 2076 165e 45EA4335 		orr	r5, r5, r3, lsl #13
 2077 1662 DB0C     		lsrs	r3, r3, #19
 2078 1664 43EA4233 		orr	r3, r3, r2, lsl #13
 2079 1668 0A9A     		ldr	r2, [sp, #40]
 2080 166a D400     		lsls	r4, r2, #3
 2081 166c 1C9A     		ldr	r2, [sp, #112]
 2082 166e 44EA5274 		orr	r4, r4, r2, lsr #29
 2083 1672 6340     		eors	r3, r3, r4
 2084 1674 D200     		lsls	r2, r2, #3
 2085 1676 1C9C     		ldr	r4, [sp, #112]
 2086 1678 42EA5672 		orr	r2, r2, r6, lsr #29
 2087 167c 6A40     		eors	r2, r2, r5
 2088 167e A509     		lsrs	r5, r4, #6
 2089 1680 45EA8665 		orr	r5, r5, r6, lsl #26
 2090 1684 6A40     		eors	r2, r2, r5
 2091 1686 1218     		adds	r2, r2, r0
 2092 1688 83EA9613 		eor	r3, r3, r6, lsr #6
 2093 168c 41EB0303 		adc	r3, r1, r3
 2094 1690 0C93     		str	r3, [sp, #48]
 2095 1692 3A9B     		ldr	r3, [sp, #232]
 2096 1694 1E92     		str	r2, [sp, #120]
 2097 1696 5A08     		lsrs	r2, r3, #1
 2098 1698 209B     		ldr	r3, [sp, #128]
 2099 169a 3A99     		ldr	r1, [sp, #232]
 2100 169c 42EAC372 		orr	r2, r2, r3, lsl #31
 2101 16a0 5B08     		lsrs	r3, r3, #1
 2102 16a2 43EAC173 		orr	r3, r3, r1, lsl #31
 2103 16a6 080A     		lsrs	r0, r1, #8
 2104 16a8 2099     		ldr	r1, [sp, #128]
 2105 16aa 3A9C     		ldr	r4, [sp, #232]
 2106 16ac 40EA0160 		orr	r0, r0, r1, lsl #24
 2107 16b0 090A     		lsrs	r1, r1, #8
 2108 16b2 41EA0461 		orr	r1, r1, r4, lsl #24
 2109 16b6 5940     		eors	r1, r1, r3
 2110 16b8 209B     		ldr	r3, [sp, #128]
 2111 16ba 5040     		eors	r0, r0, r2
 2112 16bc E209     		lsrs	r2, r4, #7
 2113 16be 42EA4362 		orr	r2, r2, r3, lsl #25
 2114 16c2 81EAD311 		eor	r1, r1, r3, lsr #7
 2115 16c6 399B     		ldr	r3, [sp, #228]
 2116 16c8 5040     		eors	r0, r0, r2
ARM GAS  /tmp/ccxnUvyY.s 			page 38


 2117 16ca C018     		adds	r0, r0, r3
 2118 16cc 1F9B     		ldr	r3, [sp, #124]
 2119 16ce 1D9A     		ldr	r2, [sp, #116]
 2120 16d0 43EB0101 		adc	r1, r3, r1
 2121 16d4 189B     		ldr	r3, [sp, #96]
 2122 16d6 0B9E     		ldr	r6, [sp, #44]
 2123 16d8 C018     		adds	r0, r0, r3
 2124 16da 069B     		ldr	r3, [sp, #24]
 2125 16dc 43EB0101 		adc	r1, r3, r1
 2126 16e0 1D9B     		ldr	r3, [sp, #116]
 2127 16e2 DD0C     		lsrs	r5, r3, #19
 2128 16e4 0B9B     		ldr	r3, [sp, #44]
 2129 16e6 45EA4335 		orr	r5, r5, r3, lsl #13
 2130 16ea DB0C     		lsrs	r3, r3, #19
 2131 16ec 43EA4233 		orr	r3, r3, r2, lsl #13
 2132 16f0 0B9A     		ldr	r2, [sp, #44]
 2133 16f2 D400     		lsls	r4, r2, #3
 2134 16f4 1D9A     		ldr	r2, [sp, #116]
 2135 16f6 44EA5274 		orr	r4, r4, r2, lsr #29
 2136 16fa 6340     		eors	r3, r3, r4
 2137 16fc D200     		lsls	r2, r2, #3
 2138 16fe 1D9C     		ldr	r4, [sp, #116]
 2139 1700 42EA5672 		orr	r2, r2, r6, lsr #29
 2140 1704 6A40     		eors	r2, r2, r5
 2141 1706 A509     		lsrs	r5, r4, #6
 2142 1708 45EA8665 		orr	r5, r5, r6, lsl #26
 2143 170c 6A40     		eors	r2, r2, r5
 2144 170e 1218     		adds	r2, r2, r0
 2145 1710 83EA9613 		eor	r3, r3, r6, lsr #6
 2146 1714 41EB0303 		adc	r3, r1, r3
 2147 1718 0D93     		str	r3, [sp, #52]
 2148 171a 219B     		ldr	r3, [sp, #132]
 2149 171c 1F92     		str	r2, [sp, #124]
 2150 171e 5A08     		lsrs	r2, r3, #1
 2151 1720 109B     		ldr	r3, [sp, #64]
 2152 1722 2199     		ldr	r1, [sp, #132]
 2153 1724 42EAC372 		orr	r2, r2, r3, lsl #31
 2154 1728 5B08     		lsrs	r3, r3, #1
 2155 172a 43EAC173 		orr	r3, r3, r1, lsl #31
 2156 172e 080A     		lsrs	r0, r1, #8
 2157 1730 1099     		ldr	r1, [sp, #64]
 2158 1732 219C     		ldr	r4, [sp, #132]
 2159 1734 40EA0160 		orr	r0, r0, r1, lsl #24
 2160 1738 090A     		lsrs	r1, r1, #8
 2161 173a 41EA0461 		orr	r1, r1, r4, lsl #24
 2162 173e 5940     		eors	r1, r1, r3
 2163 1740 109B     		ldr	r3, [sp, #64]
 2164 1742 5040     		eors	r0, r0, r2
 2165 1744 E209     		lsrs	r2, r4, #7
 2166 1746 42EA4362 		orr	r2, r2, r3, lsl #25
 2167 174a 81EAD311 		eor	r1, r1, r3, lsr #7
 2168 174e 3A9B     		ldr	r3, [sp, #232]
 2169 1750 5040     		eors	r0, r0, r2
 2170 1752 C018     		adds	r0, r0, r3
 2171 1754 209B     		ldr	r3, [sp, #128]
 2172 1756 1E9A     		ldr	r2, [sp, #120]
 2173 1758 43EB0101 		adc	r1, r3, r1
ARM GAS  /tmp/ccxnUvyY.s 			page 39


 2174 175c 199B     		ldr	r3, [sp, #100]
 2175 175e 0C9E     		ldr	r6, [sp, #48]
 2176 1760 C018     		adds	r0, r0, r3
 2177 1762 079B     		ldr	r3, [sp, #28]
 2178 1764 43EB0101 		adc	r1, r3, r1
 2179 1768 1E9B     		ldr	r3, [sp, #120]
 2180 176a DD0C     		lsrs	r5, r3, #19
 2181 176c 0C9B     		ldr	r3, [sp, #48]
 2182 176e 45EA4335 		orr	r5, r5, r3, lsl #13
 2183 1772 DB0C     		lsrs	r3, r3, #19
 2184 1774 43EA4233 		orr	r3, r3, r2, lsl #13
 2185 1778 0C9A     		ldr	r2, [sp, #48]
 2186 177a D400     		lsls	r4, r2, #3
 2187 177c 1E9A     		ldr	r2, [sp, #120]
 2188 177e 44EA5274 		orr	r4, r4, r2, lsr #29
 2189 1782 6340     		eors	r3, r3, r4
 2190 1784 D200     		lsls	r2, r2, #3
 2191 1786 1E9C     		ldr	r4, [sp, #120]
 2192 1788 42EA5672 		orr	r2, r2, r6, lsr #29
 2193 178c 6A40     		eors	r2, r2, r5
 2194 178e A509     		lsrs	r5, r4, #6
 2195 1790 45EA8665 		orr	r5, r5, r6, lsl #26
 2196 1794 6A40     		eors	r2, r2, r5
 2197 1796 1218     		adds	r2, r2, r0
 2198 1798 83EA9613 		eor	r3, r3, r6, lsr #6
 2199 179c 41EB0303 		adc	r3, r1, r3
 2200 17a0 0E93     		str	r3, [sp, #56]
 2201 17a2 229B     		ldr	r3, [sp, #136]
 2202 17a4 2092     		str	r2, [sp, #128]
 2203 17a6 5A08     		lsrs	r2, r3, #1
 2204 17a8 119B     		ldr	r3, [sp, #68]
 2205 17aa 2299     		ldr	r1, [sp, #136]
 2206 17ac 42EAC372 		orr	r2, r2, r3, lsl #31
 2207 17b0 5B08     		lsrs	r3, r3, #1
 2208 17b2 43EAC173 		orr	r3, r3, r1, lsl #31
 2209 17b6 080A     		lsrs	r0, r1, #8
 2210 17b8 1199     		ldr	r1, [sp, #68]
 2211 17ba 229C     		ldr	r4, [sp, #136]
 2212 17bc 40EA0160 		orr	r0, r0, r1, lsl #24
 2213 17c0 090A     		lsrs	r1, r1, #8
 2214 17c2 41EA0461 		orr	r1, r1, r4, lsl #24
 2215 17c6 5940     		eors	r1, r1, r3
 2216 17c8 119B     		ldr	r3, [sp, #68]
 2217 17ca 5040     		eors	r0, r0, r2
 2218 17cc E209     		lsrs	r2, r4, #7
 2219 17ce 42EA4362 		orr	r2, r2, r3, lsl #25
 2220 17d2 81EAD311 		eor	r1, r1, r3, lsr #7
 2221 17d6 219B     		ldr	r3, [sp, #132]
 2222 17d8 5040     		eors	r0, r0, r2
 2223 17da C018     		adds	r0, r0, r3
 2224 17dc 109B     		ldr	r3, [sp, #64]
 2225 17de 43EB0101 		adc	r1, r3, r1
 2226 17e2 1A9B     		ldr	r3, [sp, #104]
 2227 17e4 C018     		adds	r0, r0, r3
 2228 17e6 089B     		ldr	r3, [sp, #32]
 2229 17e8 43EB0101 		adc	r1, r3, r1
 2230 17ec 1F9B     		ldr	r3, [sp, #124]
ARM GAS  /tmp/ccxnUvyY.s 			page 40


 2231 17ee 1F9A     		ldr	r2, [sp, #124]
 2232 17f0 DD0C     		lsrs	r5, r3, #19
 2233 17f2 0D9B     		ldr	r3, [sp, #52]
 2234 17f4 0D9E     		ldr	r6, [sp, #52]
 2235 17f6 45EA4335 		orr	r5, r5, r3, lsl #13
 2236 17fa DB0C     		lsrs	r3, r3, #19
 2237 17fc 43EA4233 		orr	r3, r3, r2, lsl #13
 2238 1800 0D9A     		ldr	r2, [sp, #52]
 2239 1802 D400     		lsls	r4, r2, #3
 2240 1804 1F9A     		ldr	r2, [sp, #124]
 2241 1806 44EA5274 		orr	r4, r4, r2, lsr #29
 2242 180a 6340     		eors	r3, r3, r4
 2243 180c D200     		lsls	r2, r2, #3
 2244 180e 1F9C     		ldr	r4, [sp, #124]
 2245 1810 42EA5672 		orr	r2, r2, r6, lsr #29
 2246 1814 6A40     		eors	r2, r2, r5
 2247 1816 A509     		lsrs	r5, r4, #6
 2248 1818 45EA8665 		orr	r5, r5, r6, lsl #26
 2249 181c 6A40     		eors	r2, r2, r5
 2250 181e 1218     		adds	r2, r2, r0
 2251 1820 83EA9613 		eor	r3, r3, r6, lsr #6
 2252 1824 41EB0303 		adc	r3, r1, r3
 2253 1828 0F93     		str	r3, [sp, #60]
 2254 182a 239B     		ldr	r3, [sp, #140]
 2255 182c 2192     		str	r2, [sp, #132]
 2256 182e 5A08     		lsrs	r2, r3, #1
 2257 1830 129B     		ldr	r3, [sp, #72]
 2258 1832 2399     		ldr	r1, [sp, #140]
 2259 1834 42EAC372 		orr	r2, r2, r3, lsl #31
 2260 1838 5B08     		lsrs	r3, r3, #1
 2261 183a 43EAC173 		orr	r3, r3, r1, lsl #31
 2262 183e 080A     		lsrs	r0, r1, #8
 2263 1840 1299     		ldr	r1, [sp, #72]
 2264 1842 239C     		ldr	r4, [sp, #140]
 2265 1844 40EA0160 		orr	r0, r0, r1, lsl #24
 2266 1848 090A     		lsrs	r1, r1, #8
 2267 184a 41EA0461 		orr	r1, r1, r4, lsl #24
 2268 184e 5940     		eors	r1, r1, r3
 2269 1850 129B     		ldr	r3, [sp, #72]
 2270 1852 5040     		eors	r0, r0, r2
 2271 1854 E209     		lsrs	r2, r4, #7
 2272 1856 42EA4362 		orr	r2, r2, r3, lsl #25
 2273 185a 81EAD311 		eor	r1, r1, r3, lsr #7
 2274 185e 229B     		ldr	r3, [sp, #136]
 2275 1860 5040     		eors	r0, r0, r2
 2276 1862 C018     		adds	r0, r0, r3
 2277 1864 119B     		ldr	r3, [sp, #68]
 2278 1866 209A     		ldr	r2, [sp, #128]
 2279 1868 43EB0101 		adc	r1, r3, r1
 2280 186c 1B9B     		ldr	r3, [sp, #108]
 2281 186e 0E9E     		ldr	r6, [sp, #56]
 2282 1870 C018     		adds	r0, r0, r3
 2283 1872 099B     		ldr	r3, [sp, #36]
 2284 1874 43EB0101 		adc	r1, r3, r1
 2285 1878 209B     		ldr	r3, [sp, #128]
 2286 187a DD0C     		lsrs	r5, r3, #19
 2287 187c 0E9B     		ldr	r3, [sp, #56]
ARM GAS  /tmp/ccxnUvyY.s 			page 41


 2288 187e 45EA4335 		orr	r5, r5, r3, lsl #13
 2289 1882 DB0C     		lsrs	r3, r3, #19
 2290 1884 43EA4233 		orr	r3, r3, r2, lsl #13
 2291 1888 0E9A     		ldr	r2, [sp, #56]
 2292 188a D400     		lsls	r4, r2, #3
 2293 188c 209A     		ldr	r2, [sp, #128]
 2294 188e 44EA5274 		orr	r4, r4, r2, lsr #29
 2295 1892 6340     		eors	r3, r3, r4
 2296 1894 D200     		lsls	r2, r2, #3
 2297 1896 209C     		ldr	r4, [sp, #128]
 2298 1898 42EA5672 		orr	r2, r2, r6, lsr #29
 2299 189c 6A40     		eors	r2, r2, r5
 2300 189e A509     		lsrs	r5, r4, #6
 2301 18a0 45EA8665 		orr	r5, r5, r6, lsl #26
 2302 18a4 6A40     		eors	r2, r2, r5
 2303 18a6 1218     		adds	r2, r2, r0
 2304 18a8 83EA9613 		eor	r3, r3, r6, lsr #6
 2305 18ac 41EB0303 		adc	r3, r1, r3
 2306 18b0 1093     		str	r3, [sp, #64]
 2307 18b2 249B     		ldr	r3, [sp, #144]
 2308 18b4 2292     		str	r2, [sp, #136]
 2309 18b6 5A08     		lsrs	r2, r3, #1
 2310 18b8 139B     		ldr	r3, [sp, #76]
 2311 18ba 2499     		ldr	r1, [sp, #144]
 2312 18bc 42EAC372 		orr	r2, r2, r3, lsl #31
 2313 18c0 5B08     		lsrs	r3, r3, #1
 2314 18c2 43EAC173 		orr	r3, r3, r1, lsl #31
 2315 18c6 080A     		lsrs	r0, r1, #8
 2316 18c8 1399     		ldr	r1, [sp, #76]
 2317 18ca 249C     		ldr	r4, [sp, #144]
 2318 18cc 40EA0160 		orr	r0, r0, r1, lsl #24
 2319 18d0 090A     		lsrs	r1, r1, #8
 2320 18d2 41EA0461 		orr	r1, r1, r4, lsl #24
 2321 18d6 5940     		eors	r1, r1, r3
 2322 18d8 139B     		ldr	r3, [sp, #76]
 2323 18da 5040     		eors	r0, r0, r2
 2324 18dc E209     		lsrs	r2, r4, #7
 2325 18de 42EA4362 		orr	r2, r2, r3, lsl #25
 2326 18e2 81EAD311 		eor	r1, r1, r3, lsr #7
 2327 18e6 239B     		ldr	r3, [sp, #140]
 2328 18e8 5040     		eors	r0, r0, r2
 2329 18ea C018     		adds	r0, r0, r3
 2330 18ec 129B     		ldr	r3, [sp, #72]
 2331 18ee 219A     		ldr	r2, [sp, #132]
 2332 18f0 43EB0101 		adc	r1, r3, r1
 2333 18f4 1C9B     		ldr	r3, [sp, #112]
 2334 18f6 0F9E     		ldr	r6, [sp, #60]
 2335 18f8 C018     		adds	r0, r0, r3
 2336 18fa 0A9B     		ldr	r3, [sp, #40]
 2337 18fc 43EB0101 		adc	r1, r3, r1
 2338 1900 219B     		ldr	r3, [sp, #132]
 2339 1902 DD0C     		lsrs	r5, r3, #19
 2340 1904 0F9B     		ldr	r3, [sp, #60]
 2341 1906 45EA4335 		orr	r5, r5, r3, lsl #13
 2342 190a DB0C     		lsrs	r3, r3, #19
 2343 190c 43EA4233 		orr	r3, r3, r2, lsl #13
 2344 1910 0F9A     		ldr	r2, [sp, #60]
ARM GAS  /tmp/ccxnUvyY.s 			page 42


 2345 1912 D400     		lsls	r4, r2, #3
 2346 1914 219A     		ldr	r2, [sp, #132]
 2347 1916 44EA5274 		orr	r4, r4, r2, lsr #29
 2348 191a 6340     		eors	r3, r3, r4
 2349 191c D200     		lsls	r2, r2, #3
 2350 191e 219C     		ldr	r4, [sp, #132]
 2351 1920 42EA5672 		orr	r2, r2, r6, lsr #29
 2352 1924 6A40     		eors	r2, r2, r5
 2353 1926 A509     		lsrs	r5, r4, #6
 2354 1928 45EA8665 		orr	r5, r5, r6, lsl #26
 2355 192c 6A40     		eors	r2, r2, r5
 2356 192e 1218     		adds	r2, r2, r0
 2357 1930 83EA9613 		eor	r3, r3, r6, lsr #6
 2358 1934 41EB0303 		adc	r3, r1, r3
 2359 1938 1193     		str	r3, [sp, #68]
 2360 193a 2F9B     		ldr	r3, [sp, #188]
 2361 193c 2392     		str	r2, [sp, #140]
 2362 193e 5A08     		lsrs	r2, r3, #1
 2363 1940 259B     		ldr	r3, [sp, #148]
 2364 1942 2F99     		ldr	r1, [sp, #188]
 2365 1944 42EAC372 		orr	r2, r2, r3, lsl #31
 2366 1948 5B08     		lsrs	r3, r3, #1
 2367 194a 43EAC173 		orr	r3, r3, r1, lsl #31
 2368 194e 080A     		lsrs	r0, r1, #8
 2369 1950 2599     		ldr	r1, [sp, #148]
 2370 1952 2F9C     		ldr	r4, [sp, #188]
 2371 1954 40EA0160 		orr	r0, r0, r1, lsl #24
 2372 1958 090A     		lsrs	r1, r1, #8
 2373 195a 41EA0461 		orr	r1, r1, r4, lsl #24
 2374 195e 5940     		eors	r1, r1, r3
 2375 1960 259B     		ldr	r3, [sp, #148]
 2376 1962 5040     		eors	r0, r0, r2
 2377 1964 E209     		lsrs	r2, r4, #7
 2378 1966 42EA4362 		orr	r2, r2, r3, lsl #25
 2379 196a 81EAD311 		eor	r1, r1, r3, lsr #7
 2380 196e 249B     		ldr	r3, [sp, #144]
 2381 1970 5040     		eors	r0, r0, r2
 2382 1972 C018     		adds	r0, r0, r3
 2383 1974 139B     		ldr	r3, [sp, #76]
 2384 1976 229A     		ldr	r2, [sp, #136]
 2385 1978 43EB0101 		adc	r1, r3, r1
 2386 197c 1D9B     		ldr	r3, [sp, #116]
 2387 197e 109E     		ldr	r6, [sp, #64]
 2388 1980 C018     		adds	r0, r0, r3
 2389 1982 0B9B     		ldr	r3, [sp, #44]
 2390 1984 43EB0101 		adc	r1, r3, r1
 2391 1988 229B     		ldr	r3, [sp, #136]
 2392 198a DD0C     		lsrs	r5, r3, #19
 2393 198c 109B     		ldr	r3, [sp, #64]
 2394 198e 45EA4335 		orr	r5, r5, r3, lsl #13
 2395 1992 DB0C     		lsrs	r3, r3, #19
 2396 1994 43EA4233 		orr	r3, r3, r2, lsl #13
 2397 1998 109A     		ldr	r2, [sp, #64]
 2398 199a D400     		lsls	r4, r2, #3
 2399 199c 229A     		ldr	r2, [sp, #136]
 2400 199e 44EA5274 		orr	r4, r4, r2, lsr #29
 2401 19a2 6340     		eors	r3, r3, r4
ARM GAS  /tmp/ccxnUvyY.s 			page 43


 2402 19a4 D200     		lsls	r2, r2, #3
 2403 19a6 229C     		ldr	r4, [sp, #136]
 2404 19a8 42EA5672 		orr	r2, r2, r6, lsr #29
 2405 19ac 6A40     		eors	r2, r2, r5
 2406 19ae A509     		lsrs	r5, r4, #6
 2407 19b0 45EA8665 		orr	r5, r5, r6, lsl #26
 2408 19b4 6A40     		eors	r2, r2, r5
 2409 19b6 1218     		adds	r2, r2, r0
 2410 19b8 83EA9613 		eor	r3, r3, r6, lsr #6
 2411 19bc 41EB0303 		adc	r3, r1, r3
 2412 19c0 2492     		str	r2, [sp, #144]
 2413 19c2 1293     		str	r3, [sp, #72]
 2414 19c4 169B     		ldr	r3, [sp, #88]
 2415 19c6 1699     		ldr	r1, [sp, #88]
 2416 19c8 5A08     		lsrs	r2, r3, #1
 2417 19ca 029B     		ldr	r3, [sp, #8]
 2418 19cc 080A     		lsrs	r0, r1, #8
 2419 19ce 42EAC372 		orr	r2, r2, r3, lsl #31
 2420 19d2 5B08     		lsrs	r3, r3, #1
 2421 19d4 43EAC173 		orr	r3, r3, r1, lsl #31
 2422 19d8 0299     		ldr	r1, [sp, #8]
 2423 19da 169C     		ldr	r4, [sp, #88]
 2424 19dc 40EA0160 		orr	r0, r0, r1, lsl #24
 2425 19e0 090A     		lsrs	r1, r1, #8
 2426 19e2 41EA0461 		orr	r1, r1, r4, lsl #24
 2427 19e6 5940     		eors	r1, r1, r3
 2428 19e8 029B     		ldr	r3, [sp, #8]
 2429 19ea 5040     		eors	r0, r0, r2
 2430 19ec E209     		lsrs	r2, r4, #7
 2431 19ee 42EA4362 		orr	r2, r2, r3, lsl #25
 2432 19f2 81EAD311 		eor	r1, r1, r3, lsr #7
 2433 19f6 2F9B     		ldr	r3, [sp, #188]
 2434 19f8 5040     		eors	r0, r0, r2
 2435 19fa C018     		adds	r0, r0, r3
 2436 19fc 259B     		ldr	r3, [sp, #148]
 2437 19fe 239A     		ldr	r2, [sp, #140]
 2438 1a00 43EB0101 		adc	r1, r3, r1
 2439 1a04 1E9B     		ldr	r3, [sp, #120]
 2440 1a06 119E     		ldr	r6, [sp, #68]
 2441 1a08 C018     		adds	r0, r0, r3
 2442 1a0a 0C9B     		ldr	r3, [sp, #48]
 2443 1a0c 43EB0101 		adc	r1, r3, r1
 2444 1a10 239B     		ldr	r3, [sp, #140]
 2445 1a12 DD0C     		lsrs	r5, r3, #19
 2446 1a14 119B     		ldr	r3, [sp, #68]
 2447 1a16 45EA4335 		orr	r5, r5, r3, lsl #13
 2448 1a1a DB0C     		lsrs	r3, r3, #19
 2449 1a1c 43EA4233 		orr	r3, r3, r2, lsl #13
 2450 1a20 119A     		ldr	r2, [sp, #68]
 2451 1a22 D400     		lsls	r4, r2, #3
 2452 1a24 239A     		ldr	r2, [sp, #140]
 2453 1a26 44EA5274 		orr	r4, r4, r2, lsr #29
 2454 1a2a 6340     		eors	r3, r3, r4
 2455 1a2c D200     		lsls	r2, r2, #3
 2456 1a2e 239C     		ldr	r4, [sp, #140]
 2457 1a30 42EA5672 		orr	r2, r2, r6, lsr #29
 2458 1a34 6A40     		eors	r2, r2, r5
ARM GAS  /tmp/ccxnUvyY.s 			page 44


 2459 1a36 A509     		lsrs	r5, r4, #6
 2460 1a38 45EA8665 		orr	r5, r5, r6, lsl #26
 2461 1a3c 6A40     		eors	r2, r2, r5
 2462 1a3e 1218     		adds	r2, r2, r0
 2463 1a40 83EA9613 		eor	r3, r3, r6, lsr #6
 2464 1a44 41EB0303 		adc	r3, r1, r3
 2465 1a48 1393     		str	r3, [sp, #76]
 2466 1a4a 179B     		ldr	r3, [sp, #92]
 2467 1a4c 2592     		str	r2, [sp, #148]
 2468 1a4e 5A08     		lsrs	r2, r3, #1
 2469 1a50 039B     		ldr	r3, [sp, #12]
 2470 1a52 1799     		ldr	r1, [sp, #92]
 2471 1a54 42EAC372 		orr	r2, r2, r3, lsl #31
 2472 1a58 5B08     		lsrs	r3, r3, #1
 2473 1a5a 43EAC173 		orr	r3, r3, r1, lsl #31
 2474 1a5e 080A     		lsrs	r0, r1, #8
 2475 1a60 0399     		ldr	r1, [sp, #12]
 2476 1a62 179C     		ldr	r4, [sp, #92]
 2477 1a64 40EA0160 		orr	r0, r0, r1, lsl #24
 2478 1a68 090A     		lsrs	r1, r1, #8
 2479 1a6a 41EA0461 		orr	r1, r1, r4, lsl #24
 2480 1a6e 5940     		eors	r1, r1, r3
 2481 1a70 039B     		ldr	r3, [sp, #12]
 2482 1a72 5040     		eors	r0, r0, r2
 2483 1a74 E209     		lsrs	r2, r4, #7
 2484 1a76 42EA4362 		orr	r2, r2, r3, lsl #25
 2485 1a7a 81EAD311 		eor	r1, r1, r3, lsr #7
 2486 1a7e 169B     		ldr	r3, [sp, #88]
 2487 1a80 5040     		eors	r0, r0, r2
 2488 1a82 C018     		adds	r0, r0, r3
 2489 1a84 029B     		ldr	r3, [sp, #8]
 2490 1a86 43EB0101 		adc	r1, r3, r1
 2491 1a8a 1F9B     		ldr	r3, [sp, #124]
 2492 1a8c C018     		adds	r0, r0, r3
 2493 1a8e 0D9B     		ldr	r3, [sp, #52]
 2494 1a90 43EB0101 		adc	r1, r3, r1
 2495 1a94 249B     		ldr	r3, [sp, #144]
 2496 1a96 DD0C     		lsrs	r5, r3, #19
 2497 1a98 129B     		ldr	r3, [sp, #72]
 2498 1a9a 249A     		ldr	r2, [sp, #144]
 2499 1a9c 45EA4335 		orr	r5, r5, r3, lsl #13
 2500 1aa0 DB0C     		lsrs	r3, r3, #19
 2501 1aa2 43EA4233 		orr	r3, r3, r2, lsl #13
 2502 1aa6 129A     		ldr	r2, [sp, #72]
 2503 1aa8 129E     		ldr	r6, [sp, #72]
 2504 1aaa D400     		lsls	r4, r2, #3
 2505 1aac 249A     		ldr	r2, [sp, #144]
 2506 1aae 44EA5274 		orr	r4, r4, r2, lsr #29
 2507 1ab2 6340     		eors	r3, r3, r4
 2508 1ab4 D200     		lsls	r2, r2, #3
 2509 1ab6 249C     		ldr	r4, [sp, #144]
 2510 1ab8 42EA5672 		orr	r2, r2, r6, lsr #29
 2511 1abc 6A40     		eors	r2, r2, r5
 2512 1abe A509     		lsrs	r5, r4, #6
 2513 1ac0 45EA8665 		orr	r5, r5, r6, lsl #26
 2514 1ac4 6A40     		eors	r2, r2, r5
 2515 1ac6 1218     		adds	r2, r2, r0
ARM GAS  /tmp/ccxnUvyY.s 			page 45


 2516 1ac8 83EA9613 		eor	r3, r3, r6, lsr #6
 2517 1acc 41EB0303 		adc	r3, r1, r3
 2518 1ad0 0293     		str	r3, [sp, #8]
 2519 1ad2 189B     		ldr	r3, [sp, #96]
 2520 1ad4 1692     		str	r2, [sp, #88]
 2521 1ad6 5A08     		lsrs	r2, r3, #1
 2522 1ad8 069B     		ldr	r3, [sp, #24]
 2523 1ada 1899     		ldr	r1, [sp, #96]
 2524 1adc 42EAC372 		orr	r2, r2, r3, lsl #31
 2525 1ae0 5B08     		lsrs	r3, r3, #1
 2526 1ae2 43EAC173 		orr	r3, r3, r1, lsl #31
 2527 1ae6 080A     		lsrs	r0, r1, #8
 2528 1ae8 0699     		ldr	r1, [sp, #24]
 2529 1aea 189C     		ldr	r4, [sp, #96]
 2530 1aec 40EA0160 		orr	r0, r0, r1, lsl #24
 2531 1af0 090A     		lsrs	r1, r1, #8
 2532 1af2 41EA0461 		orr	r1, r1, r4, lsl #24
 2533 1af6 5940     		eors	r1, r1, r3
 2534 1af8 069B     		ldr	r3, [sp, #24]
 2535 1afa 5040     		eors	r0, r0, r2
 2536 1afc E209     		lsrs	r2, r4, #7
 2537 1afe 42EA4362 		orr	r2, r2, r3, lsl #25
 2538 1b02 81EAD311 		eor	r1, r1, r3, lsr #7
 2539 1b06 179B     		ldr	r3, [sp, #92]
 2540 1b08 5040     		eors	r0, r0, r2
 2541 1b0a C018     		adds	r0, r0, r3
 2542 1b0c 039B     		ldr	r3, [sp, #12]
 2543 1b0e 259A     		ldr	r2, [sp, #148]
 2544 1b10 43EB0101 		adc	r1, r3, r1
 2545 1b14 209B     		ldr	r3, [sp, #128]
 2546 1b16 139E     		ldr	r6, [sp, #76]
 2547 1b18 C018     		adds	r0, r0, r3
 2548 1b1a 0E9B     		ldr	r3, [sp, #56]
 2549 1b1c 43EB0101 		adc	r1, r3, r1
 2550 1b20 259B     		ldr	r3, [sp, #148]
 2551 1b22 DD0C     		lsrs	r5, r3, #19
 2552 1b24 139B     		ldr	r3, [sp, #76]
 2553 1b26 45EA4335 		orr	r5, r5, r3, lsl #13
 2554 1b2a DB0C     		lsrs	r3, r3, #19
 2555 1b2c 43EA4233 		orr	r3, r3, r2, lsl #13
 2556 1b30 139A     		ldr	r2, [sp, #76]
 2557 1b32 D400     		lsls	r4, r2, #3
 2558 1b34 259A     		ldr	r2, [sp, #148]
 2559 1b36 44EA5274 		orr	r4, r4, r2, lsr #29
 2560 1b3a 6340     		eors	r3, r3, r4
 2561 1b3c D200     		lsls	r2, r2, #3
 2562 1b3e 259C     		ldr	r4, [sp, #148]
 2563 1b40 42EA5672 		orr	r2, r2, r6, lsr #29
 2564 1b44 6A40     		eors	r2, r2, r5
 2565 1b46 A509     		lsrs	r5, r4, #6
 2566 1b48 45EA8665 		orr	r5, r5, r6, lsl #26
 2567 1b4c 6A40     		eors	r2, r2, r5
 2568 1b4e 1218     		adds	r2, r2, r0
 2569 1b50 83EA9613 		eor	r3, r3, r6, lsr #6
 2570 1b54 41EB0303 		adc	r3, r1, r3
 2571 1b58 0393     		str	r3, [sp, #12]
 2572 1b5a 2D9B     		ldr	r3, [sp, #180]
ARM GAS  /tmp/ccxnUvyY.s 			page 46


 2573 1b5c 1792     		str	r2, [sp, #92]
 2574 1b5e 2E9A     		ldr	r2, [sp, #184]
 2575 1b60 9B0B     		lsrs	r3, r3, #14
 2576 1b62 43EA8243 		orr	r3, r3, r2, lsl #18
 2577 1b66 950B     		lsrs	r5, r2, #14
 2578 1b68 2D9A     		ldr	r2, [sp, #180]
 2579 1b6a 45EA8245 		orr	r5, r5, r2, lsl #18
 2580 1b6e 900C     		lsrs	r0, r2, #18
 2581 1b70 2E9A     		ldr	r2, [sp, #184]
 2582 1b72 40EA8231 		orr	r1, r0, r2, lsl #14
 2583 1b76 960C     		lsrs	r6, r2, #18
 2584 1b78 2D9A     		ldr	r2, [sp, #180]
 2585 1b7a 83EA0100 		eor	r0, r3, r1
 2586 1b7e 2E9B     		ldr	r3, [sp, #184]
 2587 1b80 46EA8232 		orr	r2, r6, r2, lsl #14
 2588 1b84 85EA0206 		eor	r6, r5, r2
 2589 1b88 DD05     		lsls	r5, r3, #23
 2590 1b8a 2D9B     		ldr	r3, [sp, #180]
 2591 1b8c 2E9A     		ldr	r2, [sp, #184]
 2592 1b8e 45EA5325 		orr	r5, r5, r3, lsr #9
 2593 1b92 DB05     		lsls	r3, r3, #23
 2594 1b94 43EA5223 		orr	r3, r3, r2, lsr #9
 2595 1b98 4340     		eors	r3, r3, r0
 2596 1b9a 189A     		ldr	r2, [sp, #96]
 2597 1b9c CF48     		ldr	r0, .L22
 2598 1b9e 7540     		eors	r5, r5, r6
 2599 1ba0 1018     		adds	r0, r2, r0
 2600 1ba2 CF4E     		ldr	r6, .L22+4
 2601 1ba4 069A     		ldr	r2, [sp, #24]
 2602 1ba6 46EB0206 		adc	r6, r6, r2
 2603 1baa 289A     		ldr	r2, [sp, #160]
 2604 1bac 8018     		adds	r0, r0, r2
 2605 1bae 299A     		ldr	r2, [sp, #164]
 2606 1bb0 42EB0606 		adc	r6, r2, r6
 2607 1bb4 2D9A     		ldr	r2, [sp, #180]
 2608 1bb6 1818     		adds	r0, r3, r0
 2609 1bb8 2A9B     		ldr	r3, [sp, #168]
 2610 1bba 45EB0606 		adc	r6, r5, r6
 2611 1bbe 23EA0204 		bic	r4, r3, r2
 2612 1bc2 2B9B     		ldr	r3, [sp, #172]
 2613 1bc4 2E9A     		ldr	r2, [sp, #184]
 2614 1bc6 23EA0202 		bic	r2, r3, r2
 2615 1bca DDE92C31 		ldrd	r3, r1, [sp, #176]
 2616 1bce 0B40     		ands	r3, r3, r1
 2617 1bd0 2E99     		ldr	r1, [sp, #184]
 2618 1bd2 6340     		eors	r3, r3, r4
 2619 1bd4 3940     		ands	r1, r1, r7
 2620 1bd6 C018     		adds	r0, r0, r3
 2621 1bd8 82EA0102 		eor	r2, r2, r1
 2622 1bdc 46EB0206 		adc	r6, r6, r2
 2623 1be0 4FEA1874 		lsr	r4, r8, #28
 2624 1be4 4FEA8872 		lsl	r2, r8, #30
 2625 1be8 42EA9902 		orr	r2, r2, r9, lsr #2
 2626 1bec 44EA0914 		orr	r4, r4, r9, lsl #4
 2627 1bf0 4FEA1973 		lsr	r3, r9, #28
 2628 1bf4 4FEA8971 		lsl	r1, r9, #30
 2629 1bf8 5440     		eors	r4, r4, r2
ARM GAS  /tmp/ccxnUvyY.s 			page 47


 2630 1bfa 4FEA4862 		lsl	r2, r8, #25
 2631 1bfe 41EA9801 		orr	r1, r1, r8, lsr #2
 2632 1c02 42EAD912 		orr	r2, r2, r9, lsr #7
 2633 1c06 43EA0813 		orr	r3, r3, r8, lsl #4
 2634 1c0a 4B40     		eors	r3, r3, r1
 2635 1c0c 5440     		eors	r4, r4, r2
 2636 1c0e 4FEA4961 		lsl	r1, r9, #25
 2637 1c12 279A     		ldr	r2, [sp, #156]
 2638 1c14 41EAD811 		orr	r1, r1, r8, lsr #7
 2639 1c18 4B40     		eors	r3, r3, r1
 2640 1c1a 82EA0A05 		eor	r5, r2, r10
 2641 1c1e 2799     		ldr	r1, [sp, #156]
 2642 1c20 8EEA0C02 		eor	r2, lr, ip
 2643 1c24 2893     		str	r3, [sp, #160]
 2644 1c26 02EA0802 		and	r2, r2, r8
 2645 1c2a 0EEA0C03 		and	r3, lr, ip
 2646 1c2e 05EA0905 		and	r5, r5, r9
 2647 1c32 5A40     		eors	r2, r2, r3
 2648 1c34 01EA0A01 		and	r1, r1, r10
 2649 1c38 289B     		ldr	r3, [sp, #160]
 2650 1c3a 6940     		eors	r1, r1, r5
 2651 1c3c 5B18     		adds	r3, r3, r1
 2652 1c3e 44EB0204 		adc	r4, r4, r2
 2653 1c42 1BEB0002 		adds	r2, fp, r0
 2654 1c46 2F92     		str	r2, [sp, #188]
 2655 1c48 269A     		ldr	r2, [sp, #152]
 2656 1c4a 2F99     		ldr	r1, [sp, #188]
 2657 1c4c 42EB0602 		adc	r2, r2, r6
 2658 1c50 C318     		adds	r3, r0, r3
 2659 1c52 2693     		str	r3, [sp, #152]
 2660 1c54 46EB0403 		adc	r3, r6, r4
 2661 1c58 2893     		str	r3, [sp, #160]
 2662 1c5a 2F9B     		ldr	r3, [sp, #188]
 2663 1c5c 3092     		str	r2, [sp, #192]
 2664 1c5e 9E0B     		lsrs	r6, r3, #14
 2665 1c60 2F9B     		ldr	r3, [sp, #188]
 2666 1c62 940B     		lsrs	r4, r2, #14
 2667 1c64 46EA8246 		orr	r6, r6, r2, lsl #18
 2668 1c68 44EA8344 		orr	r4, r4, r3, lsl #18
 2669 1c6c 9A0C     		lsrs	r2, r3, #18
 2670 1c6e 309B     		ldr	r3, [sp, #192]
 2671 1c70 9C48     		ldr	r0, .L22+8
 2672 1c72 42EA8332 		orr	r2, r2, r3, lsl #14
 2673 1c76 9B0C     		lsrs	r3, r3, #18
 2674 1c78 43EA8133 		orr	r3, r3, r1, lsl #14
 2675 1c7c 5C40     		eors	r4, r4, r3
 2676 1c7e 309B     		ldr	r3, [sp, #192]
 2677 1c80 5640     		eors	r6, r6, r2
 2678 1c82 DB05     		lsls	r3, r3, #23
 2679 1c84 43EA5123 		orr	r3, r3, r1, lsr #9
 2680 1c88 CA05     		lsls	r2, r1, #23
 2681 1c8a 3099     		ldr	r1, [sp, #192]
 2682 1c8c 5C40     		eors	r4, r4, r3
 2683 1c8e 42EA5122 		orr	r2, r2, r1, lsr #9
 2684 1c92 199B     		ldr	r3, [sp, #100]
 2685 1c94 5640     		eors	r6, r6, r2
 2686 1c96 944A     		ldr	r2, .L22+12
ARM GAS  /tmp/ccxnUvyY.s 			page 48


 2687 1c98 0CEA080B 		and	fp, ip, r8
 2688 1c9c 9A18     		adds	r2, r3, r2
 2689 1c9e 079B     		ldr	r3, [sp, #28]
 2690 1ca0 40EB0300 		adc	r0, r0, r3
 2691 1ca4 2A9B     		ldr	r3, [sp, #168]
 2692 1ca6 D218     		adds	r2, r2, r3
 2693 1ca8 2B9B     		ldr	r3, [sp, #172]
 2694 1caa 43EB0000 		adc	r0, r3, r0
 2695 1cae 2C9B     		ldr	r3, [sp, #176]
 2696 1cb0 B618     		adds	r6, r6, r2
 2697 1cb2 2F9A     		ldr	r2, [sp, #188]
 2698 1cb4 44EB0004 		adc	r4, r4, r0
 2699 1cb8 23EA0200 		bic	r0, r3, r2
 2700 1cbc 27EA0102 		bic	r2, r7, r1
 2701 1cc0 2D9B     		ldr	r3, [sp, #180]
 2702 1cc2 2F99     		ldr	r1, [sp, #188]
 2703 1cc4 309D     		ldr	r5, [sp, #192]
 2704 1cc6 0B40     		ands	r3, r3, r1
 2705 1cc8 2E99     		ldr	r1, [sp, #184]
 2706 1cca 4340     		eors	r3, r3, r0
 2707 1ccc 2940     		ands	r1, r1, r5
 2708 1cce F618     		adds	r6, r6, r3
 2709 1cd0 82EA0102 		eor	r2, r2, r1
 2710 1cd4 269B     		ldr	r3, [sp, #152]
 2711 1cd6 44EB0204 		adc	r4, r4, r2
 2712 1cda 289A     		ldr	r2, [sp, #160]
 2713 1cdc 1B0F     		lsrs	r3, r3, #28
 2714 1cde 43EA0213 		orr	r3, r3, r2, lsl #4
 2715 1ce2 100F     		lsrs	r0, r2, #28
 2716 1ce4 269A     		ldr	r2, [sp, #152]
 2717 1ce6 2699     		ldr	r1, [sp, #152]
 2718 1ce8 40EA0210 		orr	r0, r0, r2, lsl #4
 2719 1cec 289A     		ldr	r2, [sp, #160]
 2720 1cee 289D     		ldr	r5, [sp, #160]
 2721 1cf0 9207     		lsls	r2, r2, #30
 2722 1cf2 42EA9102 		orr	r2, r2, r1, lsr #2
 2723 1cf6 8907     		lsls	r1, r1, #30
 2724 1cf8 41EA9501 		orr	r1, r1, r5, lsr #2
 2725 1cfc 4B40     		eors	r3, r3, r1
 2726 1cfe 2699     		ldr	r1, [sp, #152]
 2727 1d00 5040     		eors	r0, r0, r2
 2728 1d02 6A06     		lsls	r2, r5, #25
 2729 1d04 42EAD112 		orr	r2, r2, r1, lsr #7
 2730 1d08 4906     		lsls	r1, r1, #25
 2731 1d0a 41EAD511 		orr	r1, r1, r5, lsr #7
 2732 1d0e 4B40     		eors	r3, r3, r1
 2733 1d10 2699     		ldr	r1, [sp, #152]
 2734 1d12 8AEA0905 		eor	r5, r10, r9
 2735 1d16 0D40     		ands	r5, r5, r1
 2736 1d18 2899     		ldr	r1, [sp, #160]
 2737 1d1a 5040     		eors	r0, r0, r2
 2738 1d1c 8CEA0802 		eor	r2, ip, r8
 2739 1d20 0A40     		ands	r2, r2, r1
 2740 1d22 0AEA0901 		and	r1, r10, r9
 2741 1d26 6940     		eors	r1, r1, r5
 2742 1d28 5B18     		adds	r3, r3, r1
 2743 1d2a 82EA0B02 		eor	r2, r2, fp
ARM GAS  /tmp/ccxnUvyY.s 			page 49


 2744 1d2e 40EB0200 		adc	r0, r0, r2
 2745 1d32 279A     		ldr	r2, [sp, #156]
 2746 1d34 9519     		adds	r5, r2, r6
 2747 1d36 4EEB0402 		adc	r2, lr, r4
 2748 1d3a F318     		adds	r3, r6, r3
 2749 1d3c 2793     		str	r3, [sp, #156]
 2750 1d3e 4FEA9536 		lsr	r6, r5, #14
 2751 1d42 44EB0003 		adc	r3, r4, r0
 2752 1d46 A80C     		lsrs	r0, r5, #18
 2753 1d48 3192     		str	r2, [sp, #196]
 2754 1d4a 2993     		str	r3, [sp, #164]
 2755 1d4c 40EA8230 		orr	r0, r0, r2, lsl #14
 2756 1d50 46EA8246 		orr	r6, r6, r2, lsl #18
 2757 1d54 930B     		lsrs	r3, r2, #14
 2758 1d56 920C     		lsrs	r2, r2, #18
 2759 1d58 42EA8532 		orr	r2, r2, r5, lsl #14
 2760 1d5c 43EA8543 		orr	r3, r3, r5, lsl #18
 2761 1d60 5340     		eors	r3, r3, r2
 2762 1d62 319A     		ldr	r2, [sp, #196]
 2763 1d64 3199     		ldr	r1, [sp, #196]
 2764 1d66 4640     		eors	r6, r6, r0
 2765 1d68 D205     		lsls	r2, r2, #23
 2766 1d6a E805     		lsls	r0, r5, #23
 2767 1d6c 42EA5522 		orr	r2, r2, r5, lsr #9
 2768 1d70 40EA5120 		orr	r0, r0, r1, lsr #9
 2769 1d74 4640     		eors	r6, r6, r0
 2770 1d76 5340     		eors	r3, r3, r2
 2771 1d78 5C48     		ldr	r0, .L22+16
 2772 1d7a 1A9A     		ldr	r2, [sp, #104]
 2773 1d7c 5C4C     		ldr	r4, .L22+20
 2774 1d7e 1218     		adds	r2, r2, r0
 2775 1d80 0898     		ldr	r0, [sp, #32]
 2776 1d82 44EB0004 		adc	r4, r4, r0
 2777 1d86 2C98     		ldr	r0, [sp, #176]
 2778 1d88 1218     		adds	r2, r2, r0
 2779 1d8a 47EB0404 		adc	r4, r7, r4
 2780 1d8e B618     		adds	r6, r6, r2
 2781 1d90 2D9A     		ldr	r2, [sp, #180]
 2782 1d92 43EB0403 		adc	r3, r3, r4
 2783 1d96 22EA0507 		bic	r7, r2, r5
 2784 1d9a 2E9A     		ldr	r2, [sp, #184]
 2785 1d9c 309C     		ldr	r4, [sp, #192]
 2786 1d9e 22EA0100 		bic	r0, r2, r1
 2787 1da2 2F9A     		ldr	r2, [sp, #188]
 2788 1da4 0C40     		ands	r4, r4, r1
 2789 1da6 2A40     		ands	r2, r2, r5
 2790 1da8 7A40     		eors	r2, r2, r7
 2791 1daa B618     		adds	r6, r6, r2
 2792 1dac 80EA0400 		eor	r0, r0, r4
 2793 1db0 279A     		ldr	r2, [sp, #156]
 2794 1db2 43EB0003 		adc	r3, r3, r0
 2795 1db6 2998     		ldr	r0, [sp, #164]
 2796 1db8 279C     		ldr	r4, [sp, #156]
 2797 1dba 120F     		lsrs	r2, r2, #28
 2798 1dbc 42EA0012 		orr	r2, r2, r0, lsl #4
 2799 1dc0 000F     		lsrs	r0, r0, #28
 2800 1dc2 40EA0410 		orr	r0, r0, r4, lsl #4
ARM GAS  /tmp/ccxnUvyY.s 			page 50


 2801 1dc6 299C     		ldr	r4, [sp, #164]
 2802 1dc8 279F     		ldr	r7, [sp, #156]
 2803 1dca A407     		lsls	r4, r4, #30
 2804 1dcc 2999     		ldr	r1, [sp, #164]
 2805 1dce 44EA9704 		orr	r4, r4, r7, lsr #2
 2806 1dd2 BF07     		lsls	r7, r7, #30
 2807 1dd4 47EA9107 		orr	r7, r7, r1, lsr #2
 2808 1dd8 6040     		eors	r0, r0, r4
 2809 1dda 4C06     		lsls	r4, r1, #25
 2810 1ddc 2799     		ldr	r1, [sp, #156]
 2811 1dde 7A40     		eors	r2, r2, r7
 2812 1de0 44EAD114 		orr	r4, r4, r1, lsr #7
 2813 1de4 4F06     		lsls	r7, r1, #25
 2814 1de6 2999     		ldr	r1, [sp, #164]
 2815 1de8 6040     		eors	r0, r0, r4
 2816 1dea 47EAD117 		orr	r7, r7, r1, lsr #7
 2817 1dee 2699     		ldr	r1, [sp, #152]
 2818 1df0 7A40     		eors	r2, r2, r7
 2819 1df2 89EA0107 		eor	r7, r9, r1
 2820 1df6 2899     		ldr	r1, [sp, #160]
 2821 1df8 88EA0104 		eor	r4, r8, r1
 2822 1dfc 2799     		ldr	r1, [sp, #156]
 2823 1dfe 07EA010B 		and	fp, r7, r1
 2824 1e02 2999     		ldr	r1, [sp, #164]
 2825 1e04 0C40     		ands	r4, r4, r1
 2826 1e06 2699     		ldr	r1, [sp, #152]
 2827 1e08 09EA0107 		and	r7, r9, r1
 2828 1e0c 2899     		ldr	r1, [sp, #160]
 2829 1e0e 8BEA0707 		eor	r7, fp, r7
 2830 1e12 08EA010E 		and	lr, r8, r1
 2831 1e16 D219     		adds	r2, r2, r7
 2832 1e18 84EA0E04 		eor	r4, r4, lr
 2833 1e1c 40EB040E 		adc	lr, r0, r4
 2834 1e20 1AEB060A 		adds	r10, r10, r6
 2835 1e24 4CEB0304 		adc	r4, ip, r3
 2836 1e28 B218     		adds	r2, r6, r2
 2837 1e2a 2A92     		str	r2, [sp, #168]
 2838 1e2c 4FEA9A46 		lsr	r6, r10, #18
 2839 1e30 4FEA9A32 		lsr	r2, r10, #14
 2840 1e34 43EB0E03 		adc	r3, r3, lr
 2841 1e38 46EA8436 		orr	r6, r6, r4, lsl #14
 2842 1e3c 42EA8442 		orr	r2, r2, r4, lsl #18
 2843 1e40 2B93     		str	r3, [sp, #172]
 2844 1e42 A00C     		lsrs	r0, r4, #18
 2845 1e44 A30B     		lsrs	r3, r4, #14
 2846 1e46 7240     		eors	r2, r2, r6
 2847 1e48 4FEACA56 		lsl	r6, r10, #23
 2848 1e4c 40EA8A30 		orr	r0, r0, r10, lsl #14
 2849 1e50 46EA5426 		orr	r6, r6, r4, lsr #9
 2850 1e54 43EA8A43 		orr	r3, r3, r10, lsl #18
 2851 1e58 1B99     		ldr	r1, [sp, #108]
 2852 1e5a 4340     		eors	r3, r3, r0
 2853 1e5c 7240     		eors	r2, r2, r6
 2854 1e5e E005     		lsls	r0, r4, #23
 2855 1e60 244E     		ldr	r6, .L22+24
 2856 1e62 40EA5A20 		orr	r0, r0, r10, lsr #9
 2857 1e66 8E19     		adds	r6, r1, r6
ARM GAS  /tmp/ccxnUvyY.s 			page 51


 2858 1e68 83EA0003 		eor	r3, r3, r0
 2859 1e6c 0999     		ldr	r1, [sp, #36]
 2860 1e6e 2248     		ldr	r0, .L22+28
 2861 1e70 40EB0100 		adc	r0, r0, r1
 2862 1e74 2D99     		ldr	r1, [sp, #180]
 2863 1e76 7618     		adds	r6, r6, r1
 2864 1e78 2E99     		ldr	r1, [sp, #184]
 2865 1e7a 41EB0000 		adc	r0, r1, r0
 2866 1e7e 2F99     		ldr	r1, [sp, #188]
 2867 1e80 9219     		adds	r2, r2, r6
 2868 1e82 21EA0A0C 		bic	ip, r1, r10
 2869 1e86 3099     		ldr	r1, [sp, #192]
 2870 1e88 43EB0003 		adc	r3, r3, r0
 2871 1e8c 21EA0406 		bic	r6, r1, r4
 2872 1e90 3199     		ldr	r1, [sp, #196]
 2873 1e92 05EA0A00 		and	r0, r5, r10
 2874 1e96 01EA0407 		and	r7, r1, r4
 2875 1e9a 2A99     		ldr	r1, [sp, #168]
 2876 1e9c 8CEA0000 		eor	r0, ip, r0
 2877 1ea0 1218     		adds	r2, r2, r0
 2878 1ea2 4FEA1170 		lsr	r0, r1, #28
 2879 1ea6 2B99     		ldr	r1, [sp, #172]
 2880 1ea8 86EA0706 		eor	r6, r6, r7
 2881 1eac 43EB0603 		adc	r3, r3, r6
 2882 1eb0 40EA0110 		orr	r0, r0, r1, lsl #4
 2883 1eb4 0E0F     		lsrs	r6, r1, #28
 2884 1eb6 2A99     		ldr	r1, [sp, #168]
 2885 1eb8 46EA0116 		orr	r6, r6, r1, lsl #4
 2886 1ebc 2B99     		ldr	r1, [sp, #172]
 2887 1ebe 8F07     		lsls	r7, r1, #30
 2888 1ec0 2A99     		ldr	r1, [sp, #168]
 2889 1ec2 47EA9107 		orr	r7, r7, r1, lsr #2
 2890 1ec6 4FEA817C 		lsl	ip, r1, #30
 2891 1eca 2B99     		ldr	r1, [sp, #172]
 2892 1ecc 7E40     		eors	r6, r6, r7
 2893 1ece 4CEA910C 		orr	ip, ip, r1, lsr #2
 2894 1ed2 4F06     		lsls	r7, r1, #25
 2895 1ed4 2A99     		ldr	r1, [sp, #168]
 2896 1ed6 80EA0C00 		eor	r0, r0, ip
 2897 1eda 0FE0     		b	.L23
 2898              	.L24:
 2899              		.align	2
 2900              	.L22:
 2901 1edc D24AF19E 		.word	-1628353838
 2902 1ee0 C1699BE4 		.word	-459576895
 2903 1ee4 8647BEEF 		.word	-272742522
 2904 1ee8 E3254F38 		.word	944711139
 2905 1eec B5D58C8B 		.word	-1953704523
 2906 1ef0 C69DC10F 		.word	264347078
 2907 1ef4 659CAC77 		.word	2007800933
 2908 1ef8 CCA10C24 		.word	604807628
 2909              	.L23:
 2910 1efc 47EAD117 		orr	r7, r7, r1, lsr #7
 2911 1f00 4FEA416C 		lsl	ip, r1, #25
 2912 1f04 2B99     		ldr	r1, [sp, #172]
 2913 1f06 7E40     		eors	r6, r6, r7
 2914 1f08 4CEAD11C 		orr	ip, ip, r1, lsr #7
ARM GAS  /tmp/ccxnUvyY.s 			page 52


 2915 1f0c 80EA0C01 		eor	r1, r0, ip
 2916 1f10 2C91     		str	r1, [sp, #176]
 2917 1f12 DDE92617 		ldrd	r1, r7, [sp, #152]
 2918 1f16 81EA070E 		eor	lr, r1, r7
 2919 1f1a DDE92817 		ldrd	r1, r7, [sp, #160]
 2920 1f1e 4F40     		eors	r7, r7, r1
 2921 1f20 2A99     		ldr	r1, [sp, #168]
 2922 1f22 0EEA010E 		and	lr, lr, r1
 2923 1f26 2B99     		ldr	r1, [sp, #172]
 2924 1f28 0F40     		ands	r7, r7, r1
 2925 1f2a DDE92610 		ldrd	r1, r0, [sp, #152]
 2926 1f2e 01EA000C 		and	ip, r1, r0
 2927 1f32 DDE92810 		ldrd	r1, r0, [sp, #160]
 2928 1f36 01EA000B 		and	fp, r1, r0
 2929 1f3a 2C99     		ldr	r1, [sp, #176]
 2930 1f3c 8EEA0C0C 		eor	ip, lr, ip
 2931 1f40 11EB0C0C 		adds	ip, r1, ip
 2932 1f44 87EA0B07 		eor	r7, r7, fp
 2933 1f48 46EB0707 		adc	r7, r6, r7
 2934 1f4c 19EB020B 		adds	fp, r9, r2
 2935 1f50 48EB0300 		adc	r0, r8, r3
 2936 1f54 12EB0C02 		adds	r2, r2, ip
 2937 1f58 43EB0703 		adc	r3, r3, r7
 2938 1f5c 2C92     		str	r2, [sp, #176]
 2939 1f5e 2D93     		str	r3, [sp, #180]
 2940 1f60 4FEA9B32 		lsr	r2, fp, #14
 2941 1f64 4FEA9B43 		lsr	r3, fp, #18
 2942 1f68 870B     		lsrs	r7, r0, #14
 2943 1f6a 860C     		lsrs	r6, r0, #18
 2944 1f6c 42EA8042 		orr	r2, r2, r0, lsl #18
 2945 1f70 43EA803C 		orr	ip, r3, r0, lsl #14
 2946 1f74 46EA8B36 		orr	r6, r6, fp, lsl #14
 2947 1f78 47EA8B47 		orr	r7, r7, fp, lsl #18
 2948 1f7c 82EA0C03 		eor	r3, r2, ip
 2949 1f80 7740     		eors	r7, r7, r6
 2950 1f82 4FEACB52 		lsl	r2, fp, #23
 2951 1f86 C605     		lsls	r6, r0, #23
 2952 1f88 46EA5B26 		orr	r6, r6, fp, lsr #9
 2953 1f8c 42EA5022 		orr	r2, r2, r0, lsr #9
 2954 1f90 5A40     		eors	r2, r2, r3
 2955 1f92 7740     		eors	r7, r7, r6
 2956 1f94 1C9B     		ldr	r3, [sp, #112]
 2957 1f96 CE4E     		ldr	r6, .L25
 2958 1f98 0A99     		ldr	r1, [sp, #40]
 2959 1f9a 9E19     		adds	r6, r3, r6
 2960 1f9c CD4B     		ldr	r3, .L25+4
 2961 1f9e 43EB010C 		adc	ip, r3, r1
 2962 1fa2 2F9B     		ldr	r3, [sp, #188]
 2963 1fa4 3099     		ldr	r1, [sp, #192]
 2964 1fa6 F318     		adds	r3, r6, r3
 2965 1fa8 41EB0C09 		adc	r9, r1, ip
 2966 1fac D318     		adds	r3, r2, r3
 2967 1fae 319A     		ldr	r2, [sp, #196]
 2968 1fb0 25EA0B0C 		bic	ip, r5, fp
 2969 1fb4 22EA0006 		bic	r6, r2, r0
 2970 1fb8 0AEA0B02 		and	r2, r10, fp
 2971 1fbc 8CEA0202 		eor	r2, ip, r2
ARM GAS  /tmp/ccxnUvyY.s 			page 53


 2972 1fc0 47EB0909 		adc	r9, r7, r9
 2973 1fc4 9B18     		adds	r3, r3, r2
 2974 1fc6 2C9A     		ldr	r2, [sp, #176]
 2975 1fc8 04EA0007 		and	r7, r4, r0
 2976 1fcc 86EA0706 		eor	r6, r6, r7
 2977 1fd0 4FEA1277 		lsr	r7, r2, #28
 2978 1fd4 2D9A     		ldr	r2, [sp, #180]
 2979 1fd6 2C99     		ldr	r1, [sp, #176]
 2980 1fd8 47EA0217 		orr	r7, r7, r2, lsl #4
 2981 1fdc 4FEA1272 		lsr	r2, r2, #28
 2982 1fe0 42EA0112 		orr	r2, r2, r1, lsl #4
 2983 1fe4 2D99     		ldr	r1, [sp, #180]
 2984 1fe6 49EB0609 		adc	r9, r9, r6
 2985 1fea 8E07     		lsls	r6, r1, #30
 2986 1fec 2C99     		ldr	r1, [sp, #176]
 2987 1fee 46EA9106 		orr	r6, r6, r1, lsr #2
 2988 1ff2 4FEA817C 		lsl	ip, r1, #30
 2989 1ff6 2D99     		ldr	r1, [sp, #180]
 2990 1ff8 7240     		eors	r2, r2, r6
 2991 1ffa 4CEA910C 		orr	ip, ip, r1, lsr #2
 2992 1ffe 4E06     		lsls	r6, r1, #25
 2993 2000 2C99     		ldr	r1, [sp, #176]
 2994 2002 87EA0C07 		eor	r7, r7, ip
 2995 2006 46EAD116 		orr	r6, r6, r1, lsr #7
 2996 200a 4FEA416C 		lsl	ip, r1, #25
 2997 200e 2D99     		ldr	r1, [sp, #180]
 2998 2010 7240     		eors	r2, r2, r6
 2999 2012 4CEAD11C 		orr	ip, ip, r1, lsr #7
 3000 2016 2A9E     		ldr	r6, [sp, #168]
 3001 2018 2799     		ldr	r1, [sp, #156]
 3002 201a 2E92     		str	r2, [sp, #184]
 3003 201c 4E40     		eors	r6, r6, r1
 3004 201e 2B9A     		ldr	r2, [sp, #172]
 3005 2020 2999     		ldr	r1, [sp, #164]
 3006 2022 87EA0C07 		eor	r7, r7, ip
 3007 2026 81EA020E 		eor	lr, r1, r2
 3008 202a 2C9A     		ldr	r2, [sp, #176]
 3009 202c 2A99     		ldr	r1, [sp, #168]
 3010 202e 1640     		ands	r6, r6, r2
 3011 2030 2D9A     		ldr	r2, [sp, #180]
 3012 2032 0EEA020E 		and	lr, lr, r2
 3013 2036 279A     		ldr	r2, [sp, #156]
 3014 2038 02EA0108 		and	r8, r2, r1
 3015 203c 299A     		ldr	r2, [sp, #164]
 3016 203e 2B99     		ldr	r1, [sp, #172]
 3017 2040 86EA0806 		eor	r6, r6, r8
 3018 2044 02EA010C 		and	ip, r2, r1
 3019 2048 2E9A     		ldr	r2, [sp, #184]
 3020 204a BE19     		adds	r6, r7, r6
 3021 204c 8EEA0C0C 		eor	ip, lr, ip
 3022 2050 42EB0C0C 		adc	ip, r2, ip
 3023 2054 269A     		ldr	r2, [sp, #152]
 3024 2056 1D99     		ldr	r1, [sp, #116]
 3025 2058 12EB0308 		adds	r8, r2, r3
 3026 205c 289A     		ldr	r2, [sp, #160]
 3027 205e 4FEA9847 		lsr	r7, r8, #18
 3028 2062 42EB090E 		adc	lr, r2, r9
ARM GAS  /tmp/ccxnUvyY.s 			page 54


 3029 2066 4FEA9E32 		lsr	r2, lr, #14
 3030 206a 9B19     		adds	r3, r3, r6
 3031 206c 4FEA9E46 		lsr	r6, lr, #18
 3032 2070 2693     		str	r3, [sp, #152]
 3033 2072 46EA8836 		orr	r6, r6, r8, lsl #14
 3034 2076 49EB0C03 		adc	r3, r9, ip
 3035 207a 42EA8842 		orr	r2, r2, r8, lsl #18
 3036 207e 2893     		str	r3, [sp, #160]
 3037 2080 7240     		eors	r2, r2, r6
 3038 2082 4FEA9833 		lsr	r3, r8, #14
 3039 2086 4FEACE56 		lsl	r6, lr, #23
 3040 208a 47EA8E37 		orr	r7, r7, lr, lsl #14
 3041 208e 46EA5826 		orr	r6, r6, r8, lsr #9
 3042 2092 43EA8E43 		orr	r3, r3, lr, lsl #18
 3043 2096 7240     		eors	r2, r2, r6
 3044 2098 7B40     		eors	r3, r3, r7
 3045 209a 8F4E     		ldr	r6, .L25+8
 3046 209c 4FEAC857 		lsl	r7, r8, #23
 3047 20a0 47EA5E27 		orr	r7, r7, lr, lsr #9
 3048 20a4 11EB060C 		adds	ip, r1, r6
 3049 20a8 83EA0703 		eor	r3, r3, r7
 3050 20ac 0B99     		ldr	r1, [sp, #44]
 3051 20ae 8B4F     		ldr	r7, .L25+12
 3052 20b0 00EA0E06 		and	r6, r0, lr
 3053 20b4 47EB0107 		adc	r7, r7, r1
 3054 20b8 3199     		ldr	r1, [sp, #196]
 3055 20ba 1CEB0505 		adds	r5, ip, r5
 3056 20be 41EB0701 		adc	r1, r1, r7
 3057 20c2 2AEA0807 		bic	r7, r10, r8
 3058 20c6 5D19     		adds	r5, r3, r5
 3059 20c8 0BEA0803 		and	r3, fp, r8
 3060 20cc 42EB0101 		adc	r1, r2, r1
 3061 20d0 7B40     		eors	r3, r3, r7
 3062 20d2 24EA0E02 		bic	r2, r4, lr
 3063 20d6 ED18     		adds	r5, r5, r3
 3064 20d8 82EA0602 		eor	r2, r2, r6
 3065 20dc 41EB0203 		adc	r3, r1, r2
 3066 20e0 2F93     		str	r3, [sp, #188]
 3067 20e2 269B     		ldr	r3, [sp, #152]
 3068 20e4 269A     		ldr	r2, [sp, #152]
 3069 20e6 1E0F     		lsrs	r6, r3, #28
 3070 20e8 289B     		ldr	r3, [sp, #160]
 3071 20ea 269F     		ldr	r7, [sp, #152]
 3072 20ec 46EA0316 		orr	r6, r6, r3, lsl #4
 3073 20f0 1B0F     		lsrs	r3, r3, #28
 3074 20f2 43EA0213 		orr	r3, r3, r2, lsl #4
 3075 20f6 289A     		ldr	r2, [sp, #160]
 3076 20f8 2899     		ldr	r1, [sp, #160]
 3077 20fa 9207     		lsls	r2, r2, #30
 3078 20fc 42EA9702 		orr	r2, r2, r7, lsr #2
 3079 2100 BF07     		lsls	r7, r7, #30
 3080 2102 47EA9107 		orr	r7, r7, r1, lsr #2
 3081 2106 5340     		eors	r3, r3, r2
 3082 2108 4A06     		lsls	r2, r1, #25
 3083 210a 2699     		ldr	r1, [sp, #152]
 3084 210c 7E40     		eors	r6, r6, r7
 3085 210e 42EAD112 		orr	r2, r2, r1, lsr #7
ARM GAS  /tmp/ccxnUvyY.s 			page 55


 3086 2112 4F06     		lsls	r7, r1, #25
 3087 2114 2899     		ldr	r1, [sp, #160]
 3088 2116 5340     		eors	r3, r3, r2
 3089 2118 47EAD117 		orr	r7, r7, r1, lsr #7
 3090 211c 2A9A     		ldr	r2, [sp, #168]
 3091 211e 2C99     		ldr	r1, [sp, #176]
 3092 2120 7E40     		eors	r6, r6, r7
 3093 2122 4A40     		eors	r2, r2, r1
 3094 2124 2D9F     		ldr	r7, [sp, #180]
 3095 2126 2B99     		ldr	r1, [sp, #172]
 3096 2128 81EA070C 		eor	ip, r1, r7
 3097 212c 2699     		ldr	r1, [sp, #152]
 3098 212e 2C9F     		ldr	r7, [sp, #176]
 3099 2130 0A40     		ands	r2, r2, r1
 3100 2132 2899     		ldr	r1, [sp, #160]
 3101 2134 0CEA010C 		and	ip, ip, r1
 3102 2138 2A99     		ldr	r1, [sp, #168]
 3103 213a 01EA0709 		and	r9, r1, r7
 3104 213e 2B99     		ldr	r1, [sp, #172]
 3105 2140 2D9F     		ldr	r7, [sp, #180]
 3106 2142 82EA0902 		eor	r2, r2, r9
 3107 2146 0F40     		ands	r7, r7, r1
 3108 2148 B218     		adds	r2, r6, r2
 3109 214a 8CEA0707 		eor	r7, ip, r7
 3110 214e 43EB070C 		adc	ip, r3, r7
 3111 2152 279B     		ldr	r3, [sp, #156]
 3112 2154 2F99     		ldr	r1, [sp, #188]
 3113 2156 13EB0509 		adds	r9, r3, r5
 3114 215a 299B     		ldr	r3, [sp, #164]
 3115 215c 43EB0103 		adc	r3, r3, r1
 3116 2160 2E93     		str	r3, [sp, #184]
 3117 2162 AB18     		adds	r3, r5, r2
 3118 2164 2793     		str	r3, [sp, #156]
 3119 2166 41EB0C03 		adc	r3, r1, ip
 3120 216a 2993     		str	r3, [sp, #164]
 3121 216c 2E9B     		ldr	r3, [sp, #184]
 3122 216e 4FEA9932 		lsr	r2, r9, #14
 3123 2172 4FEA9945 		lsr	r5, r9, #18
 3124 2176 45EA8335 		orr	r5, r5, r3, lsl #14
 3125 217a 42EA8342 		orr	r2, r2, r3, lsl #18
 3126 217e 990B     		lsrs	r1, r3, #14
 3127 2180 9B0C     		lsrs	r3, r3, #18
 3128 2182 43EA8933 		orr	r3, r3, r9, lsl #14
 3129 2186 41EA8941 		orr	r1, r1, r9, lsl #18
 3130 218a 5940     		eors	r1, r1, r3
 3131 218c 2E9B     		ldr	r3, [sp, #184]
 3132 218e 2E9E     		ldr	r6, [sp, #184]
 3133 2190 6A40     		eors	r2, r2, r5
 3134 2192 DB05     		lsls	r3, r3, #23
 3135 2194 4FEAC955 		lsl	r5, r9, #23
 3136 2198 43EA5923 		orr	r3, r3, r9, lsr #9
 3137 219c 45EA5625 		orr	r5, r5, r6, lsr #9
 3138 21a0 6A40     		eors	r2, r2, r5
 3139 21a2 5940     		eors	r1, r1, r3
 3140 21a4 1E9D     		ldr	r5, [sp, #120]
 3141 21a6 4E4B     		ldr	r3, .L25+16
 3142 21a8 0C9E     		ldr	r6, [sp, #48]
ARM GAS  /tmp/ccxnUvyY.s 			page 56


 3143 21aa EB18     		adds	r3, r5, r3
 3144 21ac 4D4D     		ldr	r5, .L25+20
 3145 21ae 269F     		ldr	r7, [sp, #152]
 3146 21b0 45EB0605 		adc	r5, r5, r6
 3147 21b4 13EB0A0A 		adds	r10, r3, r10
 3148 21b8 2E9B     		ldr	r3, [sp, #184]
 3149 21ba 44EB0504 		adc	r4, r4, r5
 3150 21be 2BEA0905 		bic	r5, fp, r9
 3151 21c2 12EB0A0A 		adds	r10, r2, r10
 3152 21c6 20EA0302 		bic	r2, r0, r3
 3153 21ca 08EA0903 		and	r3, r8, r9
 3154 21ce 41EB0404 		adc	r4, r1, r4
 3155 21d2 6B40     		eors	r3, r3, r5
 3156 21d4 2E99     		ldr	r1, [sp, #184]
 3157 21d6 1AEB030A 		adds	r10, r10, r3
 3158 21da 279B     		ldr	r3, [sp, #156]
 3159 21dc 0EEA0101 		and	r1, lr, r1
 3160 21e0 82EA0102 		eor	r2, r2, r1
 3161 21e4 4FEA1371 		lsr	r1, r3, #28
 3162 21e8 299B     		ldr	r3, [sp, #164]
 3163 21ea 44EB0204 		adc	r4, r4, r2
 3164 21ee 279A     		ldr	r2, [sp, #156]
 3165 21f0 41EA0311 		orr	r1, r1, r3, lsl #4
 3166 21f4 1B0F     		lsrs	r3, r3, #28
 3167 21f6 43EA0213 		orr	r3, r3, r2, lsl #4
 3168 21fa 299A     		ldr	r2, [sp, #164]
 3169 21fc 279D     		ldr	r5, [sp, #156]
 3170 21fe 299E     		ldr	r6, [sp, #164]
 3171 2200 9207     		lsls	r2, r2, #30
 3172 2202 42EA9502 		orr	r2, r2, r5, lsr #2
 3173 2206 AD07     		lsls	r5, r5, #30
 3174 2208 45EA9605 		orr	r5, r5, r6, lsr #2
 3175 220c 6940     		eors	r1, r1, r5
 3176 220e 279D     		ldr	r5, [sp, #156]
 3177 2210 5340     		eors	r3, r3, r2
 3178 2212 7206     		lsls	r2, r6, #25
 3179 2214 42EAD512 		orr	r2, r2, r5, lsr #7
 3180 2218 6D06     		lsls	r5, r5, #25
 3181 221a 45EAD615 		orr	r5, r5, r6, lsr #7
 3182 221e 6940     		eors	r1, r1, r5
 3183 2220 5340     		eors	r3, r3, r2
 3184 2222 269D     		ldr	r5, [sp, #152]
 3185 2224 2C9A     		ldr	r2, [sp, #176]
 3186 2226 289E     		ldr	r6, [sp, #160]
 3187 2228 6A40     		eors	r2, r2, r5
 3188 222a 2D9D     		ldr	r5, [sp, #180]
 3189 222c 6E40     		eors	r6, r6, r5
 3190 222e 279D     		ldr	r5, [sp, #156]
 3191 2230 2A40     		ands	r2, r2, r5
 3192 2232 299D     		ldr	r5, [sp, #164]
 3193 2234 2E40     		ands	r6, r6, r5
 3194 2236 2C9D     		ldr	r5, [sp, #176]
 3195 2238 05EA070C 		and	ip, r5, r7
 3196 223c 289F     		ldr	r7, [sp, #160]
 3197 223e 2D9D     		ldr	r5, [sp, #180]
 3198 2240 82EA0C02 		eor	r2, r2, ip
 3199 2244 3D40     		ands	r5, r5, r7
ARM GAS  /tmp/ccxnUvyY.s 			page 57


 3200 2246 8A18     		adds	r2, r1, r2
 3201 2248 85EA0605 		eor	r5, r5, r6
 3202 224c 43EB0505 		adc	r5, r3, r5
 3203 2250 2A9B     		ldr	r3, [sp, #168]
 3204 2252 0D9F     		ldr	r7, [sp, #52]
 3205 2254 13EB0A06 		adds	r6, r3, r10
 3206 2258 2B9B     		ldr	r3, [sp, #172]
 3207 225a 4FEA9631 		lsr	r1, r6, #14
 3208 225e 43EB0403 		adc	r3, r3, r4
 3209 2262 1AEB0202 		adds	r2, r10, r2
 3210 2266 2A92     		str	r2, [sp, #168]
 3211 2268 44EB0502 		adc	r2, r4, r5
 3212 226c 2B92     		str	r2, [sp, #172]
 3213 226e 9C0B     		lsrs	r4, r3, #14
 3214 2270 B50C     		lsrs	r5, r6, #18
 3215 2272 9A0C     		lsrs	r2, r3, #18
 3216 2274 45EA8335 		orr	r5, r5, r3, lsl #14
 3217 2278 42EA8632 		orr	r2, r2, r6, lsl #14
 3218 227c 41EA8341 		orr	r1, r1, r3, lsl #18
 3219 2280 44EA8644 		orr	r4, r4, r6, lsl #18
 3220 2284 6940     		eors	r1, r1, r5
 3221 2286 5440     		eors	r4, r4, r2
 3222 2288 F505     		lsls	r5, r6, #23
 3223 228a DA05     		lsls	r2, r3, #23
 3224 228c 42EA5622 		orr	r2, r2, r6, lsr #9
 3225 2290 45EA5325 		orr	r5, r5, r3, lsr #9
 3226 2294 6940     		eors	r1, r1, r5
 3227 2296 5440     		eors	r4, r4, r2
 3228 2298 1F9D     		ldr	r5, [sp, #124]
 3229 229a 134A     		ldr	r2, .L25+24
 3230 229c AA18     		adds	r2, r5, r2
 3231 229e 134D     		ldr	r5, .L25+28
 3232 22a0 45EB0705 		adc	r5, r5, r7
 3233 22a4 12EB0B0B 		adds	fp, r2, fp
 3234 22a8 40EB0500 		adc	r0, r0, r5
 3235 22ac 09EA0602 		and	r2, r9, r6
 3236 22b0 28EA0605 		bic	r5, r8, r6
 3237 22b4 11EB0B0B 		adds	fp, r1, fp
 3238 22b8 44EB0000 		adc	r0, r4, r0
 3239 22bc 6A40     		eors	r2, r2, r5
 3240 22be 2E9C     		ldr	r4, [sp, #184]
 3241 22c0 1BEB020B 		adds	fp, fp, r2
 3242 22c4 2A9A     		ldr	r2, [sp, #168]
 3243 22c6 2EEA0301 		bic	r1, lr, r3
 3244 22ca 04EA0304 		and	r4, r4, r3
 3245 22ce 0FE0     		b	.L26
 3246              	.L27:
 3247              		.align	2
 3248              	.L25:
 3249 22d0 75022B59 		.word	1495990901
 3250 22d4 6F2CE92D 		.word	770255983
 3251 22d8 83E4A66E 		.word	1856431235
 3252 22dc AA84744A 		.word	1249150122
 3253 22e0 D4FB41BD 		.word	-1119749164
 3254 22e4 DCA9B05C 		.word	1555081692
 3255 22e8 B5531183 		.word	-2096016459
 3256 22ec DA88F976 		.word	1996064986
ARM GAS  /tmp/ccxnUvyY.s 			page 58


 3257              	.L26:
 3258 22f0 81EA0401 		eor	r1, r1, r4
 3259 22f4 4FEA1274 		lsr	r4, r2, #28
 3260 22f8 2B9A     		ldr	r2, [sp, #172]
 3261 22fa 40EB0100 		adc	r0, r0, r1
 3262 22fe 2A99     		ldr	r1, [sp, #168]
 3263 2300 44EA0214 		orr	r4, r4, r2, lsl #4
 3264 2304 120F     		lsrs	r2, r2, #28
 3265 2306 42EA0112 		orr	r2, r2, r1, lsl #4
 3266 230a 2B99     		ldr	r1, [sp, #172]
 3267 230c 2A9D     		ldr	r5, [sp, #168]
 3268 230e 2B9F     		ldr	r7, [sp, #172]
 3269 2310 8907     		lsls	r1, r1, #30
 3270 2312 41EA9501 		orr	r1, r1, r5, lsr #2
 3271 2316 AD07     		lsls	r5, r5, #30
 3272 2318 45EA9705 		orr	r5, r5, r7, lsr #2
 3273 231c 6C40     		eors	r4, r4, r5
 3274 231e 2A9D     		ldr	r5, [sp, #168]
 3275 2320 4A40     		eors	r2, r2, r1
 3276 2322 7906     		lsls	r1, r7, #25
 3277 2324 41EAD511 		orr	r1, r1, r5, lsr #7
 3278 2328 6D06     		lsls	r5, r5, #25
 3279 232a 45EAD715 		orr	r5, r5, r7, lsr #7
 3280 232e 6C40     		eors	r4, r4, r5
 3281 2330 4A40     		eors	r2, r2, r1
 3282 2332 DDE92615 		ldrd	r1, r5, [sp, #152]
 3283 2336 6940     		eors	r1, r1, r5
 3284 2338 DDE92857 		ldrd	r5, r7, [sp, #160]
 3285 233c 85EA070C 		eor	ip, r5, r7
 3286 2340 2A9D     		ldr	r5, [sp, #168]
 3287 2342 2940     		ands	r1, r1, r5
 3288 2344 2B9D     		ldr	r5, [sp, #172]
 3289 2346 0CEA050C 		and	ip, ip, r5
 3290 234a DDE92657 		ldrd	r5, r7, [sp, #152]
 3291 234e 05EA070A 		and	r10, r5, r7
 3292 2352 81EA0A01 		eor	r1, r1, r10
 3293 2356 6118     		adds	r1, r4, r1
 3294 2358 DDE92857 		ldrd	r5, r7, [sp, #160]
 3295 235c 2C9C     		ldr	r4, [sp, #176]
 3296 235e 05EA0705 		and	r5, r5, r7
 3297 2362 8CEA0505 		eor	r5, ip, r5
 3298 2366 42EB0502 		adc	r2, r2, r5
 3299 236a 14EB0B0C 		adds	ip, r4, fp
 3300 236e 2D9C     		ldr	r4, [sp, #180]
 3301 2370 0E9F     		ldr	r7, [sp, #56]
 3302 2372 44EB0005 		adc	r5, r4, r0
 3303 2376 1BEB0101 		adds	r1, fp, r1
 3304 237a 40EB0202 		adc	r2, r0, r2
 3305 237e 2C91     		str	r1, [sp, #176]
 3306 2380 2D92     		str	r2, [sp, #180]
 3307 2382 4FEA9C31 		lsr	r1, ip, #14
 3308 2386 A80B     		lsrs	r0, r5, #14
 3309 2388 4FEA9C44 		lsr	r4, ip, #18
 3310 238c AA0C     		lsrs	r2, r5, #18
 3311 238e 44EA8534 		orr	r4, r4, r5, lsl #14
 3312 2392 42EA8C32 		orr	r2, r2, ip, lsl #14
 3313 2396 41EA8541 		orr	r1, r1, r5, lsl #18
ARM GAS  /tmp/ccxnUvyY.s 			page 59


 3314 239a 40EA8C40 		orr	r0, r0, ip, lsl #18
 3315 239e 6140     		eors	r1, r1, r4
 3316 23a0 5040     		eors	r0, r0, r2
 3317 23a2 4FEACC54 		lsl	r4, ip, #23
 3318 23a6 EA05     		lsls	r2, r5, #23
 3319 23a8 42EA5C22 		orr	r2, r2, ip, lsr #9
 3320 23ac 44EA5524 		orr	r4, r4, r5, lsr #9
 3321 23b0 6140     		eors	r1, r1, r4
 3322 23b2 5040     		eors	r0, r0, r2
 3323 23b4 209C     		ldr	r4, [sp, #128]
 3324 23b6 D04A     		ldr	r2, .L28
 3325 23b8 A218     		adds	r2, r4, r2
 3326 23ba D04C     		ldr	r4, .L28+4
 3327 23bc 44EB0704 		adc	r4, r4, r7
 3328 23c0 12EB0808 		adds	r8, r2, r8
 3329 23c4 2E9A     		ldr	r2, [sp, #184]
 3330 23c6 4EEB040E 		adc	lr, lr, r4
 3331 23ca 29EA0C04 		bic	r4, r9, ip
 3332 23ce 11EB0808 		adds	r8, r1, r8
 3333 23d2 22EA0501 		bic	r1, r2, r5
 3334 23d6 06EA0C02 		and	r2, r6, ip
 3335 23da 82EA0402 		eor	r2, r2, r4
 3336 23de 40EB0E0E 		adc	lr, r0, lr
 3337 23e2 18EB0208 		adds	r8, r8, r2
 3338 23e6 2C9A     		ldr	r2, [sp, #176]
 3339 23e8 03EA0500 		and	r0, r3, r5
 3340 23ec 81EA0001 		eor	r1, r1, r0
 3341 23f0 4FEA1270 		lsr	r0, r2, #28
 3342 23f4 2D9A     		ldr	r2, [sp, #180]
 3343 23f6 4EEB010E 		adc	lr, lr, r1
 3344 23fa 2C99     		ldr	r1, [sp, #176]
 3345 23fc 40EA0210 		orr	r0, r0, r2, lsl #4
 3346 2400 120F     		lsrs	r2, r2, #28
 3347 2402 42EA0112 		orr	r2, r2, r1, lsl #4
 3348 2406 2D99     		ldr	r1, [sp, #180]
 3349 2408 2C9C     		ldr	r4, [sp, #176]
 3350 240a 2D9F     		ldr	r7, [sp, #180]
 3351 240c 8907     		lsls	r1, r1, #30
 3352 240e 41EA9401 		orr	r1, r1, r4, lsr #2
 3353 2412 A407     		lsls	r4, r4, #30
 3354 2414 44EA9704 		orr	r4, r4, r7, lsr #2
 3355 2418 6040     		eors	r0, r0, r4
 3356 241a 2C9C     		ldr	r4, [sp, #176]
 3357 241c 4A40     		eors	r2, r2, r1
 3358 241e 7906     		lsls	r1, r7, #25
 3359 2420 41EAD411 		orr	r1, r1, r4, lsr #7
 3360 2424 6406     		lsls	r4, r4, #25
 3361 2426 44EAD714 		orr	r4, r4, r7, lsr #7
 3362 242a 6040     		eors	r0, r0, r4
 3363 242c 4A40     		eors	r2, r2, r1
 3364 242e 2799     		ldr	r1, [sp, #156]
 3365 2430 2A9C     		ldr	r4, [sp, #168]
 3366 2432 2B9F     		ldr	r7, [sp, #172]
 3367 2434 6140     		eors	r1, r1, r4
 3368 2436 299C     		ldr	r4, [sp, #164]
 3369 2438 84EA070A 		eor	r10, r4, r7
 3370 243c 2C9C     		ldr	r4, [sp, #176]
ARM GAS  /tmp/ccxnUvyY.s 			page 60


 3371 243e 2A9F     		ldr	r7, [sp, #168]
 3372 2440 2140     		ands	r1, r1, r4
 3373 2442 2D9C     		ldr	r4, [sp, #180]
 3374 2444 0AEA040A 		and	r10, r10, r4
 3375 2448 279C     		ldr	r4, [sp, #156]
 3376 244a 04EA070B 		and	fp, r4, r7
 3377 244e 2B9F     		ldr	r7, [sp, #172]
 3378 2450 299C     		ldr	r4, [sp, #164]
 3379 2452 81EA0B01 		eor	r1, r1, fp
 3380 2456 3C40     		ands	r4, r4, r7
 3381 2458 4118     		adds	r1, r0, r1
 3382 245a 8AEA0404 		eor	r4, r10, r4
 3383 245e 42EB0404 		adc	r4, r2, r4
 3384 2462 269A     		ldr	r2, [sp, #152]
 3385 2464 0F9F     		ldr	r7, [sp, #60]
 3386 2466 12EB080B 		adds	fp, r2, r8
 3387 246a 289A     		ldr	r2, [sp, #160]
 3388 246c 4FEA9B40 		lsr	r0, fp, #18
 3389 2470 42EB0E0A 		adc	r10, r2, lr
 3390 2474 18EB0102 		adds	r2, r8, r1
 3391 2478 2692     		str	r2, [sp, #152]
 3392 247a 4EEB0402 		adc	r2, lr, r4
 3393 247e 2892     		str	r2, [sp, #160]
 3394 2480 4FEA9A44 		lsr	r4, r10, #18
 3395 2484 4FEA9B32 		lsr	r2, fp, #14
 3396 2488 4FEA9A31 		lsr	r1, r10, #14
 3397 248c 42EA8A42 		orr	r2, r2, r10, lsl #18
 3398 2490 41EA8B41 		orr	r1, r1, fp, lsl #18
 3399 2494 40EA8A38 		orr	r8, r0, r10, lsl #14
 3400 2498 44EA8B3E 		orr	lr, r4, fp, lsl #14
 3401 249c 82EA0800 		eor	r0, r2, r8
 3402 24a0 81EA0E04 		eor	r4, r1, lr
 3403 24a4 4FEACB52 		lsl	r2, fp, #23
 3404 24a8 4FEACA51 		lsl	r1, r10, #23
 3405 24ac 41EA5B21 		orr	r1, r1, fp, lsr #9
 3406 24b0 42EA5A22 		orr	r2, r2, r10, lsr #9
 3407 24b4 4240     		eors	r2, r2, r0
 3408 24b6 6140     		eors	r1, r1, r4
 3409 24b8 9148     		ldr	r0, .L28+8
 3410 24ba 219C     		ldr	r4, [sp, #132]
 3411 24bc 2018     		adds	r0, r4, r0
 3412 24be 914C     		ldr	r4, .L28+12
 3413 24c0 44EB0704 		adc	r4, r4, r7
 3414 24c4 2E9F     		ldr	r7, [sp, #184]
 3415 24c6 10EB0900 		adds	r0, r0, r9
 3416 24ca 47EB0404 		adc	r4, r7, r4
 3417 24ce 1018     		adds	r0, r2, r0
 3418 24d0 41EB0404 		adc	r4, r1, r4
 3419 24d4 0CEA0B09 		and	r9, ip, fp
 3420 24d8 26EA0B01 		bic	r1, r6, fp
 3421 24dc 05EA0A02 		and	r2, r5, r10
 3422 24e0 23EA0A07 		bic	r7, r3, r10
 3423 24e4 81EA0909 		eor	r9, r1, r9
 3424 24e8 5740     		eors	r7, r7, r2
 3425 24ea 10EB0902 		adds	r2, r0, r9
 3426 24ee 2F92     		str	r2, [sp, #188]
 3427 24f0 269A     		ldr	r2, [sp, #152]
ARM GAS  /tmp/ccxnUvyY.s 			page 61


 3428 24f2 44EB0704 		adc	r4, r4, r7
 3429 24f6 170F     		lsrs	r7, r2, #28
 3430 24f8 289A     		ldr	r2, [sp, #160]
 3431 24fa 2699     		ldr	r1, [sp, #152]
 3432 24fc 47EA0217 		orr	r7, r7, r2, lsl #4
 3433 2500 120F     		lsrs	r2, r2, #28
 3434 2502 42EA0112 		orr	r2, r2, r1, lsl #4
 3435 2506 2899     		ldr	r1, [sp, #160]
 3436 2508 2698     		ldr	r0, [sp, #152]
 3437 250a 8907     		lsls	r1, r1, #30
 3438 250c 41EA9001 		orr	r1, r1, r0, lsr #2
 3439 2510 4FEA807E 		lsl	lr, r0, #30
 3440 2514 2898     		ldr	r0, [sp, #160]
 3441 2516 4A40     		eors	r2, r2, r1
 3442 2518 4EEA900E 		orr	lr, lr, r0, lsr #2
 3443 251c 4106     		lsls	r1, r0, #25
 3444 251e 2698     		ldr	r0, [sp, #152]
 3445 2520 87EA0E07 		eor	r7, r7, lr
 3446 2524 41EAD011 		orr	r1, r1, r0, lsr #7
 3447 2528 4FEA406E 		lsl	lr, r0, #25
 3448 252c 2898     		ldr	r0, [sp, #160]
 3449 252e 4A40     		eors	r2, r2, r1
 3450 2530 4EEAD01E 		orr	lr, lr, r0, lsr #7
 3451 2534 2A99     		ldr	r1, [sp, #168]
 3452 2536 2C98     		ldr	r0, [sp, #176]
 3453 2538 2E92     		str	r2, [sp, #184]
 3454 253a 4140     		eors	r1, r1, r0
 3455 253c 2D9A     		ldr	r2, [sp, #180]
 3456 253e 2B98     		ldr	r0, [sp, #172]
 3457 2540 87EA0E07 		eor	r7, r7, lr
 3458 2544 80EA0208 		eor	r8, r0, r2
 3459 2548 269A     		ldr	r2, [sp, #152]
 3460 254a 1140     		ands	r1, r1, r2
 3461 254c 289A     		ldr	r2, [sp, #160]
 3462 254e 08EA0208 		and	r8, r8, r2
 3463 2552 2A9A     		ldr	r2, [sp, #168]
 3464 2554 2C98     		ldr	r0, [sp, #176]
 3465 2556 02EA0009 		and	r9, r2, r0
 3466 255a 2B9A     		ldr	r2, [sp, #172]
 3467 255c 2D98     		ldr	r0, [sp, #180]
 3468 255e 81EA0901 		eor	r1, r1, r9
 3469 2562 02EA000E 		and	lr, r2, r0
 3470 2566 2E9A     		ldr	r2, [sp, #184]
 3471 2568 7918     		adds	r1, r7, r1
 3472 256a 88EA0E0E 		eor	lr, r8, lr
 3473 256e 42EB0E0E 		adc	lr, r2, lr
 3474 2572 2F98     		ldr	r0, [sp, #188]
 3475 2574 279A     		ldr	r2, [sp, #156]
 3476 2576 1218     		adds	r2, r2, r0
 3477 2578 2E92     		str	r2, [sp, #184]
 3478 257a 2998     		ldr	r0, [sp, #164]
 3479 257c 2F9A     		ldr	r2, [sp, #188]
 3480 257e 40EB0408 		adc	r8, r0, r4
 3481 2582 5118     		adds	r1, r2, r1
 3482 2584 2E9A     		ldr	r2, [sp, #184]
 3483 2586 2791     		str	r1, [sp, #156]
 3484 2588 44EB0E01 		adc	r1, r4, lr
ARM GAS  /tmp/ccxnUvyY.s 			page 62


 3485 258c 2991     		str	r1, [sp, #164]
 3486 258e 900C     		lsrs	r0, r2, #18
 3487 2590 910B     		lsrs	r1, r2, #14
 3488 2592 4FEA9837 		lsr	r7, r8, #14
 3489 2596 4FEA9844 		lsr	r4, r8, #18
 3490 259a 41EA8841 		orr	r1, r1, r8, lsl #18
 3491 259e 40EA883E 		orr	lr, r0, r8, lsl #14
 3492 25a2 44EA8234 		orr	r4, r4, r2, lsl #14
 3493 25a6 47EA8247 		orr	r7, r7, r2, lsl #18
 3494 25aa 81EA0E00 		eor	r0, r1, lr
 3495 25ae 6740     		eors	r7, r7, r4
 3496 25b0 D105     		lsls	r1, r2, #23
 3497 25b2 4FEAC854 		lsl	r4, r8, #23
 3498 25b6 44EA5224 		orr	r4, r4, r2, lsr #9
 3499 25ba 41EA5821 		orr	r1, r1, r8, lsr #9
 3500 25be 4140     		eors	r1, r1, r0
 3501 25c0 6740     		eors	r7, r7, r4
 3502 25c2 5148     		ldr	r0, .L28+16
 3503 25c4 229C     		ldr	r4, [sp, #136]
 3504 25c6 109A     		ldr	r2, [sp, #64]
 3505 25c8 2018     		adds	r0, r4, r0
 3506 25ca 504C     		ldr	r4, .L28+20
 3507 25cc 44EB020E 		adc	lr, r4, r2
 3508 25d0 2E9A     		ldr	r2, [sp, #184]
 3509 25d2 8019     		adds	r0, r0, r6
 3510 25d4 43EB0E03 		adc	r3, r3, lr
 3511 25d8 0818     		adds	r0, r1, r0
 3512 25da 47EB0303 		adc	r3, r7, r3
 3513 25de 0BEA0206 		and	r6, fp, r2
 3514 25e2 2CEA0207 		bic	r7, ip, r2
 3515 25e6 279A     		ldr	r2, [sp, #156]
 3516 25e8 7E40     		eors	r6, r6, r7
 3517 25ea 8019     		adds	r0, r0, r6
 3518 25ec 0AEA0804 		and	r4, r10, r8
 3519 25f0 25EA0801 		bic	r1, r5, r8
 3520 25f4 4FEA1276 		lsr	r6, r2, #28
 3521 25f8 299A     		ldr	r2, [sp, #164]
 3522 25fa 81EA0401 		eor	r1, r1, r4
 3523 25fe 43EB0103 		adc	r3, r3, r1
 3524 2602 46EA0216 		orr	r6, r6, r2, lsl #4
 3525 2606 110F     		lsrs	r1, r2, #28
 3526 2608 279A     		ldr	r2, [sp, #156]
 3527 260a 41EA0211 		orr	r1, r1, r2, lsl #4
 3528 260e 299A     		ldr	r2, [sp, #164]
 3529 2610 9407     		lsls	r4, r2, #30
 3530 2612 279A     		ldr	r2, [sp, #156]
 3531 2614 44EA9204 		orr	r4, r4, r2, lsr #2
 3532 2618 9707     		lsls	r7, r2, #30
 3533 261a 299A     		ldr	r2, [sp, #164]
 3534 261c 6140     		eors	r1, r1, r4
 3535 261e 47EA9207 		orr	r7, r7, r2, lsr #2
 3536 2622 5406     		lsls	r4, r2, #25
 3537 2624 279A     		ldr	r2, [sp, #156]
 3538 2626 7E40     		eors	r6, r6, r7
 3539 2628 44EAD214 		orr	r4, r4, r2, lsr #7
 3540 262c 5706     		lsls	r7, r2, #25
 3541 262e 299A     		ldr	r2, [sp, #164]
ARM GAS  /tmp/ccxnUvyY.s 			page 63


 3542 2630 6140     		eors	r1, r1, r4
 3543 2632 47EAD217 		orr	r7, r7, r2, lsr #7
 3544 2636 269C     		ldr	r4, [sp, #152]
 3545 2638 2C9A     		ldr	r2, [sp, #176]
 3546 263a 7E40     		eors	r6, r6, r7
 3547 263c 5440     		eors	r4, r4, r2
 3548 263e 289F     		ldr	r7, [sp, #160]
 3549 2640 2D9A     		ldr	r2, [sp, #180]
 3550 2642 82EA070E 		eor	lr, r2, r7
 3551 2646 279A     		ldr	r2, [sp, #156]
 3552 2648 269F     		ldr	r7, [sp, #152]
 3553 264a 1440     		ands	r4, r4, r2
 3554 264c 299A     		ldr	r2, [sp, #164]
 3555 264e 0EEA020E 		and	lr, lr, r2
 3556 2652 2C9A     		ldr	r2, [sp, #176]
 3557 2654 02EA0709 		and	r9, r2, r7
 3558 2658 2D9A     		ldr	r2, [sp, #180]
 3559 265a 289F     		ldr	r7, [sp, #160]
 3560 265c 84EA0904 		eor	r4, r4, r9
 3561 2660 1740     		ands	r7, r7, r2
 3562 2662 2A9A     		ldr	r2, [sp, #168]
 3563 2664 3419     		adds	r4, r6, r4
 3564 2666 8EEA0707 		eor	r7, lr, r7
 3565 266a 41EB0707 		adc	r7, r1, r7
 3566 266e 12EB0009 		adds	r9, r2, r0
 3567 2672 2B9A     		ldr	r2, [sp, #172]
 3568 2674 4FEA9941 		lsr	r1, r9, #18
 3569 2678 42EB030E 		adc	lr, r2, r3
 3570 267c 0219     		adds	r2, r0, r4
 3571 267e 43EB0703 		adc	r3, r3, r7
 3572 2682 4FEA9E30 		lsr	r0, lr, #14
 3573 2686 4FEA9E47 		lsr	r7, lr, #18
 3574 268a 2B93     		str	r3, [sp, #172]
 3575 268c 40EA8940 		orr	r0, r0, r9, lsl #18
 3576 2690 47EA8933 		orr	r3, r7, r9, lsl #14
 3577 2694 4FEA9934 		lsr	r4, r9, #14
 3578 2698 80EA0307 		eor	r7, r0, r3
 3579 269c 41EA8E31 		orr	r1, r1, lr, lsl #14
 3580 26a0 44EA8E44 		orr	r4, r4, lr, lsl #18
 3581 26a4 4FEAC953 		lsl	r3, r9, #23
 3582 26a8 43EA5E23 		orr	r3, r3, lr, lsr #9
 3583 26ac 4C40     		eors	r4, r4, r1
 3584 26ae 5C40     		eors	r4, r4, r3
 3585 26b0 4FEACE50 		lsl	r0, lr, #23
 3586 26b4 239B     		ldr	r3, [sp, #140]
 3587 26b6 1649     		ldr	r1, .L28+24
 3588 26b8 40EA5920 		orr	r0, r0, r9, lsr #9
 3589 26bc 5918     		adds	r1, r3, r1
 3590 26be 80EA0700 		eor	r0, r0, r7
 3591 26c2 119B     		ldr	r3, [sp, #68]
 3592 26c4 134F     		ldr	r7, .L28+28
 3593 26c6 2A92     		str	r2, [sp, #168]
 3594 26c8 47EB0307 		adc	r7, r7, r3
 3595 26cc 11EB0C0C 		adds	ip, r1, ip
 3596 26d0 2E9B     		ldr	r3, [sp, #184]
 3597 26d2 45EB0707 		adc	r7, r5, r7
 3598 26d6 14EB0C0C 		adds	ip, r4, ip
ARM GAS  /tmp/ccxnUvyY.s 			page 64


 3599 26da 40EB0707 		adc	r7, r0, r7
 3600 26de 03EA0903 		and	r3, r3, r9
 3601 26e2 2BEA0900 		bic	r0, fp, r9
 3602 26e6 4340     		eors	r3, r3, r0
 3603 26e8 1CEB030C 		adds	ip, ip, r3
 3604 26ec 2B9B     		ldr	r3, [sp, #172]
 3605 26ee 4FEA1270 		lsr	r0, r2, #28
 3606 26f2 40EA0310 		orr	r0, r0, r3, lsl #4
 3607 26f6 0FE0     		b	.L29
 3608              	.L30:
 3609              		.align	2
 3610              	.L28:
 3611 26f8 ABDF66EE 		.word	-295247957
 3612 26fc 52513E98 		.word	-1740746414
 3613 2700 1032B42D 		.word	766784016
 3614 2704 6DC631A8 		.word	-1473132947
 3615 2708 3F21FB98 		.word	-1728372417
 3616 270c C82703B0 		.word	-1341970488
 3617 2710 E40EEFBE 		.word	-1091629340
 3618 2714 C77F59BF 		.word	-1084653625
 3619              	.L29:
 3620 2718 4FEA1373 		lsr	r3, r3, #28
 3621 271c 43EA0213 		orr	r3, r3, r2, lsl #4
 3622 2720 2B9A     		ldr	r2, [sp, #172]
 3623 2722 08EA0E01 		and	r1, r8, lr
 3624 2726 2AEA0E05 		bic	r5, r10, lr
 3625 272a 85EA0105 		eor	r5, r5, r1
 3626 272e 4FEA8271 		lsl	r1, r2, #30
 3627 2732 2A9A     		ldr	r2, [sp, #168]
 3628 2734 47EB0507 		adc	r7, r7, r5
 3629 2738 41EA9201 		orr	r1, r1, r2, lsr #2
 3630 273c 9407     		lsls	r4, r2, #30
 3631 273e 2B9A     		ldr	r2, [sp, #172]
 3632 2740 4B40     		eors	r3, r3, r1
 3633 2742 44EA9204 		orr	r4, r4, r2, lsr #2
 3634 2746 5106     		lsls	r1, r2, #25
 3635 2748 2A9A     		ldr	r2, [sp, #168]
 3636 274a 6040     		eors	r0, r0, r4
 3637 274c 41EAD211 		orr	r1, r1, r2, lsr #7
 3638 2750 5406     		lsls	r4, r2, #25
 3639 2752 2B9A     		ldr	r2, [sp, #172]
 3640 2754 4B40     		eors	r3, r3, r1
 3641 2756 44EAD214 		orr	r4, r4, r2, lsr #7
 3642 275a 6040     		eors	r0, r0, r4
 3643 275c DDE92621 		ldrd	r2, r1, [sp, #152]
 3644 2760 5140     		eors	r1, r1, r2
 3645 2762 DDE92824 		ldrd	r2, r4, [sp, #160]
 3646 2766 82EA0405 		eor	r5, r2, r4
 3647 276a 2A9A     		ldr	r2, [sp, #168]
 3648 276c 1140     		ands	r1, r1, r2
 3649 276e 2B9A     		ldr	r2, [sp, #172]
 3650 2770 1540     		ands	r5, r5, r2
 3651 2772 DDE92624 		ldrd	r2, r4, [sp, #152]
 3652 2776 02EA0406 		and	r6, r2, r4
 3653 277a 7140     		eors	r1, r1, r6
 3654 277c DDE92824 		ldrd	r2, r4, [sp, #160]
 3655 2780 1440     		ands	r4, r4, r2
ARM GAS  /tmp/ccxnUvyY.s 			page 65


 3656 2782 4118     		adds	r1, r0, r1
 3657 2784 84EA0504 		eor	r4, r4, r5
 3658 2788 43EB0405 		adc	r5, r3, r4
 3659 278c 2C9B     		ldr	r3, [sp, #176]
 3660 278e 129A     		ldr	r2, [sp, #72]
 3661 2790 13EB0C04 		adds	r4, r3, ip
 3662 2794 2D9B     		ldr	r3, [sp, #180]
 3663 2796 4FEA9446 		lsr	r6, r4, #18
 3664 279a 43EB0700 		adc	r0, r3, r7
 3665 279e 1CEB0103 		adds	r3, ip, r1
 3666 27a2 2C93     		str	r3, [sp, #176]
 3667 27a4 47EB0503 		adc	r3, r7, r5
 3668 27a8 2D93     		str	r3, [sp, #180]
 3669 27aa A10B     		lsrs	r1, r4, #14
 3670 27ac 850B     		lsrs	r5, r0, #14
 3671 27ae 830C     		lsrs	r3, r0, #18
 3672 27b0 41EA8041 		orr	r1, r1, r0, lsl #18
 3673 27b4 46EA8037 		orr	r7, r6, r0, lsl #14
 3674 27b8 43EA8433 		orr	r3, r3, r4, lsl #14
 3675 27bc 45EA8445 		orr	r5, r5, r4, lsl #18
 3676 27c0 81EA0706 		eor	r6, r1, r7
 3677 27c4 5D40     		eors	r5, r5, r3
 3678 27c6 E105     		lsls	r1, r4, #23
 3679 27c8 C305     		lsls	r3, r0, #23
 3680 27ca 43EA5423 		orr	r3, r3, r4, lsr #9
 3681 27ce 41EA5021 		orr	r1, r1, r0, lsr #9
 3682 27d2 7140     		eors	r1, r1, r6
 3683 27d4 5D40     		eors	r5, r5, r3
 3684 27d6 CC4E     		ldr	r6, .L31
 3685 27d8 249B     		ldr	r3, [sp, #144]
 3686 27da 9E19     		adds	r6, r3, r6
 3687 27dc CB4B     		ldr	r3, .L31+4
 3688 27de 43EB020C 		adc	ip, r3, r2
 3689 27e2 2E9B     		ldr	r3, [sp, #184]
 3690 27e4 16EB0B06 		adds	r6, r6, fp
 3691 27e8 4AEB0C0A 		adc	r10, r10, ip
 3692 27ec 8E19     		adds	r6, r1, r6
 3693 27ee 45EB0A0A 		adc	r10, r5, r10
 3694 27f2 09EA040B 		and	fp, r9, r4
 3695 27f6 23EA0405 		bic	r5, r3, r4
 3696 27fa 0EEA0001 		and	r1, lr, r0
 3697 27fe 28EA0003 		bic	r3, r8, r0
 3698 2802 85EA0B0B 		eor	fp, r5, fp
 3699 2806 16EB0B06 		adds	r6, r6, fp
 3700 280a 83EA0103 		eor	r3, r3, r1
 3701 280e 4AEB030A 		adc	r10, r10, r3
 3702 2812 2C9B     		ldr	r3, [sp, #176]
 3703 2814 2D9A     		ldr	r2, [sp, #180]
 3704 2816 1B0F     		lsrs	r3, r3, #28
 3705 2818 43EA0213 		orr	r3, r3, r2, lsl #4
 3706 281c 110F     		lsrs	r1, r2, #28
 3707 281e 2C9A     		ldr	r2, [sp, #176]
 3708 2820 41EA0211 		orr	r1, r1, r2, lsl #4
 3709 2824 2D9A     		ldr	r2, [sp, #180]
 3710 2826 9507     		lsls	r5, r2, #30
 3711 2828 2C9A     		ldr	r2, [sp, #176]
 3712 282a 45EA9205 		orr	r5, r5, r2, lsr #2
ARM GAS  /tmp/ccxnUvyY.s 			page 66


 3713 282e 9707     		lsls	r7, r2, #30
 3714 2830 2D9A     		ldr	r2, [sp, #180]
 3715 2832 6940     		eors	r1, r1, r5
 3716 2834 47EA9207 		orr	r7, r7, r2, lsr #2
 3717 2838 5506     		lsls	r5, r2, #25
 3718 283a 2C9A     		ldr	r2, [sp, #176]
 3719 283c 7B40     		eors	r3, r3, r7
 3720 283e 45EAD215 		orr	r5, r5, r2, lsr #7
 3721 2842 5706     		lsls	r7, r2, #25
 3722 2844 2D9A     		ldr	r2, [sp, #180]
 3723 2846 6940     		eors	r1, r1, r5
 3724 2848 47EAD217 		orr	r7, r7, r2, lsr #7
 3725 284c 2A9D     		ldr	r5, [sp, #168]
 3726 284e 279A     		ldr	r2, [sp, #156]
 3727 2850 7B40     		eors	r3, r3, r7
 3728 2852 5540     		eors	r5, r5, r2
 3729 2854 2B9F     		ldr	r7, [sp, #172]
 3730 2856 299A     		ldr	r2, [sp, #164]
 3731 2858 2F93     		str	r3, [sp, #188]
 3732 285a 5740     		eors	r7, r7, r2
 3733 285c 2C9A     		ldr	r2, [sp, #176]
 3734 285e 2A9B     		ldr	r3, [sp, #168]
 3735 2860 1540     		ands	r5, r5, r2
 3736 2862 2D9A     		ldr	r2, [sp, #180]
 3737 2864 1740     		ands	r7, r7, r2
 3738 2866 279A     		ldr	r2, [sp, #156]
 3739 2868 02EA030B 		and	fp, r2, r3
 3740 286c 299B     		ldr	r3, [sp, #164]
 3741 286e 2B9A     		ldr	r2, [sp, #172]
 3742 2870 85EA0B05 		eor	r5, r5, fp
 3743 2874 03EA020C 		and	ip, r3, r2
 3744 2878 2F9B     		ldr	r3, [sp, #188]
 3745 287a 87EA0C07 		eor	r7, r7, ip
 3746 287e 5D19     		adds	r5, r3, r5
 3747 2880 269B     		ldr	r3, [sp, #152]
 3748 2882 41EB0707 		adc	r7, r1, r7
 3749 2886 9B19     		adds	r3, r3, r6
 3750 2888 2F93     		str	r3, [sp, #188]
 3751 288a 289B     		ldr	r3, [sp, #160]
 3752 288c 2F9A     		ldr	r2, [sp, #188]
 3753 288e 43EB0A03 		adc	r3, r3, r10
 3754 2892 3093     		str	r3, [sp, #192]
 3755 2894 7319     		adds	r3, r6, r5
 3756 2896 2693     		str	r3, [sp, #152]
 3757 2898 4AEB0703 		adc	r3, r10, r7
 3758 289c 2893     		str	r3, [sp, #160]
 3759 289e 2F9B     		ldr	r3, [sp, #188]
 3760 28a0 9B4D     		ldr	r5, .L31+8
 3761 28a2 4FEA933A 		lsr	r10, r3, #14
 3762 28a6 309B     		ldr	r3, [sp, #192]
 3763 28a8 4AEA834A 		orr	r10, r10, r3, lsl #18
 3764 28ac 4FEA933B 		lsr	fp, r3, #14
 3765 28b0 2F9B     		ldr	r3, [sp, #188]
 3766 28b2 4BEA834B 		orr	fp, fp, r3, lsl #18
 3767 28b6 990C     		lsrs	r1, r3, #18
 3768 28b8 309B     		ldr	r3, [sp, #192]
 3769 28ba 41EA8331 		orr	r1, r1, r3, lsl #14
ARM GAS  /tmp/ccxnUvyY.s 			page 67


 3770 28be 9B0C     		lsrs	r3, r3, #18
 3771 28c0 43EA8233 		orr	r3, r3, r2, lsl #14
 3772 28c4 8BEA030B 		eor	fp, fp, r3
 3773 28c8 309B     		ldr	r3, [sp, #192]
 3774 28ca 8AEA010A 		eor	r10, r10, r1
 3775 28ce DB05     		lsls	r3, r3, #23
 3776 28d0 43EA5223 		orr	r3, r3, r2, lsr #9
 3777 28d4 D105     		lsls	r1, r2, #23
 3778 28d6 309A     		ldr	r2, [sp, #192]
 3779 28d8 8BEA030B 		eor	fp, fp, r3
 3780 28dc 259B     		ldr	r3, [sp, #148]
 3781 28de 41EA5221 		orr	r1, r1, r2, lsr #9
 3782 28e2 5D19     		adds	r5, r3, r5
 3783 28e4 8AEA010A 		eor	r10, r10, r1
 3784 28e8 139B     		ldr	r3, [sp, #76]
 3785 28ea 8A49     		ldr	r1, .L31+12
 3786 28ec 289F     		ldr	r7, [sp, #160]
 3787 28ee 41EB030C 		adc	ip, r1, r3
 3788 28f2 2E9B     		ldr	r3, [sp, #184]
 3789 28f4 EA18     		adds	r2, r5, r3
 3790 28f6 2F9B     		ldr	r3, [sp, #188]
 3791 28f8 309D     		ldr	r5, [sp, #192]
 3792 28fa 29EA0306 		bic	r6, r9, r3
 3793 28fe 309B     		ldr	r3, [sp, #192]
 3794 2900 48EB0C08 		adc	r8, r8, ip
 3795 2904 2EEA0301 		bic	r1, lr, r3
 3796 2908 2F9B     		ldr	r3, [sp, #188]
 3797 290a 1AEB0202 		adds	r2, r10, r2
 3798 290e 04EA0303 		and	r3, r4, r3
 3799 2912 00EA0505 		and	r5, r0, r5
 3800 2916 83EA0603 		eor	r3, r3, r6
 3801 291a 4BEB0808 		adc	r8, fp, r8
 3802 291e 6940     		eors	r1, r1, r5
 3803 2920 D218     		adds	r2, r2, r3
 3804 2922 269B     		ldr	r3, [sp, #152]
 3805 2924 48EB0108 		adc	r8, r8, r1
 3806 2928 2899     		ldr	r1, [sp, #160]
 3807 292a 269D     		ldr	r5, [sp, #152]
 3808 292c 1B0F     		lsrs	r3, r3, #28
 3809 292e 43EA0113 		orr	r3, r3, r1, lsl #4
 3810 2932 090F     		lsrs	r1, r1, #28
 3811 2934 41EA0511 		orr	r1, r1, r5, lsl #4
 3812 2938 289D     		ldr	r5, [sp, #160]
 3813 293a 269E     		ldr	r6, [sp, #152]
 3814 293c AD07     		lsls	r5, r5, #30
 3815 293e 45EA9605 		orr	r5, r5, r6, lsr #2
 3816 2942 B607     		lsls	r6, r6, #30
 3817 2944 46EA9706 		orr	r6, r6, r7, lsr #2
 3818 2948 7340     		eors	r3, r3, r6
 3819 294a 269E     		ldr	r6, [sp, #152]
 3820 294c 6940     		eors	r1, r1, r5
 3821 294e 7D06     		lsls	r5, r7, #25
 3822 2950 45EAD615 		orr	r5, r5, r6, lsr #7
 3823 2954 7606     		lsls	r6, r6, #25
 3824 2956 46EAD716 		orr	r6, r6, r7, lsr #7
 3825 295a 83EA060A 		eor	r10, r3, r6
 3826 295e 6940     		eors	r1, r1, r5
ARM GAS  /tmp/ccxnUvyY.s 			page 68


 3827 2960 2C9E     		ldr	r6, [sp, #176]
 3828 2962 2A9D     		ldr	r5, [sp, #168]
 3829 2964 2D9F     		ldr	r7, [sp, #180]
 3830 2966 7540     		eors	r5, r5, r6
 3831 2968 2B9E     		ldr	r6, [sp, #172]
 3832 296a 2C9B     		ldr	r3, [sp, #176]
 3833 296c 7E40     		eors	r6, r6, r7
 3834 296e 269F     		ldr	r7, [sp, #152]
 3835 2970 3D40     		ands	r5, r5, r7
 3836 2972 289F     		ldr	r7, [sp, #160]
 3837 2974 3E40     		ands	r6, r6, r7
 3838 2976 2A9F     		ldr	r7, [sp, #168]
 3839 2978 07EA030C 		and	ip, r7, r3
 3840 297c 2B9B     		ldr	r3, [sp, #172]
 3841 297e 2D9F     		ldr	r7, [sp, #180]
 3842 2980 85EA0C05 		eor	r5, r5, ip
 3843 2984 1F40     		ands	r7, r7, r3
 3844 2986 279B     		ldr	r3, [sp, #156]
 3845 2988 1AEB0505 		adds	r5, r10, r5
 3846 298c 86EA0706 		eor	r6, r6, r7
 3847 2990 41EB0606 		adc	r6, r1, r6
 3848 2994 9B18     		adds	r3, r3, r2
 3849 2996 2E93     		str	r3, [sp, #184]
 3850 2998 299B     		ldr	r3, [sp, #164]
 3851 299a 43EB0803 		adc	r3, r3, r8
 3852 299e 3193     		str	r3, [sp, #196]
 3853 29a0 2E9B     		ldr	r3, [sp, #184]
 3854 29a2 12EB050A 		adds	r10, r2, r5
 3855 29a6 4FEA9337 		lsr	r7, r3, #14
 3856 29aa 319B     		ldr	r3, [sp, #196]
 3857 29ac 48EB0608 		adc	r8, r8, r6
 3858 29b0 47EA8347 		orr	r7, r7, r3, lsl #18
 3859 29b4 4FEA933C 		lsr	ip, r3, #14
 3860 29b8 2E9B     		ldr	r3, [sp, #184]
 3861 29ba 319A     		ldr	r2, [sp, #196]
 3862 29bc 4CEA834C 		orr	ip, ip, r3, lsl #18
 3863 29c0 9B0C     		lsrs	r3, r3, #18
 3864 29c2 43EA8231 		orr	r1, r3, r2, lsl #14
 3865 29c6 2E9B     		ldr	r3, [sp, #184]
 3866 29c8 920C     		lsrs	r2, r2, #18
 3867 29ca 42EA8332 		orr	r2, r2, r3, lsl #14
 3868 29ce 8CEA020C 		eor	ip, ip, r2
 3869 29d2 319A     		ldr	r2, [sp, #196]
 3870 29d4 87EA0103 		eor	r3, r7, r1
 3871 29d8 2E99     		ldr	r1, [sp, #184]
 3872 29da D205     		lsls	r2, r2, #23
 3873 29dc 42EA5122 		orr	r2, r2, r1, lsr #9
 3874 29e0 CF05     		lsls	r7, r1, #23
 3875 29e2 3199     		ldr	r1, [sp, #196]
 3876 29e4 8CEA020C 		eor	ip, ip, r2
 3877 29e8 47EA5127 		orr	r7, r7, r1, lsr #9
 3878 29ec 5F40     		eors	r7, r7, r3
 3879 29ee 4A4A     		ldr	r2, .L31+16
 3880 29f0 169B     		ldr	r3, [sp, #88]
 3881 29f2 4A4D     		ldr	r5, .L31+20
 3882 29f4 9A18     		adds	r2, r3, r2
 3883 29f6 029B     		ldr	r3, [sp, #8]
ARM GAS  /tmp/ccxnUvyY.s 			page 69


 3884 29f8 45EB0305 		adc	r5, r5, r3
 3885 29fc 12EB0903 		adds	r3, r2, r9
 3886 2a00 2E9A     		ldr	r2, [sp, #184]
 3887 2a02 4EEB050E 		adc	lr, lr, r5
 3888 2a06 20EA0109 		bic	r9, r0, r1
 3889 2a0a 24EA0205 		bic	r5, r4, r2
 3890 2a0e DDE92E12 		ldrd	r1, r2, [sp, #184]
 3891 2a12 0A40     		ands	r2, r2, r1
 3892 2a14 FB18     		adds	r3, r7, r3
 3893 2a16 82EA0502 		eor	r2, r2, r5
 3894 2a1a DDE93016 		ldrd	r1, r6, [sp, #192]
 3895 2a1e 01EA0601 		and	r1, r1, r6
 3896 2a22 4CEB0E0E 		adc	lr, ip, lr
 3897 2a26 89EA0109 		eor	r9, r9, r1
 3898 2a2a 9B18     		adds	r3, r3, r2
 3899 2a2c 4FEA1871 		lsr	r1, r8, #28
 3900 2a30 4FEA1A72 		lsr	r2, r10, #28
 3901 2a34 4FEA8875 		lsl	r5, r8, #30
 3902 2a38 4FEA8A76 		lsl	r6, r10, #30
 3903 2a3c 45EA9A05 		orr	r5, r5, r10, lsr #2
 3904 2a40 46EA9806 		orr	r6, r6, r8, lsr #2
 3905 2a44 42EA0812 		orr	r2, r2, r8, lsl #4
 3906 2a48 41EA0A11 		orr	r1, r1, r10, lsl #4
 3907 2a4c 82EA0602 		eor	r2, r2, r6
 3908 2a50 81EA0501 		eor	r1, r1, r5
 3909 2a54 4FEA4A66 		lsl	r6, r10, #25
 3910 2a58 4FEA4865 		lsl	r5, r8, #25
 3911 2a5c 45EADA15 		orr	r5, r5, r10, lsr #7
 3912 2a60 46EAD816 		orr	r6, r6, r8, lsr #7
 3913 2a64 4EEB0909 		adc	r9, lr, r9
 3914 2a68 6940     		eors	r1, r1, r5
 3915 2a6a 82EA060E 		eor	lr, r2, r6
 3916 2a6e 2C9D     		ldr	r5, [sp, #176]
 3917 2a70 269E     		ldr	r6, [sp, #152]
 3918 2a72 289F     		ldr	r7, [sp, #160]
 3919 2a74 7540     		eors	r5, r5, r6
 3920 2a76 2D9E     		ldr	r6, [sp, #180]
 3921 2a78 269A     		ldr	r2, [sp, #152]
 3922 2a7a 7E40     		eors	r6, r6, r7
 3923 2a7c 2C9F     		ldr	r7, [sp, #176]
 3924 2a7e 05EA0A05 		and	r5, r5, r10
 3925 2a82 07EA020C 		and	ip, r7, r2
 3926 2a86 2D9A     		ldr	r2, [sp, #180]
 3927 2a88 289F     		ldr	r7, [sp, #160]
 3928 2a8a 06EA0806 		and	r6, r6, r8
 3929 2a8e 1740     		ands	r7, r7, r2
 3930 2a90 85EA0C05 		eor	r5, r5, ip
 3931 2a94 2A9A     		ldr	r2, [sp, #168]
 3932 2a96 1EEB0505 		adds	r5, lr, r5
 3933 2a9a 86EA0706 		eor	r6, r6, r7
 3934 2a9e 41EB0606 		adc	r6, r1, r6
 3935 2aa2 D218     		adds	r2, r2, r3
 3936 2aa4 3292     		str	r2, [sp, #200]
 3937 2aa6 2B9A     		ldr	r2, [sp, #172]
 3938 2aa8 42EB090C 		adc	ip, r2, r9
 3939 2aac 5B19     		adds	r3, r3, r5
 3940 2aae 329A     		ldr	r2, [sp, #200]
ARM GAS  /tmp/ccxnUvyY.s 			page 70


 3941 2ab0 2793     		str	r3, [sp, #156]
 3942 2ab2 329B     		ldr	r3, [sp, #200]
 3943 2ab4 49EB0609 		adc	r9, r9, r6
 3944 2ab8 4FEA924B 		lsr	fp, r2, #18
 3945 2abc 4FEA9C4E 		lsr	lr, ip, #18
 3946 2ac0 4FEA9C36 		lsr	r6, ip, #14
 3947 2ac4 9B0B     		lsrs	r3, r3, #14
 3948 2ac6 43EA8C43 		orr	r3, r3, ip, lsl #18
 3949 2aca 46EA8246 		orr	r6, r6, r2, lsl #18
 3950 2ace 4BEA8C31 		orr	r1, fp, ip, lsl #14
 3951 2ad2 4EEA8232 		orr	r2, lr, r2, lsl #14
 3952 2ad6 83EA010B 		eor	fp, r3, r1
 3953 2ada 86EA020E 		eor	lr, r6, r2
 3954 2ade 329B     		ldr	r3, [sp, #200]
 3955 2ae0 179A     		ldr	r2, [sp, #92]
 3956 2ae2 0F49     		ldr	r1, .L31+24
 3957 2ae4 4FEACC56 		lsl	r6, ip, #23
 3958 2ae8 5118     		adds	r1, r2, r1
 3959 2aea 039D     		ldr	r5, [sp, #12]
 3960 2aec 0D4A     		ldr	r2, .L31+28
 3961 2aee 46EA5326 		orr	r6, r6, r3, lsr #9
 3962 2af2 4FEAC353 		lsl	r3, r3, #23
 3963 2af6 43EA5C23 		orr	r3, r3, ip, lsr #9
 3964 2afa 8BEA0303 		eor	r3, fp, r3
 3965 2afe 8EEA0606 		eor	r6, lr, r6
 3966 2b02 42EB050E 		adc	lr, r2, r5
 3967 2b06 0FE0     		b	.L32
 3968              	.L33:
 3969              		.align	2
 3970              	.L31:
 3971 2b08 C28FA83D 		.word	1034457026
 3972 2b0c F30BE0C6 		.word	-958395405
 3973 2b10 25A70A93 		.word	-1828018395
 3974 2b14 4791A7D5 		.word	-710438585
 3975 2b18 6F8203E0 		.word	-536640913
 3976 2b1c 5163CA06 		.word	113926993
 3977 2b20 706E0E0A 		.word	168717936
 3978 2b24 67292914 		.word	338241895
 3979              	.L32:
 3980 2b28 11EB040B 		adds	fp, r1, r4
 3981 2b2c 329A     		ldr	r2, [sp, #200]
 3982 2b2e 40EB0E0E 		adc	lr, r0, lr
 3983 2b32 13EB0B0B 		adds	fp, r3, fp
 3984 2b36 2F9B     		ldr	r3, [sp, #188]
 3985 2b38 46EB0E0E 		adc	lr, r6, lr
 3986 2b3c 23EA0200 		bic	r0, r3, r2
 3987 2b40 309B     		ldr	r3, [sp, #192]
 3988 2b42 08EA0907 		and	r7, r8, r9
 3989 2b46 23EA0C02 		bic	r2, r3, ip
 3990 2b4a 2E9B     		ldr	r3, [sp, #184]
 3991 2b4c 3299     		ldr	r1, [sp, #200]
 3992 2b4e 279C     		ldr	r4, [sp, #156]
 3993 2b50 0B40     		ands	r3, r3, r1
 3994 2b52 3199     		ldr	r1, [sp, #196]
 3995 2b54 4340     		eors	r3, r3, r0
 3996 2b56 01EA0C01 		and	r1, r1, ip
 3997 2b5a 1BEB030B 		adds	fp, fp, r3
ARM GAS  /tmp/ccxnUvyY.s 			page 71


 3998 2b5e 82EA0102 		eor	r2, r2, r1
 3999 2b62 279B     		ldr	r3, [sp, #156]
 4000 2b64 4EEB020E 		adc	lr, lr, r2
 4001 2b68 279A     		ldr	r2, [sp, #156]
 4002 2b6a 2798     		ldr	r0, [sp, #156]
 4003 2b6c 190F     		lsrs	r1, r3, #28
 4004 2b6e 4FEA1973 		lsr	r3, r9, #28
 4005 2b72 43EA0213 		orr	r3, r3, r2, lsl #4
 4006 2b76 4FEA8972 		lsl	r2, r9, #30
 4007 2b7a 42EA9002 		orr	r2, r2, r0, lsr #2
 4008 2b7e 8007     		lsls	r0, r0, #30
 4009 2b80 40EA9900 		orr	r0, r0, r9, lsr #2
 4010 2b84 41EA0911 		orr	r1, r1, r9, lsl #4
 4011 2b88 4140     		eors	r1, r1, r0
 4012 2b8a 2798     		ldr	r0, [sp, #156]
 4013 2b8c 5340     		eors	r3, r3, r2
 4014 2b8e 4FEA4962 		lsl	r2, r9, #25
 4015 2b92 42EAD012 		orr	r2, r2, r0, lsr #7
 4016 2b96 5340     		eors	r3, r3, r2
 4017 2b98 269A     		ldr	r2, [sp, #152]
 4018 2b9a 4006     		lsls	r0, r0, #25
 4019 2b9c 82EA0A02 		eor	r2, r2, r10
 4020 2ba0 40EAD910 		orr	r0, r0, r9, lsr #7
 4021 2ba4 2240     		ands	r2, r2, r4
 4022 2ba6 269C     		ldr	r4, [sp, #152]
 4023 2ba8 4140     		eors	r1, r1, r0
 4024 2baa 2898     		ldr	r0, [sp, #160]
 4025 2bac 04EA0A05 		and	r5, r4, r10
 4026 2bb0 289C     		ldr	r4, [sp, #160]
 4027 2bb2 80EA0800 		eor	r0, r0, r8
 4028 2bb6 00EA0900 		and	r0, r0, r9
 4029 2bba 04EA0804 		and	r4, r4, r8
 4030 2bbe 6A40     		eors	r2, r2, r5
 4031 2bc0 8A18     		adds	r2, r1, r2
 4032 2bc2 84EA0004 		eor	r4, r4, r0
 4033 2bc6 43EB0404 		adc	r4, r3, r4
 4034 2bca 2C9B     		ldr	r3, [sp, #176]
 4035 2bcc 1998     		ldr	r0, [sp, #100]
 4036 2bce 13EB0B03 		adds	r3, r3, fp
 4037 2bd2 3393     		str	r3, [sp, #204]
 4038 2bd4 2D9B     		ldr	r3, [sp, #180]
 4039 2bd6 43EB0E03 		adc	r3, r3, lr
 4040 2bda 1BEB020B 		adds	fp, fp, r2
 4041 2bde 2D93     		str	r3, [sp, #180]
 4042 2be0 4EEB0403 		adc	r3, lr, r4
 4043 2be4 2993     		str	r3, [sp, #164]
 4044 2be6 199B     		ldr	r3, [sp, #100]
 4045 2be8 5908     		lsrs	r1, r3, #1
 4046 2bea 079B     		ldr	r3, [sp, #28]
 4047 2bec 41EAC371 		orr	r1, r1, r3, lsl #31
 4048 2bf0 5A08     		lsrs	r2, r3, #1
 4049 2bf2 199B     		ldr	r3, [sp, #100]
 4050 2bf4 42EAC372 		orr	r2, r2, r3, lsl #31
 4051 2bf8 1D0A     		lsrs	r5, r3, #8
 4052 2bfa 079B     		ldr	r3, [sp, #28]
 4053 2bfc 45EA0365 		orr	r5, r5, r3, lsl #24
 4054 2c00 1B0A     		lsrs	r3, r3, #8
ARM GAS  /tmp/ccxnUvyY.s 			page 72


 4055 2c02 43EA0063 		orr	r3, r3, r0, lsl #24
 4056 2c06 5340     		eors	r3, r3, r2
 4057 2c08 079A     		ldr	r2, [sp, #28]
 4058 2c0a 4D40     		eors	r5, r5, r1
 4059 2c0c C109     		lsrs	r1, r0, #7
 4060 2c0e 41EA4261 		orr	r1, r1, r2, lsl #25
 4061 2c12 83EAD213 		eor	r3, r3, r2, lsr #7
 4062 2c16 189A     		ldr	r2, [sp, #96]
 4063 2c18 4D40     		eors	r5, r5, r1
 4064 2c1a AD18     		adds	r5, r5, r2
 4065 2c1c 069A     		ldr	r2, [sp, #24]
 4066 2c1e 1699     		ldr	r1, [sp, #88]
 4067 2c20 42EB0303 		adc	r3, r2, r3
 4068 2c24 219A     		ldr	r2, [sp, #132]
 4069 2c26 AD18     		adds	r5, r5, r2
 4070 2c28 0F9A     		ldr	r2, [sp, #60]
 4071 2c2a 42EB0303 		adc	r3, r2, r3
 4072 2c2e 169A     		ldr	r2, [sp, #88]
 4073 2c30 D40C     		lsrs	r4, r2, #19
 4074 2c32 029A     		ldr	r2, [sp, #8]
 4075 2c34 44EA4234 		orr	r4, r4, r2, lsl #13
 4076 2c38 D20C     		lsrs	r2, r2, #19
 4077 2c3a 42EA4132 		orr	r2, r2, r1, lsl #13
 4078 2c3e 0299     		ldr	r1, [sp, #8]
 4079 2c40 C800     		lsls	r0, r1, #3
 4080 2c42 1699     		ldr	r1, [sp, #88]
 4081 2c44 029E     		ldr	r6, [sp, #8]
 4082 2c46 40EA5170 		orr	r0, r0, r1, lsr #29
 4083 2c4a 4240     		eors	r2, r2, r0
 4084 2c4c C900     		lsls	r1, r1, #3
 4085 2c4e 1698     		ldr	r0, [sp, #88]
 4086 2c50 41EA5671 		orr	r1, r1, r6, lsr #29
 4087 2c54 6140     		eors	r1, r1, r4
 4088 2c56 8409     		lsrs	r4, r0, #6
 4089 2c58 44EA8664 		orr	r4, r4, r6, lsl #26
 4090 2c5c 6140     		eors	r1, r1, r4
 4091 2c5e 4919     		adds	r1, r1, r5
 4092 2c60 82EA9612 		eor	r2, r2, r6, lsr #6
 4093 2c64 43EB0203 		adc	r3, r3, r2
 4094 2c68 0693     		str	r3, [sp, #24]
 4095 2c6a 1A9B     		ldr	r3, [sp, #104]
 4096 2c6c 1891     		str	r1, [sp, #96]
 4097 2c6e 5908     		lsrs	r1, r3, #1
 4098 2c70 089B     		ldr	r3, [sp, #32]
 4099 2c72 1A98     		ldr	r0, [sp, #104]
 4100 2c74 41EAC371 		orr	r1, r1, r3, lsl #31
 4101 2c78 5A08     		lsrs	r2, r3, #1
 4102 2c7a 1A9B     		ldr	r3, [sp, #104]
 4103 2c7c 039E     		ldr	r6, [sp, #12]
 4104 2c7e 42EAC372 		orr	r2, r2, r3, lsl #31
 4105 2c82 1D0A     		lsrs	r5, r3, #8
 4106 2c84 089B     		ldr	r3, [sp, #32]
 4107 2c86 45EA0365 		orr	r5, r5, r3, lsl #24
 4108 2c8a 1B0A     		lsrs	r3, r3, #8
 4109 2c8c 43EA0063 		orr	r3, r3, r0, lsl #24
 4110 2c90 5340     		eors	r3, r3, r2
 4111 2c92 089A     		ldr	r2, [sp, #32]
ARM GAS  /tmp/ccxnUvyY.s 			page 73


 4112 2c94 4D40     		eors	r5, r5, r1
 4113 2c96 C109     		lsrs	r1, r0, #7
 4114 2c98 41EA4261 		orr	r1, r1, r2, lsl #25
 4115 2c9c 83EAD213 		eor	r3, r3, r2, lsr #7
 4116 2ca0 199A     		ldr	r2, [sp, #100]
 4117 2ca2 4D40     		eors	r5, r5, r1
 4118 2ca4 AD18     		adds	r5, r5, r2
 4119 2ca6 079A     		ldr	r2, [sp, #28]
 4120 2ca8 1799     		ldr	r1, [sp, #92]
 4121 2caa 42EB0303 		adc	r3, r2, r3
 4122 2cae 229A     		ldr	r2, [sp, #136]
 4123 2cb0 AD18     		adds	r5, r5, r2
 4124 2cb2 109A     		ldr	r2, [sp, #64]
 4125 2cb4 42EB0303 		adc	r3, r2, r3
 4126 2cb8 179A     		ldr	r2, [sp, #92]
 4127 2cba D40C     		lsrs	r4, r2, #19
 4128 2cbc 039A     		ldr	r2, [sp, #12]
 4129 2cbe 44EA4234 		orr	r4, r4, r2, lsl #13
 4130 2cc2 D20C     		lsrs	r2, r2, #19
 4131 2cc4 42EA4132 		orr	r2, r2, r1, lsl #13
 4132 2cc8 0399     		ldr	r1, [sp, #12]
 4133 2cca C800     		lsls	r0, r1, #3
 4134 2ccc 1799     		ldr	r1, [sp, #92]
 4135 2cce 40EA5170 		orr	r0, r0, r1, lsr #29
 4136 2cd2 4240     		eors	r2, r2, r0
 4137 2cd4 C900     		lsls	r1, r1, #3
 4138 2cd6 1798     		ldr	r0, [sp, #92]
 4139 2cd8 41EA5671 		orr	r1, r1, r6, lsr #29
 4140 2cdc 6140     		eors	r1, r1, r4
 4141 2cde 8409     		lsrs	r4, r0, #6
 4142 2ce0 44EA8664 		orr	r4, r4, r6, lsl #26
 4143 2ce4 6140     		eors	r1, r1, r4
 4144 2ce6 4919     		adds	r1, r1, r5
 4145 2ce8 82EA9612 		eor	r2, r2, r6, lsr #6
 4146 2cec 43EB0203 		adc	r3, r3, r2
 4147 2cf0 0793     		str	r3, [sp, #28]
 4148 2cf2 1B9B     		ldr	r3, [sp, #108]
 4149 2cf4 1991     		str	r1, [sp, #100]
 4150 2cf6 5908     		lsrs	r1, r3, #1
 4151 2cf8 099B     		ldr	r3, [sp, #36]
 4152 2cfa 1B98     		ldr	r0, [sp, #108]
 4153 2cfc 41EAC371 		orr	r1, r1, r3, lsl #31
 4154 2d00 5A08     		lsrs	r2, r3, #1
 4155 2d02 1B9B     		ldr	r3, [sp, #108]
 4156 2d04 42EAC372 		orr	r2, r2, r3, lsl #31
 4157 2d08 1D0A     		lsrs	r5, r3, #8
 4158 2d0a 099B     		ldr	r3, [sp, #36]
 4159 2d0c 45EA0365 		orr	r5, r5, r3, lsl #24
 4160 2d10 1B0A     		lsrs	r3, r3, #8
 4161 2d12 43EA0063 		orr	r3, r3, r0, lsl #24
 4162 2d16 5340     		eors	r3, r3, r2
 4163 2d18 099A     		ldr	r2, [sp, #36]
 4164 2d1a 4D40     		eors	r5, r5, r1
 4165 2d1c C109     		lsrs	r1, r0, #7
 4166 2d1e 41EA4261 		orr	r1, r1, r2, lsl #25
 4167 2d22 83EAD213 		eor	r3, r3, r2, lsr #7
 4168 2d26 1A9A     		ldr	r2, [sp, #104]
ARM GAS  /tmp/ccxnUvyY.s 			page 74


 4169 2d28 4D40     		eors	r5, r5, r1
 4170 2d2a AD18     		adds	r5, r5, r2
 4171 2d2c 089A     		ldr	r2, [sp, #32]
 4172 2d2e 42EB0303 		adc	r3, r2, r3
 4173 2d32 239A     		ldr	r2, [sp, #140]
 4174 2d34 AD18     		adds	r5, r5, r2
 4175 2d36 119A     		ldr	r2, [sp, #68]
 4176 2d38 1899     		ldr	r1, [sp, #96]
 4177 2d3a 42EB0303 		adc	r3, r2, r3
 4178 2d3e 189A     		ldr	r2, [sp, #96]
 4179 2d40 069E     		ldr	r6, [sp, #24]
 4180 2d42 D40C     		lsrs	r4, r2, #19
 4181 2d44 069A     		ldr	r2, [sp, #24]
 4182 2d46 44EA4234 		orr	r4, r4, r2, lsl #13
 4183 2d4a D20C     		lsrs	r2, r2, #19
 4184 2d4c 42EA4132 		orr	r2, r2, r1, lsl #13
 4185 2d50 0699     		ldr	r1, [sp, #24]
 4186 2d52 C800     		lsls	r0, r1, #3
 4187 2d54 1899     		ldr	r1, [sp, #96]
 4188 2d56 40EA5170 		orr	r0, r0, r1, lsr #29
 4189 2d5a 4240     		eors	r2, r2, r0
 4190 2d5c C900     		lsls	r1, r1, #3
 4191 2d5e 1898     		ldr	r0, [sp, #96]
 4192 2d60 41EA5671 		orr	r1, r1, r6, lsr #29
 4193 2d64 6140     		eors	r1, r1, r4
 4194 2d66 8409     		lsrs	r4, r0, #6
 4195 2d68 44EA8664 		orr	r4, r4, r6, lsl #26
 4196 2d6c 6140     		eors	r1, r1, r4
 4197 2d6e 4919     		adds	r1, r1, r5
 4198 2d70 82EA9612 		eor	r2, r2, r6, lsr #6
 4199 2d74 43EB0203 		adc	r3, r3, r2
 4200 2d78 0893     		str	r3, [sp, #32]
 4201 2d7a 1C9B     		ldr	r3, [sp, #112]
 4202 2d7c 1A91     		str	r1, [sp, #104]
 4203 2d7e 5908     		lsrs	r1, r3, #1
 4204 2d80 0A9B     		ldr	r3, [sp, #40]
 4205 2d82 1C98     		ldr	r0, [sp, #112]
 4206 2d84 41EAC371 		orr	r1, r1, r3, lsl #31
 4207 2d88 5A08     		lsrs	r2, r3, #1
 4208 2d8a 1C9B     		ldr	r3, [sp, #112]
 4209 2d8c 079E     		ldr	r6, [sp, #28]
 4210 2d8e 42EAC372 		orr	r2, r2, r3, lsl #31
 4211 2d92 1D0A     		lsrs	r5, r3, #8
 4212 2d94 0A9B     		ldr	r3, [sp, #40]
 4213 2d96 45EA0365 		orr	r5, r5, r3, lsl #24
 4214 2d9a 1B0A     		lsrs	r3, r3, #8
 4215 2d9c 43EA0063 		orr	r3, r3, r0, lsl #24
 4216 2da0 5340     		eors	r3, r3, r2
 4217 2da2 0A9A     		ldr	r2, [sp, #40]
 4218 2da4 4D40     		eors	r5, r5, r1
 4219 2da6 C109     		lsrs	r1, r0, #7
 4220 2da8 41EA4261 		orr	r1, r1, r2, lsl #25
 4221 2dac 83EAD213 		eor	r3, r3, r2, lsr #7
 4222 2db0 1B9A     		ldr	r2, [sp, #108]
 4223 2db2 4D40     		eors	r5, r5, r1
 4224 2db4 AD18     		adds	r5, r5, r2
 4225 2db6 099A     		ldr	r2, [sp, #36]
ARM GAS  /tmp/ccxnUvyY.s 			page 75


 4226 2db8 1999     		ldr	r1, [sp, #100]
 4227 2dba 42EB0303 		adc	r3, r2, r3
 4228 2dbe 249A     		ldr	r2, [sp, #144]
 4229 2dc0 AD18     		adds	r5, r5, r2
 4230 2dc2 129A     		ldr	r2, [sp, #72]
 4231 2dc4 42EB0303 		adc	r3, r2, r3
 4232 2dc8 199A     		ldr	r2, [sp, #100]
 4233 2dca D40C     		lsrs	r4, r2, #19
 4234 2dcc 079A     		ldr	r2, [sp, #28]
 4235 2dce 44EA4234 		orr	r4, r4, r2, lsl #13
 4236 2dd2 D20C     		lsrs	r2, r2, #19
 4237 2dd4 42EA4132 		orr	r2, r2, r1, lsl #13
 4238 2dd8 0799     		ldr	r1, [sp, #28]
 4239 2dda C800     		lsls	r0, r1, #3
 4240 2ddc 1999     		ldr	r1, [sp, #100]
 4241 2dde 40EA5170 		orr	r0, r0, r1, lsr #29
 4242 2de2 4240     		eors	r2, r2, r0
 4243 2de4 C900     		lsls	r1, r1, #3
 4244 2de6 1998     		ldr	r0, [sp, #100]
 4245 2de8 41EA5671 		orr	r1, r1, r6, lsr #29
 4246 2dec 6140     		eors	r1, r1, r4
 4247 2dee 8409     		lsrs	r4, r0, #6
 4248 2df0 44EA8664 		orr	r4, r4, r6, lsl #26
 4249 2df4 6140     		eors	r1, r1, r4
 4250 2df6 4919     		adds	r1, r1, r5
 4251 2df8 82EA9612 		eor	r2, r2, r6, lsr #6
 4252 2dfc 43EB0203 		adc	r3, r3, r2
 4253 2e00 0993     		str	r3, [sp, #36]
 4254 2e02 1D9B     		ldr	r3, [sp, #116]
 4255 2e04 1B91     		str	r1, [sp, #108]
 4256 2e06 5908     		lsrs	r1, r3, #1
 4257 2e08 0B9B     		ldr	r3, [sp, #44]
 4258 2e0a 41EAC371 		orr	r1, r1, r3, lsl #31
 4259 2e0e 5A08     		lsrs	r2, r3, #1
 4260 2e10 1D9B     		ldr	r3, [sp, #116]
 4261 2e12 42EAC372 		orr	r2, r2, r3, lsl #31
 4262 2e16 1D0A     		lsrs	r5, r3, #8
 4263 2e18 0B9B     		ldr	r3, [sp, #44]
 4264 2e1a 1D98     		ldr	r0, [sp, #116]
 4265 2e1c 45EA0365 		orr	r5, r5, r3, lsl #24
 4266 2e20 1B0A     		lsrs	r3, r3, #8
 4267 2e22 43EA0063 		orr	r3, r3, r0, lsl #24
 4268 2e26 5340     		eors	r3, r3, r2
 4269 2e28 0B9A     		ldr	r2, [sp, #44]
 4270 2e2a 4D40     		eors	r5, r5, r1
 4271 2e2c C109     		lsrs	r1, r0, #7
 4272 2e2e 41EA4261 		orr	r1, r1, r2, lsl #25
 4273 2e32 83EAD213 		eor	r3, r3, r2, lsr #7
 4274 2e36 1C9A     		ldr	r2, [sp, #112]
 4275 2e38 4D40     		eors	r5, r5, r1
 4276 2e3a AD18     		adds	r5, r5, r2
 4277 2e3c 0A9A     		ldr	r2, [sp, #40]
 4278 2e3e 1A99     		ldr	r1, [sp, #104]
 4279 2e40 42EB0303 		adc	r3, r2, r3
 4280 2e44 259A     		ldr	r2, [sp, #148]
 4281 2e46 089E     		ldr	r6, [sp, #32]
 4282 2e48 AD18     		adds	r5, r5, r2
ARM GAS  /tmp/ccxnUvyY.s 			page 76


 4283 2e4a 139A     		ldr	r2, [sp, #76]
 4284 2e4c 42EB0303 		adc	r3, r2, r3
 4285 2e50 1A9A     		ldr	r2, [sp, #104]
 4286 2e52 D40C     		lsrs	r4, r2, #19
 4287 2e54 089A     		ldr	r2, [sp, #32]
 4288 2e56 44EA4234 		orr	r4, r4, r2, lsl #13
 4289 2e5a D20C     		lsrs	r2, r2, #19
 4290 2e5c 42EA4132 		orr	r2, r2, r1, lsl #13
 4291 2e60 0899     		ldr	r1, [sp, #32]
 4292 2e62 C800     		lsls	r0, r1, #3
 4293 2e64 1A99     		ldr	r1, [sp, #104]
 4294 2e66 40EA5170 		orr	r0, r0, r1, lsr #29
 4295 2e6a 4240     		eors	r2, r2, r0
 4296 2e6c C900     		lsls	r1, r1, #3
 4297 2e6e 1A98     		ldr	r0, [sp, #104]
 4298 2e70 41EA5671 		orr	r1, r1, r6, lsr #29
 4299 2e74 6140     		eors	r1, r1, r4
 4300 2e76 8409     		lsrs	r4, r0, #6
 4301 2e78 44EA8664 		orr	r4, r4, r6, lsl #26
 4302 2e7c 6140     		eors	r1, r1, r4
 4303 2e7e 4919     		adds	r1, r1, r5
 4304 2e80 82EA9612 		eor	r2, r2, r6, lsr #6
 4305 2e84 43EB0203 		adc	r3, r3, r2
 4306 2e88 0A93     		str	r3, [sp, #40]
 4307 2e8a 1E9B     		ldr	r3, [sp, #120]
 4308 2e8c 1C91     		str	r1, [sp, #112]
 4309 2e8e 5908     		lsrs	r1, r3, #1
 4310 2e90 0C9B     		ldr	r3, [sp, #48]
 4311 2e92 1E98     		ldr	r0, [sp, #120]
 4312 2e94 41EAC371 		orr	r1, r1, r3, lsl #31
 4313 2e98 5A08     		lsrs	r2, r3, #1
 4314 2e9a 1E9B     		ldr	r3, [sp, #120]
 4315 2e9c 099E     		ldr	r6, [sp, #36]
 4316 2e9e 42EAC372 		orr	r2, r2, r3, lsl #31
 4317 2ea2 1D0A     		lsrs	r5, r3, #8
 4318 2ea4 0C9B     		ldr	r3, [sp, #48]
 4319 2ea6 45EA0365 		orr	r5, r5, r3, lsl #24
 4320 2eaa 1B0A     		lsrs	r3, r3, #8
 4321 2eac 43EA0063 		orr	r3, r3, r0, lsl #24
 4322 2eb0 5340     		eors	r3, r3, r2
 4323 2eb2 0C9A     		ldr	r2, [sp, #48]
 4324 2eb4 4D40     		eors	r5, r5, r1
 4325 2eb6 C109     		lsrs	r1, r0, #7
 4326 2eb8 41EA4261 		orr	r1, r1, r2, lsl #25
 4327 2ebc 83EAD213 		eor	r3, r3, r2, lsr #7
 4328 2ec0 1D9A     		ldr	r2, [sp, #116]
 4329 2ec2 4D40     		eors	r5, r5, r1
 4330 2ec4 AD18     		adds	r5, r5, r2
 4331 2ec6 0B9A     		ldr	r2, [sp, #44]
 4332 2ec8 1B99     		ldr	r1, [sp, #108]
 4333 2eca 42EB0303 		adc	r3, r2, r3
 4334 2ece 169A     		ldr	r2, [sp, #88]
 4335 2ed0 AD18     		adds	r5, r5, r2
 4336 2ed2 029A     		ldr	r2, [sp, #8]
 4337 2ed4 42EB0303 		adc	r3, r2, r3
 4338 2ed8 1B9A     		ldr	r2, [sp, #108]
 4339 2eda D40C     		lsrs	r4, r2, #19
ARM GAS  /tmp/ccxnUvyY.s 			page 77


 4340 2edc 099A     		ldr	r2, [sp, #36]
 4341 2ede 44EA4234 		orr	r4, r4, r2, lsl #13
 4342 2ee2 D20C     		lsrs	r2, r2, #19
 4343 2ee4 42EA4132 		orr	r2, r2, r1, lsl #13
 4344 2ee8 0999     		ldr	r1, [sp, #36]
 4345 2eea C800     		lsls	r0, r1, #3
 4346 2eec 1B99     		ldr	r1, [sp, #108]
 4347 2eee 40EA5170 		orr	r0, r0, r1, lsr #29
 4348 2ef2 4240     		eors	r2, r2, r0
 4349 2ef4 C900     		lsls	r1, r1, #3
 4350 2ef6 1B98     		ldr	r0, [sp, #108]
 4351 2ef8 41EA5671 		orr	r1, r1, r6, lsr #29
 4352 2efc 6140     		eors	r1, r1, r4
 4353 2efe 8409     		lsrs	r4, r0, #6
 4354 2f00 44EA8664 		orr	r4, r4, r6, lsl #26
 4355 2f04 6140     		eors	r1, r1, r4
 4356 2f06 4919     		adds	r1, r1, r5
 4357 2f08 82EA9612 		eor	r2, r2, r6, lsr #6
 4358 2f0c 43EB0203 		adc	r3, r3, r2
 4359 2f10 0B93     		str	r3, [sp, #44]
 4360 2f12 1F9B     		ldr	r3, [sp, #124]
 4361 2f14 1D91     		str	r1, [sp, #116]
 4362 2f16 5908     		lsrs	r1, r3, #1
 4363 2f18 0D9B     		ldr	r3, [sp, #52]
 4364 2f1a 1F98     		ldr	r0, [sp, #124]
 4365 2f1c 41EAC371 		orr	r1, r1, r3, lsl #31
 4366 2f20 5A08     		lsrs	r2, r3, #1
 4367 2f22 1F9B     		ldr	r3, [sp, #124]
 4368 2f24 0A9E     		ldr	r6, [sp, #40]
 4369 2f26 42EAC372 		orr	r2, r2, r3, lsl #31
 4370 2f2a 1D0A     		lsrs	r5, r3, #8
 4371 2f2c 0D9B     		ldr	r3, [sp, #52]
 4372 2f2e 45EA0365 		orr	r5, r5, r3, lsl #24
 4373 2f32 1B0A     		lsrs	r3, r3, #8
 4374 2f34 43EA0063 		orr	r3, r3, r0, lsl #24
 4375 2f38 5340     		eors	r3, r3, r2
 4376 2f3a 0D9A     		ldr	r2, [sp, #52]
 4377 2f3c 4D40     		eors	r5, r5, r1
 4378 2f3e C109     		lsrs	r1, r0, #7
 4379 2f40 41EA4261 		orr	r1, r1, r2, lsl #25
 4380 2f44 83EAD213 		eor	r3, r3, r2, lsr #7
 4381 2f48 1E9A     		ldr	r2, [sp, #120]
 4382 2f4a 4D40     		eors	r5, r5, r1
 4383 2f4c AD18     		adds	r5, r5, r2
 4384 2f4e 0C9A     		ldr	r2, [sp, #48]
 4385 2f50 1C99     		ldr	r1, [sp, #112]
 4386 2f52 42EB0303 		adc	r3, r2, r3
 4387 2f56 179A     		ldr	r2, [sp, #92]
 4388 2f58 AD18     		adds	r5, r5, r2
 4389 2f5a 039A     		ldr	r2, [sp, #12]
 4390 2f5c 42EB0303 		adc	r3, r2, r3
 4391 2f60 1C9A     		ldr	r2, [sp, #112]
 4392 2f62 D40C     		lsrs	r4, r2, #19
 4393 2f64 0A9A     		ldr	r2, [sp, #40]
 4394 2f66 44EA4234 		orr	r4, r4, r2, lsl #13
 4395 2f6a D20C     		lsrs	r2, r2, #19
 4396 2f6c 42EA4132 		orr	r2, r2, r1, lsl #13
ARM GAS  /tmp/ccxnUvyY.s 			page 78


 4397 2f70 0A99     		ldr	r1, [sp, #40]
 4398 2f72 C800     		lsls	r0, r1, #3
 4399 2f74 1C99     		ldr	r1, [sp, #112]
 4400 2f76 40EA5170 		orr	r0, r0, r1, lsr #29
 4401 2f7a 4240     		eors	r2, r2, r0
 4402 2f7c C900     		lsls	r1, r1, #3
 4403 2f7e 1C98     		ldr	r0, [sp, #112]
 4404 2f80 41EA5671 		orr	r1, r1, r6, lsr #29
 4405 2f84 6140     		eors	r1, r1, r4
 4406 2f86 8409     		lsrs	r4, r0, #6
 4407 2f88 44EA8664 		orr	r4, r4, r6, lsl #26
 4408 2f8c 6140     		eors	r1, r1, r4
 4409 2f8e 4919     		adds	r1, r1, r5
 4410 2f90 82EA9612 		eor	r2, r2, r6, lsr #6
 4411 2f94 43EB0203 		adc	r3, r3, r2
 4412 2f98 0C93     		str	r3, [sp, #48]
 4413 2f9a 209B     		ldr	r3, [sp, #128]
 4414 2f9c 1E91     		str	r1, [sp, #120]
 4415 2f9e 5908     		lsrs	r1, r3, #1
 4416 2fa0 0E9B     		ldr	r3, [sp, #56]
 4417 2fa2 2098     		ldr	r0, [sp, #128]
 4418 2fa4 41EAC371 		orr	r1, r1, r3, lsl #31
 4419 2fa8 5A08     		lsrs	r2, r3, #1
 4420 2faa 209B     		ldr	r3, [sp, #128]
 4421 2fac 42EAC372 		orr	r2, r2, r3, lsl #31
 4422 2fb0 1D0A     		lsrs	r5, r3, #8
 4423 2fb2 0E9B     		ldr	r3, [sp, #56]
 4424 2fb4 45EA0365 		orr	r5, r5, r3, lsl #24
 4425 2fb8 1B0A     		lsrs	r3, r3, #8
 4426 2fba 43EA0063 		orr	r3, r3, r0, lsl #24
 4427 2fbe 5340     		eors	r3, r3, r2
 4428 2fc0 0E9A     		ldr	r2, [sp, #56]
 4429 2fc2 4D40     		eors	r5, r5, r1
 4430 2fc4 C109     		lsrs	r1, r0, #7
 4431 2fc6 41EA4261 		orr	r1, r1, r2, lsl #25
 4432 2fca 83EAD213 		eor	r3, r3, r2, lsr #7
 4433 2fce 1F9A     		ldr	r2, [sp, #124]
 4434 2fd0 4D40     		eors	r5, r5, r1
 4435 2fd2 AD18     		adds	r5, r5, r2
 4436 2fd4 0D9A     		ldr	r2, [sp, #52]
 4437 2fd6 42EB0303 		adc	r3, r2, r3
 4438 2fda 189A     		ldr	r2, [sp, #96]
 4439 2fdc AD18     		adds	r5, r5, r2
 4440 2fde 069A     		ldr	r2, [sp, #24]
 4441 2fe0 42EB0303 		adc	r3, r2, r3
 4442 2fe4 1D9A     		ldr	r2, [sp, #116]
 4443 2fe6 1D99     		ldr	r1, [sp, #116]
 4444 2fe8 D40C     		lsrs	r4, r2, #19
 4445 2fea 0B9A     		ldr	r2, [sp, #44]
 4446 2fec 0B9E     		ldr	r6, [sp, #44]
 4447 2fee 44EA4234 		orr	r4, r4, r2, lsl #13
 4448 2ff2 D20C     		lsrs	r2, r2, #19
 4449 2ff4 42EA4132 		orr	r2, r2, r1, lsl #13
 4450 2ff8 0B99     		ldr	r1, [sp, #44]
 4451 2ffa C800     		lsls	r0, r1, #3
 4452 2ffc 1D99     		ldr	r1, [sp, #116]
 4453 2ffe 40EA5170 		orr	r0, r0, r1, lsr #29
ARM GAS  /tmp/ccxnUvyY.s 			page 79


 4454 3002 4240     		eors	r2, r2, r0
 4455 3004 C900     		lsls	r1, r1, #3
 4456 3006 1D98     		ldr	r0, [sp, #116]
 4457 3008 41EA5671 		orr	r1, r1, r6, lsr #29
 4458 300c 6140     		eors	r1, r1, r4
 4459 300e 8409     		lsrs	r4, r0, #6
 4460 3010 44EA8664 		orr	r4, r4, r6, lsl #26
 4461 3014 6140     		eors	r1, r1, r4
 4462 3016 4919     		adds	r1, r1, r5
 4463 3018 82EA9612 		eor	r2, r2, r6, lsr #6
 4464 301c 43EB0203 		adc	r3, r3, r2
 4465 3020 0D93     		str	r3, [sp, #52]
 4466 3022 219B     		ldr	r3, [sp, #132]
 4467 3024 1F91     		str	r1, [sp, #124]
 4468 3026 5908     		lsrs	r1, r3, #1
 4469 3028 0F9B     		ldr	r3, [sp, #60]
 4470 302a 2198     		ldr	r0, [sp, #132]
 4471 302c 41EAC371 		orr	r1, r1, r3, lsl #31
 4472 3030 5A08     		lsrs	r2, r3, #1
 4473 3032 219B     		ldr	r3, [sp, #132]
 4474 3034 0C9E     		ldr	r6, [sp, #48]
 4475 3036 42EAC372 		orr	r2, r2, r3, lsl #31
 4476 303a 1D0A     		lsrs	r5, r3, #8
 4477 303c 0F9B     		ldr	r3, [sp, #60]
 4478 303e 45EA0365 		orr	r5, r5, r3, lsl #24
 4479 3042 1B0A     		lsrs	r3, r3, #8
 4480 3044 43EA0063 		orr	r3, r3, r0, lsl #24
 4481 3048 5340     		eors	r3, r3, r2
 4482 304a 0F9A     		ldr	r2, [sp, #60]
 4483 304c 4D40     		eors	r5, r5, r1
 4484 304e C109     		lsrs	r1, r0, #7
 4485 3050 41EA4261 		orr	r1, r1, r2, lsl #25
 4486 3054 83EAD213 		eor	r3, r3, r2, lsr #7
 4487 3058 209A     		ldr	r2, [sp, #128]
 4488 305a 4D40     		eors	r5, r5, r1
 4489 305c AD18     		adds	r5, r5, r2
 4490 305e 0E9A     		ldr	r2, [sp, #56]
 4491 3060 1E99     		ldr	r1, [sp, #120]
 4492 3062 42EB0303 		adc	r3, r2, r3
 4493 3066 199A     		ldr	r2, [sp, #100]
 4494 3068 AD18     		adds	r5, r5, r2
 4495 306a 079A     		ldr	r2, [sp, #28]
 4496 306c 42EB0303 		adc	r3, r2, r3
 4497 3070 1E9A     		ldr	r2, [sp, #120]
 4498 3072 D40C     		lsrs	r4, r2, #19
 4499 3074 0C9A     		ldr	r2, [sp, #48]
 4500 3076 44EA4234 		orr	r4, r4, r2, lsl #13
 4501 307a D20C     		lsrs	r2, r2, #19
 4502 307c 42EA4132 		orr	r2, r2, r1, lsl #13
 4503 3080 0C99     		ldr	r1, [sp, #48]
 4504 3082 C800     		lsls	r0, r1, #3
 4505 3084 1E99     		ldr	r1, [sp, #120]
 4506 3086 40EA5170 		orr	r0, r0, r1, lsr #29
 4507 308a 4240     		eors	r2, r2, r0
 4508 308c C900     		lsls	r1, r1, #3
 4509 308e 1E98     		ldr	r0, [sp, #120]
 4510 3090 41EA5671 		orr	r1, r1, r6, lsr #29
ARM GAS  /tmp/ccxnUvyY.s 			page 80


 4511 3094 6140     		eors	r1, r1, r4
 4512 3096 8409     		lsrs	r4, r0, #6
 4513 3098 44EA8664 		orr	r4, r4, r6, lsl #26
 4514 309c 6140     		eors	r1, r1, r4
 4515 309e 4919     		adds	r1, r1, r5
 4516 30a0 82EA9612 		eor	r2, r2, r6, lsr #6
 4517 30a4 43EB0203 		adc	r3, r3, r2
 4518 30a8 0E93     		str	r3, [sp, #56]
 4519 30aa 229B     		ldr	r3, [sp, #136]
 4520 30ac 2091     		str	r1, [sp, #128]
 4521 30ae 5908     		lsrs	r1, r3, #1
 4522 30b0 109B     		ldr	r3, [sp, #64]
 4523 30b2 41EAC371 		orr	r1, r1, r3, lsl #31
 4524 30b6 5A08     		lsrs	r2, r3, #1
 4525 30b8 229B     		ldr	r3, [sp, #136]
 4526 30ba 42EAC372 		orr	r2, r2, r3, lsl #31
 4527 30be 1D0A     		lsrs	r5, r3, #8
 4528 30c0 109B     		ldr	r3, [sp, #64]
 4529 30c2 2298     		ldr	r0, [sp, #136]
 4530 30c4 45EA0365 		orr	r5, r5, r3, lsl #24
 4531 30c8 1B0A     		lsrs	r3, r3, #8
 4532 30ca 43EA0063 		orr	r3, r3, r0, lsl #24
 4533 30ce 5340     		eors	r3, r3, r2
 4534 30d0 109A     		ldr	r2, [sp, #64]
 4535 30d2 4D40     		eors	r5, r5, r1
 4536 30d4 C109     		lsrs	r1, r0, #7
 4537 30d6 41EA4261 		orr	r1, r1, r2, lsl #25
 4538 30da 83EAD213 		eor	r3, r3, r2, lsr #7
 4539 30de 219A     		ldr	r2, [sp, #132]
 4540 30e0 4D40     		eors	r5, r5, r1
 4541 30e2 AD18     		adds	r5, r5, r2
 4542 30e4 0F9A     		ldr	r2, [sp, #60]
 4543 30e6 1F99     		ldr	r1, [sp, #124]
 4544 30e8 42EB0303 		adc	r3, r2, r3
 4545 30ec 1A9A     		ldr	r2, [sp, #104]
 4546 30ee 0D9E     		ldr	r6, [sp, #52]
 4547 30f0 AD18     		adds	r5, r5, r2
 4548 30f2 089A     		ldr	r2, [sp, #32]
 4549 30f4 42EB0303 		adc	r3, r2, r3
 4550 30f8 1F9A     		ldr	r2, [sp, #124]
 4551 30fa D40C     		lsrs	r4, r2, #19
 4552 30fc 0D9A     		ldr	r2, [sp, #52]
 4553 30fe 44EA4234 		orr	r4, r4, r2, lsl #13
 4554 3102 D20C     		lsrs	r2, r2, #19
 4555 3104 42EA4132 		orr	r2, r2, r1, lsl #13
 4556 3108 0D99     		ldr	r1, [sp, #52]
 4557 310a C800     		lsls	r0, r1, #3
 4558 310c 1F99     		ldr	r1, [sp, #124]
 4559 310e 40EA5170 		orr	r0, r0, r1, lsr #29
 4560 3112 4240     		eors	r2, r2, r0
 4561 3114 C900     		lsls	r1, r1, #3
 4562 3116 1F98     		ldr	r0, [sp, #124]
 4563 3118 41EA5671 		orr	r1, r1, r6, lsr #29
 4564 311c 6140     		eors	r1, r1, r4
 4565 311e 8409     		lsrs	r4, r0, #6
 4566 3120 44EA8664 		orr	r4, r4, r6, lsl #26
 4567 3124 6140     		eors	r1, r1, r4
ARM GAS  /tmp/ccxnUvyY.s 			page 81


 4568 3126 4919     		adds	r1, r1, r5
 4569 3128 82EA9612 		eor	r2, r2, r6, lsr #6
 4570 312c 43EB0203 		adc	r3, r3, r2
 4571 3130 0F93     		str	r3, [sp, #60]
 4572 3132 239B     		ldr	r3, [sp, #140]
 4573 3134 2191     		str	r1, [sp, #132]
 4574 3136 5908     		lsrs	r1, r3, #1
 4575 3138 119B     		ldr	r3, [sp, #68]
 4576 313a 2398     		ldr	r0, [sp, #140]
 4577 313c 41EAC371 		orr	r1, r1, r3, lsl #31
 4578 3140 5A08     		lsrs	r2, r3, #1
 4579 3142 239B     		ldr	r3, [sp, #140]
 4580 3144 0E9E     		ldr	r6, [sp, #56]
 4581 3146 42EAC372 		orr	r2, r2, r3, lsl #31
 4582 314a 1D0A     		lsrs	r5, r3, #8
 4583 314c 119B     		ldr	r3, [sp, #68]
 4584 314e 45EA0365 		orr	r5, r5, r3, lsl #24
 4585 3152 1B0A     		lsrs	r3, r3, #8
 4586 3154 43EA0063 		orr	r3, r3, r0, lsl #24
 4587 3158 5340     		eors	r3, r3, r2
 4588 315a 119A     		ldr	r2, [sp, #68]
 4589 315c 4D40     		eors	r5, r5, r1
 4590 315e C109     		lsrs	r1, r0, #7
 4591 3160 41EA4261 		orr	r1, r1, r2, lsl #25
 4592 3164 83EAD213 		eor	r3, r3, r2, lsr #7
 4593 3168 229A     		ldr	r2, [sp, #136]
 4594 316a 4D40     		eors	r5, r5, r1
 4595 316c AD18     		adds	r5, r5, r2
 4596 316e 109A     		ldr	r2, [sp, #64]
 4597 3170 2099     		ldr	r1, [sp, #128]
 4598 3172 42EB0303 		adc	r3, r2, r3
 4599 3176 1B9A     		ldr	r2, [sp, #108]
 4600 3178 AD18     		adds	r5, r5, r2
 4601 317a 099A     		ldr	r2, [sp, #36]
 4602 317c 42EB0303 		adc	r3, r2, r3
 4603 3180 209A     		ldr	r2, [sp, #128]
 4604 3182 D40C     		lsrs	r4, r2, #19
 4605 3184 0E9A     		ldr	r2, [sp, #56]
 4606 3186 44EA4234 		orr	r4, r4, r2, lsl #13
 4607 318a D20C     		lsrs	r2, r2, #19
 4608 318c 42EA4132 		orr	r2, r2, r1, lsl #13
 4609 3190 0E99     		ldr	r1, [sp, #56]
 4610 3192 C800     		lsls	r0, r1, #3
 4611 3194 2099     		ldr	r1, [sp, #128]
 4612 3196 40EA5170 		orr	r0, r0, r1, lsr #29
 4613 319a 4240     		eors	r2, r2, r0
 4614 319c C900     		lsls	r1, r1, #3
 4615 319e 2098     		ldr	r0, [sp, #128]
 4616 31a0 41EA5671 		orr	r1, r1, r6, lsr #29
 4617 31a4 6140     		eors	r1, r1, r4
 4618 31a6 8409     		lsrs	r4, r0, #6
 4619 31a8 44EA8664 		orr	r4, r4, r6, lsl #26
 4620 31ac 6140     		eors	r1, r1, r4
 4621 31ae 4919     		adds	r1, r1, r5
 4622 31b0 82EA9612 		eor	r2, r2, r6, lsr #6
 4623 31b4 43EB0203 		adc	r3, r3, r2
 4624 31b8 2291     		str	r1, [sp, #136]
ARM GAS  /tmp/ccxnUvyY.s 			page 82


 4625 31ba 1093     		str	r3, [sp, #64]
 4626 31bc 249B     		ldr	r3, [sp, #144]
 4627 31be 2498     		ldr	r0, [sp, #144]
 4628 31c0 5908     		lsrs	r1, r3, #1
 4629 31c2 129B     		ldr	r3, [sp, #72]
 4630 31c4 0F9E     		ldr	r6, [sp, #60]
 4631 31c6 41EAC371 		orr	r1, r1, r3, lsl #31
 4632 31ca 5A08     		lsrs	r2, r3, #1
 4633 31cc 249B     		ldr	r3, [sp, #144]
 4634 31ce 42EAC372 		orr	r2, r2, r3, lsl #31
 4635 31d2 1D0A     		lsrs	r5, r3, #8
 4636 31d4 129B     		ldr	r3, [sp, #72]
 4637 31d6 45EA0365 		orr	r5, r5, r3, lsl #24
 4638 31da 1B0A     		lsrs	r3, r3, #8
 4639 31dc 43EA0063 		orr	r3, r3, r0, lsl #24
 4640 31e0 5340     		eors	r3, r3, r2
 4641 31e2 129A     		ldr	r2, [sp, #72]
 4642 31e4 4D40     		eors	r5, r5, r1
 4643 31e6 C109     		lsrs	r1, r0, #7
 4644 31e8 41EA4261 		orr	r1, r1, r2, lsl #25
 4645 31ec 83EAD213 		eor	r3, r3, r2, lsr #7
 4646 31f0 239A     		ldr	r2, [sp, #140]
 4647 31f2 4D40     		eors	r5, r5, r1
 4648 31f4 AD18     		adds	r5, r5, r2
 4649 31f6 119A     		ldr	r2, [sp, #68]
 4650 31f8 2199     		ldr	r1, [sp, #132]
 4651 31fa 42EB0303 		adc	r3, r2, r3
 4652 31fe 1C9A     		ldr	r2, [sp, #112]
 4653 3200 AD18     		adds	r5, r5, r2
 4654 3202 0A9A     		ldr	r2, [sp, #40]
 4655 3204 42EB0303 		adc	r3, r2, r3
 4656 3208 219A     		ldr	r2, [sp, #132]
 4657 320a D40C     		lsrs	r4, r2, #19
 4658 320c 0F9A     		ldr	r2, [sp, #60]
 4659 320e 44EA4234 		orr	r4, r4, r2, lsl #13
 4660 3212 D20C     		lsrs	r2, r2, #19
 4661 3214 42EA4132 		orr	r2, r2, r1, lsl #13
 4662 3218 0F99     		ldr	r1, [sp, #60]
 4663 321a C800     		lsls	r0, r1, #3
 4664 321c 2199     		ldr	r1, [sp, #132]
 4665 321e 40EA5170 		orr	r0, r0, r1, lsr #29
 4666 3222 4240     		eors	r2, r2, r0
 4667 3224 C900     		lsls	r1, r1, #3
 4668 3226 2198     		ldr	r0, [sp, #132]
 4669 3228 41EA5671 		orr	r1, r1, r6, lsr #29
 4670 322c 6140     		eors	r1, r1, r4
 4671 322e 8409     		lsrs	r4, r0, #6
 4672 3230 44EA8664 		orr	r4, r4, r6, lsl #26
 4673 3234 6140     		eors	r1, r1, r4
 4674 3236 4919     		adds	r1, r1, r5
 4675 3238 82EA9612 		eor	r2, r2, r6, lsr #6
 4676 323c 43EB0203 		adc	r3, r3, r2
 4677 3240 1193     		str	r3, [sp, #68]
 4678 3242 259B     		ldr	r3, [sp, #148]
 4679 3244 2391     		str	r1, [sp, #140]
 4680 3246 5908     		lsrs	r1, r3, #1
 4681 3248 139B     		ldr	r3, [sp, #76]
ARM GAS  /tmp/ccxnUvyY.s 			page 83


 4682 324a 2598     		ldr	r0, [sp, #148]
 4683 324c 41EAC371 		orr	r1, r1, r3, lsl #31
 4684 3250 5A08     		lsrs	r2, r3, #1
 4685 3252 259B     		ldr	r3, [sp, #148]
 4686 3254 42EAC372 		orr	r2, r2, r3, lsl #31
 4687 3258 1D0A     		lsrs	r5, r3, #8
 4688 325a 139B     		ldr	r3, [sp, #76]
 4689 325c 45EA0365 		orr	r5, r5, r3, lsl #24
 4690 3260 1B0A     		lsrs	r3, r3, #8
 4691 3262 43EA0063 		orr	r3, r3, r0, lsl #24
 4692 3266 5340     		eors	r3, r3, r2
 4693 3268 139A     		ldr	r2, [sp, #76]
 4694 326a 4D40     		eors	r5, r5, r1
 4695 326c C109     		lsrs	r1, r0, #7
 4696 326e 41EA4261 		orr	r1, r1, r2, lsl #25
 4697 3272 83EAD213 		eor	r3, r3, r2, lsr #7
 4698 3276 249A     		ldr	r2, [sp, #144]
 4699 3278 4D40     		eors	r5, r5, r1
 4700 327a AD18     		adds	r5, r5, r2
 4701 327c 129A     		ldr	r2, [sp, #72]
 4702 327e 42EB0303 		adc	r3, r2, r3
 4703 3282 1D9A     		ldr	r2, [sp, #116]
 4704 3284 AD18     		adds	r5, r5, r2
 4705 3286 0B9A     		ldr	r2, [sp, #44]
 4706 3288 42EB0303 		adc	r3, r2, r3
 4707 328c 229A     		ldr	r2, [sp, #136]
 4708 328e D40C     		lsrs	r4, r2, #19
 4709 3290 109A     		ldr	r2, [sp, #64]
 4710 3292 2299     		ldr	r1, [sp, #136]
 4711 3294 44EA4234 		orr	r4, r4, r2, lsl #13
 4712 3298 D20C     		lsrs	r2, r2, #19
 4713 329a 42EA4132 		orr	r2, r2, r1, lsl #13
 4714 329e 1099     		ldr	r1, [sp, #64]
 4715 32a0 109E     		ldr	r6, [sp, #64]
 4716 32a2 C800     		lsls	r0, r1, #3
 4717 32a4 2299     		ldr	r1, [sp, #136]
 4718 32a6 40EA5170 		orr	r0, r0, r1, lsr #29
 4719 32aa 4240     		eors	r2, r2, r0
 4720 32ac C900     		lsls	r1, r1, #3
 4721 32ae 2298     		ldr	r0, [sp, #136]
 4722 32b0 41EA5671 		orr	r1, r1, r6, lsr #29
 4723 32b4 6140     		eors	r1, r1, r4
 4724 32b6 8409     		lsrs	r4, r0, #6
 4725 32b8 44EA8664 		orr	r4, r4, r6, lsl #26
 4726 32bc 6140     		eors	r1, r1, r4
 4727 32be 4919     		adds	r1, r1, r5
 4728 32c0 82EA9612 		eor	r2, r2, r6, lsr #6
 4729 32c4 43EB0203 		adc	r3, r3, r2
 4730 32c8 1293     		str	r3, [sp, #72]
 4731 32ca 169B     		ldr	r3, [sp, #88]
 4732 32cc 2491     		str	r1, [sp, #144]
 4733 32ce 5908     		lsrs	r1, r3, #1
 4734 32d0 029B     		ldr	r3, [sp, #8]
 4735 32d2 1698     		ldr	r0, [sp, #88]
 4736 32d4 41EAC371 		orr	r1, r1, r3, lsl #31
 4737 32d8 5A08     		lsrs	r2, r3, #1
 4738 32da 169B     		ldr	r3, [sp, #88]
ARM GAS  /tmp/ccxnUvyY.s 			page 84


 4739 32dc 119E     		ldr	r6, [sp, #68]
 4740 32de 42EAC372 		orr	r2, r2, r3, lsl #31
 4741 32e2 1D0A     		lsrs	r5, r3, #8
 4742 32e4 029B     		ldr	r3, [sp, #8]
 4743 32e6 45EA0365 		orr	r5, r5, r3, lsl #24
 4744 32ea 1B0A     		lsrs	r3, r3, #8
 4745 32ec 43EA0063 		orr	r3, r3, r0, lsl #24
 4746 32f0 5340     		eors	r3, r3, r2
 4747 32f2 029A     		ldr	r2, [sp, #8]
 4748 32f4 4D40     		eors	r5, r5, r1
 4749 32f6 C109     		lsrs	r1, r0, #7
 4750 32f8 41EA4261 		orr	r1, r1, r2, lsl #25
 4751 32fc 83EAD213 		eor	r3, r3, r2, lsr #7
 4752 3300 259A     		ldr	r2, [sp, #148]
 4753 3302 4D40     		eors	r5, r5, r1
 4754 3304 AD18     		adds	r5, r5, r2
 4755 3306 139A     		ldr	r2, [sp, #76]
 4756 3308 2399     		ldr	r1, [sp, #140]
 4757 330a 42EB0303 		adc	r3, r2, r3
 4758 330e 1E9A     		ldr	r2, [sp, #120]
 4759 3310 AD18     		adds	r5, r5, r2
 4760 3312 0C9A     		ldr	r2, [sp, #48]
 4761 3314 42EB0303 		adc	r3, r2, r3
 4762 3318 239A     		ldr	r2, [sp, #140]
 4763 331a D40C     		lsrs	r4, r2, #19
 4764 331c 119A     		ldr	r2, [sp, #68]
 4765 331e 44EA4234 		orr	r4, r4, r2, lsl #13
 4766 3322 D20C     		lsrs	r2, r2, #19
 4767 3324 42EA4132 		orr	r2, r2, r1, lsl #13
 4768 3328 1199     		ldr	r1, [sp, #68]
 4769 332a C800     		lsls	r0, r1, #3
 4770 332c 2399     		ldr	r1, [sp, #140]
 4771 332e 40EA5170 		orr	r0, r0, r1, lsr #29
 4772 3332 4240     		eors	r2, r2, r0
 4773 3334 C900     		lsls	r1, r1, #3
 4774 3336 2398     		ldr	r0, [sp, #140]
 4775 3338 41EA5671 		orr	r1, r1, r6, lsr #29
 4776 333c 6140     		eors	r1, r1, r4
 4777 333e 8409     		lsrs	r4, r0, #6
 4778 3340 44EA8664 		orr	r4, r4, r6, lsl #26
 4779 3344 6140     		eors	r1, r1, r4
 4780 3346 4919     		adds	r1, r1, r5
 4781 3348 82EA9612 		eor	r2, r2, r6, lsr #6
 4782 334c 43EB0203 		adc	r3, r3, r2
 4783 3350 1393     		str	r3, [sp, #76]
 4784 3352 179B     		ldr	r3, [sp, #92]
 4785 3354 2591     		str	r1, [sp, #148]
 4786 3356 5908     		lsrs	r1, r3, #1
 4787 3358 039B     		ldr	r3, [sp, #12]
 4788 335a 1798     		ldr	r0, [sp, #92]
 4789 335c 41EAC371 		orr	r1, r1, r3, lsl #31
 4790 3360 5A08     		lsrs	r2, r3, #1
 4791 3362 179B     		ldr	r3, [sp, #92]
 4792 3364 42EAC372 		orr	r2, r2, r3, lsl #31
 4793 3368 1D0A     		lsrs	r5, r3, #8
 4794 336a 039B     		ldr	r3, [sp, #12]
 4795 336c 45EA0365 		orr	r5, r5, r3, lsl #24
ARM GAS  /tmp/ccxnUvyY.s 			page 85


 4796 3370 1B0A     		lsrs	r3, r3, #8
 4797 3372 43EA0063 		orr	r3, r3, r0, lsl #24
 4798 3376 5340     		eors	r3, r3, r2
 4799 3378 039A     		ldr	r2, [sp, #12]
 4800 337a 4D40     		eors	r5, r5, r1
 4801 337c C109     		lsrs	r1, r0, #7
 4802 337e 41EA4261 		orr	r1, r1, r2, lsl #25
 4803 3382 83EAD213 		eor	r3, r3, r2, lsr #7
 4804 3386 169A     		ldr	r2, [sp, #88]
 4805 3388 4D40     		eors	r5, r5, r1
 4806 338a AD18     		adds	r5, r5, r2
 4807 338c 029A     		ldr	r2, [sp, #8]
 4808 338e 2499     		ldr	r1, [sp, #144]
 4809 3390 42EB0303 		adc	r3, r2, r3
 4810 3394 1F9A     		ldr	r2, [sp, #124]
 4811 3396 129E     		ldr	r6, [sp, #72]
 4812 3398 AD18     		adds	r5, r5, r2
 4813 339a 0D9A     		ldr	r2, [sp, #52]
 4814 339c 42EB0303 		adc	r3, r2, r3
 4815 33a0 249A     		ldr	r2, [sp, #144]
 4816 33a2 D40C     		lsrs	r4, r2, #19
 4817 33a4 129A     		ldr	r2, [sp, #72]
 4818 33a6 44EA4234 		orr	r4, r4, r2, lsl #13
 4819 33aa D20C     		lsrs	r2, r2, #19
 4820 33ac 42EA4132 		orr	r2, r2, r1, lsl #13
 4821 33b0 1299     		ldr	r1, [sp, #72]
 4822 33b2 C800     		lsls	r0, r1, #3
 4823 33b4 2499     		ldr	r1, [sp, #144]
 4824 33b6 40EA5170 		orr	r0, r0, r1, lsr #29
 4825 33ba 4240     		eors	r2, r2, r0
 4826 33bc C900     		lsls	r1, r1, #3
 4827 33be 2498     		ldr	r0, [sp, #144]
 4828 33c0 41EA5671 		orr	r1, r1, r6, lsr #29
 4829 33c4 6140     		eors	r1, r1, r4
 4830 33c6 8409     		lsrs	r4, r0, #6
 4831 33c8 44EA8664 		orr	r4, r4, r6, lsl #26
 4832 33cc 6140     		eors	r1, r1, r4
 4833 33ce 4919     		adds	r1, r1, r5
 4834 33d0 82EA9612 		eor	r2, r2, r6, lsr #6
 4835 33d4 43EB0203 		adc	r3, r3, r2
 4836 33d8 0293     		str	r3, [sp, #8]
 4837 33da 189B     		ldr	r3, [sp, #96]
 4838 33dc 1691     		str	r1, [sp, #88]
 4839 33de 5908     		lsrs	r1, r3, #1
 4840 33e0 069B     		ldr	r3, [sp, #24]
 4841 33e2 1898     		ldr	r0, [sp, #96]
 4842 33e4 41EAC371 		orr	r1, r1, r3, lsl #31
 4843 33e8 5A08     		lsrs	r2, r3, #1
 4844 33ea 189B     		ldr	r3, [sp, #96]
 4845 33ec 139E     		ldr	r6, [sp, #76]
 4846 33ee 42EAC372 		orr	r2, r2, r3, lsl #31
 4847 33f2 1D0A     		lsrs	r5, r3, #8
 4848 33f4 069B     		ldr	r3, [sp, #24]
 4849 33f6 45EA0365 		orr	r5, r5, r3, lsl #24
 4850 33fa 1B0A     		lsrs	r3, r3, #8
 4851 33fc 43EA0063 		orr	r3, r3, r0, lsl #24
 4852 3400 5340     		eors	r3, r3, r2
ARM GAS  /tmp/ccxnUvyY.s 			page 86


 4853 3402 069A     		ldr	r2, [sp, #24]
 4854 3404 4D40     		eors	r5, r5, r1
 4855 3406 C109     		lsrs	r1, r0, #7
 4856 3408 41EA4261 		orr	r1, r1, r2, lsl #25
 4857 340c 83EAD213 		eor	r3, r3, r2, lsr #7
 4858 3410 179A     		ldr	r2, [sp, #92]
 4859 3412 4D40     		eors	r5, r5, r1
 4860 3414 AD18     		adds	r5, r5, r2
 4861 3416 039A     		ldr	r2, [sp, #12]
 4862 3418 2599     		ldr	r1, [sp, #148]
 4863 341a 42EB0303 		adc	r3, r2, r3
 4864 341e 209A     		ldr	r2, [sp, #128]
 4865 3420 AD18     		adds	r5, r5, r2
 4866 3422 0E9A     		ldr	r2, [sp, #56]
 4867 3424 42EB0303 		adc	r3, r2, r3
 4868 3428 259A     		ldr	r2, [sp, #148]
 4869 342a D40C     		lsrs	r4, r2, #19
 4870 342c 139A     		ldr	r2, [sp, #76]
 4871 342e 44EA4234 		orr	r4, r4, r2, lsl #13
 4872 3432 D20C     		lsrs	r2, r2, #19
 4873 3434 42EA4132 		orr	r2, r2, r1, lsl #13
 4874 3438 1399     		ldr	r1, [sp, #76]
 4875 343a C800     		lsls	r0, r1, #3
 4876 343c 2599     		ldr	r1, [sp, #148]
 4877 343e 40EA5170 		orr	r0, r0, r1, lsr #29
 4878 3442 4240     		eors	r2, r2, r0
 4879 3444 C900     		lsls	r1, r1, #3
 4880 3446 2598     		ldr	r0, [sp, #148]
 4881 3448 41EA5671 		orr	r1, r1, r6, lsr #29
 4882 344c 6140     		eors	r1, r1, r4
 4883 344e 8409     		lsrs	r4, r0, #6
 4884 3450 44EA8664 		orr	r4, r4, r6, lsl #26
 4885 3454 6140     		eors	r1, r1, r4
 4886 3456 4919     		adds	r1, r1, r5
 4887 3458 82EA9612 		eor	r2, r2, r6, lsr #6
 4888 345c 43EB0203 		adc	r3, r3, r2
 4889 3460 1791     		str	r1, [sp, #92]
 4890 3462 0393     		str	r3, [sp, #12]
 4891 3464 339B     		ldr	r3, [sp, #204]
 4892 3466 2D9A     		ldr	r2, [sp, #180]
 4893 3468 9B0B     		lsrs	r3, r3, #14
 4894 346a 43EA8243 		orr	r3, r3, r2, lsl #18
 4895 346e 950B     		lsrs	r5, r2, #14
 4896 3470 339A     		ldr	r2, [sp, #204]
 4897 3472 299E     		ldr	r6, [sp, #164]
 4898 3474 45EA8245 		orr	r5, r5, r2, lsl #18
 4899 3478 910C     		lsrs	r1, r2, #18
 4900 347a 2D9A     		ldr	r2, [sp, #180]
 4901 347c 41EA8230 		orr	r0, r1, r2, lsl #14
 4902 3480 940C     		lsrs	r4, r2, #18
 4903 3482 339A     		ldr	r2, [sp, #204]
 4904 3484 83EA0001 		eor	r1, r3, r0
 4905 3488 2D9B     		ldr	r3, [sp, #180]
 4906 348a 44EA8232 		orr	r2, r4, r2, lsl #14
 4907 348e 85EA0204 		eor	r4, r5, r2
 4908 3492 DD05     		lsls	r5, r3, #23
 4909 3494 339B     		ldr	r3, [sp, #204]
ARM GAS  /tmp/ccxnUvyY.s 			page 87


 4910 3496 2D9A     		ldr	r2, [sp, #180]
 4911 3498 45EA5325 		orr	r5, r5, r3, lsr #9
 4912 349c DB05     		lsls	r3, r3, #23
 4913 349e 43EA5223 		orr	r3, r3, r2, lsr #9
 4914 34a2 4B40     		eors	r3, r3, r1
 4915 34a4 189A     		ldr	r2, [sp, #96]
 4916 34a6 D349     		ldr	r1, .L34
 4917 34a8 6540     		eors	r5, r5, r4
 4918 34aa 5118     		adds	r1, r2, r1
 4919 34ac D24C     		ldr	r4, .L34+4
 4920 34ae 069A     		ldr	r2, [sp, #24]
 4921 34b0 44EB0204 		adc	r4, r4, r2
 4922 34b4 2F9A     		ldr	r2, [sp, #188]
 4923 34b6 8918     		adds	r1, r1, r2
 4924 34b8 309A     		ldr	r2, [sp, #192]
 4925 34ba 42EB0404 		adc	r4, r2, r4
 4926 34be 339A     		ldr	r2, [sp, #204]
 4927 34c0 5918     		adds	r1, r3, r1
 4928 34c2 2E9B     		ldr	r3, [sp, #184]
 4929 34c4 45EB0404 		adc	r4, r5, r4
 4930 34c8 23EA0205 		bic	r5, r3, r2
 4931 34cc 319B     		ldr	r3, [sp, #196]
 4932 34ce 2D9A     		ldr	r2, [sp, #180]
 4933 34d0 23EA0202 		bic	r2, r3, r2
 4934 34d4 DDE93230 		ldrd	r3, r0, [sp, #200]
 4935 34d8 0340     		ands	r3, r3, r0
 4936 34da 2D98     		ldr	r0, [sp, #180]
 4937 34dc 6B40     		eors	r3, r3, r5
 4938 34de 0CEA0000 		and	r0, ip, r0
 4939 34e2 C918     		adds	r1, r1, r3
 4940 34e4 82EA0002 		eor	r2, r2, r0
 4941 34e8 44EB0204 		adc	r4, r4, r2
 4942 34ec 299A     		ldr	r2, [sp, #164]
 4943 34ee 4FEA1B73 		lsr	r3, fp, #28
 4944 34f2 43EA0213 		orr	r3, r3, r2, lsl #4
 4945 34f6 150F     		lsrs	r5, r2, #28
 4946 34f8 9207     		lsls	r2, r2, #30
 4947 34fa 42EA9B02 		orr	r2, r2, fp, lsr #2
 4948 34fe 45EA0B15 		orr	r5, r5, fp, lsl #4
 4949 3502 4FEA8B70 		lsl	r0, fp, #30
 4950 3506 40EA9600 		orr	r0, r0, r6, lsr #2
 4951 350a 5540     		eors	r5, r5, r2
 4952 350c 7206     		lsls	r2, r6, #25
 4953 350e 42EADB12 		orr	r2, r2, fp, lsr #7
 4954 3512 4340     		eors	r3, r3, r0
 4955 3514 4FEA4B60 		lsl	r0, fp, #25
 4956 3518 40EAD610 		orr	r0, r0, r6, lsr #7
 4957 351c 5540     		eors	r5, r5, r2
 4958 351e 279A     		ldr	r2, [sp, #156]
 4959 3520 4340     		eors	r3, r3, r0
 4960 3522 2998     		ldr	r0, [sp, #164]
 4961 3524 8AEA0206 		eor	r6, r10, r2
 4962 3528 88EA0902 		eor	r2, r8, r9
 4963 352c 0240     		ands	r2, r2, r0
 4964 352e 2798     		ldr	r0, [sp, #156]
 4965 3530 06EA0B06 		and	r6, r6, fp
 4966 3534 0AEA0000 		and	r0, r10, r0
ARM GAS  /tmp/ccxnUvyY.s 			page 88


 4967 3538 7040     		eors	r0, r0, r6
 4968 353a 1B18     		adds	r3, r3, r0
 4969 353c 2698     		ldr	r0, [sp, #152]
 4970 353e 82EA0702 		eor	r2, r2, r7
 4971 3542 45EB0202 		adc	r2, r5, r2
 4972 3546 4018     		adds	r0, r0, r1
 4973 3548 2F90     		str	r0, [sp, #188]
 4974 354a 2898     		ldr	r0, [sp, #160]
 4975 354c 40EB0407 		adc	r7, r0, r4
 4976 3550 CB18     		adds	r3, r1, r3
 4977 3552 2693     		str	r3, [sp, #152]
 4978 3554 44EB0203 		adc	r3, r4, r2
 4979 3558 2893     		str	r3, [sp, #160]
 4980 355a 2F9B     		ldr	r3, [sp, #188]
 4981 355c 2F98     		ldr	r0, [sp, #188]
 4982 355e 4FEA973E 		lsr	lr, r7, #14
 4983 3562 990B     		lsrs	r1, r3, #14
 4984 3564 4EEA834E 		orr	lr, lr, r3, lsl #18
 4985 3568 9A0C     		lsrs	r2, r3, #18
 4986 356a BB0C     		lsrs	r3, r7, #18
 4987 356c 43EA8033 		orr	r3, r3, r0, lsl #14
 4988 3570 8EEA030E 		eor	lr, lr, r3
 4989 3574 FB05     		lsls	r3, r7, #23
 4990 3576 42EA8732 		orr	r2, r2, r7, lsl #14
 4991 357a 43EA5023 		orr	r3, r3, r0, lsr #9
 4992 357e 41EA8741 		orr	r1, r1, r7, lsl #18
 4993 3582 5140     		eors	r1, r1, r2
 4994 3584 8EEA030E 		eor	lr, lr, r3
 4995 3588 C205     		lsls	r2, r0, #23
 4996 358a 199B     		ldr	r3, [sp, #100]
 4997 358c 9B48     		ldr	r0, .L34+8
 4998 358e 9C4C     		ldr	r4, .L34+12
 4999 3590 1818     		adds	r0, r3, r0
 5000 3592 079B     		ldr	r3, [sp, #28]
 5001 3594 42EA5722 		orr	r2, r2, r7, lsr #9
 5002 3598 44EB0304 		adc	r4, r4, r3
 5003 359c 2E9B     		ldr	r3, [sp, #184]
 5004 359e 5140     		eors	r1, r1, r2
 5005 35a0 C018     		adds	r0, r0, r3
 5006 35a2 319B     		ldr	r3, [sp, #196]
 5007 35a4 2F9A     		ldr	r2, [sp, #188]
 5008 35a6 43EB0404 		adc	r4, r3, r4
 5009 35aa 329B     		ldr	r3, [sp, #200]
 5010 35ac 0918     		adds	r1, r1, r0
 5011 35ae 4EEB040E 		adc	lr, lr, r4
 5012 35b2 2F98     		ldr	r0, [sp, #188]
 5013 35b4 23EA0204 		bic	r4, r3, r2
 5014 35b8 339B     		ldr	r3, [sp, #204]
 5015 35ba 2CEA0702 		bic	r2, ip, r7
 5016 35be 0340     		ands	r3, r3, r0
 5017 35c0 2D98     		ldr	r0, [sp, #180]
 5018 35c2 6340     		eors	r3, r3, r4
 5019 35c4 3840     		ands	r0, r0, r7
 5020 35c6 C918     		adds	r1, r1, r3
 5021 35c8 82EA0002 		eor	r2, r2, r0
 5022 35cc 269B     		ldr	r3, [sp, #152]
 5023 35ce 4EEB020E 		adc	lr, lr, r2
ARM GAS  /tmp/ccxnUvyY.s 			page 89


 5024 35d2 289A     		ldr	r2, [sp, #160]
 5025 35d4 1B0F     		lsrs	r3, r3, #28
 5026 35d6 43EA0213 		orr	r3, r3, r2, lsl #4
 5027 35da 140F     		lsrs	r4, r2, #28
 5028 35dc 269A     		ldr	r2, [sp, #152]
 5029 35de 2698     		ldr	r0, [sp, #152]
 5030 35e0 44EA0214 		orr	r4, r4, r2, lsl #4
 5031 35e4 289A     		ldr	r2, [sp, #160]
 5032 35e6 289E     		ldr	r6, [sp, #160]
 5033 35e8 9207     		lsls	r2, r2, #30
 5034 35ea 42EA9002 		orr	r2, r2, r0, lsr #2
 5035 35ee 8007     		lsls	r0, r0, #30
 5036 35f0 40EA9600 		orr	r0, r0, r6, lsr #2
 5037 35f4 4340     		eors	r3, r3, r0
 5038 35f6 2698     		ldr	r0, [sp, #152]
 5039 35f8 5440     		eors	r4, r4, r2
 5040 35fa 7206     		lsls	r2, r6, #25
 5041 35fc 42EAD012 		orr	r2, r2, r0, lsr #7
 5042 3600 4006     		lsls	r0, r0, #25
 5043 3602 40EAD610 		orr	r0, r0, r6, lsr #7
 5044 3606 5440     		eors	r4, r4, r2
 5045 3608 279A     		ldr	r2, [sp, #156]
 5046 360a 4340     		eors	r3, r3, r0
 5047 360c 2698     		ldr	r0, [sp, #152]
 5048 360e 82EA0B06 		eor	r6, r2, fp
 5049 3612 299A     		ldr	r2, [sp, #164]
 5050 3614 0640     		ands	r6, r6, r0
 5051 3616 2898     		ldr	r0, [sp, #160]
 5052 3618 89EA0202 		eor	r2, r9, r2
 5053 361c 0240     		ands	r2, r2, r0
 5054 361e 2798     		ldr	r0, [sp, #156]
 5055 3620 299D     		ldr	r5, [sp, #164]
 5056 3622 00EA0B00 		and	r0, r0, fp
 5057 3626 09EA0505 		and	r5, r9, r5
 5058 362a 7040     		eors	r0, r0, r6
 5059 362c 1B18     		adds	r3, r3, r0
 5060 362e 82EA0502 		eor	r2, r2, r5
 5061 3632 44EB0204 		adc	r4, r4, r2
 5062 3636 1AEB0102 		adds	r2, r10, r1
 5063 363a 48EB0E08 		adc	r8, r8, lr
 5064 363e CB18     		adds	r3, r1, r3
 5065 3640 2A93     		str	r3, [sp, #168]
 5066 3642 4EEB0403 		adc	r3, lr, r4
 5067 3646 2B93     		str	r3, [sp, #172]
 5068 3648 940B     		lsrs	r4, r2, #14
 5069 364a 4FEA9831 		lsr	r1, r8, #14
 5070 364e 900C     		lsrs	r0, r2, #18
 5071 3650 4FEA9843 		lsr	r3, r8, #18
 5072 3654 40EA8830 		orr	r0, r0, r8, lsl #14
 5073 3658 43EA8233 		orr	r3, r3, r2, lsl #14
 5074 365c 44EA8844 		orr	r4, r4, r8, lsl #18
 5075 3660 41EA8241 		orr	r1, r1, r2, lsl #18
 5076 3664 4440     		eors	r4, r4, r0
 5077 3666 5940     		eors	r1, r1, r3
 5078 3668 D005     		lsls	r0, r2, #23
 5079 366a 4FEAC853 		lsl	r3, r8, #23
 5080 366e 43EA5223 		orr	r3, r3, r2, lsr #9
ARM GAS  /tmp/ccxnUvyY.s 			page 90


 5081 3672 40EA5820 		orr	r0, r0, r8, lsr #9
 5082 3676 4440     		eors	r4, r4, r0
 5083 3678 5940     		eors	r1, r1, r3
 5084 367a 6248     		ldr	r0, .L34+16
 5085 367c 1A9B     		ldr	r3, [sp, #104]
 5086 367e 089D     		ldr	r5, [sp, #32]
 5087 3680 1818     		adds	r0, r3, r0
 5088 3682 614B     		ldr	r3, .L34+20
 5089 3684 07EA0806 		and	r6, r7, r8
 5090 3688 43EB0503 		adc	r3, r3, r5
 5091 368c 329D     		ldr	r5, [sp, #200]
 5092 368e 4019     		adds	r0, r0, r5
 5093 3690 4CEB0303 		adc	r3, ip, r3
 5094 3694 2418     		adds	r4, r4, r0
 5095 3696 41EB0301 		adc	r1, r1, r3
 5096 369a 339B     		ldr	r3, [sp, #204]
 5097 369c 2A9D     		ldr	r5, [sp, #168]
 5098 369e 23EA020C 		bic	ip, r3, r2
 5099 36a2 2D9B     		ldr	r3, [sp, #180]
 5100 36a4 23EA0800 		bic	r0, r3, r8
 5101 36a8 2F9B     		ldr	r3, [sp, #188]
 5102 36aa 7040     		eors	r0, r0, r6
 5103 36ac 1340     		ands	r3, r3, r2
 5104 36ae 8CEA0303 		eor	r3, ip, r3
 5105 36b2 E418     		adds	r4, r4, r3
 5106 36b4 2A9B     		ldr	r3, [sp, #168]
 5107 36b6 41EB0001 		adc	r1, r1, r0
 5108 36ba 2B98     		ldr	r0, [sp, #172]
 5109 36bc 1B0F     		lsrs	r3, r3, #28
 5110 36be 43EA0013 		orr	r3, r3, r0, lsl #4
 5111 36c2 000F     		lsrs	r0, r0, #28
 5112 36c4 40EA0510 		orr	r0, r0, r5, lsl #4
 5113 36c8 2B9D     		ldr	r5, [sp, #172]
 5114 36ca AE07     		lsls	r6, r5, #30
 5115 36cc 2A9D     		ldr	r5, [sp, #168]
 5116 36ce 46EA9506 		orr	r6, r6, r5, lsr #2
 5117 36d2 4FEA857C 		lsl	ip, r5, #30
 5118 36d6 2B9D     		ldr	r5, [sp, #172]
 5119 36d8 7040     		eors	r0, r0, r6
 5120 36da 4CEA950C 		orr	ip, ip, r5, lsr #2
 5121 36de 6E06     		lsls	r6, r5, #25
 5122 36e0 2A9D     		ldr	r5, [sp, #168]
 5123 36e2 83EA0C03 		eor	r3, r3, ip
 5124 36e6 46EAD516 		orr	r6, r6, r5, lsr #7
 5125 36ea 4FEA456C 		lsl	ip, r5, #25
 5126 36ee 2B9D     		ldr	r5, [sp, #172]
 5127 36f0 7040     		eors	r0, r0, r6
 5128 36f2 4CEAD51C 		orr	ip, ip, r5, lsr #7
 5129 36f6 269D     		ldr	r5, [sp, #152]
 5130 36f8 83EA0C03 		eor	r3, r3, ip
 5131 36fc 8BEA050E 		eor	lr, fp, r5
 5132 3700 DDE92865 		ldrd	r6, r5, [sp, #160]
 5133 3704 6E40     		eors	r6, r6, r5
 5134 3706 2A9D     		ldr	r5, [sp, #168]
 5135 3708 2C93     		str	r3, [sp, #176]
 5136 370a 0EEA050E 		and	lr, lr, r5
 5137 370e 2B9D     		ldr	r5, [sp, #172]
ARM GAS  /tmp/ccxnUvyY.s 			page 91


 5138 3710 2E40     		ands	r6, r6, r5
 5139 3712 269D     		ldr	r5, [sp, #152]
 5140 3714 0BEA050C 		and	ip, fp, r5
 5141 3718 DDE92835 		ldrd	r3, r5, [sp, #160]
 5142 371c 05EA030A 		and	r10, r5, r3
 5143 3720 2C9B     		ldr	r3, [sp, #176]
 5144 3722 8EEA0C0C 		eor	ip, lr, ip
 5145 3726 13EB0C0C 		adds	ip, r3, ip
 5146 372a 279B     		ldr	r3, [sp, #156]
 5147 372c 86EA0A06 		eor	r6, r6, r10
 5148 3730 40EB0606 		adc	r6, r0, r6
 5149 3734 1B19     		adds	r3, r3, r4
 5150 3736 49EB0109 		adc	r9, r9, r1
 5151 373a 14EB0C00 		adds	r0, r4, ip
 5152 373e 41EB0601 		adc	r1, r1, r6
 5153 3742 2790     		str	r0, [sp, #156]
 5154 3744 2C91     		str	r1, [sp, #176]
 5155 3746 4FEA9940 		lsr	r0, r9, #18
 5156 374a 4FEA9931 		lsr	r1, r9, #14
 5157 374e 40EA8330 		orr	r0, r0, r3, lsl #14
 5158 3752 41EA8341 		orr	r1, r1, r3, lsl #18
 5159 3756 4140     		eors	r1, r1, r0
 5160 3758 4FEAC950 		lsl	r0, r9, #23
 5161 375c 40EA5320 		orr	r0, r0, r3, lsr #9
 5162 3760 1B9D     		ldr	r5, [sp, #108]
 5163 3762 4140     		eors	r1, r1, r0
 5164 3764 2948     		ldr	r0, .L34+24
 5165 3766 9C0B     		lsrs	r4, r3, #14
 5166 3768 15EB000C 		adds	ip, r5, r0
 5167 376c 099D     		ldr	r5, [sp, #36]
 5168 376e 2848     		ldr	r0, .L34+28
 5169 3770 4FEA9346 		lsr	r6, r3, #18
 5170 3774 46EA8936 		orr	r6, r6, r9, lsl #14
 5171 3778 40EB0500 		adc	r0, r0, r5
 5172 377c 44EA8944 		orr	r4, r4, r9, lsl #18
 5173 3780 339D     		ldr	r5, [sp, #204]
 5174 3782 7440     		eors	r4, r4, r6
 5175 3784 DE05     		lsls	r6, r3, #23
 5176 3786 1CEB050C 		adds	ip, ip, r5
 5177 378a 46EA5926 		orr	r6, r6, r9, lsr #9
 5178 378e 2D9D     		ldr	r5, [sp, #180]
 5179 3790 84EA0604 		eor	r4, r4, r6
 5180 3794 45EB0000 		adc	r0, r5, r0
 5181 3798 14EB0C04 		adds	r4, r4, ip
 5182 379c 41EB0001 		adc	r1, r1, r0
 5183 37a0 2F98     		ldr	r0, [sp, #188]
 5184 37a2 2C9D     		ldr	r5, [sp, #176]
 5185 37a4 20EA030E 		bic	lr, r0, r3
 5186 37a8 02EA0300 		and	r0, r2, r3
 5187 37ac 8EEA0000 		eor	r0, lr, r0
 5188 37b0 2418     		adds	r4, r4, r0
 5189 37b2 2798     		ldr	r0, [sp, #156]
 5190 37b4 08EA090C 		and	ip, r8, r9
 5191 37b8 27EA0906 		bic	r6, r7, r9
 5192 37bc 86EA0C06 		eor	r6, r6, ip
 5193 37c0 4FEA1070 		lsr	r0, r0, #28
 5194 37c4 41EB0601 		adc	r1, r1, r6
ARM GAS  /tmp/ccxnUvyY.s 			page 92


 5195 37c8 40EA0510 		orr	r0, r0, r5, lsl #4
 5196 37cc 2E0F     		lsrs	r6, r5, #28
 5197 37ce 279D     		ldr	r5, [sp, #156]
 5198 37d0 46EA0516 		orr	r6, r6, r5, lsl #4
 5199 37d4 2C9D     		ldr	r5, [sp, #176]
 5200 37d6 4FEA857C 		lsl	ip, r5, #30
 5201 37da 279D     		ldr	r5, [sp, #156]
 5202 37dc 4CEA950C 		orr	ip, ip, r5, lsr #2
 5203 37e0 4FEA857E 		lsl	lr, r5, #30
 5204 37e4 2C9D     		ldr	r5, [sp, #176]
 5205 37e6 86EA0C06 		eor	r6, r6, ip
 5206 37ea 4EEA950E 		orr	lr, lr, r5, lsr #2
 5207 37ee 4FEA456C 		lsl	ip, r5, #25
 5208 37f2 0FE0     		b	.L35
 5209              	.L36:
 5210              		.align	2
 5211              	.L34:
 5212 37f4 FC2FD246 		.word	1188179964
 5213 37f8 850AB727 		.word	666307205
 5214 37fc 26C9265C 		.word	1546045734
 5215 3800 38211B2E 		.word	773529912
 5216 3804 ED2AC45A 		.word	1522805485
 5217 3808 FC6D2C4D 		.word	1294757372
 5218 380c DFB3959D 		.word	-1651133473
 5219 3810 130D3853 		.word	1396182291
 5220              	.L35:
 5221 3814 279D     		ldr	r5, [sp, #156]
 5222 3816 80EA0E00 		eor	r0, r0, lr
 5223 381a 4CEAD51C 		orr	ip, ip, r5, lsr #7
 5224 381e 4FEA456E 		lsl	lr, r5, #25
 5225 3822 2C9D     		ldr	r5, [sp, #176]
 5226 3824 86EA0C06 		eor	r6, r6, ip
 5227 3828 4EEAD51E 		orr	lr, lr, r5, lsr #7
 5228 382c 80EA0E00 		eor	r0, r0, lr
 5229 3830 2D90     		str	r0, [sp, #180]
 5230 3832 269D     		ldr	r5, [sp, #152]
 5231 3834 2A98     		ldr	r0, [sp, #168]
 5232 3836 85EA000A 		eor	r10, r5, r0
 5233 383a 2898     		ldr	r0, [sp, #160]
 5234 383c 2B9D     		ldr	r5, [sp, #172]
 5235 383e 80EA050C 		eor	ip, r0, r5
 5236 3842 2798     		ldr	r0, [sp, #156]
 5237 3844 2A9D     		ldr	r5, [sp, #168]
 5238 3846 0AEA000A 		and	r10, r10, r0
 5239 384a 2C98     		ldr	r0, [sp, #176]
 5240 384c 0CEA000C 		and	ip, ip, r0
 5241 3850 2698     		ldr	r0, [sp, #152]
 5242 3852 00EA050E 		and	lr, r0, r5
 5243 3856 2B9D     		ldr	r5, [sp, #172]
 5244 3858 2898     		ldr	r0, [sp, #160]
 5245 385a 8AEA0E0E 		eor	lr, r10, lr
 5246 385e 2840     		ands	r0, r0, r5
 5247 3860 8CEA000C 		eor	ip, ip, r0
 5248 3864 2D98     		ldr	r0, [sp, #180]
 5249 3866 299D     		ldr	r5, [sp, #164]
 5250 3868 10EB0E00 		adds	r0, r0, lr
 5251 386c 46EB0C0C 		adc	ip, r6, ip
ARM GAS  /tmp/ccxnUvyY.s 			page 93


 5252 3870 1BEB040B 		adds	fp, fp, r4
 5253 3874 45EB010E 		adc	lr, r5, r1
 5254 3878 2018     		adds	r0, r4, r0
 5255 387a 41EB0C01 		adc	r1, r1, ip
 5256 387e 2D91     		str	r1, [sp, #180]
 5257 3880 4FEA9E3C 		lsr	ip, lr, #14
 5258 3884 4FEA9E41 		lsr	r1, lr, #18
 5259 3888 41EA8B31 		orr	r1, r1, fp, lsl #14
 5260 388c 4CEA8B4C 		orr	ip, ip, fp, lsl #18
 5261 3890 2990     		str	r0, [sp, #164]
 5262 3892 4FEA9B34 		lsr	r4, fp, #14
 5263 3896 4FEA9B40 		lsr	r0, fp, #18
 5264 389a 8CEA010C 		eor	ip, ip, r1
 5265 389e 4FEACE51 		lsl	r1, lr, #23
 5266 38a2 44EA8E44 		orr	r4, r4, lr, lsl #18
 5267 38a6 40EA8E36 		orr	r6, r0, lr, lsl #14
 5268 38aa 41EA5B21 		orr	r1, r1, fp, lsr #9
 5269 38ae 84EA0600 		eor	r0, r4, r6
 5270 38b2 8CEA010C 		eor	ip, ip, r1
 5271 38b6 4FEACB54 		lsl	r4, fp, #23
 5272 38ba 1C99     		ldr	r1, [sp, #112]
 5273 38bc D24E     		ldr	r6, .L37
 5274 38be 44EA5E24 		orr	r4, r4, lr, lsr #9
 5275 38c2 8E19     		adds	r6, r1, r6
 5276 38c4 84EA0004 		eor	r4, r4, r0
 5277 38c8 D049     		ldr	r1, .L37+4
 5278 38ca 0A98     		ldr	r0, [sp, #40]
 5279 38cc 09EA0E05 		and	r5, r9, lr
 5280 38d0 41EB000A 		adc	r10, r1, r0
 5281 38d4 2F99     		ldr	r1, [sp, #188]
 5282 38d6 7018     		adds	r0, r6, r1
 5283 38d8 22EA0B06 		bic	r6, r2, fp
 5284 38dc 03EA0B01 		and	r1, r3, fp
 5285 38e0 47EB0A07 		adc	r7, r7, r10
 5286 38e4 7140     		eors	r1, r1, r6
 5287 38e6 2018     		adds	r0, r4, r0
 5288 38e8 4CEB0707 		adc	r7, ip, r7
 5289 38ec 4118     		adds	r1, r0, r1
 5290 38ee 2E91     		str	r1, [sp, #184]
 5291 38f0 2999     		ldr	r1, [sp, #164]
 5292 38f2 28EA0E04 		bic	r4, r8, lr
 5293 38f6 84EA0504 		eor	r4, r4, r5
 5294 38fa 4FEA1175 		lsr	r5, r1, #28
 5295 38fe 2D99     		ldr	r1, [sp, #180]
 5296 3900 47EB0407 		adc	r7, r7, r4
 5297 3904 299C     		ldr	r4, [sp, #164]
 5298 3906 45EA0115 		orr	r5, r5, r1, lsl #4
 5299 390a 090F     		lsrs	r1, r1, #28
 5300 390c 41EA0411 		orr	r1, r1, r4, lsl #4
 5301 3910 2D9C     		ldr	r4, [sp, #180]
 5302 3912 299E     		ldr	r6, [sp, #164]
 5303 3914 2D98     		ldr	r0, [sp, #180]
 5304 3916 A407     		lsls	r4, r4, #30
 5305 3918 44EA9604 		orr	r4, r4, r6, lsr #2
 5306 391c B607     		lsls	r6, r6, #30
 5307 391e 46EA9006 		orr	r6, r6, r0, lsr #2
 5308 3922 6140     		eors	r1, r1, r4
ARM GAS  /tmp/ccxnUvyY.s 			page 94


 5309 3924 4406     		lsls	r4, r0, #25
 5310 3926 2998     		ldr	r0, [sp, #164]
 5311 3928 7540     		eors	r5, r5, r6
 5312 392a 44EAD014 		orr	r4, r4, r0, lsr #7
 5313 392e 4606     		lsls	r6, r0, #25
 5314 3930 2D98     		ldr	r0, [sp, #180]
 5315 3932 6140     		eors	r1, r1, r4
 5316 3934 46EAD016 		orr	r6, r6, r0, lsr #7
 5317 3938 279C     		ldr	r4, [sp, #156]
 5318 393a 2A98     		ldr	r0, [sp, #168]
 5319 393c 7540     		eors	r5, r5, r6
 5320 393e 4440     		eors	r4, r4, r0
 5321 3940 DDE92B06 		ldrd	r0, r6, [sp, #172]
 5322 3944 80EA060C 		eor	ip, r0, r6
 5323 3948 2998     		ldr	r0, [sp, #164]
 5324 394a 0440     		ands	r4, r4, r0
 5325 394c 2D98     		ldr	r0, [sp, #180]
 5326 394e 0CEA000C 		and	ip, ip, r0
 5327 3952 2A98     		ldr	r0, [sp, #168]
 5328 3954 279E     		ldr	r6, [sp, #156]
 5329 3956 00EA060A 		and	r10, r0, r6
 5330 395a 84EA0A04 		eor	r4, r4, r10
 5331 395e DDE92B06 		ldrd	r0, r6, [sp, #172]
 5332 3962 0640     		ands	r6, r6, r0
 5333 3964 2C19     		adds	r4, r5, r4
 5334 3966 8CEA0606 		eor	r6, ip, r6
 5335 396a 2E98     		ldr	r0, [sp, #184]
 5336 396c 41EB0606 		adc	r6, r1, r6
 5337 3970 2699     		ldr	r1, [sp, #152]
 5338 3972 11EB000A 		adds	r10, r1, r0
 5339 3976 2899     		ldr	r1, [sp, #160]
 5340 3978 4FEA9A45 		lsr	r5, r10, #18
 5341 397c 41EB070C 		adc	ip, r1, r7
 5342 3980 0119     		adds	r1, r0, r4
 5343 3982 2691     		str	r1, [sp, #152]
 5344 3984 47EB0601 		adc	r1, r7, r6
 5345 3988 2891     		str	r1, [sp, #160]
 5346 398a 4FEA9A30 		lsr	r0, r10, #14
 5347 398e 4FEA9C34 		lsr	r4, ip, #14
 5348 3992 4FEA9C41 		lsr	r1, ip, #18
 5349 3996 45EA8C35 		orr	r5, r5, ip, lsl #14
 5350 399a 41EA8A31 		orr	r1, r1, r10, lsl #14
 5351 399e 40EA8C40 		orr	r0, r0, ip, lsl #18
 5352 39a2 44EA8A44 		orr	r4, r4, r10, lsl #18
 5353 39a6 6840     		eors	r0, r0, r5
 5354 39a8 4C40     		eors	r4, r4, r1
 5355 39aa 4FEACA55 		lsl	r5, r10, #23
 5356 39ae 4FEACC51 		lsl	r1, ip, #23
 5357 39b2 41EA5A21 		orr	r1, r1, r10, lsr #9
 5358 39b6 45EA5C25 		orr	r5, r5, ip, lsr #9
 5359 39ba 6840     		eors	r0, r0, r5
 5360 39bc 4C40     		eors	r4, r4, r1
 5361 39be 944D     		ldr	r5, .L37+8
 5362 39c0 1D99     		ldr	r1, [sp, #116]
 5363 39c2 0B9E     		ldr	r6, [sp, #44]
 5364 39c4 4D19     		adds	r5, r1, r5
 5365 39c6 9349     		ldr	r1, .L37+12
ARM GAS  /tmp/ccxnUvyY.s 			page 95


 5366 39c8 299F     		ldr	r7, [sp, #164]
 5367 39ca 41EB0601 		adc	r1, r1, r6
 5368 39ce AA18     		adds	r2, r5, r2
 5369 39d0 48EB0108 		adc	r8, r8, r1
 5370 39d4 23EA0A05 		bic	r5, r3, r10
 5371 39d8 0BEA0A01 		and	r1, fp, r10
 5372 39dc 8218     		adds	r2, r0, r2
 5373 39de 81EA0501 		eor	r1, r1, r5
 5374 39e2 44EB0808 		adc	r8, r4, r8
 5375 39e6 5218     		adds	r2, r2, r1
 5376 39e8 2699     		ldr	r1, [sp, #152]
 5377 39ea 0EEA0C04 		and	r4, lr, ip
 5378 39ee 29EA0C00 		bic	r0, r9, ip
 5379 39f2 80EA0400 		eor	r0, r0, r4
 5380 39f6 4FEA1174 		lsr	r4, r1, #28
 5381 39fa 2899     		ldr	r1, [sp, #160]
 5382 39fc 48EB0008 		adc	r8, r8, r0
 5383 3a00 2698     		ldr	r0, [sp, #152]
 5384 3a02 44EA0114 		orr	r4, r4, r1, lsl #4
 5385 3a06 090F     		lsrs	r1, r1, #28
 5386 3a08 41EA0011 		orr	r1, r1, r0, lsl #4
 5387 3a0c 2898     		ldr	r0, [sp, #160]
 5388 3a0e 269D     		ldr	r5, [sp, #152]
 5389 3a10 289E     		ldr	r6, [sp, #160]
 5390 3a12 8007     		lsls	r0, r0, #30
 5391 3a14 40EA9500 		orr	r0, r0, r5, lsr #2
 5392 3a18 AD07     		lsls	r5, r5, #30
 5393 3a1a 45EA9605 		orr	r5, r5, r6, lsr #2
 5394 3a1e 6C40     		eors	r4, r4, r5
 5395 3a20 269D     		ldr	r5, [sp, #152]
 5396 3a22 4140     		eors	r1, r1, r0
 5397 3a24 7006     		lsls	r0, r6, #25
 5398 3a26 40EAD510 		orr	r0, r0, r5, lsr #7
 5399 3a2a 6D06     		lsls	r5, r5, #25
 5400 3a2c 45EAD615 		orr	r5, r5, r6, lsr #7
 5401 3a30 6C40     		eors	r4, r4, r5
 5402 3a32 4140     		eors	r1, r1, r0
 5403 3a34 299D     		ldr	r5, [sp, #164]
 5404 3a36 2798     		ldr	r0, [sp, #156]
 5405 3a38 2E91     		str	r1, [sp, #184]
 5406 3a3a 6840     		eors	r0, r0, r5
 5407 3a3c DDE92C56 		ldrd	r5, r6, [sp, #176]
 5408 3a40 6E40     		eors	r6, r6, r5
 5409 3a42 269D     		ldr	r5, [sp, #152]
 5410 3a44 2840     		ands	r0, r0, r5
 5411 3a46 289D     		ldr	r5, [sp, #160]
 5412 3a48 2E40     		ands	r6, r6, r5
 5413 3a4a 279D     		ldr	r5, [sp, #156]
 5414 3a4c 2F40     		ands	r7, r7, r5
 5415 3a4e 7840     		eors	r0, r0, r7
 5416 3a50 DDE92C51 		ldrd	r5, r1, [sp, #176]
 5417 3a54 0D40     		ands	r5, r5, r1
 5418 3a56 2E99     		ldr	r1, [sp, #184]
 5419 3a58 2018     		adds	r0, r4, r0
 5420 3a5a 85EA0605 		eor	r5, r5, r6
 5421 3a5e 41EB0506 		adc	r6, r1, r5
 5422 3a62 2A99     		ldr	r1, [sp, #168]
ARM GAS  /tmp/ccxnUvyY.s 			page 96


 5423 3a64 8F18     		adds	r7, r1, r2
 5424 3a66 2B99     		ldr	r1, [sp, #172]
 5425 3a68 4FEA9744 		lsr	r4, r7, #18
 5426 3a6c 41EB0801 		adc	r1, r1, r8
 5427 3a70 1218     		adds	r2, r2, r0
 5428 3a72 2E91     		str	r1, [sp, #184]
 5429 3a74 2A92     		str	r2, [sp, #168]
 5430 3a76 48EB0602 		adc	r2, r8, r6
 5431 3a7a 2B92     		str	r2, [sp, #172]
 5432 3a7c 2E9A     		ldr	r2, [sp, #184]
 5433 3a7e B90B     		lsrs	r1, r7, #14
 5434 3a80 44EA8234 		orr	r4, r4, r2, lsl #14
 5435 3a84 41EA8241 		orr	r1, r1, r2, lsl #18
 5436 3a88 900B     		lsrs	r0, r2, #14
 5437 3a8a 920C     		lsrs	r2, r2, #18
 5438 3a8c 42EA8732 		orr	r2, r2, r7, lsl #14
 5439 3a90 40EA8740 		orr	r0, r0, r7, lsl #18
 5440 3a94 5040     		eors	r0, r0, r2
 5441 3a96 2E9A     		ldr	r2, [sp, #184]
 5442 3a98 2E9D     		ldr	r5, [sp, #184]
 5443 3a9a 6140     		eors	r1, r1, r4
 5444 3a9c D205     		lsls	r2, r2, #23
 5445 3a9e FC05     		lsls	r4, r7, #23
 5446 3aa0 42EA5722 		orr	r2, r2, r7, lsr #9
 5447 3aa4 44EA5524 		orr	r4, r4, r5, lsr #9
 5448 3aa8 6140     		eors	r1, r1, r4
 5449 3aaa 5040     		eors	r0, r0, r2
 5450 3aac 1E9C     		ldr	r4, [sp, #120]
 5451 3aae 5A4A     		ldr	r2, .L37+16
 5452 3ab0 0C9E     		ldr	r6, [sp, #48]
 5453 3ab2 A218     		adds	r2, r4, r2
 5454 3ab4 594C     		ldr	r4, .L37+20
 5455 3ab6 44EB0604 		adc	r4, r4, r6
 5456 3aba D318     		adds	r3, r2, r3
 5457 3abc 49EB0409 		adc	r9, r9, r4
 5458 3ac0 0AEA0702 		and	r2, r10, r7
 5459 3ac4 2BEA0704 		bic	r4, fp, r7
 5460 3ac8 CB18     		adds	r3, r1, r3
 5461 3aca 82EA0402 		eor	r2, r2, r4
 5462 3ace 40EB0909 		adc	r9, r0, r9
 5463 3ad2 9B18     		adds	r3, r3, r2
 5464 3ad4 2A9A     		ldr	r2, [sp, #168]
 5465 3ad6 0CEA0500 		and	r0, ip, r5
 5466 3ada 2EEA0501 		bic	r1, lr, r5
 5467 3ade 81EA0001 		eor	r1, r1, r0
 5468 3ae2 4FEA1270 		lsr	r0, r2, #28
 5469 3ae6 2B9A     		ldr	r2, [sp, #172]
 5470 3ae8 49EB0109 		adc	r9, r9, r1
 5471 3aec 2A99     		ldr	r1, [sp, #168]
 5472 3aee 40EA0210 		orr	r0, r0, r2, lsl #4
 5473 3af2 120F     		lsrs	r2, r2, #28
 5474 3af4 42EA0112 		orr	r2, r2, r1, lsl #4
 5475 3af8 2B99     		ldr	r1, [sp, #172]
 5476 3afa 2A9C     		ldr	r4, [sp, #168]
 5477 3afc 2B9E     		ldr	r6, [sp, #172]
 5478 3afe 8907     		lsls	r1, r1, #30
 5479 3b00 41EA9401 		orr	r1, r1, r4, lsr #2
ARM GAS  /tmp/ccxnUvyY.s 			page 97


 5480 3b04 A407     		lsls	r4, r4, #30
 5481 3b06 44EA9604 		orr	r4, r4, r6, lsr #2
 5482 3b0a 6040     		eors	r0, r0, r4
 5483 3b0c 2A9C     		ldr	r4, [sp, #168]
 5484 3b0e 4A40     		eors	r2, r2, r1
 5485 3b10 7106     		lsls	r1, r6, #25
 5486 3b12 41EAD411 		orr	r1, r1, r4, lsr #7
 5487 3b16 6406     		lsls	r4, r4, #25
 5488 3b18 44EAD614 		orr	r4, r4, r6, lsr #7
 5489 3b1c 6040     		eors	r0, r0, r4
 5490 3b1e 4A40     		eors	r2, r2, r1
 5491 3b20 269C     		ldr	r4, [sp, #152]
 5492 3b22 2999     		ldr	r1, [sp, #164]
 5493 3b24 289E     		ldr	r6, [sp, #160]
 5494 3b26 6140     		eors	r1, r1, r4
 5495 3b28 2D9C     		ldr	r4, [sp, #180]
 5496 3b2a 269D     		ldr	r5, [sp, #152]
 5497 3b2c 6640     		eors	r6, r6, r4
 5498 3b2e 2A9C     		ldr	r4, [sp, #168]
 5499 3b30 2140     		ands	r1, r1, r4
 5500 3b32 2B9C     		ldr	r4, [sp, #172]
 5501 3b34 2640     		ands	r6, r6, r4
 5502 3b36 299C     		ldr	r4, [sp, #164]
 5503 3b38 04EA0508 		and	r8, r4, r5
 5504 3b3c 289D     		ldr	r5, [sp, #160]
 5505 3b3e 2D9C     		ldr	r4, [sp, #180]
 5506 3b40 81EA0801 		eor	r1, r1, r8
 5507 3b44 4118     		adds	r1, r0, r1
 5508 3b46 04EA0504 		and	r4, r4, r5
 5509 3b4a 2798     		ldr	r0, [sp, #156]
 5510 3b4c 84EA0604 		eor	r4, r4, r6
 5511 3b50 42EB0402 		adc	r2, r2, r4
 5512 3b54 C418     		adds	r4, r0, r3
 5513 3b56 2C98     		ldr	r0, [sp, #176]
 5514 3b58 0D9D     		ldr	r5, [sp, #52]
 5515 3b5a 40EB0906 		adc	r6, r0, r9
 5516 3b5e 5B18     		adds	r3, r3, r1
 5517 3b60 2793     		str	r3, [sp, #156]
 5518 3b62 49EB0203 		adc	r3, r9, r2
 5519 3b66 2C93     		str	r3, [sp, #176]
 5520 3b68 A20B     		lsrs	r2, r4, #14
 5521 3b6a B10B     		lsrs	r1, r6, #14
 5522 3b6c A00C     		lsrs	r0, r4, #18
 5523 3b6e B30C     		lsrs	r3, r6, #18
 5524 3b70 40EA8630 		orr	r0, r0, r6, lsl #14
 5525 3b74 43EA8433 		orr	r3, r3, r4, lsl #14
 5526 3b78 42EA8642 		orr	r2, r2, r6, lsl #18
 5527 3b7c 41EA8441 		orr	r1, r1, r4, lsl #18
 5528 3b80 4240     		eors	r2, r2, r0
 5529 3b82 5940     		eors	r1, r1, r3
 5530 3b84 E005     		lsls	r0, r4, #23
 5531 3b86 F305     		lsls	r3, r6, #23
 5532 3b88 43EA5423 		orr	r3, r3, r4, lsr #9
 5533 3b8c 40EA5620 		orr	r0, r0, r6, lsr #9
 5534 3b90 4240     		eors	r2, r2, r0
 5535 3b92 5940     		eors	r1, r1, r3
 5536 3b94 1F98     		ldr	r0, [sp, #124]
ARM GAS  /tmp/ccxnUvyY.s 			page 98


 5537 3b96 224B     		ldr	r3, .L37+24
 5538 3b98 C318     		adds	r3, r0, r3
 5539 3b9a 2248     		ldr	r0, .L37+28
 5540 3b9c 40EB0500 		adc	r0, r0, r5
 5541 3ba0 13EB0B0B 		adds	fp, r3, fp
 5542 3ba4 4EEB000E 		adc	lr, lr, r0
 5543 3ba8 07EA0403 		and	r3, r7, r4
 5544 3bac 2AEA0400 		bic	r0, r10, r4
 5545 3bb0 12EB0B0B 		adds	fp, r2, fp
 5546 3bb4 41EB0E0E 		adc	lr, r1, lr
 5547 3bb8 4340     		eors	r3, r3, r0
 5548 3bba 2E99     		ldr	r1, [sp, #184]
 5549 3bbc 1BEB030B 		adds	fp, fp, r3
 5550 3bc0 279B     		ldr	r3, [sp, #156]
 5551 3bc2 2CEA0602 		bic	r2, ip, r6
 5552 3bc6 01EA0601 		and	r1, r1, r6
 5553 3bca 82EA0102 		eor	r2, r2, r1
 5554 3bce 4FEA1371 		lsr	r1, r3, #28
 5555 3bd2 2C9B     		ldr	r3, [sp, #176]
 5556 3bd4 4EEB020E 		adc	lr, lr, r2
 5557 3bd8 279A     		ldr	r2, [sp, #156]
 5558 3bda 41EA0311 		orr	r1, r1, r3, lsl #4
 5559 3bde 1B0F     		lsrs	r3, r3, #28
 5560 3be0 43EA0213 		orr	r3, r3, r2, lsl #4
 5561 3be4 2C9A     		ldr	r2, [sp, #176]
 5562 3be6 2798     		ldr	r0, [sp, #156]
 5563 3be8 2C9D     		ldr	r5, [sp, #176]
 5564 3bea 9207     		lsls	r2, r2, #30
 5565 3bec 42EA9002 		orr	r2, r2, r0, lsr #2
 5566 3bf0 8007     		lsls	r0, r0, #30
 5567 3bf2 40EA9500 		orr	r0, r0, r5, lsr #2
 5568 3bf6 4140     		eors	r1, r1, r0
 5569 3bf8 2798     		ldr	r0, [sp, #156]
 5570 3bfa 5340     		eors	r3, r3, r2
 5571 3bfc 6A06     		lsls	r2, r5, #25
 5572 3bfe 42EAD012 		orr	r2, r2, r0, lsr #7
 5573 3c02 4006     		lsls	r0, r0, #25
 5574 3c04 10E0     		b	.L38
 5575              	.L39:
 5576 3c06 00BF     		.align	2
 5577              	.L37:
 5578 3c08 DE63AF8B 		.word	-1951439906
 5579 3c0c 54730A65 		.word	1695183700
 5580 3c10 A8B2773C 		.word	1014477480
 5581 3c14 BB0A6A76 		.word	1986661051
 5582 3c18 E6AEED47 		.word	1206759142
 5583 3c1c 2EC9C281 		.word	-2117940946
 5584 3c20 3B358214 		.word	344077627
 5585 3c24 852C7292 		.word	-1838011259
 5586              	.L38:
 5587 3c28 40EAD510 		orr	r0, r0, r5, lsr #7
 5588 3c2c 4140     		eors	r1, r1, r0
 5589 3c2e 5340     		eors	r3, r3, r2
 5590 3c30 2A98     		ldr	r0, [sp, #168]
 5591 3c32 269A     		ldr	r2, [sp, #152]
 5592 3c34 2B9D     		ldr	r5, [sp, #172]
 5593 3c36 4240     		eors	r2, r2, r0
ARM GAS  /tmp/ccxnUvyY.s 			page 99


 5594 3c38 2898     		ldr	r0, [sp, #160]
 5595 3c3a 80EA0508 		eor	r8, r0, r5
 5596 3c3e 2798     		ldr	r0, [sp, #156]
 5597 3c40 2A9D     		ldr	r5, [sp, #168]
 5598 3c42 0240     		ands	r2, r2, r0
 5599 3c44 2C98     		ldr	r0, [sp, #176]
 5600 3c46 08EA0008 		and	r8, r8, r0
 5601 3c4a 2698     		ldr	r0, [sp, #152]
 5602 3c4c 00EA0509 		and	r9, r0, r5
 5603 3c50 2B9D     		ldr	r5, [sp, #172]
 5604 3c52 2898     		ldr	r0, [sp, #160]
 5605 3c54 82EA0902 		eor	r2, r2, r9
 5606 3c58 2840     		ands	r0, r0, r5
 5607 3c5a 8A18     		adds	r2, r1, r2
 5608 3c5c 88EA0000 		eor	r0, r8, r0
 5609 3c60 43EB0008 		adc	r8, r3, r0
 5610 3c64 299B     		ldr	r3, [sp, #164]
 5611 3c66 209D     		ldr	r5, [sp, #128]
 5612 3c68 13EB0B00 		adds	r0, r3, fp
 5613 3c6c 2D9B     		ldr	r3, [sp, #180]
 5614 3c6e 43EB0E03 		adc	r3, r3, lr
 5615 3c72 2F93     		str	r3, [sp, #188]
 5616 3c74 1BEB0203 		adds	r3, fp, r2
 5617 3c78 2993     		str	r3, [sp, #164]
 5618 3c7a 4EEB0803 		adc	r3, lr, r8
 5619 3c7e 2D93     		str	r3, [sp, #180]
 5620 3c80 2F9B     		ldr	r3, [sp, #188]
 5621 3c82 820B     		lsrs	r2, r0, #14
 5622 3c84 4FEA9048 		lsr	r8, r0, #18
 5623 3c88 48EA8338 		orr	r8, r8, r3, lsl #14
 5624 3c8c 42EA8342 		orr	r2, r2, r3, lsl #18
 5625 3c90 4FEA933E 		lsr	lr, r3, #14
 5626 3c94 9B0C     		lsrs	r3, r3, #18
 5627 3c96 43EA8033 		orr	r3, r3, r0, lsl #14
 5628 3c9a 4EEA804E 		orr	lr, lr, r0, lsl #18
 5629 3c9e 8EEA030E 		eor	lr, lr, r3
 5630 3ca2 2F9B     		ldr	r3, [sp, #188]
 5631 3ca4 2F99     		ldr	r1, [sp, #188]
 5632 3ca6 DB05     		lsls	r3, r3, #23
 5633 3ca8 43EA5023 		orr	r3, r3, r0, lsr #9
 5634 3cac 8EEA030E 		eor	lr, lr, r3
 5635 3cb0 82EA0802 		eor	r2, r2, r8
 5636 3cb4 D74B     		ldr	r3, .L40
 5637 3cb6 4FEAC058 		lsl	r8, r0, #23
 5638 3cba 48EA5128 		orr	r8, r8, r1, lsr #9
 5639 3cbe EB18     		adds	r3, r5, r3
 5640 3cc0 82EA0802 		eor	r2, r2, r8
 5641 3cc4 0E9D     		ldr	r5, [sp, #56]
 5642 3cc6 DFF86483 		ldr	r8, .L40+24
 5643 3cca 48EB0508 		adc	r8, r8, r5
 5644 3cce 13EB0A0A 		adds	r10, r3, r10
 5645 3cd2 2E9B     		ldr	r3, [sp, #184]
 5646 3cd4 4CEB080C 		adc	ip, ip, r8
 5647 3cd8 27EA0008 		bic	r8, r7, r0
 5648 3cdc 12EB0A0A 		adds	r10, r2, r10
 5649 3ce0 23EA0102 		bic	r2, r3, r1
 5650 3ce4 04EA0003 		and	r3, r4, r0
ARM GAS  /tmp/ccxnUvyY.s 			page 100


 5651 3ce8 88EA0303 		eor	r3, r8, r3
 5652 3cec 4EEB0C0C 		adc	ip, lr, ip
 5653 3cf0 1AEB030A 		adds	r10, r10, r3
 5654 3cf4 299B     		ldr	r3, [sp, #164]
 5655 3cf6 06EA010E 		and	lr, r6, r1
 5656 3cfa 82EA0E02 		eor	r2, r2, lr
 5657 3cfe 4FEA137E 		lsr	lr, r3, #28
 5658 3d02 2D9B     		ldr	r3, [sp, #180]
 5659 3d04 4CEB020C 		adc	ip, ip, r2
 5660 3d08 299A     		ldr	r2, [sp, #164]
 5661 3d0a 4EEA031E 		orr	lr, lr, r3, lsl #4
 5662 3d0e 1B0F     		lsrs	r3, r3, #28
 5663 3d10 43EA0213 		orr	r3, r3, r2, lsl #4
 5664 3d14 2D9A     		ldr	r2, [sp, #180]
 5665 3d16 299D     		ldr	r5, [sp, #164]
 5666 3d18 9207     		lsls	r2, r2, #30
 5667 3d1a 42EA9502 		orr	r2, r2, r5, lsr #2
 5668 3d1e 4FEA8578 		lsl	r8, r5, #30
 5669 3d22 2D9D     		ldr	r5, [sp, #180]
 5670 3d24 5340     		eors	r3, r3, r2
 5671 3d26 48EA9508 		orr	r8, r8, r5, lsr #2
 5672 3d2a 6A06     		lsls	r2, r5, #25
 5673 3d2c 299D     		ldr	r5, [sp, #164]
 5674 3d2e 8EEA080E 		eor	lr, lr, r8
 5675 3d32 42EAD512 		orr	r2, r2, r5, lsr #7
 5676 3d36 4FEA4568 		lsl	r8, r5, #25
 5677 3d3a 2D9D     		ldr	r5, [sp, #180]
 5678 3d3c 5340     		eors	r3, r3, r2
 5679 3d3e 48EAD518 		orr	r8, r8, r5, lsr #7
 5680 3d42 2A9A     		ldr	r2, [sp, #168]
 5681 3d44 279D     		ldr	r5, [sp, #156]
 5682 3d46 8EEA080E 		eor	lr, lr, r8
 5683 3d4a 6A40     		eors	r2, r2, r5
 5684 3d4c DDE92B51 		ldrd	r5, r1, [sp, #172]
 5685 3d50 85EA0109 		eor	r9, r5, r1
 5686 3d54 2999     		ldr	r1, [sp, #164]
 5687 3d56 279D     		ldr	r5, [sp, #156]
 5688 3d58 0A40     		ands	r2, r2, r1
 5689 3d5a 2D99     		ldr	r1, [sp, #180]
 5690 3d5c 09EA0109 		and	r9, r9, r1
 5691 3d60 2A99     		ldr	r1, [sp, #168]
 5692 3d62 01EA050B 		and	fp, r1, r5
 5693 3d66 82EA0B02 		eor	r2, r2, fp
 5694 3d6a DDE92B15 		ldrd	r1, r5, [sp, #172]
 5695 3d6e 01EA0508 		and	r8, r1, r5
 5696 3d72 1EEB0202 		adds	r2, lr, r2
 5697 3d76 89EA0808 		eor	r8, r9, r8
 5698 3d7a 43EB0808 		adc	r8, r3, r8
 5699 3d7e 269B     		ldr	r3, [sp, #152]
 5700 3d80 2199     		ldr	r1, [sp, #132]
 5701 3d82 13EB0A0E 		adds	lr, r3, r10
 5702 3d86 289B     		ldr	r3, [sp, #160]
 5703 3d88 43EB0C09 		adc	r9, r3, ip
 5704 3d8c 1AEB0203 		adds	r3, r10, r2
 5705 3d90 2693     		str	r3, [sp, #152]
 5706 3d92 4CEB0803 		adc	r3, ip, r8
 5707 3d96 2893     		str	r3, [sp, #160]
ARM GAS  /tmp/ccxnUvyY.s 			page 101


 5708 3d98 4FEA9E32 		lsr	r2, lr, #14
 5709 3d9c 4FEA9E43 		lsr	r3, lr, #18
 5710 3da0 42EA8942 		orr	r2, r2, r9, lsl #18
 5711 3da4 43EA893B 		orr	fp, r3, r9, lsl #14
 5712 3da8 82EA0B03 		eor	r3, r2, fp
 5713 3dac 4FEA994C 		lsr	ip, r9, #18
 5714 3db0 4FEA9938 		lsr	r8, r9, #14
 5715 3db4 4FEACE52 		lsl	r2, lr, #23
 5716 3db8 48EA8E48 		orr	r8, r8, lr, lsl #18
 5717 3dbc 4CEA8E3A 		orr	r10, ip, lr, lsl #14
 5718 3dc0 42EA5922 		orr	r2, r2, r9, lsr #9
 5719 3dc4 88EA0A0C 		eor	ip, r8, r10
 5720 3dc8 5A40     		eors	r2, r2, r3
 5721 3dca 4FEAC958 		lsl	r8, r9, #23
 5722 3dce 924B     		ldr	r3, .L40+4
 5723 3dd0 48EA5E28 		orr	r8, r8, lr, lsr #9
 5724 3dd4 8CEA0808 		eor	r8, ip, r8
 5725 3dd8 CB18     		adds	r3, r1, r3
 5726 3dda DFF854C2 		ldr	ip, .L40+28
 5727 3dde 0F99     		ldr	r1, [sp, #60]
 5728 3de0 26EA0905 		bic	r5, r6, r9
 5729 3de4 4CEB010C 		adc	ip, ip, r1
 5730 3de8 2E99     		ldr	r1, [sp, #184]
 5731 3dea DB19     		adds	r3, r3, r7
 5732 3dec 41EB0C0C 		adc	ip, r1, ip
 5733 3df0 D318     		adds	r3, r2, r3
 5734 3df2 2F9A     		ldr	r2, [sp, #188]
 5735 3df4 48EB0C0C 		adc	ip, r8, ip
 5736 3df8 02EA0902 		and	r2, r2, r9
 5737 3dfc 24EA0E08 		bic	r8, r4, lr
 5738 3e00 00EA0E07 		and	r7, r0, lr
 5739 3e04 5540     		eors	r5, r5, r2
 5740 3e06 269A     		ldr	r2, [sp, #152]
 5741 3e08 88EA0707 		eor	r7, r8, r7
 5742 3e0c DB19     		adds	r3, r3, r7
 5743 3e0e 4FEA1277 		lsr	r7, r2, #28
 5744 3e12 289A     		ldr	r2, [sp, #160]
 5745 3e14 2699     		ldr	r1, [sp, #152]
 5746 3e16 47EA0217 		orr	r7, r7, r2, lsl #4
 5747 3e1a 4FEA1272 		lsr	r2, r2, #28
 5748 3e1e 42EA0112 		orr	r2, r2, r1, lsl #4
 5749 3e22 2899     		ldr	r1, [sp, #160]
 5750 3e24 4CEB050C 		adc	ip, ip, r5
 5751 3e28 8D07     		lsls	r5, r1, #30
 5752 3e2a 2699     		ldr	r1, [sp, #152]
 5753 3e2c 45EA9105 		orr	r5, r5, r1, lsr #2
 5754 3e30 4FEA8178 		lsl	r8, r1, #30
 5755 3e34 2899     		ldr	r1, [sp, #160]
 5756 3e36 6A40     		eors	r2, r2, r5
 5757 3e38 48EA9108 		orr	r8, r8, r1, lsr #2
 5758 3e3c 4D06     		lsls	r5, r1, #25
 5759 3e3e 2699     		ldr	r1, [sp, #152]
 5760 3e40 87EA0807 		eor	r7, r7, r8
 5761 3e44 45EAD115 		orr	r5, r5, r1, lsr #7
 5762 3e48 4FEA4168 		lsl	r8, r1, #25
 5763 3e4c 2899     		ldr	r1, [sp, #160]
 5764 3e4e 6A40     		eors	r2, r2, r5
ARM GAS  /tmp/ccxnUvyY.s 			page 102


 5765 3e50 48EAD118 		orr	r8, r8, r1, lsr #7
 5766 3e54 299D     		ldr	r5, [sp, #164]
 5767 3e56 2799     		ldr	r1, [sp, #156]
 5768 3e58 2E92     		str	r2, [sp, #184]
 5769 3e5a 4D40     		eors	r5, r5, r1
 5770 3e5c DDE92C12 		ldrd	r1, r2, [sp, #176]
 5771 3e60 81EA020A 		eor	r10, r1, r2
 5772 3e64 269A     		ldr	r2, [sp, #152]
 5773 3e66 2999     		ldr	r1, [sp, #164]
 5774 3e68 1540     		ands	r5, r5, r2
 5775 3e6a 289A     		ldr	r2, [sp, #160]
 5776 3e6c 87EA0807 		eor	r7, r7, r8
 5777 3e70 0AEA020A 		and	r10, r10, r2
 5778 3e74 279A     		ldr	r2, [sp, #156]
 5779 3e76 02EA010B 		and	fp, r2, r1
 5780 3e7a 85EA0B05 		eor	r5, r5, fp
 5781 3e7e DDE92C21 		ldrd	r2, r1, [sp, #176]
 5782 3e82 02EA0108 		and	r8, r2, r1
 5783 3e86 2E9A     		ldr	r2, [sp, #184]
 5784 3e88 7D19     		adds	r5, r7, r5
 5785 3e8a 8AEA0808 		eor	r8, r10, r8
 5786 3e8e 42EB080A 		adc	r10, r2, r8
 5787 3e92 2A9A     		ldr	r2, [sp, #168]
 5788 3e94 2B99     		ldr	r1, [sp, #172]
 5789 3e96 D218     		adds	r2, r2, r3
 5790 3e98 41EB0C08 		adc	r8, r1, ip
 5791 3e9c 5B19     		adds	r3, r3, r5
 5792 3e9e 2A93     		str	r3, [sp, #168]
 5793 3ea0 4CEB0A03 		adc	r3, ip, r10
 5794 3ea4 2B93     		str	r3, [sp, #172]
 5795 3ea6 4FEA9837 		lsr	r7, r8, #14
 5796 3eaa 4FEA9843 		lsr	r3, r8, #18
 5797 3eae 43EA8233 		orr	r3, r3, r2, lsl #14
 5798 3eb2 47EA8247 		orr	r7, r7, r2, lsl #18
 5799 3eb6 4FEA924C 		lsr	ip, r2, #18
 5800 3eba 950B     		lsrs	r5, r2, #14
 5801 3ebc 5F40     		eors	r7, r7, r3
 5802 3ebe 4FEAC853 		lsl	r3, r8, #23
 5803 3ec2 45EA8845 		orr	r5, r5, r8, lsl #18
 5804 3ec6 4CEA883A 		orr	r10, ip, r8, lsl #14
 5805 3eca 43EA5223 		orr	r3, r3, r2, lsr #9
 5806 3ece 85EA0A0C 		eor	ip, r5, r10
 5807 3ed2 2299     		ldr	r1, [sp, #136]
 5808 3ed4 5F40     		eors	r7, r7, r3
 5809 3ed6 D505     		lsls	r5, r2, #23
 5810 3ed8 504B     		ldr	r3, .L40+8
 5811 3eda 45EA5825 		orr	r5, r5, r8, lsr #9
 5812 3ede 8CEA0505 		eor	r5, ip, r5
 5813 3ee2 11EB030C 		adds	ip, r1, r3
 5814 3ee6 1099     		ldr	r1, [sp, #64]
 5815 3ee8 4D4B     		ldr	r3, .L40+12
 5816 3eea 43EB010A 		adc	r10, r3, r1
 5817 3eee 1CEB040C 		adds	ip, ip, r4
 5818 3ef2 46EB0A06 		adc	r6, r6, r10
 5819 3ef6 2F9B     		ldr	r3, [sp, #188]
 5820 3ef8 15EB0C0C 		adds	ip, r5, ip
 5821 3efc 47EB0606 		adc	r6, r7, r6
ARM GAS  /tmp/ccxnUvyY.s 			page 103


 5822 3f00 0EEA0204 		and	r4, lr, r2
 5823 3f04 20EA0207 		bic	r7, r0, r2
 5824 3f08 09EA0805 		and	r5, r9, r8
 5825 3f0c 7C40     		eors	r4, r4, r7
 5826 3f0e 23EA0803 		bic	r3, r3, r8
 5827 3f12 1CEB040C 		adds	ip, ip, r4
 5828 3f16 83EA0503 		eor	r3, r3, r5
 5829 3f1a 46EB0306 		adc	r6, r6, r3
 5830 3f1e 2A9B     		ldr	r3, [sp, #168]
 5831 3f20 2A99     		ldr	r1, [sp, #168]
 5832 3f22 1D0F     		lsrs	r5, r3, #28
 5833 3f24 2B9B     		ldr	r3, [sp, #172]
 5834 3f26 45EA0315 		orr	r5, r5, r3, lsl #4
 5835 3f2a 1B0F     		lsrs	r3, r3, #28
 5836 3f2c 43EA0113 		orr	r3, r3, r1, lsl #4
 5837 3f30 2B99     		ldr	r1, [sp, #172]
 5838 3f32 8C07     		lsls	r4, r1, #30
 5839 3f34 2A99     		ldr	r1, [sp, #168]
 5840 3f36 44EA9104 		orr	r4, r4, r1, lsr #2
 5841 3f3a 8F07     		lsls	r7, r1, #30
 5842 3f3c 2B99     		ldr	r1, [sp, #172]
 5843 3f3e 6340     		eors	r3, r3, r4
 5844 3f40 47EA9107 		orr	r7, r7, r1, lsr #2
 5845 3f44 4C06     		lsls	r4, r1, #25
 5846 3f46 2A99     		ldr	r1, [sp, #168]
 5847 3f48 7D40     		eors	r5, r5, r7
 5848 3f4a 44EAD114 		orr	r4, r4, r1, lsr #7
 5849 3f4e 4F06     		lsls	r7, r1, #25
 5850 3f50 2B99     		ldr	r1, [sp, #172]
 5851 3f52 6340     		eors	r3, r3, r4
 5852 3f54 47EAD117 		orr	r7, r7, r1, lsr #7
 5853 3f58 269C     		ldr	r4, [sp, #152]
 5854 3f5a 2999     		ldr	r1, [sp, #164]
 5855 3f5c 7D40     		eors	r5, r5, r7
 5856 3f5e 4C40     		eors	r4, r4, r1
 5857 3f60 289F     		ldr	r7, [sp, #160]
 5858 3f62 2D99     		ldr	r1, [sp, #180]
 5859 3f64 81EA070A 		eor	r10, r1, r7
 5860 3f68 2A99     		ldr	r1, [sp, #168]
 5861 3f6a 269F     		ldr	r7, [sp, #152]
 5862 3f6c 0C40     		ands	r4, r4, r1
 5863 3f6e 2B99     		ldr	r1, [sp, #172]
 5864 3f70 0AEA010A 		and	r10, r10, r1
 5865 3f74 2999     		ldr	r1, [sp, #164]
 5866 3f76 01EA070B 		and	fp, r1, r7
 5867 3f7a 2D99     		ldr	r1, [sp, #180]
 5868 3f7c 289F     		ldr	r7, [sp, #160]
 5869 3f7e 84EA0B04 		eor	r4, r4, fp
 5870 3f82 0F40     		ands	r7, r7, r1
 5871 3f84 2C19     		adds	r4, r5, r4
 5872 3f86 8AEA0707 		eor	r7, r10, r7
 5873 3f8a 43EB0707 		adc	r7, r3, r7
 5874 3f8e 279B     		ldr	r3, [sp, #156]
 5875 3f90 2C99     		ldr	r1, [sp, #176]
 5876 3f92 13EB0C03 		adds	r3, r3, ip
 5877 3f96 41EB060A 		adc	r10, r1, r6
 5878 3f9a 1CEB0401 		adds	r1, ip, r4
ARM GAS  /tmp/ccxnUvyY.s 			page 104


 5879 3f9e 2791     		str	r1, [sp, #156]
 5880 3fa0 4FEA9345 		lsr	r5, r3, #18
 5881 3fa4 46EB0701 		adc	r1, r6, r7
 5882 3fa8 4FEA9A4C 		lsr	ip, r10, #18
 5883 3fac 9F0B     		lsrs	r7, r3, #14
 5884 3fae 4FEA9A3B 		lsr	fp, r10, #14
 5885 3fb2 47EA8A47 		orr	r7, r7, r10, lsl #18
 5886 3fb6 4BEA834B 		orr	fp, fp, r3, lsl #18
 5887 3fba 45EA8A36 		orr	r6, r5, r10, lsl #14
 5888 3fbe 4CEA8334 		orr	r4, ip, r3, lsl #14
 5889 3fc2 2C91     		str	r1, [sp, #176]
 5890 3fc4 87EA0605 		eor	r5, r7, r6
 5891 3fc8 8BEA040C 		eor	ip, fp, r4
 5892 3fcc 2399     		ldr	r1, [sp, #140]
 5893 3fce DF05     		lsls	r7, r3, #23
 5894 3fd0 144C     		ldr	r4, .L40+16
 5895 3fd2 47EA5A27 		orr	r7, r7, r10, lsr #9
 5896 3fd6 0C19     		adds	r4, r1, r4
 5897 3fd8 87EA0507 		eor	r7, r7, r5
 5898 3fdc 1199     		ldr	r1, [sp, #68]
 5899 3fde 124D     		ldr	r5, .L40+20
 5900 3fe0 4FEACA5B 		lsl	fp, r10, #23
 5901 3fe4 4BEA532B 		orr	fp, fp, r3, lsr #9
 5902 3fe8 8CEA0B0B 		eor	fp, ip, fp
 5903 3fec 45EB010C 		adc	ip, r5, r1
 5904 3ff0 2F99     		ldr	r1, [sp, #188]
 5905 3ff2 2518     		adds	r5, r4, r0
 5906 3ff4 2EEA0306 		bic	r6, lr, r3
 5907 3ff8 02EA0300 		and	r0, r2, r3
 5908 3ffc 08EA0A04 		and	r4, r8, r10
 5909 4000 41EB0C0C 		adc	ip, r1, ip
 5910 4004 7040     		eors	r0, r0, r6
 5911 4006 7D19     		adds	r5, r7, r5
 5912 4008 29EA0A01 		bic	r1, r9, r10
 5913 400c 4BEB0C0C 		adc	ip, fp, ip
 5914 4010 10E0     		b	.L41
 5915              	.L42:
 5916 4012 00BF     		.align	2
 5917              	.L40:
 5918 4014 6403F14C 		.word	1290863460
 5919 4018 013042BC 		.word	-1136513023
 5920 401c 9197F8D0 		.word	-789014639
 5921 4020 708B4BC2 		.word	-1035236496
 5922 4024 30BE5406 		.word	106217008
 5923 4028 A3516CC7 		.word	-949202525
 5924 402c A1E8BFA2 		.word	-1564481375
 5925 4030 4B661AA8 		.word	-1474664885
 5926              	.L41:
 5927 4034 6140     		eors	r1, r1, r4
 5928 4036 2D18     		adds	r5, r5, r0
 5929 4038 4CEB010C 		adc	ip, ip, r1
 5930 403c 2799     		ldr	r1, [sp, #156]
 5931 403e 2798     		ldr	r0, [sp, #156]
 5932 4040 0C0F     		lsrs	r4, r1, #28
 5933 4042 2C99     		ldr	r1, [sp, #176]
 5934 4044 279E     		ldr	r6, [sp, #156]
 5935 4046 44EA0114 		orr	r4, r4, r1, lsl #4
ARM GAS  /tmp/ccxnUvyY.s 			page 105


 5936 404a 090F     		lsrs	r1, r1, #28
 5937 404c 41EA0011 		orr	r1, r1, r0, lsl #4
 5938 4050 2C98     		ldr	r0, [sp, #176]
 5939 4052 2C9F     		ldr	r7, [sp, #176]
 5940 4054 8007     		lsls	r0, r0, #30
 5941 4056 40EA9600 		orr	r0, r0, r6, lsr #2
 5942 405a B607     		lsls	r6, r6, #30
 5943 405c 46EA9706 		orr	r6, r6, r7, lsr #2
 5944 4060 7440     		eors	r4, r4, r6
 5945 4062 279E     		ldr	r6, [sp, #156]
 5946 4064 4140     		eors	r1, r1, r0
 5947 4066 7806     		lsls	r0, r7, #25
 5948 4068 40EAD610 		orr	r0, r0, r6, lsr #7
 5949 406c 7606     		lsls	r6, r6, #25
 5950 406e 46EAD716 		orr	r6, r6, r7, lsr #7
 5951 4072 7440     		eors	r4, r4, r6
 5952 4074 4140     		eors	r1, r1, r0
 5953 4076 2A9E     		ldr	r6, [sp, #168]
 5954 4078 2698     		ldr	r0, [sp, #152]
 5955 407a 2B9F     		ldr	r7, [sp, #172]
 5956 407c 7040     		eors	r0, r0, r6
 5957 407e 289E     		ldr	r6, [sp, #160]
 5958 4080 2E91     		str	r1, [sp, #184]
 5959 4082 7740     		eors	r7, r7, r6
 5960 4084 279E     		ldr	r6, [sp, #156]
 5961 4086 2A99     		ldr	r1, [sp, #168]
 5962 4088 3040     		ands	r0, r0, r6
 5963 408a 2C9E     		ldr	r6, [sp, #176]
 5964 408c 3740     		ands	r7, r7, r6
 5965 408e 269E     		ldr	r6, [sp, #152]
 5966 4090 06EA010B 		and	fp, r6, r1
 5967 4094 2899     		ldr	r1, [sp, #160]
 5968 4096 2B9E     		ldr	r6, [sp, #172]
 5969 4098 80EA0B00 		eor	r0, r0, fp
 5970 409c 0E40     		ands	r6, r6, r1
 5971 409e 2E99     		ldr	r1, [sp, #184]
 5972 40a0 2018     		adds	r0, r4, r0
 5973 40a2 86EA0706 		eor	r6, r6, r7
 5974 40a6 41EB0606 		adc	r6, r1, r6
 5975 40aa 2999     		ldr	r1, [sp, #164]
 5976 40ac 11EB050B 		adds	fp, r1, r5
 5977 40b0 2D99     		ldr	r1, [sp, #180]
 5978 40b2 4FEA9B44 		lsr	r4, fp, #18
 5979 40b6 41EB0C01 		adc	r1, r1, ip
 5980 40ba 2D91     		str	r1, [sp, #180]
 5981 40bc 2918     		adds	r1, r5, r0
 5982 40be 2991     		str	r1, [sp, #164]
 5983 40c0 2D99     		ldr	r1, [sp, #180]
 5984 40c2 4FEA9B35 		lsr	r5, fp, #14
 5985 40c6 4CEB0607 		adc	r7, ip, r6
 5986 40ca 45EA8145 		orr	r5, r5, r1, lsl #18
 5987 40ce 44EA8130 		orr	r0, r4, r1, lsl #14
 5988 40d2 4FEA913C 		lsr	ip, r1, #14
 5989 40d6 890C     		lsrs	r1, r1, #18
 5990 40d8 41EA8B31 		orr	r1, r1, fp, lsl #14
 5991 40dc 4CEA8B4C 		orr	ip, ip, fp, lsl #18
 5992 40e0 8CEA010C 		eor	ip, ip, r1
ARM GAS  /tmp/ccxnUvyY.s 			page 106


 5993 40e4 2D99     		ldr	r1, [sp, #180]
 5994 40e6 85EA0004 		eor	r4, r5, r0
 5995 40ea 2D98     		ldr	r0, [sp, #180]
 5996 40ec 4FEACB55 		lsl	r5, fp, #23
 5997 40f0 C905     		lsls	r1, r1, #23
 5998 40f2 41EA5B21 		orr	r1, r1, fp, lsr #9
 5999 40f6 45EA5025 		orr	r5, r5, r0, lsr #9
 6000 40fa 6540     		eors	r5, r5, r4
 6001 40fc 8CEA010C 		eor	ip, ip, r1
 6002 4100 CD4C     		ldr	r4, .L43
 6003 4102 2499     		ldr	r1, [sp, #144]
 6004 4104 CD4E     		ldr	r6, .L43+4
 6005 4106 0C19     		adds	r4, r1, r4
 6006 4108 1299     		ldr	r1, [sp, #72]
 6007 410a 46EB0106 		adc	r6, r6, r1
 6008 410e 14EB0E04 		adds	r4, r4, lr
 6009 4112 49EB0609 		adc	r9, r9, r6
 6010 4116 03EA0B0E 		and	lr, r3, fp
 6011 411a 2C19     		adds	r4, r5, r4
 6012 411c 22EA0B05 		bic	r5, r2, fp
 6013 4120 28EA0001 		bic	r1, r8, r0
 6014 4124 85EA0E0E 		eor	lr, r5, lr
 6015 4128 0AEA0000 		and	r0, r10, r0
 6016 412c 299D     		ldr	r5, [sp, #164]
 6017 412e 4CEB0909 		adc	r9, ip, r9
 6018 4132 4140     		eors	r1, r1, r0
 6019 4134 14EB0E04 		adds	r4, r4, lr
 6020 4138 49EB0109 		adc	r9, r9, r1
 6021 413c 299E     		ldr	r6, [sp, #164]
 6022 413e 2999     		ldr	r1, [sp, #164]
 6023 4140 380F     		lsrs	r0, r7, #28
 6024 4142 40EA0510 		orr	r0, r0, r5, lsl #4
 6025 4146 BD07     		lsls	r5, r7, #30
 6026 4148 45EA9605 		orr	r5, r5, r6, lsr #2
 6027 414c 090F     		lsrs	r1, r1, #28
 6028 414e B607     		lsls	r6, r6, #30
 6029 4150 46EA9706 		orr	r6, r6, r7, lsr #2
 6030 4154 41EA0711 		orr	r1, r1, r7, lsl #4
 6031 4158 7140     		eors	r1, r1, r6
 6032 415a 299E     		ldr	r6, [sp, #164]
 6033 415c 6840     		eors	r0, r0, r5
 6034 415e 7D06     		lsls	r5, r7, #25
 6035 4160 45EAD615 		orr	r5, r5, r6, lsr #7
 6036 4164 7606     		lsls	r6, r6, #25
 6037 4166 46EAD716 		orr	r6, r6, r7, lsr #7
 6038 416a 7140     		eors	r1, r1, r6
 6039 416c 2E91     		str	r1, [sp, #184]
 6040 416e 279E     		ldr	r6, [sp, #156]
 6041 4170 80EA0501 		eor	r1, r0, r5
 6042 4174 2A9D     		ldr	r5, [sp, #168]
 6043 4176 2F91     		str	r1, [sp, #188]
 6044 4178 7540     		eors	r5, r5, r6
 6045 417a DDE92B61 		ldrd	r6, r1, [sp, #172]
 6046 417e 4E40     		eors	r6, r6, r1
 6047 4180 2999     		ldr	r1, [sp, #164]
 6048 4182 2798     		ldr	r0, [sp, #156]
 6049 4184 0D40     		ands	r5, r5, r1
ARM GAS  /tmp/ccxnUvyY.s 			page 107


 6050 4186 2A99     		ldr	r1, [sp, #168]
 6051 4188 3E40     		ands	r6, r6, r7
 6052 418a 01EA000E 		and	lr, r1, r0
 6053 418e DDE92B10 		ldrd	r1, r0, [sp, #172]
 6054 4192 01EA000C 		and	ip, r1, r0
 6055 4196 2E99     		ldr	r1, [sp, #184]
 6056 4198 85EA0E05 		eor	r5, r5, lr
 6057 419c 4D19     		adds	r5, r1, r5
 6058 419e 2F99     		ldr	r1, [sp, #188]
 6059 41a0 86EA0C06 		eor	r6, r6, ip
 6060 41a4 41EB0606 		adc	r6, r1, r6
 6061 41a8 2699     		ldr	r1, [sp, #152]
 6062 41aa 0919     		adds	r1, r1, r4
 6063 41ac 2E91     		str	r1, [sp, #184]
 6064 41ae 2899     		ldr	r1, [sp, #160]
 6065 41b0 41EB0901 		adc	r1, r1, r9
 6066 41b4 2F91     		str	r1, [sp, #188]
 6067 41b6 6119     		adds	r1, r4, r5
 6068 41b8 2691     		str	r1, [sp, #152]
 6069 41ba 2E99     		ldr	r1, [sp, #184]
 6070 41bc 2E9C     		ldr	r4, [sp, #184]
 6071 41be 4FEA913C 		lsr	ip, r1, #14
 6072 41c2 2F99     		ldr	r1, [sp, #188]
 6073 41c4 49EB0609 		adc	r9, r9, r6
 6074 41c8 4CEA814C 		orr	ip, ip, r1, lsl #18
 6075 41cc 4FEA913E 		lsr	lr, r1, #14
 6076 41d0 2E99     		ldr	r1, [sp, #184]
 6077 41d2 9B4E     		ldr	r6, .L43+8
 6078 41d4 4EEA814E 		orr	lr, lr, r1, lsl #18
 6079 41d8 880C     		lsrs	r0, r1, #18
 6080 41da 2F99     		ldr	r1, [sp, #188]
 6081 41dc 40EA8130 		orr	r0, r0, r1, lsl #14
 6082 41e0 890C     		lsrs	r1, r1, #18
 6083 41e2 41EA8431 		orr	r1, r1, r4, lsl #14
 6084 41e6 8EEA010E 		eor	lr, lr, r1
 6085 41ea 2F99     		ldr	r1, [sp, #188]
 6086 41ec 8CEA000C 		eor	ip, ip, r0
 6087 41f0 C905     		lsls	r1, r1, #23
 6088 41f2 41EA5421 		orr	r1, r1, r4, lsr #9
 6089 41f6 E005     		lsls	r0, r4, #23
 6090 41f8 2F9C     		ldr	r4, [sp, #188]
 6091 41fa 8EEA010E 		eor	lr, lr, r1
 6092 41fe 40EA5420 		orr	r0, r0, r4, lsr #9
 6093 4202 2599     		ldr	r1, [sp, #148]
 6094 4204 8CEA000C 		eor	ip, ip, r0
 6095 4208 8E48     		ldr	r0, .L43+12
 6096 420a 0818     		adds	r0, r1, r0
 6097 420c 1399     		ldr	r1, [sp, #76]
 6098 420e 46EB0106 		adc	r6, r6, r1
 6099 4212 2E99     		ldr	r1, [sp, #184]
 6100 4214 8218     		adds	r2, r0, r2
 6101 4216 23EA0105 		bic	r5, r3, r1
 6102 421a 2E99     		ldr	r1, [sp, #184]
 6103 421c 48EB0608 		adc	r8, r8, r6
 6104 4220 2AEA0400 		bic	r0, r10, r4
 6105 4224 2F9E     		ldr	r6, [sp, #188]
 6106 4226 2D9C     		ldr	r4, [sp, #180]
ARM GAS  /tmp/ccxnUvyY.s 			page 108


 6107 4228 0BEA0101 		and	r1, fp, r1
 6108 422c 1CEB0202 		adds	r2, ip, r2
 6109 4230 04EA0604 		and	r4, r4, r6
 6110 4234 81EA0501 		eor	r1, r1, r5
 6111 4238 4EEB0808 		adc	r8, lr, r8
 6112 423c 6040     		eors	r0, r0, r4
 6113 423e 5218     		adds	r2, r2, r1
 6114 4240 269C     		ldr	r4, [sp, #152]
 6115 4242 48EB0008 		adc	r8, r8, r0
 6116 4246 269D     		ldr	r5, [sp, #152]
 6117 4248 2699     		ldr	r1, [sp, #152]
 6118 424a 4FEA1970 		lsr	r0, r9, #28
 6119 424e 40EA0410 		orr	r0, r0, r4, lsl #4
 6120 4252 4FEA8974 		lsl	r4, r9, #30
 6121 4256 44EA9504 		orr	r4, r4, r5, lsr #2
 6122 425a 090F     		lsrs	r1, r1, #28
 6123 425c AD07     		lsls	r5, r5, #30
 6124 425e 45EA9905 		orr	r5, r5, r9, lsr #2
 6125 4262 41EA0911 		orr	r1, r1, r9, lsl #4
 6126 4266 6940     		eors	r1, r1, r5
 6127 4268 269D     		ldr	r5, [sp, #152]
 6128 426a 6040     		eors	r0, r0, r4
 6129 426c 4FEA4964 		lsl	r4, r9, #25
 6130 4270 44EAD514 		orr	r4, r4, r5, lsr #7
 6131 4274 6D06     		lsls	r5, r5, #25
 6132 4276 45EAD915 		orr	r5, r5, r9, lsr #7
 6133 427a 81EA050E 		eor	lr, r1, r5
 6134 427e 6040     		eors	r0, r0, r4
 6135 4280 299D     		ldr	r5, [sp, #164]
 6136 4282 279C     		ldr	r4, [sp, #156]
 6137 4284 269E     		ldr	r6, [sp, #152]
 6138 4286 6C40     		eors	r4, r4, r5
 6139 4288 2999     		ldr	r1, [sp, #164]
 6140 428a 3440     		ands	r4, r4, r6
 6141 428c 279E     		ldr	r6, [sp, #156]
 6142 428e 2C9D     		ldr	r5, [sp, #176]
 6143 4290 06EA010C 		and	ip, r6, r1
 6144 4294 2C99     		ldr	r1, [sp, #176]
 6145 4296 7D40     		eors	r5, r5, r7
 6146 4298 01EA0706 		and	r6, r1, r7
 6147 429c 05EA0905 		and	r5, r5, r9
 6148 42a0 2A99     		ldr	r1, [sp, #168]
 6149 42a2 84EA0C04 		eor	r4, r4, ip
 6150 42a6 1EEB0404 		adds	r4, lr, r4
 6151 42aa 85EA0605 		eor	r5, r5, r6
 6152 42ae 40EB0505 		adc	r5, r0, r5
 6153 42b2 8918     		adds	r1, r1, r2
 6154 42b4 2A91     		str	r1, [sp, #168]
 6155 42b6 2B99     		ldr	r1, [sp, #172]
 6156 42b8 41EB0801 		adc	r1, r1, r8
 6157 42bc 12EB040E 		adds	lr, r2, r4
 6158 42c0 2A9A     		ldr	r2, [sp, #168]
 6159 42c2 48EB0508 		adc	r8, r8, r5
 6160 42c6 950B     		lsrs	r5, r2, #14
 6161 42c8 2A9A     		ldr	r2, [sp, #168]
 6162 42ca 2B91     		str	r1, [sp, #172]
 6163 42cc 4FEA913C 		lsr	ip, r1, #14
ARM GAS  /tmp/ccxnUvyY.s 			page 109


 6164 42d0 45EA8145 		orr	r5, r5, r1, lsl #18
 6165 42d4 4CEA824C 		orr	ip, ip, r2, lsl #18
 6166 42d8 910C     		lsrs	r1, r2, #18
 6167 42da 2B9A     		ldr	r2, [sp, #172]
 6168 42dc 41EA8230 		orr	r0, r1, r2, lsl #14
 6169 42e0 2A99     		ldr	r1, [sp, #168]
 6170 42e2 920C     		lsrs	r2, r2, #18
 6171 42e4 42EA8132 		orr	r2, r2, r1, lsl #14
 6172 42e8 8CEA020C 		eor	ip, ip, r2
 6173 42ec 2B9A     		ldr	r2, [sp, #172]
 6174 42ee 85EA0001 		eor	r1, r5, r0
 6175 42f2 2A98     		ldr	r0, [sp, #168]
 6176 42f4 D205     		lsls	r2, r2, #23
 6177 42f6 42EA5022 		orr	r2, r2, r0, lsr #9
 6178 42fa C505     		lsls	r5, r0, #23
 6179 42fc 2B98     		ldr	r0, [sp, #172]
 6180 42fe 8CEA020C 		eor	ip, ip, r2
 6181 4302 45EA5025 		orr	r5, r5, r0, lsr #9
 6182 4306 169A     		ldr	r2, [sp, #88]
 6183 4308 4D40     		eors	r5, r5, r1
 6184 430a 4F49     		ldr	r1, .L43+16
 6185 430c 0298     		ldr	r0, [sp, #8]
 6186 430e 5118     		adds	r1, r2, r1
 6187 4310 4E4A     		ldr	r2, .L43+20
 6188 4312 42EB0002 		adc	r2, r2, r0
 6189 4316 C918     		adds	r1, r1, r3
